edid-decode (hex):

00 ff ff ff ff ff ff 00 06 af ee 13 00 00 00 00
01 12 01 03 90 22 13 78 0a b0 25 9f 59 56 93 26
0d 50 54 00 00 00 01 01 01 01 01 01 01 01 01 01
01 01 01 01 01 01 cc 29 40 63 61 84 0c 30 40 2a
33 00 58 c1 10 00 00 1a cc 29 40 63 61 84 0c 30
40 2a 33 00 58 c1 10 00 00 1a 00 00 00 fe 00 47
33 37 30 52 80 42 31 35 36 52 57 31 00 00 00 00
00 00 00 00 00 00 00 00 00 02 01 0a 20 20 00 6d

----------------

Block 0, Base EDID:
  EDID Structure Version & Revision: 1.3
  Vendor & Product Identification:
    Manufacturer: AUO
    Model: 5102
    Made in: week 1 of 2008
  Basic Display Parameters & Features:
    Digital display
    Maximum image size: 34 cm x 19 cm
    Gamma: 2.20
    RGB color display
    First detailed timing is the preferred timing
  Color Characteristics:
    Red  : 0.6230, 0.3505
    Green: 0.3359, 0.5742
    Blue : 0.1484, 0.0527
    White: 0.3134, 0.3291
  Established Timings I & II: none
  Standard Timings: none
  Detailed Timing Descriptors:
    DTD 1:  1600x900    60.012563 Hz  16:9     54.731 kHz    107.000000 MHz (344 mm x 193 mm)
                 Hfront   64 Hsync  42 Hback  249 Hpol P
                 Vfront    3 Vsync   3 Vback    6 Vpol N
    DTD 2:  1600x900    60.012563 Hz  16:9     54.731 kHz    107.000000 MHz (344 mm x 193 mm)
                 Hfront   64 Hsync  42 Hback  249 Hpol P
                 Vfront    3 Vsync   3 Vback    6 Vpol N
    Alphanumeric Data String: 'G370R'
    Manufacturer-Specified Display Descriptor (0x00): 00 00 00 00 00 00 00 00 00 00 00 02 01 0a 20 20 '..............  '
Checksum: 0x6d

----------------

Failures:

Block 0, Base EDID:
  Basic Display Parameters & Features: Digital Video Interface Standard set to reserved value 0x10.
  Alphanumeric Data String: Non-printable character.
  Missing Display Product Name.
  Missing Display Range Limits Descriptor.

EDID conformity: FAIL
