
EDID (hex):
00ffffffffffff000dae401000000000
1717010490160d7802f5f59456549128
22505400000001010101010101010101
010101010101da1d56e250002030442d
4700de7d0000001ae71356e250002030
442d4700de7d0000001a000000000000
00000000000000000000000000000002
000c3fd80c3c6410090f75000000007b

Extracted contents:
header:          00 ff ff ff ff ff ff 00
serial number:   0d ae 40 10 00 00 00 00 17 17
version:         01 04
basic params:    90 16 0d 78 02
chroma info:     f5 f5 94 56 54 91 28 22 50 54
established:     00 00 00
standard:        01 01 01 01 01 01 01 01 01 01 01 01 01 01 01 01
descriptor 1:    da 1d 56 e2 50 00 20 30 44 2d 47 00 de 7d 00 00 00 1a
descriptor 2:    e7 13 56 e2 50 00 20 30 44 2d 47 00 de 7d 00 00 00 1a
descriptor 3:    00 00 00 00 00 00 00 00 00 00 00 00 00 00 00 00 00 00
descriptor 4:    00 00 00 02 00 0c 3f d8 0c 3c 64 10 09 0f 75 00 00 00
extensions:      00
checksum:        7b

EDID version: 1.4
Manufacturer: CMN Model 1040 Serial Number --
Made in week 23 of 2013
Digital display
6 bits per primary color channel
Digital interface is not defined
Maximum image size: 22 cm x 13 cm
Gamma: 2.20
Supported color formats: RGB 4:4:4
First detailed timing includes the native pixel format and preferred refresh rate
Display x,y Chromaticity:
  Red:   0.5810, 0.3388
  Green: 0.3291, 0.5673
  Blue:  0.1591, 0.1357
  White: 0.3134, 0.3291
Established timings supported:
Standard timings supported:
Detailed mode: Clock 76.420 MHz, 222 mm x 125 mm
               1366 1434 1479 1592 hborder 0
                768  772  779  800 vborder 0
               +hsync -vsync 
               VertFreq: 60 Hz, HorFreq: 48002 Hz
Detailed mode: Clock 50.950 MHz, 222 mm x 125 mm
               1366 1434 1479 1592 hborder 0
                768  772  779  800 vborder 0
               +hsync -vsync 
               VertFreq: 40 Hz, HorFreq: 32003 Hz
Manufacturer-specified data, tag 0
Manufacturer-specified data, tag 2
Checksum: 0x7b (valid)
EDID block does NOT conform to EDID 1.4!
	Missing name descriptor
	Missing monitor ranges
