edid-decode (hex):

00 ff ff ff ff ff ff 00 4c 83 4f c3 00 00 00 00
00 19 01 04 a5 22 13 78 0a c5 85 a3 57 4f 9c 26
12 50 54 00 00 00 01 01 01 01 01 01 01 01 01 01
01 01 01 01 01 01 d8 cc 00 a0 f0 70 19 80 30 20
26 00 58 c2 10 00 00 1a d8 cc 00 e0 f1 70 71 81
30 20 26 00 58 c2 10 00 00 1a 00 00 00 fe 00 44
57 4a 30 52 80 31 35 36 46 4c 0a 20 00 00 00 00
00 02 41 21 9b 61 00 00 00 2b 01 0a 20 20 00 f5

----------------

Block 0, Base EDID:
  EDID Structure Version & Revision: 1.4
  Vendor & Product Identification:
    Manufacturer: SDC
    Model: 49999
    Made in: 2015
  Basic Display Parameters & Features:
    Digital display
    Bits per primary color channel: 8
    DisplayPort interface
    Maximum image size: 34 cm x 19 cm
    Gamma: 2.20
    Supported color formats: RGB 4:4:4, YCrCb 4:4:4
    First detailed timing includes the native pixel format and preferred refresh rate
  Color Characteristics:
    Red  : 0.6396, 0.3398
    Green: 0.3095, 0.6103
    Blue : 0.1503, 0.0703
    White: 0.3134, 0.3291
  Established Timings I & II: none
  Standard Timings: none
  Detailed Timing Descriptors:
    DTD 1:  3840x2160   60.000 Hz  16:9   131.100 kHz 524.400 MHz (344 mm x 194 mm)
                 Hfront   48 Hsync  32 Hback  80 Hpol P
                 Vfront    2 Vsync   6 Vback  17 Vpol N
    DTD 2:  3840x2160   47.999 Hz  16:9   121.389 kHz 524.400 MHz (344 mm x 194 mm)
                 Hfront   48 Hsync  32 Hback 400 Hpol P
                 Vfront    2 Vsync   6 Vback 361 Vpol N
    Alphanumeric Data String: 'DWJ0R'
    Manufacturer-Specified Display Descriptor (0x00): 00 00 00 02 41 21 9b 61 00 00 00 2b 01 0a 20 20 '....A!.a...+..  '
Checksum: 0xf5

----------------

Failures:

Block 0, Base EDID:
  Alphanumeric Data String: Non-printable character.
  Missing Display Product Name.

EDID conformity: FAIL
