edid-decode (hex):

00 ff ff ff ff ff ff 00 30 e4 98 04 00 00 00 00
00 19 01 04 a5 1c 10 78 0a 9f 15 94 58 55 90 29
1c 50 54 00 00 00 01 01 01 01 01 01 01 01 01 01
01 01 01 01 01 01 52 1c 56 a0 50 00 18 30 20 20
24 00 15 9c 10 00 00 1b e1 12 56 a0 50 00 18 30
20 20 24 00 15 9c 10 00 00 1b 00 00 00 00 00 00
00 00 00 00 00 00 00 00 00 00 00 00 00 00 00 02
00 0a 3d ff 0a 3c 6e 13 0d 17 6e 00 00 00 00 c9

----------------

Block 0, Base EDID:
  EDID Structure Version & Revision: 1.4
  Vendor & Product Identification:
    Manufacturer: LGD
    Model: 1176
    Made in: 2015
  Basic Display Parameters & Features:
    Digital display
    Bits per primary color channel: 8
    DisplayPort interface
    Maximum image size: 28 cm x 16 cm
    Gamma: 2.20
    Supported color formats: RGB 4:4:4, YCrCb 4:4:4
    First detailed timing includes the native pixel format and preferred refresh rate
  Color Characteristics:
    Red  : 0.5800, 0.3447
    Green: 0.3349, 0.5654
    Blue : 0.1601, 0.1103
    White: 0.3134, 0.3291
  Established Timings I & II: none
  Standard Timings: none
  Detailed Timing Descriptors:
    DTD 1:  1366x768    59.987159 Hz 683:384   47.510 kHz     72.500000 MHz (277 mm x 156 mm)
                 Hfront   32 Hsync  32 Hback   96 Hpol P
                 Vfront    2 Vsync   4 Vback   18 Vpol N
    DTD 2:  1366x768    39.988681 Hz 683:384   31.671 kHz     48.330000 MHz (277 mm x 156 mm)
                 Hfront   32 Hsync  32 Hback   96 Hpol P
                 Vfront    2 Vsync   4 Vback   18 Vpol N
    Empty Descriptor
    Manufacturer-Specified Display Descriptor (0x02): 00 02 00 0a 3d ff 0a 3c 6e 13 0d 17 6e 00 00 00 '....=..<n...n...'
Checksum: 0xc9

----------------

Failures:

Block 0, Base EDID:
  Empty Descriptor: Use Dummy Descriptor instead of all zeroes.
  Missing Display Product Name.

EDID conformity: FAIL
