
EDID (hex):
00ffffffffffff004249183200000000
1c11010308462778c8f27ca454459a24
12484bafce00a9406159455931598180
d1c001010101a00f200031581c202880
1400e7121100001e000000fc004c432d
3332484333360a202020000000fd0037
561e6011000a202020202020000000ff
0030353932353638373639380a20000f

Extracted contents:
header:          00 ff ff ff ff ff ff 00
serial number:   42 49 18 32 00 00 00 00 1c 11
version:         01 03
basic params:    08 46 27 78 c8
chroma info:     f2 7c a4 54 45 9a 24 12 48 4b
established:     af ce 00
standard:        a9 40 61 59 45 59 31 59 81 80 d1 c0 01 01 01 01
descriptor 1:    a0 0f 20 00 31 58 1c 20 28 80 14 00 e7 12 11 00 00 1e
descriptor 2:    00 00 00 fc 00 4c 43 2d 33 32 48 43 33 36 0a 20 20 20
descriptor 3:    00 00 00 fd 00 37 56 1e 60 11 00 0a 20 20 20 20 20 20
descriptor 4:    00 00 00 ff 00 30 35 39 32 35 36 38 37 36 39 38 0a 20
extensions:      00
checksum:        0f

EDID version: 1.3
Manufacturer: PRI Model 3218 Serial Number --
Made in week 28 of 2007
Analog display, Input voltage level: 0.7/0.3 V
Sync: Separate 
Maximum image size: 70 cm x 39 cm
Gamma: 2.20
DPMS levels: Standby Suspend
RGB color display
Display x,y Chromaticity:
  Red:   0.6435, 0.3310
  Green: 0.2695, 0.6035
  Blue:  0.1416, 0.0732
  White: 0.2841, 0.2929
Established timings supported:
  720x400@70Hz 9:5 HorFreq: 31469 Hz Clock: 28.320 MHz
  640x480@60Hz 4:3 HorFreq: 31469 Hz Clock: 25.175 MHz
  640x480@72Hz 4:3 HorFreq: 37900 Hz Clock: 31.500 MHz
  640x480@75Hz 4:3 HorFreq: 37500 Hz Clock: 31.500 MHz
  800x600@56Hz 4:3 HorFreq: 35200 Hz Clock: 36.000 MHz
  800x600@60Hz 4:3 HorFreq: 37900 Hz Clock: 40.000 MHz
  800x600@72Hz 4:3 HorFreq: 48100 Hz Clock: 50.000 MHz
  800x600@75Hz 4:3 HorFreq: 46900 Hz Clock: 49.500 MHz
  1024x768@60Hz 4:3 HorFreq: 48400 Hz Clock: 65.000 MHz
  1024x768@70Hz 4:3 HorFreq: 56500 Hz Clock: 75.000 MHz
  1024x768@75Hz 4:3 HorFreq: 60000 Hz Clock: 78.750 MHz
Standard timings supported:
  1600x1200@60Hz 4:3 HorFreq: 75000 Hz Clock: 162.000 MHz
  1024x768@85Hz 4:3 HorFreq: 68700 Hz Clock: 94.500 MHz
  800x600@85Hz 4:3 HorFreq: 53700 Hz Clock: 56.250 MHz
  640x480@85Hz 4:3 HorFreq: 43300 Hz Clock: 36.000 MHz
  1280x1024@60Hz 5:4 HorFreq: 64000 Hz Clock: 108.000 MHz
  1920x1080@60Hz 16:9
Detailed mode: Clock 40.000 MHz, 487 mm x 274 mm
                800  840  968 1056 hborder 0
                600  601  605  628 vborder 0
               +hsync +vsync 
               VertFreq: 60 Hz, HorFreq: 37878 Hz
Monitor name: LC-32HC36
Monitor ranges (GTF): 55-86Hz V, 30-96kHz H, max dotclock 170MHz
Serial number: --
Checksum: 0xf (valid)
EDID block does NOT conform to EDID 1.3!
	Missing preferred timing
