
EDID (hex):
00ffffffffffff000e6f0c1400000000
001f0104a51e137803ee95a3544c9926
0f505400000001010101010101010101
010101010101f58340a0b00834703020
36002ebc10000018000000fd00283c6f
6f34010a202020202020000000fe0043
534f542054330a2020202020000000fe
004d4e453030375a41312d330a2000cf

edid-decode (hex):

00 ff ff ff ff ff ff 00 0e 6f 0c 14 00 00 00 00
00 1f 01 04 a5 1e 13 78 03 ee 95 a3 54 4c 99 26
0f 50 54 00 00 00 01 01 01 01 01 01 01 01 01 01
01 01 01 01 01 01 f5 83 40 a0 b0 08 34 70 30 20
36 00 2e bc 10 00 00 18 00 00 00 fd 00 28 3c 6f
6f 34 01 0a 20 20 20 20 20 20 00 00 00 fe 00 43
53 4f 54 20 54 33 0a 20 20 20 20 20 00 00 00 fe
00 4d 4e 45 30 30 37 5a 41 31 2d 33 0a 20 00 cf

----------------

Block 0, Base EDID:
  EDID Structure Version & Revision: 1.4
  Vendor & Product Identification:
    Manufacturer: CSO
    Model: 5132
    Made in: 2021
  Basic Display Parameters & Features:
    Digital display
    Bits per primary color channel: 8
    DisplayPort interface
    Maximum image size: 30 cm x 19 cm
    Gamma: 2.20
    Supported color formats: RGB 4:4:4
    First detailed timing includes the native pixel format and preferred refresh rate
    Display is continuous frequency
  Color Characteristics:
    Red  : 0.6396, 0.3300
    Green: 0.2998, 0.5996
    Blue : 0.1503, 0.0595
    White: 0.3134, 0.3291
  Established Timings I & II: none
  Standard Timings: none
  Detailed Timing Descriptors:
    DTD 1:  2880x1800   60.000924 Hz  16:10   111.122 kHz    337.810000 MHz (302 mm x 188 mm)
                 Hfront   48 Hsync  32 Hback   80 Hpol N
                 Vfront    3 Vsync   6 Vback   43 Vpol N
    Display Range Limits:
      Monitor ranges (Bare Limits): 40-60 Hz V, 111-111 kHz H, max dotclock 520 MHz
    Alphanumeric Data String: 'CSOT T3'
    Alphanumeric Data String: 'MNE007ZA1-3'
Checksum: 0xcf
