
EDID (hex):
00ffffffffffff0022646f4b01010101
02150103802f1e78ea0df5a5574ca123
105054bfef80b300a940950f81808140
81c0714f614621399030621a274068b0
3600d9281100001c000000fc00484132
32344450420a20202020000000fd0038
4b185311000a202020202020000000ff
003130323550334c5930303633380032

Extracted contents:
header:          00 ff ff ff ff ff ff 00
serial number:   22 64 6f 4b 01 01 01 01 02 15
version:         01 03
basic params:    80 2f 1e 78 ea
chroma info:     0d f5 a5 57 4c a1 23 10 50 54
established:     bf ef 80
standard:        b3 00 a9 40 95 0f 81 80 81 40 81 c0 71 4f 61 46
descriptor 1:    21 39 90 30 62 1a 27 40 68 b0 36 00 d9 28 11 00 00 1c
descriptor 2:    00 00 00 fc 00 48 41 32 32 34 44 50 42 0a 20 20 20 20
descriptor 3:    00 00 00 fd 00 38 4b 18 53 11 00 0a 20 20 20 20 20 20
descriptor 4:    00 00 00 ff 00 31 30 32 35 50 33 4c 59 30 30 36 33 38
extensions:      00
checksum:        32

EDID version: 1.3
Manufacturer: HSD Model 4b6f Serial Number --
Made in week 2 of 2011
Digital display
Maximum image size: 47 cm x 30 cm
Gamma: 2.20
DPMS levels: Standby Suspend Off
RGB color display
First detailed timing is preferred timing
Display x,y Chromaticity:
  Red:   0.6445, 0.3398
  Green: 0.2998, 0.6298
  Blue:  0.1396, 0.0654
  White: 0.3134, 0.3291
Established timings supported:
  720x400@70Hz 9:5 HorFreq: 31469 Hz Clock: 28.320 MHz
  640x480@60Hz 4:3 HorFreq: 31469 Hz Clock: 25.175 MHz
  640x480@67Hz 4:3 HorFreq: 35000 Hz Clock: 30.240 MHz
  640x480@72Hz 4:3 HorFreq: 37900 Hz Clock: 31.500 MHz
  640x480@75Hz 4:3 HorFreq: 37500 Hz Clock: 31.500 MHz
  800x600@56Hz 4:3 HorFreq: 35200 Hz Clock: 36.000 MHz
  800x600@60Hz 4:3 HorFreq: 37900 Hz Clock: 40.000 MHz
  800x600@72Hz 4:3 HorFreq: 48100 Hz Clock: 50.000 MHz
  800x600@75Hz 4:3 HorFreq: 46900 Hz Clock: 49.500 MHz
  832x624@75Hz 4:3 HorFreq: 49726 Hz Clock: 57.284 MHz
  1024x768@60Hz 4:3 HorFreq: 48400 Hz Clock: 65.000 MHz
  1024x768@70Hz 4:3 HorFreq: 56500 Hz Clock: 75.000 MHz
  1024x768@75Hz 4:3 HorFreq: 60000 Hz Clock: 78.750 MHz
  1280x1024@75Hz 5:4 HorFreq: 80000 Hz Clock: 135.000 MHz
  1152x870@75Hz 192:145 HorFreq: 67500 Hz Clock: 108.000 MHz
Standard timings supported:
  1680x1050@60Hz 16:10 HorFreq: 64700 Hz Clock: 119.000 MHz
  1600x1200@60Hz 4:3 HorFreq: 75000 Hz Clock: 162.000 MHz
  1440x900@75Hz 16:10 HorFreq: 82300 Hz Clock: 156.000 MHz
  1280x1024@60Hz 5:4 HorFreq: 64000 Hz Clock: 108.000 MHz
  1280x960@60Hz 4:3 HorFreq: 60000 Hz Clock: 108.000 MHz
  1280x720@60Hz 16:9
  1152x864@75Hz 4:3 HorFreq: 67500 Hz Clock: 108.000 MHz
  1024x768@66Hz 4:3
Detailed mode: Clock 146.250 MHz, 473 mm x 296 mm
               1680 1784 1960 2240 hborder 0
               1050 1053 1059 1089 vborder 0
               -hsync +vsync 
               VertFreq: 59 Hz, HorFreq: 65290 Hz
Monitor name: HA224DPB
Monitor ranges (GTF): 56-75Hz V, 24-83kHz H, max dotclock 170MHz
Serial number: --
Checksum: 0x32 (valid)
