edid-decode (hex):

00 ff ff ff ff ff ff 00 51 b8 61 15 00 00 00 00
1e 1f 01 04 a5 22 13 78 07 ee 91 a3 54 4c 99 26
0f 50 54 00 00 00 01 01 01 01 01 01 01 01 01 01
01 01 01 01 01 01 93 37 80 a0 70 38 3c 40 2b 20
75 04 58 c2 10 00 00 18 00 00 00 fd 0e 30 2d 57
57 48 01 0a 20 20 20 20 20 20 00 00 00 10 00 0a
20 20 20 20 20 20 20 20 20 20 20 20 00 00 00 fc
00 54 4c 31 35 36 56 44 58 50 30 31 30 31 01 94

70 13 79 00 00 03 01 14 df 15 01 84 7f 07 9f 00
2a 00 1f 00 37 04 3b 00 16 00 04 00 00 00 00 00
00 00 00 00 00 00 00 00 00 00 00 00 00 00 00 00
00 00 00 00 00 00 00 00 00 00 00 00 00 00 00 00
00 00 00 00 00 00 00 00 00 00 00 00 00 00 00 00
00 00 00 00 00 00 00 00 00 00 00 00 00 00 00 00
00 00 00 00 00 00 00 00 00 00 00 00 00 00 00 00
00 00 00 00 00 00 00 00 00 00 00 00 00 00 e5 90

----------------

Block 0, Base EDID:
  EDID Structure Version & Revision: 1.4
  Vendor & Product Identification:
    Manufacturer: TMX
    Model: 5473
    Made in: week 30 of 2021
  Basic Display Parameters & Features:
    Digital display
    Bits per primary color channel: 8
    DisplayPort interface
    Maximum image size: 34 cm x 19 cm
    Gamma: 2.20
    Supported color formats: RGB 4:4:4
    Default (sRGB) color space is primary color space
    First detailed timing includes the native pixel format and preferred refresh rate
    Display is continuous frequency
  Color Characteristics:
    Red  : 0.6396, 0.3300
    Green: 0.2998, 0.5996
    Blue : 0.1503, 0.0595
    White: 0.3125, 0.3291
  Established Timings I & II: none
  Standard Timings: none
  Detailed Timing Descriptors:
    DTD 1:  1920x1080   59.999157 Hz  16:9     68.399 kHz    142.270000 MHz (344 mm x 194 mm)
                 Hfront   43 Hsync  32 Hback   85 Hpol N
                 Vfront   23 Vsync   5 Vback   32 Vpol N
    Display Range Limits:
      Monitor ranges (Bare Limits): 48-300 Hz V, 342-342 kHz H, max dotclock 720 MHz
    Dummy Descriptor:
    Display Product Name: 'TL156VDXP0101'
  Extension blocks: 1
Checksum: 0x94

----------------

Block 1, DisplayID Extension Block:
  Version: 1.3
  Extension Count: 0
  Display Product Type: Extension Section
  Video Timing Modes Type 1 - Detailed Timings Data Block:
    DTD:  1920x1080  300.000000 Hz  16:9    342.000 kHz    711.360000 MHz (aspect 16:9, no 3D stereo, preferred)
               Hfront   43 Hsync  32 Hback   85 Hpol N
               Vfront   23 Vsync   5 Vback   32 Vpol N
  Checksum: 0xe5
Checksum: 0x90

----------------

Warnings:

EDID:
  Base EDID: Some timings are out of range of the Monitor Ranges:
    Horizontal Freq: 68.399 - 342.000 kHz (Monitor: 342.000 - 342.000 kHz)

Failures:

Block 0, Base EDID:
  Dummy Descriptor: Dummy block filled with garbage.
Block 1, DisplayID Extension Block:
  DisplayID Base Block has no product type.
EDID:
  DisplayID: Missing DisplayID Product Identification Data Block.

EDID conformity: FAIL
