
EDID (hex):
00ffffffffffff0006af3c1200000000
00190104951f1178029fe59658538a26
24505400000001010101010101010101
010101010101ce1d56e250001e302616
360035ad100000180000000f00000000
00000000000000000020000000000000
00000000000000000000000000000002
001048ff0f3c6e110f196e20202000d4

Extracted contents:
header:          00 ff ff ff ff ff ff 00
serial number:   06 af 3c 12 00 00 00 00 00 19
version:         01 04
basic params:    95 1f 11 78 02
chroma info:     9f e5 96 58 53 8a 26 24 50 54
established:     00 00 00
standard:        01 01 01 01 01 01 01 01 01 01 01 01 01 01 01 01
descriptor 1:    ce 1d 56 e2 50 00 1e 30 26 16 36 00 35 ad 10 00 00 18
descriptor 2:    00 00 00 0f 00 00 00 00 00 00 00 00 00 00 00 00 00 20
descriptor 3:    00 00 00 00 00 00 00 00 00 00 00 00 00 00 00 00 00 00
descriptor 4:    00 00 00 02 00 10 48 ff 0f 3c 6e 11 0f 19 6e 20 20 20
extensions:      00
checksum:        d4

EDID version: 1.4
Manufacturer: AUO Model 123c Serial Number --
Made in year 2015
Digital display
6 bits per primary color channel
DisplayPort interface
Maximum image size: 31 cm x 17 cm
Gamma: 2.20
Supported color formats: RGB 4:4:4
First detailed timing includes the native pixel format and preferred refresh rate
Display x,y Chromaticity:
  Red:   0.5878, 0.3447
  Green: 0.3271, 0.5419
  Blue:  0.1513, 0.1425
  White: 0.3134, 0.3291
Established timings supported:
Standard timings supported:
Detailed mode: Clock 76.300 MHz, 309 mm x 173 mm
               1366 1404 1426 1592 hborder 0
                768  771  777  798 vborder 0
               -hsync -vsync 
               VertFreq: 60 Hz, HorFreq: 47927 Hz
Manufacturer-specified data, tag 15
Manufacturer-specified data, tag 0
Manufacturer-specified data, tag 2
Checksum: 0xd4 (valid)
EDID block does NOT conform to EDID 1.4!
	Missing name descriptor
	Missing monitor ranges
