
EDID (hex):
00ffffffffffff004c83484c00000000
00170104951f11780a36259356559329
1d505400000001010101010101010101
010101010101603980dc703840403020
250035ae1000001ae72d80dc70384040
3020250035ae1000001a000000fe0047
544b445980313430484c0a2000000000
00004121940010000002010a202000ba

Extracted contents:
header:          00 ff ff ff ff ff ff 00
serial number:   4c 83 48 4c 00 00 00 00 00 17
version:         01 04
basic params:    95 1f 11 78 0a
chroma info:     36 25 93 56 55 93 29 1d 50 54
established:     00 00 00
standard:        01 01 01 01 01 01 01 01 01 01 01 01 01 01 01 01
descriptor 1:    60 39 80 dc 70 38 40 40 30 20 25 00 35 ae 10 00 00 1a
descriptor 2:    e7 2d 80 dc 70 38 40 40 30 20 25 00 35 ae 10 00 00 1a
descriptor 3:    00 00 00 fe 00 47 54 4b 44 59 80 31 34 30 48 4c 0a 20
descriptor 4:    00 00 00 00 00 00 41 21 94 00 10 00 00 02 01 0a 20 20
extensions:      00
checksum:        ba

EDID version: 1.4
Manufacturer: SDC Model 4c48 Serial Number --
Made in year 2013
Digital display
6 bits per primary color channel
DisplayPort interface
Maximum image size: 31 cm x 17 cm
Gamma: 2.20
Supported color formats: RGB 4:4:4, YCrCb 4:4:4
First detailed timing includes the native pixel format and preferred refresh rate
Display x,y Chromaticity:
  Red:   0.5742, 0.3388
  Green: 0.3330, 0.5761
  Blue:  0.1601, 0.1152
  White: 0.3134, 0.3291
Established timings supported:
Standard timings supported:
Detailed mode: Clock 146.880 MHz, 309 mm x 174 mm
               1920 1968 2000 2140 hborder 0
               1080 1082 1087 1144 vborder 0
               +hsync -vsync 
               VertFreq: 59 Hz, HorFreq: 68635 Hz
Detailed mode: Clock 117.510 MHz, 309 mm x 174 mm
               1920 1968 2000 2140 hborder 0
               1080 1082 1087 1144 vborder 0
               +hsync -vsync 
               VertFreq: 47 Hz, HorFreq: 54911 Hz
ASCII string: GTKDY
Manufacturer-specified data, tag 0
Checksum: 0xba (valid)
EDID block does NOT conform to EDID 1.4!
	Missing name descriptor
	Missing monitor ranges
	Detailed block string not properly terminated
