
EDID (hex):
00ffffffffffff004c83484c00000000
00170104952213780a36259356559329
1d505400000001010101010101010101
010101010101603980dc703840403020
250058c21000001a412680dc70384040
3020250058c21000001a000000fe004d
3658523180313536484c0a2000000000
00004121940010000002010a20200012

Extracted contents:
header:          00 ff ff ff ff ff ff 00
serial number:   4c 83 48 4c 00 00 00 00 00 17
version:         01 04
basic params:    95 22 13 78 0a
chroma info:     36 25 93 56 55 93 29 1d 50 54
established:     00 00 00
standard:        01 01 01 01 01 01 01 01 01 01 01 01 01 01 01 01
descriptor 1:    60 39 80 dc 70 38 40 40 30 20 25 00 58 c2 10 00 00 1a
descriptor 2:    41 26 80 dc 70 38 40 40 30 20 25 00 58 c2 10 00 00 1a
descriptor 3:    00 00 00 fe 00 4d 36 58 52 31 80 31 35 36 48 4c 0a 20
descriptor 4:    00 00 00 00 00 00 41 21 94 00 10 00 00 02 01 0a 20 20
extensions:      00
checksum:        12

EDID version: 1.4
Manufacturer: SDC Model 4c48 Serial Number --
Made in year 2013
Digital display
6 bits per primary color channel
DisplayPort interface
Maximum image size: 34 cm x 19 cm
Gamma: 2.20
Supported color formats: RGB 4:4:4, YCrCb 4:4:4
First detailed timing includes the native pixel format and preferred refresh rate
Display x,y Chromaticity:
  Red:   0.5742, 0.3388
  Green: 0.3330, 0.5761
  Blue:  0.1601, 0.1152
  White: 0.3134, 0.3291
Established timings supported:
Standard timings supported:
Detailed mode: Clock 146.880 MHz, 344 mm x 194 mm
               1920 1968 2000 2140 hborder 0
               1080 1082 1087 1144 vborder 0
               +hsync -vsync 
               VertFreq: 59 Hz, HorFreq: 68635 Hz
Detailed mode: Clock 97.930 MHz, 344 mm x 194 mm
               1920 1968 2000 2140 hborder 0
               1080 1082 1087 1144 vborder 0
               +hsync -vsync 
               VertFreq: 40 Hz, HorFreq: 45761 Hz
ASCII string: M6XR1
Manufacturer-specified data, tag 0
Checksum: 0x12 (valid)
EDID block does NOT conform to EDID 1.4!
	Missing name descriptor
	Missing monitor ranges
	Detailed block string not properly terminated
