
EDID (hex):
00ffffffffffff004c83484c00000000
1717010485180d780a3a75a2564d9b27
0e505400000001010101010101010101
0101010101015235808070381f402020
2300ef860000001aa82a808070381f40
20202300ef860000001a000000fe0046
5630304480313038484c0a2000000000
0003411528010000000b010a20200094

Extracted contents:
header:          00 ff ff ff ff ff ff 00
serial number:   4c 83 48 4c 00 00 00 00 17 17
version:         01 04
basic params:    85 18 0d 78 0a
chroma info:     3a 75 a2 56 4d 9b 27 0e 50 54
established:     00 00 00
standard:        01 01 01 01 01 01 01 01 01 01 01 01 01 01 01 01
descriptor 1:    52 35 80 80 70 38 1f 40 20 20 23 00 ef 86 00 00 00 1a
descriptor 2:    a8 2a 80 80 70 38 1f 40 20 20 23 00 ef 86 00 00 00 1a
descriptor 3:    00 00 00 fe 00 46 56 30 30 44 80 31 30 38 48 4c 0a 20
descriptor 4:    00 00 00 00 00 03 41 15 28 01 00 00 00 0b 01 0a 20 20
extensions:      00
checksum:        94

EDID version: 1.4
Manufacturer: SDC Model 4c48 Serial Number --
Made in week 23 of 2013
Digital display
Color depth is undefined
DisplayPort interface
Maximum image size: 24 cm x 13 cm
Gamma: 2.20
Supported color formats: RGB 4:4:4, YCrCb 4:4:4
First detailed timing includes the native pixel format and preferred refresh rate
Display x,y Chromaticity:
  Red:   0.6328, 0.3388
  Green: 0.3027, 0.6074
  Blue:  0.1533, 0.0576
  White: 0.3134, 0.3291
Established timings supported:
Standard timings supported:
Detailed mode: Clock 136.500 MHz, 239 mm x 134 mm
               1920 1952 1984 2048 hborder 0
               1080 1082 1085 1111 vborder 0
               +hsync -vsync 
               VertFreq: 59 Hz, HorFreq: 66650 Hz
Detailed mode: Clock 109.200 MHz, 239 mm x 134 mm
               1920 1952 1984 2048 hborder 0
               1080 1082 1085 1111 vborder 0
               +hsync -vsync 
               VertFreq: 47 Hz, HorFreq: 53320 Hz
ASCII string: FV00D
Manufacturer-specified data, tag 0
Checksum: 0x94 (valid)
EDID block does NOT conform to EDID 1.4!
	Missing name descriptor
	Missing monitor ranges
	Detailed block string not properly terminated
