edid-decode (hex):

00 ff ff ff ff ff ff 00 4e 14 0b 6b 00 00 00 00
0f 21 01 04 b5 3c 21 78 33 af f0 ab 50 53 a3 22
11 50 54 23 08 00 81 c0 81 00 81 40 81 80 95 00
b3 00 d1 c0 01 01 4d d0 00 a0 f0 70 3e 80 30 20
35 00 56 50 21 00 00 1a 00 00 00 fd 00 32 46 87
87 3c 00 0a 20 20 20 20 20 20 00 00 00 fc 00 53
63 65 70 74 72 65 20 5a 32 37 0a 20 04 74 00 30
f2 70 5a 80 b0 58 36 00 56 50 21 00 00 00 01 b8

02 03 1a 74 44 04 03 12 90 23 09 0f 07 83 01 00
00 68 1a 00 00 01 01 32 46 00 70 df 00 a0 f0 70
28 80 30 20 35 00 56 50 21 00 00 1a 56 5e 00 a0
a0 a0 29 50 30 20 35 00 56 50 21 00 00 1e 2a 44
80 a0 70 38 27 40 30 20 35 00 56 50 21 00 00 7f
04 76 00 a0 a0 a0 29 50 20 30 35 00 56 50 21 00
00 7f 38 ee 00 78 f0 70 28 80 20 30 36 00 56 50
21 00 00 7f 00 00 00 00 00 00 00 00 00 00 00 72

00 ff ff ff ff ff ff 00 4e 14 0b 6b 00 00 00 00
0f 21 01 04 b5 3c 21 78 33 af f0 ab 50 53 a3 22
11 50 54 23 08 00 81 c0 81 00 81 40 81 80 95 00
b3 00 d1 c0 01 01 4d d0 00 a0 f0 70 3e 80 30 20
35 00 56 50 21 00 00 1a 00 00 00 fd 00 32 46 87
87 3c 00 0a 20 20 20 20 20 20 00 00 00 fc 00 53
63 65 70 74 72 65 20 5a 32 37 0a 20 04 74 00 30
f2 70 5a 80 b0 58 36 00 56 50 21 00 00 00 01 b8

02 03 1a 74 44 04 03 12 90 23 09 0f 07 83 01 00
00 68 1a 00 00 01 01 32 46 00 70 df 00 a0 f0 70
28 80 30 20 35 00 56 50 21 00 00 1a 56 5e 00 a0
a0 a0 29 50 30 20 35 00 56 50 21 00 00 1e 2a 44
80 a0 70 38 27 40 30 20 35 00 56 50 21 00 00 7f
04 76 00 a0 a0 a0 29 50 20 30 35 00 56 50 21 00
00 7f 38 ee 00 78 f0 70 28 80 20 30 36 00 56 50
21 00 00 7f 00 00 00 00 00 00 00 00 00 00 00 72

----------------

Block 0, Base EDID:
  EDID Structure Version & Revision: 1.4
  Vendor & Product Identification:
    Manufacturer: SPT
    Model: 27403
    Made in: week 15 of 2023
  Basic Display Parameters & Features:
    Digital display
    Bits per primary color channel: 10
    DisplayPort interface
    Maximum image size: 60 cm x 33 cm
    Gamma: 2.20
    DPMS levels: Off
    Supported color formats: RGB 4:4:4, YCrCb 4:2:2
    First detailed timing includes the native pixel format and preferred refresh rate
    Display is continuous frequency
  Color Characteristics:
    Red  : 0.6699, 0.3144
    Green: 0.3271, 0.6396
    Blue : 0.1357, 0.0693
    White: 0.3125, 0.3281
  Established Timings I & II:
    DMT 0x04:   640x480    59.940476 Hz   4:3     31.469 kHz     25.175000 MHz
    DMT 0x08:   800x600    56.250000 Hz   4:3     35.156 kHz     36.000000 MHz
    DMT 0x09:   800x600    60.316541 Hz   4:3     37.879 kHz     40.000000 MHz
    DMT 0x10:  1024x768    60.003840 Hz   4:3     48.363 kHz     65.000000 MHz
  Standard Timings:
    DMT 0x55:  1280x720    60.000000 Hz  16:9     45.000 kHz     74.250000 MHz
    DMT 0x1c:  1280x800    59.810326 Hz  16:10    49.702 kHz     83.500000 MHz
    DMT 0x20:  1280x960    60.000000 Hz   4:3     60.000 kHz    108.000000 MHz
    DMT 0x23:  1280x1024   60.019740 Hz   5:4     63.981 kHz    108.000000 MHz
    DMT 0x2f:  1440x900    59.887445 Hz  16:10    55.935 kHz    106.500000 MHz
    DMT 0x3a:  1680x1050   59.954250 Hz  16:10    65.290 kHz    146.250000 MHz
    DMT 0x52:  1920x1080   60.000000 Hz  16:9     67.500 kHz    148.500000 MHz
  Detailed Timing Descriptors:
    DTD  1:  3840x2160   59.996625 Hz  16:9    133.312 kHz    533.250000 MHz (598 mm x 336 mm)
                  Hfront   48 Hsync  32 Hback   80 Hpol P
                  Vfront    3 Vsync   5 Vback   54 Vpol N
    Display Range Limits:
      Monitor ranges (GTF): 50-70 Hz V, 135-135 kHz H, max dotclock 600 MHz
    Display Product Name: 'Sceptre Z27'
    DTD  2:  3840x2160   30.000000 Hz  16:9     67.500 kHz    297.000000 MHz (analog composite, sync-on-green, 598 mm x 336 mm)
                  Hfront  176 Hsync  88 Hback  296 Hpol N
                  Vfront    3 Vsync   6 Vback   81 Vpol N
  Extension blocks: 1
Checksum: 0xb8

----------------

Block 1, CTA-861 Extension Block:
  Revision: 3
  Basic audio support
  Supports YCbCr 4:4:4
  Supports YCbCr 4:2:2
  Native detailed modes: 4
  Video Data Block:
    VIC   4:  1280x720    60.000000 Hz  16:9     45.000 kHz     74.250000 MHz
    VIC   3:   720x480    59.940060 Hz  16:9     31.469 kHz     27.000000 MHz
    VIC  18:   720x576    50.000000 Hz  16:9     31.250 kHz     27.000000 MHz
    VIC  16:  1920x1080   60.000000 Hz  16:9     67.500 kHz    148.500000 MHz (native)
  Audio Data Block:
    Linear PCM:
      Max channels: 2
      Supported sample rates (kHz): 88.2 48 44.1 32
      Supported sample sizes (bits): 24 20 16
  Speaker Allocation Data Block:
    FL/FR - Front Left/Right
  Vendor-Specific Data Block (AMD), OUI 00-00-1A:
    Version: 1.1
    Minimum Refresh Rate: 50 Hz
    Maximum Refresh Rate: 70 Hz
    Flags 1.x: 0x00
  Detailed Timing Descriptors:
    DTD  3:  3840x2160   65.000000 Hz  16:9    143.000 kHz    572.000000 MHz (598 mm x 336 mm)
                  Hfront   48 Hsync  32 Hback   80 Hpol P
                  Vfront    3 Vsync   5 Vback   32 Vpol N
    DTD  4:  2560x1440   59.950550 Hz  16:9     88.787 kHz    241.500000 MHz (598 mm x 336 mm)
                  Hfront   48 Hsync  32 Hback   80 Hpol P
                  Vfront    3 Vsync   5 Vback   33 Vpol P
    DTD  5:  1920x1080   74.972503 Hz  16:9     83.894 kHz    174.500000 MHz (side by side interleaved, 598 mm x 336 mm)
                  Hfront   48 Hsync  32 Hback   80 Hpol P
                  Vfront    3 Vsync   5 Vback   31 Vpol P
    DTD  6:  2560x1440   74.999007 Hz  16:9    111.074 kHz    302.120000 MHz (side by side interleaved, 598 mm x 336 mm)
                  Hfront   32 Hsync  48 Hback   80 Hpol P
                  Vfront    3 Vsync   5 Vback   33 Vpol P
    DTD  7:  3840x2160   70.000000 Hz  16:9    154.000 kHz    609.840000 MHz (side by side interleaved, 598 mm x 336 mm)
                  Hfront   32 Hsync  48 Hback   40 Hpol P
                  Vfront    3 Vsync   6 Vback   31 Vpol P
Checksum: 0x72  Unused space in Extension Block: 11 bytes

----------------

Block 2, Unknown EDID Extension Block 0x00:
  00 ff ff ff ff ff ff 00 4e 14 0b 6b 00 00 00 00 '........N..k....'
  0f 21 01 04 b5 3c 21 78 33 af f0 ab 50 53 a3 22 '.!...<!x3...PS."'
  11 50 54 23 08 00 81 c0 81 00 81 40 81 80 95 00 '.PT#.......@....'
  b3 00 d1 c0 01 01 4d d0 00 a0 f0 70 3e 80 30 20 '......M....p>.0 '
  35 00 56 50 21 00 00 1a 00 00 00 fd 00 32 46 87 '5.VP!........2F.'
  87 3c 00 0a 20 20 20 20 20 20 00 00 00 fc 00 53 '.<..      .....S'
  63 65 70 74 72 65 20 5a 32 37 0a 20 04 74 00 30 'ceptre Z27. .t.0'
  f2 70 5a 80 b0 58 36 00 56 50 21 00 00 00 01 b8 '.pZ..X6.VP!.....'
Checksum: 0xb8

----------------

Block 3, CTA-861 Extension Block:
  Revision: 3
  Basic audio support
  Supports YCbCr 4:4:4
  Supports YCbCr 4:2:2
  Native detailed modes: 4
  Video Data Block:
    VIC   4:  1280x720    60.000000 Hz  16:9     45.000 kHz     74.250000 MHz
    VIC   3:   720x480    59.940060 Hz  16:9     31.469 kHz     27.000000 MHz
    VIC  18:   720x576    50.000000 Hz  16:9     31.250 kHz     27.000000 MHz
    VIC  16:  1920x1080   60.000000 Hz  16:9     67.500 kHz    148.500000 MHz (native)
  Audio Data Block:
    Linear PCM:
      Max channels: 2
      Supported sample rates (kHz): 88.2 48 44.1 32
      Supported sample sizes (bits): 24 20 16
  Speaker Allocation Data Block:
    FL/FR - Front Left/Right
  Vendor-Specific Data Block (AMD), OUI 00-00-1A:
    Version: 1.1
    Minimum Refresh Rate: 50 Hz
    Maximum Refresh Rate: 70 Hz
    Flags 1.x: 0x00
  Detailed Timing Descriptors:
    DTD  8:  3840x2160   65.000000 Hz  16:9    143.000 kHz    572.000000 MHz (598 mm x 336 mm)
                  Hfront   48 Hsync  32 Hback   80 Hpol P
                  Vfront    3 Vsync   5 Vback   32 Vpol N
    DTD  9:  2560x1440   59.950550 Hz  16:9     88.787 kHz    241.500000 MHz (598 mm x 336 mm)
                  Hfront   48 Hsync  32 Hback   80 Hpol P
                  Vfront    3 Vsync   5 Vback   33 Vpol P
    DTD 10:  1920x1080   74.972503 Hz  16:9     83.894 kHz    174.500000 MHz (side by side interleaved, 598 mm x 336 mm)
                  Hfront   48 Hsync  32 Hback   80 Hpol P
                  Vfront    3 Vsync   5 Vback   31 Vpol P
    DTD 11:  2560x1440   74.999007 Hz  16:9    111.074 kHz    302.120000 MHz (side by side interleaved, 598 mm x 336 mm)
                  Hfront   32 Hsync  48 Hback   80 Hpol P
                  Vfront    3 Vsync   5 Vback   33 Vpol P
    DTD 12:  3840x2160   70.000000 Hz  16:9    154.000 kHz    609.840000 MHz (side by side interleaved, 598 mm x 336 mm)
                  Hfront   32 Hsync  48 Hback   40 Hpol P
                  Vfront    3 Vsync   6 Vback   31 Vpol P
Checksum: 0x72  Unused space in Extension Block: 11 bytes

----------------

Warnings:

Block 0, Base EDID:
  Display Range Limits: GTF support is deprecated in EDID 1.4.
  Detailed Timing Descriptor #2: DTD is similar but not identical to VIC 95.
Block 1, CTA-861 Extension Block:
  IT Video Formats are overscanned by default, but normally this should be underscanned.
  Add a Colorimetry Data Block with the sRGB colorimetry bit set to avoid interop issues.
Block 3, CTA-861 Extension Block:
  IT Video Formats are overscanned by default, but normally this should be underscanned.
  Add a Colorimetry Data Block with the sRGB colorimetry bit set to avoid interop issues.
EDID:
  Base EDID: Some timings are out of range of the Monitor Ranges:
    Vertical Freq: 30.000 - 74.999 Hz (Monitor: 50.000 - 70.000 Hz)
    Horizontal Freq: 31.250 - 154.000 kHz (Monitor: 135.000 - 135.000 kHz)
    Maximum Clock: 609.840 MHz (Monitor: 600.000 MHz)

Failures:

Block 0, Base EDID:
  Detailed Timing Descriptor #2: Invalid detailed timing descriptor ordering.
Block 1, CTA-861 Extension Block:
  Missing VCDB, needed for Set Selectable RGB Quantization to avoid interop issues.
Block 2, Base EDID:
  Unknown Extension Block.
Block 3, CTA-861 Extension Block:
  Video Data Block: Duplicate VIC 4.
  Video Data Block: Duplicate VIC 3.
  Video Data Block: Duplicate VIC 18.
  Video Data Block: Duplicate VIC 16.
  Speaker Allocation Data Block: Only one instance of this Data Block is allowed.
  Missing VCDB, needed for Set Selectable RGB Quantization to avoid interop issues.
EDID:
  Base EDID: EDID specified 1 extension block(s), but found 3 extension block(s).
  CTA-861: Native progressive timings are a mix of several resolutions.

EDID conformity: FAIL
