
EDID (hex):
00ffffffffffff004e140b6b00000000
0a1f0104b53e217832aff0ab5053a322
11505423080081c08100814081809500
b300010101014dd000a0f0703e803020
35006e262100001a000000fd00283c0f
cc3c000a202020202020000000fc0053
636570747265205a32370a20023a8018
71382d40582c45006e26210000000127
02031374461f041303129023090f0783
01000004740030f2705a80b05836006e
262100001a565e00a0a0a02950302035
006e262100001e2a4480a07038274030
2035006e262100007f047600a0a0a029
50203035006e262100007f38ee0078f0
702880203036006e262100007f000000
000000000000000000000000000000f5

Extracted contents:
header:          00 ff ff ff ff ff ff 00
serial number:   4e 14 0b 6b 00 00 00 00 0a 1f
version:         01 04
basic params:    b5 3e 21 78 32
chroma info:     af f0 ab 50 53 a3 22 11 50 54
established:     23 08 00
standard:        81 c0 81 00 81 40 81 80 95 00 b3 00 01 01 01 01
descriptor 1:    4d d0 00 a0 f0 70 3e 80 30 20 35 00 6e 26 21 00 00 1a
descriptor 2:    00 00 00 fd 00 28 3c 0f cc 3c 00 0a 20 20 20 20 20 20
descriptor 3:    00 00 00 fc 00 53 63 65 70 74 72 65 20 5a 32 37 0a 20
descriptor 4:    02 3a 80 18 71 38 2d 40 58 2c 45 00 6e 26 21 00 00 00
extensions:      01
checksum:        27

EDID version: 1.4
Manufacturer: SPT Model 6b0b Serial Number --
Made in week 10 of 2021
Digital display
10 bits per primary color channel
DisplayPort interface
Maximum image size: 62 cm x 33 cm
Gamma: 2.20
DPMS levels: Off
Supported color formats: RGB 4:4:4, YCrCb 4:2:2
First detailed timing includes the native pixel format and preferred refresh rate
Display x,y Chromaticity:
  Red:   0.6699, 0.3144
  Green: 0.3271, 0.6396
  Blue:  0.1357, 0.0693
  White: 0.3125, 0.3281
Established timings supported:
  640x480@60Hz 4:3 HorFreq: 31469 Hz Clock: 25.175 MHz
  800x600@56Hz 4:3 HorFreq: 35200 Hz Clock: 36.000 MHz
  800x600@60Hz 4:3 HorFreq: 37900 Hz Clock: 40.000 MHz
  1024x768@60Hz 4:3 HorFreq: 48400 Hz Clock: 65.000 MHz
Standard timings supported:
  1280x720@60Hz 16:9
  1280x800@60Hz 16:10
  1280x960@60Hz 4:3 HorFreq: 60000 Hz Clock: 108.000 MHz
  1280x1024@60Hz 5:4 HorFreq: 64000 Hz Clock: 108.000 MHz
  1440x900@60Hz 16:10 HorFreq: 55500 Hz Clock: 88.750 MHz
  1680x1050@60Hz 16:10 HorFreq: 64700 Hz Clock: 119.000 MHz
Detailed mode: Clock 533.250 MHz, 622 mm x 294 mm
               3840 3888 3920 4000 hborder 0
               2160 2163 2168 2222 vborder 0
               +hsync -vsync 
               VertFreq: 59 Hz, HorFreq: 133312 Hz
Monitor ranges (GTF): 40-60Hz V, 15-204kHz H, max dotclock 600MHz
Monitor name: Sceptre Z27
Detailed mode: Clock 148.500 MHz, 622 mm x 294 mm
               1920 2008 2052 2200 hborder 0
               1080 1084 1089 1125 vborder 0
               -hsync -vsync analog composite 
               VertFreq: 60 Hz, HorFreq: 67500 Hz
Has 1 extension blocks
Checksum: 0x27 (valid)

CTA extension block
Extension version: 3
15 bytes of CTA data
  Video data block
    VIC  31 1920x1080@50Hz 16:9  HorFreq: 56250 Hz Clock: 148.500 MHz
    VIC   4 1280x720@60Hz 16:9  HorFreq: 45000 Hz Clock: 74.250 MHz
    VIC  19 1280x720@50Hz 16:9  HorFreq: 37500 Hz Clock: 74.250 MHz
    VIC   3 720x480@60Hz 16:9  HorFreq: 31469 Hz Clock: 27.000 MHz
    VIC  18 720x576@50Hz 16:9  HorFreq: 31250 Hz Clock: 27.000 MHz
    VIC  16 1920x1080@60Hz 16:9 (native) HorFreq: 67500 Hz Clock: 148.500 MHz
  Audio data block
    Linear PCM, max channels 2
      Supported sample rates (kHz): 88.2 48 44.1 32
      Supported sample sizes (bits): 24 20 16
  Speaker allocation data block
    Speaker map:
      FL/FR - Front Left/Right
Basic audio support
Supports YCbCr 4:4:4
Supports YCbCr 4:2:2
4 native detailed modes
Detailed mode: Clock 297.000 MHz, 622 mm x 294 mm
               3840 4016 4104 4400 hborder 0
               2160 2163 2169 2250 vborder 0
               +hsync -vsync 
               VertFreq: 30 Hz, HorFreq: 67500 Hz
Detailed mode: Clock 241.500 MHz, 622 mm x 294 mm
               2560 2608 2640 2720 hborder 0
               1440 1443 1448 1481 vborder 0
               +hsync +vsync 
               VertFreq: 59 Hz, HorFreq: 88786 Hz
Detailed mode: Clock 174.500 MHz, 622 mm x 294 mm
               1920 1968 2000 2080 hborder 0
               1080 1083 1088 1119 vborder 0
               +hsync +vsync side by side interleaved
               VertFreq: 74 Hz, HorFreq: 83894 Hz
Detailed mode: Clock 302.120 MHz, 622 mm x 294 mm
               2560 2592 2640 2720 hborder 0
               1440 1443 1448 1481 vborder 0
               +hsync +vsync side by side interleaved
               VertFreq: 74 Hz, HorFreq: 111073 Hz
Detailed mode: Clock 609.840 MHz, 622 mm x 294 mm
               3840 3872 3920 3960 hborder 0
               2160 2163 2169 2200 vborder 0
               +hsync +vsync side by side interleaved
               VertFreq: 70 Hz, HorFreq: 154000 Hz
Checksum: 0xf5 (valid)

Warning: One or more of the timings is out of range of the Monitor Ranges:
  Vertical Freq: 30 - 74 Hz
  Horizontal Freq: 31250 - 154000 Hz
  Maximum Clock: 609.840 MHz
EDID block does not conform at all!
	Invalid detailed timing descriptor ordering


