
EDID (hex):
00ffffffffffff001e6d2777071e0500
041e0104b55021789ff675af4e42ab26
0e5054254b007140818081c0a9c0b300
d1c08100d1cfe77c70a0d0a029503020
3a00204f3100001a4eab70b8d1a04250
90606408204f3100001a000000fd0030
90e1e150010a202020202020000000fc
003334474b393530460a202020200218
020328712309060749100403011f1312
0514e305c000e30605016d1a00000207
30900004613e613e4ed470a0d0a04650
30203a00204f3100001a000000000000
00000000000000000000000000000000
00000000000000000000000000000000
00000000000000000000000000000000
000000000000000000000000000000c6
7012790000030028ea0501866f0ddf00
8f801f009f0554000200090066380186
6f0def002f801f009f05450002000900
00000000000000000000000000000000
00000000000000000000000000000000
00000000000000000000000000000000
00000000000000000000000000000000
0000000000000000000000000000f690

Extracted contents:
header:          00 ff ff ff ff ff ff 00
serial number:   1e 6d 27 77 07 1e 05 00 04 1e
version:         01 04
basic params:    b5 50 21 78 9f
chroma info:     f6 75 af 4e 42 ab 26 0e 50 54
established:     25 4b 00
standard:        71 40 81 80 81 c0 a9 c0 b3 00 d1 c0 81 00 d1 cf
descriptor 1:    e7 7c 70 a0 d0 a0 29 50 30 20 3a 00 20 4f 31 00 00 1a
descriptor 2:    4e ab 70 b8 d1 a0 42 50 90 60 64 08 20 4f 31 00 00 1a
descriptor 3:    00 00 00 fd 00 30 90 e1 e1 50 01 0a 20 20 20 20 20 20
descriptor 4:    00 00 00 fc 00 33 34 47 4b 39 35 30 46 0a 20 20 20 20
extensions:      02
checksum:        18

EDID version: 1.4
Manufacturer: GSM Model 7727 Serial Number --
Made in week 4 of 2020
Digital display
10 bits per primary color channel
DisplayPort interface
Maximum image size: 80 cm x 33 cm
Gamma: 2.20
DPMS levels: Standby
Supported color formats: RGB 4:4:4, YCrCb 4:4:4, YCrCb 4:2:2
Default (sRGB) color space is primary color space
First detailed timing includes the native pixel format and preferred refresh rate
Display is continuous frequency
Display x,y Chromaticity:
  Red:   0.6865, 0.3076
  Green: 0.2587, 0.6699
  Blue:  0.1494, 0.0576
  White: 0.3134, 0.3291
Established timings supported:
  640x480@60Hz 4:3 HorFreq: 31469 Hz Clock: 25.175 MHz
  640x480@75Hz 4:3 HorFreq: 37500 Hz Clock: 31.500 MHz
  800x600@60Hz 4:3 HorFreq: 37900 Hz Clock: 40.000 MHz
  800x600@75Hz 4:3 HorFreq: 46900 Hz Clock: 49.500 MHz
  1024x768@60Hz 4:3 HorFreq: 48400 Hz Clock: 65.000 MHz
  1024x768@75Hz 4:3 HorFreq: 60000 Hz Clock: 78.750 MHz
  1280x1024@75Hz 5:4 HorFreq: 80000 Hz Clock: 135.000 MHz
Standard timings supported:
  1152x864@60Hz 4:3
  1280x1024@60Hz 5:4 HorFreq: 64000 Hz Clock: 108.000 MHz
  1280x720@60Hz 16:9
  1600x900@60Hz 16:9
  1680x1050@60Hz 16:10 HorFreq: 64700 Hz Clock: 119.000 MHz
  1920x1080@60Hz 16:9
  1280x800@60Hz 16:10
  1920x1080@75Hz 16:9
Detailed mode: Clock 319.750 MHz, 800 mm x 335 mm
               3440 3488 3520 3600 hborder 0
               1440 1443 1453 1481 vborder 0
               +hsync -vsync 
               VertFreq: 59 Hz, HorFreq: 88819 Hz
Detailed mode: Clock 438.540 MHz, 800 mm x 335 mm
               3440 3584 3680 3880 hborder 0
               1440 1478 1482 1506 vborder 0
               +hsync -vsync 
               VertFreq: 75 Hz, HorFreq: 113025 Hz
Monitor ranges (bare limits): 48-144Hz V, 225-225kHz H, max dotclock 800MHz
Monitor name: 34GK950F
Has 2 extension blocks
Checksum: 0x18 (valid)

CTA extension block
Extension version: 3
36 bytes of CTA data
  Audio data block
    Linear PCM, max channels 2
      Supported sample rates (kHz): 48 44.1
      Supported sample sizes (bits): 24 20 16
  Video data block
    VIC  16 1920x1080@60Hz 16:9  HorFreq: 67500 Hz Clock: 148.500 MHz
    VIC   4 1280x720@60Hz 16:9  HorFreq: 45000 Hz Clock: 74.250 MHz
    VIC   3 720x480@60Hz 16:9  HorFreq: 31469 Hz Clock: 27.000 MHz
    VIC   1 640x480@60Hz 4:3  HorFreq: 31469 Hz Clock: 25.175 MHz
    VIC  31 1920x1080@50Hz 16:9  HorFreq: 56250 Hz Clock: 148.500 MHz
    VIC  19 1280x720@50Hz 16:9  HorFreq: 37500 Hz Clock: 74.250 MHz
    VIC  18 720x576@50Hz 16:9  HorFreq: 31250 Hz Clock: 27.000 MHz
    VIC   5 1920x1080i@60Hz 16:9  HorFreq: 33750 Hz Clock: 74.250 MHz
    VIC  20 1920x1080i@50Hz 16:9  HorFreq: 28125 Hz Clock: 74.250 MHz
  Extended tag: Colorimetry data block
    BT2020YCC
    BT2020RGB
  Extended tag: HDR static metadata data block
    Electro optical transfer functions:
      Traditional gamma - SDR luminance range
      SMPTE ST2084
    Supported static metadata descriptors:
      Static metadata type 1
  Vendor-specific data block, OUI 00001a
Basic audio support
Supports YCbCr 4:4:4
Supports YCbCr 4:2:2
1 native detailed modes
Detailed mode: Clock 543.500 MHz, 800 mm x 335 mm
               3440 3488 3520 3600 hborder 0
               1440 1443 1453 1510 vborder 0
               +hsync -vsync 
               VertFreq: 99 Hz, HorFreq: 150972 Hz
Checksum: 0xc6 (valid)


DisplayID extension block
Extension version: 18
Length 121, version 18, extension count 0
Checksum: 0xf6 (valid)
Type 1 detailed timing: aspect: 64:27, Preferred  
Detailed mode: Clock 670.500 MHz, 0 mm x 0 mm
               3439 3582 3613 3662
               1439 1441 1450 1523
               +hsync -vsync
Type 1 detailed timing: aspect: 64:27, Preferred  
Detailed mode: Clock 799.740 MHz, 0 mm x 0 mm
               3439 3486 3517 3678
               1439 1441 1450 1508
               +hsync -vsync

EDID block does NOT conform to EDID 1.4!
	sRGB is signaled, but the chromaticities do not match
Warning: One or more of the timings is out of range of the Monitor Ranges:
  Vertical Freq: 50 - 99 Hz
  Horizontal Freq: 28125 - 150972 Hz
  Maximum Clock: 543.500 MHz


