
EDID (hex):
00ffffffffffff004293c80701010101
2d11010300291a782ad6a5a2594a9524
1450542dce0095000101010101010101
0101010101019a29a0d0518422305098
36009a001100001a000000fd003c4b1f
3c0b000a202020202020000000fc0054
4c552d3031393432570a2020000000ff
003138373336303030323832360a0044

Extracted contents:
header:          00 ff ff ff ff ff ff 00
serial number:   42 93 c8 07 01 01 01 01 2d 11
version:         01 03
basic params:    00 29 1a 78 2a
chroma info:     d6 a5 a2 59 4a 95 24 14 50 54
established:     2d ce 00
standard:        95 00 01 01 01 01 01 01 01 01 01 01 01 01 01 01
descriptor 1:    9a 29 a0 d0 51 84 22 30 50 98 36 00 9a 00 11 00 00 1a
descriptor 2:    00 00 00 fd 00 3c 4b 1f 3c 0b 00 0a 20 20 20 20 20 20
descriptor 3:    00 00 00 fc 00 54 4c 55 2d 30 31 39 34 32 57 0a 20 20
descriptor 4:    00 00 00 ff 00 31 38 37 33 36 30 30 30 32 38 32 36 0a
extensions:      00
checksum:        44

EDID version: 1.3
Manufacturer: PTS Model 7c8 Serial Number --
Made in week 45 of 2007
Analog display, Input voltage level: 0.7/0.3 V
Sync: 
Maximum image size: 41 cm x 26 cm
Gamma: 2.20
DPMS levels: Off
RGB color display
First detailed timing is preferred timing
Display x,y Chromaticity:
  Red:   0.6357, 0.3486
  Green: 0.2900, 0.5839
  Blue:  0.1425, 0.0800
  White: 0.3134, 0.3291
Established timings supported:
  640x480@60Hz 4:3 HorFreq: 31469 Hz Clock: 25.175 MHz
  640x480@72Hz 4:3 HorFreq: 37900 Hz Clock: 31.500 MHz
  640x480@75Hz 4:3 HorFreq: 37500 Hz Clock: 31.500 MHz
  800x600@60Hz 4:3 HorFreq: 37900 Hz Clock: 40.000 MHz
  800x600@72Hz 4:3 HorFreq: 48100 Hz Clock: 50.000 MHz
  800x600@75Hz 4:3 HorFreq: 46900 Hz Clock: 49.500 MHz
  1024x768@60Hz 4:3 HorFreq: 48400 Hz Clock: 65.000 MHz
  1024x768@70Hz 4:3 HorFreq: 56500 Hz Clock: 75.000 MHz
  1024x768@75Hz 4:3 HorFreq: 60000 Hz Clock: 78.750 MHz
Standard timings supported:
  1440x900@60Hz 16:10 HorFreq: 55500 Hz Clock: 88.750 MHz
Detailed mode: Clock 106.500 MHz, 410 mm x 256 mm
               1440 1520 1672 1904 hborder 0
                900  903  909  934 vborder 0
               +hsync -vsync 
               VertFreq: 59 Hz, HorFreq: 55934 Hz
Monitor ranges (GTF): 60-75Hz V, 31-60kHz H, max dotclock 110MHz
Monitor name: TLU-01942W
Serial number: --
Checksum: 0x44 (valid)
One or more of the timings is out of range of the Monitor Ranges:
  Vertical Freq: 59 - 75 Hz
  Horizontal Freq: 31469 - 60000 Hz
  Maximum Clock: 106.500 MHz
