
EDID (hex):
00ffffffffffff0026cd1d6604040000
2c1a0103803c2278eaa191a65650a026
0d5054254b009500a9c0a900a940b300
d1c0d100e100565e00a0a0a029503020
350055502100001a000000ff00313135
31323634343031303238000000fd0032
4b1e591b000a202020202020000000fc
00504c32373833510a202020202000d2

Extracted contents:
header:          00 ff ff ff ff ff ff 00
serial number:   26 cd 1d 66 04 04 00 00 2c 1a
version:         01 03
basic params:    80 3c 22 78 ea
chroma info:     a1 91 a6 56 50 a0 26 0d 50 54
established:     25 4b 00
standard:        95 00 a9 c0 a9 00 a9 40 b3 00 d1 c0 d1 00 e1 00
descriptor 1:    56 5e 00 a0 a0 a0 29 50 30 20 35 00 55 50 21 00 00 1a
descriptor 2:    00 00 00 ff 00 31 31 35 31 32 36 34 34 30 31 30 32 38
descriptor 3:    00 00 00 fd 00 32 4b 1e 59 1b 00 0a 20 20 20 20 20 20
descriptor 4:    00 00 00 fc 00 50 4c 32 37 38 33 51 0a 20 20 20 20 20
extensions:      00
checksum:        d2

EDID version: 1.3
Manufacturer: IVM Model 661d Serial Number --
Made in week 44 of 2016
Digital display
Maximum image size: 60 cm x 34 cm
Gamma: 2.20
DPMS levels: Standby Suspend Off
RGB color display
First detailed timing is preferred timing
Display x,y Chromaticity:
  Red:   0.6503, 0.3378
  Green: 0.3125, 0.6259
  Blue:  0.1503, 0.0517
  White: 0.3125, 0.3291
Established timings supported:
  640x480@60Hz 4:3 HorFreq: 31469 Hz Clock: 25.175 MHz
  640x480@75Hz 4:3 HorFreq: 37500 Hz Clock: 31.500 MHz
  800x600@60Hz 4:3 HorFreq: 37900 Hz Clock: 40.000 MHz
  800x600@75Hz 4:3 HorFreq: 46900 Hz Clock: 49.500 MHz
  1024x768@60Hz 4:3 HorFreq: 48400 Hz Clock: 65.000 MHz
  1024x768@75Hz 4:3 HorFreq: 60000 Hz Clock: 78.750 MHz
  1280x1024@75Hz 5:4 HorFreq: 80000 Hz Clock: 135.000 MHz
Standard timings supported:
  1440x900@60Hz 16:10 HorFreq: 55500 Hz Clock: 88.750 MHz
  1600x900@60Hz 16:9
  1600x1000@60Hz 16:10
  1600x1200@60Hz 4:3 HorFreq: 75000 Hz Clock: 162.000 MHz
  1680x1050@60Hz 16:10 HorFreq: 64700 Hz Clock: 119.000 MHz
  1920x1080@60Hz 16:9
  1920x1200@60Hz 16:10 HorFreq: 74000 Hz Clock: 154.000 MHz
  2048x1280@60Hz 16:10
Detailed mode: Clock 241.500 MHz, 597 mm x 336 mm
               2560 2608 2640 2720 hborder 0
               1440 1443 1448 1481 vborder 0
               +hsync -vsync 
               VertFreq: 59 Hz, HorFreq: 88786 Hz
Serial number: --
Monitor ranges (GTF): 50-75Hz V, 30-89kHz H, max dotclock 270MHz
Monitor name: PL2783Q
Checksum: 0xd2 (valid)
