
EDID (hex):
00ffffffffffff001e6d1356a3b30100
030f0104a5321e78e2fed0a3574a9b25
11494ba56b80a9408180455931590101
0101010101011b2150a051001e304888
3500a20b3200001c000000fd0038551e
5310000a202020202020000000fc004c
32333030430a202020202020000000fc
000a20202020202020202020202000f4

Extracted contents:
header:          00 ff ff ff ff ff ff 00
serial number:   1e 6d 13 56 a3 b3 01 00 03 0f
version:         01 04
basic params:    a5 32 1e 78 e2
chroma info:     fe d0 a3 57 4a 9b 25 11 49 4b
established:     a5 6b 80
standard:        a9 40 81 80 45 59 31 59 01 01 01 01 01 01 01 01
descriptor 1:    1b 21 50 a0 51 00 1e 30 48 88 35 00 a2 0b 32 00 00 1c
descriptor 2:    00 00 00 fd 00 38 55 1e 53 10 00 0a 20 20 20 20 20 20
descriptor 3:    00 00 00 fc 00 4c 32 33 30 30 43 0a 20 20 20 20 20 20
descriptor 4:    00 00 00 fc 00 0a 20 20 20 20 20 20 20 20 20 20 20 20
extensions:      00
checksum:        f4

EDID version: 1.4
Manufacturer: GSM Model 5613 Serial Number --
Digital display
8 bits per primary color channel
DisplayPort interface
Maximum image size: 50 cm x 30 cm
Gamma: 2.20
DPMS levels: Standby Suspend Off
Supported color formats: RGB 4:4:4
First detailed timing includes the native pixel format and preferred refresh rate
Display x,y Chromaticity:
  Red:   0.6396, 0.3427
  Green: 0.2919, 0.6074
  Blue:  0.1474, 0.0673
  White: 0.2851, 0.2929
Established timings supported:
  720x400@70Hz 9:5 HorFreq: 31469 Hz Clock: 28.320 MHz
  640x480@60Hz 4:3 HorFreq: 31469 Hz Clock: 25.175 MHz
  640x480@75Hz 4:3 HorFreq: 37500 Hz Clock: 31.500 MHz
  800x600@60Hz 4:3 HorFreq: 37900 Hz Clock: 40.000 MHz
  800x600@75Hz 4:3 HorFreq: 46900 Hz Clock: 49.500 MHz
  832x624@75Hz 4:3 HorFreq: 49726 Hz Clock: 57.284 MHz
  1024x768@60Hz 4:3 HorFreq: 48400 Hz Clock: 65.000 MHz
  1024x768@75Hz 4:3 HorFreq: 60000 Hz Clock: 78.750 MHz
  1280x1024@75Hz 5:4 HorFreq: 80000 Hz Clock: 135.000 MHz
  1152x870@75Hz 192:145 HorFreq: 67500 Hz Clock: 108.000 MHz
Standard timings supported:
  1600x1200@60Hz 4:3 HorFreq: 75000 Hz Clock: 162.000 MHz
  1280x1024@60Hz 5:4 HorFreq: 64000 Hz Clock: 108.000 MHz
  800x600@85Hz 4:3 HorFreq: 53700 Hz Clock: 56.250 MHz
  640x480@85Hz 4:3 HorFreq: 43300 Hz Clock: 36.000 MHz
Detailed mode: Clock 84.750 MHz, 930 mm x 523 mm
               1360 1432 1568 1776 hborder 0
                768  771  776  798 vborder 0
               -hsync +vsync 
               VertFreq: 59 Hz, HorFreq: 47719 Hz
Monitor ranges (GTF): 56-85Hz V, 30-83kHz H, max dotclock 160MHz
Monitor name: L2300C
Checksum: 0xf4 (valid)
Warning: One or more of the timings is out of range of the Monitor Ranges:
  Vertical Freq: 59 - 85 Hz
  Horizontal Freq: 31469 - 80000 Hz
  Maximum Clock: 162.000 MHz
EDID block does not conform at all!
	Bad year of manufacture
