
EDID (hex):
00ffffffffffff0030e4380700000000
00200104a52213780371c5985e5b8f27
1b505400000001010101010101010101
0101010101018b6f80a0703840403020
350058c21000001a000000fd00307889
891d010a202020202020000000fe0047
385757508131353657464a0a00000000
0002413f99000000000b010a20200188
7013790000030114c73700047f079f00
2f001f0037043f000200040000000000
00000000000000000000000000000000
00000000000000000000000000000000
00000000000000000000000000000000
00000000000000000000000000000000
00000000000000000000000000000000
00000000000000000000000000006790

edid-decode (hex):

00 ff ff ff ff ff ff 00 30 e4 38 07 00 00 00 00
00 20 01 04 a5 22 13 78 03 71 c5 98 5e 5b 8f 27
1b 50 54 00 00 00 01 01 01 01 01 01 01 01 01 01
01 01 01 01 01 01 8b 6f 80 a0 70 38 40 40 30 20
35 00 58 c2 10 00 00 1a 00 00 00 fd 00 30 78 89
89 1d 01 0a 20 20 20 20 20 20 00 00 00 fe 00 47
38 57 57 50 81 31 35 36 57 46 4a 0a 00 00 00 00
00 02 41 3f 99 00 00 00 00 0b 01 0a 20 20 01 88

70 13 79 00 00 03 01 14 c7 37 00 04 7f 07 9f 00
2f 00 1f 00 37 04 3f 00 02 00 04 00 00 00 00 00
00 00 00 00 00 00 00 00 00 00 00 00 00 00 00 00
00 00 00 00 00 00 00 00 00 00 00 00 00 00 00 00
00 00 00 00 00 00 00 00 00 00 00 00 00 00 00 00
00 00 00 00 00 00 00 00 00 00 00 00 00 00 00 00
00 00 00 00 00 00 00 00 00 00 00 00 00 00 00 00
00 00 00 00 00 00 00 00 00 00 00 00 00 00 67 90

----------------

Block 0, Base EDID:
  EDID Structure Version & Revision: 1.4
  Vendor & Product Identification:
    Manufacturer: LGD
    Model: 1848
    Made in: 2022
  Basic Display Parameters & Features:
    Digital display
    Bits per primary color channel: 8
    DisplayPort interface
    Maximum image size: 34 cm x 19 cm
    Gamma: 2.20
    Supported color formats: RGB 4:4:4
    First detailed timing includes the native pixel format and preferred refresh rate
    Display is continuous frequency
  Color Characteristics:
    Red  : 0.5947, 0.3701
    Green: 0.3554, 0.5595
    Blue : 0.1552, 0.1054
    White: 0.3134, 0.3291
  Established Timings I & II: none
  Standard Timings: none
  Detailed Timing Descriptors:
    DTD 1:  1920x1080  120.003194 Hz  16:9    137.284 kHz    285.550000 MHz (344 mm x 194 mm)
                 Hfront   48 Hsync  32 Hback   80 Hpol P
                 Vfront    3 Vsync   5 Vback   56 Vpol N
    Display Range Limits:
      Monitor ranges (Bare Limits): 48-120 Hz V, 137-137 kHz H, max dotclock 290 MHz
    Alphanumeric Data String: 'G8WWP'
    Manufacturer-Specified Display Descriptor (0x00): 00 00 00 02 41 3f 99 00 00 00 00 0b 01 0a 20 20 '....A?........  '
  Extension blocks: 1
Checksum: 0x88

----------------

Block 1, DisplayID Extension Block:
  Version: 1.3
  Extension Count: 0
  Display Product Type: Extension Section
  Video Timing Modes Type 1 - Detailed Timings Data Block:
    DTD:  1920x1080   60.012103 Hz  16:9     68.654 kHz    142.800000 MHz (aspect 16:9, no 3D stereo)
               Hfront   48 Hsync  32 Hback   80 Hpol N
               Vfront    3 Vsync   5 Vback   56 Vpol N
  Checksum: 0x67
Checksum: 0x90
