edid-decode (hex):

00 ff ff ff ff ff ff 00 0d ae 00 09 01 00 00 00
0a 22 01 04 a0 35 1e 78 e6 73 50 aa 56 57 a3 2b
0f 50 54 00 00 00 d1 c0 01 01 01 01 01 01 01 01
01 01 01 01 01 01 60 59 80 a0 70 38 14 40 30 20
68 00 0f 28 21 00 00 1a 00 00 00 fc 00 41 35 34
30 32 57 56 41 52 0a 20 20 20 00 00 00 fd 00 30
64 6e 6e 17 01 0a 20 20 20 20 20 20 00 00 00 fe
00 4d 32 33 38 48 43 41 2d 4c 39 42 0a 20 00 b3

00 ff ff ff ff ff ff 00 0d ae 00 09 01 00 00 00
0a 22 01 04 a0 35 1e 78 e6 73 50 aa 56 57 a3 2b
0f 50 54 00 00 00 d1 c0 01 01 01 01 01 01 01 01
01 01 01 01 01 01 60 59 80 a0 70 38 14 40 30 20
68 00 0f 28 21 00 00 1a 00 00 00 fc 00 41 35 34
30 32 57 56 41 52 0a 20 20 20 00 00 00 fd 00 30
64 6e 6e 17 01 0a 20 20 20 20 20 20 00 00 00 fe
00 4d 32 33 38 48 43 41 2d 4c 39 42 0a 20 00 b3

----------------

Block 0, Base EDID:
  EDID Structure Version & Revision: 1.4
  Vendor & Product Identification:
    Manufacturer: CMN
    Model: 2304
    Serial Number: ...
    Made in: week 10 of 2024
  Basic Display Parameters & Features:
    Digital display
    Bits per primary color channel: 8
    Digital interface is not defined
    Maximum image size: 53 cm x 30 cm
    Gamma: 2.20
    DPMS levels: Standby Suspend Off
    Supported color formats: RGB 4:4:4
    Default (sRGB) color space is primary color space
    First detailed timing includes the native pixel format and preferred refresh rate
  Color Characteristics:
    Red  : 0.6650, 0.3388
    Green: 0.3398, 0.6396
    Blue : 0.1689, 0.0595
    White: 0.3125, 0.3281
  Established Timings I & II: none
  Standard Timings:
    DMT 0x52:  1920x1080   60.000000 Hz  16:9     67.500 kHz    148.500000 MHz
  Detailed Timing Descriptors:
    DTD 1:  1920x1080  100.000000 Hz  16:9    110.000 kHz    228.800000 MHz (527 mm x 296 mm)
                 Hfront   48 Hsync  32 Hback   80 Hpol P
                 Vfront    6 Vsync   8 Vback    6 Vpol N
    Display Product Name: 'A5402WVAR'
    Display Range Limits:
      Monitor ranges (Bare Limits): 48-100 Hz V, 110-110 kHz H, max dotclock 230 MHz
    Alphanumeric Data String: 'M238HCA-L9B'
Checksum: 0xb3

----------------

Block 1, Unknown EDID Extension Block 0x00:
  00 ff ff ff ff ff ff 00 0d ae 00 09 01 00 00 00 '................'
  0a 22 01 04 a0 35 1e 78 e6 73 50 aa 56 57 a3 2b '."...5.x.sP.VW.+'
  0f 50 54 00 00 00 d1 c0 01 01 01 01 01 01 01 01 '.PT.............'
  01 01 01 01 01 01 60 59 80 a0 70 38 14 40 30 20 '......`Y..p8.@0 '
  68 00 0f 28 21 00 00 1a 00 00 00 fc 00 41 35 34 'h..(!........A54'
  30 32 57 56 41 52 0a 20 20 20 00 00 00 fd 00 30 '02WVAR.   .....0'
  64 6e 6e 17 01 0a 20 20 20 20 20 20 00 00 00 fe 'dnn...      ....'
  00 4d 32 33 38 48 43 41 2d 4c 39 42 0a 20 00 b3 '.M238HCA-L9B. ..'
Checksum: 0xb3

----------------

Warnings:

EDID:
  Base EDID: Some timings are out of range of the Monitor Ranges:
    Horizontal Freq: 67.500 - 110.000 kHz (Monitor: 110.000 - 110.000 kHz)

Failures:

Block 0, Base EDID:
  Basic Display Parameters & Features: sRGB is signaled, but the chromaticities do not match.
Block 1, Base EDID:
  Unknown Extension Block.
EDID:
  Base EDID: EDID specified 0 extension block(s), but found 1 extension block(s).

EDID conformity: FAIL
