
EDID (hex):
00ffffffffffff004c83804100000000
1b1f0104b5221378020cf1ae523cb923
0c505400000001010101010101010101
01010101010138e54050b05420600820
080458c21000001b38e54050b0549466
0820080458c21000001b0000000f00ff
0978ff093c28800200000000000000fe
0041544e413536414330322d312001c1
02030f00e3058000e606050174600700
00000000000000000000000000000000
00000000000000000000000000000000
00000000000000000000000000000000
00000000000000000000000000000000
00000000000000000000000000000000
00000000000000000000000000000000
000000000000000000000000000000b7

edid-decode (hex):

00 ff ff ff ff ff ff 00 4c 83 80 41 00 00 00 00
1b 1f 01 04 b5 22 13 78 02 0c f1 ae 52 3c b9 23
0c 50 54 00 00 00 01 01 01 01 01 01 01 01 01 01
01 01 01 01 01 01 38 e5 40 50 b0 54 20 60 08 20
08 04 58 c2 10 00 00 1b 38 e5 40 50 b0 54 94 66
08 20 08 04 58 c2 10 00 00 1b 00 00 00 0f 00 ff
09 78 ff 09 3c 28 80 02 00 00 00 00 00 00 00 fe
00 41 54 4e 41 35 36 41 43 30 32 2d 31 20 01 c1

02 03 0f 00 e3 05 80 00 e6 06 05 01 74 60 07 00
00 00 00 00 00 00 00 00 00 00 00 00 00 00 00 00
00 00 00 00 00 00 00 00 00 00 00 00 00 00 00 00
00 00 00 00 00 00 00 00 00 00 00 00 00 00 00 00
00 00 00 00 00 00 00 00 00 00 00 00 00 00 00 00
00 00 00 00 00 00 00 00 00 00 00 00 00 00 00 00
00 00 00 00 00 00 00 00 00 00 00 00 00 00 00 00
00 00 00 00 00 00 00 00 00 00 00 00 00 00 00 b7

----------------

Block 0, Base EDID:
  EDID Structure Version & Revision: 1.4
  Vendor & Product Identification:
    Manufacturer: SDC
    Model: 16768
    Made in: week 27 of 2021
  Basic Display Parameters & Features:
    Digital display
    Bits per primary color channel: 10
    DisplayPort interface
    Maximum image size: 34 cm x 19 cm
    Gamma: 2.20
    Supported color formats: RGB 4:4:4
    First detailed timing includes the native pixel format and preferred refresh rate
  Color Characteristics:
    Red  : 0.6796, 0.3203
    Green: 0.2373, 0.7226
    Blue : 0.1396, 0.0498
    White: 0.3125, 0.3291
  Established Timings I & II: none
  Standard Timings: none
  Detailed Timing Descriptors:
    DTD 1:  2880x1620  120.001963 Hz  16:9    198.243 kHz    586.800000 MHz (344 mm x 194 mm)
                 Hfront    8 Hsync  32 Hback   40 Hpol P
                 Vfront   16 Vsync   8 Vback    8 Vpol N
    DTD 2:  2880x1620   60.000982 Hz  16:9    198.243 kHz    586.800000 MHz (344 mm x 194 mm)
                 Hfront    8 Hsync  32 Hback   40 Hpol P
                 Vfront   16 Vsync   8 Vback 1660 Vpol N
    Manufacturer-Specified Display Descriptor (0x0f): 00 0f 00 ff 09 78 ff 09 3c 28 80 02 00 00 00 00 '.....x..<(......'
    Alphanumeric Data String: 'ATNA56AC02-1 '
  Extension blocks: 1
Checksum: 0xc1

----------------

Block 1, CTA-861 Extension Block:
  Revision: 3
  Native detailed modes: 0
  Colorimetry Data Block:
    BT2020RGB
  HDR Static Metadata Data Block:
    Electro optical transfer functions:
      Traditional gamma - SDR luminance range
      SMPTE ST2084
    Supported static metadata descriptors:
      Static metadata type 1
    Desired content max luminance: 116 (616.884 cd/m^2)
    Desired content max frame-average luminance: 96 (400.000 cd/m^2)
    Desired content min luminance: 7 (0.005 cd/m^2)
Checksum: 0xb7  Unused space in Extension Block: 112 bytes
