
EDID (hex):
00ffffffffffff0009e5180700000000
011a0104a51f11780a2190a658549f26
10505400000001010101010101010101
0101010101013c3780de703814403c20
360035ad1000001a0000000000000000
0000000000000000001a000000000000
000000000000000000000000000000fe
004e5631343046484d2d4e36320a0072

Extracted contents:
header:          00 ff ff ff ff ff ff 00
serial number:   09 e5 18 07 00 00 00 00 01 1a
version:         01 04
basic params:    a5 1f 11 78 0a
chroma info:     21 90 a6 58 54 9f 26 10 50 54
established:     00 00 00
standard:        01 01 01 01 01 01 01 01 01 01 01 01 01 01 01 01
descriptor 1:    3c 37 80 de 70 38 14 40 3c 20 36 00 35 ad 10 00 00 1a
descriptor 2:    00 00 00 00 00 00 00 00 00 00 00 00 00 00 00 00 00 1a
descriptor 3:    00 00 00 00 00 00 00 00 00 00 00 00 00 00 00 00 00 00
descriptor 4:    00 00 00 fe 00 4e 56 31 34 30 46 48 4d 2d 4e 36 32 0a
extensions:      00
checksum:        72

EDID version: 1.4
Manufacturer: BOE Model 718 Serial Number --
Made in week 1 of 2016
Digital display
8 bits per primary color channel
DisplayPort interface
Maximum image size: 31 cm x 17 cm
Gamma: 2.20
Supported color formats: RGB 4:4:4, YCrCb 4:4:4
First detailed timing includes the native pixel format and preferred refresh rate
Display x,y Chromaticity:
  Red:   0.6484, 0.3457
  Green: 0.3281, 0.6220
  Blue:  0.1503, 0.0634
  White: 0.3125, 0.3281
Established timings supported:
Standard timings supported:
Detailed mode: Clock 141.400 MHz, 309 mm x 173 mm
               1920 1980 2012 2142 hborder 0
               1080 1083 1089 1100 vborder 0
               +hsync -vsync 
               VertFreq: 60 Hz, HorFreq: 66013 Hz
Manufacturer-specified data, tag 0
Manufacturer-specified data, tag 0
ASCII string: NV140FHM-N62
Checksum: 0x72 (valid)
EDID block does NOT conform to EDID 1.4!
	Missing name descriptor
	Missing monitor ranges
