
EDID (hex):
00ffffffffffff004ca3423900000000
00120104901f11780a859599574f8f26
21505400000001010101010101010101
010101010101121b567250000c303020
250035ae100000190c12567250000c30
3020250035ae10000019000000000000
00000000000000000000000000000002
000c42f20b3c691415266e00000000bc

Extracted contents:
header:          00 ff ff ff ff ff ff 00
serial number:   4c a3 42 39 00 00 00 00 00 12
version:         01 04
basic params:    90 1f 11 78 0a
chroma info:     85 95 99 57 4f 8f 26 21 50 54
established:     00 00 00
standard:        01 01 01 01 01 01 01 01 01 01 01 01 01 01 01 01
descriptor 1:    12 1b 56 72 50 00 0c 30 30 20 25 00 35 ae 10 00 00 19
descriptor 2:    0c 12 56 72 50 00 0c 30 30 20 25 00 35 ae 10 00 00 19
descriptor 3:    00 00 00 00 00 00 00 00 00 00 00 00 00 00 00 00 00 00
descriptor 4:    00 00 00 02 00 0c 42 f2 0b 3c 69 14 15 26 6e 00 00 00
extensions:      00
checksum:        bc

EDID version: 1.4
Manufacturer: SEC Model 3942 Serial Number --
Made in year 2008
Digital display
6 bits per primary color channel
Digital interface is not defined
Maximum image size: 31 cm x 17 cm
Gamma: 2.20
Supported color formats: RGB 4:4:4, YCrCb 4:4:4
First detailed timing includes the native pixel format and preferred refresh rate
Display x,y Chromaticity:
  Red:   0.5996, 0.3398
  Green: 0.3095, 0.5595
  Blue:  0.1503, 0.1298
  White: 0.3134, 0.3291
Established timings supported:
Standard timings supported:
Detailed mode: Clock 69.300 MHz, 309 mm x 174 mm
               1366 1414 1446 1480 hborder 0
                768  770  775  780 vborder 0
               -hsync -vsync 
               VertFreq: 60 Hz, HorFreq: 46824 Hz
Detailed mode: Clock 46.200 MHz, 309 mm x 174 mm
               1366 1414 1446 1480 hborder 0
                768  770  775  780 vborder 0
               -hsync -vsync 
               VertFreq: 40 Hz, HorFreq: 31216 Hz
Manufacturer-specified data, tag 0
Manufacturer-specified data, tag 2
Checksum: 0xbc (valid)
EDID block does NOT conform to EDID 1.4!
	Missing name descriptor
	Missing monitor ranges
