
EDID (hex):
00ffffffffffff0006af149200000000
01120103801a10780a08b58f59578f26
1b505400000001010101010101010101
010101010101121b007b502015303020
360005a3100000180000000f00000000
00000000000000000020000000fe0041
554f0a202020202020202020000000fe
004231323145573039205632200a004e

Extracted contents:
header:          00 ff ff ff ff ff ff 00
serial number:   06 af 14 92 00 00 00 00 01 12
version:         01 03
basic params:    80 1a 10 78 0a
chroma info:     08 b5 8f 59 57 8f 26 1b 50 54
established:     00 00 00
standard:        01 01 01 01 01 01 01 01 01 01 01 01 01 01 01 01
descriptor 1:    12 1b 00 7b 50 20 15 30 30 20 36 00 05 a3 10 00 00 18
descriptor 2:    00 00 00 0f 00 00 00 00 00 00 00 00 00 00 00 00 00 20
descriptor 3:    00 00 00 fe 00 41 55 4f 0a 20 20 20 20 20 20 20 20 20
descriptor 4:    00 00 00 fe 00 42 31 32 31 45 57 30 39 20 56 32 20 0a
extensions:      00
checksum:        4e

EDID version: 1.3
Manufacturer: AUO Model 9214 Serial Number --
Made in week 1 of 2008
Digital display
Maximum image size: 26 cm x 16 cm
Gamma: 2.20
RGB color display
First detailed timing is preferred timing
Display x,y Chromaticity:
  Red:   0.5585, 0.3476
  Green: 0.3417, 0.5585
  Blue:  0.1503, 0.1083
  White: 0.3134, 0.3291
Established timings supported:
Standard timings supported:
Detailed mode: Clock 69.300 MHz, 261 mm x 163 mm
               1280 1328 1360 1403 hborder 0
                800  803  809  821 vborder 0
               -hsync -vsync 
               VertFreq: 60 Hz, HorFreq: 49394 Hz
Manufacturer-specified data, tag 15
ASCII string: AUO
ASCII string: B121EW09 V2 
Checksum: 0x4e (valid)
EDID block does NOT conform to EDID 1.3!
	Missing name descriptor
	Missing monitor ranges
