
EDID (hex):
00ffffffffffff000610929c01010101
00100103802b1b780a6085a6564a9c25
12505400000001010101010101010101
010101010101932e90a0601a1e403020
3600b10e110000180000000100061030
11080000000000000a20000000fe004d
32303145573032205646200a000000fc
00436f6c6f72204c43440a20202000d5

Extracted contents:
header:          00 ff ff ff ff ff ff 00
serial number:   06 10 92 9c 01 01 01 01 00 10
version:         01 03
basic params:    80 2b 1b 78 0a
chroma info:     60 85 a6 56 4a 9c 25 12 50 54
established:     00 00 00
standard:        01 01 01 01 01 01 01 01 01 01 01 01 01 01 01 01
descriptor 1:    93 2e 90 a0 60 1a 1e 40 30 20 36 00 b1 0e 11 00 00 18
descriptor 2:    00 00 00 01 00 06 10 30 11 08 00 00 00 00 00 00 0a 20
descriptor 3:    00 00 00 fe 00 4d 32 30 31 45 57 30 32 20 56 46 20 0a
descriptor 4:    00 00 00 fc 00 43 6f 6c 6f 72 20 4c 43 44 0a 20 20 20
extensions:      00
checksum:        d5

EDID version: 1.3
Manufacturer: APP Model 9c92 Serial Number --
Made in year 2006
Digital display
Maximum image size: 43 cm x 27 cm
Gamma: 2.20
RGB color display
First detailed timing is preferred timing
Display x,y Chromaticity:
  Red:   0.6494, 0.3378
  Green: 0.2890, 0.6093
  Blue:  0.1464, 0.0703
  White: 0.3134, 0.3291
Established timings supported:
Standard timings supported:
Detailed mode: Clock 119.230 MHz, 433 mm x 270 mm
               1680 1728 1760 1840 hborder 0
               1050 1053 1059 1080 vborder 0
               -hsync -vsync 
               VertFreq: 59 Hz, HorFreq: 64798 Hz
Manufacturer-specified data, tag 1
ASCII string: M201EW02 VF 
Monitor name: Color LCD
Checksum: 0xd5 (valid)
EDID block does NOT conform to EDID 1.3!
	Missing monitor ranges
