edid-decode (hex):

00 ff ff ff ff ff ff 00 06 10 92 9c 01 01 01 01
00 10 01 03 80 2b 1b 78 0a 60 85 a6 56 4a 9c 25
12 50 54 00 00 00 01 01 01 01 01 01 01 01 01 01
01 01 01 01 01 01 93 2e 90 a0 60 1a 1e 40 30 20
36 00 b1 0e 11 00 00 18 00 00 00 01 00 06 10 30
11 08 00 00 00 00 00 00 0a 20 00 00 00 fe 00 4d
32 30 31 45 57 30 32 20 56 46 20 0a 00 00 00 fc
00 43 6f 6c 6f 72 20 4c 43 44 0a 20 20 20 00 d5

----------------

Block 0, Base EDID:
  EDID Structure Version & Revision: 1.3
  Vendor & Product Identification:
    Manufacturer: APP
    Model: 40082
    Serial Number: ...
    Made in: 2006
  Basic Display Parameters & Features:
    Digital display
    Maximum image size: 43 cm x 27 cm
    Gamma: 2.20
    RGB color display
    First detailed timing is the preferred timing
  Color Characteristics:
    Red  : 0.6494, 0.3378
    Green: 0.2890, 0.6093
    Blue : 0.1464, 0.0703
    White: 0.3134, 0.3291
  Established Timings I & II: none
  Standard Timings: none
  Detailed Timing Descriptors:
    DTD 1:  1680x1050   59.998994 Hz   8:5     64.799 kHz    119.230000 MHz (433 mm x 270 mm)
                 Hfront   48 Hsync  32 Hback   80 Hpol N
                 Vfront    3 Vsync   6 Vback   21 Vpol N
    Manufacturer-Specified Display Descriptor (0x01): 00 01 00 06 10 30 11 08 00 00 00 00 00 00 0a 20 '.....0......... '
    Alphanumeric Data String: 'M201EW02 VF '
    Display Product Name: 'Color LCD'
Checksum: 0xd5

----------------

Failures:

Block 0, Base EDID:
  Alphanumeric Data String: One or more trailing spaces.
  Missing Display Range Limits Descriptor.

EDID conformity: FAIL
