
EDID (hex):
00ffffffffffff001ef97b0700000000
2910010308291a78eade95a3544c9926
0f5054bfef80950f81808140810f7190
904f01010101c422a0a050841a303020
36009a011100001e000000fc00465044
31393735570a20202020000000fd0038
4c1f5410000a202020202020000000ff
004d474a364144304e30353937380041

Extracted contents:
header:          00 ff ff ff ff ff ff 00
serial number:   1e f9 7b 07 00 00 00 00 29 10
version:         01 03
basic params:    08 29 1a 78 ea
chroma info:     de 95 a3 54 4c 99 26 0f 50 54
established:     bf ef 80
standard:        95 0f 81 80 81 40 81 0f 71 90 90 4f 01 01 01 01
descriptor 1:    c4 22 a0 a0 50 84 1a 30 30 20 36 00 9a 01 11 00 00 1e
descriptor 2:    00 00 00 fc 00 46 50 44 31 39 37 35 57 0a 20 20 20 20
descriptor 3:    00 00 00 fd 00 38 4c 1f 54 10 00 0a 20 20 20 20 20 20
descriptor 4:    00 00 00 ff 00 4d 47 4a 36 41 44 30 4e 30 35 39 37 38
extensions:      00
checksum:        41

EDID version: 1.3
Manufacturer: GWY Model 77b Serial Number --
Made in week 41 of 2006
Analog display, Input voltage level: 0.7/0.3 V
Sync: Separate 
Maximum image size: 41 cm x 26 cm
Gamma: 2.20
DPMS levels: Standby Suspend Off
RGB color display
First detailed timing is preferred timing
Display x,y Chromaticity:
  Red:   0.6396, 0.3291
  Green: 0.2998, 0.5996
  Blue:  0.1503, 0.0595
  White: 0.3134, 0.3291
Established timings supported:
  720x400@70Hz 9:5 HorFreq: 31469 Hz Clock: 28.320 MHz
  640x480@60Hz 4:3 HorFreq: 31469 Hz Clock: 25.175 MHz
  640x480@67Hz 4:3 HorFreq: 35000 Hz Clock: 30.240 MHz
  640x480@72Hz 4:3 HorFreq: 37900 Hz Clock: 31.500 MHz
  640x480@75Hz 4:3 HorFreq: 37500 Hz Clock: 31.500 MHz
  800x600@56Hz 4:3 HorFreq: 35200 Hz Clock: 36.000 MHz
  800x600@60Hz 4:3 HorFreq: 37900 Hz Clock: 40.000 MHz
  800x600@72Hz 4:3 HorFreq: 48100 Hz Clock: 50.000 MHz
  800x600@75Hz 4:3 HorFreq: 46900 Hz Clock: 49.500 MHz
  832x624@75Hz 4:3 HorFreq: 49726 Hz Clock: 57.284 MHz
  1024x768@60Hz 4:3 HorFreq: 48400 Hz Clock: 65.000 MHz
  1024x768@70Hz 4:3 HorFreq: 56500 Hz Clock: 75.000 MHz
  1024x768@75Hz 4:3 HorFreq: 60000 Hz Clock: 78.750 MHz
  1280x1024@75Hz 5:4 HorFreq: 80000 Hz Clock: 135.000 MHz
  1152x870@75Hz 192:145 HorFreq: 67500 Hz Clock: 108.000 MHz
Standard timings supported:
  1440x900@75Hz 16:10 HorFreq: 82300 Hz Clock: 156.000 MHz
  1280x1024@60Hz 5:4 HorFreq: 64000 Hz Clock: 108.000 MHz
  1280x960@60Hz 4:3 HorFreq: 60000 Hz Clock: 108.000 MHz
  1280x800@75Hz 16:10
  1152x921@76Hz 5:4
  1400x1050@75Hz 4:3 HorFreq: 82300 Hz Clock: 156.000 MHz
Detailed mode: Clock 89.000 MHz, 410 mm x 257 mm
               1440 1488 1520 1600 hborder 0
                900  903  909  926 vborder 0
               +hsync +vsync 
               VertFreq: 60 Hz, HorFreq: 55625 Hz
Monitor name: FPD1975W
Monitor ranges (GTF): 56-76Hz V, 31-84kHz H, max dotclock 160MHz
Serial number: --
Checksum: 0x41 (valid)
