
EDID (hex):
00ffffffffffff004c83503300000000
001a0104951d11780a28659759548e27
1e505400000001010101010101010101
010101010101293680a070381f403020
250025a5100000190000000f00000000
00000000003d83112f00000000fe0053
414d53554e470a2020202020000000fe
00313333484c30372d3730320a2000b5

edid-decode (hex):

00 ff ff ff ff ff ff 00 4c 83 50 33 00 00 00 00
00 1a 01 04 95 1d 11 78 0a 28 65 97 59 54 8e 27
1e 50 54 00 00 00 01 01 01 01 01 01 01 01 01 01
01 01 01 01 01 01 29 36 80 a0 70 38 1f 40 30 20
25 00 25 a5 10 00 00 19 00 00 00 0f 00 00 00 00
00 00 00 00 00 3d 83 11 2f 00 00 00 00 fe 00 53
41 4d 53 55 4e 47 0a 20 20 20 20 20 00 00 00 fe
00 31 33 33 48 4c 30 37 2d 37 30 32 0a 20 00 b5

----------------

Block 0, Base EDID:
  EDID Structure Version & Revision: 1.4
  Vendor & Product Identification:
    Manufacturer: SDC
    Model: 13136
    Made in: 2016
  Basic Display Parameters & Features:
    Digital display
    Bits per primary color channel: 6
    DisplayPort interface
    Maximum image size: 29 cm x 17 cm
    Gamma: 2.20
    Supported color formats: RGB 4:4:4, YCrCb 4:4:4
    First detailed timing includes the native pixel format and preferred refresh rate
  Color Characteristics:
    Red  : 0.5898, 0.3496
    Green: 0.3300, 0.5546
    Blue : 0.1533, 0.1191
    White: 0.3134, 0.3291
  Established Timings I & II: none
  Standard Timings: none
  Detailed Timing Descriptors:
    DTD 1:  1920x1080   59.998788 Hz  16:9     66.659 kHz    138.650000 MHz (293 mm x 165 mm)
                 Hfront   48 Hsync  32 Hback   80 Hpol N
                 Vfront    2 Vsync   5 Vback   24 Vpol N
    Manufacturer-Specified Display Descriptor (0x0f): 00 0f 00 00 00 00 00 00 00 00 00 3d 83 11 2f 00 '...........=../.'
    Alphanumeric Data String: 'SAMSUNG'
    Alphanumeric Data String: '133HL07-702'
Checksum: 0xb5
