
EDID (hex):
00ffffffffffff005c94f01983060000
1d160103805932780aee04a6534c9925
15545f254a00d1c08180010101010101
010101010101023a801871382d40582c
450076f23100001e000000ff00363634
30593232393031363637000000fd0017
4c1f440f000a202020202020000000fc
0055573430544331570a202020200171
02031b714c040503022022900106070e
0f2309070765030c002000011d007251
d01e206e28550076f23100001a011d80
18711c1620582c250076f23100009e8c
0ad08a20e02d10103e960076f2310000
18011d801871382d40582c450076f231
00001e1a3680a070381f403020350076
f23100001a00000000000000000000a7

edid-decode (hex):

00 ff ff ff ff ff ff 00 5c 94 f0 19 83 06 00 00
1d 16 01 03 80 59 32 78 0a ee 04 a6 53 4c 99 25
15 54 5f 25 4a 00 d1 c0 81 80 01 01 01 01 01 01
01 01 01 01 01 01 02 3a 80 18 71 38 2d 40 58 2c
45 00 76 f2 31 00 00 1e 00 00 00 ff 00 36 36 34
30 59 32 32 39 30 31 36 36 37 00 00 00 fd 00 17
4c 1f 44 0f 00 0a 20 20 20 20 20 20 00 00 00 fc
00 55 57 34 30 54 43 31 57 0a 20 20 20 20 01 71

02 03 1b 71 4c 04 05 03 02 20 22 90 01 06 07 0e
0f 23 09 07 07 65 03 0c 00 20 00 01 1d 00 72 51
d0 1e 20 6e 28 55 00 76 f2 31 00 00 1a 01 1d 80
18 71 1c 16 20 58 2c 25 00 76 f2 31 00 00 9e 8c
0a d0 8a 20 e0 2d 10 10 3e 96 00 76 f2 31 00 00
18 01 1d 80 18 71 38 2d 40 58 2c 45 00 76 f2 31
00 00 1e 1a 36 80 a0 70 38 1f 40 30 20 35 00 76
f2 31 00 00 1a 00 00 00 00 00 00 00 00 00 00 a7

----------------

Block 0, Base EDID:
  EDID Structure Version & Revision: 1.3
  Vendor & Product Identification:
    Manufacturer: WDT
    Model: 6640
    Serial Number: 1667
    Made in: week 29 of 2012
  Basic Display Parameters & Features:
    Digital display
    Maximum image size: 89 cm x 50 cm
    Gamma: 2.20
    RGB color display
    First detailed timing is the preferred timing
  Color Characteristics:
    Red  : 0.6513, 0.3261
    Green: 0.2998, 0.5996
    Blue : 0.1445, 0.0820
    White: 0.3291, 0.3710
  Established Timings I & II:
    DMT 0x04:   640x480    59.940476 Hz   4:3     31.469 kHz     25.175000 MHz
    DMT 0x06:   640x480    75.000000 Hz   4:3     37.500 kHz     31.500000 MHz
    DMT 0x09:   800x600    60.316541 Hz   4:3     37.879 kHz     40.000000 MHz
    DMT 0x0b:   800x600    75.000000 Hz   4:3     46.875 kHz     49.500000 MHz
    DMT 0x10:  1024x768    60.003840 Hz   4:3     48.363 kHz     65.000000 MHz
    DMT 0x12:  1024x768    75.028582 Hz   4:3     60.023 kHz     78.750000 MHz
  Standard Timings:
    DMT 0x52:  1920x1080   60.000000 Hz  16:9     67.500 kHz    148.500000 MHz
    DMT 0x23:  1280x1024   60.019740 Hz   5:4     63.981 kHz    108.000000 MHz
  Detailed Timing Descriptors:
    DTD 1:  1920x1080   60.000000 Hz  16:9     67.500 kHz    148.500000 MHz (886 mm x 498 mm)
                 Hfront   88 Hsync  44 Hback  148 Hpol P
                 Vfront    4 Vsync   5 Vback   36 Vpol P
    Display Product Serial Number: '6640Y22901667'
    Display Range Limits:
      Monitor ranges (GTF): 23-76 Hz V, 31-68 kHz H, max dotclock 150 MHz
    Display Product Name: 'UW40TC1W'
  Extension blocks: 1
Checksum: 0x71

----------------

Block 1, CTA-861 Extension Block:
  Revision: 3
  Basic audio support
  Supports YCbCr 4:4:4
  Supports YCbCr 4:2:2
  Native detailed modes: 1
  Video Data Block:
    VIC   4:  1280x720    60.000000 Hz  16:9     45.000 kHz     74.250000 MHz
    VIC   5:  1920x1080i  60.000000 Hz  16:9     33.750 kHz     74.250000 MHz
    VIC   3:   720x480    59.940060 Hz  16:9     31.469 kHz     27.000000 MHz
    VIC   2:   720x480    59.940060 Hz   4:3     31.469 kHz     27.000000 MHz
    VIC  32:  1920x1080   24.000000 Hz  16:9     27.000 kHz     74.250000 MHz
    VIC  34:  1920x1080   30.000000 Hz  16:9     33.750 kHz     74.250000 MHz
    VIC  16:  1920x1080   60.000000 Hz  16:9     67.500 kHz    148.500000 MHz (native)
    VIC   1:   640x480    59.940476 Hz   4:3     31.469 kHz     25.175000 MHz
    VIC   6:  1440x480i   59.940060 Hz   4:3     15.734 kHz     27.000000 MHz
    VIC   7:  1440x480i   59.940060 Hz  16:9     15.734 kHz     27.000000 MHz
    VIC  14:  1440x480    59.940060 Hz   4:3     31.469 kHz     54.000000 MHz
    VIC  15:  1440x480    59.940060 Hz  16:9     31.469 kHz     54.000000 MHz
  Audio Data Block:
    Linear PCM:
      Max channels: 2
      Supported sample rates (kHz): 48 44.1 32
      Supported sample sizes (bits): 24 20 16
  Vendor-Specific Data Block (HDMI), OUI 00-0C-03:
    Source physical address: 2.0.0.0
  Detailed Timing Descriptors:
    DTD 2:  1280x720    60.000000 Hz  16:9     45.000 kHz     74.250000 MHz (886 mm x 498 mm)
                 Hfront  110 Hsync  40 Hback  220 Hpol P
                 Vfront    5 Vsync   5 Vback   20 Vpol N
    DTD 3:  1920x1080i  60.000000 Hz  16:9     33.750 kHz     74.250000 MHz (886 mm x 498 mm)
                 Hfront   88 Hsync  44 Hback  148 Hpol P
                 Vfront    2 Vsync   5 Vback   15 Vpol P Vfront +0.5 Odd Field
                 Vfront    2 Vsync   5 Vback   15 Vpol P Vback  +0.5 Even Field
    DTD 4:   720x480    59.940060 Hz   3:2     31.469 kHz     27.000000 MHz (886 mm x 498 mm)
                 Hfront   16 Hsync  62 Hback   60 Hpol N
                 Vfront    9 Vsync   6 Vback   30 Vpol N
    DTD 5:  1920x1080   30.000000 Hz  16:9     33.750 kHz     74.250000 MHz (886 mm x 498 mm)
                 Hfront   88 Hsync  44 Hback  148 Hpol P
                 Vfront    4 Vsync   5 Vback   36 Vpol P
    DTD 6:  1920x1080   59.933878 Hz  16:9     66.587 kHz    138.500000 MHz (886 mm x 498 mm)
                 Hfront   48 Hsync  32 Hback   80 Hpol P
                 Vfront    3 Vsync   5 Vback   23 Vpol N
Checksum: 0xa7  Unused space in Extension Block: 10 bytes


