
EDID (hex):
00ffffffffffff004c834e3300000000
00190104952213780a21059759578f29
20505400000001010101010101010101
010101010101411c56a0500016303020
250058c2100000190000000f00000000
000000000020ac065100000000fe0053
414d53554e470a2020202020000000fe
00313536415433392d3730320a20002f

edid-decode (hex):

00 ff ff ff ff ff ff 00 4c 83 4e 33 00 00 00 00
00 19 01 04 95 22 13 78 0a 21 05 97 59 57 8f 29
20 50 54 00 00 00 01 01 01 01 01 01 01 01 01 01
01 01 01 01 01 01 41 1c 56 a0 50 00 16 30 30 20
25 00 58 c2 10 00 00 19 00 00 00 0f 00 00 00 00
00 00 00 00 00 20 ac 06 51 00 00 00 00 fe 00 53
41 4d 53 55 4e 47 0a 20 20 20 20 20 00 00 00 fe
00 31 35 36 41 54 33 39 2d 37 30 32 0a 20 00 2f

----------------

Block 0, Base EDID:
  EDID Structure Version & Revision: 1.4
  Vendor & Product Identification:
    Manufacturer: SDC
    Model: 13134
    Made in: 2015
  Basic Display Parameters & Features:
    Digital display
    Bits per primary color channel: 6
    DisplayPort interface
    Maximum image size: 34 cm x 19 cm
    Gamma: 2.20
    Supported color formats: RGB 4:4:4, YCrCb 4:4:4
    First detailed timing includes the native pixel format and preferred refresh rate
  Color Characteristics:
    Red  : 0.5898, 0.3496
    Green: 0.3398, 0.5595
    Blue : 0.1601, 0.1250
    White: 0.3134, 0.3291
  Established Timings I & II: none
  Standard Timings: none
  Detailed Timing Descriptors:
    DTD 1:  1366x768    59.998009 Hz 683:384   47.398 kHz     72.330000 MHz (344 mm x 194 mm)
                 Hfront   48 Hsync  32 Hback   80 Hpol N
                 Vfront    2 Vsync   5 Vback   15 Vpol N
    Manufacturer-Specified Display Descriptor (0x0f): 00 0f 00 00 00 00 00 00 00 00 00 20 ac 06 51 00 '........... ..Q.'
    Alphanumeric Data String: 'SAMSUNG'
    Alphanumeric Data String: '156AT39-702'
Checksum: 0x2f
