
EDID (hex):
00ffffffffffff0030e4840500000000
001b0104a51d1178ea0e35a251479d27
0c505400000001010101010101010101
010101010101293680a070381f403020
350026a51000001a0000000000000000
00000000000000000000000000fe004c
4720446973706c61790a2020000000fe
004c503133335746362d5350473100f6

Extracted contents:
header:          00 ff ff ff ff ff ff 00
serial number:   30 e4 84 05 00 00 00 00 00 1b
version:         01 04
basic params:    a5 1d 11 78 ea
chroma info:     0e 35 a2 51 47 9d 27 0c 50 54
established:     00 00 00
standard:        01 01 01 01 01 01 01 01 01 01 01 01 01 01 01 01
descriptor 1:    29 36 80 a0 70 38 1f 40 30 20 35 00 26 a5 10 00 00 1a
descriptor 2:    00 00 00 00 00 00 00 00 00 00 00 00 00 00 00 00 00 00
descriptor 3:    00 00 00 fe 00 4c 47 20 44 69 73 70 6c 61 79 0a 20 20
descriptor 4:    00 00 00 fe 00 4c 50 31 33 33 57 46 36 2d 53 50 47 31
extensions:      00
checksum:        f6

EDID version: 1.4
Manufacturer: LGD Model 584 Serial Number --
Made in year 2017
Digital display
8 bits per primary color channel
DisplayPort interface
Maximum image size: 29 cm x 17 cm
Gamma: 2.20
DPMS levels: Standby Suspend Off
Supported color formats: RGB 4:4:4, YCrCb 4:4:4
First detailed timing includes the native pixel format and preferred refresh rate
Display x,y Chromaticity:
  Red:   0.6328, 0.3164
  Green: 0.2802, 0.6152
  Blue:  0.1523, 0.0498
  White: 0.3134, 0.3291
Established timings supported:
Standard timings supported:
Detailed mode: Clock 138.650 MHz, 294 mm x 165 mm
               1920 1968 2000 2080 hborder 0
               1080 1083 1088 1111 vborder 0
               +hsync -vsync 
               VertFreq: 59 Hz, HorFreq: 66658 Hz
Manufacturer-specified data, tag 0
ASCII string: LG Display
ASCII string: LP133WF6-SPG1
Checksum: 0xf6 (valid)
EDID block does NOT conform to EDID 1.4!
	Missing name descriptor
	Missing monitor ranges
