
EDID (hex):
00ffffffffffff003103602301000000
1e1d010300341e78eaeed5a3544c9923
0f5054254b0081008140714fa9c08180
81c09500b300023a801871382d40582c
450009262100001e662156aa51001e30
468f330009262100001e000000fd0032
4b366414000a202020202020000000fc
004d4c452d323430310a20202020007a

Extracted contents:
header:          00 ff ff ff ff ff ff 00
serial number:   31 03 60 23 01 00 00 00 1e 1d
version:         01 03
basic params:    00 34 1e 78 ea
chroma info:     ee d5 a3 54 4c 99 23 0f 50 54
established:     25 4b 00
standard:        81 00 81 40 71 4f a9 c0 81 80 81 c0 95 00 b3 00
descriptor 1:    02 3a 80 18 71 38 2d 40 58 2c 45 00 09 26 21 00 00 1e
descriptor 2:    66 21 56 aa 51 00 1e 30 46 8f 33 00 09 26 21 00 00 1e
descriptor 3:    00 00 00 fd 00 32 4b 36 64 14 00 0a 20 20 20 20 20 20
descriptor 4:    00 00 00 fc 00 4d 4c 45 2d 32 34 30 31 0a 20 20 20 20
extensions:      00
checksum:        7a

EDID version: 1.3
Manufacturer: LHC Model 2360 Serial Number --
Made in week 30 of 2019
Analog display, Input voltage level: 0.7/0.3 V
Sync: 
Maximum image size: 52 cm x 30 cm
Gamma: 2.20
DPMS levels: Standby Suspend Off
RGB color display
First detailed timing is preferred timing
Display x,y Chromaticity:
  Red:   0.6396, 0.3300
  Green: 0.2998, 0.5996
  Blue:  0.1396, 0.0595
  White: 0.3134, 0.3291
Established timings supported:
  640x480@60Hz 4:3 HorFreq: 31469 Hz Clock: 25.175 MHz
  640x480@75Hz 4:3 HorFreq: 37500 Hz Clock: 31.500 MHz
  800x600@60Hz 4:3 HorFreq: 37900 Hz Clock: 40.000 MHz
  800x600@75Hz 4:3 HorFreq: 46900 Hz Clock: 49.500 MHz
  1024x768@60Hz 4:3 HorFreq: 48400 Hz Clock: 65.000 MHz
  1024x768@75Hz 4:3 HorFreq: 60000 Hz Clock: 78.750 MHz
  1280x1024@75Hz 5:4 HorFreq: 80000 Hz Clock: 135.000 MHz
Standard timings supported:
  1280x800@60Hz 16:10
  1280x960@60Hz 4:3 HorFreq: 60000 Hz Clock: 108.000 MHz
  1152x864@75Hz 4:3 HorFreq: 67500 Hz Clock: 108.000 MHz
  1600x900@60Hz 16:9
  1280x1024@60Hz 5:4 HorFreq: 64000 Hz Clock: 108.000 MHz
  1280x720@60Hz 16:9
  1440x900@60Hz 16:10 HorFreq: 55500 Hz Clock: 88.750 MHz
  1680x1050@60Hz 16:10 HorFreq: 64700 Hz Clock: 119.000 MHz
Detailed mode: Clock 148.500 MHz, 521 mm x 294 mm
               1920 2008 2052 2200 hborder 0
               1080 1084 1089 1125 vborder 0
               +hsync +vsync 
               VertFreq: 60 Hz, HorFreq: 67500 Hz
Detailed mode: Clock 85.500 MHz, 521 mm x 294 mm
               1366 1436 1579 1792 hborder 0
                768  771  774  798 vborder 0
               +hsync +vsync 
               VertFreq: 59 Hz, HorFreq: 47712 Hz
Monitor ranges (GTF): 50-75Hz V, 54-100kHz H, max dotclock 200MHz
Monitor name: MLE-2401
Checksum: 0x7a (valid)
One or more of the timings is out of range of the Monitor Ranges:
  Vertical Freq: 59 - 75 Hz
  Horizontal Freq: 31469 - 80000 Hz
  Maximum Clock: 148.500 MHz
