
EDID (hex):
00ffffffffffff001e6d217700000000
00000104b55021789e09c1ae5044af26
0e505420000001010101010101010101
01010101010100000000000000000000
00000000000000000000000000000000
00000000000000000000000000fd0030
3d1e874c000a202020202020000000fc
004c472048445220354b0a2020200122
701279030001000c401fe40c00147008
9078899912001680101000ff096f0800
0000000047534d217701010101030014
f0890008ff094f0007801f006f085100
00000700000000000000000000000000
00000000000000000000000000000000
00000000000000000000000000000000
00000000000000000000000000003290

Extracted contents:
header:          00 ff ff ff ff ff ff 00
serial number:   1e 6d 21 77 00 00 00 00 00 00
version:         01 04
basic params:    b5 50 21 78 9e
chroma info:     09 c1 ae 50 44 af 26 0e 50 54
established:     20 00 00
standard:        01 01 01 01 01 01 01 01 01 01 01 01 01 01 01 01
descriptor 1:    00 00 00 00 00 00 00 00 00 00 00 00 00 00 00 00 00 00
descriptor 2:    00 00 00 00 00 00 00 00 00 00 00 00 00 00 00 00 00 00
descriptor 3:    00 00 00 fd 00 30 3d 1e 87 4c 00 0a 20 20 20 20 20 20
descriptor 4:    00 00 00 fc 00 4c 47 20 48 44 52 20 35 4b 0a 20 20 20
extensions:      01
checksum:        22

EDID version: 1.4
Manufacturer: GSM Model 7721 Serial Number --
Digital display
10 bits per primary color channel
DisplayPort interface
Maximum image size: 80 cm x 33 cm
Gamma: 2.20
DPMS levels: Standby
Supported color formats: RGB 4:4:4, YCrCb 4:4:4, YCrCb 4:2:2
Default (sRGB) color space is primary color space
First detailed timing includes the native pixel format and preferred refresh rate
Display x,y Chromaticity:
  Red:   0.6796, 0.3125
  Green: 0.2675, 0.6845
  Blue:  0.1513, 0.0546
  White: 0.3125, 0.3291
Established timings supported:
  640x480@60Hz 4:3 HorFreq: 31469 Hz Clock: 25.175 MHz
Standard timings supported:
Manufacturer-specified data, tag 0
Manufacturer-specified data, tag 0
Monitor ranges (GTF): 48-61Hz V, 30-135kHz H, max dotclock 760MHz
Monitor name: LG HDR 5K
Has 1 extension blocks
Checksum: 0x22 (valid)

DisplayID extension block
Extension version: 18
Length 121, version 18, extension count 0
Checksum: 0x32 (valid)
Display Parameters block
tiled display block: capabilities 0x00000080
num horizontal tiles 2, num vertical tiles 1
tile location (1, 0)
tile dimensions (2560, 2160)
Type 1 detailed timing: aspect: undefined,  
Detailed mode: Clock 353.120 MHz, 0 mm x 0 mm
               2559 2566 2597 2638
               2159 2159 2166 2240
               +hsync -vsync

EDID block does NOT conform to EDID 1.4!
	sRGB is signaled, but the chromaticities do not match
	Missing preferred timing
EDID block does not conform at all!
	Has -570425344 nonconformant extension block(s)
	Bad year of manufacture


