
EDID (hex):
00ffffffffffff0009e55a0a00000000
161f0104b51e137807a7e5a3544a9e25
0e505400000001010101010101010101
0101010101010753c0dc807828503020
36002ebd1000001a6c42c0dc80782850
302036002ebd1000001a000000fe0043
30305646804e56313444524d00000000
000541219e001100000b410a20200018

edid-decode (hex):

00 ff ff ff ff ff ff 00 09 e5 5a 0a 00 00 00 00
16 1f 01 04 b5 1e 13 78 07 a7 e5 a3 54 4a 9e 25
0e 50 54 00 00 00 01 01 01 01 01 01 01 01 01 01
01 01 01 01 01 01 07 53 c0 dc 80 78 28 50 30 20
36 00 2e bd 10 00 00 1a 6c 42 c0 dc 80 78 28 50
30 20 36 00 2e bd 10 00 00 1a 00 00 00 fe 00 43
30 30 56 46 80 4e 56 31 34 44 52 4d 00 00 00 00
00 05 41 21 9e 00 11 00 00 0b 41 0a 20 20 00 18

----------------

Block 0, Base EDID:
  EDID Structure Version & Revision: 1.4
  Vendor & Product Identification:
    Manufacturer: BOE
    Model: 2650
    Made in: week 22 of 2021
  Basic Display Parameters & Features:
    Digital display
    Bits per primary color channel: 10
    DisplayPort interface
    Maximum image size: 30 cm x 19 cm
    Gamma: 2.20
    Supported color formats: RGB 4:4:4
    Default (sRGB) color space is primary color space
    First detailed timing includes the native pixel format and preferred refresh rate
    Display is continuous frequency
  Color Characteristics:
    Red  : 0.6386, 0.3300
    Green: 0.2900, 0.6201
    Blue : 0.1474, 0.0566
    White: 0.3134, 0.3291
  Established Timings I & II: none
  Standard Timings: none
  Detailed Timing Descriptors:
    DTD 1:  2240x1400   60.001694 Hz  16:10    86.402 kHz    212.550000 MHz (302 mm x 189 mm)
                 Hfront   48 Hsync  32 Hback  140 Hpol P
                 Vfront    3 Vsync   6 Vback   31 Vpol N
    DTD 2:  2240x1400   48.001355 Hz  16:10    69.122 kHz    170.040000 MHz (302 mm x 189 mm)
                 Hfront   48 Hsync  32 Hback  140 Hpol P
                 Vfront    3 Vsync   6 Vback   31 Vpol N
    Alphanumeric Data String: 'C00VF'
    Manufacturer-Specified Display Descriptor (0x00): 00 00 00 05 41 21 9e 00 11 00 00 0b 41 0a 20 20 '....A!......A.  '
Checksum: 0x18
