
EDID (hex):
00ffffffffffff000e9802c501010101
161001036d241b78eb00b2a057499b26
10484f3fdf00a94fa94a819961594559
315901010101863d00c05100304040a0
1300680e1100001e000000fd0032a01e
3060000a202020202020000000ff0030
3030303030303032360a2020000000fc
0043545820204558393531460a2000ce

Extracted contents:
header:          00 ff ff ff ff ff ff 00
serial number:   0e 98 02 c5 01 01 01 01 16 10
version:         01 03
basic params:    6d 24 1b 78 eb
chroma info:     00 b2 a0 57 49 9b 26 10 48 4f
established:     3f df 00
standard:        a9 4f a9 4a 81 99 61 59 45 59 31 59 01 01 01 01
descriptor 1:    86 3d 00 c0 51 00 30 40 40 a0 13 00 68 0e 11 00 00 1e
descriptor 2:    00 00 00 fd 00 32 a0 1e 30 60 00 0a 20 20 20 20 20 20
descriptor 3:    00 00 00 ff 00 30 30 30 30 30 30 30 30 32 36 0a 20 20
descriptor 4:    00 00 00 fc 00 43 54 58 20 20 45 58 39 35 31 46 0a 20
extensions:      00
checksum:        ce

EDID version: 1.3
Manufacturer: CTX Model c502 Serial Number --
Made in week 22 of 2006
Analog display, Input voltage level: 0.7/0.7 V
Sync: Separate Composite Serration 
Maximum image size: 36 cm x 27 cm
Gamma: 2.20
DPMS levels: Standby Suspend Off
RGB color display
First detailed timing is preferred timing
Supports GTF timings within operating range
Display x,y Chromaticity:
  Red:   0.6250, 0.3398
  Green: 0.2851, 0.6054
  Blue:  0.1503, 0.0654
  White: 0.2812, 0.3105
Established timings supported:
  640x480@60Hz 4:3 HorFreq: 31469 Hz Clock: 25.175 MHz
  640x480@67Hz 4:3 HorFreq: 35000 Hz Clock: 30.240 MHz
  640x480@72Hz 4:3 HorFreq: 37900 Hz Clock: 31.500 MHz
  640x480@75Hz 4:3 HorFreq: 37500 Hz Clock: 31.500 MHz
  800x600@56Hz 4:3 HorFreq: 35200 Hz Clock: 36.000 MHz
  800x600@60Hz 4:3 HorFreq: 37900 Hz Clock: 40.000 MHz
  800x600@72Hz 4:3 HorFreq: 48100 Hz Clock: 50.000 MHz
  800x600@75Hz 4:3 HorFreq: 46900 Hz Clock: 49.500 MHz
  1280x768i@87Hz 5:3 HorFreq: 35522 Hz Clock: 44.900 MHz
  1024x768@60Hz 4:3 HorFreq: 48400 Hz Clock: 65.000 MHz
  1024x768@70Hz 4:3 HorFreq: 56500 Hz Clock: 75.000 MHz
  1024x768@75Hz 4:3 HorFreq: 60000 Hz Clock: 78.750 MHz
  1280x1024@75Hz 5:4 HorFreq: 80000 Hz Clock: 135.000 MHz
Standard timings supported:
  1600x1200@75Hz 4:3 HorFreq: 93800 Hz Clock: 202.500 MHz
  1600x1200@70Hz 4:3 HorFreq: 87500 Hz Clock: 189.000 MHz
  1280x1024@85Hz 5:4 HorFreq: 91100 Hz Clock: 157.500 MHz
  1024x768@85Hz 4:3 HorFreq: 68700 Hz Clock: 94.500 MHz
  800x600@85Hz 4:3 HorFreq: 53700 Hz Clock: 56.250 MHz
  640x480@85Hz 4:3 HorFreq: 43300 Hz Clock: 36.000 MHz
Detailed mode: Clock 157.500 MHz, 360 mm x 270 mm
               1280 1344 1504 1728 hborder 0
               1024 1025 1028 1072 vborder 0
               +hsync +vsync 
               VertFreq: 85 Hz, HorFreq: 91145 Hz
Monitor ranges (GTF): 50-160Hz V, 30-48kHz H, max dotclock 960MHz
Serial number: --
Monitor name: CTX  EX951F
Checksum: 0xce (valid)
One or more of the timings is out of range of the Monitor Ranges:
  Vertical Freq: 56 - 87 Hz
  Horizontal Freq: 31469 - 93800 Hz
  Maximum Clock: 202.500 MHz
