
EDID (hex):
00ffffffffffff000e6f0d1500000000
0f210104a5221378039c15955d589429
1e505400000001010101010101010101
010101010101c0398018713828403020
360058c11000001a000000fd00283c43
430e010a202020202020000000fe0043
534f542054390a2020202020000000fc
00534e463630314253312d310a2000d2

edid-decode (hex):

00 ff ff ff ff ff ff 00 0e 6f 0d 15 00 00 00 00
0f 21 01 04 a5 22 13 78 03 9c 15 95 5d 58 94 29
1e 50 54 00 00 00 01 01 01 01 01 01 01 01 01 01
01 01 01 01 01 01 c0 39 80 18 71 38 28 40 30 20
36 00 58 c1 10 00 00 1a 00 00 00 fd 00 28 3c 43
43 0e 01 0a 20 20 20 20 20 20 00 00 00 fe 00 43
53 4f 54 20 54 39 0a 20 20 20 20 20 00 00 00 fc
00 53 4e 46 36 30 31 42 53 31 2d 31 0a 20 00 d2

----------------

Block 0, Base EDID:
  EDID Structure Version & Revision: 1.4
  Vendor & Product Identification:
    Manufacturer: CSO
    Model: 5389
    Made in: week 15 of 2023
  Basic Display Parameters & Features:
    Digital display
    Bits per primary color channel: 8
    DisplayPort interface
    Maximum image size: 34 cm x 19 cm
    Gamma: 2.20
    Supported color formats: RGB 4:4:4
    First detailed timing includes the native pixel format and preferred refresh rate
    Display is continuous frequency
  Color Characteristics:
    Red  : 0.5839, 0.3642
    Green: 0.3466, 0.5781
    Blue : 0.1601, 0.1181
    White: 0.3134, 0.3291
  Established Timings I & II: none
  Standard Timings: none
  Detailed Timing Descriptors:
    DTD 1:  1920x1080   60.000000 Hz  16:9     67.200 kHz    147.840000 MHz (344 mm x 193 mm)
                 Hfront   48 Hsync  32 Hback  200 Hpol P
                 Vfront    3 Vsync   6 Vback   31 Vpol N
    Display Range Limits:
      Monitor ranges (Bare Limits): 40-60 Hz V, 67-67 kHz H, max dotclock 140 MHz
    Alphanumeric Data String: 'CSOT T9'
    Display Product Name: 'SNF601BS1-1'
Checksum: 0xd2
