edid-decode (hex):

00 ff ff ff ff ff ff 00 4e ae 8a 05 4d 4e 3c 01
30 0e 01 03 80 28 1e 78 e3 a5 f9 9f 54 47 98 24
11 48 4c ff ff 80 a9 4f 81 8f 81 90 71 90 81 c0
71 86 61 4f 81 80 48 3f 40 30 62 b0 32 40 40 c0
13 00 90 2c 11 00 00 1e 00 00 00 fd 00 32 a0 1e
8c 11 00 0a 20 20 20 20 20 20 00 00 00 fc 00 58
37 31 34 39 41 0a 20 20 20 20 20 20 00 00 00 ff
00 30 34 34 38 4d 4e 30 33 31 36 0a 20 20 00 07

00 ff ff ff ff ff ff 00 4e ae 8a 05 4d 4e 3c 01
30 0e 01 03 80 28 1e 78 e3 a5 f9 9f 54 47 98 24
11 48 4c ff ff 80 a9 4f 81 8f 81 90 71 90 81 c0
71 86 61 4f 81 80 48 3f 40 30 62 b0 32 40 40 c0
13 00 90 2c 11 00 00 1e 00 00 00 fd 00 32 a0 1e
8c 11 00 0a 20 20 20 20 20 20 00 00 00 fc 00 58
37 31 34 39 41 0a 20 20 20 20 20 20 00 00 00 ff
00 30 34 34 38 4d 4e 30 33 31 36 0a 20 20 00 07

----------------

Block 0, Base EDID:
  EDID Structure Version & Revision: 1.3
  Vendor & Product Identification:
    Manufacturer: SUN
    Model: 1418
    Serial Number: ...
    Made in: week 48 of 2004
  Basic Display Parameters & Features:
    Digital display
    Maximum image size: 40 cm x 30 cm
    Gamma: 2.20
    DPMS levels: Standby Suspend Off
    Monochrome or grayscale display
    First detailed timing is the preferred timing
    Supports GTF timings within operating range
  Color Characteristics:
    Red  : 0.6230, 0.3300
    Green: 0.2783, 0.5947
    Blue : 0.1435, 0.0693
    White: 0.2832, 0.2978
  Established Timings I & II:
    IBM     :   720x400    70.081663 Hz   9:5     31.467 kHz     28.320000 MHz
    IBM     :   720x400    87.849542 Hz   9:5     39.444 kHz     35.500000 MHz
    DMT 0x04:   640x480    59.940476 Hz   4:3     31.469 kHz     25.175000 MHz
    Apple   :   640x480    66.666667 Hz   4:3     35.000 kHz     30.240000 MHz
    DMT 0x05:   640x480    72.808802 Hz   4:3     37.861 kHz     31.500000 MHz
    DMT 0x06:   640x480    75.000000 Hz   4:3     37.500 kHz     31.500000 MHz
    DMT 0x08:   800x600    56.250000 Hz   4:3     35.156 kHz     36.000000 MHz
    DMT 0x09:   800x600    60.316541 Hz   4:3     37.879 kHz     40.000000 MHz
    DMT 0x0a:   800x600    72.187572 Hz   4:3     48.077 kHz     50.000000 MHz
    DMT 0x0b:   800x600    75.000000 Hz   4:3     46.875 kHz     49.500000 MHz
    Apple   :   832x624    74.551266 Hz   4:3     49.726 kHz     57.284000 MHz
    DMT 0x0f:  1024x768i   86.957532 Hz   4:3     35.522 kHz     44.900000 MHz
    DMT 0x10:  1024x768    60.003840 Hz   4:3     48.363 kHz     65.000000 MHz
    DMT 0x11:  1024x768    70.069359 Hz   4:3     56.476 kHz     75.000000 MHz
    DMT 0x12:  1024x768    75.028582 Hz   4:3     60.023 kHz     78.750000 MHz
    DMT 0x24:  1280x1024   75.024675 Hz   5:4     79.976 kHz    135.000000 MHz
    Apple   :  1152x870    75.061550 Hz 192:145   68.681 kHz    100.000000 MHz
  Standard Timings:
    DMT 0x36:  1600x1200   75.000000 Hz   4:3     93.750 kHz    202.500000 MHz
    DMT 0x24:  1280x1024   75.024675 Hz   5:4     79.976 kHz    135.000000 MHz
    GTF     :  1280x1024   75.999957 Hz   5:4     81.320 kHz    141.822000 MHz
    GTF     :  1152x921    76.000118 Hz   5:4     73.112 kHz    113.470000 MHz
    DMT 0x55:  1280x720    60.000000 Hz  16:9     45.000 kHz     74.250000 MHz
    GTF     :  1152x921    66.000114 Hz   5:4     63.162 kHz     97.017000 MHz
    DMT 0x12:  1024x768    75.028582 Hz   4:3     60.023 kHz     78.750000 MHz
    DMT 0x23:  1280x1024   60.019740 Hz   5:4     63.981 kHz    108.000000 MHz
  Detailed Timing Descriptors:
    DTD 1:  1600x1200   60.000000 Hz   4:3     75.000 kHz    162.000000 MHz (400 mm x 300 mm)
                 Hfront   64 Hsync 192 Hback  304 Hpol P
                 Vfront    1 Vsync   3 Vback   46 Vpol P
    Display Range Limits:
      Monitor ranges (GTF): 50-160 Hz V, 30-140 kHz H, max dotclock 170 MHz
    Display Product Name: 'X7149A'
    Display Product Serial Number: ...
Checksum: 0x07

----------------

Block 1, Unknown EDID Extension Block 0x00:
  00 ff ff ff ff ff ff 00 4e ae 8a 05 4d 4e 3c 01 '........N...MN<.'
  30 0e 01 03 80 28 1e 78 e3 a5 f9 9f 54 47 98 24 '0....(.x....TG.$'
  11 48 4c ff ff 80 a9 4f 81 8f 81 90 71 90 81 c0 '.HL....O....q...'
  71 86 61 4f 81 80 48 3f 40 30 62 b0 32 40 40 c0 'q.aO..H?@0b.2@@.'
  13 00 90 2c 11 00 00 1e 00 00 00 fd 00 32 a0 1e '...,.........2..'
  8c 11 00 0a 20 20 20 20 20 20 00 00 00 fc 00 58 '....      .....X'
  37 31 34 39 41 0a 20 20 20 20 20 20 00 00 00 ff '7149A.      ....'
  00 30 34 34 38 4d 4e 30 33 31 36 0a 20 20 00 07 '.0448MN0316.  ..'
Checksum: 0x07

----------------

Warnings:

Block 0, Base EDID:
  Standard Timings: Standard Timing 1152x921 has a dubious odd vertical resolution.
  Standard Timings: Standard Timing 1152x921 has a dubious odd vertical resolution.

Failures:

Block 1, Base EDID:
  Unknown Extension Block.
EDID:
  Base EDID: Some timings are out of range of the Monitor Ranges:
    Maximum Clock: 202.500 MHz (Monitor: 170.000 MHz)
  Base EDID: EDID specified 0 extension block(s), but found 1 extension block(s).

EDID conformity: FAIL
