edid-decode (hex):

00 ff ff ff ff ff ff 00 0e 11 95 13 cd 02 01 01
0d 0c 01 03 6e 24 1d 78 ea 93 b2 a6 57 48 a1 24
15 51 57 bd ef 80 81 80 81 99 61 59 45 59 31 59
01 01 01 01 01 01 30 2a 00 98 51 00 2a 40 30 70
13 00 68 22 11 00 00 1e 00 00 00 fd 00 3a 55 20
5b 10 00 0a 20 20 20 20 20 20 00 00 00 0d 00 02
00 38 05 fd 03 95 0d 1a 00 8a 01 ef 00 00 00 fc
00 43 50 51 20 54 46 54 38 30 33 30 0a 20 00 a6

00 ff ff ff ff ff ff 00 0e 11 95 13 cd 02 01 01
0d 0c 01 03 6e 24 1d 78 ea 93 b2 a6 57 48 a1 24
15 51 57 bd ef 80 81 80 81 99 61 59 45 59 31 59
01 01 01 01 01 01 30 2a 00 98 51 00 2a 40 30 70
13 00 68 22 11 00 00 1e 00 00 00 fd 00 3a 55 20
5b 10 00 0a 20 20 20 20 20 20 00 00 00 0d 00 02
00 38 05 fd 03 95 0d 1a 00 8a 01 ef 00 00 00 fc
00 43 50 51 20 54 46 54 38 30 33 30 0a 20 00 a6

----------------

Block 0, Base EDID:
  EDID Structure Version & Revision: 1.3
  Vendor & Product Identification:
    Manufacturer: CPQ
    Model: 5013
    Serial Number: ...
    Made in: week 13 of 2002
  Basic Display Parameters & Features:
    Analog display
    Signal Level Standard: 0.700 : 0.000 : 0.700 V p-p
    Blank level equals black level
    Sync: Separate Composite SyncOnGreen
    Maximum image size: 36 cm x 29 cm
    Gamma: 2.20
    DPMS levels: Standby Suspend Off
    RGB color display
    First detailed timing is the preferred timing
  Color Characteristics:
    Red  : 0.6503, 0.3408
    Green: 0.2812, 0.6318
    Blue : 0.1425, 0.0849
    White: 0.3164, 0.3417
  Established Timings I & II:
    IBM     :   720x400    70.081663 Hz   9:5     31.467 kHz     28.320000 MHz
    DMT 0x04:   640x480    59.940476 Hz   4:3     31.469 kHz     25.175000 MHz
    Apple   :   640x480    66.666667 Hz   4:3     35.000 kHz     30.240000 MHz
    DMT 0x05:   640x480    72.808802 Hz   4:3     37.861 kHz     31.500000 MHz
    DMT 0x06:   640x480    75.000000 Hz   4:3     37.500 kHz     31.500000 MHz
    DMT 0x09:   800x600    60.316541 Hz   4:3     37.879 kHz     40.000000 MHz
    DMT 0x0a:   800x600    72.187572 Hz   4:3     48.077 kHz     50.000000 MHz
    DMT 0x0b:   800x600    75.000000 Hz   4:3     46.875 kHz     49.500000 MHz
    Apple   :   832x624    74.551266 Hz   4:3     49.726 kHz     57.284000 MHz
    DMT 0x10:  1024x768    60.003840 Hz   4:3     48.363 kHz     65.000000 MHz
    DMT 0x11:  1024x768    70.069359 Hz   4:3     56.476 kHz     75.000000 MHz
    DMT 0x12:  1024x768    75.028582 Hz   4:3     60.023 kHz     78.750000 MHz
    DMT 0x24:  1280x1024   75.024675 Hz   5:4     79.976 kHz    135.000000 MHz
    Apple   :  1152x870    75.061550 Hz 192:145   68.681 kHz    100.000000 MHz
  Standard Timings:
    DMT 0x23:  1280x1024   60.019740 Hz   5:4     63.981 kHz    108.000000 MHz
    DMT 0x25:  1280x1024   85.024098 Hz   5:4     91.146 kHz    157.500000 MHz
    DMT 0x13:  1024x768    84.996690 Hz   4:3     68.677 kHz     94.500000 MHz
    DMT 0x0c:   800x600    85.061274 Hz   4:3     53.674 kHz     56.250000 MHz
    DMT 0x07:   640x480    85.008312 Hz   4:3     43.269 kHz     36.000000 MHz
  Detailed Timing Descriptors:
    DTD 1:  1280x1024   60.019740 Hz   5:4     63.981 kHz    108.000000 MHz (360 mm x 290 mm)
                 Hfront   48 Hsync 112 Hback  248 Hpol P
                 Vfront    1 Vsync   3 Vback   38 Vpol P
    Display Range Limits:
      Monitor ranges (GTF): 58-85 Hz V, 32-91 kHz H, max dotclock 160 MHz
    Manufacturer-Specified Display Descriptor (0x0d): 00 0d 00 02 00 38 05 fd 03 95 0d 1a 00 8a 01 ef '.....8..........'
    Display Product Name: 'CPQ TFT8030'
Checksum: 0xa6

----------------

Block 1, Unknown EDID Extension Block 0x00:
  00 ff ff ff ff ff ff 00 0e 11 95 13 cd 02 01 01 '................'
  0d 0c 01 03 6e 24 1d 78 ea 93 b2 a6 57 48 a1 24 '....n$.x....WH.$'
  15 51 57 bd ef 80 81 80 81 99 61 59 45 59 31 59 '.QW.......aYEY1Y'
  01 01 01 01 01 01 30 2a 00 98 51 00 2a 40 30 70 '......0*..Q.*@0p'
  13 00 68 22 11 00 00 1e 00 00 00 fd 00 3a 55 20 '..h".........:U '
  5b 10 00 0a 20 20 20 20 20 20 00 00 00 0d 00 02 '[...      ......'
  00 38 05 fd 03 95 0d 1a 00 8a 01 ef 00 00 00 fc '.8..............'
  00 43 50 51 20 54 46 54 38 30 33 30 0a 20 00 a6 '.CPQ TFT8030. ..'
Checksum: 0xa6

----------------

Warnings:

EDID:
  Base EDID: Some timings are out of range of the Monitor Ranges:
    Horizontal Freq: 31.466 - 91.145 kHz (Monitor: 32.000 - 91.000 kHz)
    Could be due to a Monitor Range off-by-one rounding issue

Failures:

Block 1, Base EDID:
  Unknown Extension Block.
EDID:
  Base EDID: EDID specified 0 extension block(s), but found 1 extension block(s).

EDID conformity: FAIL
