
EDID (hex):
00ffffffffffff002124000000000000
0c16010308784464e8a69ca15a4b9824
164c57afef80d1c00101010101010101
010101010101804380907238264078d0
130098321100001c401f009051001b30
40881700b9882100001c000000fd003a
3e1f50110000000000000000000000fc
004849443139323058313038305200af

Extracted contents:
header:          00 ff ff ff ff ff ff 00
serial number:   21 24 00 00 00 00 00 00 0c 16
version:         01 03
basic params:    08 78 44 64 e8
chroma info:     a6 9c a1 5a 4b 98 24 16 4c 57
established:     af ef 80
standard:        d1 c0 01 01 01 01 01 01 01 01 01 01 01 01 01 01
descriptor 1:    80 43 80 90 72 38 26 40 78 d0 13 00 98 32 11 00 00 1c
descriptor 2:    40 1f 00 90 51 00 1b 30 40 88 17 00 b9 88 21 00 00 1c
descriptor 3:    00 00 00 fd 00 3a 3e 1f 50 11 00 00 00 00 00 00 00 00
descriptor 4:    00 00 00 fc 00 48 49 44 31 39 32 30 58 31 30 38 30 52
extensions:      00
checksum:        af

EDID version: 1.3
Manufacturer: HID Model 0 Serial Number --
Made in week 12 of 2012
Analog display, Input voltage level: 0.7/0.3 V
Sync: Separate 
Maximum image size: 120 cm x 68 cm
Gamma: 2.00
DPMS levels: Standby Suspend Off
RGB color display
Display x,y Chromaticity:
  Red:   0.6308, 0.3535
  Green: 0.2939, 0.5957
  Blue:  0.1425, 0.0869
  White: 0.2998, 0.3398
Established timings supported:
  720x400@70Hz 9:5 HorFreq: 31469 Hz Clock: 28.320 MHz
  640x480@60Hz 4:3 HorFreq: 31469 Hz Clock: 25.175 MHz
  640x480@72Hz 4:3 HorFreq: 37900 Hz Clock: 31.500 MHz
  640x480@75Hz 4:3 HorFreq: 37500 Hz Clock: 31.500 MHz
  800x600@56Hz 4:3 HorFreq: 35200 Hz Clock: 36.000 MHz
  800x600@60Hz 4:3 HorFreq: 37900 Hz Clock: 40.000 MHz
  800x600@72Hz 4:3 HorFreq: 48100 Hz Clock: 50.000 MHz
  800x600@75Hz 4:3 HorFreq: 46900 Hz Clock: 49.500 MHz
  832x624@75Hz 4:3 HorFreq: 49726 Hz Clock: 57.284 MHz
  1024x768@60Hz 4:3 HorFreq: 48400 Hz Clock: 65.000 MHz
  1024x768@70Hz 4:3 HorFreq: 56500 Hz Clock: 75.000 MHz
  1024x768@75Hz 4:3 HorFreq: 60000 Hz Clock: 78.750 MHz
  1280x1024@75Hz 5:4 HorFreq: 80000 Hz Clock: 135.000 MHz
  1152x870@75Hz 192:145 HorFreq: 67500 Hz Clock: 108.000 MHz
Standard timings supported:
  1920x1080@60Hz 16:9
Detailed mode: Clock 172.800 MHz, 408 mm x 306 mm
               1920 2040 2248 2576 hborder 0
               1080 1081 1084 1118 vborder 0
               -hsync +vsync 
               VertFreq: 60 Hz, HorFreq: 67080 Hz
Detailed mode: Clock 80.000 MHz, 697 mm x 392 mm
               1280 1344 1480 1680 hborder 0
                768  769  776  795 vborder 0
               -hsync +vsync 
               VertFreq: 59 Hz, HorFreq: 47619 Hz
Monitor ranges (GTF): 58-62Hz V, 31-80kHz H, max dotclock 170MHz
Checksum: 0xaf (valid)
EDID block does NOT conform to EDID 1.3!
	Name descriptor not terminated with a newline
	Missing preferred timing
One or more of the timings is out of range of the Monitor Ranges:
  Vertical Freq: 56 - 75 Hz
  Horizontal Freq: 31469 - 80000 Hz
  Maximum Clock: 172.800 MHz
