
EDID (hex):
00ffffffffffff004dd9013501010101
0112010308a064780a8585a6574a9c26
125054a1080031404540614081c00101
0101010101019a29a0d0518422305098
360040e86300001c0e1f008051001e30
4080370040846300001c000000fd0039
3f1d390b000a202020202020000000fc
00534f4e592054560a202020202000b1

Extracted contents:
header:          00 ff ff ff ff ff ff 00
serial number:   4d d9 01 35 01 01 01 01 01 12
version:         01 03
basic params:    08 a0 64 78 0a
chroma info:     85 85 a6 57 4a 9c 26 12 50 54
established:     a1 08 00
standard:        31 40 45 40 61 40 81 c0 01 01 01 01 01 01 01 01
descriptor 1:    9a 29 a0 d0 51 84 22 30 50 98 36 00 40 e8 63 00 00 1c
descriptor 2:    0e 1f 00 80 51 00 1e 30 40 80 37 00 40 84 63 00 00 1c
descriptor 3:    00 00 00 fd 00 39 3f 1d 39 0b 00 0a 20 20 20 20 20 20
descriptor 4:    00 00 00 fc 00 53 4f 4e 59 20 54 56 0a 20 20 20 20 20
extensions:      00
checksum:        b1

EDID version: 1.3
Manufacturer: SNY Model 3501 Serial Number --
Made in week 1 of 2008
Analog display, Input voltage level: 0.7/0.3 V
Sync: Separate 
Maximum image size: 160 cm x 100 cm
Gamma: 2.20
RGB color display
First detailed timing is preferred timing
Display x,y Chromaticity:
  Red:   0.6503, 0.3398
  Green: 0.2900, 0.6103
  Blue:  0.1503, 0.0703
  White: 0.3134, 0.3291
Established timings supported:
  720x400@70Hz 9:5 HorFreq: 31469 Hz Clock: 28.320 MHz
  640x480@60Hz 4:3 HorFreq: 31469 Hz Clock: 25.175 MHz
  800x600@60Hz 4:3 HorFreq: 37900 Hz Clock: 40.000 MHz
  1024x768@60Hz 4:3 HorFreq: 48400 Hz Clock: 65.000 MHz
Standard timings supported:
  640x480@60Hz 4:3 HorFreq: 31469 Hz Clock: 25.175 MHz
  800x600@60Hz 4:3 HorFreq: 37900 Hz Clock: 40.000 MHz
  1024x768@60Hz 4:3 HorFreq: 48400 Hz Clock: 65.000 MHz
  1280x720@60Hz 16:9
Detailed mode: Clock 106.500 MHz, 1600 mm x 1000 mm
               1440 1520 1672 1904 hborder 0
                900  903  909  934 vborder 0
               -hsync +vsync 
               VertFreq: 59 Hz, HorFreq: 55934 Hz
Detailed mode: Clock 79.500 MHz, 1600 mm x 900 mm
               1280 1344 1472 1664 hborder 0
                768  771  778  798 vborder 0
               -hsync +vsync 
               VertFreq: 59 Hz, HorFreq: 47776 Hz
Monitor ranges (GTF): 57-63Hz V, 29-57kHz H, max dotclock 110MHz
Monitor name: SONY TV
Checksum: 0xb1 (valid)
One or more of the timings is out of range of the Monitor Ranges:
  Vertical Freq: 59 - 70 Hz
  Horizontal Freq: 31469 - 55934 Hz
  Maximum Clock: 106.500 MHz
