edid-decode (hex):

00 ff ff ff ff ff ff 00 30 e4 e9 01 00 00 00 00
00 13 01 03 80 23 13 78 0a 08 d5 9f 5a 50 96 25
1e 50 54 00 00 00 01 01 01 01 01 01 01 01 01 01
01 01 01 01 01 01 c9 5e 80 a0 70 38 1f 40 30 20
35 00 e0 0e 11 00 00 18 4c 63 80 a0 70 38 1f 40
30 20 35 00 e0 0e 11 00 00 18 d0 67 80 a0 70 38
1f 40 30 20 35 00 e0 0e 11 00 00 18 00 00 00 10
00 00 00 00 00 00 00 00 00 00 00 00 00 00 00 a0

----------------

Block 0, Base EDID:
  EDID Structure Version & Revision: 1.3
  Vendor & Product Identification:
    Manufacturer: LGD
    Model: 489
    Made in: 2009
  Basic Display Parameters & Features:
    Digital display
    Maximum image size: 35 cm x 19 cm
    Gamma: 2.20
    RGB color display
    First detailed timing is the preferred timing
  Color Characteristics:
    Red  : 0.6210, 0.3515
    Green: 0.3144, 0.5859
    Blue : 0.1474, 0.1181
    White: 0.3134, 0.3291
  Established Timings I & II: none
  Standard Timings: none
  Detailed Timing Descriptors:
    DTD 1:  1920x1080  105.003289 Hz  16:9    116.659 kHz    242.650000 MHz (480 mm x 270 mm)
                 Hfront   48 Hsync  32 Hback   80 Hpol N
                 Vfront    3 Vsync   5 Vback   23 Vpol N
    DTD 2:  1920x1080  110.001385 Hz  16:9    122.212 kHz    254.200000 MHz (480 mm x 270 mm)
                 Hfront   48 Hsync  32 Hback   80 Hpol N
                 Vfront    3 Vsync   5 Vback   23 Vpol N
    DTD 3:  1920x1080  115.003808 Hz  16:9    127.769 kHz    265.760000 MHz (480 mm x 270 mm)
                 Hfront   48 Hsync  32 Hback   80 Hpol N
                 Vfront    3 Vsync   5 Vback   23 Vpol N
    Dummy Descriptor:
Checksum: 0xa0

----------------

Failures:

Block 0, Base EDID:
  Detailed Timing Descriptor #1: Mismatch of image size 480x270 mm vs display size 350x190 mm.
  Detailed Timing Descriptor #2: Mismatch of image size 480x270 mm vs display size 350x190 mm.
  Detailed Timing Descriptor #3: Mismatch of image size 480x270 mm vs display size 350x190 mm.
  Missing Display Product Name.
  Missing Display Range Limits Descriptor.
EDID:
  Base EDID: The DTD max image size is 480x270mm, which is larger than the display size 350.0x190.0mm.

EDID conformity: FAIL
