
EDID (hex):
00ffffffffffff003870610000000000
011f0104a51e137802ee95a3544c9926
0f505400000001010101010101010101
010101010101f46900a0a0403e603020
35002ebd1000001ac35400a0a0403e60
302035002ebd1000001a000000fe0043
45432050410a202020202020000000fe
004c4d31343047462d324c30310a0049

Extracted contents:
header:          00 ff ff ff ff ff ff 00
serial number:   38 70 61 00 00 00 00 00 01 1f
version:         01 04
basic params:    a5 1e 13 78 02
chroma info:     ee 95 a3 54 4c 99 26 0f 50 54
established:     00 00 00
standard:        01 01 01 01 01 01 01 01 01 01 01 01 01 01 01 01
descriptor 1:    f4 69 00 a0 a0 40 3e 60 30 20 35 00 2e bd 10 00 00 1a
descriptor 2:    c3 54 00 a0 a0 40 3e 60 30 20 35 00 2e bd 10 00 00 1a
descriptor 3:    00 00 00 fe 00 43 45 43 20 50 41 0a 20 20 20 20 20 20
descriptor 4:    00 00 00 fe 00 4c 4d 31 34 30 47 46 2d 32 4c 30 31 0a
extensions:      00
checksum:        49

EDID version: 1.4
Manufacturer: NCP Model 61 Serial Number --
Made in week 1 of 2021
Digital display
8 bits per primary color channel
DisplayPort interface
Maximum image size: 30 cm x 19 cm
Gamma: 2.20
Supported color formats: RGB 4:4:4
First detailed timing includes the native pixel format and preferred refresh rate
Display x,y Chromaticity:
  Red:   0.6396, 0.3300
  Green: 0.2998, 0.5996
  Blue:  0.1503, 0.0595
  White: 0.3134, 0.3291
Established timings supported:
Standard timings supported:
Detailed mode: Clock 271.240 MHz, 302 mm x 189 mm
               2560 2608 2640 2720 hborder 0
               1600 1603 1608 1662 vborder 0
               +hsync -vsync 
               VertFreq: 60 Hz, HorFreq: 99720 Hz
Detailed mode: Clock 216.990 MHz, 302 mm x 189 mm
               2560 2608 2640 2720 hborder 0
               1600 1603 1608 1662 vborder 0
               +hsync -vsync 
               VertFreq: 47 Hz, HorFreq: 79775 Hz
ASCII string: CEC PA
ASCII string: LM140GF-2L01
Checksum: 0x49 (valid)
EDID block does NOT conform to EDID 1.4!
	Missing name descriptor
	Missing monitor ranges
