
EDID (hex):
00ffffffffffff004293cb07ce090000
28110104a5291a7822d6a5a2594a9524
1450542dce0095000101010101010101
0101010101019a29a0d0518422305098
36009a001100001a000000fd003c4b1f
3c0b000a202020202020000000fc0046
4c582d313931300a20202020000000ff
00303138423035303030323531300009

Extracted contents:
header:          00 ff ff ff ff ff ff 00
serial number:   42 93 cb 07 ce 09 00 00 28 11
version:         01 04
basic params:    a5 29 1a 78 22
chroma info:     d6 a5 a2 59 4a 95 24 14 50 54
established:     2d ce 00
standard:        95 00 01 01 01 01 01 01 01 01 01 01 01 01 01 01
descriptor 1:    9a 29 a0 d0 51 84 22 30 50 98 36 00 9a 00 11 00 00 1a
descriptor 2:    00 00 00 fd 00 3c 4b 1f 3c 0b 00 0a 20 20 20 20 20 20
descriptor 3:    00 00 00 fc 00 46 4c 58 2d 31 39 31 30 0a 20 20 20 20
descriptor 4:    00 00 00 ff 00 30 31 38 42 30 35 30 30 30 32 35 31 30
extensions:      00
checksum:        09

EDID version: 1.4
Manufacturer: PTS Model 7cb Serial Number --
Made in week 40 of 2007
Digital display
8 bits per primary color channel
DisplayPort interface
Maximum image size: 41 cm x 26 cm
Gamma: 2.20
DPMS levels: Off
Supported color formats: RGB 4:4:4
First detailed timing includes the native pixel format and preferred refresh rate
Display x,y Chromaticity:
  Red:   0.6357, 0.3486
  Green: 0.2900, 0.5839
  Blue:  0.1425, 0.0800
  White: 0.3134, 0.3291
Established timings supported:
  640x480@60Hz 4:3 HorFreq: 31469 Hz Clock: 25.175 MHz
  640x480@72Hz 4:3 HorFreq: 37900 Hz Clock: 31.500 MHz
  640x480@75Hz 4:3 HorFreq: 37500 Hz Clock: 31.500 MHz
  800x600@60Hz 4:3 HorFreq: 37900 Hz Clock: 40.000 MHz
  800x600@72Hz 4:3 HorFreq: 48100 Hz Clock: 50.000 MHz
  800x600@75Hz 4:3 HorFreq: 46900 Hz Clock: 49.500 MHz
  1024x768@60Hz 4:3 HorFreq: 48400 Hz Clock: 65.000 MHz
  1024x768@70Hz 4:3 HorFreq: 56500 Hz Clock: 75.000 MHz
  1024x768@75Hz 4:3 HorFreq: 60000 Hz Clock: 78.750 MHz
Standard timings supported:
  1440x900@60Hz 16:10 HorFreq: 55500 Hz Clock: 88.750 MHz
Detailed mode: Clock 106.500 MHz, 410 mm x 256 mm
               1440 1520 1672 1904 hborder 0
                900  903  909  934 vborder 0
               +hsync -vsync 
               VertFreq: 59 Hz, HorFreq: 55934 Hz
Monitor ranges (GTF): 60-75Hz V, 31-60kHz H, max dotclock 110MHz
Monitor name: FLX-1910
Serial number: --
Checksum: 0x9 (valid)
Warning: One or more of the timings is out of range of the Monitor Ranges:
  Vertical Freq: 59 - 75 Hz
  Horizontal Freq: 31469 - 60000 Hz
  Maximum Clock: 106.500 MHz
