
EDID (hex):
00ffffffffffff0006afd41200000000
00170104a0160e780200040000000000
00535b00000001010101010101010101
010101010101d219005050200a301414
3300d887000000180000000f00000000
00000000000000000020000000fe0041
554f0a202020202020202020000000fe
004231303145414e30312e32200a00cb

Extracted contents:
header:          00 ff ff ff ff ff ff 00
serial number:   06 af d4 12 00 00 00 00 00 17
version:         01 04
basic params:    a0 16 0e 78 02
chroma info:     00 04 00 00 00 00 00 00 53 5b
established:     00 00 00
standard:        01 01 01 01 01 01 01 01 01 01 01 01 01 01 01 01
descriptor 1:    d2 19 00 50 50 20 0a 30 14 14 33 00 d8 87 00 00 00 18
descriptor 2:    00 00 00 0f 00 00 00 00 00 00 00 00 00 00 00 00 00 20
descriptor 3:    00 00 00 fe 00 41 55 4f 0a 20 20 20 20 20 20 20 20 20
descriptor 4:    00 00 00 fe 00 42 31 30 31 45 41 4e 30 31 2e 32 20 0a
extensions:      00
checksum:        cb

EDID version: 1.4
Manufacturer: AUO Model 12d4 Serial Number --
Made in year 2013
Digital display
8 bits per primary color channel
Digital interface is not defined
Maximum image size: 22 cm x 14 cm
Gamma: 2.20
Supported color formats: RGB 4:4:4
First detailed timing includes the native pixel format and preferred refresh rate
Display x,y Chromaticity:
  Red:   0.0000, 0.0000
  Green: 0.0000, 0.0000
  Blue:  0.0000, 0.0000
  White: 0.3251, 0.3554
Established timings supported:
Standard timings supported:
Detailed mode: Clock 66.100 MHz, 216 mm x 135 mm
               1280 1300 1320 1360 hborder 0
                800  803  806  810 vborder 0
               -hsync -vsync 
               VertFreq: 60 Hz, HorFreq: 48602 Hz
Manufacturer-specified data, tag 15
ASCII string: AUO
ASCII string: B101EAN01.2 
Checksum: 0xcb (valid)
EDID block does NOT conform to EDID 1.4!
	Missing name descriptor
	Missing monitor ranges
