
EDID (hex):
00ffffffffffff0004693129cb9e0100
031a010381431c782aca95a6554ea126
0f5054b7ef00d1c0b300950081808140
81c08100714fcd4600a0a0381f403020
3a00a11c2100001a000000ff0047314c
4d54463130363138370a000000fd0018
4c1a5318000a202020202020000000fc
0041535553204d583239390a2020005b

Extracted contents:
header:          00 ff ff ff ff ff ff 00
serial number:   04 69 31 29 cb 9e 01 00 03 1a
version:         01 03
basic params:    81 43 1c 78 2a
chroma info:     ca 95 a6 55 4e a1 26 0f 50 54
established:     b7 ef 00
standard:        d1 c0 b3 00 95 00 81 80 81 40 81 c0 81 00 71 4f
descriptor 1:    cd 46 00 a0 a0 38 1f 40 30 20 3a 00 a1 1c 21 00 00 1a
descriptor 2:    00 00 00 ff 00 47 31 4c 4d 54 46 31 30 36 31 38 37 0a
descriptor 3:    00 00 00 fd 00 18 4c 1a 53 18 00 0a 20 20 20 20 20 20
descriptor 4:    00 00 00 fc 00 41 53 55 53 20 4d 58 32 39 39 0a 20 20
extensions:      00
checksum:        5b

EDID version: 1.3
Manufacturer: ACI Model 2931 Serial Number --
Made in week 3 of 2016
Digital display
DFP 1.x compatible TMDS
Maximum image size: 67 cm x 28 cm
Gamma: 2.20
DPMS levels: Off
RGB color display
First detailed timing is preferred timing
Display x,y Chromaticity:
  Red:   0.6513, 0.3320
  Green: 0.3066, 0.6308
  Blue:  0.1503, 0.0595
  White: 0.3134, 0.3291
Established timings supported:
  720x400@70Hz 9:5 HorFreq: 31469 Hz Clock: 28.320 MHz
  640x480@60Hz 4:3 HorFreq: 31469 Hz Clock: 25.175 MHz
  640x480@67Hz 4:3 HorFreq: 35000 Hz Clock: 30.240 MHz
  640x480@75Hz 4:3 HorFreq: 37500 Hz Clock: 31.500 MHz
  800x600@56Hz 4:3 HorFreq: 35200 Hz Clock: 36.000 MHz
  800x600@60Hz 4:3 HorFreq: 37900 Hz Clock: 40.000 MHz
  800x600@72Hz 4:3 HorFreq: 48100 Hz Clock: 50.000 MHz
  800x600@75Hz 4:3 HorFreq: 46900 Hz Clock: 49.500 MHz
  832x624@75Hz 4:3 HorFreq: 49726 Hz Clock: 57.284 MHz
  1024x768@60Hz 4:3 HorFreq: 48400 Hz Clock: 65.000 MHz
  1024x768@70Hz 4:3 HorFreq: 56500 Hz Clock: 75.000 MHz
  1024x768@75Hz 4:3 HorFreq: 60000 Hz Clock: 78.750 MHz
  1280x1024@75Hz 5:4 HorFreq: 80000 Hz Clock: 135.000 MHz
Standard timings supported:
  1920x1080@60Hz 16:9
  1680x1050@60Hz 16:10 HorFreq: 64700 Hz Clock: 119.000 MHz
  1440x900@60Hz 16:10 HorFreq: 55500 Hz Clock: 88.750 MHz
  1280x1024@60Hz 5:4 HorFreq: 64000 Hz Clock: 108.000 MHz
  1280x960@60Hz 4:3 HorFreq: 60000 Hz Clock: 108.000 MHz
  1280x720@60Hz 16:9
  1280x800@60Hz 16:10
  1152x864@75Hz 4:3 HorFreq: 67500 Hz Clock: 108.000 MHz
Detailed mode: Clock 181.250 MHz, 673 mm x 284 mm
               2560 2608 2640 2720 hborder 0
               1080 1083 1093 1111 vborder 0
               +hsync -vsync 
               VertFreq: 59 Hz, HorFreq: 66636 Hz
Serial number: --
Monitor ranges (GTF): 24-76Hz V, 26-83kHz H, max dotclock 240MHz
Monitor name: ASUS MX299
Checksum: 0x5b (valid)
