
EDID (hex):
00ffffffffffff0030e4d30300000000
00170104901f117802fc459558559228
20505400000001010101010101010101
010101010101262f40f061843c30a060
350035ae1000001a0000000000000000
00000000000000000000000000fe004a
5930444b803134305744320a00000000
000041319e0010000002010a202000e4

Extracted contents:
header:          00 ff ff ff ff ff ff 00
serial number:   30 e4 d3 03 00 00 00 00 00 17
version:         01 04
basic params:    90 1f 11 78 02
chroma info:     fc 45 95 58 55 92 28 20 50 54
established:     00 00 00
standard:        01 01 01 01 01 01 01 01 01 01 01 01 01 01 01 01
descriptor 1:    26 2f 40 f0 61 84 3c 30 a0 60 35 00 35 ae 10 00 00 1a
descriptor 2:    00 00 00 00 00 00 00 00 00 00 00 00 00 00 00 00 00 00
descriptor 3:    00 00 00 fe 00 4a 59 30 44 4b 80 31 34 30 57 44 32 0a
descriptor 4:    00 00 00 00 00 00 41 31 9e 00 10 00 00 02 01 0a 20 20
extensions:      00
checksum:        e4

EDID version: 1.4
Manufacturer: LGD Model 3d3 Serial Number --
Made in year 2013
Digital display
6 bits per primary color channel
Digital interface is not defined
Maximum image size: 31 cm x 17 cm
Gamma: 2.20
Supported color formats: RGB 4:4:4
First detailed timing includes the native pixel format and preferred refresh rate
Display x,y Chromaticity:
  Red:   0.5849, 0.3466
  Green: 0.3349, 0.5703
  Blue:  0.1572, 0.1250
  White: 0.3134, 0.3291
Established timings supported:
Standard timings supported:
Detailed mode: Clock 120.700 MHz, 309 mm x 174 mm
               1600 1760 1856 2096 hborder 0
                900  903  908  960 vborder 0
               +hsync -vsync 
               VertFreq: 59 Hz, HorFreq: 57585 Hz
Manufacturer-specified data, tag 0
ASCII string: JY0DK
Manufacturer-specified data, tag 0
Checksum: 0xe4 (valid)
EDID block does NOT conform to EDID 1.4!
	Missing name descriptor
	Missing monitor ranges
	Detailed block string not properly terminated
