edid-decode (hex):

00 ff ff ff ff ff ff 00 4d 10 42 15 00 00 00 00
0a 1f 01 04 95 1f 11 78 00 3a a0 97 5a 58 8b 27
19 50 54 00 00 00 01 01 01 01 01 01 01 01 01 01
01 01 01 01 01 01 1a 36 80 a0 70 38 1e 40 30 20
35 00 35 ae 10 00 00 18 48 2b 80 a0 70 38 1e 40
30 20 35 00 35 ae 10 00 00 18 00 00 00 fe 00 58
57 58 52 59 80 4c 51 31 34 30 4d 31 00 00 00 00
00 00 41 03 19 00 10 00 00 0a 01 0a 20 20 00 74

----------------

Block 0, Base EDID:
  EDID Structure Version & Revision: 1.4
  Vendor & Product Identification:
    Manufacturer: SHP
    Model: 5442
    Made in: week 10 of 2021
  Basic Display Parameters & Features:
    Digital display
    Bits per primary color channel: 6
    DisplayPort interface
    Maximum image size: 31 cm x 17 cm
    Gamma: 2.20
    Supported color formats: RGB 4:4:4
    First detailed timing does not include the native pixel format and preferred refresh rate
  Color Characteristics:
    Red  : 0.5898, 0.3544
    Green: 0.3457, 0.5449
    Blue : 0.1542, 0.0996
    White: 0.3125, 0.3281
  Established Timings I & II: none
  Standard Timings: none
  Detailed Timing Descriptors:
    DTD 1:  1920x1080   59.987872 Hz  16:9     66.587 kHz    138.500000 MHz (309 mm x 174 mm)
                 Hfront   48 Hsync  32 Hback   80 Hpol N
                 Vfront    3 Vsync   5 Vback   22 Vpol N
    DTD 2:  1920x1080   47.990298 Hz  16:9     53.269 kHz    110.800000 MHz (309 mm x 174 mm)
                 Hfront   48 Hsync  32 Hback   80 Hpol N
                 Vfront    3 Vsync   5 Vback   22 Vpol N
    Alphanumeric Data String: 'XWXRY'
    Manufacturer-Specified Display Descriptor (0x00): 00 00 00 00 41 03 19 00 10 00 00 0a 01 0a 20 20 '....A.........  '
Checksum: 0x74

----------------

Warnings:

Block 0, Base EDID:
  Missing Display Product Name.

Failures:

Block 0, Base EDID:
  Alphanumeric Data String: Non-printable character.

EDID conformity: FAIL
