
EDID (hex):
00ffffffffffff0004720821180a1063
1f1a0103800000780a24f9a4595b9225
104f583fcf80317c457c617c81c08180
81009500d1c0a00f200031581c202880
140000000000001e000000fd0017780f
6611000a202020202020000000fc0050
313138350a20202020202020000000ff
004a4c383131303031383430300a0108
020329f14d0602151104130514901f20
212223091707830100006a030c001000
3828208000e30503018c0ad08a20e02d
10103e9600138e21000018011d007251
d01e206e285500c48e2100001e011d80
18711c1620582c2500c48e2100009e02
3a801871382d40582c4500c48e210000
1e000000000000000000000000000014

Extracted contents:
header:          00 ff ff ff ff ff ff 00
serial number:   04 72 08 21 18 0a 10 63 1f 1a
version:         01 03
basic params:    80 00 00 78 0a
chroma info:     24 f9 a4 59 5b 92 25 10 4f 58
established:     3f cf 80
standard:        31 7c 45 7c 61 7c 81 c0 81 80 81 00 95 00 d1 c0
descriptor 1:    a0 0f 20 00 31 58 1c 20 28 80 14 00 00 00 00 00 00 1e
descriptor 2:    00 00 00 fd 00 17 78 0f 66 11 00 0a 20 20 20 20 20 20
descriptor 3:    00 00 00 fc 00 50 31 31 38 35 0a 20 20 20 20 20 20 20
descriptor 4:    00 00 00 ff 00 4a 4c 38 31 31 30 30 31 38 34 30 30 0a
extensions:      01
checksum:        08

EDID version: 1.3
Manufacturer: ACR Model 2108 Serial Number --
Made in week 31 of 2016
Digital display
Image size is variable
Gamma: 2.20
RGB color display
First detailed timing is preferred timing
Display x,y Chromaticity:
  Red:   0.6406, 0.3496
  Green: 0.3564, 0.5703
  Blue:  0.1474, 0.0654
  White: 0.3105, 0.3447
Established timings supported:
  640x480@60Hz 4:3 HorFreq: 31469 Hz Clock: 25.175 MHz
  640x480@67Hz 4:3 HorFreq: 35000 Hz Clock: 30.240 MHz
  640x480@72Hz 4:3 HorFreq: 37900 Hz Clock: 31.500 MHz
  640x480@75Hz 4:3 HorFreq: 37500 Hz Clock: 31.500 MHz
  800x600@56Hz 4:3 HorFreq: 35200 Hz Clock: 36.000 MHz
  800x600@60Hz 4:3 HorFreq: 37900 Hz Clock: 40.000 MHz
  800x600@72Hz 4:3 HorFreq: 48100 Hz Clock: 50.000 MHz
  800x600@75Hz 4:3 HorFreq: 46900 Hz Clock: 49.500 MHz
  1024x768@60Hz 4:3 HorFreq: 48400 Hz Clock: 65.000 MHz
  1024x768@70Hz 4:3 HorFreq: 56500 Hz Clock: 75.000 MHz
  1024x768@75Hz 4:3 HorFreq: 60000 Hz Clock: 78.750 MHz
  1280x1024@75Hz 5:4 HorFreq: 80000 Hz Clock: 135.000 MHz
  1152x870@75Hz 192:145 HorFreq: 67500 Hz Clock: 108.000 MHz
Standard timings supported:
  640x480@120Hz 4:3
  800x600@120Hz 4:3
  1024x768@120Hz 4:3
  1280x720@60Hz 16:9
  1280x1024@60Hz 5:4 HorFreq: 64000 Hz Clock: 108.000 MHz
  1280x800@60Hz 16:10
  1440x900@60Hz 16:10 HorFreq: 55500 Hz Clock: 88.750 MHz
  1920x1080@60Hz 16:9
Detailed mode: Clock 40.000 MHz, 0 mm x 0 mm
                800  840  968 1056 hborder 0
                600  601  605  628 vborder 0
               +hsync +vsync 
               VertFreq: 60 Hz, HorFreq: 37878 Hz
Monitor ranges (GTF): 23-120Hz V, 15-102kHz H, max dotclock 170MHz
Monitor name: P1185
Serial number: --
Has 1 extension blocks
Checksum: 0x8 (valid)

CTA extension block
Extension version: 3
37 bytes of CTA data
  Video data block
    VIC   6 1440x480i@60Hz 4:3  HorFreq: 15734 Hz Clock: 27.000 MHz
    VIC   2 720x480@60Hz 4:3  HorFreq: 31469 Hz Clock: 27.000 MHz
    VIC  21 1440x576i@50Hz 4:3  HorFreq: 15625 Hz Clock: 27.000 MHz
    VIC  17 720x576@50Hz 4:3  HorFreq: 31250 Hz Clock: 27.000 MHz
    VIC   4 1280x720@60Hz 16:9  HorFreq: 45000 Hz Clock: 74.250 MHz
    VIC  19 1280x720@50Hz 16:9  HorFreq: 37500 Hz Clock: 74.250 MHz
    VIC   5 1920x1080i@60Hz 16:9  HorFreq: 33750 Hz Clock: 74.250 MHz
    VIC  20 1920x1080i@50Hz 16:9  HorFreq: 28125 Hz Clock: 74.250 MHz
    VIC  16 1920x1080@60Hz 16:9 (native) HorFreq: 67500 Hz Clock: 148.500 MHz
    VIC  31 1920x1080@50Hz 16:9  HorFreq: 56250 Hz Clock: 148.500 MHz
    VIC  32 1920x1080@24Hz 16:9  HorFreq: 27000 Hz Clock: 74.250 MHz
    VIC  33 1920x1080@25Hz 16:9  HorFreq: 28125 Hz Clock: 74.250 MHz
    VIC  34 1920x1080@30Hz 16:9  HorFreq: 33750 Hz Clock: 74.250 MHz
  Audio data block
    Linear PCM, max channels 2
      Supported sample rates (kHz): 96 48 44.1 32
      Supported sample sizes (bits): 24 20 16
  Speaker allocation data block
    Speaker map:
      FL/FR - Front Left/Right
  Vendor-specific data block, OUI 000c03 (HDMI)
    Source physical address 1.0.0.0
    DC_36bit
    DC_30bit
    DC_Y444
    Maximum TMDS clock: 200MHz
    Extended HDMI video details:
      3D present
  Extended tag: Colorimetry data block
    xvYCC601
    xvYCC709
Underscans PC formats by default
Basic audio support
Supports YCbCr 4:4:4
Supports YCbCr 4:2:2
1 native detailed modes
Detailed mode: Clock 27.000 MHz, 531 mm x 398 mm
                720  736  798  858 hborder 0
                480  489  495  525 vborder 0
               -hsync -vsync 
               VertFreq: 59 Hz, HorFreq: 31468 Hz
Detailed mode: Clock 74.250 MHz, 708 mm x 398 mm
               1280 1390 1430 1650 hborder 0
                720  725  730  750 vborder 0
               +hsync +vsync 
               VertFreq: 60 Hz, HorFreq: 45000 Hz
Detailed mode: Clock 74.250 MHz, 708 mm x 398 mm
               1920 2008 2052 2200 hborder 0
                540  542  547  562 vborder 0
               +hsync +vsync interlaced 
               VertFreq: 60 Hz, HorFreq: 33750 Hz
Detailed mode: Clock 148.500 MHz, 708 mm x 398 mm
               1920 2008 2052 2200 hborder 0
               1080 1084 1089 1125 vborder 0
               +hsync +vsync 
               VertFreq: 60 Hz, HorFreq: 67500 Hz
Checksum: 0x14 (valid)

EDID block does not conform at all!
	Both the serial number and the serial string are set
