edid-decode (hex):

00 ff ff ff ff ff ff 00 38 a3 b4 a4 01 01 01 01
1c 0e 01 03 0e 5c 34 78 ea 00 e5 a0 5a 27 ba 25
17 42 4e bf ef 80 81 80 a9 40 01 01 01 01 01 01
01 01 01 01 01 01 2f 0d 50 f0 30 e0 25 10 10 70
68 00 94 06 32 00 00 1e 66 21 50 b0 51 00 1b 30
40 70 36 00 99 06 32 00 00 1e 00 00 00 fd 00 32
78 18 6c 17 00 0a 20 20 20 20 20 20 00 00 00 fc
00 50 58 2d 34 32 56 52 35 0a 20 20 20 20 00 bc

----------------

Block 0, Base EDID:
  EDID Structure Version & Revision: 1.3
  Vendor & Product Identification:
    Manufacturer: NEC
    Model: 42164
    Serial Number: ...
    Made in: week 28 of 2004
  Basic Display Parameters & Features:
    Analog display
    Input voltage level: 0.7/0.3 V
    Sync: Separate Composite SyncOnGreen
    Maximum image size: 92 cm x 52 cm
    Gamma: 2.20
    DPMS levels: Standby Suspend Off
    RGB color display
    First detailed timing is preferred timing
  Color Characteristics:
    Red  : 0.6250, 0.3515
    Green: 0.1523, 0.7265
    Blue : 0.1474, 0.0917
    White: 0.2587, 0.3056
  Established Timings I & II:
    IBM     :   720x400    70.082 Hz   9:5    31.467 kHz  28.320 MHz
    DMT 0x04:   640x480    59.940 Hz   4:3    31.469 kHz  25.175 MHz
    Apple   :   640x480    66.667 Hz   4:3    35.000 kHz  30.240 MHz
    DMT 0x05:   640x480    72.809 Hz   4:3    37.861 kHz  31.500 MHz
    DMT 0x06:   640x480    75.000 Hz   4:3    37.500 kHz  31.500 MHz
    DMT 0x08:   800x600    56.250 Hz   4:3    35.156 kHz  36.000 MHz
    DMT 0x09:   800x600    60.317 Hz   4:3    37.879 kHz  40.000 MHz
    DMT 0x0a:   800x600    72.188 Hz   4:3    48.077 kHz  50.000 MHz
    DMT 0x0b:   800x600    75.000 Hz   4:3    46.875 kHz  49.500 MHz
    Apple   :   832x624    74.551 Hz   4:3    49.726 kHz  57.284 MHz
    DMT 0x10:  1024x768    60.004 Hz   4:3    48.363 kHz  65.000 MHz
    DMT 0x11:  1024x768    70.069 Hz   4:3    56.476 kHz  75.000 MHz
    DMT 0x12:  1024x768    75.029 Hz   4:3    60.023 kHz  78.750 MHz
    DMT 0x24:  1280x1024   75.025 Hz   5:4    79.976 kHz 135.000 MHz
    Apple   :  1152x870    75.062 Hz 192:145  68.681 kHz 100.000 MHz
  Standard Timings:
    DMT 0x23:  1280x1024   60.020 Hz   5:4    63.981 kHz 108.000 MHz
    DMT 0x33:  1600x1200   60.000 Hz   4:3    75.000 kHz 162.000 MHz
  Detailed Timing Descriptors:
    DTD 1:   848x480    60.000 Hz  53:30   31.020 kHz  33.750 MHz (916 mm x 518 mm)
                 Hfront   16 Hsync 112 Hback 112 Hpol P
                 Vfront    6 Vsync   8 Vback  23 Vpol P
    DTD 2:  1360x768    60.015 Hz  85:48   47.712 kHz  85.500 MHz (921 mm x 518 mm)
                 Hfront   64 Hsync 112 Hback 256 Hpol P
                 Vfront    3 Vsync   6 Vback  18 Vpol P
  Display Range Limits:
    Monitor ranges (GTF): 50-120 Hz V, 24-108 kHz H, max dotclock 230 MHz
    Display Product Name: 'PX-42VR5'
Checksum: 0xbc
