
EDID (hex):
00ffffffffffff0030e4720300000000
00160104902615780257259a5b589c27
1a505400000001010101010101010101
010101010101262a4040618424303020
35007ed710000019131c404061842430
302035007ed710000019000000000000
00000000000000000000000000000002
000c47ff0a3c6421263b6400000000e8

Extracted contents:
header:          00 ff ff ff ff ff ff 00
serial number:   30 e4 72 03 00 00 00 00 00 16
version:         01 04
basic params:    90 26 15 78 02
chroma info:     57 25 9a 5b 58 9c 27 1a 50 54
established:     00 00 00
standard:        01 01 01 01 01 01 01 01 01 01 01 01 01 01 01 01
descriptor 1:    26 2a 40 40 61 84 24 30 30 20 35 00 7e d7 10 00 00 19
descriptor 2:    13 1c 40 40 61 84 24 30 30 20 35 00 7e d7 10 00 00 19
descriptor 3:    00 00 00 00 00 00 00 00 00 00 00 00 00 00 00 00 00 00
descriptor 4:    00 00 00 02 00 0c 47 ff 0a 3c 64 21 26 3b 64 00 00 00
extensions:      00
checksum:        e8

EDID version: 1.4
Manufacturer: LGD Model 372 Serial Number --
Made in year 2012
Digital display
6 bits per primary color channel
Digital interface is not defined
Maximum image size: 38 cm x 21 cm
Gamma: 2.20
Supported color formats: RGB 4:4:4
First detailed timing includes the native pixel format and preferred refresh rate
Display x,y Chromaticity:
  Red:   0.6025, 0.3564
  Green: 0.3447, 0.6123
  Blue:  0.1523, 0.1035
  White: 0.3134, 0.3291
Established timings supported:
Standard timings supported:
Detailed mode: Clock 107.900 MHz, 382 mm x 215 mm
               1600 1648 1680 1920 hborder 0
                900  903  908  936 vborder 0
               -hsync -vsync 
               VertFreq: 60 Hz, HorFreq: 56197 Hz
Detailed mode: Clock 71.870 MHz, 382 mm x 215 mm
               1600 1648 1680 1920 hborder 0
                900  903  908  936 vborder 0
               -hsync -vsync 
               VertFreq: 39 Hz, HorFreq: 37432 Hz
Manufacturer-specified data, tag 0
Manufacturer-specified data, tag 2
Checksum: 0xe8 (valid)
EDID block does NOT conform to EDID 1.4!
	Missing name descriptor
	Missing monitor ranges
