edid-decode (hex):

00 ff ff ff ff ff ff 00 09 e5 f5 05 00 00 00 00
01 1e 01 04 95 1c 10 78 0a b0 90 97 58 54 92 26
1d 50 54 00 00 00 01 01 01 01 01 01 01 01 01 01
01 01 01 01 01 01 64 1b 56 77 50 00 13 30 30 20
44 00 15 9c 10 00 00 1a 84 17 56 80 51 00 5c 30
64 64 44 05 15 9c 10 00 00 1a 00 00 00 00 00 42
4f 45 20 51 43 0a 20 20 20 20 20 20 00 00 00 02
00 4e 54 31 32 35 57 48 4d 2d 4e 34 35 0a 00 b9

----------------

Block 0, Base EDID:
  EDID Structure Version & Revision: 1.4
  Vendor & Product Identification:
    Manufacturer: BOE
    Model: 1525
    Made in: week 1 of 2020
  Basic Display Parameters & Features:
    Digital display
    Bits per primary color channel: 6
    DisplayPort interface
    Maximum image size: 28 cm x 16 cm
    Gamma: 2.20
    Supported color formats: RGB 4:4:4, YCrCb 4:4:4
    First detailed timing includes the native pixel format and preferred refresh rate
  Color Characteristics:
    Red  : 0.5917, 0.3466
    Green: 0.3281, 0.5703
    Blue : 0.1503, 0.1142
    White: 0.3125, 0.3281
  Established Timings I & II: none
  Standard Timings: none
  Detailed Timing Descriptors:
    DTD 1:  1366x768    59.998545 Hz 683:384   47.219 kHz     70.120000 MHz (277 mm x 156 mm)
                 Hfront   48 Hsync  32 Hback   39 Hpol P
                 Vfront    4 Vsync   4 Vback   11 Vpol N
    DTD 2:  1366x768    40.000000 Hz 683:384   34.400 kHz     60.200000 MHz (277 mm x 156 mm)
                 Hfront  100 Hsync 100 Hback  184 Hpol P
                 Vfront   20 Vsync  20 Vback   52 Vpol N
    Manufacturer-Specified Display Descriptor (0x00): 00 00 00 42 4f 45 20 51 43 0a 20 20 20 20 20 20 '...BOE QC.      '
    Manufacturer-Specified Display Descriptor (0x02): 00 02 00 4e 54 31 32 35 57 48 4d 2d 4e 34 35 0a '...NT125WHM-N45.'
Checksum: 0xb9

----------------

Warnings:

Block 0, Base EDID:
  Missing Display Product Name.

EDID conformity: PASS
