
EDID (hex):
00ffffffffffff0009e5a60a00000000
201f0104a51d107802f8909e59559c26
1a505400000001010101010101010101
0101010101013e1c56a0500016303020
360025a51000001a9e1656a050001630
3020360025a51000001a000000000000
00000000000000000000000000000002
001143ff0f3ce641463ae6000000002d

edid-decode (hex):

00 ff ff ff ff ff ff 00 09 e5 a6 0a 00 00 00 00
20 1f 01 04 a5 1d 10 78 02 f8 90 9e 59 55 9c 26
1a 50 54 00 00 00 01 01 01 01 01 01 01 01 01 01
01 01 01 01 01 01 3e 1c 56 a0 50 00 16 30 30 20
36 00 25 a5 10 00 00 1a 9e 16 56 a0 50 00 16 30
30 20 36 00 25 a5 10 00 00 1a 00 00 00 00 00 00
00 00 00 00 00 00 00 00 00 00 00 00 00 00 00 02
00 11 43 ff 0f 3c e6 41 46 3a e6 00 00 00 00 2d

----------------

Block 0, Base EDID:
  EDID Structure Version & Revision: 1.4
  Vendor & Product Identification:
    Manufacturer: BOE
    Model: 2726
    Made in: week 32 of 2021
  Basic Display Parameters & Features:
    Digital display
    Bits per primary color channel: 8
    DisplayPort interface
    Maximum image size: 29 cm x 16 cm
    Gamma: 2.20
    Supported color formats: RGB 4:4:4
    First detailed timing includes the native pixel format and preferred refresh rate
  Color Characteristics:
    Red  : 0.6201, 0.3505
    Green: 0.3339, 0.6093
    Blue : 0.1503, 0.1025
    White: 0.3125, 0.3281
  Established Timings I & II: none
  Standard Timings: none
  Detailed Timing Descriptors:
    DTD 1:  1366x768    59.973124 Hz 683:384   47.379 kHz     72.300000 MHz (293 mm x 165 mm)
                 Hfront   48 Hsync  32 Hback   80 Hpol P
                 Vfront    3 Vsync   6 Vback   13 Vpol N
    DTD 2:  1366x768    48.028269 Hz 683:384   37.942 kHz     57.900000 MHz (293 mm x 165 mm)
                 Hfront   48 Hsync  32 Hback   80 Hpol P
                 Vfront    3 Vsync   6 Vback   13 Vpol N
    Empty Descriptor
    Manufacturer-Specified Display Descriptor (0x02): 00 02 00 11 43 ff 0f 3c e6 41 46 3a e6 00 00 00 '....C..<.AF:....'
Checksum: 0x2d
