
EDID (hex):
00ffffffffffff0022f00e2901010101
0e140103682c1978eeb4b0a555489a26
135054a1080081c081809500a9c00101
010101010101302a40c8608464301850
1300baf91000001e000000fd00374b1e
5311000a202020202020000000fc0043
6f6d7061712053323032320a000000ff
00434e43303134514c57430a202000e8

Extracted contents:
header:          00 ff ff ff ff ff ff 00
serial number:   22 f0 0e 29 01 01 01 01 0e 14
version:         01 03
basic params:    68 2c 19 78 ee
chroma info:     b4 b0 a5 55 48 9a 26 13 50 54
established:     a1 08 00
standard:        81 c0 81 80 95 00 a9 c0 01 01 01 01 01 01 01 01
descriptor 1:    30 2a 40 c8 60 84 64 30 18 50 13 00 ba f9 10 00 00 1e
descriptor 2:    00 00 00 fd 00 37 4b 1e 53 11 00 0a 20 20 20 20 20 20
descriptor 3:    00 00 00 fc 00 43 6f 6d 70 61 71 20 53 32 30 32 32 0a
descriptor 4:    00 00 00 ff 00 43 4e 43 30 31 34 51 4c 57 43 0a 20 20
extensions:      00
checksum:        e8

EDID version: 1.3
Manufacturer: HWP Model 290e Serial Number --
Made in week 14 of 2010
Analog display, Input voltage level: 0.7/0.7 V
Sync: Separate 
Maximum image size: 44 cm x 25 cm
Gamma: 2.20
DPMS levels: Standby Suspend Off
RGB color display
Default (sRGB) color space is primary color space
First detailed timing is preferred timing
Display x,y Chromaticity:
  Red:   0.6464, 0.3349
  Green: 0.2822, 0.6015
  Blue:  0.1503, 0.0771
  White: 0.3125, 0.3281
Established timings supported:
  720x400@70Hz 9:5 HorFreq: 31469 Hz Clock: 28.320 MHz
  640x480@60Hz 4:3 HorFreq: 31469 Hz Clock: 25.175 MHz
  800x600@60Hz 4:3 HorFreq: 37900 Hz Clock: 40.000 MHz
  1024x768@60Hz 4:3 HorFreq: 48400 Hz Clock: 65.000 MHz
Standard timings supported:
  1280x720@60Hz 16:9
  1280x1024@60Hz 5:4 HorFreq: 64000 Hz Clock: 108.000 MHz
  1440x900@60Hz 16:10 HorFreq: 55500 Hz Clock: 88.750 MHz
  1600x900@60Hz 16:9
Detailed mode: Clock 108.000 MHz, 442 mm x 249 mm
               1600 1624 1704 1800 hborder 0
                900  901  904 1000 vborder 0
               +hsync +vsync 
               VertFreq: 60 Hz, HorFreq: 60000 Hz
Monitor ranges (GTF): 55-75Hz V, 30-83kHz H, max dotclock 170MHz
Monitor name: Compaq S2022
Serial number: --
Checksum: 0xe8 (valid)
EDID block does NOT conform to EDID 1.3!
	sRGB is signaled, but the chromaticities do not match
