
EDID (hex):
00ffffffffffff0006afec3100000000
0015010495221378020bb59757548c26
23505400000001010101010101010101
010101010101121b5646500023302616
360058c1100000180000000f00000000
00000000000000000020000000fe0041
554f0a202020202020202020000000fe
004231353658544e30332e31200a002e

Extracted contents:
header:          00 ff ff ff ff ff ff 00
serial number:   06 af ec 31 00 00 00 00 00 15
version:         01 04
basic params:    95 22 13 78 02
chroma info:     0b b5 97 57 54 8c 26 23 50 54
established:     00 00 00
standard:        01 01 01 01 01 01 01 01 01 01 01 01 01 01 01 01
descriptor 1:    12 1b 56 46 50 00 23 30 26 16 36 00 58 c1 10 00 00 18
descriptor 2:    00 00 00 0f 00 00 00 00 00 00 00 00 00 00 00 00 00 20
descriptor 3:    00 00 00 fe 00 41 55 4f 0a 20 20 20 20 20 20 20 20 20
descriptor 4:    00 00 00 fe 00 42 31 35 36 58 54 4e 30 33 2e 31 20 0a
extensions:      00
checksum:        2e

EDID version: 1.4
Manufacturer: AUO Model 31ec Serial Number --
Made in year 2011
Digital display
6 bits per primary color channel
DisplayPort interface
Maximum image size: 34 cm x 19 cm
Gamma: 2.20
Supported color formats: RGB 4:4:4
First detailed timing includes the native pixel format and preferred refresh rate
Display x,y Chromaticity:
  Red:   0.5898, 0.3398
  Green: 0.3300, 0.5498
  Blue:  0.1503, 0.1396
  White: 0.3134, 0.3291
Established timings supported:
Standard timings supported:
Detailed mode: Clock 69.300 MHz, 344 mm x 193 mm
               1366 1404 1426 1436 hborder 0
                768  771  777  803 vborder 0
               -hsync -vsync 
               VertFreq: 60 Hz, HorFreq: 48259 Hz
Manufacturer-specified data, tag 15
ASCII string: AUO
ASCII string: B156XTN03.1 
Checksum: 0x2e (valid)
EDID block does NOT conform to EDID 1.4!
	Missing name descriptor
	Missing monitor ranges
