
EDID (hex):
00ffffffffffff000daebe1500000000
2c1601049522137802e915955a569327
1e505400000001010101010101010101
010101010101281e56f2500020303b27
460058c21000001a1b1456f250002030
3b27460058c21000001a000000000000
00000000000000000000000000000002
000c4cff0a3c64140d15640000000064

Extracted contents:
header:          00 ff ff ff ff ff ff 00
serial number:   0d ae be 15 00 00 00 00 2c 16
version:         01 04
basic params:    95 22 13 78 02
chroma info:     e9 15 95 5a 56 93 27 1e 50 54
established:     00 00 00
standard:        01 01 01 01 01 01 01 01 01 01 01 01 01 01 01 01
descriptor 1:    28 1e 56 f2 50 00 20 30 3b 27 46 00 58 c2 10 00 00 1a
descriptor 2:    1b 14 56 f2 50 00 20 30 3b 27 46 00 58 c2 10 00 00 1a
descriptor 3:    00 00 00 00 00 00 00 00 00 00 00 00 00 00 00 00 00 00
descriptor 4:    00 00 00 02 00 0c 4c ff 0a 3c 64 14 0d 15 64 00 00 00
extensions:      00
checksum:        64

EDID version: 1.4
Manufacturer: CMN Model 15be Serial Number --
Made in week 44 of 2012
Digital display
6 bits per primary color channel
DisplayPort interface
Maximum image size: 34 cm x 19 cm
Gamma: 2.20
Supported color formats: RGB 4:4:4
First detailed timing includes the native pixel format and preferred refresh rate
Display x,y Chromaticity:
  Red:   0.5849, 0.3535
  Green: 0.3378, 0.5751
  Blue:  0.1523, 0.1181
  White: 0.3134, 0.3291
Established timings supported:
Standard timings supported:
Detailed mode: Clock 77.200 MHz, 344 mm x 194 mm
               1366 1425 1464 1608 hborder 0
                768  772  778  800 vborder 0
               +hsync -vsync 
               VertFreq: 60 Hz, HorFreq: 48009 Hz
Detailed mode: Clock 51.470 MHz, 344 mm x 194 mm
               1366 1425 1464 1608 hborder 0
                768  772  778  800 vborder 0
               +hsync -vsync 
               VertFreq: 40 Hz, HorFreq: 32008 Hz
Manufacturer-specified data, tag 0
Manufacturer-specified data, tag 2
Checksum: 0x64 (valid)
EDID block does NOT conform to EDID 1.4!
	Missing name descriptor
	Missing monitor ranges
