edid-decode (hex):

00 ff ff ff ff ff ff 00 0d ae be 15 00 00 00 00
2c 16 01 04 95 22 13 78 02 e9 15 95 5a 56 93 27
1e 50 54 00 00 00 01 01 01 01 01 01 01 01 01 01
01 01 01 01 01 01 28 1e 56 f2 50 00 20 30 3b 27
46 00 58 c2 10 00 00 1a 1b 14 56 f2 50 00 20 30
3b 27 46 00 58 c2 10 00 00 1a 00 00 00 00 00 00
00 00 00 00 00 00 00 00 00 00 00 00 00 00 00 02
00 0c 4c ff 0a 3c 64 14 0d 15 64 00 00 00 00 64

----------------

Block 0, Base EDID:
  EDID Structure Version & Revision: 1.4
  Vendor & Product Identification:
    Manufacturer: CMN
    Model: 5566
    Made in: week 44 of 2012
  Basic Display Parameters & Features:
    Digital display
    Bits per primary color channel: 6
    DisplayPort interface
    Maximum image size: 34 cm x 19 cm
    Gamma: 2.20
    Supported color formats: RGB 4:4:4
    First detailed timing includes the native pixel format and preferred refresh rate
  Color Characteristics:
    Red  : 0.5849, 0.3535
    Green: 0.3378, 0.5751
    Blue : 0.1523, 0.1181
    White: 0.3134, 0.3291
  Established Timings I & II: none
  Standard Timings: none
  Detailed Timing Descriptors:
    DTD 1:  1366x768    60.012438 Hz 683:384   48.010 kHz     77.200000 MHz (344 mm x 194 mm)
                 Hfront   59 Hsync  39 Hback  144 Hpol P
                 Vfront    4 Vsync   6 Vback   22 Vpol N
    DTD 2:  1366x768    40.010883 Hz 683:384   32.009 kHz     51.470000 MHz (344 mm x 194 mm)
                 Hfront   59 Hsync  39 Hback  144 Hpol P
                 Vfront    4 Vsync   6 Vback   22 Vpol N
    Empty Descriptor
    Manufacturer-Specified Display Descriptor (0x02): 00 02 00 0c 4c ff 0a 3c 64 14 0d 15 64 00 00 00 '....L..<d...d...'
Checksum: 0x64

----------------

Failures:

Block 0, Base EDID:
  Empty Descriptor: Use Dummy Descriptor instead of all zeroes.
  Missing Display Product Name.

EDID conformity: FAIL
