edid-decode (hex):

00 ff ff ff ff ff ff 00 4c a5 30 31 01 00 00 00
17 14 01 03 08 35 1e 78 ef ee 91 a3 54 4c 99 26
0f 50 54 a3 08 00 31 40 45 40 61 40 81 80 01 01
01 01 01 01 01 01 30 2a 00 98 51 00 2a 40 30 70
13 00 ba 88 21 00 00 1e 00 00 00 30 62 1a 27 40
68 b0 36 00 2c e6 10 00 00 1a 00 00 00 b0 51 00
1b 30 40 70 36 00 2c e6 10 00 00 1a 00 00 00 fc
00 53 45 45 59 4f 4f 0a 20 20 20 20 20 20 00 bd

----------------

Block 0, Base EDID:
  EDID Structure Version & Revision: 1.3
  Vendor & Product Identification:
    Manufacturer: SEE
    Model: 12592
    Serial Number: ...
    Made in: week 23 of 2010
  Basic Display Parameters & Features:
    Analog display
    Input voltage level: 0.7/0.3 V
    Blank level equals black level
    Sync: Separate
    Maximum image size: 53 cm x 30 cm
    Gamma: 2.20
    DPMS levels: Standby Suspend Off
    RGB color display
    Default (sRGB) color space is primary color space
    First detailed timing is the preferred timing
    Supports GTF timings within operating range
  Color Characteristics:
    Red  : 0.6396, 0.3300
    Green: 0.2998, 0.5996
    Blue : 0.1503, 0.0595
    White: 0.3125, 0.3291
  Established Timings I & II:
    IBM     :   720x400    70.081663 Hz   9:5     31.467 kHz     28.320000 MHz
    DMT 0x04:   640x480    59.940476 Hz   4:3     31.469 kHz     25.175000 MHz
    DMT 0x08:   800x600    56.250000 Hz   4:3     35.156 kHz     36.000000 MHz
    DMT 0x09:   800x600    60.316541 Hz   4:3     37.879 kHz     40.000000 MHz
    DMT 0x10:  1024x768    60.003840 Hz   4:3     48.363 kHz     65.000000 MHz
  Standard Timings:
    DMT 0x04:   640x480    59.940476 Hz   4:3     31.469 kHz     25.175000 MHz
    DMT 0x09:   800x600    60.316541 Hz   4:3     37.879 kHz     40.000000 MHz
    DMT 0x10:  1024x768    60.003840 Hz   4:3     48.363 kHz     65.000000 MHz
    DMT 0x23:  1280x1024   60.019740 Hz   5:4     63.981 kHz    108.000000 MHz
  Detailed Timing Descriptors:
    DTD 1:  1280x1024   60.019740 Hz   5:4     63.981 kHz    108.000000 MHz (698 mm x 392 mm)
                 Hfront   48 Hsync 112 Hback  248 Hpol P
                 Vfront    1 Vsync   3 Vback   38 Vpol P
    Unknown Display Descriptor (0x30): 00 30 62 1a 27 40 68 b0 36 00 2c e6 10 00 00 1a '.0b.'@h.6.,.....'
    Unknown Display Descriptor (0xb0): 00 b0 51 00 1b 30 40 70 36 00 2c e6 10 00 00 1a '..Q..0@p6.,.....'
    Display Product Name: 'SEEYOO'
Checksum: 0xbd

----------------

Failures:

Block 0, Base EDID:
  Detailed Timing Descriptor #1: Mismatch of image size 698x392 mm vs display size 530x300 mm.
  Display Descriptor #2: Monitor descriptor block has byte 4 nonzero (0x62).
  Display Descriptor #2: Unknown Type 0x30.
  Display Descriptor #3: Monitor descriptor block has byte 4 nonzero (0x51).
  Display Descriptor #3: Unknown Type 0xb0.
  Missing Display Range Limits Descriptor.

EDID conformity: FAIL
