
EDID (hex):
00ffffffffffff00220e673500000000
ff1c0104a01a11783aee95a3544c9926
0f505400000081008180010101010101
0101010101010325a0a050c01c303020
3a0003ad1000001c662156aa51001e30
468f330003ad1000001e000000fc0053
6c69636532300a2020202020000000fe
0056313030305f53484152500a20008d

Extracted contents:
header:          00 ff ff ff ff ff ff 00
serial number:   22 0e 67 35 00 00 00 00 ff 1c
version:         01 04
basic params:    a0 1a 11 78 3a
chroma info:     ee 95 a3 54 4c 99 26 0f 50 54
established:     00 00 00
standard:        81 00 81 80 01 01 01 01 01 01 01 01 01 01 01 01
descriptor 1:    03 25 a0 a0 50 c0 1c 30 30 20 3a 00 03 ad 10 00 00 1c
descriptor 2:    66 21 56 aa 51 00 1e 30 46 8f 33 00 03 ad 10 00 00 1e
descriptor 3:    00 00 00 fc 00 53 6c 69 63 65 32 30 0a 20 20 20 20 20
descriptor 4:    00 00 00 fe 00 56 31 30 30 30 5f 53 48 41 52 50 0a 20
extensions:      00
checksum:        8d

EDID version: 1.4
Manufacturer: HPN Model 3567 Serial Number --
Model year 2018
Digital display
8 bits per primary color channel
Digital interface is not defined
Maximum image size: 26 cm x 17 cm
Gamma: 2.20
DPMS levels: Off
Supported color formats: RGB 4:4:4, YCrCb 4:4:4, YCrCb 4:2:2
First detailed timing includes the native pixel format and preferred refresh rate
Display x,y Chromaticity:
  Red:   0.6396, 0.3300
  Green: 0.2998, 0.5996
  Blue:  0.1503, 0.0595
  White: 0.3134, 0.3291
Established timings supported:
Standard timings supported:
  1280x800@60Hz 16:10
  1280x1024@60Hz 5:4 HorFreq: 64000 Hz Clock: 108.000 MHz
Detailed mode: Clock 94.750 MHz, 259 mm x 173 mm
               1440 1488 1520 1600 hborder 0
                960  963  973  988 vborder 0
               -hsync +vsync 
               VertFreq: 59 Hz, HorFreq: 59218 Hz
Detailed mode: Clock 85.500 MHz, 259 mm x 173 mm
               1366 1436 1579 1792 hborder 0
                768  771  774  798 vborder 0
               +hsync +vsync 
               VertFreq: 59 Hz, HorFreq: 47712 Hz
Monitor name: Slice20
ASCII string: V1000_SHARP
Checksum: 0x8d (valid)
	Missing monitor ranges
