
EDID (hex):
00ffffffffffff001ef98a0823440000
2c0f0103802d1c78eaee95a3544c9926
0f5054bfef0081806140b30001010101
0101010101012d399030621a274068b0
6e01c2181100001e000000fc00465044
32313835570a20202020000000fd0038
4c1f5110000a202020202020000000ff
005735412035304e203137343433009a

Extracted contents:
header:          00 ff ff ff ff ff ff 00
serial number:   1e f9 8a 08 23 44 00 00 2c 0f
version:         01 03
basic params:    80 2d 1c 78 ea
chroma info:     ee 95 a3 54 4c 99 26 0f 50 54
established:     bf ef 00
standard:        81 80 61 40 b3 00 01 01 01 01 01 01 01 01 01 01
descriptor 1:    2d 39 90 30 62 1a 27 40 68 b0 6e 01 c2 18 11 00 00 1e
descriptor 2:    00 00 00 fc 00 46 50 44 32 31 38 35 57 0a 20 20 20 20
descriptor 3:    00 00 00 fd 00 38 4c 1f 51 10 00 0a 20 20 20 20 20 20
descriptor 4:    00 00 00 ff 00 57 35 41 20 35 30 4e 20 31 37 34 34 33
extensions:      00
checksum:        9a

EDID version: 1.3
Manufacturer: GWY Model 88a Serial Number --
Digital display
Maximum image size: 45 cm x 28 cm
Gamma: 2.20
DPMS levels: Standby Suspend Off
RGB color display
First detailed timing is preferred timing
Display x,y Chromaticity:
  Red:   0.6396, 0.3300
  Green: 0.2998, 0.5996
  Blue:  0.1503, 0.0595
  White: 0.3134, 0.3291
Established timings supported:
  720x400@70Hz 9:5 HorFreq: 31469 Hz Clock: 28.320 MHz
  640x480@60Hz 4:3 HorFreq: 31469 Hz Clock: 25.175 MHz
  640x480@67Hz 4:3 HorFreq: 35000 Hz Clock: 30.240 MHz
  640x480@72Hz 4:3 HorFreq: 37900 Hz Clock: 31.500 MHz
  640x480@75Hz 4:3 HorFreq: 37500 Hz Clock: 31.500 MHz
  800x600@56Hz 4:3 HorFreq: 35200 Hz Clock: 36.000 MHz
  800x600@60Hz 4:3 HorFreq: 37900 Hz Clock: 40.000 MHz
  800x600@72Hz 4:3 HorFreq: 48100 Hz Clock: 50.000 MHz
  800x600@75Hz 4:3 HorFreq: 46900 Hz Clock: 49.500 MHz
  832x624@75Hz 4:3 HorFreq: 49726 Hz Clock: 57.284 MHz
  1024x768@60Hz 4:3 HorFreq: 48400 Hz Clock: 65.000 MHz
  1024x768@70Hz 4:3 HorFreq: 56500 Hz Clock: 75.000 MHz
  1024x768@75Hz 4:3 HorFreq: 60000 Hz Clock: 78.750 MHz
  1280x1024@75Hz 5:4 HorFreq: 80000 Hz Clock: 135.000 MHz
Standard timings supported:
  1280x1024@60Hz 5:4 HorFreq: 64000 Hz Clock: 108.000 MHz
  1024x768@60Hz 4:3 HorFreq: 48400 Hz Clock: 65.000 MHz
  1680x1050@60Hz 16:10 HorFreq: 64700 Hz Clock: 119.000 MHz
Detailed mode: Clock 146.370 MHz, 450 mm x 280 mm
               1680 1784 1960 2240 hborder 0
               1050 1056 1086 1089 vborder 0
               +hsync +vsync 
               VertFreq: 60 Hz, HorFreq: 65343 Hz
Monitor name: FPD2185W
Monitor ranges (GTF): 56-76Hz V, 31-81kHz H, max dotclock 160MHz
Serial number: -- 50N 17443
Checksum: 0x9a (valid)
EDID block does not conform at all!
	Bad year of manufacture
