
EDID (hex):
00ffffffffffff0006af5c1000000000
00150104901a0e780299859555569228
22505400000001010101010101010101
010101010101701c56a4500019302820
3600009010000018441656a050000a30
28203600009010000018000000fe0041
554f0a202020202020202020000000fe
004231313658544e30312e30200a007e

Extracted contents:
header:          00 ff ff ff ff ff ff 00
serial number:   06 af 5c 10 00 00 00 00 00 15
version:         01 04
basic params:    90 1a 0e 78 02
chroma info:     99 85 95 55 56 92 28 22 50 54
established:     00 00 00
standard:        01 01 01 01 01 01 01 01 01 01 01 01 01 01 01 01
descriptor 1:    70 1c 56 a4 50 00 19 30 28 20 36 00 00 90 10 00 00 18
descriptor 2:    44 16 56 a0 50 00 0a 30 28 20 36 00 00 90 10 00 00 18
descriptor 3:    00 00 00 fe 00 41 55 4f 0a 20 20 20 20 20 20 20 20 20
descriptor 4:    00 00 00 fe 00 42 31 31 36 58 54 4e 30 31 2e 30 20 0a
extensions:      00
checksum:        7e

EDID version: 1.4
Manufacturer: AUO Model 105c Serial Number --
Made in year 2011
Digital display
6 bits per primary color channel
Digital interface is not defined
Maximum image size: 26 cm x 14 cm
Gamma: 2.20
Supported color formats: RGB 4:4:4
First detailed timing includes the native pixel format and preferred refresh rate
Display x,y Chromaticity:
  Red:   0.5839, 0.3330
  Green: 0.3378, 0.5712
  Blue:  0.1582, 0.1328
  White: 0.3134, 0.3291
Established timings supported:
Standard timings supported:
Detailed mode: Clock 72.800 MHz, 256 mm x 144 mm
               1366 1406 1438 1530 hborder 0
                768  771  777  793 vborder 0
               -hsync -vsync 
               VertFreq: 60 Hz, HorFreq: 47581 Hz
Detailed mode: Clock 57.000 MHz, 256 mm x 144 mm
               1366 1406 1438 1526 hborder 0
                768  771  777  778 vborder 0
               -hsync -vsync 
               VertFreq: 48 Hz, HorFreq: 37352 Hz
ASCII string: AUO
ASCII string: B116XTN01.0 
Checksum: 0x7e (valid)
EDID block does NOT conform to EDID 1.4!
	Missing name descriptor
	Missing monitor ranges
