
EDID (hex):
00ffffffffffff000e6f061500000000
001f0104a522137803e695a3544f9926
6f505400000001010101010101010101
0101010101011a3680a070381f403020
350058c210000018182480a070381f40
3020350058c210000018000000000000
00000000000000000000000000000003
000c26ff143cc80a0717c800000000ae

edid-decode (hex):

00 ff ff ff ff ff ff 00 0e 6f 06 15 00 00 00 00
00 1f 01 04 a5 22 13 78 03 e6 95 a3 54 4f 99 26
6f 50 54 00 00 00 01 01 01 01 01 01 01 01 01 01
01 01 01 01 01 01 1a 36 80 a0 70 38 1f 40 30 20
35 00 58 c2 10 00 00 18 18 24 80 a0 70 38 1f 40
30 20 35 00 58 c2 10 00 00 18 00 00 00 00 00 00
00 00 00 00 00 00 00 00 00 00 00 00 00 00 00 03
00 0c 26 ff 14 3c c8 0a 07 17 c8 00 00 00 00 ae

----------------

Block 0, Base EDID:
  EDID Structure Version & Revision: 1.4
  Vendor & Product Identification:
    Manufacturer: CSO
    Model: 5382
    Made in: 2021
  Basic Display Parameters & Features:
    Digital display
    Bits per primary color channel: 8
    DisplayPort interface
    Maximum image size: 34 cm x 19 cm
    Gamma: 2.20
    Supported color formats: RGB 4:4:4
    First detailed timing includes the native pixel format and preferred refresh rate
    Display is continuous frequency
  Color Characteristics:
    Red  : 0.6396, 0.3300
    Green: 0.3095, 0.5996
    Blue : 0.1503, 0.4345
    White: 0.3134, 0.3291
  Established Timings I & II: none
  Standard Timings: none
  Detailed Timing Descriptors:
    DTD 1:  1920x1080   59.933878 Hz  16:9     66.587 kHz    138.500000 MHz (344 mm x 194 mm)
                 Hfront   48 Hsync  32 Hback   80 Hpol N
                 Vfront    3 Vsync   5 Vback   23 Vpol N
    DTD 2:  1920x1080   39.984768 Hz  16:9     44.423 kHz     92.400000 MHz (344 mm x 194 mm)
                 Hfront   48 Hsync  32 Hback   80 Hpol N
                 Vfront    3 Vsync   5 Vback   23 Vpol N
    Empty Descriptor
    Manufacturer-Specified Display Descriptor (0x03): 00 03 00 0c 26 ff 14 3c c8 0a 07 17 c8 00 00 00 '....&..<........'
Checksum: 0xae
