
EDID (hex):
00ffffffffffff002ecd084307010101
0a0f010308221b78eaf3c5a3554e9b25
125054bfef808140714f814a81990101
010101010101302a009851002a403070
1300520e1100001e000000fd00304d1e
5e0e313033303830390a000000fc004c
4344204d6f6e69746f723137000000ff
0031323334353637383930313233009f

Extracted contents:
header:          00 ff ff ff ff ff ff 00
serial number:   2e cd 08 43 07 01 01 01 0a 0f
version:         01 03
basic params:    08 22 1b 78 ea
chroma info:     f3 c5 a3 55 4e 9b 25 12 50 54
established:     bf ef 80
standard:        81 40 71 4f 81 4a 81 99 01 01 01 01 01 01 01 01
descriptor 1:    30 2a 00 98 51 00 2a 40 30 70 13 00 52 0e 11 00 00 1e
descriptor 2:    00 00 00 fd 00 30 4d 1e 5e 0e 31 30 33 30 38 30 39 0a
descriptor 3:    00 00 00 fc 00 4c 43 44 20 4d 6f 6e 69 74 6f 72 31 37
descriptor 4:    00 00 00 ff 00 31 32 33 34 35 36 37 38 39 30 31 32 33
extensions:      00
checksum:        9f

EDID version: 1.3
Manufacturer: KVM Model 4308 Serial Number --
Analog display, Input voltage level: 0.7/0.3 V
Sync: Separate 
Maximum image size: 34 cm x 27 cm
Gamma: 2.20
DPMS levels: Standby Suspend Off
RGB color display
First detailed timing is preferred timing
Display x,y Chromaticity:
  Red:   0.6396, 0.3349
  Green: 0.3046, 0.6083
  Blue:  0.1474, 0.0703
  White: 0.3134, 0.3291
Established timings supported:
  720x400@70Hz 9:5 HorFreq: 31469 Hz Clock: 28.320 MHz
  640x480@60Hz 4:3 HorFreq: 31469 Hz Clock: 25.175 MHz
  640x480@67Hz 4:3 HorFreq: 35000 Hz Clock: 30.240 MHz
  640x480@72Hz 4:3 HorFreq: 37900 Hz Clock: 31.500 MHz
  640x480@75Hz 4:3 HorFreq: 37500 Hz Clock: 31.500 MHz
  800x600@56Hz 4:3 HorFreq: 35200 Hz Clock: 36.000 MHz
  800x600@60Hz 4:3 HorFreq: 37900 Hz Clock: 40.000 MHz
  800x600@72Hz 4:3 HorFreq: 48100 Hz Clock: 50.000 MHz
  800x600@75Hz 4:3 HorFreq: 46900 Hz Clock: 49.500 MHz
  832x624@75Hz 4:3 HorFreq: 49726 Hz Clock: 57.284 MHz
  1024x768@60Hz 4:3 HorFreq: 48400 Hz Clock: 65.000 MHz
  1024x768@70Hz 4:3 HorFreq: 56500 Hz Clock: 75.000 MHz
  1024x768@75Hz 4:3 HorFreq: 60000 Hz Clock: 78.750 MHz
  1280x1024@75Hz 5:4 HorFreq: 80000 Hz Clock: 135.000 MHz
  1152x870@75Hz 192:145 HorFreq: 67500 Hz Clock: 108.000 MHz
Standard timings supported:
  1280x960@60Hz 4:3 HorFreq: 60000 Hz Clock: 108.000 MHz
  1152x864@75Hz 4:3 HorFreq: 67500 Hz Clock: 108.000 MHz
  1280x960@70Hz 4:3
  1280x1024@85Hz 5:4 HorFreq: 91100 Hz Clock: 157.500 MHz
Detailed mode: Clock 108.000 MHz, 338 mm x 270 mm
               1280 1328 1440 1688 hborder 0
               1024 1025 1028 1066 vborder 0
               +hsync +vsync 
               VertFreq: 60 Hz, HorFreq: 63981 Hz
Monitor ranges (invalid): 48-77Hz V, 30-94kHz H, max dotclock 140MHz
Serial number: --
Checksum: 0x9f (valid)
EDID block does NOT conform to EDID 1.3!
	Name descriptor not terminated with a newline
EDID block does not conform at all!
	Bad year of manufacture
	Detailed blocks filled with garbage
	Range descriptor contains garbage
