
EDID (hex):
00ffffffffffff0006af9bab00000000
481f0104a522167803f435a85448a225
0e505400000001010101010101010101
0101010101018c3c80a070b028403020
a50058d7100000185d2880a070b02840
3020a50058d710000018000000000000
00000000000000000000000000000002
000c2dff103cc80c1726c8202020005d

edid-decode (hex):

00 ff ff ff ff ff ff 00 06 af 9b ab 00 00 00 00
48 1f 01 04 a5 22 16 78 03 f4 35 a8 54 48 a2 25
0e 50 54 00 00 00 01 01 01 01 01 01 01 01 01 01
01 01 01 01 01 01 8c 3c 80 a0 70 b0 28 40 30 20
a5 00 58 d7 10 00 00 18 5d 28 80 a0 70 b0 28 40
30 20 a5 00 58 d7 10 00 00 18 00 00 00 00 00 00
00 00 00 00 00 00 00 00 00 00 00 00 00 00 00 02
00 0c 2d ff 10 3c c8 0c 17 26 c8 20 20 20 00 5d

----------------

Block 0, Base EDID:
  EDID Structure Version & Revision: 1.4
  Vendor & Product Identification:
    Manufacturer: AUO
    Model: 43931
    Made in: week 72 of 2021
  Basic Display Parameters & Features:
    Digital display
    Bits per primary color channel: 8
    DisplayPort interface
    Maximum image size: 34 cm x 22 cm
    Gamma: 2.20
    Supported color formats: RGB 4:4:4
    First detailed timing includes the native pixel format and preferred refresh rate
    Display is continuous frequency
  Color Characteristics:
    Red  : 0.6591, 0.3310
    Green: 0.2822, 0.6328
    Blue : 0.1445, 0.0576
    White: 0.3134, 0.3291
  Established Timings I & II: none
  Standard Timings: none
  Detailed Timing Descriptors:
    DTD 1:  1920x1200   60.096154 Hz  16:10    74.519 kHz    155.000000 MHz (344 mm x 215 mm)
                 Hfront   48 Hsync  32 Hback   80 Hpol N
                 Vfront   10 Vsync   5 Vback   25 Vpol N
    DTD 2:  1920x1200   40.062810 Hz  16:10    49.678 kHz    103.330000 MHz (344 mm x 215 mm)
                 Hfront   48 Hsync  32 Hback   80 Hpol N
                 Vfront   10 Vsync   5 Vback   25 Vpol N
    Empty Descriptor
    Manufacturer-Specified Display Descriptor (0x02): 00 02 00 0c 2d ff 10 3c c8 0c 17 26 c8 20 20 20 '....-..<...&.   '
Checksum: 0x5d


