
EDID (hex):
00ffffffffffff00220e343601010101
2a1e0104682c18782a69d5a2564fa028
0f5054a10800a9c095008180810081c0
010101010101302a40c8608464301850
1300b0f01000001e000000fd00323c1e
4611000a202020202020000000fc0048
502050323034760a20202020000000ff
00334351303432314236430a20200064

Extracted contents:
header:          00 ff ff ff ff ff ff 00
serial number:   22 0e 34 36 01 01 01 01 2a 1e
version:         01 04
basic params:    68 2c 18 78 2a
chroma info:     69 d5 a2 56 4f a0 28 0f 50 54
established:     a1 08 00
standard:        a9 c0 95 00 81 80 81 00 81 c0 01 01 01 01 01 01
descriptor 1:    30 2a 40 c8 60 84 64 30 18 50 13 00 b0 f0 10 00 00 1e
descriptor 2:    00 00 00 fd 00 32 3c 1e 46 11 00 0a 20 20 20 20 20 20
descriptor 3:    00 00 00 fc 00 48 50 20 50 32 30 34 76 0a 20 20 20 20
descriptor 4:    00 00 00 ff 00 33 43 51 30 34 32 31 42 36 43 0a 20 20
extensions:      00
checksum:        64

EDID version: 1.4
Manufacturer: HPN Model 3634 Serial Number --
Made in week 42 of 2020
Analog display, Input voltage level: 0.7/0.7 V
Blank level equals black level
Sync: Separate 
Maximum image size: 44 cm x 24 cm
Gamma: 2.20
DPMS levels: Off
RGB color display
First detailed timing includes the native pixel format and preferred refresh rate
Display x,y Chromaticity:
  Red:   0.6337, 0.3378
  Green: 0.3105, 0.6259
  Blue:  0.1591, 0.0595
  White: 0.3134, 0.3291
Established timings supported:
  720x400@70Hz 9:5 HorFreq: 31469 Hz Clock: 28.320 MHz
  640x480@60Hz 4:3 HorFreq: 31469 Hz Clock: 25.175 MHz
  800x600@60Hz 4:3 HorFreq: 37900 Hz Clock: 40.000 MHz
  1024x768@60Hz 4:3 HorFreq: 48400 Hz Clock: 65.000 MHz
Standard timings supported:
  1600x900@60Hz 16:9
  1440x900@60Hz 16:10 HorFreq: 55500 Hz Clock: 88.750 MHz
  1280x1024@60Hz 5:4 HorFreq: 64000 Hz Clock: 108.000 MHz
  1280x800@60Hz 16:10
  1280x720@60Hz 16:9
Detailed mode: Clock 108.000 MHz, 432 mm x 240 mm
               1600 1624 1704 1800 hborder 0
                900  901  904 1000 vborder 0
               +hsync +vsync 
               VertFreq: 60 Hz, HorFreq: 60000 Hz
Monitor ranges (GTF): 50-60Hz V, 30-70kHz H, max dotclock 170MHz
Monitor name: HP P204v
Serial number: --
Checksum: 0x64 (valid)
Warning: One or more of the timings is out of range of the Monitor Ranges:
  Vertical Freq: 60 - 70 Hz
  Horizontal Freq: 31469 - 64000 Hz
  Maximum Clock: 108.000 MHz
