
EDID (hex):
00ffffffffffff000468fa0000000000
28150103a53c2278226fb1a7554c9e25
0c505400000001010101010101010101
010101010101565e00a0a0a029503020
350055502100001a000000fc00514844
3237300a202020202020000000fc0051
48443237300a202020202020000000fc
005148443237300a20202020202001b0

Extracted contents:
header:          00 ff ff ff ff ff ff 00
serial number:   04 68 fa 00 00 00 00 00 28 15
version:         01 03
basic params:    a5 3c 22 78 22
chroma info:     6f b1 a7 55 4c 9e 25 0c 50 54
established:     00 00 00
standard:        01 01 01 01 01 01 01 01 01 01 01 01 01 01 01 01
descriptor 1:    56 5e 00 a0 a0 a0 29 50 30 20 35 00 55 50 21 00 00 1a
descriptor 2:    00 00 00 fc 00 51 48 44 32 37 30 0a 20 20 20 20 20 20
descriptor 3:    00 00 00 fc 00 51 48 44 32 37 30 0a 20 20 20 20 20 20
descriptor 4:    00 00 00 fc 00 51 48 44 32 37 30 0a 20 20 20 20 20 20
extensions:      01
checksum:        b0

EDID version: 1.3
Manufacturer: ACH Model fa Serial Number --
Made in week 40 of 2011
Digital display
DFP 1.x compatible TMDS
Maximum image size: 60 cm x 34 cm
Gamma: 2.20
DPMS levels: Off
Monochrome or grayscale display
First detailed timing is preferred timing
Display x,y Chromaticity:
  Red:   0.6533, 0.3339
  Green: 0.2998, 0.6201
  Blue:  0.1464, 0.0498
  White: 0.3125, 0.3291
Established timings supported:
Standard timings supported:
Detailed mode: Clock 241.500 MHz, 597 mm x 336 mm
               2560 2608 2640 2720 hborder 0
               1440 1443 1448 1481 vborder 0
               +hsync -vsync 
               VertFreq: 59 Hz, HorFreq: 88786 Hz
Monitor name: QHD270
Has 1 extension blocks
Checksum: 0xb0 (valid)
EDID block does NOT conform to EDID 1.3!
	Digital display field contains garbage: 24
	Missing monitor ranges
