edid-decode (hex):

00 ff ff ff ff ff ff 00 0d ae 30 11 00 00 00 00
34 17 01 04 95 1a 0e 78 02 14 35 92 55 53 95 29
24 50 54 00 00 00 01 01 01 01 01 01 01 01 01 01
01 01 01 01 01 01 b0 1d 56 e9 50 00 18 30 46 2e
35 00 00 90 10 00 00 18 00 00 00 fe 00 4e 31 31
36 42 47 45 2d 45 42 32 0a 20 00 00 00 fe 00 43
4d 4e 0a 20 20 20 20 20 20 20 20 20 00 00 00 fe
00 4e 31 31 36 42 47 45 2d 45 42 32 0a 20 00 db

----------------

Block 0, Base EDID:
  EDID Structure Version & Revision: 1.4
  Vendor & Product Identification:
    Manufacturer: CMN
    Model: 4400
    Made in: week 52 of 2013
  Basic Display Parameters & Features:
    Digital display
    Bits per primary color channel: 6
    DisplayPort interface
    Maximum image size: 26 cm x 14 cm
    Gamma: 2.20
    Supported color formats: RGB 4:4:4
    First detailed timing includes the native pixel format and preferred refresh rate
  Color Characteristics:
    Red  : 0.5703, 0.3330
    Green: 0.3251, 0.5820
    Blue : 0.1601, 0.1435
    White: 0.3134, 0.3291
  Established Timings I & II: none
  Standard Timings: none
  Detailed Timing Descriptors:
    DTD 1:  1366x768    60.012255 Hz 683:384   47.530 kHz     76.000000 MHz (256 mm x 144 mm)
                 Hfront   70 Hsync  46 Hback  117 Hpol N
                 Vfront    3 Vsync   5 Vback   16 Vpol N
    Alphanumeric Data String: 'N116BGE-EB2'
    Alphanumeric Data String: 'CMN'
    Alphanumeric Data String: 'N116BGE-EB2'
Checksum: 0xdb

----------------

Warnings:

Block 0, Base EDID:
  Missing Display Product Name.

EDID conformity: PASS
