edid-decode (hex):

00 ff ff ff ff ff ff 00 15 c3 25 32 a4 d9 05 00
17 1e 01 04 a5 46 27 78 02 86 9d a6 56 4f 9c 26
11 47 4a 21 08 00 71 40 81 c0 81 00 81 80 95 00
a9 40 d1 c0 d1 00 25 cc 00 50 f0 70 3e 80 08 20
08 0c ba 89 21 00 00 1a 00 00 00 fc 00 52 50 33
32 32 35 2d 30 30 34 0a 20 20 00 00 00 fd 00 3b
3d 20 87 48 04 12 03 00 f8 38 a0 3c a6 64 00 50
f0 70 1f 80 08 20 18 04 ba 89 21 00 00 1a 01 0d

02 03 08 40 23 09 04 01 00 00 00 00 00 00 00 00
00 00 00 00 00 00 00 00 00 00 00 00 00 00 00 00
00 00 00 00 00 00 00 00 00 00 00 00 00 00 00 00
00 00 00 00 00 00 00 00 00 00 00 00 00 00 00 00
00 00 00 00 00 00 00 00 00 00 00 00 00 00 00 00
00 00 00 00 00 00 00 00 00 00 00 00 00 00 00 00
00 00 00 00 00 00 00 00 00 00 00 00 00 00 00 00
00 00 00 00 00 00 00 00 00 00 00 00 00 00 00 82

00 ff ff ff ff ff ff 00 15 c3 25 32 a4 d9 05 00
17 1e 01 04 a5 46 27 78 02 86 9d a6 56 4f 9c 26
11 47 4a 21 08 00 71 40 81 c0 81 00 81 80 95 00
a9 40 d1 c0 d1 00 25 cc 00 50 f0 70 3e 80 08 20
08 0c ba 89 21 00 00 1a 00 00 00 fc 00 52 50 33
32 32 35 2d 30 30 34 0a 20 20 00 00 00 fd 00 3b
3d 20 87 48 04 12 03 00 f8 38 a0 3c a6 64 00 50
f0 70 1f 80 08 20 18 04 ba 89 21 00 00 1a 01 0d

02 03 08 40 23 09 04 01 00 00 00 00 00 00 00 00
00 00 00 00 00 00 00 00 00 00 00 00 00 00 00 00
00 00 00 00 00 00 00 00 00 00 00 00 00 00 00 00
00 00 00 00 00 00 00 00 00 00 00 00 00 00 00 00
00 00 00 00 00 00 00 00 00 00 00 00 00 00 00 00
00 00 00 00 00 00 00 00 00 00 00 00 00 00 00 00
00 00 00 00 00 00 00 00 00 00 00 00 00 00 00 00
00 00 00 00 00 00 00 00 00 00 00 00 00 00 00 82

----------------

Block 0, Base EDID:
  EDID Structure Version & Revision: 1.4
  Vendor & Product Identification:
    Manufacturer: ENC
    Model: 12837
    Serial Number: ...
    Made in: week 23 of 2020
  Basic Display Parameters & Features:
    Digital display
    Bits per primary color channel: 8
    DisplayPort interface
    Maximum image size: 70 cm x 39 cm
    Gamma: 2.20
    Supported color formats: RGB 4:4:4
    First detailed timing includes the native pixel format and preferred refresh rate
  Color Characteristics:
    Red  : 0.6503, 0.3359
    Green: 0.3095, 0.6113
    Blue : 0.1503, 0.0673
    White: 0.2802, 0.2900
  Established Timings I & II:
    DMT 0x04:   640x480    59.940476 Hz   4:3     31.469 kHz     25.175000 MHz
    DMT 0x09:   800x600    60.316541 Hz   4:3     37.879 kHz     40.000000 MHz
    DMT 0x10:  1024x768    60.003840 Hz   4:3     48.363 kHz     65.000000 MHz
  Standard Timings:
    GTF     :  1152x864    60.000000 Hz   4:3     53.700 kHz     81.624000 MHz
    DMT 0x55:  1280x720    60.000000 Hz  16:9     45.000 kHz     74.250000 MHz
    DMT 0x1c:  1280x800    59.810326 Hz  16:10    49.702 kHz     83.500000 MHz
    DMT 0x23:  1280x1024   60.019740 Hz   5:4     63.981 kHz    108.000000 MHz
    DMT 0x2f:  1440x900    59.887445 Hz  16:10    55.935 kHz    106.500000 MHz
    DMT 0x33:  1600x1200   60.000000 Hz   4:3     75.000 kHz    162.000000 MHz
    DMT 0x52:  1920x1080   60.000000 Hz  16:9     67.500 kHz    148.500000 MHz
    DMT 0x45:  1920x1200   59.884600 Hz  16:10    74.556 kHz    193.250000 MHz
  Detailed Timing Descriptors:
    DTD 1:  3840x2160   59.999495 Hz  16:9    133.319 kHz    522.610000 MHz (698 mm x 393 mm)
                 Hfront    8 Hsync  32 Hback   40 Hpol P
                 Vfront   48 Vsync   8 Vback    6 Vpol N
    Display Product Name: 'RP3225-004'
    Display Range Limits:
      Monitor ranges (CVT): 59-61 Hz V, 32-135 kHz H, max dotclock 720 MHz
      CVT version 1.2
      Max active pixels per line: 6144
      Supported aspect ratios: 4:3 16:9 16:10 5:4 15:9
      Preferred aspect ratio: 16:9
      Supports CVT standard blanking
      Supports CVT reduced blanking
      Supported display scaling:
        Horizontal shrink
        Vertical shrink
      Preferred vertical refresh: 60 Hz
    DTD 2:  3840x2160   29.999814 Hz  16:9     65.730 kHz    257.660000 MHz (698 mm x 393 mm)
                 Hfront    8 Hsync  32 Hback   40 Hpol P
                 Vfront   17 Vsync   8 Vback    6 Vpol N
  Extension blocks: 1
Checksum: 0x0d

----------------

Block 1, CTA-861 Extension Block:
  Revision: 3
  Basic audio support
  Native detailed modes: 0
  Audio Data Block:
    Linear PCM:
      Max channels: 2
      Supported sample rates (kHz): 48
      Supported sample sizes (bits): 16
Checksum: 0x82  Unused space in Extension Block: 119 bytes

----------------

Block 2, Unknown EDID Extension Block 0x00:
  00 ff ff ff ff ff ff 00 15 c3 25 32 a4 d9 05 00 '..........%2....'
  17 1e 01 04 a5 46 27 78 02 86 9d a6 56 4f 9c 26 '.....F'x....VO.&'
  11 47 4a 21 08 00 71 40 81 c0 81 00 81 80 95 00 '.GJ!..q@........'
  a9 40 d1 c0 d1 00 25 cc 00 50 f0 70 3e 80 08 20 '.@....%..P.p>.. '
  08 0c ba 89 21 00 00 1a 00 00 00 fc 00 52 50 33 '....!........RP3'
  32 32 35 2d 30 30 34 0a 20 20 00 00 00 fd 00 3b '225-004.  .....;'
  3d 20 87 48 04 12 03 00 f8 38 a0 3c a6 64 00 50 '= .H.....8.<.d.P'
  f0 70 1f 80 08 20 18 04 ba 89 21 00 00 1a 01 0d '.p... ....!.....'
Checksum: 0x0d

----------------

Block 3, CTA-861 Extension Block:
  Revision: 3
  Basic audio support
  Native detailed modes: 0
  Audio Data Block:
    Linear PCM:
      Max channels: 2
      Supported sample rates (kHz): 48
      Supported sample sizes (bits): 16
Checksum: 0x82  Unused space in Extension Block: 119 bytes

----------------

Warnings:

Block 1, CTA-861 Extension Block:
  IT Video Formats are overscanned by default, but normally this should be underscanned.
  Add a Colorimetry Data Block with the sRGB colorimetry bit set to avoid interop issues.
Block 3, CTA-861 Extension Block:
  IT Video Formats are overscanned by default, but normally this should be underscanned.
  Add a Colorimetry Data Block with the sRGB colorimetry bit set to avoid interop issues.
EDID:
  Base EDID: Some timings are out of range of the Monitor Ranges:
    Vertical Freq: 30.000 - 60.317 Hz (Monitor: 59.000 - 61.000 Hz)
    Horizontal Freq: 31.468 - 133.318 kHz (Monitor: 32.000 - 135.000 kHz)

Failures:

Block 0, Base EDID:
  Display Range Limits: CVT can't be combined with non-continuous frequencies.
  Detailed Timing Descriptor #2: Invalid detailed timing descriptor ordering.
Block 1, CTA-861 Extension Block:
  Missing VCDB, needed for Set Selectable RGB Quantization to avoid interop issues.
Block 2, Base EDID:
  Unknown Extension Block.
Block 3, CTA-861 Extension Block:
  Missing VCDB, needed for Set Selectable RGB Quantization to avoid interop issues.
EDID:
  Base EDID: EDID specified 1 extension block(s), but found 3 extension block(s).

EDID conformity: FAIL
