
EDID (hex):
00ffffffffffff00082ca09389020000
310e010380251e96e8d1e0a05a4a9824
165054bfef8081800101010101010101
010101010101302a000852c028306070
1300510e1100001e000000fd00324b1e
500e0a20202020202020000000ff0032
343439323230303634390a20000000fc
00434d323031390a2020202020200046

Extracted contents:
header:          00 ff ff ff ff ff ff 00
serial number:   08 2c a0 93 89 02 00 00 31 0e
version:         01 03
basic params:    80 25 1e 96 e8
chroma info:     d1 e0 a0 5a 4a 98 24 16 50 54
established:     bf ef 80
standard:        81 80 01 01 01 01 01 01 01 01 01 01 01 01 01 01
descriptor 1:    30 2a 00 08 52 c0 28 30 60 70 13 00 51 0e 11 00 00 1e
descriptor 2:    00 00 00 fd 00 32 4b 1e 50 0e 0a 20 20 20 20 20 20 20
descriptor 3:    00 00 00 ff 00 32 34 34 39 32 32 30 30 36 34 39 0a 20
descriptor 4:    00 00 00 fc 00 43 4d 32 30 31 39 0a 20 20 20 20 20 20
extensions:      00
checksum:        46

EDID version: 1.3
Manufacturer: BAL Model 93a0 Serial Number --
Digital display
Maximum image size: 37 cm x 30 cm
Gamma: 2.50
DPMS levels: Standby Suspend Off
RGB color display
Display x,y Chromaticity:
  Red:   0.6279, 0.3525
  Green: 0.2890, 0.5947
  Blue:  0.1435, 0.0878
  White: 0.3125, 0.3281
Established timings supported:
  720x400@70Hz 9:5 HorFreq: 31469 Hz Clock: 28.320 MHz
  640x480@60Hz 4:3 HorFreq: 31469 Hz Clock: 25.175 MHz
  640x480@67Hz 4:3 HorFreq: 35000 Hz Clock: 30.240 MHz
  640x480@72Hz 4:3 HorFreq: 37900 Hz Clock: 31.500 MHz
  640x480@75Hz 4:3 HorFreq: 37500 Hz Clock: 31.500 MHz
  800x600@56Hz 4:3 HorFreq: 35200 Hz Clock: 36.000 MHz
  800x600@60Hz 4:3 HorFreq: 37900 Hz Clock: 40.000 MHz
  800x600@72Hz 4:3 HorFreq: 48100 Hz Clock: 50.000 MHz
  800x600@75Hz 4:3 HorFreq: 46900 Hz Clock: 49.500 MHz
  832x624@75Hz 4:3 HorFreq: 49726 Hz Clock: 57.284 MHz
  1024x768@60Hz 4:3 HorFreq: 48400 Hz Clock: 65.000 MHz
  1024x768@70Hz 4:3 HorFreq: 56500 Hz Clock: 75.000 MHz
  1024x768@75Hz 4:3 HorFreq: 60000 Hz Clock: 78.750 MHz
  1280x1024@75Hz 5:4 HorFreq: 80000 Hz Clock: 135.000 MHz
  1152x870@75Hz 192:145 HorFreq: 67500 Hz Clock: 108.000 MHz
Standard timings supported:
  1280x1024@60Hz 5:4 HorFreq: 64000 Hz Clock: 108.000 MHz
Detailed mode: Clock 108.000 MHz, 337 mm x 270 mm
               1280 1376 1488 1800 hborder 0
                960  961  964 1000 vborder 0
               +hsync +vsync 
               VertFreq: 60 Hz, HorFreq: 60000 Hz
Monitor ranges (invalid): 50-75Hz V, 30-80kHz H, max dotclock 140MHz
Serial number: --
Monitor name: CM2019
Checksum: 0x46 (valid)
EDID block does NOT conform to EDID 1.3!
	Missing preferred timing
EDID block does not conform at all!
	Bad year of manufacture
	Detailed blocks filled with garbage
	Range descriptor contains garbage
