
EDID (hex):
00ffffffffffff000481040001000000
01110103800f0a000a00000000000000
00000000000001010101010101010101
0101010101012413002041581620050d
2300ffff000000180000001000000000
00000000000000000000000000100000
00000000000000000000000000000010
00000000000000000000000000000012

Extracted contents:
header:          00 ff ff ff ff ff ff 00
serial number:   04 81 04 00 01 00 00 00 01 11
version:         01 03
basic params:    80 0f 0a 00 0a
chroma info:     00 00 00 00 00 00 00 00 00 00
established:     00 00 00
standard:        01 01 01 01 01 01 01 01 01 01 01 01 01 01 01 01
descriptor 1:    24 13 00 20 41 58 16 20 05 0d 23 00 ff ff 00 00 00 18
descriptor 2:    00 00 00 10 00 00 00 00 00 00 00 00 00 00 00 00 00 00
descriptor 3:    00 00 00 10 00 00 00 00 00 00 00 00 00 00 00 00 00 00
descriptor 4:    00 00 00 10 00 00 00 00 00 00 00 00 00 00 00 00 00 00
extensions:      00
checksum:        12

EDID version: 1.3
Manufacturer: ADA Model 4 Serial Number --
Made in week 1 of 2007
Digital display
Maximum image size: 15 cm x 10 cm
Gamma: 1.00
RGB color display
First detailed timing is preferred timing
Display x,y Chromaticity:
  Red:   0.0000, 0.0000
  Green: 0.0000, 0.0000
  Blue:  0.0000, 0.0000
  White: 0.0000, 0.0000
Established timings supported:
Standard timings supported:
Detailed mode: Clock 49.000 MHz, 255 mm x 255 mm
               1024 1029 1042 1312 hborder 0
                600  602  605  622 vborder 0
               -hsync -vsync 
               VertFreq: 60 Hz, HorFreq: 37347 Hz
Dummy block
Dummy block
Dummy block
Checksum: 0x12 (valid)
EDID block does NOT conform to EDID 1.3!
	Missing name descriptor
	Missing monitor ranges
