
EDID (hex):
00ffffffffffff0026cd441001000000
230e010378402778eaf240a454459a24
13494bafce0081806140454081c00101
010101010101a41f008051001e304080
370083822100001c000000fd00384b1e
400b000a202020202020000000fc0050
4c4333303157540a20202020000000fc
00200a2020202020202020202020008f

Extracted contents:
header:          00 ff ff ff ff ff ff 00
serial number:   26 cd 44 10 01 00 00 00 23 0e
version:         01 03
basic params:    78 40 27 78 ea
chroma info:     f2 40 a4 54 45 9a 24 13 49 4b
established:     af ce 00
standard:        81 80 61 40 45 40 81 c0 01 01 01 01 01 01 01 01
descriptor 1:    a4 1f 00 80 51 00 1e 30 40 80 37 00 83 82 21 00 00 1c
descriptor 2:    00 00 00 fd 00 38 4b 1e 40 0b 00 0a 20 20 20 20 20 20
descriptor 3:    00 00 00 fc 00 50 4c 43 33 30 31 57 54 0a 20 20 20 20
descriptor 4:    00 00 00 fc 00 20 0a 20 20 20 20 20 20 20 20 20 20 20
extensions:      00
checksum:        8f

EDID version: 1.3
Manufacturer: IVM Model 1044 Serial Number --
Analog display, Input voltage level: 0.7/0.7 V
Configurable signal levels
Sync: Separate 
Maximum image size: 64 cm x 39 cm
Gamma: 2.20
DPMS levels: Standby Suspend Off
RGB color display
First detailed timing is preferred timing
Display x,y Chromaticity:
  Red:   0.6435, 0.3310
  Green: 0.2695, 0.6035
  Blue:  0.1416, 0.0742
  White: 0.2851, 0.2929
Established timings supported:
  720x400@70Hz 9:5 HorFreq: 31469 Hz Clock: 28.320 MHz
  640x480@60Hz 4:3 HorFreq: 31469 Hz Clock: 25.175 MHz
  640x480@72Hz 4:3 HorFreq: 37900 Hz Clock: 31.500 MHz
  640x480@75Hz 4:3 HorFreq: 37500 Hz Clock: 31.500 MHz
  800x600@56Hz 4:3 HorFreq: 35200 Hz Clock: 36.000 MHz
  800x600@60Hz 4:3 HorFreq: 37900 Hz Clock: 40.000 MHz
  800x600@72Hz 4:3 HorFreq: 48100 Hz Clock: 50.000 MHz
  800x600@75Hz 4:3 HorFreq: 46900 Hz Clock: 49.500 MHz
  1024x768@60Hz 4:3 HorFreq: 48400 Hz Clock: 65.000 MHz
  1024x768@70Hz 4:3 HorFreq: 56500 Hz Clock: 75.000 MHz
  1024x768@75Hz 4:3 HorFreq: 60000 Hz Clock: 78.750 MHz
Standard timings supported:
  1280x1024@60Hz 5:4 HorFreq: 64000 Hz Clock: 108.000 MHz
  1024x768@60Hz 4:3 HorFreq: 48400 Hz Clock: 65.000 MHz
  800x600@60Hz 4:3 HorFreq: 37900 Hz Clock: 40.000 MHz
  1280x720@60Hz 16:9
Detailed mode: Clock 81.000 MHz, 643 mm x 386 mm
               1280 1344 1472 1664 hborder 0
                768  771  778  798 vborder 0
               -hsync +vsync 
               VertFreq: 60 Hz, HorFreq: 48677 Hz
Monitor ranges (GTF): 56-75Hz V, 30-64kHz H, max dotclock 110MHz
Monitor name: PLC301WT
Checksum: 0x8f (valid)
EDID block does not conform at all!
	Bad year of manufacture
