
EDID (hex):
00ffffffffffff0005e31621f9d30100
20120103682e1d782ac3d0a455499a26
135054bfef0081808140950001010101
01010101010108399030621a274068b0
3600cc221100001a000000fd00384b1f
5011000a202020202020000000fc0032
313136530a20202020202020000000ff
0045363738384a41313139383031003c

Extracted contents:
header:          00 ff ff ff ff ff ff 00
serial number:   05 e3 16 21 f9 d3 01 00 20 12
version:         01 03
basic params:    68 2e 1d 78 2a
chroma info:     c3 d0 a4 55 49 9a 26 13 50 54
established:     bf ef 00
standard:        81 80 81 40 95 00 01 01 01 01 01 01 01 01 01 01
descriptor 1:    08 39 90 30 62 1a 27 40 68 b0 36 00 cc 22 11 00 00 1a
descriptor 2:    00 00 00 fd 00 38 4b 1f 50 11 00 0a 20 20 20 20 20 20
descriptor 3:    00 00 00 fc 00 32 31 31 36 53 0a 20 20 20 20 20 20 20
descriptor 4:    00 00 00 ff 00 45 36 37 38 38 4a 41 31 31 39 38 30 31
extensions:      00
checksum:        3c

EDID version: 1.3
Manufacturer: AOC Model 2116 Serial Number --
Made in week 32 of 2008
Analog display, Input voltage level: 0.7/0.7 V
Sync: Separate 
Maximum image size: 46 cm x 29 cm
Gamma: 2.20
DPMS levels: Off
RGB color display
First detailed timing is preferred timing
Display x,y Chromaticity:
  Red:   0.6435, 0.3320
  Green: 0.2851, 0.6044
  Blue:  0.1513, 0.0751
  White: 0.3125, 0.3281
Established timings supported:
  720x400@70Hz 9:5 HorFreq: 31469 Hz Clock: 28.320 MHz
  640x480@60Hz 4:3 HorFreq: 31469 Hz Clock: 25.175 MHz
  640x480@67Hz 4:3 HorFreq: 35000 Hz Clock: 30.240 MHz
  640x480@72Hz 4:3 HorFreq: 37900 Hz Clock: 31.500 MHz
  640x480@75Hz 4:3 HorFreq: 37500 Hz Clock: 31.500 MHz
  800x600@56Hz 4:3 HorFreq: 35200 Hz Clock: 36.000 MHz
  800x600@60Hz 4:3 HorFreq: 37900 Hz Clock: 40.000 MHz
  800x600@72Hz 4:3 HorFreq: 48100 Hz Clock: 50.000 MHz
  800x600@75Hz 4:3 HorFreq: 46900 Hz Clock: 49.500 MHz
  832x624@75Hz 4:3 HorFreq: 49726 Hz Clock: 57.284 MHz
  1024x768@60Hz 4:3 HorFreq: 48400 Hz Clock: 65.000 MHz
  1024x768@70Hz 4:3 HorFreq: 56500 Hz Clock: 75.000 MHz
  1024x768@75Hz 4:3 HorFreq: 60000 Hz Clock: 78.750 MHz
  1280x1024@75Hz 5:4 HorFreq: 80000 Hz Clock: 135.000 MHz
Standard timings supported:
  1280x1024@60Hz 5:4 HorFreq: 64000 Hz Clock: 108.000 MHz
  1280x960@60Hz 4:3 HorFreq: 60000 Hz Clock: 108.000 MHz
  1440x900@60Hz 16:10 HorFreq: 55500 Hz Clock: 88.750 MHz
Detailed mode: Clock 146.000 MHz, 460 mm x 290 mm
               1680 1784 1960 2240 hborder 0
               1050 1053 1059 1089 vborder 0
               +hsync -vsync 
               VertFreq: 59 Hz, HorFreq: 65178 Hz
Monitor ranges (GTF): 56-75Hz V, 31-80kHz H, max dotclock 170MHz
Monitor name: 2116S
Serial number: --
Checksum: 0x3c (valid)
