
EDID (hex):
00ffffffffffff0038a3747901010101
280f01030e0000782e7cdda15e4fa923
0e4758bfef8045598180814f71598199
a9400101010156132000315819201050
130000000000001ea00f200031581c20
2880140000000000001e000000fd0032
780f640a000a202020202020000000fc
00565438305365726965730a202000c2

Extracted contents:
header:          00 ff ff ff ff ff ff 00
serial number:   38 a3 74 79 01 01 01 01 28 0f
version:         01 03
basic params:    0e 00 00 78 2e
chroma info:     7c dd a1 5e 4f a9 23 0e 47 58
established:     bf ef 80
standard:        45 59 81 80 81 4f 71 59 81 99 a9 40 01 01 01 01
descriptor 1:    56 13 20 00 31 58 19 20 10 50 13 00 00 00 00 00 00 1e
descriptor 2:    a0 0f 20 00 31 58 1c 20 28 80 14 00 00 00 00 00 00 1e
descriptor 3:    00 00 00 fd 00 32 78 0f 64 0a 00 0a 20 20 20 20 20 20
descriptor 4:    00 00 00 fc 00 56 54 38 30 53 65 72 69 65 73 0a 20 20
extensions:      00
checksum:        c2

EDID version: 1.3
Manufacturer: NEC Model 7974 Serial Number --
Analog display, Input voltage level: 0.7/0.3 V
Sync: Separate Composite SyncOnGreen 
Image size is variable
Gamma: 2.20
DPMS levels: Off
RGB color display
Default (sRGB) color space is primary color space
First detailed timing is preferred timing
Display x,y Chromaticity:
  Red:   0.6298, 0.3701
  Green: 0.3115, 0.6601
  Blue:  0.1396, 0.0556
  White: 0.2802, 0.3447
Established timings supported:
  720x400@70Hz 9:5 HorFreq: 31469 Hz Clock: 28.320 MHz
  640x480@60Hz 4:3 HorFreq: 31469 Hz Clock: 25.175 MHz
  640x480@67Hz 4:3 HorFreq: 35000 Hz Clock: 30.240 MHz
  640x480@72Hz 4:3 HorFreq: 37900 Hz Clock: 31.500 MHz
  640x480@75Hz 4:3 HorFreq: 37500 Hz Clock: 31.500 MHz
  800x600@56Hz 4:3 HorFreq: 35200 Hz Clock: 36.000 MHz
  800x600@60Hz 4:3 HorFreq: 37900 Hz Clock: 40.000 MHz
  800x600@72Hz 4:3 HorFreq: 48100 Hz Clock: 50.000 MHz
  800x600@75Hz 4:3 HorFreq: 46900 Hz Clock: 49.500 MHz
  832x624@75Hz 4:3 HorFreq: 49726 Hz Clock: 57.284 MHz
  1024x768@60Hz 4:3 HorFreq: 48400 Hz Clock: 65.000 MHz
  1024x768@70Hz 4:3 HorFreq: 56500 Hz Clock: 75.000 MHz
  1024x768@75Hz 4:3 HorFreq: 60000 Hz Clock: 78.750 MHz
  1280x1024@75Hz 5:4 HorFreq: 80000 Hz Clock: 135.000 MHz
  1152x870@75Hz 192:145 HorFreq: 67500 Hz Clock: 108.000 MHz
Standard timings supported:
  800x600@85Hz 4:3 HorFreq: 53700 Hz Clock: 56.250 MHz
  1280x1024@60Hz 5:4 HorFreq: 64000 Hz Clock: 108.000 MHz
  1280x960@75Hz 4:3
  1152x864@85Hz 4:3
  1280x1024@85Hz 5:4 HorFreq: 91100 Hz Clock: 157.500 MHz
  1600x1200@60Hz 4:3 HorFreq: 75000 Hz Clock: 162.000 MHz
Detailed mode: Clock 49.500 MHz, 0 mm x 0 mm
                800  816  896 1056 hborder 0
                600  601  604  625 vborder 0
               +hsync +vsync 
               VertFreq: 75 Hz, HorFreq: 46875 Hz
Detailed mode: Clock 40.000 MHz, 0 mm x 0 mm
                800  840  968 1056 hborder 0
                600  601  605  628 vborder 0
               +hsync +vsync 
               VertFreq: 60 Hz, HorFreq: 37878 Hz
Monitor ranges (GTF): 50-120Hz V, 15-100kHz H, max dotclock 100MHz
Monitor name: VT80Series
Checksum: 0xc2 (valid)
EDID block does NOT conform to EDID 1.3!
	sRGB is signaled, but the chromaticities do not match
One or more of the timings is out of range of the Monitor Ranges:
  Vertical Freq: 56 - 85 Hz
  Horizontal Freq: 31469 - 91100 Hz
  Maximum Clock: 162.000 MHz
EDID block does not conform at all!
	Bad year of manufacture
