
EDID (hex):
00ffffffffffff0009e5df0500000000
01160104951d10780af8909e59559c26
1a505400000001010101010101010101
0101010101013e1c56a0500016303020
360025a51000001ad41256a050001630
3020360025a51000001a000000fe0042
4f452048460a202020202020000000fe
0048423133335758312d3430320a000c

Extracted contents:
header:          00 ff ff ff ff ff ff 00
serial number:   09 e5 df 05 00 00 00 00 01 16
version:         01 04
basic params:    95 1d 10 78 0a
chroma info:     f8 90 9e 59 55 9c 26 1a 50 54
established:     00 00 00
standard:        01 01 01 01 01 01 01 01 01 01 01 01 01 01 01 01
descriptor 1:    3e 1c 56 a0 50 00 16 30 30 20 36 00 25 a5 10 00 00 1a
descriptor 2:    d4 12 56 a0 50 00 16 30 30 20 36 00 25 a5 10 00 00 1a
descriptor 3:    00 00 00 fe 00 42 4f 45 20 48 46 0a 20 20 20 20 20 20
descriptor 4:    00 00 00 fe 00 48 42 31 33 33 57 58 31 2d 34 30 32 0a
extensions:      00
checksum:        0c

EDID version: 1.4
Manufacturer: BOE Model 5df Serial Number --
Made in week 1 of 2012
Digital display
6 bits per primary color channel
DisplayPort interface
Maximum image size: 29 cm x 16 cm
Gamma: 2.20
Supported color formats: RGB 4:4:4, YCrCb 4:4:4
First detailed timing includes the native pixel format and preferred refresh rate
Display x,y Chromaticity:
  Red:   0.6201, 0.3505
  Green: 0.3339, 0.6093
  Blue:  0.1503, 0.1025
  White: 0.3125, 0.3281
Established timings supported:
Standard timings supported:
Detailed mode: Clock 72.300 MHz, 293 mm x 165 mm
               1366 1414 1446 1526 hborder 0
                768  771  777  790 vborder 0
               +hsync -vsync 
               VertFreq: 59 Hz, HorFreq: 47378 Hz
Detailed mode: Clock 48.200 MHz, 293 mm x 165 mm
               1366 1414 1446 1526 hborder 0
                768  771  777  790 vborder 0
               +hsync -vsync 
               VertFreq: 39 Hz, HorFreq: 31585 Hz
ASCII string: BOE HF
ASCII string: HB133WX1-402
Checksum: 0xc (valid)
EDID block does NOT conform to EDID 1.4!
	Missing name descriptor
	Missing monitor ranges
