
EDID (hex):
00ffffffffffff0009e5df0500000000
01190104951d10780a02a09659589028
1d505400000001010101010101010101
0101010101013e1c56a0500016303020
360025a51000001a0000000000000000
00000000000000000000000000fe0042
4f452048460a202020202020000000fe
0048423133335758312d3430320a00e7

Extracted contents:
header:          00 ff ff ff ff ff ff 00
serial number:   09 e5 df 05 00 00 00 00 01 19
version:         01 04
basic params:    95 1d 10 78 0a
chroma info:     02 a0 96 59 58 90 28 1d 50 54
established:     00 00 00
standard:        01 01 01 01 01 01 01 01 01 01 01 01 01 01 01 01
descriptor 1:    3e 1c 56 a0 50 00 16 30 30 20 36 00 25 a5 10 00 00 1a
descriptor 2:    00 00 00 00 00 00 00 00 00 00 00 00 00 00 00 00 00 00
descriptor 3:    00 00 00 fe 00 42 4f 45 20 48 46 0a 20 20 20 20 20 20
descriptor 4:    00 00 00 fe 00 48 42 31 33 33 57 58 31 2d 34 30 32 0a
extensions:      00
checksum:        e7

EDID version: 1.4
Manufacturer: BOE Model 5df Serial Number --
Made in week 1 of 2015
Digital display
6 bits per primary color channel
DisplayPort interface
Maximum image size: 29 cm x 16 cm
Gamma: 2.20
Supported color formats: RGB 4:4:4, YCrCb 4:4:4
First detailed timing includes the native pixel format and preferred refresh rate
Display x,y Chromaticity:
  Red:   0.5859, 0.3476
  Green: 0.3437, 0.5644
  Blue:  0.1582, 0.1152
  White: 0.3125, 0.3281
Established timings supported:
Standard timings supported:
Detailed mode: Clock 72.300 MHz, 293 mm x 165 mm
               1366 1414 1446 1526 hborder 0
                768  771  777  790 vborder 0
               +hsync -vsync 
               VertFreq: 59 Hz, HorFreq: 47378 Hz
Manufacturer-specified data, tag 0
ASCII string: BOE HF
ASCII string: HB133WX1-402
Checksum: 0xe7 (valid)
EDID block does NOT conform to EDID 1.4!
	Missing name descriptor
	Missing monitor ranges
