edid-decode (hex):

00 ff ff ff ff ff ff 00 4c a3 42 56 00 00 00 00
00 0e 01 03 80 1e 12 78 0a 87 f5 94 57 4f 8c 27
27 50 54 00 00 00 01 01 01 01 01 01 01 01 01 01
01 01 01 01 01 01 ed 1a 00 80 50 00 30 30 10 30
36 00 31 b7 10 00 00 19 00 00 00 0f 00 00 00 00
00 00 00 00 00 12 6e 13 20 01 00 00 00 fe 00 53
41 4d 53 55 4e 47 0a 20 20 20 20 20 00 00 00 fe
00 4c 54 4e 31 34 30 57 31 2d 4c 30 31 47 00 86

----------------

Block 0, Base EDID:
  EDID Structure Version & Revision: 1.3
  Vendor & Product Identification:
    Manufacturer: SEC
    Model: 22082
    Made in: 2004
  Basic Display Parameters & Features:
    Digital display
    Maximum image size: 30 cm x 18 cm
    Gamma: 2.20
    RGB color display
    First detailed timing is the preferred timing
  Color Characteristics:
    Red  : 0.5800, 0.3398
    Green: 0.3095, 0.5498
    Blue : 0.1552, 0.1552
    White: 0.3134, 0.3291
  Established Timings I & II: none
  Standard Timings: none
  Detailed Timing Descriptors:
    DTD 1:  1280x768    59.995056 Hz   5:3     48.956 kHz     68.930000 MHz (305 mm x 183 mm)
                 Hfront   16 Hsync  48 Hback   64 Hpol N
                 Vfront    3 Vsync   6 Vback   39 Vpol N
    Manufacturer-Specified Display Descriptor (0x0f): 00 0f 00 00 00 00 00 00 00 00 00 12 6e 13 20 01 '............n. .'
    Alphanumeric Data String: 'SAMSUNG'
    Alphanumeric Data String: 'LTN140W1-L01G'
Checksum: 0x86

----------------

Failures:

Block 0, Base EDID:
  Missing Display Product Name.
  Missing Display Range Limits Descriptor.

EDID conformity: FAIL
