
EDID (hex):
00ffffffffffff004ca3425600000000
000e0103801e12780a87f594574f8c27
27505400000001010101010101010101
010101010101ed1a0080500030301030
360031b7100000190000000f00000000
0000000000126e132001000000fe0053
414d53554e470a2020202020000000fe
004c544e31343057312d4c3031470086

Extracted contents:
header:          00 ff ff ff ff ff ff 00
serial number:   4c a3 42 56 00 00 00 00 00 0e
version:         01 03
basic params:    80 1e 12 78 0a
chroma info:     87 f5 94 57 4f 8c 27 27 50 54
established:     00 00 00
standard:        01 01 01 01 01 01 01 01 01 01 01 01 01 01 01 01
descriptor 1:    ed 1a 00 80 50 00 30 30 10 30 36 00 31 b7 10 00 00 19
descriptor 2:    00 00 00 0f 00 00 00 00 00 00 00 00 00 12 6e 13 20 01
descriptor 3:    00 00 00 fe 00 53 41 4d 53 55 4e 47 0a 20 20 20 20 20
descriptor 4:    00 00 00 fe 00 4c 54 4e 31 34 30 57 31 2d 4c 30 31 47
extensions:      00
checksum:        86

EDID version: 1.3
Manufacturer: SEC Model 5642 Serial Number --
Digital display
Maximum image size: 30 cm x 18 cm
Gamma: 2.20
RGB color display
First detailed timing is preferred timing
Display x,y Chromaticity:
  Red:   0.5800, 0.3398
  Green: 0.3095, 0.5498
  Blue:  0.1552, 0.1552
  White: 0.3134, 0.3291
Established timings supported:
Standard timings supported:
Detailed mode: Clock 68.930 MHz, 305 mm x 183 mm
               1280 1296 1344 1408 hborder 0
                768  771  777  816 vborder 0
               -hsync -vsync 
               VertFreq: 59 Hz, HorFreq: 48955 Hz
Manufacturer-specified data, tag 15
ASCII string: SAMSUNG
ASCII string: LTN140W1-L01G
Checksum: 0x86 (valid)
EDID block does NOT conform to EDID 1.3!
	Missing name descriptor
	Missing monitor ranges
EDID block does not conform at all!
	Bad year of manufacture
