
EDID (hex):
00ffffffffffff000daf071800000000
02130103802917780ae6059f5c569b2a
16505400000001010101010101010101
010101010101293680a070381f403020
350098e610000018000000fe004e3138
3448362d4c30320a2020000000fe0043
4d4f0a202020202020202020000000fe
004e31383448362d4c30320a20200035

Extracted contents:
header:          00 ff ff ff ff ff ff 00
serial number:   0d af 07 18 00 00 00 00 02 13
version:         01 03
basic params:    80 29 17 78 0a
chroma info:     e6 05 9f 5c 56 9b 2a 16 50 54
established:     00 00 00
standard:        01 01 01 01 01 01 01 01 01 01 01 01 01 01 01 01
descriptor 1:    29 36 80 a0 70 38 1f 40 30 20 35 00 98 e6 10 00 00 18
descriptor 2:    00 00 00 fe 00 4e 31 38 34 48 36 2d 4c 30 32 0a 20 20
descriptor 3:    00 00 00 fe 00 43 4d 4f 0a 20 20 20 20 20 20 20 20 20
descriptor 4:    00 00 00 fe 00 4e 31 38 34 48 36 2d 4c 30 32 0a 20 20
extensions:      00
checksum:        35

EDID version: 1.3
Manufacturer: CMO Model 1807 Serial Number --
Made in week 2 of 2009
Digital display
Maximum image size: 41 cm x 23 cm
Gamma: 2.20
RGB color display
First detailed timing is preferred timing
Display x,y Chromaticity:
  Red:   0.6240, 0.3613
  Green: 0.3369, 0.6074
  Blue:  0.1640, 0.0859
  White: 0.3134, 0.3291
Established timings supported:
Standard timings supported:
Detailed mode: Clock 138.650 MHz, 408 mm x 230 mm
               1920 1968 2000 2080 hborder 0
               1080 1083 1088 1111 vborder 0
               -hsync -vsync 
               VertFreq: 59 Hz, HorFreq: 66658 Hz
ASCII string: N184H6-L02
ASCII string: CMO
ASCII string: N184H6-L02
Checksum: 0x35 (valid)
EDID block does NOT conform to EDID 1.3!
	Missing name descriptor
	Missing monitor ranges
