edid-decode (hex):

00 ff ff ff ff ff ff 00 10 ac b6 40 53 37 32 38
1f 19 01 04 b5 3c 22 78 3a 72 25 ac 50 33 b7 26
0b 50 54 00 00 00 01 01 01 01 01 01 01 01 01 01
01 01 01 01 01 01 9f 0b 50 a0 30 e0 0e 10 30 20
35 00 55 50 21 00 00 1a 00 00 00 ff 00 46 31 4a
43 4d 35 37 55 38 32 37 53 0a 00 00 00 fc 00 44
45 4c 4c 20 55 50 32 37 31 35 4b 0a 00 00 00 fd
00 1d 4b 1f b4 36 01 0a 20 20 20 20 20 20 01 80

70 12 79 00 00 12 00 16 80 10 00 00 ff 09 3f 0b
00 00 00 00 00 44 45 4c b6 40 53 37 32 38 03 00
28 10 5d 00 04 ff 09 9f 00 2f 80 1f 00 3f 0b 28
00 02 00 09 00 c4 bc 00 04 ff 09 9f 00 2f 80 1f
00 3f 0b 51 00 02 00 09 00 00 00 00 00 00 00 00
00 00 00 00 00 00 00 00 00 00 00 00 00 00 00 00
00 00 00 00 00 00 00 00 00 00 00 00 00 00 00 00
00 00 00 00 00 00 00 00 00 00 00 00 00 00 7f 90

----------------

Block 0, Base EDID:
  EDID Structure Version & Revision: 1.4
  Vendor & Product Identification:
    Manufacturer: DEL
    Model: 16566
    Serial Number: ...
    Made in: week 31 of 2015
  Basic Display Parameters & Features:
    Digital display
    Bits per primary color channel: 10
    DisplayPort interface
    Maximum image size: 60 cm x 34 cm
    Gamma: 2.20
    DPMS levels: Off
    Supported color formats: RGB 4:4:4, YCrCb 4:4:4, YCrCb 4:2:2
    First detailed timing includes the native pixel format and preferred refresh rate
  Color Characteristics:
    Red  : 0.6728, 0.3154
    Green: 0.1992, 0.7167
    Blue : 0.1484, 0.0449
    White: 0.3134, 0.3291
  Established Timings I & II: none
  Standard Timings: none
  Detailed Timing Descriptors:
    DTD 1:   848x480    59.744714 Hz  53:30    29.514 kHz     29.750000 MHz (597 mm x 336 mm)
                 Hfront   48 Hsync  32 Hback   80 Hpol P
                 Vfront    3 Vsync   5 Vback    6 Vpol N
    Display Product Serial Number: ...
    Display Product Name: 'DELL UP2715K'
    Display Range Limits:
      Monitor ranges (Bare Limits): 29-75 Hz V, 31-180 kHz H, max dotclock 540 MHz
  Extension blocks: 1
Checksum: 0x80

----------------

Block 1, DisplayID Extension Block:
  Version: 1.2
  Extension Count: 0
  Display Product Type: Extension Section
  Tiled Display Topology Data Block (0x12):
    Capabilities:
      Behavior if it is the only tile: Undefined
      Behavior if more than one tile and fewer than total number of tiles: Undefined
    Tiled display consists of a single physical display enclosure
    Num horizontal tiles: 2 Num vertical tiles: 1
    Tile location: 0, 0
    Tile resolution: 2560x2880
    Tiled Display Manufacturer/Vendor ID: DEL
    Tiled Display Product ID Code: 16566
    Tiled Display Serial Number: ...
  Video Timing Modes Type 1 - Detailed Timings Data Block:
    DTD:  2560x2880   29.986961 Hz  16:9     87.592 kHz    238.250000 MHz (aspect 16:9, no 3D stereo)
               Hfront   48 Hsync  32 Hback   80 Hpol P
               Vfront    3 Vsync  10 Vback   28 Vpol N
    DTD:  2560x2880   59.981580 Hz  16:9    177.665 kHz    483.250000 MHz (aspect 16:9, no 3D stereo)
               Hfront   48 Hsync  32 Hback   80 Hpol P
               Vfront    3 Vsync  10 Vback   69 Vpol N
  Checksum: 0x7f
Checksum: 0x90

----------------

Warnings:

EDID:
  Base EDID: Some timings are out of range of the Monitor Ranges:
    Horizontal Freq: 29.513 - 177.665 kHz (Monitor: 31.000 - 180.000 kHz)

Failures:

Block 1, DisplayID Extension Block:
  DisplayID Base Block has no product type.
EDID:
  DisplayID: Missing DisplayID Product Identification Data Block.
  DisplayID: DisplayID expects at least one preferred timing.

EDID conformity: FAIL
