
EDID (hex):
00ffffffffffff0010acb64053373238
1f190104b53c22783a7225ac5033b726
0b50542108008100b300d100a9408180
d1c001010101565e00a0a0a029503020
350055502100001a000000ff0046314a
434d353755383237530a000000fc0044
454c4c205550323731354b0a000000fd
001d4b1fb436010a202020202020029d
02030cf123090707830100004dd000a0
f0703e805020650c555021000018565e
00a0a0a029503020350055502100001a
00000000000000000000000000000000
00000000000000000000000000000000
00000000000000000000000000000000
00000000000000000000000000000000
00000000000000000000000000000034
701279000012001682101000ff093f0b
000000000044454cb640533732380300
3c4cd00084ff0e9f002f801f006f083d
0002000400105d0004ff099f002f801f
003f0b280002000900c4bc0004ff099f
002f801f003f0b51000200090007000a
08810008040004021000000000000000
0000000000000000000000000000c990

Extracted contents:
header:          00 ff ff ff ff ff ff 00
serial number:   10 ac b6 40 53 37 32 38 1f 19
version:         01 04
basic params:    b5 3c 22 78 3a
chroma info:     72 25 ac 50 33 b7 26 0b 50 54
established:     21 08 00
standard:        81 00 b3 00 d1 00 a9 40 81 80 d1 c0 01 01 01 01
descriptor 1:    56 5e 00 a0 a0 a0 29 50 30 20 35 00 55 50 21 00 00 1a
descriptor 2:    00 00 00 ff 00 46 31 4a 43 4d 35 37 55 38 32 37 53 0a
descriptor 3:    00 00 00 fc 00 44 45 4c 4c 20 55 50 32 37 31 35 4b 0a
descriptor 4:    00 00 00 fd 00 1d 4b 1f b4 36 01 0a 20 20 20 20 20 20
extensions:      02
checksum:        9d

EDID version: 1.4
Manufacturer: DEL Model 40b6 Serial Number --
Made in week 31 of 2015
Digital display
10 bits per primary color channel
DisplayPort interface
Maximum image size: 60 cm x 34 cm
Gamma: 2.20
DPMS levels: Off
Supported color formats: RGB 4:4:4, YCrCb 4:4:4, YCrCb 4:2:2
First detailed timing includes the native pixel format and preferred refresh rate
Display x,y Chromaticity:
  Red:   0.6728, 0.3154
  Green: 0.1992, 0.7167
  Blue:  0.1484, 0.0449
  White: 0.3134, 0.3291
Established timings supported:
  640x480@60Hz 4:3 HorFreq: 31469 Hz Clock: 25.175 MHz
  800x600@60Hz 4:3 HorFreq: 37900 Hz Clock: 40.000 MHz
  1024x768@60Hz 4:3 HorFreq: 48400 Hz Clock: 65.000 MHz
Standard timings supported:
  1280x800@60Hz 16:10
  1680x1050@60Hz 16:10 HorFreq: 64700 Hz Clock: 119.000 MHz
  1920x1200@60Hz 16:10 HorFreq: 74000 Hz Clock: 154.000 MHz
  1600x1200@60Hz 4:3 HorFreq: 75000 Hz Clock: 162.000 MHz
  1280x1024@60Hz 5:4 HorFreq: 64000 Hz Clock: 108.000 MHz
  1920x1080@60Hz 16:9
Detailed mode: Clock 241.500 MHz, 597 mm x 336 mm
               2560 2608 2640 2720 hborder 0
               1440 1443 1448 1481 vborder 0
               +hsync -vsync 
               VertFreq: 59 Hz, HorFreq: 88786 Hz
Serial number: --
Monitor name: DELL UP2715K
Monitor ranges (bare limits): 29-75Hz V, 31-180kHz H, max dotclock 540MHz
Has 2 extension blocks
Checksum: 0x9d (valid)

CTA extension block
Extension version: 3
8 bytes of CTA data
  Audio data block
    Linear PCM, max channels 2
      Supported sample rates (kHz): 48 44.1 32
      Supported sample sizes (bits): 24 20 16
  Speaker allocation data block
    Speaker map:
      FL/FR - Front Left/Right
Underscans PC formats by default
Basic audio support
Supports YCbCr 4:4:4
Supports YCbCr 4:2:2
1 native detailed modes
Detailed mode: Clock 533.250 MHz, 597 mm x 336 mm
               3840 3920 3952 4000 hborder 0
               2160 2214 2219 2222 vborder 0
               -hsync -vsync 
               VertFreq: 59 Hz, HorFreq: 133312 Hz
Detailed mode: Clock 241.500 MHz, 597 mm x 336 mm
               2560 2608 2640 2720 hborder 0
               1440 1443 1448 1481 vborder 0
               +hsync -vsync 
               VertFreq: 59 Hz, HorFreq: 88786 Hz
Checksum: 0x34 (valid)


DisplayID extension block
Extension version: 18
Length 121, version 18, extension count 0
Checksum: 0xc9 (valid)
tiled display block: capabilities 0x00000082
num horizontal tiles 2, num vertical tiles 1
tile location (1, 0)
tile dimensions (2560, 2880)
Type 1 detailed timing: aspect: 16:9, Preferred  
Detailed mode: Clock 533.240 MHz, 0 mm x 0 mm
               3839 3886 3917 3998
               2159 2161 2165 2220
               +hsync -vsync
Type 1 detailed timing: aspect: 16:9,  
Detailed mode: Clock 238.240 MHz, 0 mm x 0 mm
               2559 2606 2637 2718
               2879 2881 2890 2919
               +hsync -vsync
Type 1 detailed timing: aspect: 16:9,  
Detailed mode: Clock 483.240 MHz, 0 mm x 0 mm
               2559 2606 2637 2718
               2879 2881 2890 2960
               +hsync -vsync
VESA DMT timing block

EDID block does not conform at all!
	Both the serial number and the serial string are set
