
EDID (hex):
00ffffffffffff0009e5ea0500000000
01170104801f11780abf60945c559427
19505400000001010101010101010101
0101010101013e1c56a0500016303020
360035ad1000001a0000000000000000
0000000000000000001a000000fe0042
4f452044540a202020202020000000fe
0048423134305758312d3130300a0041

Extracted contents:
header:          00 ff ff ff ff ff ff 00
serial number:   09 e5 ea 05 00 00 00 00 01 17
version:         01 04
basic params:    80 1f 11 78 0a
chroma info:     bf 60 94 5c 55 94 27 19 50 54
established:     00 00 00
standard:        01 01 01 01 01 01 01 01 01 01 01 01 01 01 01 01
descriptor 1:    3e 1c 56 a0 50 00 16 30 30 20 36 00 35 ad 10 00 00 1a
descriptor 2:    00 00 00 00 00 00 00 00 00 00 00 00 00 00 00 00 00 1a
descriptor 3:    00 00 00 fe 00 42 4f 45 20 44 54 0a 20 20 20 20 20 20
descriptor 4:    00 00 00 fe 00 48 42 31 34 30 57 58 31 2d 31 30 30 0a
extensions:      00
checksum:        41

EDID version: 1.4
Manufacturer: BOE Model 5ea Serial Number --
Made in week 1 of 2013
Digital display
Color depth is undefined
Digital interface is not defined
Maximum image size: 31 cm x 17 cm
Gamma: 2.20
Supported color formats: RGB 4:4:4, YCrCb 4:4:4
First detailed timing includes the native pixel format and preferred refresh rate
Display x,y Chromaticity:
  Red:   0.5800, 0.3623
  Green: 0.3349, 0.5810
  Blue:  0.1533, 0.0996
  White: 0.3125, 0.3281
Established timings supported:
Standard timings supported:
Detailed mode: Clock 72.300 MHz, 309 mm x 173 mm
               1366 1414 1446 1526 hborder 0
                768  771  777  790 vborder 0
               +hsync -vsync 
               VertFreq: 59 Hz, HorFreq: 47378 Hz
Manufacturer-specified data, tag 0
ASCII string: BOE DT
ASCII string: HB140WX1-100
Checksum: 0x41 (valid)
EDID block does NOT conform to EDID 1.4!
	Missing name descriptor
	Missing monitor ranges
