edid-decode (hex):

00 ff ff ff ff ff ff 00 38 a3 f6 79 01 01 01 01
0a 15 01 03 0f 00 00 78 2a 07 38 a2 5a 55 96 25
0f 4d 4f bf ef 80 71 4f 81 40 90 40 a9 40 81 80
81 c0 a9 c0 d1 c0 64 19 00 40 41 00 26 30 18 88
36 00 00 00 00 00 00 18 00 00 00 fd 00 30 79 18
66 11 00 0a 20 20 20 20 20 20 00 00 00 fc 00 4e
50 2d 56 32 36 30 58 73 0a 20 20 20 00 00 00 ff
00 30 38 30 30 30 30 31 46 43 0a 20 20 20 01 d3

10 01 06 00 00 51 36 00 80 41 00 37 30 50 70 13
00 00 00 00 00 00 1c 1c 3f 00 d0 51 d0 34 20 60
88 13 00 00 00 00 00 00 1c 66 21 56 aa 51 00 1e
30 46 8f 33 00 00 00 00 00 00 1e 9e 20 00 90 51
20 1f 30 48 80 36 00 00 00 00 00 00 1c 9a 29 a0
d0 51 84 22 30 50 98 36 00 00 00 00 00 00 1c 21
39 90 30 62 1a 27 40 68 b0 36 00 00 00 00 00 00
1c 00 00 00 00 00 00 00 00 00 00 00 00 00 00 25

00 ff ff ff ff ff ff 00 38 a3 f6 79 01 01 01 01
0a 15 01 03 0f 00 00 78 2a 07 38 a2 5a 55 96 25
0f 4d 4f bf ef 80 71 4f 81 40 90 40 a9 40 81 80
81 c0 a9 c0 d1 c0 64 19 00 40 41 00 26 30 18 88
36 00 00 00 00 00 00 18 00 00 00 fd 00 30 79 18
66 11 00 0a 20 20 20 20 20 20 00 00 00 fc 00 4e
50 2d 56 32 36 30 58 73 0a 20 20 20 00 00 00 ff
00 30 38 30 30 30 30 31 46 43 0a 20 20 20 01 d3

10 01 06 00 00 51 36 00 80 41 00 37 30 50 70 13
00 00 00 00 00 00 1c 1c 3f 00 d0 51 d0 34 20 60
88 13 00 00 00 00 00 00 1c 66 21 56 aa 51 00 1e
30 46 8f 33 00 00 00 00 00 00 1e 9e 20 00 90 51
20 1f 30 48 80 36 00 00 00 00 00 00 1c 9a 29 a0
d0 51 84 22 30 50 98 36 00 00 00 00 00 00 1c 21
39 90 30 62 1a 27 40 68 b0 36 00 00 00 00 00 00
1c 00 00 00 00 00 00 00 00 00 00 00 00 00 00 25

----------------

Block 0, Base EDID:
  EDID Structure Version & Revision: 1.3
  Vendor & Product Identification:
    Manufacturer: NEC
    Model: 31222
    Serial Number: ...
    Made in: week 10 of 2011
  Basic Display Parameters & Features:
    Analog display
    Signal Level Standard: 0.700 : 0.300 : 1.000 V p-p
    Blank level equals black level
    Sync: Separate Composite SyncOnGreen Serration
    Image size is variable
    Gamma: 2.20
    DPMS levels: Off
    RGB color display
    First detailed timing is the preferred timing
  Color Characteristics:
    Red  : 0.6328, 0.3515
    Green: 0.3330, 0.5888
    Blue : 0.1445, 0.0615
    White: 0.3027, 0.3085
  Established Timings I & II:
    IBM     :   720x400    70.081663 Hz   9:5     31.467 kHz     28.320000 MHz
    DMT 0x04:   640x480    59.940476 Hz   4:3     31.469 kHz     25.175000 MHz
    Apple   :   640x480    66.666667 Hz   4:3     35.000 kHz     30.240000 MHz
    DMT 0x05:   640x480    72.808802 Hz   4:3     37.861 kHz     31.500000 MHz
    DMT 0x06:   640x480    75.000000 Hz   4:3     37.500 kHz     31.500000 MHz
    DMT 0x08:   800x600    56.250000 Hz   4:3     35.156 kHz     36.000000 MHz
    DMT 0x09:   800x600    60.316541 Hz   4:3     37.879 kHz     40.000000 MHz
    DMT 0x0a:   800x600    72.187572 Hz   4:3     48.077 kHz     50.000000 MHz
    DMT 0x0b:   800x600    75.000000 Hz   4:3     46.875 kHz     49.500000 MHz
    Apple   :   832x624    74.551266 Hz   4:3     49.726 kHz     57.284000 MHz
    DMT 0x10:  1024x768    60.003840 Hz   4:3     48.363 kHz     65.000000 MHz
    DMT 0x11:  1024x768    70.069359 Hz   4:3     56.476 kHz     75.000000 MHz
    DMT 0x12:  1024x768    75.028582 Hz   4:3     60.023 kHz     78.750000 MHz
    DMT 0x24:  1280x1024   75.024675 Hz   5:4     79.976 kHz    135.000000 MHz
    Apple   :  1152x870    75.061550 Hz 192:145   68.681 kHz    100.000000 MHz
  Standard Timings:
    DMT 0x15:  1152x864    75.000000 Hz   4:3     67.500 kHz    108.000000 MHz
    DMT 0x20:  1280x960    60.000000 Hz   4:3     60.000 kHz    108.000000 MHz
    DMT 0x2a:  1400x1050   59.978442 Hz   4:3     65.317 kHz    121.750000 MHz
    DMT 0x33:  1600x1200   60.000000 Hz   4:3     75.000 kHz    162.000000 MHz
    DMT 0x23:  1280x1024   60.019740 Hz   5:4     63.981 kHz    108.000000 MHz
    DMT 0x55:  1280x720    60.000000 Hz  16:9     45.000 kHz     74.250000 MHz
    DMT 0x53:  1600x900    60.000000 Hz  16:9     60.000 kHz    108.000000 MHz (RB)
    DMT 0x52:  1920x1080   60.000000 Hz  16:9     67.500 kHz    148.500000 MHz
  Detailed Timing Descriptors:
    DTD 1:  1024x768    60.003840 Hz   4:3     48.363 kHz     65.000000 MHz
                 Hfront   24 Hsync 136 Hback  160 Hpol N
                 Vfront    3 Vsync   6 Vback   29 Vpol N
    Display Range Limits:
      Monitor ranges (GTF): 48-121 Hz V, 24-102 kHz H, max dotclock 170 MHz
    Display Product Name: 'NP-V260Xs'
    Display Product Serial Number: ...
  Extension blocks: 1
Checksum: 0xd3

----------------

Block 1, Video Timing Extension Block:
  Version: 1
  Detailed Timing Descriptors:
    DTD:  1024x768   119.996479 Hz   4:3     98.757 kHz    139.050000 MHz
               Hfront   80 Hsync 112 Hback  192 Hpol N
               Vfront    1 Vsync   3 Vback   51 Vpol P
    DTD:  1280x720   119.996910 Hz  16:9     92.638 kHz    161.560000 MHz
               Hfront   96 Hsync 136 Hback  232 Hpol N
               Vfront    1 Vsync   3 Vback   48 Vpol P
    DTD:  1366x768    59.789541 Hz 683:384   47.712 kHz     85.500000 MHz
               Hfront   70 Hsync 143 Hback  213 Hpol P
               Vfront    3 Vsync   3 Vback   24 Vpol P
    DTD:  1280x800    59.810326 Hz  16:10    49.702 kHz     83.500000 MHz
               Hfront   72 Hsync 128 Hback  200 Hpol N
               Vfront    3 Vsync   6 Vback   22 Vpol P
    DTD:  1440x900    59.887445 Hz  16:10    55.935 kHz    106.500000 MHz
               Hfront   80 Hsync 152 Hback  232 Hpol N
               Vfront    3 Vsync   6 Vback   25 Vpol P
    DTD:  1680x1050   59.954250 Hz  16:10    65.290 kHz    146.250000 MHz
               Hfront  104 Hsync 176 Hback  280 Hpol N
               Vfront    3 Vsync   6 Vback   30 Vpol P
Checksum: 0x25  Unused space in Extension Block: 14 bytes

----------------

Block 2, Unknown EDID Extension Block 0x00:
  00 ff ff ff ff ff ff 00 38 a3 f6 79 01 01 01 01 '........8..y....'
  0a 15 01 03 0f 00 00 78 2a 07 38 a2 5a 55 96 25 '.......x*.8.ZU.%'
  0f 4d 4f bf ef 80 71 4f 81 40 90 40 a9 40 81 80 '.MO...qO.@.@.@..'
  81 c0 a9 c0 d1 c0 64 19 00 40 41 00 26 30 18 88 '......d..@A.&0..'
  36 00 00 00 00 00 00 18 00 00 00 fd 00 30 79 18 '6............0y.'
  66 11 00 0a 20 20 20 20 20 20 00 00 00 fc 00 4e 'f...      .....N'
  50 2d 56 32 36 30 58 73 0a 20 20 20 00 00 00 ff 'P-V260Xs.   ....'
  00 30 38 30 30 30 30 31 46 43 0a 20 20 20 01 d3 '.0800001FC.   ..'
Checksum: 0xd3

----------------

Block 3, Video Timing Extension Block:
  Version: 1
  Detailed Timing Descriptors:
    DTD:  1024x768   119.996479 Hz   4:3     98.757 kHz    139.050000 MHz
               Hfront   80 Hsync 112 Hback  192 Hpol N
               Vfront    1 Vsync   3 Vback   51 Vpol P
    DTD:  1280x720   119.996910 Hz  16:9     92.638 kHz    161.560000 MHz
               Hfront   96 Hsync 136 Hback  232 Hpol N
               Vfront    1 Vsync   3 Vback   48 Vpol P
    DTD:  1366x768    59.789541 Hz 683:384   47.712 kHz     85.500000 MHz
               Hfront   70 Hsync 143 Hback  213 Hpol P
               Vfront    3 Vsync   3 Vback   24 Vpol P
    DTD:  1280x800    59.810326 Hz  16:10    49.702 kHz     83.500000 MHz
               Hfront   72 Hsync 128 Hback  200 Hpol N
               Vfront    3 Vsync   6 Vback   22 Vpol P
    DTD:  1440x900    59.887445 Hz  16:10    55.935 kHz    106.500000 MHz
               Hfront   80 Hsync 152 Hback  232 Hpol N
               Vfront    3 Vsync   6 Vback   25 Vpol P
    DTD:  1680x1050   59.954250 Hz  16:10    65.290 kHz    146.250000 MHz
               Hfront  104 Hsync 176 Hback  280 Hpol N
               Vfront    3 Vsync   6 Vback   30 Vpol P
Checksum: 0x25  Unused space in Extension Block: 14 bytes

----------------

Failures:

Block 2, Base EDID:
  Unknown Extension Block.
EDID:
  Base EDID: EDID specified 1 extension block(s), but found 3 extension block(s).
  Base EDID: EDID 1.3 requires a Block Map Extension in Block 1 if there are more than 2 blocks in the EDID.

EDID conformity: FAIL
