edid-decode (hex):

00 ff ff ff ff ff ff 00 04 72 00 32 eb 16 80 81
12 12 01 03 68 21 13 78 ca f3 20 9b 57 50 8f 28
26 50 54 ad e0 00 81 c0 01 01 01 01 01 01 01 01
01 01 01 01 01 01 1a 1d 00 80 51 d0 1c 20 40 80
35 00 4c bb 10 00 00 18 00 00 00 fd 00 3b 4b 1f
40 0a 00 0a 20 20 20 20 20 20 00 00 00 fc 00 58
31 35 33 57 0a 20 20 20 20 20 20 20 00 00 00 ff
00 4c 43 45 30 44 30 30 39 38 35 30 30 0a 00 d1

00 ff ff ff ff ff ff 00 04 72 00 32 eb 16 80 81
12 12 01 03 68 21 13 78 ca f3 20 9b 57 50 8f 28
26 50 54 ad e0 00 81 c0 01 01 01 01 01 01 01 01
01 01 01 01 01 01 1a 1d 00 80 51 d0 1c 20 40 80
35 00 4c bb 10 00 00 18 00 00 00 fd 00 3b 4b 1f
40 0a 00 0a 20 20 20 20 20 20 00 00 00 fc 00 58
31 35 33 57 0a 20 20 20 20 20 20 20 00 00 00 ff
00 4c 43 45 30 44 30 30 39 38 35 30 30 0a 00 d1

----------------

Block 0, Base EDID:
  EDID Structure Version & Revision: 1.3
  Vendor & Product Identification:
    Manufacturer: ACR
    Model: 12800
    Serial Number: ...
    Made in: week 18 of 2008
  Basic Display Parameters & Features:
    Analog display
    Signal Level Standard: 0.700 : 0.000 : 0.700 V p-p
    Blank level equals black level
    Sync: Separate
    Maximum image size: 33 cm x 19 cm
    Gamma: 2.20
    DPMS levels: Standby Suspend
    RGB color display
    First detailed timing is the preferred timing
  Color Characteristics:
    Red  : 0.6083, 0.3427
    Green: 0.3125, 0.5615
    Blue : 0.1562, 0.1503
    White: 0.3125, 0.3281
  Established Timings I & II:
    IBM     :   720x400    70.081663 Hz   9:5     31.467 kHz     28.320000 MHz
    DMT 0x04:   640x480    59.940476 Hz   4:3     31.469 kHz     25.175000 MHz
    DMT 0x05:   640x480    72.808802 Hz   4:3     37.861 kHz     31.500000 MHz
    DMT 0x06:   640x480    75.000000 Hz   4:3     37.500 kHz     31.500000 MHz
    DMT 0x09:   800x600    60.316541 Hz   4:3     37.879 kHz     40.000000 MHz
    DMT 0x0a:   800x600    72.187572 Hz   4:3     48.077 kHz     50.000000 MHz
    DMT 0x0b:   800x600    75.000000 Hz   4:3     46.875 kHz     49.500000 MHz
    Apple   :   832x624    74.551266 Hz   4:3     49.726 kHz     57.284000 MHz
  Standard Timings:
    DMT 0x55:  1280x720    60.000000 Hz  16:9     45.000 kHz     74.250000 MHz
  Detailed Timing Descriptors:
    DTD 1:  1280x720    59.855126 Hz  16:9     44.772 kHz     74.500000 MHz (332 mm x 187 mm)
                 Hfront   64 Hsync 128 Hback  192 Hpol N
                 Vfront    3 Vsync   5 Vback   20 Vpol N
    Display Range Limits:
      Monitor ranges (GTF): 59-75 Hz V, 31-64 kHz H, max dotclock 100 MHz
    Display Product Name: 'X153W'
    Display Product Serial Number: ...
Checksum: 0xd1

----------------

Block 1, Unknown EDID Extension Block 0x00:
  00 ff ff ff ff ff ff 00 04 72 00 32 eb 16 80 81 '.........r.2....'
  12 12 01 03 68 21 13 78 ca f3 20 9b 57 50 8f 28 '....h!.x.. .WP.('
  26 50 54 ad e0 00 81 c0 01 01 01 01 01 01 01 01 '&PT.............'
  01 01 01 01 01 01 1a 1d 00 80 51 d0 1c 20 40 80 '..........Q.. @.'
  35 00 4c bb 10 00 00 18 00 00 00 fd 00 3b 4b 1f '5.L..........;K.'
  40 0a 00 0a 20 20 20 20 20 20 00 00 00 fc 00 58 '@...      .....X'
  31 35 33 57 0a 20 20 20 20 20 20 20 00 00 00 ff '153W.       ....'
  00 4c 43 45 30 44 30 30 39 38 35 30 30 0a 00 d1 '.LCE0D0098500...'
Checksum: 0xd1

----------------

Failures:

Block 1, Base EDID:
  Unknown Extension Block.
EDID:
  Base EDID: EDID specified 0 extension block(s), but found 1 extension block(s).

EDID conformity: FAIL
