
EDID (hex):
00ffffffffffff0009e5850900000000
1c1e0104b5221578037ce5a4554c9f26
0f505400000001010101010101010101
0101010101016b6e00a0a04084603020
360058d71000001a000000fd0c3ca51f
1f4e010a202020202020000000fe0042
4f452043510a202020202020000000fe
004e4531363051444d2d4e59310a02ec
02031d00e3058000e60605016a6a246d
1a000002033ca500046a246a24000000
00000000000000000000000000000000
00000000000000000000000000000000
00000000000000000000000000000000
00000000000000000000000000000000
00000000000000000000000000000000
000000000000000000000000000000ff
7013790000030114a52f0185ff099f00
2f001f003f0683000200050000000000
00000000000000000000000000000000
00000000000000000000000000000000
00000000000000000000000000000000
00000000000000000000000000000000
00000000000000000000000000000000
00000000000000000000000000003e90

Extracted contents:
header:          00 ff ff ff ff ff ff 00
serial number:   09 e5 85 09 00 00 00 00 1c 1e
version:         01 04
basic params:    b5 22 15 78 03
chroma info:     7c e5 a4 55 4c 9f 26 0f 50 54
established:     00 00 00
standard:        01 01 01 01 01 01 01 01 01 01 01 01 01 01 01 01
descriptor 1:    6b 6e 00 a0 a0 40 84 60 30 20 36 00 58 d7 10 00 00 1a
descriptor 2:    00 00 00 fd 0c 3c a5 1f 1f 4e 01 0a 20 20 20 20 20 20
descriptor 3:    00 00 00 fe 00 42 4f 45 20 43 51 0a 20 20 20 20 20 20
descriptor 4:    00 00 00 fe 00 4e 45 31 36 30 51 44 4d 2d 4e 59 31 0a
extensions:      02
checksum:        ec

EDID version: 1.4
Manufacturer: BOE Model 985 Serial Number --
Made in week 28 of 2020
Digital display
10 bits per primary color channel
DisplayPort interface
Maximum image size: 34 cm x 21 cm
Gamma: 2.20
Supported color formats: RGB 4:4:4
First detailed timing includes the native pixel format and preferred refresh rate
Display is continuous frequency
Display x,y Chromaticity:
  Red:   0.6416, 0.3349
  Green: 0.2998, 0.6210
  Blue:  0.1513, 0.0605
  White: 0.3134, 0.3291
Established timings supported:
Standard timings supported:
Detailed mode: Clock 282.670 MHz, 344 mm x 215 mm
               2560 2608 2640 2720 hborder 0
               1600 1603 1609 1732 vborder 0
               +hsync -vsync 
               VertFreq: 60 Hz, HorFreq: 103922 Hz
Monitor ranges (bare limits): 60-165Hz V, 31-286kHz H, max dotclock 780MHz
ASCII string: BOE CQ
ASCII string: NE160QDM-NY1
Has 2 extension blocks
Checksum: 0xec (valid)

CTA extension block
Extension version: 3
25 bytes of CTA data
  Extended tag: Colorimetry data block
    BT2020RGB
  Extended tag: HDR static metadata data block
    Electro optical transfer functions:
      Traditional gamma - SDR luminance range
      SMPTE ST2084
    Supported static metadata descriptors:
      Static metadata type 1
    Desired content max luminance: 106 (496.743 cd/m^2)
    Desired content max frame-average luminance: 106 (496.743 cd/m^2)
    Desired content min luminance: 36 (0.099 cd/m^2)
  Vendor-specific data block, OUI 00001a
0 native detailed modes
Checksum: 0xff (valid)


DisplayID extension block
Extension version: 19
Length 121, version 19, extension count 0
Checksum: 0x3e (valid)
Type 1 detailed timing: aspect: 16:10, Preferred  
Detailed mode: Clock 777.330 MHz, 0 mm x 0 mm
               2559 2606 2637 2718
               1599 1601 1606 1730
               -hsync -vsync

EDID block does NOT conform to EDID 1.4!
	Required 640x480p60 timings are missing in the established timings
	and/or in the SVD list (VIC 1)
	Missing name descriptor
