
EDID (hex):
00ffffffffffff0010ac8c4255564741
04200104b54728783b1e75af4f42a724
0f5054a54b00714f81008180a940b300
d1c0d100a9c04dd000a0f0703e803020
3500c48f2100001a000000ff00434d33
503548330a2020202020000000fc0044
454c4c204733323233510a20000000fd
0c3090505086010a2020202020200280
02033af15161607675101f3f405f5e5d
22210412030123090707830100006d1a
0000020b309000047314732fe200d5e3
05c301e6060501737321866f80a07038
404030203500c48f2100001a6fc200a0
a0a0555030203500c48f2100001a565e
00a0a0a0295030203500c48f2100001a
000000000000000000000000000000da
701279030003015047e80104ff0e4f00
07801f006f08360028000700d0a30104
ff0e4f0007801f006f087e0070000700
fae60004ff099f004f801f009f054500
3d000400598700047f079f002f801f00
37044c00020004000000000000000000
00000000000000000000000000000000
00000000000000000000000000001f90

Extracted contents:
header:          00 ff ff ff ff ff ff 00
serial number:   10 ac 8c 42 55 56 47 41 04 20
version:         01 04
basic params:    b5 47 28 78 3b
chroma info:     1e 75 af 4f 42 a7 24 0f 50 54
established:     a5 4b 00
standard:        71 4f 81 00 81 80 a9 40 b3 00 d1 c0 d1 00 a9 c0
descriptor 1:    4d d0 00 a0 f0 70 3e 80 30 20 35 00 c4 8f 21 00 00 1a
descriptor 2:    00 00 00 ff 00 43 4d 33 50 35 48 33 0a 20 20 20 20 20
descriptor 3:    00 00 00 fc 00 44 45 4c 4c 20 47 33 32 32 33 51 0a 20
descriptor 4:    00 00 00 fd 0c 30 90 50 50 86 01 0a 20 20 20 20 20 20
extensions:      02
checksum:        80

EDID version: 1.4
Manufacturer: DEL Model 428c Serial Number --
Made in week 4 of 2022
Digital display
10 bits per primary color channel
DisplayPort interface
Maximum image size: 71 cm x 40 cm
Gamma: 2.20
DPMS levels: Off
Supported color formats: RGB 4:4:4, YCrCb 4:4:4, YCrCb 4:2:2
First detailed timing includes the native pixel format and preferred refresh rate
Display is continuous frequency
Display x,y Chromaticity:
  Red:   0.6835, 0.3095
  Green: 0.2607, 0.6542
  Blue:  0.1416, 0.0615
  White: 0.3134, 0.3291
Established timings supported:
  720x400@70Hz 9:5 HorFreq: 31469 Hz Clock: 28.320 MHz
  640x480@60Hz 4:3 HorFreq: 31469 Hz Clock: 25.175 MHz
  640x480@75Hz 4:3 HorFreq: 37500 Hz Clock: 31.500 MHz
  800x600@60Hz 4:3 HorFreq: 37900 Hz Clock: 40.000 MHz
  800x600@75Hz 4:3 HorFreq: 46900 Hz Clock: 49.500 MHz
  1024x768@60Hz 4:3 HorFreq: 48400 Hz Clock: 65.000 MHz
  1024x768@75Hz 4:3 HorFreq: 60000 Hz Clock: 78.750 MHz
  1280x1024@75Hz 5:4 HorFreq: 80000 Hz Clock: 135.000 MHz
Standard timings supported:
  1152x864@75Hz 4:3 HorFreq: 67500 Hz Clock: 108.000 MHz
  1280x800@60Hz 16:10
  1280x1024@60Hz 5:4 HorFreq: 64000 Hz Clock: 108.000 MHz
  1600x1200@60Hz 4:3 HorFreq: 75000 Hz Clock: 162.000 MHz
  1680x1050@60Hz 16:10 HorFreq: 64700 Hz Clock: 119.000 MHz
  1920x1080@60Hz 16:9
  1920x1200@60Hz 16:10 HorFreq: 74000 Hz Clock: 154.000 MHz
  1600x900@60Hz 16:9
Detailed mode: Clock 533.250 MHz, 708 mm x 399 mm
               3840 3888 3920 4000 hborder 0
               2160 2163 2168 2222 vborder 0
               +hsync -vsync 
               VertFreq: 59 Hz, HorFreq: 133312 Hz
Serial number: --
Monitor name: DELL G3223Q
Monitor ranges (bare limits): 48-144Hz V, 80-335kHz H, max dotclock 1340MHz
Has 2 extension blocks
Checksum: 0x80 (valid)

CTA extension block
Extension version: 3
54 bytes of CTA data
  Video data block
    VIC  97 3840x2160@60Hz 16:9  HorFreq: 135000 Hz Clock: 594.000 MHz
    VIC  96 3840x2160@50Hz 16:9  HorFreq: 112500 Hz Clock: 594.000 MHz
    VIC 118 3840x2160@120Hz 16:9  HorFreq: 270000 Hz Clock: 1188.000 MHz
    VIC 117 3840x2160@100Hz 16:9  HorFreq: 225000 Hz Clock: 1188.000 MHz
    VIC  16 1920x1080@60Hz 16:9  HorFreq: 67500 Hz Clock: 148.500 MHz
    VIC  31 1920x1080@50Hz 16:9  HorFreq: 56250 Hz Clock: 148.500 MHz
    VIC  63 1920x1080@120Hz 16:9  HorFreq: 135000 Hz Clock: 297.000 MHz
    VIC  64 1920x1080@100Hz 16:9  HorFreq: 112500 Hz Clock: 297.000 MHz
    VIC  95 3840x2160@30Hz 16:9  HorFreq: 67500 Hz Clock: 297.000 MHz
    VIC  94 3840x2160@25Hz 16:9  HorFreq: 56250 Hz Clock: 297.000 MHz
    VIC  93 3840x2160@24Hz 16:9  HorFreq: 54000 Hz Clock: 297.000 MHz
    VIC  34 1920x1080@30Hz 16:9  HorFreq: 33750 Hz Clock: 74.250 MHz
    VIC  33 1920x1080@25Hz 16:9  HorFreq: 28125 Hz Clock: 74.250 MHz
    VIC   4 1280x720@60Hz 16:9  HorFreq: 45000 Hz Clock: 74.250 MHz
    VIC  18 720x576@50Hz 16:9  HorFreq: 31250 Hz Clock: 27.000 MHz
    VIC   3 720x480@60Hz 16:9  HorFreq: 31469 Hz Clock: 27.000 MHz
    VIC   1 640x480@60Hz 4:3  HorFreq: 31469 Hz Clock: 25.175 MHz
  Audio data block
    Linear PCM, max channels 2
      Supported sample rates (kHz): 48 44.1 32
      Supported sample sizes (bits): 24 20 16
  Speaker allocation data block
    Speaker map:
      FL/FR - Front Left/Right
  Vendor-specific data block, OUI 00001a
  Extended tag: Video capability data block
    YCbCr quantization: Selectable (via AVI YQ) (1)
    RGB quantization: Selectable (via AVI Q) (1)
    PT scan behaviour: Always Overscannned (1)
    IT scan behaviour: Always Overscannned (1)
    CE scan behaviour: Always Overscannned (1)
  Extended tag: Colorimetry data block
    xvYCC601
    xvYCC709
    BT2020YCC
    BT2020RGB
  Extended tag: HDR static metadata data block
    Electro optical transfer functions:
      Traditional gamma - SDR luminance range
      SMPTE ST2084
    Supported static metadata descriptors:
      Static metadata type 1
    Desired content max luminance: 115 (603.666 cd/m^2)
    Desired content max frame-average luminance: 115 (603.666 cd/m^2)
    Desired content min luminance: 33 (0.101 cd/m^2)
Underscans PC formats by default
Basic audio support
Supports YCbCr 4:4:4
Supports YCbCr 4:2:2
1 native detailed modes
Detailed mode: Clock 285.500 MHz, 708 mm x 399 mm
               1920 1968 2000 2080 hborder 0
               1080 1083 1088 1144 vborder 0
               +hsync -vsync 
               VertFreq: 119 Hz, HorFreq: 137259 Hz
Detailed mode: Clock 497.750 MHz, 708 mm x 399 mm
               2560 2608 2640 2720 hborder 0
               1440 1443 1448 1525 vborder 0
               +hsync -vsync 
               VertFreq: 119 Hz, HorFreq: 182996 Hz
Detailed mode: Clock 241.500 MHz, 708 mm x 399 mm
               2560 2608 2640 2720 hborder 0
               1440 1443 1448 1481 vborder 0
               +hsync -vsync 
               VertFreq: 59 Hz, HorFreq: 88786 Hz
Checksum: 0xda (valid)


DisplayID extension block
Extension version: 18
Length 121, version 18, extension count 0
Checksum: 0x1f (valid)
Type 1 detailed timing: aspect: 16:9,  
Detailed mode: Clock 1249.990 MHz, 0 mm x 0 mm
               3839 3846 3877 3918
               2159 2199 2206 2213
               +hsync -vsync
Type 1 detailed timing: aspect: 16:9,  
Detailed mode: Clock 1074.720 MHz, 0 mm x 0 mm
               3839 3846 3877 3918
               2159 2271 2278 2285
               +hsync -vsync
Type 1 detailed timing: aspect: 16:9,  
Detailed mode: Clock 591.300 MHz, 0 mm x 0 mm
               2559 2638 2669 2718
               1439 1500 1504 1508
               +hsync -vsync
Type 1 detailed timing: aspect: 16:9,  
Detailed mode: Clock 346.490 MHz, 0 mm x 0 mm
               1919 1966 1997 2078
               1079 1081 1085 1155
               +hsync -vsync

Warning: One or more of the timings is out of range of the Monitor Ranges:
  Vertical Freq: 24 - 120 Hz
  Horizontal Freq: 28125 - 270000 Hz
  Maximum Clock: 1188.000 MHz
EDID block does not conform at all!
	Both the serial number and the serial string are set
