
EDID (hex):
00ffffffffffff0009e5230900000000
011e010495221378022330965d599329
1f505400000001010101010101010101
0101010101013a3880de703828403020
360058c11000001afb2c80de70382840
3020360058c11000001a000000fe0058
56365236804e56313554304300000000
0000410196001000000a010a20200057

Extracted contents:
header:          00 ff ff ff ff ff ff 00
serial number:   09 e5 23 09 00 00 00 00 01 1e
version:         01 04
basic params:    95 22 13 78 02
chroma info:     23 30 96 5d 59 93 29 1f 50 54
established:     00 00 00
standard:        01 01 01 01 01 01 01 01 01 01 01 01 01 01 01 01
descriptor 1:    3a 38 80 de 70 38 28 40 30 20 36 00 58 c1 10 00 00 1a
descriptor 2:    fb 2c 80 de 70 38 28 40 30 20 36 00 58 c1 10 00 00 1a
descriptor 3:    00 00 00 fe 00 58 56 36 52 36 80 4e 56 31 35 54 30 43
descriptor 4:    00 00 00 00 00 00 41 01 96 00 10 00 00 0a 01 0a 20 20
extensions:      00
checksum:        57

EDID version: 1.4
Manufacturer: BOE Model 923 Serial Number --
Made in week 1 of 2020
Digital display
6 bits per primary color channel
DisplayPort interface
Maximum image size: 34 cm x 19 cm
Gamma: 2.20
Supported color formats: RGB 4:4:4
First detailed timing includes the native pixel format and preferred refresh rate
Display x,y Chromaticity:
  Red:   0.5859, 0.3652
  Green: 0.3476, 0.5771
  Blue:  0.1601, 0.1240
  White: 0.3125, 0.3281
Established timings supported:
Standard timings supported:
Detailed mode: Clock 143.940 MHz, 344 mm x 193 mm
               1920 1968 2000 2142 hborder 0
               1080 1083 1089 1120 vborder 0
               +hsync -vsync 
               VertFreq: 59 Hz, HorFreq: 67198 Hz
Detailed mode: Clock 115.150 MHz, 344 mm x 193 mm
               1920 1968 2000 2142 hborder 0
               1080 1083 1089 1120 vborder 0
               +hsync -vsync 
               VertFreq: 47 Hz, HorFreq: 53758 Hz
ASCII string: XV6R6
Manufacturer-specified data, tag 0
Checksum: 0x57 (valid)
EDID block does NOT conform to EDID 1.4!
	Missing name descriptor
	Missing monitor ranges
	Detailed block string not properly terminated
