
EDID (hex):
00ffffffffffff006a92010000000000
041f0104951a0e780a7a8093585d9226
1c505400000001010101010101010101
010101010101ce1d56e250001e305a0a
e600009010000018000000fe00000000
00000000000000000000000000fe005a
542020202020202020202020000000fe
005a542d4130202020202020200a00d7

Extracted contents:
header:          00 ff ff ff ff ff ff 00
serial number:   6a 92 01 00 00 00 00 00 04 1f
version:         01 04
basic params:    95 1a 0e 78 0a
chroma info:     7a 80 93 58 5d 92 26 1c 50 54
established:     00 00 00
standard:        01 01 01 01 01 01 01 01 01 01 01 01 01 01 01 01
descriptor 1:    ce 1d 56 e2 50 00 1e 30 5a 0a e6 00 00 90 10 00 00 18
descriptor 2:    00 00 00 fe 00 00 00 00 00 00 00 00 00 00 00 00 00 00
descriptor 3:    00 00 00 fe 00 5a 54 20 20 20 20 20 20 20 20 20 20 20
descriptor 4:    00 00 00 fe 00 5a 54 2d 41 30 20 20 20 20 20 20 20 0a
extensions:      00
checksum:        d7

EDID version: 1.4
Manufacturer: ZTR Model 1 Serial Number --
Made in week 4 of 2021
Digital display
6 bits per primary color channel
DisplayPort interface
Maximum image size: 26 cm x 14 cm
Gamma: 2.20
Supported color formats: RGB 4:4:4, YCrCb 4:4:4
First detailed timing includes the native pixel format and preferred refresh rate
Display x,y Chromaticity:
  Red:   0.5751, 0.3466
  Green: 0.3652, 0.5722
  Blue:  0.1503, 0.1093
  White: 0.3125, 0.3281
Established timings supported:
Standard timings supported:
Detailed mode: Clock 76.300 MHz, 256 mm x 144 mm
               1366 1456 1466 1592 hborder 0
                768  782  788  798 vborder 0
               -hsync -vsync 
               VertFreq: 60 Hz, HorFreq: 47927 Hz
ASCII string: 
ASCII string: ZT           
ASCII string: ZT-A0       
Checksum: 0xd7 (valid)
EDID block does NOT conform to EDID 1.4!
	Missing name descriptor
	Missing monitor ranges
	Detailed block string not properly terminated
