edid-decode (hex):

00 ff ff ff ff ff ff 00 6a 92 01 00 00 00 00 00
2b 1f 01 04 a5 22 13 78 0a e6 74 98 55 4b 84 24
26 4e 54 00 00 00 01 01 01 01 01 01 01 01 01 01
01 01 01 01 01 01 9c 3b 80 36 71 38 3c 40 30 20
36 00 58 c2 10 00 00 1a 00 00 00 00 00 00 00 00
00 00 00 00 00 00 00 00 00 00 00 00 00 fe 00 49
4e 58 20 20 0a 20 20 20 20 20 20 20 00 00 00 fe
00 31 35 36 2d 5a 54 52 48 2d 52 4d 20 0a 00 b4

00 ff ff ff ff ff ff 00 6a 92 01 00 00 00 00 00
2b 1f 01 04 a5 22 13 78 0a e6 74 98 55 4b 84 24
26 4e 54 00 00 00 01 01 01 01 01 01 01 01 01 01
01 01 01 01 01 01 9c 3b 80 36 71 38 3c 40 30 20
36 00 58 c2 10 00 00 1a 00 00 00 00 00 00 00 00
00 00 00 00 00 00 00 00 00 00 00 00 00 fe 00 49
4e 58 20 20 0a 20 20 20 20 20 20 20 00 00 00 fe
00 31 35 36 2d 5a 54 52 48 2d 52 4d 20 0a 00 b4

----------------

Block 0, Base EDID:
  EDID Structure Version & Revision: 1.4
  Vendor & Product Identification:
    Manufacturer: ZTR
    Model: 1
    Made in: week 43 of 2021
  Basic Display Parameters & Features:
    Digital display
    Bits per primary color channel: 8
    DisplayPort interface
    Maximum image size: 34 cm x 19 cm
    Gamma: 2.20
    Supported color formats: RGB 4:4:4, YCrCb 4:4:4
    First detailed timing includes the native pixel format and preferred refresh rate
  Color Characteristics:
    Red  : 0.5966, 0.3339
    Green: 0.2939, 0.5175
    Blue : 0.1416, 0.1513
    White: 0.3056, 0.3281
  Established Timings I & II: none
  Standard Timings: none
  Detailed Timing Descriptors:
    DTD 1:  1920x1080   60.026748 Hz  16:9     68.430 kHz    152.600000 MHz (344 mm x 194 mm)
                 Hfront   48 Hsync  32 Hback  230 Hpol P
                 Vfront    3 Vsync   6 Vback   51 Vpol N
    Empty Descriptor
    Alphanumeric Data String: 'INX  '
    Alphanumeric Data String: '156-ZTRH-RM '
Checksum: 0xb4

----------------

Block 1, Unknown EDID Extension Block 0x00:
  00 ff ff ff ff ff ff 00 6a 92 01 00 00 00 00 00 '........j.......'
  2b 1f 01 04 a5 22 13 78 0a e6 74 98 55 4b 84 24 '+....".x..t.UK.$'
  26 4e 54 00 00 00 01 01 01 01 01 01 01 01 01 01 '&NT.............'
  01 01 01 01 01 01 9c 3b 80 36 71 38 3c 40 30 20 '.......;.6q8<@0 '
  36 00 58 c2 10 00 00 1a 00 00 00 00 00 00 00 00 '6.X.............'
  00 00 00 00 00 00 00 00 00 00 00 00 00 fe 00 49 '...............I'
  4e 58 20 20 0a 20 20 20 20 20 20 20 00 00 00 fe 'NX  .       ....'
  00 31 35 36 2d 5a 54 52 48 2d 52 4d 20 0a 00 b4 '.156-ZTRH-RM ...'
Checksum: 0xb4

----------------

Warnings:

Block 0, Base EDID:
  Missing Display Product Name.

Failures:

Block 0, Base EDID:
  Empty Descriptor: Use Dummy Descriptor instead of all zeroes.
  Alphanumeric Data String: One or more trailing spaces.
  Alphanumeric Data String: One or more trailing spaces.
Block 1, Base EDID:
  Unknown Extension Block.
EDID:
  Base EDID: EDID specified 0 extension block(s), but found 1 extension block(s).

EDID conformity: FAIL
