
EDID (hex):
00ffffffffffff002267c31a01010101
101301030a331d78eac9a5a4564b9d25
125054a56b008180a9409500b3000101
010101010101023a801871382d40582c
4500fd1e1100001e000000fc00484632
33370a20202020202020000000fd0038
4c1f5212000a202020202020000000ff
00393136524a3358593036313234004d

Extracted contents:
header:          00 ff ff ff ff ff ff 00
serial number:   22 67 c3 1a 01 01 01 01 10 13
version:         01 03
basic params:    0a 33 1d 78 ea
chroma info:     c9 a5 a4 56 4b 9d 25 12 50 54
established:     a5 6b 00
standard:        81 80 a9 40 95 00 b3 00 01 01 01 01 01 01 01 01
descriptor 1:    02 3a 80 18 71 38 2d 40 58 2c 45 00 fd 1e 11 00 00 1e
descriptor 2:    00 00 00 fc 00 48 46 32 33 37 0a 20 20 20 20 20 20 20
descriptor 3:    00 00 00 fd 00 38 4c 1f 52 12 00 0a 20 20 20 20 20 20
descriptor 4:    00 00 00 ff 00 39 31 36 52 4a 33 58 59 30 36 31 32 34
extensions:      00
checksum:        4d

EDID version: 1.3
Manufacturer: HSG Model 1ac3 Serial Number --
Made in week 16 of 2009
Analog display, Input voltage level: 0.7/0.3 V
Sync: Separate SyncOnGreen 
Maximum image size: 51 cm x 29 cm
Gamma: 2.20
DPMS levels: Standby Suspend Off
RGB color display
First detailed timing is preferred timing
Display x,y Chromaticity:
  Red:   0.6435, 0.3359
  Green: 0.2949, 0.6142
  Blue:  0.1464, 0.0722
  White: 0.3134, 0.3291
Established timings supported:
  720x400@70Hz 9:5 HorFreq: 31469 Hz Clock: 28.320 MHz
  640x480@60Hz 4:3 HorFreq: 31469 Hz Clock: 25.175 MHz
  640x480@75Hz 4:3 HorFreq: 37500 Hz Clock: 31.500 MHz
  800x600@60Hz 4:3 HorFreq: 37900 Hz Clock: 40.000 MHz
  800x600@75Hz 4:3 HorFreq: 46900 Hz Clock: 49.500 MHz
  832x624@75Hz 4:3 HorFreq: 49726 Hz Clock: 57.284 MHz
  1024x768@60Hz 4:3 HorFreq: 48400 Hz Clock: 65.000 MHz
  1024x768@75Hz 4:3 HorFreq: 60000 Hz Clock: 78.750 MHz
  1280x1024@75Hz 5:4 HorFreq: 80000 Hz Clock: 135.000 MHz
Standard timings supported:
  1280x1024@60Hz 5:4 HorFreq: 64000 Hz Clock: 108.000 MHz
  1600x1200@60Hz 4:3 HorFreq: 75000 Hz Clock: 162.000 MHz
  1440x900@60Hz 16:10 HorFreq: 55500 Hz Clock: 88.750 MHz
  1680x1050@60Hz 16:10 HorFreq: 64700 Hz Clock: 119.000 MHz
Detailed mode: Clock 148.500 MHz, 509 mm x 286 mm
               1920 2008 2052 2200 hborder 0
               1080 1084 1089 1125 vborder 0
               +hsync +vsync 
               VertFreq: 60 Hz, HorFreq: 67500 Hz
Monitor name: HF237
Monitor ranges (GTF): 56-76Hz V, 31-82kHz H, max dotclock 180MHz
Serial number: --
Checksum: 0x4d (valid)
