
EDID (hex):
00ffffffffffff000daf301400000000
0b110103801e13780a09059757518a27
20505400000001010101010101010101
0101010101011c2aa0a2518443307e54
8f002fbe10000018000000fe004e3134
3143332d4c30310a2020000000fe0043
4d4f0a202020202020202020000000fe
004e31343143332d4c30310a2020009c

Extracted contents:
header:          00 ff ff ff ff ff ff 00
serial number:   0d af 30 14 00 00 00 00 0b 11
version:         01 03
basic params:    80 1e 13 78 0a
chroma info:     09 05 97 57 51 8a 27 20 50 54
established:     00 00 00
standard:        01 01 01 01 01 01 01 01 01 01 01 01 01 01 01 01
descriptor 1:    1c 2a a0 a2 51 84 43 30 7e 54 8f 00 2f be 10 00 00 18
descriptor 2:    00 00 00 fe 00 4e 31 34 31 43 33 2d 4c 30 31 0a 20 20
descriptor 3:    00 00 00 fe 00 43 4d 4f 0a 20 20 20 20 20 20 20 20 20
descriptor 4:    00 00 00 fe 00 4e 31 34 31 43 33 2d 4c 30 31 0a 20 20
extensions:      00
checksum:        9c

EDID version: 1.3
Manufacturer: CMO Model 1430 Serial Number --
Made in week 11 of 2007
Digital display
Maximum image size: 30 cm x 19 cm
Gamma: 2.20
RGB color display
First detailed timing is preferred timing
Display x,y Chromaticity:
  Red:   0.5898, 0.3398
  Green: 0.3183, 0.5400
  Blue:  0.1523, 0.1250
  White: 0.3134, 0.3291
Established timings supported:
Standard timings supported:
Detailed mode: Clock 107.800 MHz, 303 mm x 190 mm
               1440 1566 1650 1858 hborder 0
                900  908  923  967 vborder 0
               -hsync -vsync 
               VertFreq: 59 Hz, HorFreq: 58019 Hz
ASCII string: N141C3-L01
ASCII string: CMO
ASCII string: N141C3-L01
Checksum: 0x9c (valid)
EDID block does NOT conform to EDID 1.3!
	Missing name descriptor
	Missing monitor ranges
