
EDID (hex):
00ffffffffffff0026cd6a21060afb02
260e01030f291e96ef9c68a0574a9b26
12484cbfef803159455961598199a959
d159e1590101403e00d0510033406088
13008b271100001e000000fc00484d32
303444412f4454410a20000000fd0032
c81e8e2702003264f00a803c94970010
83004c60a8e013008b271100001e0060

Extracted contents:
header:          00 ff ff ff ff ff ff 00
serial number:   26 cd 6a 21 06 0a fb 02 26 0e
version:         01 03
basic params:    0f 29 1e 96 ef
chroma info:     9c 68 a0 57 4a 9b 26 12 48 4c
established:     bf ef 80
standard:        31 59 45 59 61 59 81 99 a9 59 d1 59 e1 59 01 01
descriptor 1:    40 3e 00 d0 51 00 33 40 60 88 13 00 8b 27 11 00 00 1e
descriptor 2:    00 00 00 fc 00 48 4d 32 30 34 44 41 2f 44 54 41 0a 20
descriptor 3:    00 00 00 fd 00 32 c8 1e 8e 27 02 00 32 64 f0 0a 80 3c
descriptor 4:    94 97 00 10 83 00 4c 60 a8 e0 13 00 8b 27 11 00 00 1e
extensions:      00
checksum:        60

EDID version: 1.3
Manufacturer: IVM Model 216a Serial Number --
Analog display, Input voltage level: 0.7/0.3 V
Sync: Separate Composite SyncOnGreen Serration 
Maximum image size: 41 cm x 30 cm
Gamma: 2.50
DPMS levels: Standby Suspend Off
RGB color display
Default (sRGB) color space is primary color space
First detailed timing is preferred timing
Supports GTF timings within operating range
Display x,y Chromaticity:
  Red:   0.6269, 0.3408
  Green: 0.2919, 0.6054
  Blue:  0.1494, 0.0722
  White: 0.2832, 0.2968
Established timings supported:
  720x400@70Hz 9:5 HorFreq: 31469 Hz Clock: 28.320 MHz
  640x480@60Hz 4:3 HorFreq: 31469 Hz Clock: 25.175 MHz
  640x480@67Hz 4:3 HorFreq: 35000 Hz Clock: 30.240 MHz
  640x480@72Hz 4:3 HorFreq: 37900 Hz Clock: 31.500 MHz
  640x480@75Hz 4:3 HorFreq: 37500 Hz Clock: 31.500 MHz
  800x600@56Hz 4:3 HorFreq: 35200 Hz Clock: 36.000 MHz
  800x600@60Hz 4:3 HorFreq: 37900 Hz Clock: 40.000 MHz
  800x600@72Hz 4:3 HorFreq: 48100 Hz Clock: 50.000 MHz
  800x600@75Hz 4:3 HorFreq: 46900 Hz Clock: 49.500 MHz
  832x624@75Hz 4:3 HorFreq: 49726 Hz Clock: 57.284 MHz
  1024x768@60Hz 4:3 HorFreq: 48400 Hz Clock: 65.000 MHz
  1024x768@70Hz 4:3 HorFreq: 56500 Hz Clock: 75.000 MHz
  1024x768@75Hz 4:3 HorFreq: 60000 Hz Clock: 78.750 MHz
  1280x1024@75Hz 5:4 HorFreq: 80000 Hz Clock: 135.000 MHz
  1152x870@75Hz 192:145 HorFreq: 67500 Hz Clock: 108.000 MHz
Standard timings supported:
  640x480@85Hz 4:3 HorFreq: 43300 Hz Clock: 36.000 MHz
  800x600@85Hz 4:3 HorFreq: 53700 Hz Clock: 56.250 MHz
  1024x768@85Hz 4:3 HorFreq: 68700 Hz Clock: 94.500 MHz
  1280x1024@85Hz 5:4 HorFreq: 91100 Hz Clock: 157.500 MHz
  1600x1200@85Hz 4:3 HorFreq: 106300 Hz Clock: 229.500 MHz
  1920x1440@85Hz 4:3
  2048x1536@85Hz 4:3
Detailed mode: Clock 159.360 MHz, 395 mm x 295 mm
               1280 1376 1512 1744 hborder 0
               1024 1025 1028 1075 vborder 0
               +hsync +vsync 
               VertFreq: 85 Hz, HorFreq: 91376 Hz
Monitor name: HM204DA/DTA
Monitor ranges (GTF with icing): 50-200Hz V, 30-142kHz H, max dotclock 390MHz
Detailed mode: Clock 388.040 MHz, 395 mm x 295 mm
               2048 2216 2440 2832 hborder 0
               1536 1537 1540 1612 vborder 0
               +hsync +vsync 
               VertFreq: 84 Hz, HorFreq: 137019 Hz
Checksum: 0x60 (valid)
EDID block does NOT conform to EDID 1.3!
	sRGB is signaled, but the chromaticities do not match
EDID block does not conform at all!
	Bad year of manufacture
	Invalid detailed timing descriptor ordering
