edid-decode (hex):

00 ff ff ff ff ff ff 00 26 cd 6a 21 06 0a fb 02
26 0e 01 03 0f 29 1e 96 ef 9c 68 a0 57 4a 9b 26
12 48 4c bf ef 80 31 59 45 59 61 59 81 99 a9 59
d1 59 e1 59 01 01 40 3e 00 d0 51 00 33 40 60 88
13 00 8b 27 11 00 00 1e 00 00 00 fc 00 48 4d 32
30 34 44 41 2f 44 54 41 0a 20 00 00 00 fd 00 32
c8 1e 8e 27 02 00 32 64 f0 0a 80 3c 94 97 00 10
83 00 4c 60 a8 e0 13 00 8b 27 11 00 00 1e 00 60

----------------

Block 0, Base EDID:
  EDID Structure Version & Revision: 1.3
  Vendor & Product Identification:
    Manufacturer: IVM
    Model: 8554
    Serial Number: ...
    Made in: week 38 of 2004
  Basic Display Parameters & Features:
    Analog display
    Input voltage level: 0.7/0.3 V
    Blank level equals black level
    Sync: Separate Composite SyncOnGreen Serration
    Maximum image size: 41 cm x 30 cm
    Gamma: 2.50
    DPMS levels: Standby Suspend Off
    RGB color display
    Default (sRGB) color space is primary color space
    First detailed timing is the preferred timing
    Supports GTF timings within operating range
  Color Characteristics:
    Red  : 0.6269, 0.3408
    Green: 0.2919, 0.6054
    Blue : 0.1494, 0.0722
    White: 0.2832, 0.2968
  Established Timings I & II:
    IBM     :   720x400    70.081663 Hz   9:5     31.467 kHz     28.320000 MHz
    DMT 0x04:   640x480    59.940476 Hz   4:3     31.469 kHz     25.175000 MHz
    Apple   :   640x480    66.666667 Hz   4:3     35.000 kHz     30.240000 MHz
    DMT 0x05:   640x480    72.808802 Hz   4:3     37.861 kHz     31.500000 MHz
    DMT 0x06:   640x480    75.000000 Hz   4:3     37.500 kHz     31.500000 MHz
    DMT 0x08:   800x600    56.250000 Hz   4:3     35.156 kHz     36.000000 MHz
    DMT 0x09:   800x600    60.316541 Hz   4:3     37.879 kHz     40.000000 MHz
    DMT 0x0a:   800x600    72.187572 Hz   4:3     48.077 kHz     50.000000 MHz
    DMT 0x0b:   800x600    75.000000 Hz   4:3     46.875 kHz     49.500000 MHz
    Apple   :   832x624    74.551266 Hz   4:3     49.726 kHz     57.284000 MHz
    DMT 0x10:  1024x768    60.003840 Hz   4:3     48.363 kHz     65.000000 MHz
    DMT 0x11:  1024x768    70.069359 Hz   4:3     56.476 kHz     75.000000 MHz
    DMT 0x12:  1024x768    75.028582 Hz   4:3     60.023 kHz     78.750000 MHz
    DMT 0x24:  1280x1024   75.024675 Hz   5:4     79.976 kHz    135.000000 MHz
    Apple   :  1152x870    75.061550 Hz 192:145   68.681 kHz    100.000000 MHz
  Standard Timings:
    DMT 0x07:   640x480    85.008312 Hz   4:3     43.269 kHz     36.000000 MHz
    DMT 0x0c:   800x600    85.061274 Hz   4:3     53.674 kHz     56.250000 MHz
    DMT 0x13:  1024x768    84.996690 Hz   4:3     68.677 kHz     94.500000 MHz
    DMT 0x25:  1280x1024   85.024098 Hz   5:4     91.146 kHz    157.500000 MHz
    DMT 0x37:  1600x1200   85.000000 Hz   4:3    106.250 kHz    229.500000 MHz
    GTF     :  1920x1440   84.999970 Hz   4:3    128.520 kHz    341.349000 MHz
    GTF     :  2048x1536   85.000079 Hz   4:3    137.020 kHz    388.041000 MHz
  Detailed Timing Descriptors:
    DTD 1:  1280x1024   85.001067 Hz   5:4     91.376 kHz    159.360000 MHz (395 mm x 295 mm)
                 Hfront   96 Hsync 136 Hback  232 Hpol P
                 Vfront    1 Vsync   3 Vback   47 Vpol P
    Display Product Name: 'HM204DA/DTA'
    Display Range Limits:
      Monitor ranges (Secondary GTF): 50-200 Hz V, 30-142 kHz H, max dotclock 390 MHz
      GTF Secondary Curve Block:
        Start frequency: 100 kHz
        C: 50.0%
        M: 2800%/kHz
        K: 128
        J: 30.0%
    DTD 2:  2048x1536   84.999860 Hz   4:3    137.020 kHz    388.040000 MHz (395 mm x 295 mm)
                 Hfront  168 Hsync 224 Hback  392 Hpol P
                 Vfront    1 Vsync   3 Vback   72 Vpol P
Checksum: 0x60

----------------

Warnings:

Block 0, Base EDID:
  Basic Display Parameters & Features: sRGB is signaled, but the gamma != 2.2.

Failures:

Block 0, Base EDID:
  Basic Display Parameters & Features: sRGB is signaled, but the chromaticities do not match.
  Detailed Timing Descriptor #2: Invalid detailed timing descriptor ordering.

EDID conformity: FAIL
