
EDID (hex):
00ffffffffffff004d107d1500000000
2b200104a51e1378023aa0975a588b27
19505400000001010101010101010101
010101010101283c80a070b023403020
36002ebc10000018203080a070b02340
302036002ebc10000018000000fe0058
44374e59804c513134304e3100000000
0002410319001000000a010a2020003e

edid-decode (hex):

00 ff ff ff ff ff ff 00 4d 10 7d 15 00 00 00 00
2b 20 01 04 a5 1e 13 78 02 3a a0 97 5a 58 8b 27
19 50 54 00 00 00 01 01 01 01 01 01 01 01 01 01
01 01 01 01 01 01 28 3c 80 a0 70 b0 23 40 30 20
36 00 2e bc 10 00 00 18 20 30 80 a0 70 b0 23 40
30 20 36 00 2e bc 10 00 00 18 00 00 00 fe 00 58
44 37 4e 59 80 4c 51 31 34 30 4e 31 00 00 00 00
00 02 41 03 19 00 10 00 00 0a 01 0a 20 20 00 3e

----------------

Block 0, Base EDID:
  EDID Structure Version & Revision: 1.4
  Vendor & Product Identification:
    Manufacturer: SHP
    Model: 5501
    Made in: week 43 of 2022
  Basic Display Parameters & Features:
    Digital display
    Bits per primary color channel: 8
    DisplayPort interface
    Maximum image size: 30 cm x 19 cm
    Gamma: 2.20
    Supported color formats: RGB 4:4:4
    First detailed timing includes the native pixel format and preferred refresh rate
  Color Characteristics:
    Red  : 0.5898, 0.3544
    Green: 0.3457, 0.5449
    Blue : 0.1542, 0.0996
    White: 0.3125, 0.3281
  Established Timings I & II: none
  Standard Timings: none
  Detailed Timing Descriptors:
    DTD 1:  1920x1200   59.950171 Hz  16:10    74.038 kHz    154.000000 MHz (302 mm x 188 mm)
                 Hfront   48 Hsync  32 Hback   80 Hpol N
                 Vfront    3 Vsync   6 Vback   26 Vpol N
    DTD 2:  1920x1200   47.960137 Hz  16:10    59.231 kHz    123.200000 MHz (302 mm x 188 mm)
                 Hfront   48 Hsync  32 Hback   80 Hpol N
                 Vfront    3 Vsync   6 Vback   26 Vpol N
    Alphanumeric Data String: 'XD7NY'
    Manufacturer-Specified Display Descriptor (0x00): 00 00 00 02 41 03 19 00 10 00 00 0a 01 0a 20 20 '....A.........  '
Checksum: 0x3e
