
EDID (hex):
00ffffffffffff0030e4130400000000
00170104951d1178028f15985b558f27
21505400000001010101010101010101
0101010101012f2640a060841a303030
480026a6100000190000000000000000
00000000000000000000000000fe004c
4720446973706c61790a2020000000fe
004c503133335744322d5350423100f9

Extracted contents:
header:          00 ff ff ff ff ff ff 00
serial number:   30 e4 13 04 00 00 00 00 00 17
version:         01 04
basic params:    95 1d 11 78 02
chroma info:     8f 15 98 5b 55 8f 27 21 50 54
established:     00 00 00
standard:        01 01 01 01 01 01 01 01 01 01 01 01 01 01 01 01
descriptor 1:    2f 26 40 a0 60 84 1a 30 30 30 48 00 26 a6 10 00 00 19
descriptor 2:    00 00 00 00 00 00 00 00 00 00 00 00 00 00 00 00 00 00
descriptor 3:    00 00 00 fe 00 4c 47 20 44 69 73 70 6c 61 79 0a 20 20
descriptor 4:    00 00 00 fe 00 4c 50 31 33 33 57 44 32 2d 53 50 42 31
extensions:      00
checksum:        f9

EDID version: 1.4
Manufacturer: LGD Model 413 Serial Number --
Made in year 2013
Digital display
6 bits per primary color channel
DisplayPort interface
Maximum image size: 29 cm x 17 cm
Gamma: 2.20
Supported color formats: RGB 4:4:4
First detailed timing includes the native pixel format and preferred refresh rate
Display x,y Chromaticity:
  Red:   0.5957, 0.3554
  Green: 0.3349, 0.5615
  Blue:  0.1523, 0.1298
  White: 0.3134, 0.3291
Established timings supported:
Standard timings supported:
Detailed mode: Clock 97.750 MHz, 294 mm x 166 mm
               1600 1648 1696 1760 hborder 0
                900  904  912  926 vborder 0
               -hsync -vsync 
               VertFreq: 59 Hz, HorFreq: 55539 Hz
Manufacturer-specified data, tag 0
ASCII string: LG Display
ASCII string: LP133WD2-SPB1
Checksum: 0xf9 (valid)
EDID block does NOT conform to EDID 1.4!
	Missing name descriptor
	Missing monitor ranges
