
EDID (hex):
00ffffffffffff0009e5be0600000000
011a0104951d11780a9ca2a658549f26
0e4d5500000001010101010101010101
010101010101bc398018713828403020
360026a51000001a362e801871382840
3020360026a51000001a000000fe0032
4d397748804e56313346484d00000000
00004121a3001000000a010a202000f7

Extracted contents:
header:          00 ff ff ff ff ff ff 00
serial number:   09 e5 be 06 00 00 00 00 01 1a
version:         01 04
basic params:    95 1d 11 78 0a
chroma info:     9c a2 a6 58 54 9f 26 0e 4d 55
established:     00 00 00
standard:        01 01 01 01 01 01 01 01 01 01 01 01 01 01 01 01
descriptor 1:    bc 39 80 18 71 38 28 40 30 20 36 00 26 a5 10 00 00 1a
descriptor 2:    36 2e 80 18 71 38 28 40 30 20 36 00 26 a5 10 00 00 1a
descriptor 3:    00 00 00 fe 00 32 4d 39 77 48 80 4e 56 31 33 46 48 4d
descriptor 4:    00 00 00 00 00 00 41 21 a3 00 10 00 00 0a 01 0a 20 20
extensions:      00
checksum:        f7

EDID version: 1.4
Manufacturer: BOE Model 6be Serial Number --
Made in week 1 of 2016
Digital display
6 bits per primary color channel
DisplayPort interface
Maximum image size: 29 cm x 17 cm
Gamma: 2.20
Supported color formats: RGB 4:4:4, YCrCb 4:4:4
First detailed timing includes the native pixel format and preferred refresh rate
Display x,y Chromaticity:
  Red:   0.6503, 0.3447
  Green: 0.3310, 0.6210
  Blue:  0.1503, 0.0566
  White: 0.3007, 0.3339
Established timings supported:
Standard timings supported:
Detailed mode: Clock 147.800 MHz, 294 mm x 165 mm
               1920 1968 2000 2200 hborder 0
               1080 1083 1089 1120 vborder 0
               +hsync -vsync 
               VertFreq: 59 Hz, HorFreq: 67181 Hz
Detailed mode: Clock 118.300 MHz, 294 mm x 165 mm
               1920 1968 2000 2200 hborder 0
               1080 1083 1089 1120 vborder 0
               +hsync -vsync 
               VertFreq: 48 Hz, HorFreq: 53772 Hz
ASCII string: 2M9wH
Manufacturer-specified data, tag 0
Checksum: 0xf7 (valid)
EDID block does NOT conform to EDID 1.4!
	Missing name descriptor
	Missing monitor ranges
	Detailed block string not properly terminated
