edid-decode (hex):

00 ff ff ff ff ff ff 00 22 f0 1a 42 00 00 00 00
0f 17 01 03 80 32 1c 78 0a 40 a4 a3 5a 52 a2 26
0e 50 54 00 00 00 01 01 01 01 01 01 01 01 01 01
01 01 01 01 01 01 1a 38 80 00 71 38 14 40 60 40
84 00 fd 1e 11 00 00 1e 00 00 00 ff 00 57 4c 45
44 4c 47 44 4c 4d 32 33 30 57 00 00 00 fc 00 48
50 20 41 6c 6c 2d 69 6e 2d 4f 6e 65 00 00 00 fe
00 4c 4d 32 33 30 57 46 33 2d 53 4c 4c 31 00 38

----------------

Block 0, Base EDID:
  EDID Structure Version & Revision: 1.3
  Vendor & Product Identification:
    Manufacturer: HWP
    Model: 16922
    Made in: week 15 of 2013
  Basic Display Parameters & Features:
    Digital display
    Maximum image size: 50 cm x 28 cm
    Gamma: 2.20
    RGB color display
    First detailed timing is the preferred timing
  Color Characteristics:
    Red  : 0.6376, 0.3515
    Green: 0.3203, 0.6328
    Blue : 0.1503, 0.0566
    White: 0.3134, 0.3281
  Established Timings I & II: none
  Standard Timings: none
  Detailed Timing Descriptors:
    DTD 1:  1920x1080   60.001671 Hz  16:9     66.002 kHz    143.620000 MHz (509 mm x 286 mm)
                 Hfront   96 Hsync  64 Hback   96 Hpol P
                 Vfront    8 Vsync   4 Vback    8 Vpol P
    Display Product Serial Number: ...
    Display Product Name: 'HP All-in-One'
    Alphanumeric Data String: 'LM230WF3-SLL1'
Checksum: 0x38

----------------

Failures:

Block 0, Base EDID:
  Missing Display Range Limits Descriptor.

EDID conformity: FAIL
