
EDID (hex):
00ffffffffffff0022f01a4200000000
0f17010380321c780a40a4a35a52a226
0e505400000001010101010101010101
0101010101011a388000713814406040
8400fd1e1100001e000000ff00574c45
444c47444c4d32333057000000fc0048
5020416c6c2d696e2d4f6e65000000fe
004c4d3233305746332d534c4c310038

Extracted contents:
header:          00 ff ff ff ff ff ff 00
serial number:   22 f0 1a 42 00 00 00 00 0f 17
version:         01 03
basic params:    80 32 1c 78 0a
chroma info:     40 a4 a3 5a 52 a2 26 0e 50 54
established:     00 00 00
standard:        01 01 01 01 01 01 01 01 01 01 01 01 01 01 01 01
descriptor 1:    1a 38 80 00 71 38 14 40 60 40 84 00 fd 1e 11 00 00 1e
descriptor 2:    00 00 00 ff 00 57 4c 45 44 4c 47 44 4c 4d 32 33 30 57
descriptor 3:    00 00 00 fc 00 48 50 20 41 6c 6c 2d 69 6e 2d 4f 6e 65
descriptor 4:    00 00 00 fe 00 4c 4d 32 33 30 57 46 33 2d 53 4c 4c 31
extensions:      00
checksum:        38

EDID version: 1.3
Manufacturer: HWP Model 421a Serial Number --
Made in week 15 of 2013
Digital display
Maximum image size: 50 cm x 28 cm
Gamma: 2.20
RGB color display
First detailed timing is preferred timing
Display x,y Chromaticity:
  Red:   0.6376, 0.3515
  Green: 0.3203, 0.6328
  Blue:  0.1503, 0.0566
  White: 0.3134, 0.3281
Established timings supported:
Standard timings supported:
Detailed mode: Clock 143.620 MHz, 509 mm x 286 mm
               1920 2016 2080 2176 hborder 0
               1080 1088 1092 1100 vborder 0
               +hsync +vsync 
               VertFreq: 60 Hz, HorFreq: 66001 Hz
Serial number: --
ASCII string: LM230WF3-SLL1
Checksum: 0x38 (valid)
EDID block does NOT conform to EDID 1.3!
	Name descriptor not terminated with a newline
	Missing monitor ranges
