
EDID (hex):
00ffffffffffff0022f01a4201010101
0f170103802f1a780aebf5a656519c26
10505400000001010101010101010101
0101010101011a388000713814406040
8400dd0c1100001e000000ff00574c45
444c47444c4d32313557000000fc0048
5020416c6c2d696e2d4f6e65000000fe
004c4d3231355746332d534c4b310070

Extracted contents:
header:          00 ff ff ff ff ff ff 00
serial number:   22 f0 1a 42 01 01 01 01 0f 17
version:         01 03
basic params:    80 2f 1a 78 0a
chroma info:     eb f5 a6 56 51 9c 26 10 50 54
established:     00 00 00
standard:        01 01 01 01 01 01 01 01 01 01 01 01 01 01 01 01
descriptor 1:    1a 38 80 00 71 38 14 40 60 40 84 00 dd 0c 11 00 00 1e
descriptor 2:    00 00 00 ff 00 57 4c 45 44 4c 47 44 4c 4d 32 31 35 57
descriptor 3:    00 00 00 fc 00 48 50 20 41 6c 6c 2d 69 6e 2d 4f 6e 65
descriptor 4:    00 00 00 fe 00 4c 4d 32 31 35 57 46 33 2d 53 4c 4b 31
extensions:      00
checksum:        70

EDID version: 1.3
Manufacturer: HWP Model 421a Serial Number --
Made in week 15 of 2013
Digital display
Maximum image size: 47 cm x 26 cm
Gamma: 2.20
RGB color display
First detailed timing is preferred timing
Display x,y Chromaticity:
  Red:   0.6513, 0.3378
  Green: 0.3183, 0.6123
  Blue:  0.1513, 0.0654
  White: 0.3134, 0.3291
Established timings supported:
Standard timings supported:
Detailed mode: Clock 143.620 MHz, 477 mm x 268 mm
               1920 2016 2080 2176 hborder 0
               1080 1088 1092 1100 vborder 0
               +hsync +vsync 
               VertFreq: 60 Hz, HorFreq: 66001 Hz
Serial number: --
ASCII string: LM215WF3-SLK1
Checksum: 0x70 (valid)
EDID block does NOT conform to EDID 1.3!
	Name descriptor not terminated with a newline
	Missing monitor ranges
