
EDID (hex):
00ffffffffffff0051f6140000000000
02160103e82d19780acb05a3584c9b25
135054adce0061408180010101010101
010101010101312e40006284223058a8
3500bbfa1000001c662150b051001b30
40703600bbfa1000001e1a22569e5100
31307830a500bbfa1000001e000000fc
004c323036354c4e4e554e000000009d

edid-decode (hex):

00 ff ff ff ff ff ff 00 51 f6 14 00 00 00 00 00
02 16 01 03 e8 2d 19 78 0a cb 05 a3 58 4c 9b 25
13 50 54 ad ce 00 61 40 81 80 01 01 01 01 01 01
01 01 01 01 01 01 31 2e 40 00 62 84 22 30 58 a8
35 00 bb fa 10 00 00 1c 66 21 50 b0 51 00 1b 30
40 70 36 00 bb fa 10 00 00 1e 1a 22 56 9e 51 00
31 30 78 30 a5 00 bb fa 10 00 00 1e 00 00 00 fc
00 4c 32 30 36 35 4c 4e 4e 55 4e 00 00 00 00 9d

----------------

Block 0, Base EDID:
  EDID Structure Version & Revision: 1.3
  Vendor & Product Identification:
    Manufacturer: TOV
    Model: 20
    Made in: week 2 of 2012
  Basic Display Parameters & Features:
    Digital display
    Maximum image size: 45 cm x 25 cm
    Gamma: 2.20
    RGB color display
    First detailed timing is the preferred timing
  Color Characteristics:
    Red  : 0.6396, 0.3437
    Green: 0.2988, 0.6083
    Blue : 0.1445, 0.0742
    White: 0.3134, 0.3291
  Established Timings I & II:
    IBM     :   720x400    70.081663 Hz   9:5     31.467 kHz     28.320000 MHz
    DMT 0x04:   640x480    59.940476 Hz   4:3     31.469 kHz     25.175000 MHz
    DMT 0x05:   640x480    72.808802 Hz   4:3     37.861 kHz     31.500000 MHz
    DMT 0x06:   640x480    75.000000 Hz   4:3     37.500 kHz     31.500000 MHz
    DMT 0x09:   800x600    60.316541 Hz   4:3     37.879 kHz     40.000000 MHz
    DMT 0x0a:   800x600    72.187572 Hz   4:3     48.077 kHz     50.000000 MHz
    DMT 0x0b:   800x600    75.000000 Hz   4:3     46.875 kHz     49.500000 MHz
    DMT 0x10:  1024x768    60.003840 Hz   4:3     48.363 kHz     65.000000 MHz
    DMT 0x11:  1024x768    70.069359 Hz   4:3     56.476 kHz     75.000000 MHz
    DMT 0x12:  1024x768    75.028582 Hz   4:3     60.023 kHz     78.750000 MHz
  Standard Timings:
    DMT 0x10:  1024x768    60.003840 Hz   4:3     48.363 kHz     65.000000 MHz
    DMT 0x23:  1280x1024   60.019740 Hz   5:4     63.981 kHz    108.000000 MHz
  Detailed Timing Descriptors:
    DTD 1:  1600x900    59.946021 Hz  16:9     55.990 kHz    118.250000 MHz (443 mm x 250 mm)
                 Hfront   88 Hsync 168 Hback  256 Hpol N
                 Vfront    3 Vsync   5 Vback   26 Vpol P
    DTD 2:  1360x768    60.015162 Hz  85:48    47.712 kHz     85.500000 MHz (443 mm x 250 mm)
                 Hfront   64 Hsync 112 Hback  256 Hpol P
                 Vfront    3 Vsync   6 Vback   18 Vpol P
    DTD 3:  1366x768    60.030531 Hz 683:384   49.045 kHz     87.300000 MHz (443 mm x 250 mm)
                 Hfront  120 Hsync  48 Hback  246 Hpol P
                 Vfront   10 Vsync   5 Vback   34 Vpol P
    Display Product Name: 'L2065LNNUN'
Checksum: 0x9d
