edid-decode (hex):

00 ff ff ff ff ff ff 00 26 cf 7d 05 00 00 00 00
00 1b 01 04 95 1f 11 78 02 4e 60 a8 4e 46 95 27
0f 50 54 00 00 00 01 01 01 01 01 01 01 01 01 01
01 01 01 01 01 01 53 38 80 f2 70 38 20 40 34 4c
3c 00 35 ae 10 00 00 18 5c 2b 80 f2 70 38 20 40
34 4c 3c 00 35 ae 10 00 00 18 00 00 00 fe 00 4e
56 33 50 35 80 31 34 30 4e 57 46 35 00 00 00 00
00 00 41 31 1e 00 10 00 00 0a 01 0a 20 20 00 af

----------------

Block 0, Base EDID:
  EDID Structure Version & Revision: 1.4
  Vendor & Product Identification:
    Manufacturer: IVO
    Model: 1405
    Made in: 2017
  Basic Display Parameters & Features:
    Digital display
    Bits per primary color channel: 6
    DisplayPort interface
    Maximum image size: 31 cm x 17 cm
    Gamma: 2.20
    Supported color formats: RGB 4:4:4
    First detailed timing includes the native pixel format and preferred refresh rate
  Color Characteristics:
    Red  : 0.6572, 0.3046
    Green: 0.2763, 0.5839
    Blue : 0.1533, 0.0605
    White: 0.3125, 0.3281
  Established Timings I & II: none
  Standard Timings: none
  Detailed Timing Descriptors:
    DTD 1:  1920x1080   59.975609 Hz  16:9     66.693 kHz    144.190000 MHz (309 mm x 174 mm)
                 Hfront   52 Hsync  76 Hback  114 Hpol N
                 Vfront    3 Vsync  12 Vback   17 Vpol N
    DTD 2:  1920x1080   46.170279 Hz  16:9     51.341 kHz    111.000000 MHz (309 mm x 174 mm)
                 Hfront   52 Hsync  76 Hback  114 Hpol N
                 Vfront    3 Vsync  12 Vback   17 Vpol N
    Alphanumeric Data String: 'NV3P5'
    Manufacturer-Specified Display Descriptor (0x00): 00 00 00 00 41 31 1e 00 10 00 00 0a 01 0a 20 20 '....A1........  '
Checksum: 0xaf

----------------

Warnings:

Block 0, Base EDID:
  Missing Display Product Name.

Failures:

Block 0, Base EDID:
  Alphanumeric Data String: Non-printable character.

EDID conformity: FAIL
