
EDID (hex):
00ffffffffffff0026cf7d0500000000
00200104a51f11780a230c98524b8724
2a4d5600000001010101010101010101
010101010101383680a0703820401830
3c0035ae100000190000000000000000
00000000000000000000000000fe0049
6e666f566973696f6e0a2020000000fe
00503134304757463520524a200a00d3

edid-decode (hex):

00 ff ff ff ff ff ff 00 26 cf 7d 05 00 00 00 00
00 20 01 04 a5 1f 11 78 0a 23 0c 98 52 4b 87 24
2a 4d 56 00 00 00 01 01 01 01 01 01 01 01 01 01
01 01 01 01 01 01 38 36 80 a0 70 38 20 40 18 30
3c 00 35 ae 10 00 00 19 00 00 00 00 00 00 00 00
00 00 00 00 00 00 00 00 00 00 00 00 00 fe 00 49
6e 66 6f 56 69 73 69 6f 6e 0a 20 20 00 00 00 fe
00 50 31 34 30 47 57 46 35 20 52 4a 20 0a 00 d3

----------------

Block 0, Base EDID:
  EDID Structure Version & Revision: 1.4
  Vendor & Product Identification:
    Manufacturer: IVO
    Model: 1405
    Made in: 2022
  Basic Display Parameters & Features:
    Digital display
    Bits per primary color channel: 8
    DisplayPort interface
    Maximum image size: 31 cm x 17 cm
    Gamma: 2.20
    Supported color formats: RGB 4:4:4, YCrCb 4:4:4
    First detailed timing includes the native pixel format and preferred refresh rate
  Color Characteristics:
    Red  : 0.5937, 0.3222
    Green: 0.2929, 0.5302
    Blue : 0.1406, 0.1640
    White: 0.3037, 0.3359
  Established Timings I & II: none
  Standard Timings: none
  Detailed Timing Descriptors:
    DTD 1:  1920x1080   60.009685 Hz  16:9     66.731 kHz    138.800000 MHz (309 mm x 174 mm)
                 Hfront   24 Hsync  48 Hback   88 Hpol N
                 Vfront    3 Vsync  12 Vback   17 Vpol N
    Empty Descriptor
    Alphanumeric Data String: 'InfoVision'
    Alphanumeric Data String: 'P140GWF5 RJ '
Checksum: 0xd3
