
EDID (hex):
00ffffffffffff0048e22f2201000000
2811010368000078ea683da454489a25
0f474aafef008180814081c071406140
4540314001010e1f008051001e304080
370000000000001c6a2150b051001b30
40703600fc1d1100001c000000fd0031
561e4509000a202020202020000000fc
005441524741204c54203332333000d5

Extracted contents:
header:          00 ff ff ff ff ff ff 00
serial number:   48 e2 2f 22 01 00 00 00 28 11
version:         01 03
basic params:    68 00 00 78 ea
chroma info:     68 3d a4 54 48 9a 25 0f 47 4a
established:     af ef 00
standard:        81 80 81 40 81 c0 71 40 61 40 45 40 31 40 01 01
descriptor 1:    0e 1f 00 80 51 00 1e 30 40 80 37 00 00 00 00 00 00 1c
descriptor 2:    6a 21 50 b0 51 00 1b 30 40 70 36 00 fc 1d 11 00 00 1c
descriptor 3:    00 00 00 fd 00 31 56 1e 45 09 00 0a 20 20 20 20 20 20
descriptor 4:    00 00 00 fc 00 54 41 52 47 41 20 4c 54 20 33 32 33 30
extensions:      00
checksum:        d5

EDID version: 1.3
Manufacturer: RGB Model 222f Serial Number --
Made in week 40 of 2007
Analog display, Input voltage level: 0.7/0.7 V
Sync: Separate 
Image size is variable
Gamma: 2.20
DPMS levels: Standby Suspend Off
RGB color display
First detailed timing is preferred timing
Display x,y Chromaticity:
  Red:   0.6416, 0.3300
  Green: 0.2832, 0.6015
  Blue:  0.1445, 0.0615
  White: 0.2802, 0.2900
Established timings supported:
  720x400@70Hz 9:5 HorFreq: 31469 Hz Clock: 28.320 MHz
  640x480@60Hz 4:3 HorFreq: 31469 Hz Clock: 25.175 MHz
  640x480@72Hz 4:3 HorFreq: 37900 Hz Clock: 31.500 MHz
  640x480@75Hz 4:3 HorFreq: 37500 Hz Clock: 31.500 MHz
  800x600@56Hz 4:3 HorFreq: 35200 Hz Clock: 36.000 MHz
  800x600@60Hz 4:3 HorFreq: 37900 Hz Clock: 40.000 MHz
  800x600@72Hz 4:3 HorFreq: 48100 Hz Clock: 50.000 MHz
  800x600@75Hz 4:3 HorFreq: 46900 Hz Clock: 49.500 MHz
  832x624@75Hz 4:3 HorFreq: 49726 Hz Clock: 57.284 MHz
  1024x768@60Hz 4:3 HorFreq: 48400 Hz Clock: 65.000 MHz
  1024x768@70Hz 4:3 HorFreq: 56500 Hz Clock: 75.000 MHz
  1024x768@75Hz 4:3 HorFreq: 60000 Hz Clock: 78.750 MHz
  1280x1024@75Hz 5:4 HorFreq: 80000 Hz Clock: 135.000 MHz
Standard timings supported:
  1280x1024@60Hz 5:4 HorFreq: 64000 Hz Clock: 108.000 MHz
  1280x960@60Hz 4:3 HorFreq: 60000 Hz Clock: 108.000 MHz
  1280x720@60Hz 16:9
  1152x864@60Hz 4:3
  1024x768@60Hz 4:3 HorFreq: 48400 Hz Clock: 65.000 MHz
  800x600@60Hz 4:3 HorFreq: 37900 Hz Clock: 40.000 MHz
  640x480@60Hz 4:3 HorFreq: 31469 Hz Clock: 25.175 MHz
Detailed mode: Clock 79.500 MHz, 0 mm x 0 mm
               1280 1344 1472 1664 hborder 0
                768  771  778  798 vborder 0
               -hsync +vsync 
               VertFreq: 59 Hz, HorFreq: 47776 Hz
Detailed mode: Clock 85.540 MHz, 508 mm x 285 mm
               1360 1424 1536 1792 hborder 0
                768  771  777  795 vborder 0
               -hsync +vsync 
               VertFreq: 60 Hz, HorFreq: 47734 Hz
Monitor ranges (GTF): 49-86Hz V, 30-69kHz H, max dotclock 90MHz
Checksum: 0xd5 (valid)
EDID block does NOT conform to EDID 1.3!
	Name descriptor not terminated with a newline
One or more of the timings is out of range of the Monitor Ranges:
  Vertical Freq: 56 - 75 Hz
  Horizontal Freq: 31469 - 80000 Hz
  Maximum Clock: 135.000 MHz
