
EDID (hex):
00ffffffffffff000daed51500000000
111a01049522137802ecd58d52539529
22505400000001010101010101010101
0101010101015e358096703814402c1c
240058c11000001ab22a809670381440
2c1c240058c11000001a000000fe0032
30504a4b803135364847410a00000000
0000413196001000000a010a202000cd

Extracted contents:
header:          00 ff ff ff ff ff ff 00
serial number:   0d ae d5 15 00 00 00 00 11 1a
version:         01 04
basic params:    95 22 13 78 02
chroma info:     ec d5 8d 52 53 95 29 22 50 54
established:     00 00 00
standard:        01 01 01 01 01 01 01 01 01 01 01 01 01 01 01 01
descriptor 1:    5e 35 80 96 70 38 14 40 2c 1c 24 00 58 c1 10 00 00 1a
descriptor 2:    b2 2a 80 96 70 38 14 40 2c 1c 24 00 58 c1 10 00 00 1a
descriptor 3:    00 00 00 fe 00 32 30 50 4a 4b 80 31 35 36 48 47 41 0a
descriptor 4:    00 00 00 00 00 00 41 31 96 00 10 00 00 0a 01 0a 20 20
extensions:      00
checksum:        cd

EDID version: 1.4
Manufacturer: CMN Model 15d5 Serial Number --
Made in week 17 of 2016
Digital display
6 bits per primary color channel
DisplayPort interface
Maximum image size: 34 cm x 19 cm
Gamma: 2.20
Supported color formats: RGB 4:4:4
First detailed timing includes the native pixel format and preferred refresh rate
Display x,y Chromaticity:
  Red:   0.5537, 0.3222
  Green: 0.3271, 0.5820
  Blue:  0.1630, 0.1337
  White: 0.3134, 0.3291
Established timings supported:
Standard timings supported:
Detailed mode: Clock 136.620 MHz, 344 mm x 193 mm
               1920 1964 1992 2070 hborder 0
               1080 1082 1086 1100 vborder 0
               +hsync -vsync 
               VertFreq: 60 Hz, HorFreq: 66000 Hz
Detailed mode: Clock 109.300 MHz, 344 mm x 193 mm
               1920 1964 1992 2070 hborder 0
               1080 1082 1086 1100 vborder 0
               +hsync -vsync 
               VertFreq: 48 Hz, HorFreq: 52801 Hz
ASCII string: 20PJK
Manufacturer-specified data, tag 0
Checksum: 0xcd (valid)
EDID block does NOT conform to EDID 1.4!
	Missing name descriptor
	Missing monitor ranges
	Detailed block string not properly terminated
