edid-decode (hex):

00 ff ff ff ff ff ff 00 30 ae c1 40 00 00 00 00
01 13 01 03 80 16 0d 78 ea 43 25 94 59 56 8d 28
22 50 54 00 00 00 01 01 01 01 01 01 01 01 01 01
01 01 01 01 01 01 9c 18 00 82 50 d0 14 20 30 20
36 00 de 7d 00 00 00 18 82 14 00 82 50 d0 14 20
30 20 36 00 de 7d 00 00 00 18 00 00 00 0f 00 81
09 32 81 09 28 14 09 00 06 af 56 31 00 00 00 fe
00 42 31 30 31 45 57 30 32 20 56 31 20 0a 00 75

----------------

Block 0, Base EDID:
  EDID Structure Version & Revision: 1.3
  Vendor & Product Identification:
    Manufacturer: LEN
    Model: 16577
    Made in: week 1 of 2009
  Basic Display Parameters & Features:
    Digital display
    Maximum image size: 22 cm x 13 cm
    Gamma: 2.20
    DPMS levels: Standby Suspend Off
    RGB color display
    First detailed timing is the preferred timing
  Color Characteristics:
    Red  : 0.5791, 0.3476
    Green: 0.3359, 0.5537
    Blue : 0.1562, 0.1347
    White: 0.3134, 0.3291
  Established Timings I & II: none
  Standard Timings: none
  Detailed Timing Descriptors:
    DTD 1:  1280x720    60.379528 Hz  16:9     44.681 kHz     63.000000 MHz (222 mm x 125 mm)
                 Hfront   48 Hsync  32 Hback   50 Hpol N
                 Vfront    3 Vsync   6 Vback   11 Vpol N
    DTD 2:  1280x720    50.316274 Hz  16:9     37.234 kHz     52.500000 MHz (222 mm x 125 mm)
                 Hfront   48 Hsync  32 Hback   50 Hpol N
                 Vfront    3 Vsync   6 Vback   11 Vpol N
    Manufacturer-Specified Display Descriptor (0x0f): 00 0f 00 81 09 32 81 09 28 14 09 00 06 af 56 31 '.....2..(.....V1'
    Alphanumeric Data String: 'B101EW02 V1 '
Checksum: 0x75

----------------

Failures:

Block 0, Base EDID:
  Alphanumeric Data String: One or more trailing spaces.
  Missing Display Product Name.
  Missing Display Range Limits Descriptor.

EDID conformity: FAIL
