
EDID (hex):
00ffffffffffff0030aec14000000000
0113010380160d78ea43259459568d28
22505400000001010101010101010101
0101010101019c18008250d014203020
3600de7d000000188214008250d01420
30203600de7d000000180000000f0081
093281092814090006af5631000000fe
004231303145573032205631200a0075

Extracted contents:
header:          00 ff ff ff ff ff ff 00
serial number:   30 ae c1 40 00 00 00 00 01 13
version:         01 03
basic params:    80 16 0d 78 ea
chroma info:     43 25 94 59 56 8d 28 22 50 54
established:     00 00 00
standard:        01 01 01 01 01 01 01 01 01 01 01 01 01 01 01 01
descriptor 1:    9c 18 00 82 50 d0 14 20 30 20 36 00 de 7d 00 00 00 18
descriptor 2:    82 14 00 82 50 d0 14 20 30 20 36 00 de 7d 00 00 00 18
descriptor 3:    00 00 00 0f 00 81 09 32 81 09 28 14 09 00 06 af 56 31
descriptor 4:    00 00 00 fe 00 42 31 30 31 45 57 30 32 20 56 31 20 0a
extensions:      00
checksum:        75

EDID version: 1.3
Manufacturer: LEN Model 40c1 Serial Number --
Made in week 1 of 2009
Digital display
Maximum image size: 22 cm x 13 cm
Gamma: 2.20
DPMS levels: Standby Suspend Off
RGB color display
First detailed timing is preferred timing
Display x,y Chromaticity:
  Red:   0.5791, 0.3476
  Green: 0.3359, 0.5537
  Blue:  0.1562, 0.1347
  White: 0.3134, 0.3291
Established timings supported:
Standard timings supported:
Detailed mode: Clock 63.000 MHz, 222 mm x 125 mm
               1280 1328 1360 1410 hborder 0
                720  723  729  740 vborder 0
               -hsync -vsync 
               VertFreq: 60 Hz, HorFreq: 44680 Hz
Detailed mode: Clock 52.500 MHz, 222 mm x 125 mm
               1280 1328 1360 1410 hborder 0
                720  723  729  740 vborder 0
               -hsync -vsync 
               VertFreq: 50 Hz, HorFreq: 37234 Hz
Manufacturer-specified data, tag 15
ASCII string: B101EW02 V1 
Checksum: 0x75 (valid)
EDID block does NOT conform to EDID 1.3!
	Missing name descriptor
	Missing monitor ranges
