
EDID (hex):
00ffffffffffff0006af9af400000000
301f0104a522167803f225915758952a
1f505400000001010101010101010101
010101010101863d80c870b026406c30
aa0058d710000018042980c870b02640
6c30aa0058d710000018000000000000
00000000000000000000000000000002
001048ff0f3c7d6112257d20202000d2

Extracted contents:
header:          00 ff ff ff ff ff ff 00
serial number:   06 af 9a f4 00 00 00 00 30 1f
version:         01 04
basic params:    a5 22 16 78 03
chroma info:     f2 25 91 57 58 95 2a 1f 50 54
established:     00 00 00
standard:        01 01 01 01 01 01 01 01 01 01 01 01 01 01 01 01
descriptor 1:    86 3d 80 c8 70 b0 26 40 6c 30 aa 00 58 d7 10 00 00 18
descriptor 2:    04 29 80 c8 70 b0 26 40 6c 30 aa 00 58 d7 10 00 00 18
descriptor 3:    00 00 00 00 00 00 00 00 00 00 00 00 00 00 00 00 00 00
descriptor 4:    00 00 00 02 00 10 48 ff 0f 3c 7d 61 12 25 7d 20 20 20
extensions:      00
checksum:        d2

EDID version: 1.4
Manufacturer: AUO Model f49a Serial Number --
Made in week 48 of 2021
Digital display
8 bits per primary color channel
DisplayPort interface
Maximum image size: 34 cm x 22 cm
Gamma: 2.20
Supported color formats: RGB 4:4:4
First detailed timing includes the native pixel format and preferred refresh rate
Display is continuous frequency
Display x,y Chromaticity:
  Red:   0.5693, 0.3427
  Green: 0.3437, 0.5839
  Blue:  0.1640, 0.1230
  White: 0.3134, 0.3291
Established timings supported:
Standard timings supported:
Detailed mode: Clock 157.500 MHz, 344 mm x 215 mm
               1920 2028 2076 2120 hborder 0
               1200 1210 1220 1238 vborder 0
               -hsync -vsync 
               VertFreq: 60 Hz, HorFreq: 74292 Hz
Detailed mode: Clock 105.000 MHz, 344 mm x 215 mm
               1920 2028 2076 2120 hborder 0
               1200 1210 1220 1238 vborder 0
               -hsync -vsync 
               VertFreq: 40 Hz, HorFreq: 49528 Hz
Manufacturer-specified data, tag 0
Manufacturer-specified data, tag 2
Checksum: 0xd2 (valid)
EDID block does NOT conform to EDID 1.4!
	Missing name descriptor
	Missing monitor ranges
