
EDID (hex):
00ffffffffffff0022f00c4101000000
0b140103802c1978ee9290a655489a26
11505400000001010101010101010101
0101010101013b2e4000628422301850
1300bbf91000001e3b2e400062842230
18501300bbf91000001e000000fc0048
50204f6d6e692f50726f0a20000000fd
0037411a410d000a202020202020007a

Extracted contents:
header:          00 ff ff ff ff ff ff 00
serial number:   22 f0 0c 41 01 00 00 00 0b 14
version:         01 03
basic params:    80 2c 19 78 ee
chroma info:     92 90 a6 55 48 9a 26 11 50 54
established:     00 00 00
standard:        01 01 01 01 01 01 01 01 01 01 01 01 01 01 01 01
descriptor 1:    3b 2e 40 00 62 84 22 30 18 50 13 00 bb f9 10 00 00 1e
descriptor 2:    3b 2e 40 00 62 84 22 30 18 50 13 00 bb f9 10 00 00 1e
descriptor 3:    00 00 00 fc 00 48 50 20 4f 6d 6e 69 2f 50 72 6f 0a 20
descriptor 4:    00 00 00 fd 00 37 41 1a 41 0d 00 0a 20 20 20 20 20 20
extensions:      00
checksum:        7a

EDID version: 1.3
Manufacturer: HWP Model 410c Serial Number --
Made in week 11 of 2010
Digital display
Maximum image size: 44 cm x 25 cm
Gamma: 2.20
DPMS levels: Standby Suspend Off
RGB color display
Default (sRGB) color space is primary color space
First detailed timing is preferred timing
Display x,y Chromaticity:
  Red:   0.6503, 0.3330
  Green: 0.2812, 0.6035
  Blue:  0.1503, 0.0673
  White: 0.3125, 0.3281
Established timings supported:
Standard timings supported:
Detailed mode: Clock 118.350 MHz, 443 mm x 249 mm
               1600 1624 1704 2112 hborder 0
                900  901  904  934 vborder 0
               +hsync +vsync 
               VertFreq: 59 Hz, HorFreq: 56036 Hz
Detailed mode: Clock 118.350 MHz, 443 mm x 249 mm
               1600 1624 1704 2112 hborder 0
                900  901  904  934 vborder 0
               +hsync +vsync 
               VertFreq: 59 Hz, HorFreq: 56036 Hz
Monitor name: HP Omni/Pro
Monitor ranges (GTF): 55-65Hz V, 26-65kHz H, max dotclock 130MHz
Checksum: 0x7a (valid)
EDID block does NOT conform to EDID 1.3!
	sRGB is signaled, but the chromaticities do not match
