
EDID (hex):
00ffffffffffff0006af9ac500000000
0a1f0104a51d127802c815a754499d25
0f505400000001010101010101010101
010101010101fa3c80b870b024401010
3e001eb21000001ac83080b870b02440
10103e001eb21000001a000000fe0034
474b5243804231333355414e00000000
00024122a8001100000a410a20200031

Extracted contents:
header:          00 ff ff ff ff ff ff 00
serial number:   06 af 9a c5 00 00 00 00 0a 1f
version:         01 04
basic params:    a5 1d 12 78 02
chroma info:     c8 15 a7 54 49 9d 25 0f 50 54
established:     00 00 00
standard:        01 01 01 01 01 01 01 01 01 01 01 01 01 01 01 01
descriptor 1:    fa 3c 80 b8 70 b0 24 40 10 10 3e 00 1e b2 10 00 00 1a
descriptor 2:    c8 30 80 b8 70 b0 24 40 10 10 3e 00 1e b2 10 00 00 1a
descriptor 3:    00 00 00 fe 00 34 47 4b 52 43 80 42 31 33 33 55 41 4e
descriptor 4:    00 00 00 00 00 02 41 22 a8 00 11 00 00 0a 41 0a 20 20
extensions:      00
checksum:        31

EDID version: 1.4
Manufacturer: AUO Model c59a Serial Number --
Made in week 10 of 2021
Digital display
8 bits per primary color channel
DisplayPort interface
Maximum image size: 29 cm x 18 cm
Gamma: 2.20
Supported color formats: RGB 4:4:4
First detailed timing includes the native pixel format and preferred refresh rate
Display x,y Chromaticity:
  Red:   0.6552, 0.3281
  Green: 0.2871, 0.6132
  Blue:  0.1445, 0.0595
  White: 0.3134, 0.3291
Established timings supported:
Standard timings supported:
Detailed mode: Clock 156.100 MHz, 286 mm x 178 mm
               1920 1936 1952 2104 hborder 0
               1200 1203 1217 1236 vborder 0
               +hsync -vsync 
               VertFreq: 60 Hz, HorFreq: 74192 Hz
Detailed mode: Clock 124.880 MHz, 286 mm x 178 mm
               1920 1936 1952 2104 hborder 0
               1200 1203 1217 1236 vborder 0
               +hsync -vsync 
               VertFreq: 48 Hz, HorFreq: 59353 Hz
ASCII string: 4GKRC
Manufacturer-specified data, tag 0
Checksum: 0x31 (valid)
EDID block does NOT conform to EDID 1.4!
	Missing name descriptor
	Missing monitor ranges
	Detailed block string not properly terminated


