
EDID (hex):
00ffffffffffff00220e2f3601010101
0d1d010368221b782af0a5a555529f27
0f5054a108008180810081c001010101
010101010101302a009851002a403070
1300520e1100001e000000fd00323c34
460e000a202020202020000000fc0048
5020503137340a2020202020000000ff
00334351393133314454540a20200068

Extracted contents:
header:          00 ff ff ff ff ff ff 00
serial number:   22 0e 2f 36 01 01 01 01 0d 1d
version:         01 03
basic params:    68 22 1b 78 2a
chroma info:     f0 a5 a5 55 52 9f 27 0f 50 54
established:     a1 08 00
standard:        81 80 81 00 81 c0 01 01 01 01 01 01 01 01 01 01
descriptor 1:    30 2a 00 98 51 00 2a 40 30 70 13 00 52 0e 11 00 00 1e
descriptor 2:    00 00 00 fd 00 32 3c 34 46 0e 00 0a 20 20 20 20 20 20
descriptor 3:    00 00 00 fc 00 48 50 20 50 31 37 34 0a 20 20 20 20 20
descriptor 4:    00 00 00 ff 00 33 43 51 39 31 33 31 44 54 54 0a 20 20
extensions:      00
checksum:        68

EDID version: 1.3
Manufacturer: HPN Model 362f Serial Number --
Made in week 13 of 2019
Analog display, Input voltage level: 0.7/0.7 V
Sync: Separate 
Maximum image size: 34 cm x 27 cm
Gamma: 2.20
DPMS levels: Off
RGB color display
First detailed timing is preferred timing
Display x,y Chromaticity:
  Red:   0.6474, 0.3349
  Green: 0.3203, 0.6210
  Blue:  0.1542, 0.0605
  White: 0.3134, 0.3291
Established timings supported:
  720x400@70Hz 9:5 HorFreq: 31469 Hz Clock: 28.320 MHz
  640x480@60Hz 4:3 HorFreq: 31469 Hz Clock: 25.175 MHz
  800x600@60Hz 4:3 HorFreq: 37900 Hz Clock: 40.000 MHz
  1024x768@60Hz 4:3 HorFreq: 48400 Hz Clock: 65.000 MHz
Standard timings supported:
  1280x1024@60Hz 5:4 HorFreq: 64000 Hz Clock: 108.000 MHz
  1280x800@60Hz 16:10
  1280x720@60Hz 16:9
Detailed mode: Clock 108.000 MHz, 338 mm x 270 mm
               1280 1328 1440 1688 hborder 0
               1024 1025 1028 1066 vborder 0
               +hsync +vsync 
               VertFreq: 60 Hz, HorFreq: 63981 Hz
Monitor ranges (GTF): 50-60Hz V, 52-70kHz H, max dotclock 140MHz
Monitor name: HP P174
Serial number: --
Checksum: 0x68 (valid)
One or more of the timings is out of range of the Monitor Ranges:
  Vertical Freq: 60 - 70 Hz
  Horizontal Freq: 31469 - 64000 Hz
  Maximum Clock: 108.000 MHz
