edid-decode (hex):

00 ff ff ff ff ff ff 00 10 ac 0d 30 4d 4c 37 43
2d 0c 01 03 80 1e 16 78 ee be 96 a1 5b 4c 94 24
18 4f 54 a5 4e 00 01 01 01 01 01 01 01 01 01 01
01 01 01 01 01 01 64 19 00 40 41 00 26 30 18 88
36 00 30 e4 10 00 00 18 00 00 00 ff 00 35 52 31
30 38 32 42 36 43 37 4c 4d 0a 00 00 00 fc 00 44
45 4c 4c 20 31 35 30 34 46 50 0a 20 00 00 00 fd
00 3c 4b 1e 3c 08 00 0a 20 20 20 20 20 20 00 ce

00 ff ff ff ff ff ff 00 10 ac 0d 30 4d 4c 37 43
2d 0c 01 03 80 1e 16 78 ee be 96 a1 5b 4c 94 24
18 4f 54 a5 4e 00 01 01 01 01 01 01 01 01 01 01
01 01 01 01 01 01 64 19 00 40 41 00 26 30 18 88
36 00 30 e4 10 00 00 18 00 00 00 ff 00 35 52 31
30 38 32 42 36 43 37 4c 4d 0a 00 00 00 fc 00 44
45 4c 4c 20 31 35 30 34 46 50 0a 20 00 00 00 fd
00 3c 4b 1e 3c 08 00 0a 20 20 20 20 20 20 00 ce

----------------

Block 0, Base EDID:
  EDID Structure Version & Revision: 1.3
  Vendor & Product Identification:
    Manufacturer: DEL
    Model: 12301
    Serial Number: ...
    Made in: week 45 of 2002
  Basic Display Parameters & Features:
    Digital display
    Maximum image size: 30 cm x 22 cm
    Gamma: 2.20
    DPMS levels: Standby Suspend Off
    RGB color display
    Default (sRGB) color space is primary color space
    First detailed timing is the preferred timing
  Color Characteristics:
    Red  : 0.6308, 0.3583
    Green: 0.2998, 0.5800
    Blue : 0.1425, 0.0947
    White: 0.3095, 0.3300
  Established Timings I & II:
    IBM     :   720x400    70.081663 Hz   9:5     31.467 kHz     28.320000 MHz
    DMT 0x04:   640x480    59.940476 Hz   4:3     31.469 kHz     25.175000 MHz
    DMT 0x06:   640x480    75.000000 Hz   4:3     37.500 kHz     31.500000 MHz
    DMT 0x09:   800x600    60.316541 Hz   4:3     37.879 kHz     40.000000 MHz
    DMT 0x0b:   800x600    75.000000 Hz   4:3     46.875 kHz     49.500000 MHz
    DMT 0x10:  1024x768    60.003840 Hz   4:3     48.363 kHz     65.000000 MHz
    DMT 0x11:  1024x768    70.069359 Hz   4:3     56.476 kHz     75.000000 MHz
    DMT 0x12:  1024x768    75.028582 Hz   4:3     60.023 kHz     78.750000 MHz
  Standard Timings: none
  Detailed Timing Descriptors:
    DTD 1:  1024x768    60.003840 Hz   4:3     48.363 kHz     65.000000 MHz (304 mm x 228 mm)
                 Hfront   24 Hsync 136 Hback  160 Hpol N
                 Vfront    3 Vsync   6 Vback   29 Vpol N
    Display Product Serial Number: ...
    Display Product Name: 'DELL 1504FP'
    Display Range Limits:
      Monitor ranges (GTF): 60-75 Hz V, 30-60 kHz H, max dotclock 80 MHz
Checksum: 0xce

----------------

Block 1, Unknown EDID Extension Block 0x00:
  00 ff ff ff ff ff ff 00 10 ac 0d 30 4d 4c 37 43 '...........0ML7C'
  2d 0c 01 03 80 1e 16 78 ee be 96 a1 5b 4c 94 24 '-......x....[L.$'
  18 4f 54 a5 4e 00 01 01 01 01 01 01 01 01 01 01 '.OT.N...........'
  01 01 01 01 01 01 64 19 00 40 41 00 26 30 18 88 '......d..@A.&0..'
  36 00 30 e4 10 00 00 18 00 00 00 ff 00 35 52 31 '6.0..........5R1'
  30 38 32 42 36 43 37 4c 4d 0a 00 00 00 fc 00 44 '082B6C7LM......D'
  45 4c 4c 20 31 35 30 34 46 50 0a 20 00 00 00 fd 'ELL 1504FP. ....'
  00 3c 4b 1e 3c 08 00 0a 20 20 20 20 20 20 00 ce '.<K.<...      ..'
Checksum: 0xce

----------------

Failures:

Block 0, Base EDID:
  Basic Display Parameters & Features: sRGB is signaled, but the chromaticities do not match.
Block 1, Base EDID:
  Unknown Extension Block.
EDID:
  Base EDID: EDID specified 0 extension block(s), but found 1 extension block(s).

EDID conformity: FAIL
