
EDID (hex):
00ffffffffffff003438c3069b11b400
260e010380211b78eaaea5a6544c9926
14505421080031404540614081800101
010101010101302a009851002a403070
13004a0e1100001e000000fd003b3d1f
43ff000a202020202020000000fc0042
656c696e6561200a20202020000000fc
003130313733300a2020202020200073

Extracted contents:
header:          00 ff ff ff ff ff ff 00
serial number:   34 38 c3 06 9b 11 b4 00 26 0e
version:         01 03
basic params:    80 21 1b 78 ea
chroma info:     ae a5 a6 54 4c 99 26 14 50 54
established:     21 08 00
standard:        31 40 45 40 61 40 81 80 01 01 01 01 01 01 01 01
descriptor 1:    30 2a 00 98 51 00 2a 40 30 70 13 00 4a 0e 11 00 00 1e
descriptor 2:    00 00 00 fd 00 3b 3d 1f 43 ff 00 0a 20 20 20 20 20 20
descriptor 3:    00 00 00 fc 00 42 65 6c 69 6e 65 61 20 0a 20 20 20 20
descriptor 4:    00 00 00 fc 00 31 30 31 37 33 30 0a 20 20 20 20 20 20
extensions:      00
checksum:        73

EDID version: 1.3
Manufacturer: MAX Model 6c3 Serial Number --
Digital display
Maximum image size: 33 cm x 27 cm
Gamma: 2.20
DPMS levels: Standby Suspend Off
RGB color display
First detailed timing is preferred timing
Display x,y Chromaticity:
  Red:   0.6503, 0.3300
  Green: 0.2998, 0.5996
  Blue:  0.1503, 0.0800
  White: 0.3134, 0.3291
Established timings supported:
  640x480@60Hz 4:3 HorFreq: 31469 Hz Clock: 25.175 MHz
  800x600@60Hz 4:3 HorFreq: 37900 Hz Clock: 40.000 MHz
  1024x768@60Hz 4:3 HorFreq: 48400 Hz Clock: 65.000 MHz
Standard timings supported:
  640x480@60Hz 4:3 HorFreq: 31469 Hz Clock: 25.175 MHz
  800x600@60Hz 4:3 HorFreq: 37900 Hz Clock: 40.000 MHz
  1024x768@60Hz 4:3 HorFreq: 48400 Hz Clock: 65.000 MHz
  1280x1024@60Hz 5:4 HorFreq: 64000 Hz Clock: 108.000 MHz
Detailed mode: Clock 108.000 MHz, 330 mm x 270 mm
               1280 1328 1440 1688 hborder 0
               1024 1025 1028 1066 vborder 0
               +hsync +vsync 
               VertFreq: 60 Hz, HorFreq: 63981 Hz
Monitor ranges (GTF): 59-61Hz V, 31-67kHz H, max dotclock 2550MHz
Monitor name: Belinea 
Checksum: 0x73 (valid)
EDID block does not conform at all!
	Bad year of manufacture
