edid-decode (hex):

00 ff ff ff ff ff ff 00 30 e4 ff 01 00 00 00 00
00 13 01 03 80 16 0d 78 0a bf b5 96 58 54 8b 27
20 50 54 00 00 00 01 01 01 01 01 01 01 01 01 01
01 01 01 01 01 01 2c 10 00 8c 40 40 11 20 30 20
35 00 e0 7e 00 00 00 1b 2c 10 00 8c 40 40 11 20
30 20 35 00 e0 7e 00 00 00 1b 00 00 00 fe 00 4d
31 36 37 50 80 31 30 31 57 53 31 0a 00 00 00 00
00 00 00 00 00 00 00 00 00 01 01 0a 20 20 00 10

----------------

Block 0, Base EDID:
  EDID Structure Version & Revision: 1.3
  Vendor & Product Identification:
    Manufacturer: LGD
    Model: 511
    Made in: 2009
  Basic Display Parameters & Features:
    Digital display
    Maximum image size: 22 cm x 13 cm
    Gamma: 2.20
    RGB color display
    First detailed timing is the preferred timing
  Color Characteristics:
    Red  : 0.5878, 0.3466
    Green: 0.3310, 0.5458
    Blue : 0.1542, 0.1279
    White: 0.3134, 0.3291
  Established Timings I & II: none
  Standard Timings: none
  Detailed Timing Descriptors:
    DTD 1:  1024x576    59.978095 Hz  16:9     35.567 kHz     41.400000 MHz (224 mm x 126 mm)
                 Hfront   48 Hsync  32 Hback   60 Hpol P
                 Vfront    3 Vsync   5 Vback    9 Vpol N
    DTD 2:  1024x576    59.978095 Hz  16:9     35.567 kHz     41.400000 MHz (224 mm x 126 mm)
                 Hfront   48 Hsync  32 Hback   60 Hpol P
                 Vfront    3 Vsync   5 Vback    9 Vpol N
    Alphanumeric Data String: 'M167P'
    Manufacturer-Specified Display Descriptor (0x00): 00 00 00 00 00 00 00 00 00 00 00 01 01 0a 20 20 '..............  '
Checksum: 0x10

----------------

Failures:

Block 0, Base EDID:
  Alphanumeric Data String: Non-printable character.
  Missing Display Product Name.
  Missing Display Range Limits Descriptor.

EDID conformity: FAIL
