edid-decode (hex):

00 ff ff ff ff ff ff 00 0e 11 30 01 32 39 38 41
2c 07 01 01 68 1b 14 b9 c8 b0 5e a4 52 4d 9b 24
0e 48 4f a5 48 00 01 01 01 01 01 01 01 01 01 01
01 01 01 01 01 01 01 01 01 01 01 01 01 01 01 01
01 01 01 01 01 01 01 01 00 00 00 fd 00 32 5a 1e
32 ff 00 0a 20 20 20 20 20 20 00 00 00 ff 00 37
34 34 41 47 31 39 57 41 38 39 32 0a 00 00 00 fc
00 43 4f 4d 50 41 51 20 56 34 31 30 0a 20 00 58

----------------

Block 0, Base EDID:
  EDID Structure Version & Revision: 1.1
  Vendor & Product Identification:
    Manufacturer: CPQ
    Model: 304
    Serial Number: ...
    Made in: week 44 of 1997
  Basic Display Parameters & Features:
    Analog display
    Input voltage level: 0.7/0.7 V
    Blank level equals black level
    Sync: Separate
    Maximum image size: 27 cm x 20 cm
    Gamma: 2.85
    DPMS levels: Standby Suspend
    RGB color display
  Color Characteristics:
    Red  : 0.6425, 0.3232
    Green: 0.3007, 0.6054
    Blue : 0.1416, 0.0556
    White: 0.2841, 0.3105
  Established Timings I & II:
    IBM     :   720x400    70.081663 Hz   9:5     31.467 kHz     28.320000 MHz
    DMT 0x04:   640x480    59.940476 Hz   4:3     31.469 kHz     25.175000 MHz
    DMT 0x06:   640x480    75.000000 Hz   4:3     37.500 kHz     31.500000 MHz
    DMT 0x09:   800x600    60.316541 Hz   4:3     37.879 kHz     40.000000 MHz
    DMT 0x0b:   800x600    75.000000 Hz   4:3     46.875 kHz     49.500000 MHz
    DMT 0x10:  1024x768    60.003840 Hz   4:3     48.363 kHz     65.000000 MHz
  Standard Timings: none
  Detailed Timing Descriptors:
    Detailed mode: 01 01 01 01 01 01 01 01 01 01 01 01 01 01 01 01 01 01 '..................'
    Display Range Limits:
      Monitor ranges (GTF): 50-90 Hz V, 30-50 kHz H, max dotclock 2550 MHz
    Display Product Serial Number: ...
    Display Product Name: 'COMPAQ V410'
Checksum: 0x58

----------------

Warnings:

Block 0, Base EDID:
  EDID Structure Version & Revision: EDID 1.1 is deprecated, do not use.

Failures:

Block 0, Base EDID:
  Detailed Timing Descriptor #1: Pixelclock < 10 MHz, assuming invalid data 0x01 0x01.

EDID conformity: FAIL
