
EDID (hex):
00ffffffffffff002264105b01010101
191101030a2f1e782ea8c6a6514d9b24
134f54bfef80b30fa9409040904f8180
8140714fa94f21399030621a274068b0
3600b10f1100001c000000ff00373235
4d413351413030393432000000fd0032
4b1e5e15000a202020202020000000fc
0048573232330a2020202020202000a5

Extracted contents:
header:          00 ff ff ff ff ff ff 00
serial number:   22 64 10 5b 01 01 01 01 19 11
version:         01 03
basic params:    0a 2f 1e 78 2e
chroma info:     a8 c6 a6 51 4d 9b 24 13 4f 54
established:     bf ef 80
standard:        b3 0f a9 40 90 40 90 4f 81 80 81 40 71 4f a9 4f
descriptor 1:    21 39 90 30 62 1a 27 40 68 b0 36 00 b1 0f 11 00 00 1c
descriptor 2:    00 00 00 ff 00 37 32 35 4d 41 33 51 41 30 30 39 34 32
descriptor 3:    00 00 00 fd 00 32 4b 1e 5e 15 00 0a 20 20 20 20 20 20
descriptor 4:    00 00 00 fc 00 48 57 32 32 33 0a 20 20 20 20 20 20 20
extensions:      00
checksum:        a5

EDID version: 1.3
Manufacturer: HSD Model 5b10 Serial Number --
Made in week 25 of 2007
Analog display, Input voltage level: 0.7/0.3 V
Sync: Separate SyncOnGreen 
Maximum image size: 47 cm x 30 cm
Gamma: 2.20
DPMS levels: Off
RGB color display
Default (sRGB) color space is primary color space
First detailed timing is preferred timing
Display x,y Chromaticity:
  Red:   0.6503, 0.3183
  Green: 0.3027, 0.6054
  Blue:  0.1435, 0.0742
  White: 0.3095, 0.3300
Established timings supported:
  720x400@70Hz 9:5 HorFreq: 31469 Hz Clock: 28.320 MHz
  640x480@60Hz 4:3 HorFreq: 31469 Hz Clock: 25.175 MHz
  640x480@67Hz 4:3 HorFreq: 35000 Hz Clock: 30.240 MHz
  640x480@72Hz 4:3 HorFreq: 37900 Hz Clock: 31.500 MHz
  640x480@75Hz 4:3 HorFreq: 37500 Hz Clock: 31.500 MHz
  800x600@56Hz 4:3 HorFreq: 35200 Hz Clock: 36.000 MHz
  800x600@60Hz 4:3 HorFreq: 37900 Hz Clock: 40.000 MHz
  800x600@72Hz 4:3 HorFreq: 48100 Hz Clock: 50.000 MHz
  800x600@75Hz 4:3 HorFreq: 46900 Hz Clock: 49.500 MHz
  832x624@75Hz 4:3 HorFreq: 49726 Hz Clock: 57.284 MHz
  1024x768@60Hz 4:3 HorFreq: 48400 Hz Clock: 65.000 MHz
  1024x768@70Hz 4:3 HorFreq: 56500 Hz Clock: 75.000 MHz
  1024x768@75Hz 4:3 HorFreq: 60000 Hz Clock: 78.750 MHz
  1280x1024@75Hz 5:4 HorFreq: 80000 Hz Clock: 135.000 MHz
  1152x870@75Hz 192:145 HorFreq: 67500 Hz Clock: 108.000 MHz
Standard timings supported:
  1680x1050@75Hz 16:10 HorFreq: 82300 Hz Clock: 187.000 MHz
  1600x1200@60Hz 4:3 HorFreq: 75000 Hz Clock: 162.000 MHz
  1400x1050@60Hz 4:3 HorFreq: 64700 Hz Clock: 101.000 MHz
  1400x1050@75Hz 4:3 HorFreq: 82300 Hz Clock: 156.000 MHz
  1280x1024@60Hz 5:4 HorFreq: 64000 Hz Clock: 108.000 MHz
  1280x960@60Hz 4:3 HorFreq: 60000 Hz Clock: 108.000 MHz
  1152x864@75Hz 4:3 HorFreq: 67500 Hz Clock: 108.000 MHz
  1600x1200@75Hz 4:3 HorFreq: 93800 Hz Clock: 202.500 MHz
Detailed mode: Clock 146.250 MHz, 433 mm x 271 mm
               1680 1784 1960 2240 hborder 0
               1050 1053 1059 1089 vborder 0
               -hsync +vsync 
               VertFreq: 59 Hz, HorFreq: 65290 Hz
Serial number: --
Monitor ranges (GTF): 50-75Hz V, 30-94kHz H, max dotclock 210MHz
Monitor name: HW223
Checksum: 0xa5 (valid)
EDID block does NOT conform to EDID 1.3!
	sRGB is signaled, but the chromaticities do not match
