
EDID (hex):
00ffffffffffff0030ae541137800000
27120103681e17782a4fe0a1574c9123
195054bdce0001010101010101010101
01010101010164190040410026301888
360030e410000000000000ff00343336
41423156463332383233000000fd0032
4b1e3c08000a202020202020000000fc
00443135330a2020202020202020004c

Extracted contents:
header:          00 ff ff ff ff ff ff 00
serial number:   30 ae 54 11 37 80 00 00 27 12
version:         01 03
basic params:    68 1e 17 78 2a
chroma info:     4f e0 a1 57 4c 91 23 19 50 54
established:     bd ce 00
standard:        01 01 01 01 01 01 01 01 01 01 01 01 01 01 01 01
descriptor 1:    64 19 00 40 41 00 26 30 18 88 36 00 30 e4 10 00 00 00
descriptor 2:    00 00 00 ff 00 34 33 36 41 42 31 56 46 33 32 38 32 33
descriptor 3:    00 00 00 fd 00 32 4b 1e 3c 08 00 0a 20 20 20 20 20 20
descriptor 4:    00 00 00 fc 00 44 31 35 33 0a 20 20 20 20 20 20 20 20
extensions:      00
checksum:        4c

EDID version: 1.3
Manufacturer: LEN Model 1154 Serial Number --
Made in week 39 of 2008
Analog display, Input voltage level: 0.7/0.7 V
Sync: Separate 
Maximum image size: 30 cm x 23 cm
Gamma: 2.20
DPMS levels: Off
RGB color display
First detailed timing is preferred timing
Display x,y Chromaticity:
  Red:   0.6298, 0.3398
  Green: 0.2998, 0.5693
  Blue:  0.1396, 0.0996
  White: 0.3125, 0.3281
Established timings supported:
  720x400@70Hz 9:5 HorFreq: 31469 Hz Clock: 28.320 MHz
  640x480@60Hz 4:3 HorFreq: 31469 Hz Clock: 25.175 MHz
  640x480@67Hz 4:3 HorFreq: 35000 Hz Clock: 30.240 MHz
  640x480@72Hz 4:3 HorFreq: 37900 Hz Clock: 31.500 MHz
  640x480@75Hz 4:3 HorFreq: 37500 Hz Clock: 31.500 MHz
  800x600@60Hz 4:3 HorFreq: 37900 Hz Clock: 40.000 MHz
  800x600@72Hz 4:3 HorFreq: 48100 Hz Clock: 50.000 MHz
  800x600@75Hz 4:3 HorFreq: 46900 Hz Clock: 49.500 MHz
  1024x768@60Hz 4:3 HorFreq: 48400 Hz Clock: 65.000 MHz
  1024x768@70Hz 4:3 HorFreq: 56500 Hz Clock: 75.000 MHz
  1024x768@75Hz 4:3 HorFreq: 60000 Hz Clock: 78.750 MHz
Standard timings supported:
Detailed mode: Clock 65.000 MHz, 304 mm x 228 mm
               1024 1048 1184 1344 hborder 0
                768  771  777  806 vborder 0
               -hsync -vsync analog composite 
               VertFreq: 60 Hz, HorFreq: 48363 Hz
Serial number: --
Monitor ranges (GTF): 50-75Hz V, 30-60kHz H, max dotclock 80MHz
Monitor name: D153
Checksum: 0x4c (valid)
