edid-decode (hex):

00 ff ff ff ff ff ff 00 24 55 25 c0 01 01 01 01
07 15 01 03 80 5d 34 78 2a e6 9d a3 54 4a 99 26
0f 47 4a ad 4a 00 a9 40 81 80 81 40 01 01 01 01
01 01 01 01 01 01 02 3a 80 18 71 38 2d 40 58 2c
45 00 a2 0b 32 00 00 1e 00 00 00 ff 00 36 32 37
31 31 31 30 37 30 33 30 30 0a 00 00 00 fd 00 32
4b 1e 4b ff 00 0a 20 20 20 20 20 20 00 00 00 fc
00 50 53 34 32 30 30 0a 20 20 20 20 20 20 00 12

00 ff ff ff ff ff ff 00 24 55 25 c0 01 01 01 01
07 15 01 03 80 5d 34 78 2a e6 9d a3 54 4a 99 26
0f 47 4a ad 4a 00 a9 40 81 80 81 40 01 01 01 01
01 01 01 01 01 01 02 3a 80 18 71 38 2d 40 58 2c
45 00 a2 0b 32 00 00 1e 00 00 00 ff 00 36 32 37
31 31 31 30 37 30 33 30 30 0a 00 00 00 fd 00 32
4b 1e 4b ff 00 0a 20 20 20 20 20 20 00 00 00 fc
00 50 53 34 32 30 30 0a 20 20 20 20 20 20 00 12

----------------

Block 0, Base EDID:
  EDID Structure Version & Revision: 1.3
  Vendor & Product Identification:
    Manufacturer: IBU
    Model: 49189
    Serial Number: ...
    Made in: week 7 of 2011
  Basic Display Parameters & Features:
    Digital display
    Maximum image size: 93 cm x 52 cm
    Gamma: 2.20
    DPMS levels: Off
    RGB color display
    First detailed timing is the preferred timing
  Color Characteristics:
    Red  : 0.6396, 0.3300
    Green: 0.2900, 0.5996
    Blue : 0.1503, 0.0595
    White: 0.2802, 0.2900
  Established Timings I & II:
    IBM     :   720x400    70.081663 Hz   9:5     31.467 kHz     28.320000 MHz
    DMT 0x04:   640x480    59.940476 Hz   4:3     31.469 kHz     25.175000 MHz
    DMT 0x05:   640x480    72.808802 Hz   4:3     37.861 kHz     31.500000 MHz
    DMT 0x06:   640x480    75.000000 Hz   4:3     37.500 kHz     31.500000 MHz
    DMT 0x09:   800x600    60.316541 Hz   4:3     37.879 kHz     40.000000 MHz
    DMT 0x0b:   800x600    75.000000 Hz   4:3     46.875 kHz     49.500000 MHz
    DMT 0x10:  1024x768    60.003840 Hz   4:3     48.363 kHz     65.000000 MHz
    DMT 0x12:  1024x768    75.028582 Hz   4:3     60.023 kHz     78.750000 MHz
  Standard Timings:
    DMT 0x33:  1600x1200   60.000000 Hz   4:3     75.000 kHz    162.000000 MHz
    DMT 0x23:  1280x1024   60.019740 Hz   5:4     63.981 kHz    108.000000 MHz
    DMT 0x20:  1280x960    60.000000 Hz   4:3     60.000 kHz    108.000000 MHz
  Detailed Timing Descriptors:
    DTD 1:  1920x1080   60.000000 Hz  16:9     67.500 kHz    148.500000 MHz (930 mm x 523 mm)
                 Hfront   88 Hsync  44 Hback  148 Hpol P
                 Vfront    4 Vsync   5 Vback   36 Vpol P
    Display Product Serial Number: ...
    Display Range Limits:
      Monitor ranges (GTF): 50-75 Hz V, 30-75 kHz H, max dotclock 2550 MHz
    Display Product Name: 'PS4200'
Checksum: 0x12

----------------

Block 1, Unknown EDID Extension Block 0x00:
  00 ff ff ff ff ff ff 00 24 55 25 c0 01 01 01 01 '........$U%.....'
  07 15 01 03 80 5d 34 78 2a e6 9d a3 54 4a 99 26 '.....]4x*...TJ.&'
  0f 47 4a ad 4a 00 a9 40 81 80 81 40 01 01 01 01 '.GJ.J..@...@....'
  01 01 01 01 01 01 02 3a 80 18 71 38 2d 40 58 2c '.......:..q8-@X,'
  45 00 a2 0b 32 00 00 1e 00 00 00 ff 00 36 32 37 'E...2........627'
  31 31 31 30 37 30 33 30 30 0a 00 00 00 fd 00 32 '111070300......2'
  4b 1e 4b ff 00 0a 20 20 20 20 20 20 00 00 00 fc 'K.K...      ....'
  00 50 53 34 32 30 30 0a 20 20 20 20 20 20 00 12 '.PS4200.      ..'
Checksum: 0x12

----------------

Failures:

Block 1, Base EDID:
  Unknown Extension Block.
EDID:
  Base EDID: EDID specified 0 extension block(s), but found 1 extension block(s).

EDID conformity: FAIL
