
EDID (hex):
00ffffffffffff004c2d450037315550
130e01036820187e2a2e19a551469825
0f484ca4420031403159455961598180
010101010101ea240060410028303060
130038ea1000001e000000fd0032a01e
460b000a202020202020000000fc0053
796e634d61737465720a2020000000ff
00485342583530303934310a202000a9

Extracted contents:
header:          00 ff ff ff ff ff ff 00
serial number:   4c 2d 45 00 37 31 55 50 13 0e
version:         01 03
basic params:    68 20 18 7e 2a
chroma info:     2e 19 a5 51 46 98 25 0f 48 4c
established:     a4 42 00
standard:        31 40 31 59 45 59 61 59 81 80 01 01 01 01 01 01
descriptor 1:    ea 24 00 60 41 00 28 30 30 60 13 00 38 ea 10 00 00 1e
descriptor 2:    00 00 00 fd 00 32 a0 1e 46 0b 00 0a 20 20 20 20 20 20
descriptor 3:    00 00 00 fc 00 53 79 6e 63 4d 61 73 74 65 72 0a 20 20
descriptor 4:    00 00 00 ff 00 48 53 42 58 35 30 30 39 34 31 0a 20 20
extensions:      00
checksum:        a9

EDID version: 1.3
Manufacturer: SAM Model 45 Serial Number --
Analog display, Input voltage level: 0.7/0.7 V
Sync: Separate 
Maximum image size: 32 cm x 24 cm
Gamma: 2.26
DPMS levels: Off
RGB color display
First detailed timing is preferred timing
Display x,y Chromaticity:
  Red:   0.6445, 0.3183
  Green: 0.2763, 0.5957
  Blue:  0.1445, 0.0595
  White: 0.2832, 0.2978
Established timings supported:
  720x400@70Hz 9:5 HorFreq: 31469 Hz Clock: 28.320 MHz
  640x480@60Hz 4:3 HorFreq: 31469 Hz Clock: 25.175 MHz
  640x480@75Hz 4:3 HorFreq: 37500 Hz Clock: 31.500 MHz
  800x600@75Hz 4:3 HorFreq: 46900 Hz Clock: 49.500 MHz
  1024x768@75Hz 4:3 HorFreq: 60000 Hz Clock: 78.750 MHz
Standard timings supported:
  640x480@60Hz 4:3 HorFreq: 31469 Hz Clock: 25.175 MHz
  640x480@85Hz 4:3 HorFreq: 43300 Hz Clock: 36.000 MHz
  800x600@85Hz 4:3 HorFreq: 53700 Hz Clock: 56.250 MHz
  1024x768@85Hz 4:3 HorFreq: 68700 Hz Clock: 94.500 MHz
  1280x1024@60Hz 5:4 HorFreq: 64000 Hz Clock: 108.000 MHz
Detailed mode: Clock 94.500 MHz, 312 mm x 234 mm
               1024 1072 1168 1376 hborder 0
                768  769  772  808 vborder 0
               +hsync +vsync 
               VertFreq: 84 Hz, HorFreq: 68677 Hz
Monitor ranges (GTF): 50-160Hz V, 30-70kHz H, max dotclock 110MHz
Monitor name: SyncMaster
Serial number: --
Checksum: 0xa9 (valid)
EDID block does not conform at all!
	Bad year of manufacture
