
EDID (hex):
00ffffffffffff0006b3b42745e60100
0c1c0104a53d237806ee91a3544c9926
0f505421080001010101010101010101
010101010101565e00a0a0a029503020
350060622100001a000000ff00234153
4e6934506b6643383764000000fd001e
9058de3b010a202020202020000000fc
00524f472050473237560a2020200116
020312412309070183010000654b0400
01015a8700a0a0a03b50302035006062
2100001a5aa000a0a0a0465030203500
60622100001a6fc200a0a0a055503020
350060622100001a22e50050a0a06750
08203a0060622100001e000000000000
00000000000000000000000000000000
00000000000000000000000000000091

edid-decode (hex):

00 ff ff ff ff ff ff 00 06 b3 b4 27 45 e6 01 00
0c 1c 01 04 a5 3d 23 78 06 ee 91 a3 54 4c 99 26
0f 50 54 21 08 00 01 01 01 01 01 01 01 01 01 01
01 01 01 01 01 01 56 5e 00 a0 a0 a0 29 50 30 20
35 00 60 62 21 00 00 1a 00 00 00 ff 00 23 41 53
4e 69 34 50 6b 66 43 38 37 64 00 00 00 fd 00 1e
90 58 de 3b 01 0a 20 20 20 20 20 20 00 00 00 fc
00 52 4f 47 20 50 47 32 37 56 0a 20 20 20 01 16

02 03 12 41 23 09 07 01 83 01 00 00 65 4b 04 00
01 01 5a 87 00 a0 a0 a0 3b 50 30 20 35 00 60 62
21 00 00 1a 5a a0 00 a0 a0 a0 46 50 30 20 35 00
60 62 21 00 00 1a 6f c2 00 a0 a0 a0 55 50 30 20
35 00 60 62 21 00 00 1a 22 e5 00 50 a0 a0 67 50
08 20 3a 00 60 62 21 00 00 1e 00 00 00 00 00 00
00 00 00 00 00 00 00 00 00 00 00 00 00 00 00 00
00 00 00 00 00 00 00 00 00 00 00 00 00 00 00 91

----------------

Block 0, Base EDID:
  EDID Structure Version & Revision: 1.4
  Vendor & Product Identification:
    Manufacturer: AUS
    Model: 10164
    Serial Number: 124485
    Made in: week 12 of 2018
  Basic Display Parameters & Features:
    Digital display
    Bits per primary color channel: 8
    DisplayPort interface
    Maximum image size: 61 cm x 35 cm
    Gamma: 2.20
    Supported color formats: RGB 4:4:4
    Default (sRGB) color space is primary color space
    First detailed timing includes the native pixel format and preferred refresh rate
  Color Characteristics:
    Red  : 0.6396, 0.3300
    Green: 0.2998, 0.5996
    Blue : 0.1503, 0.0595
    White: 0.3125, 0.3291
  Established Timings I & II:
    DMT 0x04:   640x480    59.940476 Hz   4:3     31.469 kHz     25.175000 MHz
    DMT 0x09:   800x600    60.316541 Hz   4:3     37.879 kHz     40.000000 MHz
    DMT 0x10:  1024x768    60.003840 Hz   4:3     48.363 kHz     65.000000 MHz
  Standard Timings: none
  Detailed Timing Descriptors:
    DTD 1:  2560x1440   59.950550 Hz  16:9     88.787 kHz    241.500000 MHz (608 mm x 354 mm)
                 Hfront   48 Hsync  32 Hback   80 Hpol P
                 Vfront    3 Vsync   5 Vback   33 Vpol N
    Display Product Serial Number: '#ASNi4PkfC87d'
    Display Range Limits:
      Monitor ranges (Bare Limits): 30-144 Hz V, 88-222 kHz H, max dotclock 590 MHz
    Display Product Name: 'ROG PG27V'
  Extension blocks: 1
Checksum: 0x16

----------------

Block 1, CTA-861 Extension Block:
  Revision: 3
  Basic audio support
  Native detailed modes: 1
  Audio Data Block:
    Linear PCM:
      Max channels: 2
      Supported sample rates (kHz): 48 44.1 32
      Supported sample sizes (bits): 16
  Speaker Allocation Data Block:
    FL/FR - Front Left/Right
  Vendor-Specific Data Block (NVIDIA), OUI 00-04-4B:
    01 01                                           '..'
  Detailed Timing Descriptors:
    DTD 2:  2560x1440   84.983126 Hz  16:9    127.390 kHz    346.500000 MHz (608 mm x 354 mm)
                 Hfront   48 Hsync  32 Hback   80 Hpol P
                 Vfront    3 Vsync   5 Vback   51 Vpol N
    DTD 3:  2560x1440   99.946436 Hz  16:9    150.919 kHz    410.500000 MHz (608 mm x 354 mm)
                 Hfront   48 Hsync  32 Hback   80 Hpol P
                 Vfront    3 Vsync   5 Vback   62 Vpol N
    DTD 4:  2560x1440  119.997589 Hz  16:9    182.996 kHz    497.750000 MHz (608 mm x 354 mm)
                 Hfront   48 Hsync  32 Hback   80 Hpol P
                 Vfront    3 Vsync   5 Vback   77 Vpol N
    DTD 5:  2560x1440  143.998311 Hz  16:9    222.189 kHz    586.580000 MHz (608 mm x 354 mm)
                 Hfront    8 Hsync  32 Hback   40 Hpol P
                 Vfront    3 Vsync  10 Vback   90 Vpol P
Checksum: 0x91  Unused space in Extension Block: 37 bytes


