
EDID (hex):
00ffffffffffff00220e1535883d156f
0f1b0103800605781eee91a3544c9926
0f505420000001010101010101010101
010101010101689c4050b0a03f500820
180c3c32000000188c694074b0a03f50
1820180c3c3200000018000000fc0041
4e58373533300a2020202020000000fd
003c5a1f873c000a2020202020200145
02032b8042100165030c00100067d85d
c401518000755c12ca0107e6093178bd
625531affe97577f911f330000000000
00000000000000000000000000000000
00000000000000000000000000000000
00000000000000000000000000000000
00000000000000000000000000000000
00000000000000000000000000000058

Extracted contents:
header:          00 ff ff ff ff ff ff 00
serial number:   22 0e 15 35 88 3d 15 6f 0f 1b
version:         01 03
basic params:    80 06 05 78 1e
chroma info:     ee 91 a3 54 4c 99 26 0f 50 54
established:     20 00 00
standard:        01 01 01 01 01 01 01 01 01 01 01 01 01 01 01 01
descriptor 1:    68 9c 40 50 b0 a0 3f 50 08 20 18 0c 3c 32 00 00 00 18
descriptor 2:    8c 69 40 74 b0 a0 3f 50 18 20 18 0c 3c 32 00 00 00 18
descriptor 3:    00 00 00 fc 00 41 4e 58 37 35 33 30 0a 20 20 20 20 20
descriptor 4:    00 00 00 fd 00 3c 5a 1f 87 3c 00 0a 20 20 20 20 20 20
extensions:      01
checksum:        45

EDID version: 1.3
Manufacturer: HPN Model 3515 Serial Number --
Made in week 15 of 2017
Digital display
Maximum image size: 6 cm x 5 cm
Gamma: 2.20
Undefined display color type
Default (sRGB) color space is primary color space
First detailed timing is preferred timing
Display x,y Chromaticity:
  Red:   0.6396, 0.3300
  Green: 0.2998, 0.5996
  Blue:  0.1503, 0.0595
  White: 0.3125, 0.3291
Established timings supported:
  640x480@60Hz 4:3 HorFreq: 31469 Hz Clock: 25.175 MHz
Standard timings supported:
Detailed mode: Clock 400.400 MHz, 60 mm x 50 mm
               2880 2888 2920 2960 hborder 0
               1440 1489 1497 1503 vborder 0
               -hsync -vsync 
               VertFreq: 90 Hz, HorFreq: 135270 Hz
Detailed mode: Clock 270.200 MHz, 60 mm x 50 mm
               2880 2904 2936 2996 hborder 0
               1440 1489 1497 1503 vborder 0
               -hsync -vsync 
               VertFreq: 60 Hz, HorFreq: 90186 Hz
Monitor name: ANX7530
Monitor ranges (GTF): 60-90Hz V, 31-135kHz H, max dotclock 600MHz
Has 1 extension blocks
Checksum: 0x45 (valid)

CTA extension block
Extension version: 3
39 bytes of CTA data
  Video data block
    VIC  16 1920x1080@60Hz 16:9  HorFreq: 67500 Hz Clock: 148.500 MHz
    VIC   1 640x480@60Hz 4:3  HorFreq: 31469 Hz Clock: 25.175 MHz
  Vendor-specific data block, OUI 000c03 (HDMI)
    Source physical address 1.0.0.0
  Vendor-specific data block, OUI c45dd8 (HDMI Forum)
    Version: 1
    Maximum TMDS Character Rate: 405MHz
    SCDC Present
  Vendor-specific data block, OUI ca125c
Underscans PC formats by default
0 native detailed modes
Checksum: 0x58 (valid)

One or more of the timings is out of range of the Monitor Ranges:
  Vertical Freq: 60 - 90 Hz
  Horizontal Freq: 31469 - 135270 Hz
  Maximum Clock: 400.400 MHz
