
EDID (hex):
00ffffffffffff005a63092c01010101
240c01037d2018782a7a68a056479926
12484cffff8061594559310a81408159
8199a94aa94fea240060410028303060
13002ce11000001e000000ff0032345a
3032333630313030370a000000fd0032
a01e6114000a202020202020000000fc
00503735662b0a202020202020200080

Extracted contents:
header:          00 ff ff ff ff ff ff 00
serial number:   5a 63 09 2c 01 01 01 01 24 0c
version:         01 03
basic params:    7d 20 18 78 2a
chroma info:     7a 68 a0 56 47 99 26 12 48 4c
established:     ff ff 80
standard:        61 59 45 59 31 0a 81 40 81 59 81 99 a9 4a a9 4f
descriptor 1:    ea 24 00 60 41 00 28 30 30 60 13 00 2c e1 10 00 00 1e
descriptor 2:    00 00 00 ff 00 32 34 5a 30 32 33 36 30 31 30 30 37 0a
descriptor 3:    00 00 00 fd 00 32 a0 1e 61 14 00 0a 20 20 20 20 20 20
descriptor 4:    00 00 00 fc 00 50 37 35 66 2b 0a 20 20 20 20 20 20 20
extensions:      00
checksum:        80

EDID version: 1.3
Manufacturer: VSC Model 2c09 Serial Number --
Analog display, Input voltage level: 0.7/0.7 V
Configurable signal levels
Sync: Separate Composite Serration 
Maximum image size: 32 cm x 24 cm
Gamma: 2.20
DPMS levels: Off
RGB color display
First detailed timing is preferred timing
Display x,y Chromaticity:
  Red:   0.6259, 0.3388
  Green: 0.2792, 0.5996
  Blue:  0.1494, 0.0722
  White: 0.2832, 0.2968
Established timings supported:
  720x400@70Hz 9:5 HorFreq: 31469 Hz Clock: 28.320 MHz
  720x400@88Hz 9:5 HorFreq: 39500 Hz Clock: 35.500 MHz
  640x480@60Hz 4:3 HorFreq: 31469 Hz Clock: 25.175 MHz
  640x480@67Hz 4:3 HorFreq: 35000 Hz Clock: 30.240 MHz
  640x480@72Hz 4:3 HorFreq: 37900 Hz Clock: 31.500 MHz
  640x480@75Hz 4:3 HorFreq: 37500 Hz Clock: 31.500 MHz
  800x600@56Hz 4:3 HorFreq: 35200 Hz Clock: 36.000 MHz
  800x600@60Hz 4:3 HorFreq: 37900 Hz Clock: 40.000 MHz
  800x600@72Hz 4:3 HorFreq: 48100 Hz Clock: 50.000 MHz
  800x600@75Hz 4:3 HorFreq: 46900 Hz Clock: 49.500 MHz
  832x624@75Hz 4:3 HorFreq: 49726 Hz Clock: 57.284 MHz
  1280x768i@87Hz 5:3 HorFreq: 35522 Hz Clock: 44.900 MHz
  1024x768@60Hz 4:3 HorFreq: 48400 Hz Clock: 65.000 MHz
  1024x768@70Hz 4:3 HorFreq: 56500 Hz Clock: 75.000 MHz
  1024x768@75Hz 4:3 HorFreq: 60000 Hz Clock: 78.750 MHz
  1280x1024@75Hz 5:4 HorFreq: 80000 Hz Clock: 135.000 MHz
  1152x870@75Hz 192:145 HorFreq: 67500 Hz Clock: 108.000 MHz
Standard timings supported:
  1024x768@85Hz 4:3 HorFreq: 68700 Hz Clock: 94.500 MHz
  800x600@85Hz 4:3 HorFreq: 53700 Hz Clock: 56.250 MHz
  640x400@70Hz 16:10
  1280x960@60Hz 4:3 HorFreq: 60000 Hz Clock: 108.000 MHz
  1280x960@85Hz 4:3 HorFreq: 85900 Hz Clock: 148.500 MHz
  1280x1024@85Hz 5:4 HorFreq: 91100 Hz Clock: 157.500 MHz
  1600x1200@70Hz 4:3 HorFreq: 87500 Hz Clock: 189.000 MHz
  1600x1200@75Hz 4:3 HorFreq: 93800 Hz Clock: 202.500 MHz
Detailed mode: Clock 94.500 MHz, 300 mm x 225 mm
               1024 1072 1168 1376 hborder 0
                768  769  772  808 vborder 0
               +hsync +vsync 
               VertFreq: 84 Hz, HorFreq: 68677 Hz
Serial number: --
Monitor ranges (GTF): 50-160Hz V, 30-97kHz H, max dotclock 200MHz
Monitor name: P75f+
Checksum: 0x80 (valid)
One or more of the timings is out of range of the Monitor Ranges:
  Vertical Freq: 56 - 88 Hz
  Horizontal Freq: 31469 - 93800 Hz
  Maximum Clock: 202.500 MHz
EDID block does not conform at all!
	Bad year of manufacture
