
EDID (hex):
00ffffffffffff000859004001000000
32140103807341780af330a75442aa26
0f505421080081c08180010101010101
010101010101023a801871382d40582c
450080884200001e0000000000000000
00000000000000000000000000fc0048
444d49202020200a20202020000000fd
0032551f450f000a2020202020200105
02031c72450602040510260907071107
508301000066030c002000808c0ad08a
20e02d10103e9600138e21000018011d
007251d01e206e285500c48e21000018
f339801871382d40582c4500c48e2100
001e0000000000000000000000000000
00000000000000000000000000000000
00000000000000000000000000000045

Extracted contents:
header:          00 ff ff ff ff ff ff 00
serial number:   08 59 00 40 01 00 00 00 32 14
version:         01 03
basic params:    80 73 41 78 0a
chroma info:     f3 30 a7 54 42 aa 26 0f 50 54
established:     21 08 00
standard:        81 c0 81 80 01 01 01 01 01 01 01 01 01 01 01 01
descriptor 1:    02 3a 80 18 71 38 2d 40 58 2c 45 00 80 88 42 00 00 1e
descriptor 2:    00 00 00 00 00 00 00 00 00 00 00 00 00 00 00 00 00 00
descriptor 3:    00 00 00 fc 00 48 44 4d 49 20 20 20 20 0a 20 20 20 20
descriptor 4:    00 00 00 fd 00 32 55 1f 45 0f 00 0a 20 20 20 20 20 20
extensions:      01
checksum:        05

EDID version: 1.3
Manufacturer: BBY Model 4000 Serial Number --
Made in week 50 of 2010
Digital display
Maximum image size: 115 cm x 65 cm
Gamma: 2.20
RGB color display
First detailed timing is preferred timing
Display x,y Chromaticity:
  Red:   0.6552, 0.3310
  Green: 0.2578, 0.6669
  Blue:  0.1484, 0.0615
  White: 0.3125, 0.3281
Established timings supported:
  640x480@60Hz 4:3 HorFreq: 31469 Hz Clock: 25.175 MHz
  800x600@60Hz 4:3 HorFreq: 37900 Hz Clock: 40.000 MHz
  1024x768@60Hz 4:3 HorFreq: 48400 Hz Clock: 65.000 MHz
Standard timings supported:
  1280x720@60Hz 16:9
  1280x1024@60Hz 5:4 HorFreq: 64000 Hz Clock: 108.000 MHz
Detailed mode: Clock 148.500 MHz, 1152 mm x 648 mm
               1920 2008 2052 2200 hborder 0
               1080 1084 1089 1125 vborder 0
               +hsync +vsync 
               VertFreq: 60 Hz, HorFreq: 67500 Hz
Manufacturer-specified data, tag 0
Monitor name: HDMI    
Monitor ranges (GTF): 50-85Hz V, 31-69kHz H, max dotclock 150MHz
Has 1 extension blocks
Checksum: 0x5 (valid)

CTA extension block
Extension version: 3
24 bytes of CTA data
  Video data block
    VIC   6 1440x480i@60Hz 4:3  HorFreq: 15734 Hz Clock: 27.000 MHz
    VIC   2 720x480@60Hz 4:3  HorFreq: 31469 Hz Clock: 27.000 MHz
    VIC   4 1280x720@60Hz 16:9  HorFreq: 45000 Hz Clock: 74.250 MHz
    VIC   5 1920x1080i@60Hz 16:9  HorFreq: 33750 Hz Clock: 74.250 MHz
    VIC  16 1920x1080@60Hz 16:9  HorFreq: 67500 Hz Clock: 148.500 MHz
  Audio data block
    Linear PCM, max channels 2
      Supported sample rates (kHz): 48 44.1 32
      Supported sample sizes (bits): 24 20 16
    AC-3, max channels 2
      Supported sample rates (kHz): 48 44.1 32
      Maximum bit rate: 640 kHz
  Speaker allocation data block
    Speaker map:
      FL/FR - Front Left/Right
  Vendor-specific data block, OUI 000c03 (HDMI)
    Source physical address 2.0.0.0
    Supports_AI
Basic audio support
Supports YCbCr 4:4:4
Supports YCbCr 4:2:2
2 native detailed modes
Detailed mode: Clock 27.000 MHz, 531 mm x 398 mm
                720  736  798  858 hborder 0
                480  489  495  525 vborder 0
               -hsync -vsync 
               VertFreq: 59 Hz, HorFreq: 31468 Hz
Detailed mode: Clock 74.250 MHz, 708 mm x 398 mm
               1280 1390 1430 1650 hborder 0
                720  725  730  750 vborder 0
               -hsync -vsync 
               VertFreq: 60 Hz, HorFreq: 45000 Hz
Detailed mode: Clock 148.350 MHz, 708 mm x 398 mm
               1920 2008 2052 2200 hborder 0
               1080 1084 1089 1125 vborder 0
               +hsync +vsync 
               VertFreq: 59 Hz, HorFreq: 67431 Hz
Checksum: 0x45 (valid)

One or more of the timings is out of range of the Monitor Ranges:
  Vertical Freq: 59 - 60 Hz
  Horizontal Freq: 15734 - 67500 Hz
  Maximum Clock: 148.500 MHz
