
EDID (hex):
00ffffffffffff00410c44c001010101
041401036a291778ee69b5a655489c25
145054a1080081408180010101010101
010101010101662156aa51001e30468f
33009ae61000001e000000fd00384c1e
530e000a202020202020000000fc0050
68696c69707320313931450a000000ff
005537413130303430313530363300ef

Extracted contents:
header:          00 ff ff ff ff ff ff 00
serial number:   41 0c 44 c0 01 01 01 01 04 14
version:         01 03
basic params:    6a 29 17 78 ee
chroma info:     69 b5 a6 55 48 9c 25 14 50 54
established:     a1 08 00
standard:        81 40 81 80 01 01 01 01 01 01 01 01 01 01 01 01
descriptor 1:    66 21 56 aa 51 00 1e 30 46 8f 33 00 9a e6 10 00 00 1e
descriptor 2:    00 00 00 fd 00 38 4c 1e 53 0e 00 0a 20 20 20 20 20 20
descriptor 3:    00 00 00 fc 00 50 68 69 6c 69 70 73 20 31 39 31 45 0a
descriptor 4:    00 00 00 ff 00 55 37 41 31 30 30 34 30 31 35 30 36 33
extensions:      00
checksum:        ef

EDID version: 1.3
Manufacturer: PHL Model c044 Serial Number --
Made in week 4 of 2010
Analog display, Input voltage level: 0.7/0.7 V
Sync: Separate SyncOnGreen 
Maximum image size: 41 cm x 23 cm
Gamma: 2.20
DPMS levels: Standby Suspend Off
RGB color display
Default (sRGB) color space is primary color space
First detailed timing is preferred timing
Display x,y Chromaticity:
  Red:   0.6494, 0.3339
  Green: 0.2832, 0.6103
  Blue:  0.1464, 0.0810
  White: 0.3134, 0.3291
Established timings supported:
  720x400@70Hz 9:5 HorFreq: 31469 Hz Clock: 28.320 MHz
  640x480@60Hz 4:3 HorFreq: 31469 Hz Clock: 25.175 MHz
  800x600@60Hz 4:3 HorFreq: 37900 Hz Clock: 40.000 MHz
  1024x768@60Hz 4:3 HorFreq: 48400 Hz Clock: 65.000 MHz
Standard timings supported:
  1280x960@60Hz 4:3 HorFreq: 60000 Hz Clock: 108.000 MHz
  1280x1024@60Hz 5:4 HorFreq: 64000 Hz Clock: 108.000 MHz
Detailed mode: Clock 85.500 MHz, 410 mm x 230 mm
               1366 1436 1579 1792 hborder 0
                768  771  774  798 vborder 0
               +hsync +vsync 
               VertFreq: 59 Hz, HorFreq: 47712 Hz
Monitor ranges (GTF): 56-76Hz V, 30-83kHz H, max dotclock 140MHz
Monitor name: Philips 191E
Serial number: --
Checksum: 0xef (valid)
EDID block does NOT conform to EDID 1.3!
	sRGB is signaled, but the chromaticities do not match
