
EDID (hex):
00ffffffffffff004c2d5e0800000000
0f150104a5331d782a6041a6564a9c25
12505400000001010101010101010101
010101010101023a801871382d40582c
4500fd1e1100001e866f80a070384040
30203500fd1e1100005a000000fd0018
781a8c1e000a202020202020000000fc
00533233413730300a20202020200162
02010400fe5b80a07038354030203500
fd1e1100005a00000000000000000000
00000000000000000000000000000000
00000000000000000000000000000000
00000000000000000000000000000000
00000000000000000000000000000000
00000000000000000000000000000000
00000000000000000000000000000058

Extracted contents:
header:          00 ff ff ff ff ff ff 00
serial number:   4c 2d 5e 08 00 00 00 00 0f 15
version:         01 04
basic params:    a5 33 1d 78 2a
chroma info:     60 41 a6 56 4a 9c 25 12 50 54
established:     00 00 00
standard:        01 01 01 01 01 01 01 01 01 01 01 01 01 01 01 01
descriptor 1:    02 3a 80 18 71 38 2d 40 58 2c 45 00 fd 1e 11 00 00 1e
descriptor 2:    86 6f 80 a0 70 38 40 40 30 20 35 00 fd 1e 11 00 00 5a
descriptor 3:    00 00 00 fd 00 18 78 1a 8c 1e 00 0a 20 20 20 20 20 20
descriptor 4:    00 00 00 fc 00 53 32 33 41 37 30 30 0a 20 20 20 20 20
extensions:      01
checksum:        62

EDID version: 1.4
Manufacturer: SAM Model 85e Serial Number --
Made in week 15 of 2011
Digital display
8 bits per primary color channel
DisplayPort interface
Maximum image size: 51 cm x 29 cm
Gamma: 2.20
DPMS levels: Off
Supported color formats: RGB 4:4:4, YCrCb 4:4:4
First detailed timing includes the native pixel format and preferred refresh rate
Display x,y Chromaticity:
  Red:   0.6494, 0.3378
  Green: 0.2890, 0.6093
  Blue:  0.1455, 0.0703
  White: 0.3125, 0.3291
Established timings supported:
Standard timings supported:
Detailed mode: Clock 148.500 MHz, 509 mm x 286 mm
               1920 2008 2052 2200 hborder 0
               1080 1084 1089 1125 vborder 0
               +hsync +vsync 
               VertFreq: 60 Hz, HorFreq: 67500 Hz
Detailed mode: Clock 285.500 MHz, 509 mm x 286 mm
               1920 1968 2000 2080 hborder 0
               1080 1083 1088 1144 vborder 0
               +hsync -vsync field sequential R/L
               VertFreq: 119 Hz, HorFreq: 137259 Hz
Monitor ranges (GTF): 24-120Hz V, 26-140kHz H, max dotclock 300MHz
Monitor name: S23A700
Has 1 extension blocks
Checksum: 0x62 (valid)

CTA extension block
Extension version: 1
0 8-byte timing descriptors
Detailed mode: Clock 235.500 MHz, 509 mm x 286 mm
               1920 1968 2000 2080 hborder 0
               1080 1083 1088 1133 vborder 0
               +hsync -vsync field sequential R/L
               VertFreq: 99 Hz, HorFreq: 113221 Hz
Checksum: 0x58 (valid)

EDID block does NOT conform to EDID 1.4!
	Required 640x480p60 timings are missing in the established timings
	and/or in the SVD list (VIC 1)
