
EDID (hex):
00ffffffffffff0006af2d2200000000
211c0104951d11780230e5a556539d27
0c505400000001010101010101010101
010101010101143780b8703824401010
3e0025a5100000180000000f00000000
00000000000000000020000000fe0041
554f0a202020202020202020000000fe
004231333348414b30322e32200a00ea

Extracted contents:
header:          00 ff ff ff ff ff ff 00
serial number:   06 af 2d 22 00 00 00 00 21 1c
version:         01 04
basic params:    95 1d 11 78 02
chroma info:     30 e5 a5 56 53 9d 27 0c 50 54
established:     00 00 00
standard:        01 01 01 01 01 01 01 01 01 01 01 01 01 01 01 01
descriptor 1:    14 37 80 b8 70 38 24 40 10 10 3e 00 25 a5 10 00 00 18
descriptor 2:    00 00 00 0f 00 00 00 00 00 00 00 00 00 00 00 00 00 20
descriptor 3:    00 00 00 fe 00 41 55 4f 0a 20 20 20 20 20 20 20 20 20
descriptor 4:    00 00 00 fe 00 42 31 33 33 48 41 4b 30 32 2e 32 20 0a
extensions:      00
checksum:        ea

EDID version: 1.4
Manufacturer: AUO Model 222d Serial Number --
Made in week 33 of 2018
Digital display
6 bits per primary color channel
DisplayPort interface
Maximum image size: 29 cm x 17 cm
Gamma: 2.20
Supported color formats: RGB 4:4:4
First detailed timing includes the native pixel format and preferred refresh rate
Display x,y Chromaticity:
  Red:   0.6445, 0.3388
  Green: 0.3242, 0.6132
  Blue:  0.1552, 0.0488
  White: 0.3134, 0.3291
Established timings supported:
Standard timings supported:
Detailed mode: Clock 141.000 MHz, 293 mm x 165 mm
               1920 1936 1952 2104 hborder 0
               1080 1083 1097 1116 vborder 0
               -hsync -vsync 
               VertFreq: 60 Hz, HorFreq: 67015 Hz
Manufacturer-specified data, tag 15
ASCII string: AUO
ASCII string: B133HAK02.2 
Checksum: 0xea (valid)
EDID block does NOT conform to EDID 1.4!
	Missing name descriptor
	Missing monitor ranges
