
EDID (hex):
00ffffffffffff0030e4970600000000
001e0104b51d127807a805a6544b9b25
0e505400000001010101010101010101
010101010101ec6800a0a0402e603020
36001eb31000001af05300a0a0402e60
302036001eb31000001a000000fe0046
4e323858803133335751310a00000000
000341319e001000000a010a202000e0

edid-decode (hex):

00 ff ff ff ff ff ff 00 30 e4 97 06 00 00 00 00
00 1e 01 04 b5 1d 12 78 07 a8 05 a6 54 4b 9b 25
0e 50 54 00 00 00 01 01 01 01 01 01 01 01 01 01
01 01 01 01 01 01 ec 68 00 a0 a0 40 2e 60 30 20
36 00 1e b3 10 00 00 1a f0 53 00 a0 a0 40 2e 60
30 20 36 00 1e b3 10 00 00 1a 00 00 00 fe 00 46
4e 32 38 58 80 31 33 33 57 51 31 0a 00 00 00 00
00 03 41 31 9e 00 10 00 00 0a 01 0a 20 20 00 e0

----------------

Block 0, Base EDID:
  EDID Structure Version & Revision: 1.4
  Vendor & Product Identification:
    Manufacturer: LGD
    Model: 1687
    Made in: 2020
  Basic Display Parameters & Features:
    Digital display
    Bits per primary color channel: 10
    DisplayPort interface
    Maximum image size: 29 cm x 18 cm
    Gamma: 2.20
    Supported color formats: RGB 4:4:4
    Default (sRGB) color space is primary color space
    First detailed timing includes the native pixel format and preferred refresh rate
    Display is continuous frequency
  Color Characteristics:
    Red  : 0.6503, 0.3300
    Green: 0.2949, 0.6054
    Blue : 0.1445, 0.0546
    White: 0.3134, 0.3291
  Established Timings I & II: none
  Standard Timings: none
  Detailed Timing Descriptors:
    DTD 1:  2560x1600   59.993925 Hz  16:10    98.750 kHz    268.600000 MHz (286 mm x 179 mm)
                 Hfront   48 Hsync  32 Hback   80 Hpol P
                 Vfront    3 Vsync   6 Vback   37 Vpol N
    DTD 2:  2560x1600   47.995140 Hz  16:10    79.000 kHz    214.880000 MHz (286 mm x 179 mm)
                 Hfront   48 Hsync  32 Hback   80 Hpol P
                 Vfront    3 Vsync   6 Vback   37 Vpol N
    Alphanumeric Data String: 'FN28X'
    Manufacturer-Specified Display Descriptor (0x00): 00 00 00 03 41 31 9e 00 10 00 00 0a 01 0a 20 20 '....A1........  '
Checksum: 0xe0
