edid-decode (hex):

00 ff ff ff ff ff ff 00 30 e4 97 06 00 00 00 00
00 1e 01 04 b5 1d 12 78 07 a8 05 a6 54 4b 9b 25
0e 50 54 00 00 00 01 01 01 01 01 01 01 01 01 01
01 01 01 01 01 01 ec 68 00 a0 a0 40 2e 60 30 20
36 00 1e b3 10 00 00 1a f0 53 00 a0 a0 40 2e 60
30 20 36 00 1e b3 10 00 00 1a 00 00 00 fe 00 46
4e 32 38 58 80 31 33 33 57 51 31 0a 00 00 00 00
00 03 41 31 9e 00 10 00 00 0a 01 0a 20 20 00 e0

00 ff ff ff ff ff ff 00 30 e4 97 06 00 00 00 00
00 1e 01 04 b5 1d 12 78 07 a8 05 a6 54 4b 9b 25
0e 50 54 00 00 00 01 01 01 01 01 01 01 01 01 01
01 01 01 01 01 01 ec 68 00 a0 a0 40 2e 60 30 20
36 00 1e b3 10 00 00 1a f0 53 00 a0 a0 40 2e 60
30 20 36 00 1e b3 10 00 00 1a 00 00 00 fe 00 46
4e 32 38 58 80 31 33 33 57 51 31 0a 00 00 00 00
00 03 41 31 9e 00 10 00 00 0a 01 0a 20 20 00 e0

----------------

Block 0, Base EDID:
  EDID Structure Version & Revision: 1.4
  Vendor & Product Identification:
    Manufacturer: LGD
    Model: 1687
    Made in: 2020
  Basic Display Parameters & Features:
    Digital display
    Bits per primary color channel: 10
    DisplayPort interface
    Maximum image size: 29 cm x 18 cm
    Gamma: 2.20
    Supported color formats: RGB 4:4:4
    Default (sRGB) color space is primary color space
    First detailed timing includes the native pixel format and preferred refresh rate
    Display is continuous frequency
  Color Characteristics:
    Red  : 0.6503, 0.3300
    Green: 0.2949, 0.6054
    Blue : 0.1445, 0.0546
    White: 0.3134, 0.3291
  Established Timings I & II: none
  Standard Timings: none
  Detailed Timing Descriptors:
    DTD 1:  2560x1600   59.993925 Hz  16:10    98.750 kHz    268.600000 MHz (286 mm x 179 mm)
                 Hfront   48 Hsync  32 Hback   80 Hpol P
                 Vfront    3 Vsync   6 Vback   37 Vpol N
    DTD 2:  2560x1600   47.995140 Hz  16:10    79.000 kHz    214.880000 MHz (286 mm x 179 mm)
                 Hfront   48 Hsync  32 Hback   80 Hpol P
                 Vfront    3 Vsync   6 Vback   37 Vpol N
    Alphanumeric Data String: 'FN28X'
    Manufacturer-Specified Display Descriptor (0x00): 00 00 00 03 41 31 9e 00 10 00 00 0a 01 0a 20 20 '....A1........  '
Checksum: 0xe0

----------------

Block 1, Unknown EDID Extension Block 0x00:
  00 ff ff ff ff ff ff 00 30 e4 97 06 00 00 00 00 '........0.......'
  00 1e 01 04 b5 1d 12 78 07 a8 05 a6 54 4b 9b 25 '.......x....TK.%'
  0e 50 54 00 00 00 01 01 01 01 01 01 01 01 01 01 '.PT.............'
  01 01 01 01 01 01 ec 68 00 a0 a0 40 2e 60 30 20 '.......h...@.`0 '
  36 00 1e b3 10 00 00 1a f0 53 00 a0 a0 40 2e 60 '6........S...@.`'
  30 20 36 00 1e b3 10 00 00 1a 00 00 00 fe 00 46 '0 6............F'
  4e 32 38 58 80 31 33 33 57 51 31 0a 00 00 00 00 'N28X.133WQ1.....'
  00 03 41 31 9e 00 10 00 00 0a 01 0a 20 20 00 e0 '..A1........  ..'
Checksum: 0xe0

----------------

Warnings:

Block 0, Base EDID:
  Missing Display Product Name.

Failures:

Block 0, Base EDID:
  Basic Display Parameters & Features: sRGB is signaled, but the chromaticities do not match.
  Alphanumeric Data String: Non-printable character.
  Missing Display Range Limits Descriptor.
Block 1, Base EDID:
  Unknown Extension Block.
EDID:
  Base EDID: EDID specified 0 extension block(s), but found 1 extension block(s).

EDID conformity: FAIL
