edid-decode (hex):

00 ff ff ff ff ff ff 00 05 e3 22 b3 9e 25 00 00
30 21 01 04 a5 36 1e 78 3b 5d c5 aa 4f 45 a6 27
11 50 54 bf ef 00 d1 c0 81 80 31 68 31 7c 45 68
45 7c 61 68 61 7c 02 3a 80 18 71 38 2d 40 58 2c
45 00 20 2f 21 00 00 1e 00 00 00 ff 00 57 4b 52
50 42 48 41 30 30 39 36 33 30 00 00 00 fc 00 32
35 47 33 5a 4d 0a 20 20 20 20 20 20 00 00 00 fd
00 30 f0 ff ff 3c 01 0a 20 20 20 20 20 20 01 16

00 ff ff ff ff ff ff 00 05 e3 22 b3 9e 25 00 00
30 21 01 04 a5 36 1e 78 3b 5d c5 aa 4f 45 a6 27
11 50 54 bf ef 00 d1 c0 81 80 31 68 31 7c 45 68
45 7c 61 68 61 7c 02 3a 80 18 71 38 2d 40 58 2c
45 00 20 2f 21 00 00 1e 00 00 00 ff 00 57 4b 52
50 42 48 41 30 30 39 36 33 30 00 00 00 fc 00 32
35 47 33 5a 4d 0a 20 20 20 20 20 20 00 00 00 fd
00 30 f0 ff ff 3c 01 0a 20 20 20 20 20 20 01 16

00 ff ff ff ff ff ff 00 05 e3 22 b3 9e 25 00 00
30 21 01 04 a5 36 1e 78 3b 5d c5 aa 4f 45 a6 27
11 50 54 bf ef 00 d1 c0 81 80 31 68 31 7c 45 68
45 7c 61 68 61 7c 02 3a 80 18 71 38 2d 40 58 2c
45 00 20 2f 21 00 00 1e 00 00 00 ff 00 57 4b 52
50 42 48 41 30 30 39 36 33 30 00 00 00 fc 00 32
35 47 33 5a 4d 0a 20 20 20 20 20 20 00 00 00 fd
00 30 f0 ff ff 3c 01 0a 20 20 20 20 20 20 01 16

00 ff ff ff ff ff ff 00 05 e3 22 b3 9e 25 00 00
30 21 01 04 a5 36 1e 78 3b 5d c5 aa 4f 45 a6 27
11 50 54 bf ef 00 d1 c0 81 80 31 68 31 7c 45 68
45 7c 61 68 61 7c 02 3a 80 18 71 38 2d 40 58 2c
45 00 20 2f 21 00 00 1e 00 00 00 ff 00 57 4b 52
50 42 48 41 30 30 39 36 33 30 00 00 00 fc 00 32
35 47 33 5a 4d 0a 20 20 20 20 20 20 00 00 00 fd
00 30 f0 ff ff 3c 01 0a 20 20 20 20 20 20 01 16

----------------

Block 0, Base EDID:
  EDID Structure Version & Revision: 1.4
  Vendor & Product Identification:
    Manufacturer: AOC
    Model: 45858
    Serial Number: ...
    Made in: week 48 of 2023
  Basic Display Parameters & Features:
    Digital display
    Bits per primary color channel: 8
    DisplayPort interface
    Maximum image size: 54 cm x 30 cm
    Gamma: 2.20
    DPMS levels: Off
    Supported color formats: RGB 4:4:4, YCrCb 4:4:4, YCrCb 4:2:2
    First detailed timing includes the native pixel format and preferred refresh rate
    Display is continuous frequency
  Color Characteristics:
    Red  : 0.6650, 0.3095
    Green: 0.2724, 0.6494
    Blue : 0.1552, 0.0664
    White: 0.3134, 0.3291
  Established Timings I & II:
    IBM     :   720x400    70.081663 Hz   9:5     31.467 kHz     28.320000 MHz
    DMT 0x04:   640x480    59.940476 Hz   4:3     31.469 kHz     25.175000 MHz
    Apple   :   640x480    66.666667 Hz   4:3     35.000 kHz     30.240000 MHz
    DMT 0x05:   640x480    72.808802 Hz   4:3     37.861 kHz     31.500000 MHz
    DMT 0x06:   640x480    75.000000 Hz   4:3     37.500 kHz     31.500000 MHz
    DMT 0x08:   800x600    56.250000 Hz   4:3     35.156 kHz     36.000000 MHz
    DMT 0x09:   800x600    60.316541 Hz   4:3     37.879 kHz     40.000000 MHz
    DMT 0x0a:   800x600    72.187572 Hz   4:3     48.077 kHz     50.000000 MHz
    DMT 0x0b:   800x600    75.000000 Hz   4:3     46.875 kHz     49.500000 MHz
    Apple   :   832x624    74.551266 Hz   4:3     49.726 kHz     57.284000 MHz
    DMT 0x10:  1024x768    60.003840 Hz   4:3     48.363 kHz     65.000000 MHz
    DMT 0x11:  1024x768    70.069359 Hz   4:3     56.476 kHz     75.000000 MHz
    DMT 0x12:  1024x768    75.028582 Hz   4:3     60.023 kHz     78.750000 MHz
    DMT 0x24:  1280x1024   75.024675 Hz   5:4     79.976 kHz    135.000000 MHz
  Standard Timings:
    DMT 0x52:  1920x1080   60.000000 Hz  16:9     67.500 kHz    148.500000 MHz
    DMT 0x23:  1280x1024   60.019740 Hz   5:4     63.981 kHz    108.000000 MHz
    GTF     :   640x480    99.999537 Hz   4:3     50.900 kHz     43.163000 MHz
    GTF     :   640x480   119.999084 Hz   4:3     61.800 kHz     52.406000 MHz
    GTF     :   800x600    99.999707 Hz   4:3     63.600 kHz     68.179000 MHz
    GTF     :   800x600   119.999886 Hz   4:3     77.160 kHz     83.950000 MHz
    GTF     :  1024x768   100.000177 Hz   4:3     81.400 kHz    113.309000 MHz
    GTF     :  1024x768   119.999931 Hz   4:3     98.760 kHz    139.054000 MHz
  Detailed Timing Descriptors:
    DTD 1:  1920x1080   60.000000 Hz  16:9     67.500 kHz    148.500000 MHz (544 mm x 303 mm)
                 Hfront   88 Hsync  44 Hback  148 Hpol P
                 Vfront    4 Vsync   5 Vback   36 Vpol P
    Display Product Serial Number: ...
    Display Product Name: '25G3ZM'
    Display Range Limits:
      Monitor ranges (Bare Limits): 48-240 Hz V, 255-255 kHz H, max dotclock 600 MHz
  Extension blocks: 1
Checksum: 0x16

----------------

Block 1, Unknown EDID Extension Block 0x00:
  00 ff ff ff ff ff ff 00 05 e3 22 b3 9e 25 00 00 '.........."..%..'
  30 21 01 04 a5 36 1e 78 3b 5d c5 aa 4f 45 a6 27 '0!...6.x;]..OE.''
  11 50 54 bf ef 00 d1 c0 81 80 31 68 31 7c 45 68 '.PT.......1h1|Eh'
  45 7c 61 68 61 7c 02 3a 80 18 71 38 2d 40 58 2c 'E|aha|.:..q8-@X,'
  45 00 20 2f 21 00 00 1e 00 00 00 ff 00 57 4b 52 'E. /!........WKR'
  50 42 48 41 30 30 39 36 33 30 00 00 00 fc 00 32 'PBHA009630.....2'
  35 47 33 5a 4d 0a 20 20 20 20 20 20 00 00 00 fd '5G3ZM.      ....'
  00 30 f0 ff ff 3c 01 0a 20 20 20 20 20 20 01 16 '.0...<..      ..'
Checksum: 0x16

----------------

Block 2, Unknown EDID Extension Block 0x00:
  00 ff ff ff ff ff ff 00 05 e3 22 b3 9e 25 00 00 '.........."..%..'
  30 21 01 04 a5 36 1e 78 3b 5d c5 aa 4f 45 a6 27 '0!...6.x;]..OE.''
  11 50 54 bf ef 00 d1 c0 81 80 31 68 31 7c 45 68 '.PT.......1h1|Eh'
  45 7c 61 68 61 7c 02 3a 80 18 71 38 2d 40 58 2c 'E|aha|.:..q8-@X,'
  45 00 20 2f 21 00 00 1e 00 00 00 ff 00 57 4b 52 'E. /!........WKR'
  50 42 48 41 30 30 39 36 33 30 00 00 00 fc 00 32 'PBHA009630.....2'
  35 47 33 5a 4d 0a 20 20 20 20 20 20 00 00 00 fd '5G3ZM.      ....'
  00 30 f0 ff ff 3c 01 0a 20 20 20 20 20 20 01 16 '.0...<..      ..'
Checksum: 0x16

----------------

Block 3, Unknown EDID Extension Block 0x00:
  00 ff ff ff ff ff ff 00 05 e3 22 b3 9e 25 00 00 '.........."..%..'
  30 21 01 04 a5 36 1e 78 3b 5d c5 aa 4f 45 a6 27 '0!...6.x;]..OE.''
  11 50 54 bf ef 00 d1 c0 81 80 31 68 31 7c 45 68 '.PT.......1h1|Eh'
  45 7c 61 68 61 7c 02 3a 80 18 71 38 2d 40 58 2c 'E|aha|.:..q8-@X,'
  45 00 20 2f 21 00 00 1e 00 00 00 ff 00 57 4b 52 'E. /!........WKR'
  50 42 48 41 30 30 39 36 33 30 00 00 00 fc 00 32 'PBHA009630.....2'
  35 47 33 5a 4d 0a 20 20 20 20 20 20 00 00 00 fd '5G3ZM.      ....'
  00 30 f0 ff ff 3c 01 0a 20 20 20 20 20 20 01 16 '.0...<..      ..'
Checksum: 0x16

----------------

Warnings:

EDID:
  Base EDID: Some timings are out of range of the Monitor Ranges:
    Horizontal Freq: 31.466 - 98.759 kHz (Monitor: 255.000 - 255.000 kHz)

Failures:

Block 1, Base EDID:
  Unknown Extension Block.
Block 2, Base EDID:
  Unknown Extension Block.
Block 3, Base EDID:
  Unknown Extension Block.
EDID:
  Base EDID: EDID specified 1 extension block(s), but found 3 extension block(s).

EDID conformity: FAIL
