
EDID (hex):
00ffffffffffff001ef9b107f70d0000
0b10010380261e782aa2a5a3574c9d25
11505421080081800101010101010101
010101010101302a009851002a403070
1300782d1100001e000000ff004d5737
363330333537350a2020000000fc0046
5044313936300a2020202020000000fd
00384b1e530e000a2020202020200193
02031770448403020123090707830100
0065030c001000011d007251d01e206e
28550010090000001e011d007251d01e
206e28550010090000001e8c0ad08a20
e02d10103e9600100900000018000000
00000000000000000000000000000000
00000000000000000000000000000000
00000000000000000000000000000000

Extracted contents:
header:          00 ff ff ff ff ff ff 00
serial number:   1e f9 b1 07 f7 0d 00 00 0b 10
version:         01 03
basic params:    80 26 1e 78 2a
chroma info:     a2 a5 a3 57 4c 9d 25 11 50 54
established:     21 08 00
standard:        81 80 01 01 01 01 01 01 01 01 01 01 01 01 01 01
descriptor 1:    30 2a 00 98 51 00 2a 40 30 70 13 00 78 2d 11 00 00 1e
descriptor 2:    00 00 00 ff 00 4d 57 37 36 33 30 33 35 37 35 0a 20 20
descriptor 3:    00 00 00 fc 00 46 50 44 31 39 36 30 0a 20 20 20 20 20
descriptor 4:    00 00 00 fd 00 38 4b 1e 53 0e 00 0a 20 20 20 20 20 20
extensions:      01
checksum:        93

EDID version: 1.3
Manufacturer: GWY Model 7b1 Serial Number --
Made in week 11 of 2006
Digital display
Maximum image size: 38 cm x 30 cm
Gamma: 2.20
DPMS levels: Off
RGB color display
First detailed timing is preferred timing
Display x,y Chromaticity:
  Red:   0.6386, 0.3417
  Green: 0.2968, 0.6152
  Blue:  0.1464, 0.0683
  White: 0.3134, 0.3291
Established timings supported:
  640x480@60Hz 4:3 HorFreq: 31469 Hz Clock: 25.175 MHz
  800x600@60Hz 4:3 HorFreq: 37900 Hz Clock: 40.000 MHz
  1024x768@60Hz 4:3 HorFreq: 48400 Hz Clock: 65.000 MHz
Standard timings supported:
  1280x1024@60Hz 5:4 HorFreq: 64000 Hz Clock: 108.000 MHz
Detailed mode: Clock 108.000 MHz, 376 mm x 301 mm
               1280 1328 1440 1688 hborder 0
               1024 1025 1028 1066 vborder 0
               +hsync +vsync 
               VertFreq: 60 Hz, HorFreq: 63981 Hz
Serial number: --
Monitor name: FPD1960
Monitor ranges (GTF): 56-75Hz V, 30-83kHz H, max dotclock 140MHz
Has 1 extension blocks
Checksum: 0x93 (valid)

CTA extension block
Extension version: 3
19 bytes of CTA data
  Video data block
    VIC   4 1280x720@60Hz 16:9 (native) HorFreq: 45000 Hz Clock: 74.250 MHz
    VIC   3 720x480@60Hz 16:9  HorFreq: 31469 Hz Clock: 27.000 MHz
    VIC   2 720x480@60Hz 4:3  HorFreq: 31469 Hz Clock: 27.000 MHz
    VIC   1 640x480@60Hz 4:3  HorFreq: 31469 Hz Clock: 25.175 MHz
  Audio data block
    Linear PCM, max channels 2
      Supported sample rates (kHz): 48 44.1 32
      Supported sample sizes (bits): 24 20 16
  Speaker allocation data block
    Speaker map:
      FL/FR - Front Left/Right
  Vendor-specific data block, OUI 000c03 (HDMI)
    Source physical address 1.0.0.0
Basic audio support
Supports YCbCr 4:4:4
Supports YCbCr 4:2:2
0 native detailed modes
Detailed mode: Clock 74.250 MHz, 16 mm x 9 mm
               1280 1390 1430 1650 hborder 0
                720  725  730  750 vborder 0
               +hsync +vsync 
               VertFreq: 60 Hz, HorFreq: 45000 Hz
Detailed mode: Clock 74.250 MHz, 16 mm x 9 mm
               1280 1390 1430 1650 hborder 0
                720  725  730  750 vborder 0
               +hsync +vsync 
               VertFreq: 60 Hz, HorFreq: 45000 Hz
Detailed mode: Clock 27.000 MHz, 16 mm x 9 mm
                720  736  798  858 hborder 0
                480  489  495  525 vborder 0
               -hsync -vsync 
               VertFreq: 59 Hz, HorFreq: 31468 Hz
Checksum: 0x0 (valid)

EDID block does not conform at all!
	Both the serial number and the serial string are set
