
EDID (hex):
00ffffffffffff00244d732300000000
000f0103802115780a87f594574f8c27
27505400000001010101010101010101
010101010101c71b00a0502017303020
36004bcf10000019261700a050201730
302036004bcf100000190000000f0081
0a32810a281401004ca35833000000fe
004c544e31353458332d4c30340a000b

Extracted contents:
header:          00 ff ff ff ff ff ff 00
serial number:   24 4d 73 23 00 00 00 00 00 0f
version:         01 03
basic params:    80 21 15 78 0a
chroma info:     87 f5 94 57 4f 8c 27 27 50 54
established:     00 00 00
standard:        01 01 01 01 01 01 01 01 01 01 01 01 01 01 01 01
descriptor 1:    c7 1b 00 a0 50 20 17 30 30 20 36 00 4b cf 10 00 00 19
descriptor 2:    26 17 00 a0 50 20 17 30 30 20 36 00 4b cf 10 00 00 19
descriptor 3:    00 00 00 0f 00 81 0a 32 81 0a 28 14 01 00 4c a3 58 33
descriptor 4:    00 00 00 fe 00 4c 54 4e 31 35 34 58 33 2d 4c 30 34 0a
extensions:      00
checksum:        0b

EDID version: 1.3
Manufacturer: IBM Model 2373 Serial Number --
Digital display
Maximum image size: 33 cm x 21 cm
Gamma: 2.20
RGB color display
First detailed timing is preferred timing
Display x,y Chromaticity:
  Red:   0.5800, 0.3398
  Green: 0.3095, 0.5498
  Blue:  0.1552, 0.1552
  White: 0.3134, 0.3291
Established timings supported:
Standard timings supported:
Detailed mode: Clock 71.110 MHz, 331 mm x 207 mm
               1280 1328 1360 1440 hborder 0
                800  803  809  823 vborder 0
               -hsync -vsync 
               VertFreq: 60 Hz, HorFreq: 49381 Hz
Detailed mode: Clock 59.260 MHz, 331 mm x 207 mm
               1280 1328 1360 1440 hborder 0
                800  803  809  823 vborder 0
               -hsync -vsync 
               VertFreq: 50 Hz, HorFreq: 41152 Hz
Manufacturer-specified data, tag 15
ASCII string: LTN154X3-L04
Checksum: 0xb (valid)
EDID block does NOT conform to EDID 1.3!
	Missing name descriptor
	Missing monitor ranges
EDID block does not conform at all!
	Bad year of manufacture
