
EDID (hex):
00ffffffffffff0030e4140200000000
0014010490221378021be59e59509826
0e505400000001010101010101010101
010101010101b52540a060840e303020
250058c210000019fa1940d860840e30
3020250058c210000019000000fe0038
30325657803135365744310a00000000
00004131990000000002010a20200095

Extracted contents:
header:          00 ff ff ff ff ff ff 00
serial number:   30 e4 14 02 00 00 00 00 00 14
version:         01 04
basic params:    90 22 13 78 02
chroma info:     1b e5 9e 59 50 98 26 0e 50 54
established:     00 00 00
standard:        01 01 01 01 01 01 01 01 01 01 01 01 01 01 01 01
descriptor 1:    b5 25 40 a0 60 84 0e 30 30 20 25 00 58 c2 10 00 00 19
descriptor 2:    fa 19 40 d8 60 84 0e 30 30 20 25 00 58 c2 10 00 00 19
descriptor 3:    00 00 00 fe 00 38 30 32 56 57 80 31 35 36 57 44 31 0a
descriptor 4:    00 00 00 00 00 00 41 31 99 00 00 00 00 02 01 0a 20 20
extensions:      00
checksum:        95

EDID version: 1.4
Manufacturer: LGD Model 214 Serial Number --
Made in year 2010
Digital display
6 bits per primary color channel
Digital interface is not defined
Maximum image size: 34 cm x 19 cm
Gamma: 2.20
Supported color formats: RGB 4:4:4
First detailed timing includes the native pixel format and preferred refresh rate
Display x,y Chromaticity:
  Red:   0.6171, 0.3486
  Green: 0.3144, 0.5966
  Blue:  0.1513, 0.0566
  White: 0.3134, 0.3291
Established timings supported:
Standard timings supported:
Detailed mode: Clock 96.530 MHz, 344 mm x 194 mm
               1600 1648 1680 1760 hborder 0
                900  902  907  914 vborder 0
               -hsync -vsync 
               VertFreq: 60 Hz, HorFreq: 54846 Hz
Detailed mode: Clock 66.500 MHz, 344 mm x 194 mm
               1600 1648 1680 1816 hborder 0
                900  902  907  914 vborder 0
               -hsync -vsync 
               VertFreq: 40 Hz, HorFreq: 36618 Hz
ASCII string: 802VW
Manufacturer-specified data, tag 0
Checksum: 0x95 (valid)
EDID block does NOT conform to EDID 1.4!
	Missing name descriptor
	Missing monitor ranges
	Detailed block string not properly terminated


