
EDID (hex):
00ffffffffffff004954001272000d00
141e010380c06c780af7aea353499b26
0e474aafcf0081008180950081c0b300
a940d100a9c0023a801871382d40582c
4500c01c3200001e662156aa51001e30
468f3300ab802100001e000000fd0031
4c1e5212000a202020202020000000fc
00524a542048444d490a20202020018e
020332f0530102038405060710111213
1415161f202122272c0907071507503d
07105507018301000068030c001000b8
2d200e1f008051001e30408037008080
2100001e011d00bc52d01e20b8285540
80682100001e011d8018711c1620582c
4500c01c3208089e023a801871382d40
582c4500c01c3200001e000000000017

Extracted contents:
header:          00 ff ff ff ff ff ff 00
serial number:   49 54 00 12 72 00 0d 00 14 1e
version:         01 03
basic params:    80 c0 6c 78 0a
chroma info:     f7 ae a3 53 49 9b 26 0e 47 4a
established:     af cf 00
standard:        81 00 81 80 95 00 81 c0 b3 00 a9 40 d1 00 a9 c0
descriptor 1:    02 3a 80 18 71 38 2d 40 58 2c 45 00 c0 1c 32 00 00 1e
descriptor 2:    66 21 56 aa 51 00 1e 30 46 8f 33 00 ab 80 21 00 00 1e
descriptor 3:    00 00 00 fd 00 31 4c 1e 52 12 00 0a 20 20 20 20 20 20
descriptor 4:    00 00 00 fc 00 52 4a 54 20 48 44 4d 49 0a 20 20 20 20
extensions:      01
checksum:        8e

EDID version: 1.3
Manufacturer: RJT Model 1200 Serial Number --
Made in week 20 of 2020
Digital display
Maximum image size: 192 cm x 108 cm
Gamma: 2.20
RGB color display
First detailed timing is preferred timing
Display x,y Chromaticity:
  Red:   0.6396, 0.3271
  Green: 0.2861, 0.6083
  Blue:  0.1503, 0.0566
  White: 0.2802, 0.2910
Established timings supported:
  720x400@70Hz 9:5 HorFreq: 31469 Hz Clock: 28.320 MHz
  640x480@60Hz 4:3 HorFreq: 31469 Hz Clock: 25.175 MHz
  640x480@72Hz 4:3 HorFreq: 37900 Hz Clock: 31.500 MHz
  640x480@75Hz 4:3 HorFreq: 37500 Hz Clock: 31.500 MHz
  800x600@56Hz 4:3 HorFreq: 35200 Hz Clock: 36.000 MHz
  800x600@60Hz 4:3 HorFreq: 37900 Hz Clock: 40.000 MHz
  800x600@72Hz 4:3 HorFreq: 48100 Hz Clock: 50.000 MHz
  800x600@75Hz 4:3 HorFreq: 46900 Hz Clock: 49.500 MHz
  1024x768@60Hz 4:3 HorFreq: 48400 Hz Clock: 65.000 MHz
  1024x768@70Hz 4:3 HorFreq: 56500 Hz Clock: 75.000 MHz
  1024x768@75Hz 4:3 HorFreq: 60000 Hz Clock: 78.750 MHz
  1280x1024@75Hz 5:4 HorFreq: 80000 Hz Clock: 135.000 MHz
Standard timings supported:
  1280x800@60Hz 16:10
  1280x1024@60Hz 5:4 HorFreq: 64000 Hz Clock: 108.000 MHz
  1440x900@60Hz 16:10 HorFreq: 55500 Hz Clock: 88.750 MHz
  1280x720@60Hz 16:9
  1680x1050@60Hz 16:10 HorFreq: 64700 Hz Clock: 119.000 MHz
  1600x1200@60Hz 4:3 HorFreq: 75000 Hz Clock: 162.000 MHz
  1920x1200@60Hz 16:10 HorFreq: 74000 Hz Clock: 154.000 MHz
  1600x900@60Hz 16:9
Detailed mode: Clock 148.500 MHz, 960 mm x 540 mm
               1920 2008 2052 2200 hborder 0
               1080 1084 1089 1125 vborder 0
               +hsync +vsync 
               VertFreq: 60 Hz, HorFreq: 67500 Hz
Detailed mode: Clock 85.500 MHz, 683 mm x 384 mm
               1366 1436 1579 1792 hborder 0
                768  771  774  798 vborder 0
               +hsync +vsync 
               VertFreq: 59 Hz, HorFreq: 47712 Hz
Monitor ranges (GTF): 49-76Hz V, 30-82kHz H, max dotclock 180MHz
Monitor name: RJT HDMI
Has 1 extension blocks
Checksum: 0x8e (valid)

CTA extension block
Extension version: 3
46 bytes of CTA data
  Video data block
    VIC   1 640x480@60Hz 4:3  HorFreq: 31469 Hz Clock: 25.175 MHz
    VIC   2 720x480@60Hz 4:3  HorFreq: 31469 Hz Clock: 27.000 MHz
    VIC   3 720x480@60Hz 16:9  HorFreq: 31469 Hz Clock: 27.000 MHz
    VIC   4 1280x720@60Hz 16:9 (native) HorFreq: 45000 Hz Clock: 74.250 MHz
    VIC   5 1920x1080i@60Hz 16:9  HorFreq: 33750 Hz Clock: 74.250 MHz
    VIC   6 1440x480i@60Hz 4:3  HorFreq: 15734 Hz Clock: 27.000 MHz
    VIC   7 1440x480i@60Hz 16:9  HorFreq: 15734 Hz Clock: 27.000 MHz
    VIC  16 1920x1080@60Hz 16:9  HorFreq: 67500 Hz Clock: 148.500 MHz
    VIC  17 720x576@50Hz 4:3  HorFreq: 31250 Hz Clock: 27.000 MHz
    VIC  18 720x576@50Hz 16:9  HorFreq: 31250 Hz Clock: 27.000 MHz
    VIC  19 1280x720@50Hz 16:9  HorFreq: 37500 Hz Clock: 74.250 MHz
    VIC  20 1920x1080i@50Hz 16:9  HorFreq: 28125 Hz Clock: 74.250 MHz
    VIC  21 1440x576i@50Hz 4:3  HorFreq: 15625 Hz Clock: 27.000 MHz
    VIC  22 1440x576i@50Hz 16:9  HorFreq: 15625 Hz Clock: 27.000 MHz
    VIC  31 1920x1080@50Hz 16:9  HorFreq: 56250 Hz Clock: 148.500 MHz
    VIC  32 1920x1080@24Hz 16:9  HorFreq: 27000 Hz Clock: 74.250 MHz
    VIC  33 1920x1080@25Hz 16:9  HorFreq: 28125 Hz Clock: 74.250 MHz
    VIC  34 1920x1080@30Hz 16:9  HorFreq: 33750 Hz Clock: 74.250 MHz
    VIC  39 1920x1080i@50Hz 16:9  HorFreq: 31250 Hz Clock: 72.000 MHz
  Audio data block
    Linear PCM, max channels 2
      Supported sample rates (kHz): 48 44.1 32
      Supported sample sizes (bits): 24 20 16
    AC-3, max channels 6
      Supported sample rates (kHz): 48 44.1 32
      Maximum bit rate: 640 kHz
    DTS, max channels 6
      Supported sample rates (kHz): 48 44.1 32
      Maximum bit rate: 128 kHz
    Dolby Digital+, max channels 6
      Supported sample rates (kHz): 48 44.1 32
  Speaker allocation data block
    Speaker map:
      FL/FR - Front Left/Right
  Vendor-specific data block, OUI 000c03 (HDMI)
    Source physical address 1.0.0.0
    Supports_AI
    DC_36bit
    DC_30bit
    DC_Y444
    Maximum TMDS clock: 225MHz
    Extended HDMI video details:
      Base EDID image size is aspect ratio
      VIC index 0 supports frame packing
      VIC index 8 supports frame packing
      VIC index 5 supports unknown
      VIC index 0 supports frame packing
      VIC index 1 supports unknown
      VIC index 4 supports frame packing
      VIC index 8 supports frame packing
      VIC index 3 supports unknown
      VIC index 0 supports frame packing
      VIC index 8 supports frame packing
      VIC index 8 supports frame packing
      VIC index 2 supports unknown
      VIC index 0 supports frame packing
      VIC index 0 supports frame packing
      VIC index 1 supports unknown
      VIC index 1 supports unknown
      VIC index 11 supports unknown
      VIC index 13 supports frame packing
      VIC index 1 supports unknown
      VIC index 11 supports unknown
      VIC index 5 supports unknown
      VIC index 4 supports frame packing
      VIC index 8 supports frame packing
      VIC index 6 supports unknown
Underscans PC formats by default
Basic audio support
Supports YCbCr 4:4:4
Supports YCbCr 4:2:2
0 native detailed modes
Detailed mode: Clock 79.500 MHz, 640 mm x 384 mm
               1280 1344 1472 1664 hborder 0
                768  771  778  798 vborder 0
               +hsync +vsync 
               VertFreq: 59 Hz, HorFreq: 47776 Hz
Detailed mode: Clock 74.250 MHz, 640 mm x 360 mm
               1280 1720 1760 1980 hborder 0
                720  725  730  750 vborder 0
               +hsync +vsync 
               VertFreq: 50 Hz, HorFreq: 37500 Hz
Detailed mode: Clock 74.250 MHz, 960 mm x 540 mm
               1920 2008 2052 2200 hborder 8
                540  544  549  562 vborder 8
               +hsync +vsync interlaced 
               VertFreq: 60 Hz, HorFreq: 33750 Hz
Detailed mode: Clock 148.500 MHz, 960 mm x 540 mm
               1920 2008 2052 2200 hborder 0
               1080 1084 1089 1125 vborder 0
               +hsync +vsync 
               VertFreq: 60 Hz, HorFreq: 67500 Hz
Checksum: 0x17 (valid)

One or more of the timings is out of range of the Monitor Ranges:
  Vertical Freq: 24 - 75 Hz
  Horizontal Freq: 15625 - 80000 Hz
  Maximum Clock: 162.000 MHz
