
EDID (hex):
00ffffffffffff000472012301010101
00150103685d34782a3131a2554da027
125054230800818081c0010101010101
0101010101011a3680a070381f403020
25007af43100001c662150b051001b30
4070360080682100001e000000fc004e
323330484d4c0a2020202020000000fd
00373e1e4612000a2020202020200025

Extracted contents:
header:          00 ff ff ff ff ff ff 00
serial number:   04 72 01 23 01 01 01 01 00 15
version:         01 03
basic params:    68 5d 34 78 2a
chroma info:     31 31 a2 55 4d a0 27 12 50 54
established:     23 08 00
standard:        81 80 81 c0 01 01 01 01 01 01 01 01 01 01 01 01
descriptor 1:    1a 36 80 a0 70 38 1f 40 30 20 25 00 7a f4 31 00 00 1c
descriptor 2:    66 21 50 b0 51 00 1b 30 40 70 36 00 80 68 21 00 00 1e
descriptor 3:    00 00 00 fc 00 4e 32 33 30 48 4d 4c 0a 20 20 20 20 20
descriptor 4:    00 00 00 fd 00 37 3e 1e 46 12 00 0a 20 20 20 20 20 20
extensions:      00
checksum:        25

EDID version: 1.3
Manufacturer: ACR Model 2301 Serial Number --
Made in year 2011
Analog display, Input voltage level: 0.7/0.7 V
Sync: Separate 
Maximum image size: 93 cm x 52 cm
Gamma: 2.20
DPMS levels: Off
RGB color display
First detailed timing is preferred timing
Display x,y Chromaticity:
  Red:   0.6328, 0.3349
  Green: 0.3007, 0.6259
  Blue:  0.1523, 0.0732
  White: 0.3125, 0.3291
Established timings supported:
  640x480@60Hz 4:3 HorFreq: 31469 Hz Clock: 25.175 MHz
  800x600@56Hz 4:3 HorFreq: 35200 Hz Clock: 36.000 MHz
  800x600@60Hz 4:3 HorFreq: 37900 Hz Clock: 40.000 MHz
  1024x768@60Hz 4:3 HorFreq: 48400 Hz Clock: 65.000 MHz
Standard timings supported:
  1280x1024@60Hz 5:4 HorFreq: 64000 Hz Clock: 108.000 MHz
  1280x720@60Hz 16:9
Detailed mode: Clock 138.500 MHz, 890 mm x 500 mm
               1920 1968 2000 2080 hborder 0
               1080 1082 1087 1111 vborder 0
               -hsync +vsync 
               VertFreq: 59 Hz, HorFreq: 66586 Hz
Detailed mode: Clock 85.500 MHz, 640 mm x 360 mm
               1360 1424 1536 1792 hborder 0
                768  771  777  795 vborder 0
               +hsync +vsync 
               VertFreq: 60 Hz, HorFreq: 47712 Hz
Monitor name: N230HML
Monitor ranges (GTF): 55-62Hz V, 30-70kHz H, max dotclock 180MHz
Checksum: 0x25 (valid)
