edid-decode (hex):

00 ff ff ff ff ff ff 00 04 72 01 23 01 01 01 01
00 15 01 03 68 5d 34 78 2a 31 31 a2 55 4d a0 27
12 50 54 23 08 00 81 80 81 c0 01 01 01 01 01 01
01 01 01 01 01 01 1a 36 80 a0 70 38 1f 40 30 20
25 00 7a f4 31 00 00 1c 66 21 50 b0 51 00 1b 30
40 70 36 00 80 68 21 00 00 1e 00 00 00 fc 00 4e
32 33 30 48 4d 4c 0a 20 20 20 20 20 00 00 00 fd
00 37 3e 1e 46 12 00 0a 20 20 20 20 20 20 00 25

----------------

Block 0, Base EDID:
  EDID Structure Version & Revision: 1.3
  Vendor & Product Identification:
    Manufacturer: ACR
    Model: 8961
    Serial Number: ...
    Made in: 2011
  Basic Display Parameters & Features:
    Analog display
    Signal Level Standard: 0.700 : 0.000 : 0.700 V p-p
    Blank level equals black level
    Sync: Separate
    Maximum image size: 93 cm x 52 cm
    Gamma: 2.20
    DPMS levels: Off
    RGB color display
    First detailed timing is the preferred timing
  Color Characteristics:
    Red  : 0.6328, 0.3349
    Green: 0.3007, 0.6259
    Blue : 0.1523, 0.0732
    White: 0.3125, 0.3291
  Established Timings I & II:
    DMT 0x04:   640x480    59.940476 Hz   4:3     31.469 kHz     25.175000 MHz
    DMT 0x08:   800x600    56.250000 Hz   4:3     35.156 kHz     36.000000 MHz
    DMT 0x09:   800x600    60.316541 Hz   4:3     37.879 kHz     40.000000 MHz
    DMT 0x10:  1024x768    60.003840 Hz   4:3     48.363 kHz     65.000000 MHz
  Standard Timings:
    DMT 0x23:  1280x1024   60.019740 Hz   5:4     63.981 kHz    108.000000 MHz
    DMT 0x55:  1280x720    60.000000 Hz  16:9     45.000 kHz     74.250000 MHz
  Detailed Timing Descriptors:
    DTD 1:  1920x1080   59.933878 Hz  16:9     66.587 kHz    138.500000 MHz (890 mm x 500 mm)
                 Hfront   48 Hsync  32 Hback   80 Hpol N
                 Vfront    2 Vsync   5 Vback   24 Vpol P
    DTD 2:  1360x768    60.015162 Hz  85:48    47.712 kHz     85.500000 MHz (640 mm x 360 mm)
                 Hfront   64 Hsync 112 Hback  256 Hpol P
                 Vfront    3 Vsync   6 Vback   18 Vpol P
    Display Product Name: 'N230HML'
    Display Range Limits:
      Monitor ranges (GTF): 55-62 Hz V, 30-70 kHz H, max dotclock 180 MHz
Checksum: 0x25

----------------

Failures:

Block 0, Base EDID:
  Detailed Timing Descriptor #1: Mismatch of image size 890x500 mm vs display size 930x520 mm.
  Detailed Timing Descriptor #2: Mismatch of image size 640x360 mm vs display size 930x520 mm.

EDID conformity: FAIL
