
EDID (hex):
00ffffffffffff0026340890d21f0000
2c130103082b1a78eac905a3574b9c25
125054a54a0081c00101010101010101
010101010101662156aa51001e30468f
3300aeff1000001e000000fc00484449
5431395720445355420a000000fd0032
4b1c5210000a202020202020000000ff
00583936305745393030383134360062

Extracted contents:
header:          00 ff ff ff ff ff ff 00
serial number:   26 34 08 90 d2 1f 00 00 2c 13
version:         01 03
basic params:    08 2b 1a 78 ea
chroma info:     c9 05 a3 57 4b 9c 25 12 50 54
established:     a5 4a 00
standard:        81 c0 01 01 01 01 01 01 01 01 01 01 01 01 01 01
descriptor 1:    66 21 56 aa 51 00 1e 30 46 8f 33 00 ae ff 10 00 00 1e
descriptor 2:    00 00 00 fc 00 48 44 49 54 31 39 57 20 44 53 55 42 0a
descriptor 3:    00 00 00 fd 00 32 4b 1c 52 10 00 0a 20 20 20 20 20 20
descriptor 4:    00 00 00 ff 00 58 39 36 30 57 45 39 30 30 38 31 34 36
extensions:      00
checksum:        62

EDID version: 1.3
Manufacturer: IQT Model 9008 Serial Number --
Made in week 44 of 2009
Analog display, Input voltage level: 0.7/0.3 V
Sync: Separate 
Maximum image size: 43 cm x 26 cm
Gamma: 2.20
DPMS levels: Standby Suspend Off
RGB color display
First detailed timing is preferred timing
Display x,y Chromaticity:
  Red:   0.6396, 0.3398
  Green: 0.2949, 0.6103
  Blue:  0.1445, 0.0703
  White: 0.3134, 0.3291
Established timings supported:
  720x400@70Hz 9:5 HorFreq: 31469 Hz Clock: 28.320 MHz
  640x480@60Hz 4:3 HorFreq: 31469 Hz Clock: 25.175 MHz
  640x480@75Hz 4:3 HorFreq: 37500 Hz Clock: 31.500 MHz
  800x600@60Hz 4:3 HorFreq: 37900 Hz Clock: 40.000 MHz
  800x600@75Hz 4:3 HorFreq: 46900 Hz Clock: 49.500 MHz
  1024x768@60Hz 4:3 HorFreq: 48400 Hz Clock: 65.000 MHz
  1024x768@75Hz 4:3 HorFreq: 60000 Hz Clock: 78.750 MHz
Standard timings supported:
  1280x720@60Hz 16:9
Detailed mode: Clock 85.500 MHz, 430 mm x 255 mm
               1366 1436 1579 1792 hborder 0
                768  771  774  798 vborder 0
               +hsync +vsync 
               VertFreq: 59 Hz, HorFreq: 47712 Hz
Monitor name: HDIT19W DSUB
Monitor ranges (GTF): 50-75Hz V, 28-82kHz H, max dotclock 160MHz
Serial number: --
Checksum: 0x62 (valid)
