
EDID (hex):
00ffffffffffff0030e4290300000000
00150103801c10780a8855995b558f26
1d505400000001010101010101010101
010101010101121b567850000e302020
2400159c100000190000000000000000
00000000000000000000000000fe004c
4720446973706c61790a2020000000fe
004c503132355748322d534c423200f8

Extracted contents:
header:          00 ff ff ff ff ff ff 00
serial number:   30 e4 29 03 00 00 00 00 00 15
version:         01 03
basic params:    80 1c 10 78 0a
chroma info:     88 55 99 5b 55 8f 26 1d 50 54
established:     00 00 00
standard:        01 01 01 01 01 01 01 01 01 01 01 01 01 01 01 01
descriptor 1:    12 1b 56 78 50 00 0e 30 20 20 24 00 15 9c 10 00 00 19
descriptor 2:    00 00 00 00 00 00 00 00 00 00 00 00 00 00 00 00 00 00
descriptor 3:    00 00 00 fe 00 4c 47 20 44 69 73 70 6c 61 79 0a 20 20
descriptor 4:    00 00 00 fe 00 4c 50 31 32 35 57 48 32 2d 53 4c 42 32
extensions:      00
checksum:        f8

EDID version: 1.3
Manufacturer: LGD Model 329 Serial Number --
Made in year 2011
Digital display
Maximum image size: 28 cm x 16 cm
Gamma: 2.20
RGB color display
First detailed timing is preferred timing
Display x,y Chromaticity:
  Red:   0.5996, 0.3554
  Green: 0.3339, 0.5585
  Blue:  0.1494, 0.1142
  White: 0.3134, 0.3291
Established timings supported:
Standard timings supported:
Detailed mode: Clock 69.300 MHz, 277 mm x 156 mm
               1366 1398 1430 1486 hborder 0
                768  770  774  782 vborder 0
               -hsync -vsync 
               VertFreq: 59 Hz, HorFreq: 46635 Hz
Manufacturer-specified data, tag 0
ASCII string: LG Display
ASCII string: LP125WH2-SLB2
Checksum: 0xf8 (valid)
EDID block does NOT conform to EDID 1.3!
	Missing name descriptor
	Missing monitor ranges
