
EDID (hex):
00ffffffffffff0010acf34053513030
2c190104b5301b783aef65a656529d28
0b5054210a0001018180a9c0d1c00101
0101010101015a3c80a070b023403020
3600dd0c1100001e000000ff00385233
333932364f303051530a000000fc0052
544b204844520a2020202020000000fd
0038461e5311010a20202020202001af
020322f24905051013141f0421226503
0c001000e305c000e6060501626200e2
00c0023a801871382d40582c2500dd0c
1100001e011d8018711c1620582c2500
dd0c1100009e00000000000000000000
00000000000000000000000000000000
00000000000000000000000000000000
0000000000000000000000000000000e

Extracted contents:
header:          00 ff ff ff ff ff ff 00
serial number:   10 ac f3 40 53 51 30 30 2c 19
version:         01 04
basic params:    b5 30 1b 78 3a
chroma info:     ef 65 a6 56 52 9d 28 0b 50 54
established:     21 0a 00
standard:        01 01 81 80 a9 c0 d1 c0 01 01 01 01 01 01 01 01
descriptor 1:    5a 3c 80 a0 70 b0 23 40 30 20 36 00 dd 0c 11 00 00 1e
descriptor 2:    00 00 00 ff 00 38 52 33 33 39 32 36 4f 30 30 51 53 0a
descriptor 3:    00 00 00 fc 00 52 54 4b 20 48 44 52 0a 20 20 20 20 20
descriptor 4:    00 00 00 fd 00 38 46 1e 53 11 01 0a 20 20 20 20 20 20
extensions:      01
checksum:        af

EDID version: 1.4
Manufacturer: DEL Model 40f3 Serial Number --
Made in week 44 of 2015
Digital display
10 bits per primary color channel
DisplayPort interface
Maximum image size: 48 cm x 27 cm
Gamma: 2.20
DPMS levels: Off
Supported color formats: RGB 4:4:4, YCrCb 4:4:4, YCrCb 4:2:2
First detailed timing includes the native pixel format and preferred refresh rate
Display x,y Chromaticity:
  Red:   0.6513, 0.3378
  Green: 0.3232, 0.6162
  Blue:  0.1572, 0.0449
  White: 0.3134, 0.3291
Established timings supported:
  640x480@60Hz 4:3 HorFreq: 31469 Hz Clock: 25.175 MHz
  800x600@60Hz 4:3 HorFreq: 37900 Hz Clock: 40.000 MHz
  1024x768@60Hz 4:3 HorFreq: 48400 Hz Clock: 65.000 MHz
  1024x768@75Hz 4:3 HorFreq: 60000 Hz Clock: 78.750 MHz
Standard timings supported:
  1280x1024@60Hz 5:4 HorFreq: 64000 Hz Clock: 108.000 MHz
  1600x900@60Hz 16:9
  1920x1080@60Hz 16:9
Detailed mode: Clock 154.500 MHz, 477 mm x 268 mm
               1920 1968 2000 2080 hborder 0
               1200 1203 1209 1235 vborder 0
               +hsync +vsync 
               VertFreq: 60 Hz, HorFreq: 74278 Hz
Serial number: --
Monitor name: RTK HDR
Monitor ranges (bare limits): 56-70Hz V, 30-83kHz H, max dotclock 170MHz
Has 1 extension blocks
Checksum: 0xaf (valid)

CTA extension block
Extension version: 3
30 bytes of CTA data
  Video data block
    VIC   5 1920x1080i@60Hz 16:9  HorFreq: 33750 Hz Clock: 74.250 MHz
    VIC   5 1920x1080i@60Hz 16:9  HorFreq: 33750 Hz Clock: 74.250 MHz
    VIC  16 1920x1080@60Hz 16:9  HorFreq: 67500 Hz Clock: 148.500 MHz
    VIC  19 1280x720@50Hz 16:9  HorFreq: 37500 Hz Clock: 74.250 MHz
    VIC  20 1920x1080i@50Hz 16:9  HorFreq: 28125 Hz Clock: 74.250 MHz
    VIC  31 1920x1080@50Hz 16:9  HorFreq: 56250 Hz Clock: 148.500 MHz
    VIC   4 1280x720@60Hz 16:9  HorFreq: 45000 Hz Clock: 74.250 MHz
    VIC  33 1920x1080@25Hz 16:9  HorFreq: 28125 Hz Clock: 74.250 MHz
    VIC  34 1920x1080@30Hz 16:9  HorFreq: 33750 Hz Clock: 74.250 MHz
  Vendor-specific data block, OUI 000c03 (HDMI)
    Source physical address 1.0.0.0
  Extended tag: Colorimetry data block
    BT2020YCC
    BT2020RGB
  Extended tag: HDR static metadata data block
    Electro optical transfer functions:
      Traditional gamma - SDR luminance range
      SMPTE ST2084
    Supported static metadata descriptors:
      Static metadata type 1
    Desired content max luminance: 98 (417.710 cd/m^2)
    Desired content max frame-average luminance: 98 (417.710 cd/m^2)
    Desired content min luminance: 0 (0.000 cd/m^2)
  Extended tag: Video capability data block
    YCbCr quantization: Selectable (via AVI YQ) (1)
    RGB quantization: Selectable (via AVI Q) (1)
    PT scan behaviour: No Data (0)
    IT scan behaviour: IT video formats not supported (0)
    CE scan behaviour: CE video formats not supported (0)
Underscans PC formats by default
Basic audio support
Supports YCbCr 4:4:4
Supports YCbCr 4:2:2
2 native detailed modes
Detailed mode: Clock 148.500 MHz, 477 mm x 268 mm
               1920 2008 2052 2200 hborder 0
               1080 1082 1087 1125 vborder 0
               +hsync +vsync 
               VertFreq: 60 Hz, HorFreq: 67500 Hz
Detailed mode: Clock 74.250 MHz, 477 mm x 268 mm
               1920 2008 2052 2200 hborder 0
                540  542  547  562 vborder 0
               +hsync +vsync interlaced 
               VertFreq: 60 Hz, HorFreq: 33750 Hz
Checksum: 0xe (valid)

Warning: One or more of the timings is out of range of the Monitor Ranges:
  Vertical Freq: 25 - 75 Hz
  Horizontal Freq: 28125 - 74278 Hz
  Maximum Clock: 154.500 MHz
EDID block does not conform at all!
	Both the serial number and the serial string are set


