
EDID (hex):
00ffffffffffff0009e5100b00000000
0a200104a51d1278033e40a7524a9925
0f505400000001010101010101010101
010101010101743c80a070b028403020
36001eb31000001a5d3080a070b02840
302036001eb31000001a000000fe0031
52573635804e56313333575500000000
00024131a8000100000a410a20200052

edid-decode (hex):

00 ff ff ff ff ff ff 00 09 e5 10 0b 00 00 00 00
0a 20 01 04 a5 1d 12 78 03 3e 40 a7 52 4a 99 25
0f 50 54 00 00 00 01 01 01 01 01 01 01 01 01 01
01 01 01 01 01 01 74 3c 80 a0 70 b0 28 40 30 20
36 00 1e b3 10 00 00 1a 5d 30 80 a0 70 b0 28 40
30 20 36 00 1e b3 10 00 00 1a 00 00 00 fe 00 31
52 57 36 35 80 4e 56 31 33 33 57 55 00 00 00 00
00 02 41 31 a8 00 01 00 00 0a 41 0a 20 20 00 52

----------------

Block 0, Base EDID:
  EDID Structure Version & Revision: 1.4
  Vendor & Product Identification:
    Manufacturer: BOE
    Model: 2832
    Made in: week 10 of 2022
  Basic Display Parameters & Features:
    Digital display
    Bits per primary color channel: 8
    DisplayPort interface
    Maximum image size: 29 cm x 18 cm
    Gamma: 2.20
    Supported color formats: RGB 4:4:4
    First detailed timing includes the native pixel format and preferred refresh rate
    Display is continuous frequency
  Color Characteristics:
    Red  : 0.6523, 0.3232
    Green: 0.2919, 0.5996
    Blue : 0.1455, 0.0585
    White: 0.3125, 0.3281
  Established Timings I & II: none
  Standard Timings: none
  Detailed Timing Descriptors:
    DTD 1:  1920x1200   60.003102 Hz  16:10    74.404 kHz    154.760000 MHz (286 mm x 179 mm)
                 Hfront   48 Hsync  32 Hback   80 Hpol P
                 Vfront    3 Vsync   6 Vback   31 Vpol N
    DTD 2:  1920x1200   48.003257 Hz  16:10    59.524 kHz    123.810000 MHz (286 mm x 179 mm)
                 Hfront   48 Hsync  32 Hback   80 Hpol P
                 Vfront    3 Vsync   6 Vback   31 Vpol N
    Alphanumeric Data String: '1RW65'
    Manufacturer-Specified Display Descriptor (0x00): 00 00 00 02 41 31 a8 00 01 00 00 0a 41 0a 20 20 '....A1......A.  '
Checksum: 0x52
