
EDID (hex):
00ffffffffffff0006af2d2700000000
10190104951d117802bc05a2554c9a25
0e505400000001010101010101010101
010101010101143780b8703824401010
3e0025a5100000180000000000000000
00000000000000000000000000fe0041
554f0a202020202020202020000000fe
004231333348414e30322e37200a0082

Extracted contents:
header:          00 ff ff ff ff ff ff 00
serial number:   06 af 2d 27 00 00 00 00 10 19
version:         01 04
basic params:    95 1d 11 78 02
chroma info:     bc 05 a2 55 4c 9a 25 0e 50 54
established:     00 00 00
standard:        01 01 01 01 01 01 01 01 01 01 01 01 01 01 01 01
descriptor 1:    14 37 80 b8 70 38 24 40 10 10 3e 00 25 a5 10 00 00 18
descriptor 2:    00 00 00 00 00 00 00 00 00 00 00 00 00 00 00 00 00 00
descriptor 3:    00 00 00 fe 00 41 55 4f 0a 20 20 20 20 20 20 20 20 20
descriptor 4:    00 00 00 fe 00 42 31 33 33 48 41 4e 30 32 2e 37 20 0a
extensions:      00
checksum:        82

EDID version: 1.4
Manufacturer: AUO Model 272d Serial Number --
Made in week 16 of 2015
Digital display
6 bits per primary color channel
DisplayPort interface
Maximum image size: 29 cm x 17 cm
Gamma: 2.20
Supported color formats: RGB 4:4:4
First detailed timing includes the native pixel format and preferred refresh rate
Display x,y Chromaticity:
  Red:   0.6347, 0.3349
  Green: 0.2998, 0.6015
  Blue:  0.1445, 0.0546
  White: 0.3134, 0.3291
Established timings supported:
Standard timings supported:
Detailed mode: Clock 141.000 MHz, 293 mm x 165 mm
               1920 1936 1952 2104 hborder 0
               1080 1083 1097 1116 vborder 0
               -hsync -vsync 
               VertFreq: 60 Hz, HorFreq: 67015 Hz
Manufacturer-specified data, tag 0
ASCII string: AUO
ASCII string: B133HAN02.7 
Checksum: 0x82 (valid)
EDID block does NOT conform to EDID 1.4!
	Missing name descriptor
	Missing monitor ranges
