edid-decode (hex):

00 ff ff ff ff ff ff 00 51 a1 00 00 00 00 00 00
2d 1b 01 04 a5 00 00 78 00 00 00 00 00 00 00 00
00 00 00 00 00 00 01 01 01 01 01 01 01 01 01 01
01 01 01 01 01 01 58 1b 00 70 50 20 26 30 30 20
36 00 97 5e 00 00 00 18 00 00 00 0f 00 20 20 20
20 20 20 20 20 20 20 20 20 20 00 00 00 0f 00 20
20 20 20 20 20 20 20 20 20 20 20 20 00 00 00 0f
00 20 20 20 20 20 20 20 20 20 20 20 20 20 00 51

00 ff ff ff ff ff ff 00 51 a1 00 00 00 00 00 00
2d 1b 01 04 a5 00 00 78 00 00 00 00 00 00 00 00
00 00 00 00 00 00 01 01 01 01 01 01 01 01 01 01
01 01 01 01 01 01 58 1b 00 70 50 20 26 30 30 20
36 00 97 5e 00 00 00 18 00 00 00 0f 00 20 20 20
20 20 20 20 20 20 20 20 20 20 00 00 00 0f 00 20
20 20 20 20 20 20 20 20 20 20 20 20 00 00 00 0f
00 20 20 20 20 20 20 20 20 20 20 20 20 20 00 51

----------------

Block 0, Base EDID:
  EDID Structure Version & Revision: 1.4
  Vendor & Product Identification:
    Manufacturer: TMA
    Model: 0
    Made in: week 45 of 2017
  Basic Display Parameters & Features:
    Digital display
    Bits per primary color channel: 8
    DisplayPort interface
    Image size is variable
    Gamma: 2.20
    Supported color formats: RGB 4:4:4
    First detailed timing does not include the native pixel format and preferred refresh rate
  Color Characteristics:
    Red  : 0.0000, 0.0000
    Green: 0.0000, 0.0000
    Blue : 0.0000, 0.0000
    White: 0.0000, 0.0000
  Established Timings I & II: none
  Standard Timings: none
  Detailed Timing Descriptors:
    DTD 1:  1280x800    60.008778 Hz  16:10    50.287 kHz     70.000000 MHz (151 mm x 94 mm)
                 Hfront   48 Hsync  32 Hback   32 Hpol N
                 Vfront    3 Vsync   6 Vback   29 Vpol N
    Manufacturer-Specified Display Descriptor (0x0f): 00 0f 00 20 20 20 20 20 20 20 20 20 20 20 20 20 '...             '
    Manufacturer-Specified Display Descriptor (0x0f): 00 0f 00 20 20 20 20 20 20 20 20 20 20 20 20 20 '...             '
    Manufacturer-Specified Display Descriptor (0x0f): 00 0f 00 20 20 20 20 20 20 20 20 20 20 20 20 20 '...             '
Checksum: 0x51

----------------

Block 1, Unknown EDID Extension Block 0x00:
  00 ff ff ff ff ff ff 00 51 a1 00 00 00 00 00 00 '........Q.......'
  2d 1b 01 04 a5 00 00 78 00 00 00 00 00 00 00 00 '-......x........'
  00 00 00 00 00 00 01 01 01 01 01 01 01 01 01 01 '................'
  01 01 01 01 01 01 58 1b 00 70 50 20 26 30 30 20 '......X..pP &00 '
  36 00 97 5e 00 00 00 18 00 00 00 0f 00 20 20 20 '6..^.........   '
  20 20 20 20 20 20 20 20 20 20 00 00 00 0f 00 20 '          ..... '
  20 20 20 20 20 20 20 20 20 20 20 20 00 00 00 0f '            ....'
  00 20 20 20 20 20 20 20 20 20 20 20 20 20 00 51 '.             .Q'
Checksum: 0x51

----------------

Warnings:

Block 0, Base EDID:
  Missing Display Product Name.

Failures:

Block 1, Base EDID:
  Unknown Extension Block.
EDID:
  Base EDID: The DTD max image size is 151x94mm, but the display size is not specified anywhere.
  Base EDID: EDID specified 0 extension block(s), but found 1 extension block(s).

EDID conformity: FAIL
