
EDID (hex):
00ffffffffffff001c54023201010101
1e1f0104b5462978fb8a55ad5145a224
0e50543dcf00d1c0d1fc81c081e881fc
01010101010150d000a0f0703e803020
3500ba882100001a000000fd0c30903d
3d86010a202020202020000000fc0041
4f5255532046493332550a20000000ff
003231333030423030303431360a0259
0203407147030412292f103f23091707
8301000067030c001000383c67d85dc4
017880036d1a0000020b3090000f6323
6631e305e301e20f03e6060d01626223
ae8080807038254010082600ba882100
001ab6680068a1a05a5018108500ba88
2100001ab6d2007aa1a05a501810c500
ba882100001a00000000000000000016
70123f000003013c98f10004ff095901
17800f009f05250007000400ffa00104
ff0e9f002f801f006f083f0004000400
aaf20184ff0e910007800f006f083f00
0f000700090000000000000000000000
00000000000000000000000000000000
00000000000000000000000000000000
00000000000000000000000000000987

Extracted contents:
header:          00 ff ff ff ff ff ff 00
serial number:   1c 54 02 32 01 01 01 01 1e 1f
version:         01 04
basic params:    b5 46 29 78 fb
chroma info:     8a 55 ad 51 45 a2 24 0e 50 54
established:     3d cf 00
standard:        d1 c0 d1 fc 81 c0 81 e8 81 fc 01 01 01 01 01 01
descriptor 1:    50 d0 00 a0 f0 70 3e 80 30 20 35 00 ba 88 21 00 00 1a
descriptor 2:    00 00 00 fd 0c 30 90 3d 3d 86 01 0a 20 20 20 20 20 20
descriptor 3:    00 00 00 fc 00 41 4f 52 55 53 20 46 49 33 32 55 0a 20
descriptor 4:    00 00 00 ff 00 32 31 33 30 30 42 30 30 30 34 31 36 0a
extensions:      02
checksum:        59

EDID version: 1.4
Manufacturer: GBT Model 3202 Serial Number --
Made in week 30 of 2021
Digital display
10 bits per primary color channel
DisplayPort interface
Maximum image size: 70 cm x 41 cm
Gamma: 2.20
DPMS levels: Standby Suspend Off
Supported color formats: RGB 4:4:4, YCrCb 4:4:4, YCrCb 4:2:2
First detailed timing includes the native pixel format and preferred refresh rate
Display is continuous frequency
Display x,y Chromaticity:
  Red:   0.6777, 0.3164
  Green: 0.2714, 0.6347
  Blue:  0.1416, 0.0556
  White: 0.3134, 0.3291
Established timings supported:
  640x480@60Hz 4:3 HorFreq: 31469 Hz Clock: 25.175 MHz
  640x480@67Hz 4:3 HorFreq: 35000 Hz Clock: 30.240 MHz
  640x480@72Hz 4:3 HorFreq: 37900 Hz Clock: 31.500 MHz
  640x480@75Hz 4:3 HorFreq: 37500 Hz Clock: 31.500 MHz
  800x600@60Hz 4:3 HorFreq: 37900 Hz Clock: 40.000 MHz
  800x600@72Hz 4:3 HorFreq: 48100 Hz Clock: 50.000 MHz
  800x600@75Hz 4:3 HorFreq: 46900 Hz Clock: 49.500 MHz
  1024x768@60Hz 4:3 HorFreq: 48400 Hz Clock: 65.000 MHz
  1024x768@70Hz 4:3 HorFreq: 56500 Hz Clock: 75.000 MHz
  1024x768@75Hz 4:3 HorFreq: 60000 Hz Clock: 78.750 MHz
  1280x1024@75Hz 5:4 HorFreq: 80000 Hz Clock: 135.000 MHz
Standard timings supported:
  1920x1080@60Hz 16:9
  1920x1080@120Hz 16:9
  1280x720@60Hz 16:9
  1280x720@100Hz 16:9
  1280x720@120Hz 16:9
Detailed mode: Clock 533.280 MHz, 698 mm x 392 mm
               3840 3888 3920 4000 hborder 0
               2160 2163 2168 2222 vborder 0
               +hsync -vsync 
               VertFreq: 60 Hz, HorFreq: 133320 Hz
Monitor ranges (bare limits): 48-144Hz V, 61-316kHz H, max dotclock 1340MHz
Monitor name: AORUS FI32U
Serial number: --
Has 2 extension blocks
Checksum: 0x59 (valid)

CTA extension block
Extension version: 3
60 bytes of CTA data
  Video data block
    VIC   3 720x480@60Hz 16:9  HorFreq: 31469 Hz Clock: 27.000 MHz
    VIC   4 1280x720@60Hz 16:9  HorFreq: 45000 Hz Clock: 74.250 MHz
    VIC  18 720x576@50Hz 16:9  HorFreq: 31250 Hz Clock: 27.000 MHz
    VIC  41 1280x720@100Hz 16:9  HorFreq: 75000 Hz Clock: 148.500 MHz
    VIC  47 1280x720@120Hz 16:9  HorFreq: 90000 Hz Clock: 148.500 MHz
    VIC  16 1920x1080@60Hz 16:9  HorFreq: 67500 Hz Clock: 148.500 MHz
    VIC  63 1920x1080@120Hz 16:9  HorFreq: 135000 Hz Clock: 297.000 MHz
  Audio data block
    Linear PCM, max channels 2
      Supported sample rates (kHz): 96 48 44.1 32
      Supported sample sizes (bits): 24 20 16
  Speaker allocation data block
    Speaker map:
      FL/FR - Front Left/Right
  Vendor-specific data block, OUI 000c03 (HDMI)
    Source physical address 1.0.0.0
    DC_36bit
    DC_30bit
    DC_Y444
    Maximum TMDS clock: 300MHz
  Vendor-specific data block, OUI c45dd8 (HDMI Forum)
    Version: 1
    Maximum TMDS Character Rate: 600MHz
    SCDC Present
    Supports 12-bits/component Deep Color 4:2:0 Pixel Encoding
    Supports 10-bits/component Deep Color 4:2:0 Pixel Encoding
  Vendor-specific data block, OUI 00001a
  Extended tag: Colorimetry data block
    xvYCC601
    xvYCC709
    BT2020cYCC
    BT2020YCC
    BT2020RGB
  Extended tag: YCbCr 4:2:0 capability map data block
    VSD Index 0
    VSD Index 1
  Extended tag: HDR static metadata data block
    Electro optical transfer functions:
      Traditional gamma - SDR luminance range
      SMPTE ST2084
      Hybrid Log-Gamma
    Supported static metadata descriptors:
      Static metadata type 1
    Desired content max luminance: 98 (417.710 cd/m^2)
    Desired content max frame-average luminance: 98 (417.710 cd/m^2)
    Desired content min luminance: 35 (0.079 cd/m^2)
Basic audio support
Supports YCbCr 4:4:4
Supports YCbCr 4:2:2
1 native detailed modes
Detailed mode: Clock 329.420 MHz, 698 mm x 392 mm
               1920 1936 1944 2048 hborder 0
               1080 1082 1088 1117 vborder 0
               +hsync -vsync 
               VertFreq: 144 Hz, HorFreq: 160849 Hz
Detailed mode: Clock 268.060 MHz, 698 mm x 392 mm
               2560 2584 2600 2920 hborder 0
               1440 1448 1453 1530 vborder 0
               +hsync -vsync 
               VertFreq: 60 Hz, HorFreq: 91801 Hz
Detailed mode: Clock 539.420 MHz, 698 mm x 392 mm
               2560 2584 2600 2938 hborder 0
               1440 1452 1457 1530 vborder 0
               +hsync -vsync 
               VertFreq: 120 Hz, HorFreq: 183601 Hz
Checksum: 0x16 (valid)


DisplayID extension block
Extension version: 18
Length 63, version 18, extension count 0
Checksum: 0x9 (valid)
Type 1 detailed timing: aspect: 16:9,  
Detailed mode: Clock 618.480 MHz, 0 mm x 0 mm
               2559 2582 2597 2904
               1439 1446 1450 1476
               +hsync -vsync
Type 1 detailed timing: aspect: 16:9,  
Detailed mode: Clock 1067.510 MHz, 0 mm x 0 mm
               3839 3886 3917 3998
               2159 2163 2167 2222
               +hsync -vsync
Type 1 detailed timing: aspect: 16:9, Preferred  
Detailed mode: Clock 1276.580 MHz, 0 mm x 0 mm
               3839 3846 3861 3984
               2159 2174 2181 2222
               +hsync -vsync

Warning: One or more of the timings is out of range of the Monitor Ranges:
  Vertical Freq: 50 - 144 Hz
  Horizontal Freq: 31250 - 183601 Hz
  Maximum Clock: 539.420 MHz
EDID block does not conform at all!
	Both the serial number and the serial string are set


