
EDID (hex):
00ffffffffffff004dd980030e9c0700
080c01020e241d96ead3a9a2584f9625
1d484ca1080081808140010101010101
010101010101302a009851002a403070
1300671f1100007f000000fd0030411c
410b000a202020202020000000fc0053
444d2d4d38310a2020202020000000ff
00303439383730320a20202020200084

Extracted contents:
header:          00 ff ff ff ff ff ff 00
serial number:   4d d9 80 03 0e 9c 07 00 08 0c
version:         01 02
basic params:    0e 24 1d 96 ea
chroma info:     d3 a9 a2 58 4f 96 25 1d 48 4c
established:     a1 08 00
standard:        81 80 81 40 01 01 01 01 01 01 01 01 01 01 01 01
descriptor 1:    30 2a 00 98 51 00 2a 40 30 70 13 00 67 1f 11 00 00 7f
descriptor 2:    00 00 00 fd 00 30 41 1c 41 0b 00 0a 20 20 20 20 20 20
descriptor 3:    00 00 00 fc 00 53 44 4d 2d 4d 38 31 0a 20 20 20 20 20
descriptor 4:    00 00 00 ff 00 30 34 39 38 37 30 32 0a 20 20 20 20 20
extensions:      00
checksum:        84

EDID version: 1.2
Manufacturer: SNY Model 380 Serial Number --
Analog display, Input voltage level: 0.7/0.3 V
Sync: Separate Composite SyncOnGreen 
Maximum image size: 36 cm x 29 cm
Gamma: 2.50
DPMS levels: Standby Suspend Off
RGB color display
First detailed timing is preferred timing
Display x,y Chromaticity:
  Red:   0.6357, 0.3447
  Green: 0.3085, 0.5888
  Blue:  0.1464, 0.1152
  White: 0.2832, 0.2978
Established timings supported:
  720x400@70Hz 9:5 HorFreq: 31469 Hz Clock: 28.320 MHz
  640x480@60Hz 4:3 HorFreq: 31469 Hz Clock: 25.175 MHz
  800x600@60Hz 4:3 HorFreq: 37900 Hz Clock: 40.000 MHz
  1024x768@60Hz 4:3 HorFreq: 48400 Hz Clock: 65.000 MHz
Standard timings supported:
  1280x1024@60Hz 5:4 HorFreq: 64000 Hz Clock: 108.000 MHz
  1280x960@60Hz 4:3 HorFreq: 60000 Hz Clock: 108.000 MHz
Detailed mode: Clock 108.000 MHz, 359 mm x 287 mm
               1280 1328 1440 1688 hborder 0
               1024 1025 1028 1066 vborder 0
               +hsync +vsync side by side interleaved
               VertFreq: 60 Hz, HorFreq: 63981 Hz
Monitor ranges (GTF): 48-65Hz V, 28-65kHz H, max dotclock 110MHz
Monitor name: SDM-M81
Serial number: --
Checksum: 0x84 (valid)
One or more of the timings is out of range of the Monitor Ranges:
  Vertical Freq: 60 - 70 Hz
  Horizontal Freq: 31469 - 64000 Hz
  Maximum Clock: 108.000 MHz
EDID block does not conform at all!
	Bad year of manufacture
