
EDID (hex):
00ffffffffffff0012e5937101010101
010b010268211978ea00b2a057499b26
10484f2fde0081806159455931590101
010101010101e4240060410028303060
13004afa1000001e000000fd0032a01e
4609000a202020202020000000ff0047
4331313435303237380a2020000000fc
00373139420a2020202020202020002e

Extracted contents:
header:          00 ff ff ff ff ff ff 00
serial number:   12 e5 93 71 01 01 01 01 01 0b
version:         01 02
basic params:    68 21 19 78 ea
chroma info:     00 b2 a0 57 49 9b 26 10 48 4f
established:     2f de 00
standard:        81 80 61 59 45 59 31 59 01 01 01 01 01 01 01 01
descriptor 1:    e4 24 00 60 41 00 28 30 30 60 13 00 4a fa 10 00 00 1e
descriptor 2:    00 00 00 fd 00 32 a0 1e 46 09 00 0a 20 20 20 20 20 20
descriptor 3:    00 00 00 ff 00 47 43 31 31 34 35 30 32 37 38 0a 20 20
descriptor 4:    00 00 00 fc 00 37 31 39 42 0a 20 20 20 20 20 20 20 20
extensions:      00
checksum:        2e

EDID version: 1.2
Manufacturer: DWE Model 7193 Serial Number --
Analog display, Input voltage level: 0.7/0.7 V
Sync: Separate 
Maximum image size: 33 cm x 25 cm
Gamma: 2.20
DPMS levels: Standby Suspend Off
RGB color display
First detailed timing is preferred timing
Display x,y Chromaticity:
  Red:   0.6250, 0.3398
  Green: 0.2851, 0.6054
  Blue:  0.1503, 0.0654
  White: 0.2812, 0.3105
Established timings supported:
  640x480@60Hz 4:3 HorFreq: 31469 Hz Clock: 25.175 MHz
  640x480@72Hz 4:3 HorFreq: 37900 Hz Clock: 31.500 MHz
  640x480@75Hz 4:3 HorFreq: 37500 Hz Clock: 31.500 MHz
  800x600@56Hz 4:3 HorFreq: 35200 Hz Clock: 36.000 MHz
  800x600@60Hz 4:3 HorFreq: 37900 Hz Clock: 40.000 MHz
  800x600@72Hz 4:3 HorFreq: 48100 Hz Clock: 50.000 MHz
  800x600@75Hz 4:3 HorFreq: 46900 Hz Clock: 49.500 MHz
  1280x768i@87Hz 5:3 HorFreq: 35522 Hz Clock: 44.900 MHz
  1024x768@60Hz 4:3 HorFreq: 48400 Hz Clock: 65.000 MHz
  1024x768@70Hz 4:3 HorFreq: 56500 Hz Clock: 75.000 MHz
  1024x768@75Hz 4:3 HorFreq: 60000 Hz Clock: 78.750 MHz
Standard timings supported:
  1280x1024@60Hz 5:4 HorFreq: 64000 Hz Clock: 108.000 MHz
  1024x768@85Hz 4:3 HorFreq: 68700 Hz Clock: 94.500 MHz
  800x600@85Hz 4:3 HorFreq: 53700 Hz Clock: 56.250 MHz
  640x480@85Hz 4:3 HorFreq: 43300 Hz Clock: 36.000 MHz
Detailed mode: Clock 94.440 MHz, 330 mm x 250 mm
               1024 1072 1168 1376 hborder 0
                768  769  772  808 vborder 0
               +hsync +vsync 
               VertFreq: 84 Hz, HorFreq: 68633 Hz
Monitor ranges (GTF): 50-160Hz V, 30-70kHz H, max dotclock 90MHz
Serial number: --
Monitor name: 719B
Checksum: 0x2e (valid)
One or more of the timings is out of range of the Monitor Ranges:
  Vertical Freq: 56 - 87 Hz
  Horizontal Freq: 31469 - 68700 Hz
  Maximum Clock: 108.000 MHz
EDID block does not conform at all!
	Bad year of manufacture
