
EDID (hex):
00ffffffffffff001e6d9d9d01010101
0313010301462778ead9b0a357499c25
11494ba10800314045406140d1c00101
0101010101011b2150a051001e304848
3500bc862100001c1a3680a070381f40
3020350099e61000001c000000fd0039
4b1f5412000a202020202020000000fc
0034325047323030300a20202020007d

Extracted contents:
header:          00 ff ff ff ff ff ff 00
serial number:   1e 6d 9d 9d 01 01 01 01 03 13
version:         01 03
basic params:    01 46 27 78 ea
chroma info:     d9 b0 a3 57 49 9c 25 11 49 4b
established:     a1 08 00
standard:        31 40 45 40 61 40 d1 c0 01 01 01 01 01 01 01 01
descriptor 1:    1b 21 50 a0 51 00 1e 30 48 48 35 00 bc 86 21 00 00 1c
descriptor 2:    1a 36 80 a0 70 38 1f 40 30 20 35 00 99 e6 10 00 00 1c
descriptor 3:    00 00 00 fd 00 39 4b 1f 54 12 00 0a 20 20 20 20 20 20
descriptor 4:    00 00 00 fc 00 34 32 50 47 32 30 30 30 0a 20 20 20 20
extensions:      00
checksum:        7d

EDID version: 1.3
Manufacturer: GSM Model 9d9d Serial Number --
Made in week 3 of 2009
Analog display, Input voltage level: 0.7/0.3 V
Sync: Serration 
Maximum image size: 70 cm x 39 cm
Gamma: 2.20
DPMS levels: Standby Suspend Off
RGB color display
First detailed timing is preferred timing
Display x,y Chromaticity:
  Red:   0.6396, 0.3408
  Green: 0.2871, 0.6103
  Blue:  0.1464, 0.0693
  White: 0.2851, 0.2929
Established timings supported:
  720x400@70Hz 9:5 HorFreq: 31469 Hz Clock: 28.320 MHz
  640x480@60Hz 4:3 HorFreq: 31469 Hz Clock: 25.175 MHz
  800x600@60Hz 4:3 HorFreq: 37900 Hz Clock: 40.000 MHz
  1024x768@60Hz 4:3 HorFreq: 48400 Hz Clock: 65.000 MHz
Standard timings supported:
  640x480@60Hz 4:3 HorFreq: 31469 Hz Clock: 25.175 MHz
  800x600@60Hz 4:3 HorFreq: 37900 Hz Clock: 40.000 MHz
  1024x768@60Hz 4:3 HorFreq: 48400 Hz Clock: 65.000 MHz
  1920x1080@60Hz 16:9
Detailed mode: Clock 84.750 MHz, 700 mm x 390 mm
               1360 1432 1504 1776 hborder 0
                768  771  776  798 vborder 0
               -hsync +vsync 
               VertFreq: 59 Hz, HorFreq: 47719 Hz
Detailed mode: Clock 138.500 MHz, 409 mm x 230 mm
               1920 1968 2000 2080 hborder 0
               1080 1083 1088 1111 vborder 0
               -hsync +vsync 
               VertFreq: 59 Hz, HorFreq: 66586 Hz
Monitor ranges (GTF): 57-75Hz V, 31-84kHz H, max dotclock 180MHz
Monitor name: 42PG2000
Checksum: 0x7d (valid)
