edid-decode (hex):

00 ff ff ff ff ff ff 00 30 e4 60 07 00 00 00 00
00 20 01 04 a5 1e 13 78 07 19 25 a8 54 4a 9e 25
0e 50 54 00 00 00 01 01 01 01 01 01 01 01 01 01
01 01 01 01 01 01 35 3c 80 a0 70 b0 23 40 30 20
36 00 2e bd 10 00 00 1a 2a 30 80 a0 70 b0 23 40
30 20 36 00 2e bd 10 00 00 1a 00 00 00 fe 00 37
47 33 48 48 80 31 34 30 57 55 33 0a 00 00 00 00
00 02 41 31 9e 00 11 00 00 0a 01 0a 20 20 00 0c

00 ff ff ff ff ff ff 00 30 e4 60 07 00 00 00 00
00 20 01 04 a5 1e 13 78 07 19 25 a8 54 4a 9e 25
0e 50 54 00 00 00 01 01 01 01 01 01 01 01 01 01
01 01 01 01 01 01 35 3c 80 a0 70 b0 23 40 30 20
36 00 2e bd 10 00 00 1a 2a 30 80 a0 70 b0 23 40
30 20 36 00 2e bd 10 00 00 1a 00 00 00 fe 00 37
47 33 48 48 80 31 34 30 57 55 33 0a 00 00 00 00
00 02 41 31 9e 00 11 00 00 0a 01 0a 20 20 00 0c

----------------

Block 0, Base EDID:
  EDID Structure Version & Revision: 1.4
  Vendor & Product Identification:
    Manufacturer: LGD
    Model: 1888
    Made in: 2022
  Basic Display Parameters & Features:
    Digital display
    Bits per primary color channel: 8
    DisplayPort interface
    Maximum image size: 30 cm x 19 cm
    Gamma: 2.20
    Supported color formats: RGB 4:4:4
    Default (sRGB) color space is primary color space
    First detailed timing includes the native pixel format and preferred refresh rate
    Display is continuous frequency
  Color Characteristics:
    Red  : 0.6562, 0.3291
    Green: 0.2910, 0.6181
    Blue : 0.1445, 0.0566
    White: 0.3134, 0.3291
  Established Timings I & II: none
  Standard Timings: none
  Detailed Timing Descriptors:
    DTD 1:  1920x1200   60.000779 Hz  16:10    74.101 kHz    154.130000 MHz (302 mm x 189 mm)
                 Hfront   48 Hsync  32 Hback   80 Hpol P
                 Vfront    3 Vsync   6 Vback   26 Vpol N
    DTD 2:  1920x1200   47.999066 Hz  16:10    59.279 kHz    123.300000 MHz (302 mm x 189 mm)
                 Hfront   48 Hsync  32 Hback   80 Hpol P
                 Vfront    3 Vsync   6 Vback   26 Vpol N
    Alphanumeric Data String: '7G3HH'
    Manufacturer-Specified Display Descriptor (0x00): 00 00 00 02 41 31 9e 00 11 00 00 0a 01 0a 20 20 '....A1........  '
Checksum: 0x0c

----------------

Block 1, Unknown EDID Extension Block 0x00:
  00 ff ff ff ff ff ff 00 30 e4 60 07 00 00 00 00 '........0.`.....'
  00 20 01 04 a5 1e 13 78 07 19 25 a8 54 4a 9e 25 '. .....x..%.TJ.%'
  0e 50 54 00 00 00 01 01 01 01 01 01 01 01 01 01 '.PT.............'
  01 01 01 01 01 01 35 3c 80 a0 70 b0 23 40 30 20 '......5<..p.#@0 '
  36 00 2e bd 10 00 00 1a 2a 30 80 a0 70 b0 23 40 '6.......*0..p.#@'
  30 20 36 00 2e bd 10 00 00 1a 00 00 00 fe 00 37 '0 6............7'
  47 33 48 48 80 31 34 30 57 55 33 0a 00 00 00 00 'G3HH.140WU3.....'
  00 02 41 31 9e 00 11 00 00 0a 01 0a 20 20 00 0c '..A1........  ..'
Checksum: 0x0c

----------------

Warnings:

Block 0, Base EDID:
  Missing Display Product Name.

Failures:

Block 0, Base EDID:
  Basic Display Parameters & Features: sRGB is signaled, but the chromaticities do not match.
  Alphanumeric Data String: Non-printable character.
  Missing Display Range Limits Descriptor.
Block 1, Base EDID:
  Unknown Extension Block.
EDID:
  Base EDID: EDID specified 0 extension block(s), but found 1 extension block(s).

EDID conformity: FAIL
