
EDID (hex):
00ffffffffffff000e11971337373142
030c0103081c157eeafb89a1554b9724
11484cfff80031594559010101010101
010101010101f91520f830581f202040
13000ec810000018000000fd0032781e
3607000a202020202020000000ff0032
3033424a343654423137370a000000fc
00434f4d5041512056353230620a002f

Extracted contents:
header:          00 ff ff ff ff ff ff 00
serial number:   0e 11 97 13 37 37 31 42 03 0c
version:         01 03
basic params:    08 1c 15 7e ea
chroma info:     fb 89 a1 55 4b 97 24 11 48 4c
established:     ff f8 00
standard:        31 59 45 59 01 01 01 01 01 01 01 01 01 01 01 01
descriptor 1:    f9 15 20 f8 30 58 1f 20 20 40 13 00 0e c8 10 00 00 18
descriptor 2:    00 00 00 fd 00 32 78 1e 36 07 00 0a 20 20 20 20 20 20
descriptor 3:    00 00 00 ff 00 32 30 33 42 4a 34 36 54 42 31 37 37 0a
descriptor 4:    00 00 00 fc 00 43 4f 4d 50 41 51 20 56 35 32 30 62 0a
extensions:      00
checksum:        2f

EDID version: 1.3
Manufacturer: CPQ Model 1397 Serial Number --
Analog display, Input voltage level: 0.7/0.3 V
Sync: Separate 
Maximum image size: 28 cm x 21 cm
Gamma: 2.26
DPMS levels: Standby Suspend Off
RGB color display
First detailed timing is preferred timing
Display x,y Chromaticity:
  Red:   0.6318, 0.3349
  Green: 0.2949, 0.5927
  Blue:  0.1425, 0.0664
  White: 0.2832, 0.2978
Established timings supported:
  720x400@70Hz 9:5 HorFreq: 31469 Hz Clock: 28.320 MHz
  720x400@88Hz 9:5 HorFreq: 39500 Hz Clock: 35.500 MHz
  640x480@60Hz 4:3 HorFreq: 31469 Hz Clock: 25.175 MHz
  640x480@67Hz 4:3 HorFreq: 35000 Hz Clock: 30.240 MHz
  640x480@72Hz 4:3 HorFreq: 37900 Hz Clock: 31.500 MHz
  640x480@75Hz 4:3 HorFreq: 37500 Hz Clock: 31.500 MHz
  800x600@56Hz 4:3 HorFreq: 35200 Hz Clock: 36.000 MHz
  800x600@60Hz 4:3 HorFreq: 37900 Hz Clock: 40.000 MHz
  800x600@72Hz 4:3 HorFreq: 48100 Hz Clock: 50.000 MHz
  800x600@75Hz 4:3 HorFreq: 46900 Hz Clock: 49.500 MHz
  832x624@75Hz 4:3 HorFreq: 49726 Hz Clock: 57.284 MHz
  1280x768i@87Hz 5:3 HorFreq: 35522 Hz Clock: 44.900 MHz
  1024x768@60Hz 4:3 HorFreq: 48400 Hz Clock: 65.000 MHz
Standard timings supported:
  640x480@85Hz 4:3 HorFreq: 43300 Hz Clock: 36.000 MHz
  800x600@85Hz 4:3 HorFreq: 53700 Hz Clock: 56.250 MHz
Detailed mode: Clock 56.250 MHz, 270 mm x 200 mm
                800  832  896 1048 hborder 0
                600  601  604  631 vborder 0
               -hsync -vsync 
               VertFreq: 85 Hz, HorFreq: 53673 Hz
Monitor ranges (GTF): 50-120Hz V, 30-54kHz H, max dotclock 70MHz
Serial number: --
Monitor name: COMPAQ V520b
Checksum: 0x2f (valid)
EDID block does not conform at all!
	Bad year of manufacture
