edid-decode (hex):

00 ff ff ff ff ff ff 00 09 e5 57 06 00 00 00 00
28 19 01 04 a5 22 13 78 0a 7b 7a a2 57 54 a2 28
0c 4f 53 00 00 00 01 01 01 01 01 01 01 01 01 01
01 01 01 01 01 01 b0 36 80 a0 70 38 28 40 30 20
36 00 58 c2 10 00 00 1a 30 2c 80 a0 70 38 28 40
30 20 36 00 58 c2 10 00 00 1a 00 00 00 fe 00 59
4a 30 4d 50 80 54 56 31 30 38 46 4d 00 00 00 00
00 02 41 21 28 00 00 00 00 0a 01 0a 20 20 00 74

----------------

Block 0, Base EDID:
  EDID Structure Version & Revision: 1.4
  Vendor & Product Identification:
    Manufacturer: BOE
    Model: 1623
    Made in: week 40 of 2015
  Basic Display Parameters & Features:
    Digital display
    Bits per primary color channel: 8
    DisplayPort interface
    Maximum image size: 34 cm x 19 cm
    Gamma: 2.20
    Supported color formats: RGB 4:4:4, YCrCb 4:4:4
    First detailed timing includes the native pixel format and preferred refresh rate
  Color Characteristics:
    Red  : 0.6337, 0.3427
    Green: 0.3300, 0.6357
    Blue : 0.1572, 0.0498
    White: 0.3105, 0.3261
  Established Timings I & II: none
  Standard Timings: none
  Detailed Timing Descriptors:
    DTD 1:  1920x1080   60.096154 Hz  16:9     67.308 kHz    140.000000 MHz (344 mm x 194 mm)
                 Hfront   48 Hsync  32 Hback   80 Hpol P
                 Vfront    3 Vsync   6 Vback   31 Vpol N
    DTD 2:  1920x1080   48.557692 Hz  16:9     54.385 kHz    113.120000 MHz (344 mm x 194 mm)
                 Hfront   48 Hsync  32 Hback   80 Hpol P
                 Vfront    3 Vsync   6 Vback   31 Vpol N
    Alphanumeric Data String: 'YJ0MP'
    Manufacturer-Specified Display Descriptor (0x00): 00 00 00 02 41 21 28 00 00 00 00 0a 01 0a 20 20 '....A!(.......  '
Checksum: 0x74

----------------

Warnings:

Block 0, Base EDID:
  Missing Display Product Name.

Failures:

Block 0, Base EDID:
  Alphanumeric Data String: Non-printable character.

EDID conformity: FAIL
