
EDID (hex):
00ffffffffffff0026cd4419f1390000
270e010368241b782a7614a056479926
12484ca4430031594559615981598199
a94f01010101863d00c05100304040a0
1300680e1100001eea24006041002830
30601300680e1100001e000000fc004d
4d393034550a202020202020000000fd
0032a01e6014000a202020202020007d

Extracted contents:
header:          00 ff ff ff ff ff ff 00
serial number:   26 cd 44 19 f1 39 00 00 27 0e
version:         01 03
basic params:    68 24 1b 78 2a
chroma info:     76 14 a0 56 47 99 26 12 48 4c
established:     a4 43 00
standard:        31 59 45 59 61 59 81 59 81 99 a9 4f 01 01 01 01
descriptor 1:    86 3d 00 c0 51 00 30 40 40 a0 13 00 68 0e 11 00 00 1e
descriptor 2:    ea 24 00 60 41 00 28 30 30 60 13 00 68 0e 11 00 00 1e
descriptor 3:    00 00 00 fc 00 4d 4d 39 30 34 55 0a 20 20 20 20 20 20
descriptor 4:    00 00 00 fd 00 32 a0 1e 60 14 00 0a 20 20 20 20 20 20
extensions:      00
checksum:        7d

EDID version: 1.3
Manufacturer: IVM Model 1944 Serial Number --
Analog display, Input voltage level: 0.7/0.7 V
Sync: Separate 
Maximum image size: 36 cm x 27 cm
Gamma: 2.20
DPMS levels: Off
RGB color display
First detailed timing is preferred timing
Display x,y Chromaticity:
  Red:   0.6259, 0.3388
  Green: 0.2783, 0.5996
  Blue:  0.1484, 0.0712
  White: 0.2822, 0.2968
Established timings supported:
  720x400@70Hz 9:5 HorFreq: 31469 Hz Clock: 28.320 MHz
  640x480@60Hz 4:3 HorFreq: 31469 Hz Clock: 25.175 MHz
  640x480@75Hz 4:3 HorFreq: 37500 Hz Clock: 31.500 MHz
  800x600@75Hz 4:3 HorFreq: 46900 Hz Clock: 49.500 MHz
  1024x768@75Hz 4:3 HorFreq: 60000 Hz Clock: 78.750 MHz
  1280x1024@75Hz 5:4 HorFreq: 80000 Hz Clock: 135.000 MHz
Standard timings supported:
  640x480@85Hz 4:3 HorFreq: 43300 Hz Clock: 36.000 MHz
  800x600@85Hz 4:3 HorFreq: 53700 Hz Clock: 56.250 MHz
  1024x768@85Hz 4:3 HorFreq: 68700 Hz Clock: 94.500 MHz
  1280x960@85Hz 4:3 HorFreq: 85900 Hz Clock: 148.500 MHz
  1280x1024@85Hz 5:4 HorFreq: 91100 Hz Clock: 157.500 MHz
  1600x1200@75Hz 4:3 HorFreq: 93800 Hz Clock: 202.500 MHz
Detailed mode: Clock 157.500 MHz, 360 mm x 270 mm
               1280 1344 1504 1728 hborder 0
               1024 1025 1028 1072 vborder 0
               +hsync +vsync 
               VertFreq: 85 Hz, HorFreq: 91145 Hz
Detailed mode: Clock 94.500 MHz, 360 mm x 270 mm
               1024 1072 1168 1376 hborder 0
                768  769  772  808 vborder 0
               +hsync +vsync 
               VertFreq: 84 Hz, HorFreq: 68677 Hz
Monitor name: MM904U
Monitor ranges (GTF): 50-160Hz V, 30-96kHz H, max dotclock 200MHz
Checksum: 0x7d (valid)
One or more of the timings is out of range of the Monitor Ranges:
  Vertical Freq: 60 - 85 Hz
  Horizontal Freq: 31469 - 93800 Hz
  Maximum Clock: 202.500 MHz
EDID block does not conform at all!
	Bad year of manufacture
