edid-decode (hex):

00 ff ff ff ff ff ff 00 30 ae a1 40 00 00 00 00
01 14 01 03 80 1f 11 78 ea cc ce 99 58 50 8e 26
24 4b 53 00 00 00 01 01 01 01 01 01 01 01 01 01
01 01 01 01 01 01 f8 2a 40 9a 61 84 0c 30 40 2a
33 00 35 ae 10 00 00 18 cf 23 40 9a 61 84 0c 30
40 2a 33 00 35 ae 10 00 00 18 00 00 00 0f 00 a9
09 32 a9 09 32 19 09 00 06 af 56 31 00 00 00 fe
00 42 31 34 30 52 57 30 32 20 56 31 20 0a 00 7b

----------------

Block 0, Base EDID:
  EDID Structure Version & Revision: 1.3
  Vendor & Product Identification:
    Manufacturer: LEN
    Model: 16545
    Made in: week 1 of 2010
  Basic Display Parameters & Features:
    Digital display
    Maximum image size: 31 cm x 17 cm
    Gamma: 2.20
    DPMS levels: Standby Suspend Off
    RGB color display
    First detailed timing is preferred timing
  Color Characteristics:
    Red  : 0.6005, 0.3437
    Green: 0.3154, 0.5546
    Blue : 0.1513, 0.1406
    White: 0.2958, 0.3261
  Established Timings I & II: none
  Standard Timings: none
  Detailed Timing Descriptors:
    DTD 1:  1600x900    60.007 Hz  16:9    54.726 kHz 110.000 MHz (309 mm x 174 mm)
                 Hfront   64 Hsync  42 Hback 304 Hpol N
                 Vfront    3 Vsync   3 Vback   6 Vpol N
    DTD 2:  1600x900    50.008 Hz  16:9    45.607 kHz  91.670 MHz (309 mm x 174 mm)
                 Hfront   64 Hsync  42 Hback 304 Hpol N
                 Vfront    3 Vsync   3 Vback   6 Vpol N
    Manufacturer-Specified Display Descriptor (0x0f): 00 0f 00 a9 09 32 a9 09 32 19 09 00 06 af 56 31 '.....2..2.....V1'
    Alphanumeric Data String: 'B140RW02 V1 '
Checksum: 0x7b
