
EDID (hex):
00ffffffffffff000dae751300000000
061c0104951d11780228659759548e27
1e505400000001010101010101010101
010101010101b43b804a713834402e1e
240025a510000018000000fe004e3133
334843452d4541410a20000000fe0043
4d4e0a202020202020202020000000fe
004e3133334843452d4541410a200027

Extracted contents:
header:          00 ff ff ff ff ff ff 00
serial number:   0d ae 75 13 00 00 00 00 06 1c
version:         01 04
basic params:    95 1d 11 78 02
chroma info:     28 65 97 59 54 8e 27 1e 50 54
established:     00 00 00
standard:        01 01 01 01 01 01 01 01 01 01 01 01 01 01 01 01
descriptor 1:    b4 3b 80 4a 71 38 34 40 2e 1e 24 00 25 a5 10 00 00 18
descriptor 2:    00 00 00 fe 00 4e 31 33 33 48 43 45 2d 45 41 41 0a 20
descriptor 3:    00 00 00 fe 00 43 4d 4e 0a 20 20 20 20 20 20 20 20 20
descriptor 4:    00 00 00 fe 00 4e 31 33 33 48 43 45 2d 45 41 41 0a 20
extensions:      00
checksum:        27

EDID version: 1.4
Manufacturer: CMN Model 1375 Serial Number --
Made in week 6 of 2018
Digital display
6 bits per primary color channel
DisplayPort interface
Maximum image size: 29 cm x 17 cm
Gamma: 2.20
Supported color formats: RGB 4:4:4
First detailed timing includes the native pixel format and preferred refresh rate
Display x,y Chromaticity:
  Red:   0.5898, 0.3496
  Green: 0.3300, 0.5546
  Blue:  0.1533, 0.1191
  White: 0.3134, 0.3291
Established timings supported:
Standard timings supported:
Detailed mode: Clock 152.840 MHz, 293 mm x 165 mm
               1920 1966 1996 2250 hborder 0
               1080 1082 1086 1132 vborder 0
               -hsync -vsync 
               VertFreq: 60 Hz, HorFreq: 67928 Hz
ASCII string: N133HCE-EAA
ASCII string: CMN
ASCII string: N133HCE-EAA
Checksum: 0x27 (valid)
EDID block does NOT conform to EDID 1.4!
	Missing name descriptor
	Missing monitor ranges
