
EDID (hex):
00ffffffffffff0030e4140500000000
00190104951f1178ea0ee5955b559027
1c505400000001010101010101010101
010101010101293680a070381f403020
350035ae1000001a0000000000000000
00000000000000000000000000fe004c
4720446973706c61790a2020000000fe
004c503134305746352d5350423300a6

Extracted contents:
header:          00 ff ff ff ff ff ff 00
serial number:   30 e4 14 05 00 00 00 00 00 19
version:         01 04
basic params:    95 1f 11 78 ea
chroma info:     0e e5 95 5b 55 90 27 1c 50 54
established:     00 00 00
standard:        01 01 01 01 01 01 01 01 01 01 01 01 01 01 01 01
descriptor 1:    29 36 80 a0 70 38 1f 40 30 20 35 00 35 ae 10 00 00 1a
descriptor 2:    00 00 00 00 00 00 00 00 00 00 00 00 00 00 00 00 00 00
descriptor 3:    00 00 00 fe 00 4c 47 20 44 69 73 70 6c 61 79 0a 20 20
descriptor 4:    00 00 00 fe 00 4c 50 31 34 30 57 46 35 2d 53 50 42 33
extensions:      00
checksum:        a6

EDID version: 1.4
Manufacturer: LGD Model 514 Serial Number --
Made in year 2015
Digital display
6 bits per primary color channel
DisplayPort interface
Maximum image size: 31 cm x 17 cm
Gamma: 2.20
DPMS levels: Standby Suspend Off
Supported color formats: RGB 4:4:4, YCrCb 4:4:4
First detailed timing includes the native pixel format and preferred refresh rate
Display x,y Chromaticity:
  Red:   0.5820, 0.3554
  Green: 0.3349, 0.5644
  Blue:  0.1552, 0.1113
  White: 0.3134, 0.3291
Established timings supported:
Standard timings supported:
Detailed mode: Clock 138.650 MHz, 309 mm x 174 mm
               1920 1968 2000 2080 hborder 0
               1080 1083 1088 1111 vborder 0
               +hsync -vsync 
               VertFreq: 59 Hz, HorFreq: 66658 Hz
Manufacturer-specified data, tag 0
ASCII string: LG Display
ASCII string: LP140WF5-SPB3
Checksum: 0xa6 (valid)
EDID block does NOT conform to EDID 1.4!
	Missing name descriptor
	Missing monitor ranges
