
EDID (hex):
00ffffffffffff004c834d8600000000
00190104a51d10780a28659759548e27
1e505400000001010101010101010101
010101010101d23780a2703840403020
250025a51000001aa62c80a270384040
3020250025a51000001a000000fe0050
5646463580313333484c0a2000000000
0001412196000000000a010a202000d1

Extracted contents:
header:          00 ff ff ff ff ff ff 00
serial number:   4c 83 4d 86 00 00 00 00 00 19
version:         01 04
basic params:    a5 1d 10 78 0a
chroma info:     28 65 97 59 54 8e 27 1e 50 54
established:     00 00 00
standard:        01 01 01 01 01 01 01 01 01 01 01 01 01 01 01 01
descriptor 1:    d2 37 80 a2 70 38 40 40 30 20 25 00 25 a5 10 00 00 1a
descriptor 2:    a6 2c 80 a2 70 38 40 40 30 20 25 00 25 a5 10 00 00 1a
descriptor 3:    00 00 00 fe 00 50 56 46 46 35 80 31 33 33 48 4c 0a 20
descriptor 4:    00 00 00 00 00 01 41 21 96 00 00 00 00 0a 01 0a 20 20
extensions:      00
checksum:        d1

EDID version: 1.4
Manufacturer: SDC Model 864d Serial Number --
Made in year 2015
Digital display
8 bits per primary color channel
DisplayPort interface
Maximum image size: 29 cm x 16 cm
Gamma: 2.20
Supported color formats: RGB 4:4:4, YCrCb 4:4:4
First detailed timing includes the native pixel format and preferred refresh rate
Display x,y Chromaticity:
  Red:   0.5898, 0.3496
  Green: 0.3300, 0.5546
  Blue:  0.1533, 0.1191
  White: 0.3134, 0.3291
Established timings supported:
Standard timings supported:
Detailed mode: Clock 142.900 MHz, 293 mm x 165 mm
               1920 1968 2000 2082 hborder 0
               1080 1082 1087 1144 vborder 0
               +hsync -vsync 
               VertFreq: 59 Hz, HorFreq: 68635 Hz
Detailed mode: Clock 114.300 MHz, 293 mm x 165 mm
               1920 1968 2000 2082 hborder 0
               1080 1082 1087 1144 vborder 0
               +hsync -vsync 
               VertFreq: 47 Hz, HorFreq: 54899 Hz
ASCII string: PVFF5
Manufacturer-specified data, tag 0
Checksum: 0xd1 (valid)
EDID block does NOT conform to EDID 1.4!
	Missing name descriptor
	Missing monitor ranges
	Detailed block string not properly terminated
