
EDID (hex):
00ffffffffffff000dae591400000000
001e0104a51e137803ee95a3544c9926
0f505400000001010101010101010101
010101010101423c80a070b024402e1e
a6002dbc10000018000000fd00303c4a
4a0f010a202020202020000000fe0043
4d4e010a2020202020202020000000fe
004e3134304a434e2d4753390a200059

edid-decode (hex):

00 ff ff ff ff ff ff 00 0d ae 59 14 00 00 00 00
00 1e 01 04 a5 1e 13 78 03 ee 95 a3 54 4c 99 26
0f 50 54 00 00 00 01 01 01 01 01 01 01 01 01 01
01 01 01 01 01 01 42 3c 80 a0 70 b0 24 40 2e 1e
a6 00 2d bc 10 00 00 18 00 00 00 fd 00 30 3c 4a
4a 0f 01 0a 20 20 20 20 20 20 00 00 00 fe 00 43
4d 4e 01 0a 20 20 20 20 20 20 20 20 00 00 00 fe
00 4e 31 34 30 4a 43 4e 2d 47 53 39 0a 20 00 59

----------------

Block 0, Base EDID:
  EDID Structure Version & Revision: 1.4
  Vendor & Product Identification:
    Manufacturer: CMN
    Model: 5209
    Made in: 2020
  Basic Display Parameters & Features:
    Digital display
    Bits per primary color channel: 8
    DisplayPort interface
    Maximum image size: 30 cm x 19 cm
    Gamma: 2.20
    Supported color formats: RGB 4:4:4
    First detailed timing includes the native pixel format and preferred refresh rate
    Display is continuous frequency
  Color Characteristics:
    Red  : 0.6396, 0.3300
    Green: 0.2998, 0.5996
    Blue : 0.1503, 0.0595
    White: 0.3134, 0.3291
  Established Timings I & II: none
  Standard Timings: none
  Detailed Timing Descriptors:
    DTD 1:  1920x1200   60.002801 Hz  16:10    74.163 kHz    154.260000 MHz (301 mm x 188 mm)
                 Hfront   46 Hsync  30 Hback   84 Hpol N
                 Vfront   10 Vsync   6 Vback   20 Vpol N
    Display Range Limits:
      Monitor ranges (Bare Limits): 48-60 Hz V, 74-74 kHz H, max dotclock 150 MHz
    Alphanumeric Data String: 'CMN'
    Alphanumeric Data String: 'N140JCN-GS9'
Checksum: 0x59
