edid-decode (hex):

00 ff ff ff ff ff ff 00 30 64 1a 08 01 01 01 01
20 13 01 03 80 1d 10 78 0a f8 8c a6 55 49 a6 26
0b 50 57 00 00 00 01 01 01 01 01 01 01 01 01 01
01 01 01 01 01 01 bb 1d 56 15 51 00 04 30 40 40
11 00 23 a4 10 00 00 18 00 00 00 0f 00 04 08 04
08 00 00 01 01 85 90 02 02 00 00 00 00 fe 00 54
4d 44 49 53 50 4c 41 59 0a 20 20 20 00 00 00 fe
00 4c 54 31 33 31 44 45 56 48 56 30 30 0a 00 cd

----------------

Block 0, Base EDID:
  EDID Structure Version & Revision: 1.3
  Vendor & Product Identification:
    Manufacturer: LCD
    Model: 2074
    Serial Number: ...
    Made in: week 32 of 2009
  Basic Display Parameters & Features:
    Digital display
    Maximum image size: 29 cm x 16 cm
    Gamma: 2.20
    RGB color display
    First detailed timing is the preferred timing
  Color Characteristics:
    Red  : 0.6513, 0.3349
    Green: 0.2871, 0.6484
    Blue : 0.1503, 0.0429
    White: 0.3154, 0.3398
  Established Timings I & II: none
  Standard Timings: none
  Detailed Timing Descriptors:
    DTD 1:  1366x768    60.004920 Hz 683:384   46.324 kHz     76.110000 MHz (291 mm x 164 mm)
                 Hfront   64 Hsync  64 Hback  149 Hpol N
                 Vfront    1 Vsync   1 Vback    2 Vpol N
    Manufacturer-Specified Display Descriptor (0x0f): 00 0f 00 04 08 04 08 00 00 01 01 85 90 02 02 00 '................'
    Alphanumeric Data String: 'TMDISPLAY'
    Alphanumeric Data String: 'LT131DEVHV00'
Checksum: 0xcd

----------------

Failures:

Block 0, Base EDID:
  Missing Display Product Name.
  Missing Display Range Limits Descriptor.

EDID conformity: FAIL
