
EDID (hex):
00ffffffffffff000dae411300000000
11160103801d10780a98559559569328
20505400000001010101010101010101
010101010101791d56c2500026301f41
4c0025a510000018000000fe004e3133
334247452d4c42310a20000000fe0043
4d4e20202020202020202020000000fe
004e3133334247452d4c42310a200041

Extracted contents:
header:          00 ff ff ff ff ff ff 00
serial number:   0d ae 41 13 00 00 00 00 11 16
version:         01 03
basic params:    80 1d 10 78 0a
chroma info:     98 55 95 59 56 93 28 20 50 54
established:     00 00 00
standard:        01 01 01 01 01 01 01 01 01 01 01 01 01 01 01 01
descriptor 1:    79 1d 56 c2 50 00 26 30 1f 41 4c 00 25 a5 10 00 00 18
descriptor 2:    00 00 00 fe 00 4e 31 33 33 42 47 45 2d 4c 42 31 0a 20
descriptor 3:    00 00 00 fe 00 43 4d 4e 20 20 20 20 20 20 20 20 20 20
descriptor 4:    00 00 00 fe 00 4e 31 33 33 42 47 45 2d 4c 42 31 0a 20
extensions:      00
checksum:        41

EDID version: 1.3
Manufacturer: CMN Model 1341 Serial Number --
Made in week 17 of 2012
Digital display
Maximum image size: 29 cm x 16 cm
Gamma: 2.20
RGB color display
First detailed timing is preferred timing
Display x,y Chromaticity:
  Red:   0.5839, 0.3486
  Green: 0.3378, 0.5742
  Blue:  0.1572, 0.1259
  White: 0.3134, 0.3291
Established timings supported:
Standard timings supported:
Detailed mode: Clock 75.450 MHz, 293 mm x 165 mm
               1366 1397 1462 1560 hborder 0
                768  772  784  806 vborder 0
               -hsync -vsync 
               VertFreq: 60 Hz, HorFreq: 48365 Hz
ASCII string: N133BGE-LB1
ASCII string: CMN          
ASCII string: N133BGE-LB1
Checksum: 0x41 (valid)
EDID block does NOT conform to EDID 1.3!
	Missing name descriptor
	Missing monitor ranges
