
EDID (hex):
00ffffffffffff0009e5320a00000000
101f0104a5221678037635965d5b952b
21505400000001010101010101010101
010101010101af41805471b028403020
360059d71000001aca2b805471b02840
3020360059d71000001a000000000000
00000000000000000000000000000002
000d40ff0a3c7d10152a7d0000000086

Extracted contents:
header:          00 ff ff ff ff ff ff 00
serial number:   09 e5 32 0a 00 00 00 00 10 1f
version:         01 04
basic params:    a5 22 16 78 03
chroma info:     76 35 96 5d 5b 95 2b 21 50 54
established:     00 00 00
standard:        01 01 01 01 01 01 01 01 01 01 01 01 01 01 01 01
descriptor 1:    af 41 80 54 71 b0 28 40 30 20 36 00 59 d7 10 00 00 1a
descriptor 2:    ca 2b 80 54 71 b0 28 40 30 20 36 00 59 d7 10 00 00 1a
descriptor 3:    00 00 00 00 00 00 00 00 00 00 00 00 00 00 00 00 00 00
descriptor 4:    00 00 00 02 00 0d 40 ff 0a 3c 7d 10 15 2a 7d 00 00 00
extensions:      00
checksum:        86

EDID version: 1.4
Manufacturer: BOE Model a32 Serial Number --
Made in week 16 of 2021
Digital display
8 bits per primary color channel
DisplayPort interface
Maximum image size: 34 cm x 22 cm
Gamma: 2.20
Supported color formats: RGB 4:4:4
First detailed timing includes the native pixel format and preferred refresh rate
Display is continuous frequency
Display x,y Chromaticity:
  Red:   0.5869, 0.3662
  Green: 0.3564, 0.5839
  Blue:  0.1679, 0.1318
  White: 0.3134, 0.3291
Established timings supported:
Standard timings supported:
Detailed mode: Clock 168.150 MHz, 345 mm x 215 mm
               1920 1968 2000 2260 hborder 0
               1200 1203 1209 1240 vborder 0
               +hsync -vsync 
               VertFreq: 60 Hz, HorFreq: 74402 Hz
Detailed mode: Clock 112.100 MHz, 345 mm x 215 mm
               1920 1968 2000 2260 hborder 0
               1200 1203 1209 1240 vborder 0
               +hsync -vsync 
               VertFreq: 40 Hz, HorFreq: 49601 Hz
Manufacturer-specified data, tag 0
Manufacturer-specified data, tag 2
Checksum: 0x86 (valid)
EDID block does NOT conform to EDID 1.4!
	Missing name descriptor
	Missing monitor ranges
