
EDID (hex):
00ffffffffffff0006af6d2000000000
00190104951c10780208759559589628
1c505400000001010101010101010101
010101010101143780b8703824401010
3e00149b10000018b82480b870382440
10103e00149b10000018000000000000
00000000000000000000000000000002
001036ff0f3c96180a1c9620202000a5

Extracted contents:
header:          00 ff ff ff ff ff ff 00
serial number:   06 af 6d 20 00 00 00 00 00 19
version:         01 04
basic params:    95 1c 10 78 02
chroma info:     08 75 95 59 58 96 28 1c 50 54
established:     00 00 00
standard:        01 01 01 01 01 01 01 01 01 01 01 01 01 01 01 01
descriptor 1:    14 37 80 b8 70 38 24 40 10 10 3e 00 14 9b 10 00 00 18
descriptor 2:    b8 24 80 b8 70 38 24 40 10 10 3e 00 14 9b 10 00 00 18
descriptor 3:    00 00 00 00 00 00 00 00 00 00 00 00 00 00 00 00 00 00
descriptor 4:    00 00 00 02 00 10 36 ff 0f 3c 96 18 0a 1c 96 20 20 20
extensions:      00
checksum:        a5

EDID version: 1.4
Manufacturer: AUO Model 206d Serial Number --
Made in year 2015
Digital display
6 bits per primary color channel
DisplayPort interface
Maximum image size: 28 cm x 16 cm
Gamma: 2.20
Supported color formats: RGB 4:4:4
First detailed timing includes the native pixel format and preferred refresh rate
Display x,y Chromaticity:
  Red:   0.5820, 0.3476
  Green: 0.3457, 0.5859
  Blue:  0.1572, 0.1123
  White: 0.3134, 0.3291
Established timings supported:
Standard timings supported:
Detailed mode: Clock 141.000 MHz, 276 mm x 155 mm
               1920 1936 1952 2104 hborder 0
               1080 1083 1097 1116 vborder 0
               -hsync -vsync 
               VertFreq: 60 Hz, HorFreq: 67015 Hz
Detailed mode: Clock 94.000 MHz, 276 mm x 155 mm
               1920 1936 1952 2104 hborder 0
               1080 1083 1097 1116 vborder 0
               -hsync -vsync 
               VertFreq: 40 Hz, HorFreq: 44676 Hz
Manufacturer-specified data, tag 0
Manufacturer-specified data, tag 2
Checksum: 0xa5 (valid)
EDID block does NOT conform to EDID 1.4!
	Missing name descriptor
	Missing monitor ranges
