
EDID (hex):
00ffffffffffff0006af9e1000000000
01130103902615780ac4959e57539226
0f505400000001010101010101010101
0101010101016829404861840c303020
36007ed61000001a6829404861840c30
302036007ed61000001a000000fe0034
5047394e804231373352573100000000
00000000000000000002010a202000d2

Extracted contents:
header:          00 ff ff ff ff ff ff 00
serial number:   06 af 9e 10 00 00 00 00 01 13
version:         01 03
basic params:    90 26 15 78 0a
chroma info:     c4 95 9e 57 53 92 26 0f 50 54
established:     00 00 00
standard:        01 01 01 01 01 01 01 01 01 01 01 01 01 01 01 01
descriptor 1:    68 29 40 48 61 84 0c 30 30 20 36 00 7e d6 10 00 00 1a
descriptor 2:    68 29 40 48 61 84 0c 30 30 20 36 00 7e d6 10 00 00 1a
descriptor 3:    00 00 00 fe 00 34 50 47 39 4e 80 42 31 37 33 52 57 31
descriptor 4:    00 00 00 00 00 00 00 00 00 00 00 00 00 02 01 0a 20 20
extensions:      00
checksum:        d2

EDID version: 1.3
Manufacturer: AUO Model 109e Serial Number --
Made in week 1 of 2009
Digital display
Maximum image size: 38 cm x 21 cm
Gamma: 2.20
RGB color display
First detailed timing is preferred timing
Display x,y Chromaticity:
  Red:   0.6201, 0.3398
  Green: 0.3251, 0.5703
  Blue:  0.1503, 0.0595
  White: 0.3134, 0.3291
Established timings supported:
Standard timings supported:
Detailed mode: Clock 106.000 MHz, 382 mm x 214 mm
               1600 1648 1680 1928 hborder 0
                900  903  909  912 vborder 0
               +hsync -vsync 
               VertFreq: 60 Hz, HorFreq: 54979 Hz
Detailed mode: Clock 106.000 MHz, 382 mm x 214 mm
               1600 1648 1680 1928 hborder 0
                900  903  909  912 vborder 0
               +hsync -vsync 
               VertFreq: 60 Hz, HorFreq: 54979 Hz
ASCII string: 4PG9N
Manufacturer-specified data, tag 0
Checksum: 0xd2 (valid)
EDID block does NOT conform to EDID 1.3!
	Digital display field contains garbage: 10
	Missing name descriptor
	Missing monitor ranges
	Detailed block string not properly terminated
