
EDID (hex):
00ffffffffffff001ec5000200000000
1813010380342178eeee91a3544c9926
0f5054200000a940b30095008bc08140
714f61404540302a009851002a403070
1300c48e2100001e283c80a070b02340
30203600c48e2100001a000000fc0044
56494420457874656e646572000000fd
00384c1e5311010a20202020202000e5

Extracted contents:
header:          00 ff ff ff ff ff ff 00
serial number:   1e c5 00 02 00 00 00 00 18 13
version:         01 03
basic params:    80 34 21 78 ee
chroma info:     ee 91 a3 54 4c 99 26 0f 50 54
established:     20 00 00
standard:        a9 40 b3 00 95 00 8b c0 81 40 71 4f 61 40 45 40
descriptor 1:    30 2a 00 98 51 00 2a 40 30 70 13 00 c4 8e 21 00 00 1e
descriptor 2:    28 3c 80 a0 70 b0 23 40 30 20 36 00 c4 8e 21 00 00 1a
descriptor 3:    00 00 00 fc 00 44 56 49 44 20 45 78 74 65 6e 64 65 72
descriptor 4:    00 00 00 fd 00 38 4c 1e 53 11 01 0a 20 20 20 20 20 20
extensions:      00
checksum:        e5

EDID version: 1.3
Manufacturer: GVE Model 200 Serial Number --
Made in week 24 of 2009
Digital display
Maximum image size: 52 cm x 33 cm
Gamma: 2.20
DPMS levels: Standby Suspend Off
RGB color display
Default (sRGB) color space is primary color space
First detailed timing is preferred timing
Display x,y Chromaticity:
  Red:   0.6396, 0.3300
  Green: 0.2998, 0.5996
  Blue:  0.1503, 0.0595
  White: 0.3125, 0.3291
Established timings supported:
  640x480@60Hz 4:3 HorFreq: 31469 Hz Clock: 25.175 MHz
Standard timings supported:
  1600x1200@60Hz 4:3 HorFreq: 75000 Hz Clock: 162.000 MHz
  1680x1050@60Hz 16:10 HorFreq: 64700 Hz Clock: 119.000 MHz
  1440x900@60Hz 16:10 HorFreq: 55500 Hz Clock: 88.750 MHz
  1360x765@60Hz 16:9
  1280x960@60Hz 4:3 HorFreq: 60000 Hz Clock: 108.000 MHz
  1152x864@75Hz 4:3 HorFreq: 67500 Hz Clock: 108.000 MHz
  1024x768@60Hz 4:3 HorFreq: 48400 Hz Clock: 65.000 MHz
  800x600@60Hz 4:3 HorFreq: 37900 Hz Clock: 40.000 MHz
Detailed mode: Clock 108.000 MHz, 708 mm x 398 mm
               1280 1328 1440 1688 hborder 0
               1024 1025 1028 1066 vborder 0
               +hsync +vsync 
               VertFreq: 60 Hz, HorFreq: 63981 Hz
Detailed mode: Clock 154.000 MHz, 708 mm x 398 mm
               1920 1968 2000 2080 hborder 0
               1200 1203 1209 1235 vborder 0
               +hsync -vsync 
               VertFreq: 59 Hz, HorFreq: 74038 Hz
Monitor ranges (bare limits): 56-76Hz V, 30-83kHz H, max dotclock 170MHz
Checksum: 0xe5 (valid)
EDID block does NOT conform to EDID 1.3!
	Name descriptor not terminated with a newline
EDID block does not conform at all!
	Detailed blocks filled with garbage
	Range descriptor contains garbage
