
EDID (hex):
00ffffffffffff001ab3210800000000
18180103803c22782a4bb5a7564ba325
0a5054a54b008100818f9500b300d100
010101010101565e00a0a0a029503020
3500544f2100001a000000ff00595636
463031383935370a2020000000fc0050
3237542d37204c45440a2020000000fd
00324c1e6421000a2020202020200147
02030400283c80a070b0234030203600
55502100001a023a801871382d40582c
9600555021000018011d007251d01e20
6e28550055502100001e023a80d07238
2d40102c968055502100001800000000
00000000000000000000000000000000
00000000000000000000000000000000
00000000000000000000000000000017

Extracted contents:
header:          00 ff ff ff ff ff ff 00
serial number:   1a b3 21 08 00 00 00 00 18 18
version:         01 03
basic params:    80 3c 22 78 2a
chroma info:     4b b5 a7 56 4b a3 25 0a 50 54
established:     a5 4b 00
standard:        81 00 81 8f 95 00 b3 00 d1 00 01 01 01 01 01 01
descriptor 1:    56 5e 00 a0 a0 a0 29 50 30 20 35 00 54 4f 21 00 00 1a
descriptor 2:    00 00 00 ff 00 59 56 36 46 30 31 38 39 35 37 0a 20 20
descriptor 3:    00 00 00 fc 00 50 32 37 54 2d 37 20 4c 45 44 0a 20 20
descriptor 4:    00 00 00 fd 00 32 4c 1e 64 21 00 0a 20 20 20 20 20 20
extensions:      01
checksum:        47

EDID version: 1.3
Manufacturer: FUS Model 821 Serial Number --
Made in week 24 of 2014
Digital display
Maximum image size: 60 cm x 34 cm
Gamma: 2.20
DPMS levels: Off
RGB color display
First detailed timing is preferred timing
Display x,y Chromaticity:
  Red:   0.6533, 0.3359
  Green: 0.2949, 0.6396
  Blue:  0.1464, 0.0419
  White: 0.3134, 0.3291
Established timings supported:
  720x400@70Hz 9:5 HorFreq: 31469 Hz Clock: 28.320 MHz
  640x480@60Hz 4:3 HorFreq: 31469 Hz Clock: 25.175 MHz
  640x480@75Hz 4:3 HorFreq: 37500 Hz Clock: 31.500 MHz
  800x600@60Hz 4:3 HorFreq: 37900 Hz Clock: 40.000 MHz
  800x600@75Hz 4:3 HorFreq: 46900 Hz Clock: 49.500 MHz
  1024x768@60Hz 4:3 HorFreq: 48400 Hz Clock: 65.000 MHz
  1024x768@75Hz 4:3 HorFreq: 60000 Hz Clock: 78.750 MHz
  1280x1024@75Hz 5:4 HorFreq: 80000 Hz Clock: 135.000 MHz
Standard timings supported:
  1280x800@60Hz 16:10
  1280x1024@75Hz 5:4 HorFreq: 80000 Hz Clock: 135.000 MHz
  1440x900@60Hz 16:10 HorFreq: 55500 Hz Clock: 88.750 MHz
  1680x1050@60Hz 16:10 HorFreq: 64700 Hz Clock: 119.000 MHz
  1920x1200@60Hz 16:10 HorFreq: 74000 Hz Clock: 154.000 MHz
Detailed mode: Clock 241.500 MHz, 596 mm x 335 mm
               2560 2608 2640 2720 hborder 0
               1440 1443 1448 1481 vborder 0
               +hsync -vsync 
               VertFreq: 59 Hz, HorFreq: 88786 Hz
Serial number: --
Monitor name: P27T-7 LED
Monitor ranges (GTF): 50-76Hz V, 30-100kHz H, max dotclock 330MHz
Has 1 extension blocks
Checksum: 0x47 (valid)

CTA extension block
Extension version: 3
0 bytes of CTA data
0 native detailed modes
Detailed mode: Clock 154.000 MHz, 597 mm x 336 mm
               1920 1968 2000 2080 hborder 0
               1200 1203 1209 1235 vborder 0
               +hsync -vsync 
               VertFreq: 59 Hz, HorFreq: 74038 Hz
Detailed mode: Clock 148.500 MHz, 597 mm x 336 mm
               1920 2008 2052 2200 hborder 0
               1080 1089 1095 1125 vborder 0
               -hsync -vsync 
               VertFreq: 60 Hz, HorFreq: 67500 Hz
Detailed mode: Clock 74.250 MHz, 597 mm x 336 mm
               1280 1390 1430 1650 hborder 0
                720  725  730  750 vborder 0
               +hsync +vsync 
               VertFreq: 60 Hz, HorFreq: 45000 Hz
Detailed mode: Clock 148.500 MHz, 597 mm x 336 mm
               1920 2448 2492 2640 hborder 0
               1080 1089 1095 1125 vborder 0
               -hsync -vsync 
               VertFreq: 50 Hz, HorFreq: 56250 Hz
Checksum: 0x17 (valid)
