
EDID (hex):
00ffffffffffff0006afd11000000000
0113010390160d780a87f594574f8c27
27505400000001010101010101010101
010101010101401500be414026203020
4400df7d0000001a401500be41402620
30204400df7d0000001a000000fe004b
32353350804231303141573100000000
00000000000000000001010a2020007b

Extracted contents:
header:          00 ff ff ff ff ff ff 00
serial number:   06 af d1 10 00 00 00 00 01 13
version:         01 03
basic params:    90 16 0d 78 0a
chroma info:     87 f5 94 57 4f 8c 27 27 50 54
established:     00 00 00
standard:        01 01 01 01 01 01 01 01 01 01 01 01 01 01 01 01
descriptor 1:    40 15 00 be 41 40 26 20 30 20 44 00 df 7d 00 00 00 1a
descriptor 2:    40 15 00 be 41 40 26 20 30 20 44 00 df 7d 00 00 00 1a
descriptor 3:    00 00 00 fe 00 4b 32 35 33 50 80 42 31 30 31 41 57 31
descriptor 4:    00 00 00 00 00 00 00 00 00 00 00 00 00 01 01 0a 20 20
extensions:      00
checksum:        7b

EDID version: 1.3
Manufacturer: AUO Model 10d1 Serial Number --
Made in week 1 of 2009
Digital display
Maximum image size: 22 cm x 13 cm
Gamma: 2.20
RGB color display
First detailed timing is preferred timing
Display x,y Chromaticity:
  Red:   0.5800, 0.3398
  Green: 0.3095, 0.5498
  Blue:  0.1552, 0.1552
  White: 0.3134, 0.3291
Established timings supported:
Standard timings supported:
Detailed mode: Clock 54.400 MHz, 223 mm x 125 mm
               1024 1072 1104 1470 hborder 0
                576  580  584  614 vborder 0
               +hsync -vsync 
               VertFreq: 60 Hz, HorFreq: 37006 Hz
Detailed mode: Clock 54.400 MHz, 223 mm x 125 mm
               1024 1072 1104 1470 hborder 0
                576  580  584  614 vborder 0
               +hsync -vsync 
               VertFreq: 60 Hz, HorFreq: 37006 Hz
ASCII string: K253P
Manufacturer-specified data, tag 0
Checksum: 0x7b (valid)
EDID block does NOT conform to EDID 1.3!
	Digital display field contains garbage: 10
	Missing name descriptor
	Missing monitor ranges
	Detailed block string not properly terminated
