
EDID (hex):
00ffffffffffff004c83634100000000
081f0104b51d1278020cf1ae523cb923
0c505400000001010101010101010101
01010101010153ce8030d27020803020
880020b41000001b53ce8030d2702080
3020880020b41000001b000000fe0038
5658565481313334584b303400000000
0003040300010000000b010a20200110
02030f00e3058000e606050174600700
00000000000000000000000000000000
00000000000000000000000000000000
00000000000000000000000000000000
00000000000000000000000000000000
00000000000000000000000000000000
00000000000000000000000000000000
000000000000000000000000000000b7

Extracted contents:
header:          00 ff ff ff ff ff ff 00
serial number:   4c 83 63 41 00 00 00 00 08 1f
version:         01 04
basic params:    b5 1d 12 78 02
chroma info:     0c f1 ae 52 3c b9 23 0c 50 54
established:     00 00 00
standard:        01 01 01 01 01 01 01 01 01 01 01 01 01 01 01 01
descriptor 1:    53 ce 80 30 d2 70 20 80 30 20 88 00 20 b4 10 00 00 1b
descriptor 2:    53 ce 80 30 d2 70 20 80 30 20 88 00 20 b4 10 00 00 1b
descriptor 3:    00 00 00 fe 00 38 56 58 56 54 81 31 33 34 58 4b 30 34
descriptor 4:    00 00 00 00 00 03 04 03 00 01 00 00 00 0b 01 0a 20 20
extensions:      01
checksum:        10

EDID version: 1.4
Manufacturer: SDC Model 4163 Serial Number --
Made in week 8 of 2021
Digital display
10 bits per primary color channel
DisplayPort interface
Maximum image size: 29 cm x 18 cm
Gamma: 2.20
Supported color formats: RGB 4:4:4
First detailed timing includes the native pixel format and preferred refresh rate
Display x,y Chromaticity:
  Red:   0.6796, 0.3203
  Green: 0.2373, 0.7226
  Blue:  0.1396, 0.0498
  White: 0.3125, 0.3291
Established timings supported:
Standard timings supported:
Detailed mode: Clock 528.190 MHz, 288 mm x 180 mm
               3456 3504 3536 4016 hborder 0
               2160 2168 2176 2192 vborder 0
               +hsync -vsync 
               VertFreq: 60 Hz, HorFreq: 131521 Hz
Detailed mode: Clock 528.190 MHz, 288 mm x 180 mm
               3456 3504 3536 4016 hborder 0
               2160 2168 2176 2192 vborder 0
               +hsync -vsync 
               VertFreq: 60 Hz, HorFreq: 131521 Hz
ASCII string: 8VXVT
Manufacturer-specified data, tag 0
Has 1 extension blocks
Checksum: 0x10 (valid)

CTA extension block
Extension version: 3
11 bytes of CTA data
  Extended tag: Colorimetry data block
    BT2020RGB
  Extended tag: HDR static metadata data block
    Electro optical transfer functions:
      Traditional gamma - SDR luminance range
      SMPTE ST2084
    Supported static metadata descriptors:
      Static metadata type 1
    Desired content max luminance: 116 (616.884 cd/m^2)
    Desired content max frame-average luminance: 96 (400.000 cd/m^2)
    Desired content min luminance: 7 (0.005 cd/m^2)
0 native detailed modes
Checksum: 0xb7 (valid)

EDID block does NOT conform to EDID 1.4!
	Required 640x480p60 timings are missing in the established timings
	and/or in the SVD list (VIC 1)
	Missing name descriptor
	Missing monitor ranges
	Detailed block string not properly terminated
