edid-decode (hex):

00 ff ff ff ff ff ff 00 21 63 8b 3e 00 00 00 00
00 21 01 04 a5 23 16 78 0a 42 e9 9f 59 4e 8f 23
18 55 5c 00 00 00 01 01 01 01 01 01 01 01 01 01
01 01 01 01 01 01 32 3c 80 a0 70 b0 23 40 30 20
36 00 59 d7 10 00 00 18 2a 30 80 a0 70 b0 23 40
30 20 36 00 59 d7 10 00 00 18 00 00 00 fe 00 58
58 58 58 58 00 31 36 30 44 53 30 32 00 00 00 00
00 01 41 21 19 00 10 00 00 0a 01 0a 20 20 00 46

00 ff ff ff ff ff ff 00 21 63 8b 3e 00 00 00 00
00 21 01 04 a5 23 16 78 0a 42 e9 9f 59 4e 8f 23
18 55 5c 00 00 00 01 01 01 01 01 01 01 01 01 01
01 01 01 01 01 01 32 3c 80 a0 70 b0 23 40 30 20
36 00 59 d7 10 00 00 18 2a 30 80 a0 70 b0 23 40
30 20 36 00 59 d7 10 00 00 18 00 00 00 fe 00 58
58 58 58 58 00 31 36 30 44 53 30 32 00 00 00 00
00 01 41 21 19 00 10 00 00 0a 01 0a 20 20 00 46

----------------

Block 0, Base EDID:
  EDID Structure Version & Revision: 1.4
  Vendor & Product Identification:
    Manufacturer: HKC
    Model: 16011
    Made in: 2023
  Basic Display Parameters & Features:
    Digital display
    Bits per primary color channel: 8
    DisplayPort interface
    Maximum image size: 35 cm x 22 cm
    Gamma: 2.20
    Supported color formats: RGB 4:4:4, YCrCb 4:4:4
    First detailed timing includes the native pixel format and preferred refresh rate
  Color Characteristics:
    Red  : 0.6220, 0.3476
    Green: 0.3046, 0.5605
    Blue : 0.1396, 0.0957
    White: 0.3339, 0.3603
  Established Timings I & II: none
  Standard Timings: none
  Detailed Timing Descriptors:
    DTD 1:  1920x1200   59.989100 Hz  16:10    74.087 kHz    154.100000 MHz (345 mm x 215 mm)
                 Hfront   48 Hsync  32 Hback   80 Hpol N
                 Vfront    3 Vsync   6 Vback   26 Vpol N
    DTD 2:  1920x1200   47.999066 Hz  16:10    59.279 kHz    123.300000 MHz (345 mm x 215 mm)
                 Hfront   48 Hsync  32 Hback   80 Hpol N
                 Vfront    3 Vsync   6 Vback   26 Vpol N
    Alphanumeric Data String: 'XXXXX'
    Manufacturer-Specified Display Descriptor (0x00): 00 00 00 01 41 21 19 00 10 00 00 0a 01 0a 20 20 '....A!........  '
Checksum: 0x46

----------------

Block 1, Unknown EDID Extension Block 0x00:
  00 ff ff ff ff ff ff 00 21 63 8b 3e 00 00 00 00 '........!c.>....'
  00 21 01 04 a5 23 16 78 0a 42 e9 9f 59 4e 8f 23 '.!...#.x.B..YN.#'
  18 55 5c 00 00 00 01 01 01 01 01 01 01 01 01 01 '.U\.............'
  01 01 01 01 01 01 32 3c 80 a0 70 b0 23 40 30 20 '......2<..p.#@0 '
  36 00 59 d7 10 00 00 18 2a 30 80 a0 70 b0 23 40 '6.Y.....*0..p.#@'
  30 20 36 00 59 d7 10 00 00 18 00 00 00 fe 00 58 '0 6.Y..........X'
  58 58 58 58 00 31 36 30 44 53 30 32 00 00 00 00 'XXXX.160DS02....'
  00 01 41 21 19 00 10 00 00 0a 01 0a 20 20 00 46 '..A!........  .F'
Checksum: 0x46

----------------

Warnings:

Block 0, Base EDID:
  Missing Display Product Name.

Failures:

Block 0, Base EDID:
  Alphanumeric Data String: Non-printable character.
Block 1, Base EDID:
  Unknown Extension Block.
EDID:
  Base EDID: EDID specified 0 extension block(s), but found 1 extension block(s).

EDID conformity: FAIL
