edid-decode (hex):

00 ff ff ff ff ff ff 00 21 63 8b 3e 00 00 00 00
00 20 01 04 a5 23 16 78 0a e1 f0 8e 5b 5a 91 28
1e 50 54 00 00 00 01 01 01 01 01 01 01 01 01 01
01 01 01 01 01 01 35 3c 80 a0 70 b0 23 40 30 20
36 00 59 d7 10 00 00 18 2a 30 80 a0 70 b0 23 40
30 20 36 00 59 d7 10 00 00 18 00 00 00 fe 00 58
58 58 58 58 00 31 36 30 44 53 30 31 00 00 00 00
00 01 41 21 19 00 10 00 00 0a 01 0a 20 20 00 a2

00 ff ff ff ff ff ff 00 21 63 8b 3e 00 00 00 00
00 20 01 04 a5 23 16 78 0a e1 f0 8e 5b 5a 91 28
1e 50 54 00 00 00 01 01 01 01 01 01 01 01 01 01
01 01 01 01 01 01 35 3c 80 a0 70 b0 23 40 30 20
36 00 59 d7 10 00 00 18 2a 30 80 a0 70 b0 23 40
30 20 36 00 59 d7 10 00 00 18 00 00 00 fe 00 58
58 58 58 58 00 31 36 30 44 53 30 31 00 00 00 00
00 01 41 21 19 00 10 00 00 0a 01 0a 20 20 00 a2

----------------

Block 0, Base EDID:
  EDID Structure Version & Revision: 1.4
  Vendor & Product Identification:
    Manufacturer: HKC
    Model: 16011
    Made in: 2022
  Basic Display Parameters & Features:
    Digital display
    Bits per primary color channel: 8
    DisplayPort interface
    Maximum image size: 35 cm x 22 cm
    Gamma: 2.20
    Supported color formats: RGB 4:4:4, YCrCb 4:4:4
    First detailed timing includes the native pixel format and preferred refresh rate
  Color Characteristics:
    Red  : 0.5576, 0.3574
    Green: 0.3515, 0.5673
    Blue : 0.1591, 0.1201
    White: 0.3125, 0.3281
  Established Timings I & II: none
  Standard Timings: none
  Detailed Timing Descriptors:
    DTD 1:  1920x1200   60.000779 Hz  16:10    74.101 kHz    154.130000 MHz (345 mm x 215 mm)
                 Hfront   48 Hsync  32 Hback   80 Hpol N
                 Vfront    3 Vsync   6 Vback   26 Vpol N
    DTD 2:  1920x1200   47.999066 Hz  16:10    59.279 kHz    123.300000 MHz (345 mm x 215 mm)
                 Hfront   48 Hsync  32 Hback   80 Hpol N
                 Vfront    3 Vsync   6 Vback   26 Vpol N
    Alphanumeric Data String: 'XXXXX'
    Manufacturer-Specified Display Descriptor (0x00): 00 00 00 01 41 21 19 00 10 00 00 0a 01 0a 20 20 '....A!........  '
Checksum: 0xa2

----------------

Block 1, Unknown EDID Extension Block 0x00:
  00 ff ff ff ff ff ff 00 21 63 8b 3e 00 00 00 00 '........!c.>....'
  00 20 01 04 a5 23 16 78 0a e1 f0 8e 5b 5a 91 28 '. ...#.x....[Z.('
  1e 50 54 00 00 00 01 01 01 01 01 01 01 01 01 01 '.PT.............'
  01 01 01 01 01 01 35 3c 80 a0 70 b0 23 40 30 20 '......5<..p.#@0 '
  36 00 59 d7 10 00 00 18 2a 30 80 a0 70 b0 23 40 '6.Y.....*0..p.#@'
  30 20 36 00 59 d7 10 00 00 18 00 00 00 fe 00 58 '0 6.Y..........X'
  58 58 58 58 00 31 36 30 44 53 30 31 00 00 00 00 'XXXX.160DS01....'
  00 01 41 21 19 00 10 00 00 0a 01 0a 20 20 00 a2 '..A!........  ..'
Checksum: 0xa2

----------------

Warnings:

Block 0, Base EDID:
  Missing Display Product Name.

Failures:

Block 0, Base EDID:
  Alphanumeric Data String: Non-printable character.
Block 1, Base EDID:
  Unknown Extension Block.
EDID:
  Base EDID: EDID specified 0 extension block(s), but found 1 extension block(s).

EDID conformity: FAIL
