edid-decode (hex):

00 ff ff ff ff ff ff 00 30 e4 e0 03 00 00 00 00
00 16 01 04 95 23 13 78 0a 05 f5 94 58 56 92 28
1e 50 54 00 00 00 01 01 01 01 01 01 01 01 01 01
01 01 01 01 01 01 28 1e 56 fe 50 00 1a 30 30 24
57 00 59 c2 10 00 00 1b 1b 14 56 fe 50 00 1a 30
30 24 57 00 59 c2 10 00 00 1b 00 00 00 00 00 00
00 00 00 00 00 00 00 00 00 00 00 00 00 00 00 02
00 0c 4c ff 0a 3c 64 0f 13 1f 64 00 00 00 00 04

----------------

Block 0, Base EDID:
  EDID Structure Version & Revision: 1.4
  Vendor & Product Identification:
    Manufacturer: LGD
    Model: 992
    Made in: 2012
  Basic Display Parameters & Features:
    Digital display
    Bits per primary color channel: 6
    DisplayPort interface
    Maximum image size: 35 cm x 19 cm
    Gamma: 2.20
    Supported color formats: RGB 4:4:4, YCrCb 4:4:4
    First detailed timing includes the native pixel format and preferred refresh rate
  Color Characteristics:
    Red  : 0.5781, 0.3437
    Green: 0.3369, 0.5712
    Blue : 0.1591, 0.1201
    White: 0.3134, 0.3291
  Established Timings I & II: none
  Standard Timings: none
  Detailed Timing Descriptors:
    DTD 1:  1366x768    60.018037 Hz 683:384   47.654 kHz     77.200000 MHz (345 mm x 194 mm)
                 Hfront   48 Hsync  36 Hback  170 Hpol P
                 Vfront    5 Vsync   7 Vback   14 Vpol N
    DTD 2:  1366x768    40.014616 Hz 683:384   31.772 kHz     51.470000 MHz (345 mm x 194 mm)
                 Hfront   48 Hsync  36 Hback  170 Hpol P
                 Vfront    5 Vsync   7 Vback   14 Vpol N
    Empty Descriptor
    Manufacturer-Specified Display Descriptor (0x02): 00 02 00 0c 4c ff 0a 3c 64 0f 13 1f 64 00 00 00 '....L..<d...d...'
Checksum: 0x04

----------------

Failures:

Block 0, Base EDID:
  Empty Descriptor: Use Dummy Descriptor instead of all zeroes.
  Missing Display Product Name.

EDID conformity: FAIL
