edid-decode (hex):

00 ff ff ff ff ff ff 00 28 ae 90 00 64 00 00 00
2e 06 01 00 08 1b 15 00 e8 29 6e 9c 59 4e 98 26
10 47 4f af 58 01 00 00 00 00 00 00 00 00 00 00
00 00 00 00 00 00 d5 09 80 a0 20 5e 63 10 10 60
52 00 fa bc 00 08 06 1a 00 00 00 00 00 00 00 00
00 00 00 00 00 00 00 00 00 00 00 00 00 00 00 00
00 00 00 00 00 00 00 00 00 00 00 00 00 00 00 00
00 00 00 00 00 00 00 00 00 00 00 00 00 00 00 12

----------------

Block 0, Base EDID:
  EDID Structure Version & Revision: 1.0
  Vendor & Product Identification:
    Manufacturer: JEN
    Model: 144
    Serial Number: ...
    Made in: week 46 of 1996
  Basic Display Parameters & Features:
    Analog display
    Input voltage level: 0.7/0.3 V
    Sync: Separate
    Maximum image size: 27 cm x 21 cm
    Gamma: 1.00
    DPMS levels: Standby Suspend Off
    RGB color display
  Color Characteristics:
    Red  : 0.6093, 0.3496
    Green: 0.3066, 0.5947
    Blue : 0.1494, 0.0644
    White: 0.2802, 0.3105
  Established Timings I & II:
    IBM     :   720x400    70.082 Hz   9:5    31.467 kHz  28.320 MHz
    DMT 0x04:   640x480    59.940 Hz   4:3    31.469 kHz  25.175 MHz
    DMT 0x05:   640x480    72.809 Hz   4:3    37.861 kHz  31.500 MHz
    DMT 0x06:   640x480    75.000 Hz   4:3    37.500 kHz  31.500 MHz
    DMT 0x08:   800x600    56.250 Hz   4:3    35.156 kHz  36.000 MHz
    DMT 0x09:   800x600    60.317 Hz   4:3    37.879 kHz  40.000 MHz
    DMT 0x0b:   800x600    75.000 Hz   4:3    46.875 kHz  49.500 MHz
    DMT 0x0f:  1024x768i   86.958 Hz   4:3    35.522 kHz  44.900 MHz
    DMT 0x10:  1024x768    60.004 Hz   4:3    48.363 kHz  65.000 MHz
  Standard Timings:
  Detailed Timing Descriptors:
    DTD 1:   640x350    70.072 Hz  64:35   31.462 kHz  25.170 MHz (250 mm x 188 mm)
                 Hfront   16 Hsync  96 Hback  48 Hpol P Hborder 8
                 Vfront    5 Vsync   2 Vback  92 Vpol N Vborder 6
    Empty Descriptor
    Empty Descriptor
    Empty Descriptor
Checksum: 0x12
