edid-decode (hex):

00 ff ff ff ff ff ff 00 0c 33 44 80 01 01 01 01
14 15 01 03 0e 00 00 78 2a 49 87 b2 4c 5d 9b 24
03 4a 55 2f cf 00 81 80 81 40 71 4f 71 4a a9 40
95 00 b3 00 81 3c 9e 20 00 90 51 20 1f 30 48 80
36 00 0b 27 53 00 00 1c 00 00 00 fd 00 32 79 0f
64 11 00 0a 20 20 20 20 20 20 00 00 00 fc 00 43
41 53 49 4f 2d 50 4a 0a 20 20 20 20 00 00 00 fe
00 0a 20 20 20 20 20 20 20 20 20 20 20 20 01 85

10 01 06 00 00 78 14 80 d0 20 e0 23 10 28 40 13
00 00 00 00 00 00 1c cb 20 20 20 31 58 2b 20 38
58 13 00 00 00 00 00 00 1c 51 36 00 80 41 00 37
30 50 70 13 00 00 00 00 00 00 1c c9 36 00 a0 50
00 2d 30 30 20 37 00 00 00 00 00 00 1a 66 21 56
aa 51 00 1e 30 46 8f 33 00 00 00 00 00 00 1e 20
1c 56 86 50 00 20 30 0e 38 13 00 00 00 00 00 00
1e 00 00 00 00 00 00 00 00 00 00 00 00 00 00 7f

00 ff ff ff ff ff ff 00 0c 33 44 80 01 01 01 01
14 15 01 03 0e 00 00 78 2a 49 87 b2 4c 5d 9b 24
03 4a 55 2f cf 00 81 80 81 40 71 4f 71 4a a9 40
95 00 b3 00 81 3c 9e 20 00 90 51 20 1f 30 48 80
36 00 0b 27 53 00 00 1c 00 00 00 fd 00 32 79 0f
64 11 00 0a 20 20 20 20 20 20 00 00 00 fc 00 43
41 53 49 4f 2d 50 4a 0a 20 20 20 20 00 00 00 fe
00 0a 20 20 20 20 20 20 20 20 20 20 20 20 01 85

10 01 06 00 00 78 14 80 d0 20 e0 23 10 28 40 13
00 00 00 00 00 00 1c cb 20 20 20 31 58 2b 20 38
58 13 00 00 00 00 00 00 1c 51 36 00 80 41 00 37
30 50 70 13 00 00 00 00 00 00 1c c9 36 00 a0 50
00 2d 30 30 20 37 00 00 00 00 00 00 1a 66 21 56
aa 51 00 1e 30 46 8f 33 00 00 00 00 00 00 1e 20
1c 56 86 50 00 20 30 0e 38 13 00 00 00 00 00 00
1e 00 00 00 00 00 00 00 00 00 00 00 00 00 00 7f

----------------

Block 0, Base EDID:
  EDID Structure Version & Revision: 1.3
  Vendor & Product Identification:
    Manufacturer: CAS
    Model: 32836
    Serial Number: ...
    Made in: week 20 of 2011
  Basic Display Parameters & Features:
    Analog display
    Signal Level Standard: 0.700 : 0.300 : 1.000 V p-p
    Blank level equals black level
    Sync: Separate Composite SyncOnGreen
    Image size is variable
    Gamma: 2.20
    DPMS levels: Off
    RGB color display
    First detailed timing is the preferred timing
  Color Characteristics:
    Red  : 0.6962, 0.2968
    Green: 0.3652, 0.6064
    Blue : 0.1425, 0.0117
    White: 0.2900, 0.3349
  Established Timings I & II:
    DMT 0x04:   640x480    59.940476 Hz   4:3     31.469 kHz     25.175000 MHz
    DMT 0x05:   640x480    72.808802 Hz   4:3     37.861 kHz     31.500000 MHz
    DMT 0x06:   640x480    75.000000 Hz   4:3     37.500 kHz     31.500000 MHz
    DMT 0x08:   800x600    56.250000 Hz   4:3     35.156 kHz     36.000000 MHz
    DMT 0x09:   800x600    60.316541 Hz   4:3     37.879 kHz     40.000000 MHz
    DMT 0x0a:   800x600    72.187572 Hz   4:3     48.077 kHz     50.000000 MHz
    DMT 0x0b:   800x600    75.000000 Hz   4:3     46.875 kHz     49.500000 MHz
    DMT 0x10:  1024x768    60.003840 Hz   4:3     48.363 kHz     65.000000 MHz
    DMT 0x11:  1024x768    70.069359 Hz   4:3     56.476 kHz     75.000000 MHz
    DMT 0x12:  1024x768    75.028582 Hz   4:3     60.023 kHz     78.750000 MHz
    DMT 0x24:  1280x1024   75.024675 Hz   5:4     79.976 kHz    135.000000 MHz
  Standard Timings:
    DMT 0x23:  1280x1024   60.019740 Hz   5:4     63.981 kHz    108.000000 MHz
    DMT 0x20:  1280x960    60.000000 Hz   4:3     60.000 kHz    108.000000 MHz
    DMT 0x15:  1152x864    75.000000 Hz   4:3     67.500 kHz    108.000000 MHz
    GTF     :  1152x864    70.000000 Hz   4:3     63.000 kHz     96.768000 MHz
    DMT 0x33:  1600x1200   60.000000 Hz   4:3     75.000 kHz    162.000000 MHz
    DMT 0x2f:  1440x900    59.887445 Hz  16:10    55.935 kHz    106.500000 MHz
    DMT 0x3a:  1680x1050   59.954250 Hz  16:10    65.290 kHz    146.250000 MHz
    GTF     :  1280x800   120.000265 Hz  16:10   102.960 kHz    181.210000 MHz
  Detailed Timing Descriptors:
    DTD 1:  1280x800    59.810326 Hz  16:10    49.702 kHz     83.500000 MHz (1291 mm x 807 mm)
                 Hfront   72 Hsync 128 Hback  200 Hpol N
                 Vfront    3 Vsync   6 Vback   22 Vpol P
    Display Range Limits:
      Monitor ranges (GTF): 50-121 Hz V, 15-100 kHz H, max dotclock 170 MHz
    Display Product Name: 'CASIO-PJ'
    Alphanumeric Data String: ''
  Extension blocks: 1
Checksum: 0x85

----------------

Block 1, Video Timing Extension Block:
  Version: 1
  Detailed Timing Descriptors:
    DTD:   640x480   119.985345 Hz   4:3     61.792 kHz     52.400000 MHz
               Hfront   40 Hsync  64 Hback  104 Hpol N
               Vfront    1 Vsync   3 Vback   31 Vpol P
    DTD:   800x600   119.999886 Hz   4:3     77.160 kHz     83.950000 MHz
               Hfront   56 Hsync  88 Hback  144 Hpol N
               Vfront    1 Vsync   3 Vback   39 Vpol P
    DTD:  1024x768   119.996479 Hz   4:3     98.757 kHz    139.050000 MHz
               Hfront   80 Hsync 112 Hback  192 Hpol N
               Vfront    1 Vsync   3 Vback   51 Vpol P
    DTD:  1280x768   119.798073 Hz   5:3     97.396 kHz    140.250000 MHz
               Hfront   48 Hsync  32 Hback   80 Hpol P
               Vfront    3 Vsync   7 Vback   35 Vpol N
    DTD:  1366x768    59.789541 Hz 683:384   47.712 kHz     85.500000 MHz
               Hfront   70 Hsync 143 Hback  213 Hpol P
               Vfront    3 Vsync   3 Vback   24 Vpol P
    DTD:  1366x768    60.000000 Hz 683:384   48.000 kHz     72.000000 MHz
               Hfront   14 Hsync  56 Hback   64 Hpol P
               Vfront    1 Vsync   3 Vback   28 Vpol P
Checksum: 0x7f  Unused space in Extension Block: 14 bytes

----------------

Block 2, Unknown EDID Extension Block 0x00:
  00 ff ff ff ff ff ff 00 0c 33 44 80 01 01 01 01 '.........3D.....'
  14 15 01 03 0e 00 00 78 2a 49 87 b2 4c 5d 9b 24 '.......x*I..L].$'
  03 4a 55 2f cf 00 81 80 81 40 71 4f 71 4a a9 40 '.JU/.....@qOqJ.@'
  95 00 b3 00 81 3c 9e 20 00 90 51 20 1f 30 48 80 '.....<. ..Q .0H.'
  36 00 0b 27 53 00 00 1c 00 00 00 fd 00 32 79 0f '6..'S........2y.'
  64 11 00 0a 20 20 20 20 20 20 00 00 00 fc 00 43 'd...      .....C'
  41 53 49 4f 2d 50 4a 0a 20 20 20 20 00 00 00 fe 'ASIO-PJ.    ....'
  00 0a 20 20 20 20 20 20 20 20 20 20 20 20 01 85 '..            ..'
Checksum: 0x85

----------------

Block 3, Video Timing Extension Block:
  Version: 1
  Detailed Timing Descriptors:
    DTD:   640x480   119.985345 Hz   4:3     61.792 kHz     52.400000 MHz
               Hfront   40 Hsync  64 Hback  104 Hpol N
               Vfront    1 Vsync   3 Vback   31 Vpol P
    DTD:   800x600   119.999886 Hz   4:3     77.160 kHz     83.950000 MHz
               Hfront   56 Hsync  88 Hback  144 Hpol N
               Vfront    1 Vsync   3 Vback   39 Vpol P
    DTD:  1024x768   119.996479 Hz   4:3     98.757 kHz    139.050000 MHz
               Hfront   80 Hsync 112 Hback  192 Hpol N
               Vfront    1 Vsync   3 Vback   51 Vpol P
    DTD:  1280x768   119.798073 Hz   5:3     97.396 kHz    140.250000 MHz
               Hfront   48 Hsync  32 Hback   80 Hpol P
               Vfront    3 Vsync   7 Vback   35 Vpol N
    DTD:  1366x768    59.789541 Hz 683:384   47.712 kHz     85.500000 MHz
               Hfront   70 Hsync 143 Hback  213 Hpol P
               Vfront    3 Vsync   3 Vback   24 Vpol P
    DTD:  1366x768    60.000000 Hz 683:384   48.000 kHz     72.000000 MHz
               Hfront   14 Hsync  56 Hback   64 Hpol P
               Vfront    1 Vsync   3 Vback   28 Vpol P
Checksum: 0x7f  Unused space in Extension Block: 14 bytes

----------------

Failures:

Block 0, Base EDID:
  Alphanumeric Data String: Empty string.
Block 2, Base EDID:
  Unknown Extension Block.
EDID:
  Base EDID: Some timings are out of range of the Monitor Ranges:
    Horizontal Freq: 31.468 - 102.960 kHz (Monitor: 15.000 - 100.000 kHz)
    Maximum Clock: 181.210 MHz (Monitor: 170.000 MHz)
  Base EDID: The DTD max image size is 1291x807mm, but the display size is not specified anywhere.
  Base EDID: EDID specified 1 extension block(s), but found 3 extension block(s).
  Base EDID: EDID 1.3 requires a Block Map Extension in Block 1 if there are more than 2 blocks in the EDID.

EDID conformity: FAIL
