
EDID (hex):
00ffffffffffff000e6f091500000000
001f0104a522137803da45a4544b9b26
0f505400000001010101010101010101
010101010101636300a0a0a077503020
350058c110000018000000fd0c3ca502
0246010a202020202020000000fe0043
534f542054330a2020202020000000fe
004d4e463630314341312d330a20019c
701379000003011450110184ff099f00
2f001f009f0576000200040000000000
00000000000000000000000000000000
00000000000000000000000000000000
00000000000000000000000000000000
00000000000000000000000000000000
00000000000000000000000000000000
00000000000000000000000000006190

Extracted contents:
header:          00 ff ff ff ff ff ff 00
serial number:   0e 6f 09 15 00 00 00 00 00 1f
version:         01 04
basic params:    a5 22 13 78 03
chroma info:     da 45 a4 54 4b 9b 26 0f 50 54
established:     00 00 00
standard:        01 01 01 01 01 01 01 01 01 01 01 01 01 01 01 01
descriptor 1:    63 63 00 a0 a0 a0 77 50 30 20 35 00 58 c1 10 00 00 18
descriptor 2:    00 00 00 fd 0c 3c a5 02 02 46 01 0a 20 20 20 20 20 20
descriptor 3:    00 00 00 fe 00 43 53 4f 54 20 54 33 0a 20 20 20 20 20
descriptor 4:    00 00 00 fe 00 4d 4e 46 36 30 31 43 41 31 2d 33 0a 20
extensions:      01
checksum:        9c

EDID version: 1.4
Manufacturer: CSO Model 1509 Serial Number --
Made in year 2021
Digital display
8 bits per primary color channel
DisplayPort interface
Maximum image size: 34 cm x 19 cm
Gamma: 2.20
Supported color formats: RGB 4:4:4
First detailed timing includes the native pixel format and preferred refresh rate
Display is continuous frequency
Display x,y Chromaticity:
  Red:   0.6435, 0.3291
  Green: 0.2949, 0.6074
  Blue:  0.1494, 0.0585
  White: 0.3134, 0.3291
Established timings supported:
Standard timings supported:
Detailed mode: Clock 254.430 MHz, 344 mm x 193 mm
               2560 2608 2640 2720 hborder 0
               1440 1443 1448 1559 vborder 0
               -hsync -vsync 
               VertFreq: 60 Hz, HorFreq: 93540 Hz
Monitor ranges (bare limits): 60-165Hz V, 2-257kHz H, max dotclock 700MHz
ASCII string: CSOT T3
ASCII string: MNF601CA1-3
Has 1 extension blocks
Checksum: 0x9c (valid)

DisplayID extension block
Extension version: 19
Length 121, version 19, extension count 0
Checksum: 0x61 (valid)
Type 1 detailed timing: aspect: 16:9, Preferred  
Detailed mode: Clock 699.680 MHz, 0 mm x 0 mm
               2559 2606 2637 2718
               1439 1441 1445 1557
               -hsync -vsync

EDID block does NOT conform to EDID 1.4!
	Missing name descriptor
EDID block does not conform at all!
	Has 1677721600 nonconformant extension block(s)
