
EDID (hex):
00ffffffffffff001e6d514656000000
090a01010e241d96e8fd1c99594d9226
22505ca56b8031594559615981800101
010101010101bc34009851002a401090
1300671f1100001e000000fd0038781f
50ff000a202020202020000000fc0053
747564696f576f726b732038000000fc
0038304c430a202020202020202000e4

Extracted contents:
header:          00 ff ff ff ff ff ff 00
serial number:   1e 6d 51 46 56 00 00 00 09 0a
version:         01 01
basic params:    0e 24 1d 96 e8
chroma info:     fd 1c 99 59 4d 92 26 22 50 5c
established:     a5 6b 80
standard:        31 59 45 59 61 59 81 80 01 01 01 01 01 01 01 01
descriptor 1:    bc 34 00 98 51 00 2a 40 10 90 13 00 67 1f 11 00 00 1e
descriptor 2:    00 00 00 fd 00 38 78 1f 50 ff 00 0a 20 20 20 20 20 20
descriptor 3:    00 00 00 fc 00 53 74 75 64 69 6f 57 6f 72 6b 73 20 38
descriptor 4:    00 00 00 fc 00 38 30 4c 43 0a 20 20 20 20 20 20 20 20
extensions:      00
checksum:        e4

EDID version: 1.1
Manufacturer: GSM Model 4651 Serial Number --
Analog display, Input voltage level: 0.7/0.3 V
Sync: Separate Composite SyncOnGreen 
Maximum image size: 36 cm x 29 cm
Gamma: 2.50
DPMS levels: Standby Suspend Off
RGB color display
Display x,y Chromaticity:
  Red:   0.6005, 0.3505
  Green: 0.3037, 0.5712
  Blue:  0.1484, 0.1337
  White: 0.3154, 0.3593
Established timings supported:
  720x400@70Hz 9:5 HorFreq: 31469 Hz Clock: 28.320 MHz
  640x480@60Hz 4:3 HorFreq: 31469 Hz Clock: 25.175 MHz
  640x480@75Hz 4:3 HorFreq: 37500 Hz Clock: 31.500 MHz
  800x600@60Hz 4:3 HorFreq: 37900 Hz Clock: 40.000 MHz
  800x600@75Hz 4:3 HorFreq: 46900 Hz Clock: 49.500 MHz
  832x624@75Hz 4:3 HorFreq: 49726 Hz Clock: 57.284 MHz
  1024x768@60Hz 4:3 HorFreq: 48400 Hz Clock: 65.000 MHz
  1024x768@75Hz 4:3 HorFreq: 60000 Hz Clock: 78.750 MHz
  1280x1024@75Hz 5:4 HorFreq: 80000 Hz Clock: 135.000 MHz
  1152x870@75Hz 192:145 HorFreq: 67500 Hz Clock: 108.000 MHz
Standard timings supported:
  640x480@85Hz 4:3 HorFreq: 43300 Hz Clock: 36.000 MHz
  800x600@85Hz 4:3 HorFreq: 53700 Hz Clock: 56.250 MHz
  1024x768@85Hz 4:3 HorFreq: 68700 Hz Clock: 94.500 MHz
  1280x1024@60Hz 5:4 HorFreq: 64000 Hz Clock: 108.000 MHz
Detailed mode: Clock 135.000 MHz, 359 mm x 287 mm
               1280 1296 1440 1688 hborder 0
               1024 1025 1028 1066 vborder 0
               +hsync +vsync 
               VertFreq: 75 Hz, HorFreq: 79976 Hz
Monitor ranges (GTF): 56-120Hz V, 31-80kHz H, max dotclock 2550MHz
Monitor name: StudioWorks 880LC
Checksum: 0xe4 (valid)
EDID block does NOT conform to EDID 1.0!
	Has descriptor blocks other than detailed timings
EDID block does not conform at all!
	Bad year of manufacture
