edid-decode (hex):

00 ff ff ff ff ff ff 00 30 ae 05 40 00 00 00 00
00 10 01 03 80 19 12 78 ea af 40 95 56 4a 8f 25
20 50 54 21 08 00 81 80 01 01 01 01 01 01 01 01
01 01 01 01 01 01 20 21 78 c8 50 1a 0a 40 14 74
25 00 f5 b8 00 00 00 19 00 00 00 10 00 00 00 00
00 00 00 00 00 00 00 00 00 00 00 00 00 0f 00 90
43 32 00 00 00 13 02 00 09 e5 00 00 00 00 00 fe
00 48 56 31 32 31 50 30 31 2d 31 30 31 0a 00 75

----------------

Block 0, Base EDID:
  EDID Structure Version & Revision: 1.3
  Vendor & Product Identification:
    Manufacturer: LEN
    Model: 16389
    Made in: 2006
  Basic Display Parameters & Features:
    Digital display
    Maximum image size: 25 cm x 18 cm
    Gamma: 2.20
    DPMS levels: Standby Suspend Off
    RGB color display
    First detailed timing is preferred timing
  Color Characteristics:
    Red  : 0.5839, 0.3378
    Green: 0.2919, 0.5615
    Blue : 0.1455, 0.1250
    White: 0.3125, 0.3281
  Established Timings I & II:
    DMT 0x04:   640x480    59.940 Hz   4:3    31.469 kHz  25.175 MHz
    DMT 0x09:   800x600    60.317 Hz   4:3    37.879 kHz  40.000 MHz
    DMT 0x10:  1024x768    60.004 Hz   4:3    48.363 kHz  65.000 MHz
  Standard Timings:
    DMT 0x23:  1280x1024   60.020 Hz   5:4    63.981 kHz 108.000 MHz
  Detailed Timing Descriptors:
    DTD 1:  1400x1050   50.000 Hz   4:3    53.000 kHz  84.800 MHz (245 mm x 184 mm)
                 Hfront   20 Hsync 116 Hback  64 Hpol N
                 Vfront    2 Vsync   5 Vback   3 Vpol N
    Dummy Descriptor:
    Manufacturer-Specified Display Descriptor (0x0f): 00 0f 00 90 43 32 00 00 00 13 02 00 09 e5 00 00 '....C2..........'
    Alphanumeric Data String: 'HV121P01-101'
Checksum: 0x75

----------------

Failures:

Block 0, Base EDID:
  Missing Display Product Name.
  Missing Display Range Limits Descriptor.

EDID conformity: FAIL
