edid-decode (hex):

00 ff ff ff ff ff ff 00 34 a9 27 a0 53 01 00 00
16 0f 01 01 0e 6e 3e 78 88 da ff a3 58 4a a2 29
17 49 4b ff ff 80 8b c0 a9 4f 81 59 71 59 61 59
45 59 31 59 01 01 df 21 56 aa 51 26 26 30 20 b5
03 06 4c 6c 42 00 00 18 49 0d 54 dc 30 e0 31 10
1c 88 0c 03 4c 6c 42 00 00 18 00 00 00 fd 00 30
78 0f 6e ff 00 0a 20 20 20 20 20 20 00 00 00 fc
00 54 48 2d 35 30 50 2a 2a 37 0a 20 20 20 00 9d

----------------

Block 0, Base EDID:
  EDID Structure Version & Revision: 1.1
  Vendor & Product Identification:
    Manufacturer: MEI
    Model: 40999
    Serial Number: ...
    Made in: week 22 of 2005
  Basic Display Parameters & Features:
    Analog display
    Input voltage level: 0.7/0.3 V
    Blank level equals black level
    Sync: Separate Composite SyncOnGreen
    Maximum image size: 110 cm x 62 cm
    Gamma: 2.20
    DPMS levels: Standby
    RGB color display
  Color Characteristics:
    Red  : 0.6396, 0.3447
    Green: 0.2910, 0.6347
    Blue : 0.1630, 0.0927
    White: 0.2880, 0.2958
  Established Timings I & II:
    IBM     :   720x400    70.082 Hz   9:5    31.467 kHz  28.320 MHz
    IBM     :   720x400    87.850 Hz   9:5    39.444 kHz  35.500 MHz
    DMT 0x04:   640x480    59.940 Hz   4:3    31.469 kHz  25.175 MHz
    Apple   :   640x480    66.667 Hz   4:3    35.000 kHz  30.240 MHz
    DMT 0x05:   640x480    72.809 Hz   4:3    37.861 kHz  31.500 MHz
    DMT 0x06:   640x480    75.000 Hz   4:3    37.500 kHz  31.500 MHz
    DMT 0x08:   800x600    56.250 Hz   4:3    35.156 kHz  36.000 MHz
    DMT 0x09:   800x600    60.317 Hz   4:3    37.879 kHz  40.000 MHz
    DMT 0x0a:   800x600    72.188 Hz   4:3    48.077 kHz  50.000 MHz
    DMT 0x0b:   800x600    75.000 Hz   4:3    46.875 kHz  49.500 MHz
    Apple   :   832x624    74.551 Hz   4:3    49.726 kHz  57.284 MHz
    DMT 0x0f:  1024x768i   86.958 Hz   4:3    35.522 kHz  44.900 MHz
    DMT 0x10:  1024x768    60.004 Hz   4:3    48.363 kHz  65.000 MHz
    DMT 0x11:  1024x768    70.069 Hz   4:3    56.476 kHz  75.000 MHz
    DMT 0x12:  1024x768    75.029 Hz   4:3    60.023 kHz  78.750 MHz
    DMT 0x24:  1280x1024   75.025 Hz   5:4    79.976 kHz 135.000 MHz
    Apple   :  1152x870    75.062 Hz 192:145  68.681 kHz 100.000 MHz
  Standard Timings:
    Unknown :  1360x768    60.000 Hz  16:9
    DMT 0x36:  1600x1200   75.000 Hz   4:3    93.750 kHz 202.500 MHz
    DMT 0x21:  1280x960    85.002 Hz   4:3    85.938 kHz 148.500 MHz
    Unknown :  1152x864    85.000 Hz   4:3
    DMT 0x13:  1024x768    84.997 Hz   4:3    68.677 kHz  94.500 MHz
    DMT 0x0c:   800x600    85.061 Hz   4:3    53.674 kHz  56.250 MHz
    DMT 0x07:   640x480    85.008 Hz   4:3    43.269 kHz  36.000 MHz
  Detailed Timing Descriptors:
    DTD 1:  1366x806    57.331 Hz 683:403  48.387 kHz  86.710 MHz (1100 mm x 620 mm)
                 Hfront   32 Hsync 181 Hback 213 Hpol N
                 Vfront   16 Vsync  35 Vback -13 Vpol N
    DTD 2:   852x480    59.973 Hz  71:40   31.726 kHz  34.010 MHz (1100 mm x 620 mm)
                 Hfront   28 Hsync 136 Hback  56 Hpol N
                 Vfront    0 Vsync  60 Vback -11 Vpol N
                   49 0d 54 dc 30 e0 31 10 1c 88 0c 03 4c 6c 42 00 00 18 'I.T.0.1.....LlB...'
  Display Range Limits:
    Monitor ranges (GTF): 48-120 Hz V, 15-110 kHz H, max dotclock 2550 MHz
    Display Product Name: 'TH-50P**7'
Checksum: 0x9d

----------------

Warnings:

Block 0, Base EDID:
  EDID Structure Version & Revision: EDID 1.1 is deprecated, do not use.

Failures:

Block 0, Base EDID:
  Detailed Timing Descriptor #1: 0 or negative vertical back porch.
  Detailed Timing Descriptor #2: 0 values in the video timing:
    Horizontal Active/Blanking 852/220
    Horizontal Frontporch/Sync Width 28/136
    Vertical Active/Blanking 480/49
    Vertical Frontporch/Sync Width 0/60
  Detailed Timing Descriptor #2: 0 or negative vertical back porch.

EDID conformity: FAIL
