
EDID (hex):
00ffffffffffff0038705d0000000000
1f1e0104a5261578035020985d578f28
1f505400000001010101010101010101
010101010101918a8004713832403020
35007dd61000001ad039800471383240
302035007dd61000001a000000fd0030
90a3a323010a202020202020000000fe
004c4d3137334c462d314630310a00f4

Extracted contents:
header:          00 ff ff ff ff ff ff 00
serial number:   38 70 5d 00 00 00 00 00 1f 1e
version:         01 04
basic params:    a5 26 15 78 03
chroma info:     50 20 98 5d 57 8f 28 1f 50 54
established:     00 00 00
standard:        01 01 01 01 01 01 01 01 01 01 01 01 01 01 01 01
descriptor 1:    91 8a 80 04 71 38 32 40 30 20 35 00 7d d6 10 00 00 1a
descriptor 2:    d0 39 80 04 71 38 32 40 30 20 35 00 7d d6 10 00 00 1a
descriptor 3:    00 00 00 fd 00 30 90 a3 a3 23 01 0a 20 20 20 20 20 20
descriptor 4:    00 00 00 fe 00 4c 4d 31 37 33 4c 46 2d 31 46 30 31 0a
extensions:      00
checksum:        f4

EDID version: 1.4
Manufacturer: NCP Model 5d Serial Number --
Made in week 31 of 2020
Digital display
8 bits per primary color channel
DisplayPort interface
Maximum image size: 38 cm x 21 cm
Gamma: 2.20
Supported color formats: RGB 4:4:4
First detailed timing includes the native pixel format and preferred refresh rate
Display is continuous frequency
Display x,y Chromaticity:
  Red:   0.5947, 0.3642
  Green: 0.3398, 0.5585
  Blue:  0.1562, 0.1230
  White: 0.3125, 0.3281
Established timings supported:
Standard timings supported:
Detailed mode: Clock 354.730 MHz, 381 mm x 214 mm
               1920 1968 2000 2180 hborder 0
               1080 1083 1088 1130 vborder 0
               +hsync -vsync 
               VertFreq: 144 Hz, HorFreq: 162720 Hz
Detailed mode: Clock 148.000 MHz, 381 mm x 214 mm
               1920 1968 2000 2180 hborder 0
               1080 1083 1088 1130 vborder 0
               +hsync -vsync 
               VertFreq: 60 Hz, HorFreq: 67889 Hz
Monitor ranges (bare limits): 48-144Hz V, 163-163kHz H, max dotclock 350MHz
ASCII string: LM173LF-1F01
Checksum: 0xf4 (valid)
EDID block does NOT conform to EDID 1.4!
	Missing name descriptor
Warning: One or more of the timings is out of range of the Monitor Ranges:
  Vertical Freq: 60 - 144 Hz
  Horizontal Freq: 67889 - 162720 Hz
  Maximum Clock: 354.730 MHz
