
EDID (hex):
00ffffffffffff000dae551300000000
0b170104951d11780253d59858529027
21505400000001010101010101010101
010101010101da1d56e250002030442d
470025a510000018000000fe004e3133
334247452d4541410a20000000fe0043
4d4e0a202020202020202020000000fe
004e3133334247452d4541410a20006c

Extracted contents:
header:          00 ff ff ff ff ff ff 00
serial number:   0d ae 55 13 00 00 00 00 0b 17
version:         01 04
basic params:    95 1d 11 78 02
chroma info:     53 d5 98 58 52 90 27 21 50 54
established:     00 00 00
standard:        01 01 01 01 01 01 01 01 01 01 01 01 01 01 01 01
descriptor 1:    da 1d 56 e2 50 00 20 30 44 2d 47 00 25 a5 10 00 00 18
descriptor 2:    00 00 00 fe 00 4e 31 33 33 42 47 45 2d 45 41 41 0a 20
descriptor 3:    00 00 00 fe 00 43 4d 4e 0a 20 20 20 20 20 20 20 20 20
descriptor 4:    00 00 00 fe 00 4e 31 33 33 42 47 45 2d 45 41 41 0a 20
extensions:      00
checksum:        6c

EDID version: 1.4
Manufacturer: CMN Model 1355 Serial Number --
Made in week 11 of 2013
Digital display
6 bits per primary color channel
DisplayPort interface
Maximum image size: 29 cm x 17 cm
Gamma: 2.20
Supported color formats: RGB 4:4:4
First detailed timing includes the native pixel format and preferred refresh rate
Display x,y Chromaticity:
  Red:   0.5947, 0.3447
  Green: 0.3203, 0.5654
  Blue:  0.1552, 0.1298
  White: 0.3134, 0.3291
Established timings supported:
Standard timings supported:
Detailed mode: Clock 76.420 MHz, 293 mm x 165 mm
               1366 1434 1479 1592 hborder 0
                768  772  779  800 vborder 0
               -hsync -vsync 
               VertFreq: 60 Hz, HorFreq: 48002 Hz
ASCII string: N133BGE-EAA
ASCII string: CMN
ASCII string: N133BGE-EAA
Checksum: 0x6c (valid)
EDID block does NOT conform to EDID 1.4!
	Missing name descriptor
	Missing monitor ranges
