
EDID (hex):
00ffffffffffff004d10821400000000
101b0104a51a11780ede50a3544c9926
0f505400000001010101010101010101
010101010101e78b40a0b0802c703020
3a0003ad10000018e78b40a0b0801772
30203a0003ad10000018000000fe0048
5738594e804c513132335a3100000000
0002410328011200000b010a2020001c

Extracted contents:
header:          00 ff ff ff ff ff ff 00
serial number:   4d 10 82 14 00 00 00 00 10 1b
version:         01 04
basic params:    a5 1a 11 78 0e
chroma info:     de 50 a3 54 4c 99 26 0f 50 54
established:     00 00 00
standard:        01 01 01 01 01 01 01 01 01 01 01 01 01 01 01 01
descriptor 1:    e7 8b 40 a0 b0 80 2c 70 30 20 3a 00 03 ad 10 00 00 18
descriptor 2:    e7 8b 40 a0 b0 80 17 72 30 20 3a 00 03 ad 10 00 00 18
descriptor 3:    00 00 00 fe 00 48 57 38 59 4e 80 4c 51 31 32 33 5a 31
descriptor 4:    00 00 00 00 00 02 41 03 28 01 12 00 00 0b 01 0a 20 20
extensions:      00
checksum:        1c

EDID version: 1.4
Manufacturer: SHP Model 1482 Serial Number --
Made in week 16 of 2017
Digital display
8 bits per primary color channel
DisplayPort interface
Maximum image size: 26 cm x 17 cm
Gamma: 2.20
Supported color formats: RGB 4:4:4, YCrCb 4:4:4
Default (sRGB) color space is primary color space
First detailed timing includes the native pixel format and preferred refresh rate
Display x,y Chromaticity:
  Red:   0.6396, 0.3291
  Green: 0.2998, 0.5996
  Blue:  0.1494, 0.0595
  White: 0.3125, 0.3281
Established timings supported:
Standard timings supported:
Detailed mode: Clock 358.150 MHz, 259 mm x 173 mm
               2880 2928 2960 3040 hborder 0
               1920 1923 1933 1964 vborder 0
               -hsync -vsync 
               VertFreq: 59 Hz, HorFreq: 117812 Hz
Detailed mode: Clock 358.150 MHz, 259 mm x 173 mm
               2880 2928 2960 3040 hborder 0
               1920 1923 1933 2455 vborder 0
               -hsync -vsync 
               VertFreq: 47 Hz, HorFreq: 117812 Hz
ASCII string: HW8YN
Manufacturer-specified data, tag 0
Checksum: 0x1c (valid)
EDID block does NOT conform to EDID 1.4!
	sRGB is signaled, but the chromaticities do not match
	Missing name descriptor
	Missing monitor ranges
	Detailed block string not properly terminated
