
EDID (hex):
00ffffffffffff005a63833400000000
0f1c010380301b782ad7a5a2594a9624
145054afcf00d1c0b300950081808140
81c001010101023a801871382d40582c
4500dd0c1100001e000000fd00324b1e
5312000a202020202020000000fc0056
41323236312d330a20202020000000ff
005630353138313532313733320a00f9

Extracted contents:
header:          00 ff ff ff ff ff ff 00
serial number:   5a 63 83 34 00 00 00 00 0f 1c
version:         01 03
basic params:    80 30 1b 78 2a
chroma info:     d7 a5 a2 59 4a 96 24 14 50 54
established:     af cf 00
standard:        d1 c0 b3 00 95 00 81 80 81 40 81 c0 01 01 01 01
descriptor 1:    02 3a 80 18 71 38 2d 40 58 2c 45 00 dd 0c 11 00 00 1e
descriptor 2:    00 00 00 fd 00 32 4b 1e 53 12 00 0a 20 20 20 20 20 20
descriptor 3:    00 00 00 fc 00 56 41 32 32 36 31 2d 33 0a 20 20 20 20
descriptor 4:    00 00 00 ff 00 56 30 35 31 38 31 35 32 31 37 33 32 0a
extensions:      00
checksum:        f9

EDID version: 1.3
Manufacturer: VSC Model 3483 Serial Number --
Made in week 15 of 2018
Digital display
Maximum image size: 48 cm x 27 cm
Gamma: 2.20
DPMS levels: Off
RGB color display
First detailed timing is preferred timing
Display x,y Chromaticity:
  Red:   0.6357, 0.3486
  Green: 0.2900, 0.5888
  Blue:  0.1425, 0.0800
  White: 0.3134, 0.3291
Established timings supported:
  720x400@70Hz 9:5 HorFreq: 31469 Hz Clock: 28.320 MHz
  640x480@60Hz 4:3 HorFreq: 31469 Hz Clock: 25.175 MHz
  640x480@72Hz 4:3 HorFreq: 37900 Hz Clock: 31.500 MHz
  640x480@75Hz 4:3 HorFreq: 37500 Hz Clock: 31.500 MHz
  800x600@56Hz 4:3 HorFreq: 35200 Hz Clock: 36.000 MHz
  800x600@60Hz 4:3 HorFreq: 37900 Hz Clock: 40.000 MHz
  800x600@72Hz 4:3 HorFreq: 48100 Hz Clock: 50.000 MHz
  800x600@75Hz 4:3 HorFreq: 46900 Hz Clock: 49.500 MHz
  1024x768@60Hz 4:3 HorFreq: 48400 Hz Clock: 65.000 MHz
  1024x768@70Hz 4:3 HorFreq: 56500 Hz Clock: 75.000 MHz
  1024x768@75Hz 4:3 HorFreq: 60000 Hz Clock: 78.750 MHz
  1280x1024@75Hz 5:4 HorFreq: 80000 Hz Clock: 135.000 MHz
Standard timings supported:
  1920x1080@60Hz 16:9
  1680x1050@60Hz 16:10 HorFreq: 64700 Hz Clock: 119.000 MHz
  1440x900@60Hz 16:10 HorFreq: 55500 Hz Clock: 88.750 MHz
  1280x1024@60Hz 5:4 HorFreq: 64000 Hz Clock: 108.000 MHz
  1280x960@60Hz 4:3 HorFreq: 60000 Hz Clock: 108.000 MHz
  1280x720@60Hz 16:9
Detailed mode: Clock 148.500 MHz, 477 mm x 268 mm
               1920 2008 2052 2200 hborder 0
               1080 1084 1089 1125 vborder 0
               +hsync +vsync 
               VertFreq: 60 Hz, HorFreq: 67500 Hz
Monitor ranges (GTF): 50-75Hz V, 30-83kHz H, max dotclock 180MHz
Monitor name: VA2261-3
Serial number: --
Checksum: 0xf9 (valid)
