edid-decode (hex):

00 ff ff ff ff ff ff 00 15 c3 89 22 c9 b4 fb 01
0d 17 01 03 80 21 2c 78 ea 2d ab a8 53 4d 9f 26
0d 4c 50 a1 08 00 81 80 01 01 01 01 01 01 01 01
01 01 01 01 01 01 29 40 00 a0 60 00 2d 80 30 20
3a 00 44 b0 11 00 00 1a b1 53 00 a0 60 00 3b 80
30 20 3a 00 44 b0 11 00 00 1a 00 00 00 fd 00 1d
3d 1f 7f 16 00 0a 20 20 20 20 20 20 00 00 00 fc
00 52 58 33 34 30 0a 20 20 20 20 20 20 20 00 4a

----------------

Block 0, Base EDID:
  EDID Structure Version & Revision: 1.3
  Vendor & Product Identification:
    Manufacturer: ENC
    Model: 8841
    Serial Number: ...
    Made in: week 13 of 2013
  Basic Display Parameters & Features:
    Digital display
    Maximum image size: 33 cm x 44 cm
    Gamma: 2.20
    DPMS levels: Standby Suspend Off
    RGB color display
    First detailed timing is the preferred timing
  Color Characteristics:
    Red  : 0.6562, 0.3261
    Green: 0.3037, 0.6220
    Blue : 0.1503, 0.0527
    White: 0.2988, 0.3154
  Established Timings I & II:
    IBM     :   720x400    70.081663 Hz   9:5     31.467 kHz     28.320000 MHz
    DMT 0x04:   640x480    59.940476 Hz   4:3     31.469 kHz     25.175000 MHz
    DMT 0x09:   800x600    60.316541 Hz   4:3     37.879 kHz     40.000000 MHz
    DMT 0x10:  1024x768    60.003840 Hz   4:3     48.363 kHz     65.000000 MHz
  Standard Timings:
    DMT 0x23:  1280x1024   60.019740 Hz   5:4     63.981 kHz    108.000000 MHz
  Detailed Timing Descriptors:
    DTD 1:  1536x2048   46.271151 Hz   3:4     96.846 kHz    164.250000 MHz (324 mm x 432 mm)
                 Hfront   48 Hsync  32 Hback   80 Hpol P
                 Vfront    3 Vsync  10 Vback   32 Vpol N
    DTD 2:  1536x2048   59.955696 Hz   3:4    126.327 kHz    214.250000 MHz (324 mm x 432 mm)
                 Hfront   48 Hsync  32 Hback   80 Hpol P
                 Vfront    3 Vsync  10 Vback   46 Vpol N
    Display Range Limits:
      Monitor ranges (GTF): 29-61 Hz V, 31-127 kHz H, max dotclock 220 MHz
    Display Product Name: 'RX340'
Checksum: 0x4a

----------------

Failures:

EDID:
  Base EDID: Some timings are out of range of the Monitor Ranges:
    Vertical Freq: 46.271 - 70.082 Hz (Monitor: 29.000 - 61.000 Hz)

EDID conformity: FAIL
