
EDID (hex):
00ffffffffffff00320c011d00000000
00110103801d12780a2f309758538b29
25505400000001010101010101010101
010101010101121b0088502011303020
46001eb3100000180000000100061020
00000000000000000a20000000fe004c
475068696c6970734c43440a000000fe
004c503133335758312d544c4e31003c

Extracted contents:
header:          00 ff ff ff ff ff ff 00
serial number:   32 0c 01 1d 00 00 00 00 00 11
version:         01 03
basic params:    80 1d 12 78 0a
chroma info:     2f 30 97 58 53 8b 29 25 50 54
established:     00 00 00
standard:        01 01 01 01 01 01 01 01 01 01 01 01 01 01 01 01
descriptor 1:    12 1b 00 88 50 20 11 30 30 20 46 00 1e b3 10 00 00 18
descriptor 2:    00 00 00 01 00 06 10 20 00 00 00 00 00 00 00 00 0a 20
descriptor 3:    00 00 00 fe 00 4c 47 50 68 69 6c 69 70 73 4c 43 44 0a
descriptor 4:    00 00 00 fe 00 4c 50 31 33 33 57 58 31 2d 54 4c 4e 31
extensions:      00
checksum:        3c

EDID version: 1.3
Manufacturer: LPL Model 1d01 Serial Number --
Made in year 2007
Digital display
Maximum image size: 29 cm x 18 cm
Gamma: 2.20
RGB color display
First detailed timing is preferred timing
Display x,y Chromaticity:
  Red:   0.5898, 0.3457
  Green: 0.3271, 0.5458
  Blue:  0.1601, 0.1474
  White: 0.3125, 0.3281
Established timings supported:
Standard timings supported:
Detailed mode: Clock 69.300 MHz, 286 mm x 179 mm
               1280 1328 1360 1416 hborder 0
                800  804  810  817 vborder 0
               -hsync -vsync 
               VertFreq: 59 Hz, HorFreq: 48940 Hz
Manufacturer-specified data, tag 1
ASCII string: LGPhilipsLCD
ASCII string: LP133WX1-TLN1
Checksum: 0x3c (valid)
EDID block does NOT conform to EDID 1.3!
	Missing name descriptor
	Missing monitor ranges
