
EDID (hex):
00ffffffffffff000c33358001010101
030f01030e0000782aba1fa3575a8e24
164c543fff80814f6159714f81408159
81808199a94064190040410026301888
3600000000000018000000fd0032780f
6411000a202020202020000000fc0058
4a2d3436302f3536300a2020000000fe
000a20202020202020202020202000d4

Extracted contents:
header:          00 ff ff ff ff ff ff 00
serial number:   0c 33 35 80 01 01 01 01 03 0f
version:         01 03
basic params:    0e 00 00 78 2a
chroma info:     ba 1f a3 57 5a 8e 24 16 4c 54
established:     3f ff 80
standard:        81 4f 61 59 71 4f 81 40 81 59 81 80 81 99 a9 40
descriptor 1:    64 19 00 40 41 00 26 30 18 88 36 00 00 00 00 00 00 18
descriptor 2:    00 00 00 fd 00 32 78 0f 64 11 00 0a 20 20 20 20 20 20
descriptor 3:    00 00 00 fc 00 58 4a 2d 34 36 30 2f 35 36 30 0a 20 20
descriptor 4:    00 00 00 fe 00 0a 20 20 20 20 20 20 20 20 20 20 20 20
extensions:      00
checksum:        d4

EDID version: 1.3
Manufacturer: CAS Model 8035 Serial Number --
Analog display, Input voltage level: 0.7/0.3 V
Sync: Separate Composite SyncOnGreen 
Image size is variable
Gamma: 2.20
DPMS levels: Off
RGB color display
First detailed timing is preferred timing
Display x,y Chromaticity:
  Red:   0.6386, 0.3427
  Green: 0.3535, 0.5566
  Blue:  0.1406, 0.0869
  White: 0.2998, 0.3310
Established timings supported:
  640x480@60Hz 4:3 HorFreq: 31469 Hz Clock: 25.175 MHz
  640x480@67Hz 4:3 HorFreq: 35000 Hz Clock: 30.240 MHz
  640x480@72Hz 4:3 HorFreq: 37900 Hz Clock: 31.500 MHz
  640x480@75Hz 4:3 HorFreq: 37500 Hz Clock: 31.500 MHz
  800x600@56Hz 4:3 HorFreq: 35200 Hz Clock: 36.000 MHz
  800x600@60Hz 4:3 HorFreq: 37900 Hz Clock: 40.000 MHz
  800x600@72Hz 4:3 HorFreq: 48100 Hz Clock: 50.000 MHz
  800x600@75Hz 4:3 HorFreq: 46900 Hz Clock: 49.500 MHz
  832x624@75Hz 4:3 HorFreq: 49726 Hz Clock: 57.284 MHz
  1280x768i@87Hz 5:3 HorFreq: 35522 Hz Clock: 44.900 MHz
  1024x768@60Hz 4:3 HorFreq: 48400 Hz Clock: 65.000 MHz
  1024x768@70Hz 4:3 HorFreq: 56500 Hz Clock: 75.000 MHz
  1024x768@75Hz 4:3 HorFreq: 60000 Hz Clock: 78.750 MHz
  1280x1024@75Hz 5:4 HorFreq: 80000 Hz Clock: 135.000 MHz
  1152x870@75Hz 192:145 HorFreq: 67500 Hz Clock: 108.000 MHz
Standard timings supported:
  1280x960@75Hz 4:3
  1024x768@85Hz 4:3 HorFreq: 68700 Hz Clock: 94.500 MHz
  1152x864@75Hz 4:3 HorFreq: 67500 Hz Clock: 108.000 MHz
  1280x960@60Hz 4:3 HorFreq: 60000 Hz Clock: 108.000 MHz
  1280x960@85Hz 4:3 HorFreq: 85900 Hz Clock: 148.500 MHz
  1280x1024@60Hz 5:4 HorFreq: 64000 Hz Clock: 108.000 MHz
  1280x1024@85Hz 5:4 HorFreq: 91100 Hz Clock: 157.500 MHz
  1600x1200@60Hz 4:3 HorFreq: 75000 Hz Clock: 162.000 MHz
Detailed mode: Clock 65.000 MHz, 0 mm x 0 mm
               1024 1048 1184 1344 hborder 0
                768  771  777  806 vborder 0
               -hsync -vsync 
               VertFreq: 60 Hz, HorFreq: 48363 Hz
Monitor ranges (GTF): 50-120Hz V, 15-100kHz H, max dotclock 170MHz
Monitor name: XJ-460/560
ASCII string: 
Checksum: 0xd4 (valid)
EDID block does not conform at all!
	Bad year of manufacture
