
EDID (hex):
00ffffffffffff00593a111001010101
00190103807944782a7d1da3554e9a27
0f474a25ce00d1c00101010101010101
01010101010104740030f2705a80b058
8a00b9a84200001e023a801871382d40
582c4500b9a84200001e000000fc0044
3535752d44310a2020202020000000fd
00194c0f501e000a20202020202001bf
020337714d0106070203059004205de2
5f643257060000000000000000000009
0707150750830100006d030c00100038
3c200060010304023a801871382d4058
2c4500b9a84200001e011d007251d01e
206e285500b9a84200001e0000000000
00000000000000000000000000000000
0000000000000000000000000000000b

Extracted contents:
header:          00 ff ff ff ff ff ff 00
serial number:   59 3a 11 10 01 01 01 01 00 19
version:         01 03
basic params:    80 79 44 78 2a
chroma info:     7d 1d a3 55 4e 9a 27 0f 47 4a
established:     25 ce 00
standard:        d1 c0 01 01 01 01 01 01 01 01 01 01 01 01 01 01
descriptor 1:    04 74 00 30 f2 70 5a 80 b0 58 8a 00 b9 a8 42 00 00 1e
descriptor 2:    02 3a 80 18 71 38 2d 40 58 2c 45 00 b9 a8 42 00 00 1e
descriptor 3:    00 00 00 fc 00 44 35 35 75 2d 44 31 0a 20 20 20 20 20
descriptor 4:    00 00 00 fd 00 19 4c 0f 50 1e 00 0a 20 20 20 20 20 20
extensions:      01
checksum:        bf

EDID version: 1.3
Manufacturer: VIZ Model 1011 Serial Number --
Made in year 2015
Digital display
Maximum image size: 121 cm x 68 cm
Gamma: 2.20
DPMS levels: Off
RGB color display
First detailed timing is preferred timing
Display x,y Chromaticity:
  Red:   0.6376, 0.3349
  Green: 0.3076, 0.6025
  Blue:  0.1523, 0.0595
  White: 0.2802, 0.2900
Established timings supported:
  640x480@60Hz 4:3 HorFreq: 31469 Hz Clock: 25.175 MHz
  640x480@75Hz 4:3 HorFreq: 37500 Hz Clock: 31.500 MHz
  800x600@60Hz 4:3 HorFreq: 37900 Hz Clock: 40.000 MHz
  800x600@72Hz 4:3 HorFreq: 48100 Hz Clock: 50.000 MHz
  800x600@75Hz 4:3 HorFreq: 46900 Hz Clock: 49.500 MHz
  1024x768@60Hz 4:3 HorFreq: 48400 Hz Clock: 65.000 MHz
  1024x768@70Hz 4:3 HorFreq: 56500 Hz Clock: 75.000 MHz
  1024x768@75Hz 4:3 HorFreq: 60000 Hz Clock: 78.750 MHz
Standard timings supported:
  1920x1080@60Hz 16:9
Detailed mode: Clock 297.000 MHz, 1209 mm x 680 mm
               3840 4016 4104 4400 hborder 0
               2160 2168 2178 2250 vborder 0
               +hsync +vsync 
               VertFreq: 30 Hz, HorFreq: 67500 Hz
Detailed mode: Clock 148.500 MHz, 1209 mm x 680 mm
               1920 2008 2052 2200 hborder 0
               1080 1084 1089 1125 vborder 0
               +hsync +vsync 
               VertFreq: 60 Hz, HorFreq: 67500 Hz
Monitor name: D55u-D1
Monitor ranges (GTF): 25-76Hz V, 15-80kHz H, max dotclock 300MHz
Has 1 extension blocks
Checksum: 0xbf (valid)

CTA extension block
Extension version: 3
51 bytes of CTA data
  Video data block
    VIC   1 640x480@60Hz 4:3  HorFreq: 31469 Hz Clock: 25.175 MHz
    VIC   6 1440x480i@60Hz 4:3  HorFreq: 15734 Hz Clock: 27.000 MHz
    VIC   7 1440x480i@60Hz 16:9  HorFreq: 15734 Hz Clock: 27.000 MHz
    VIC   2 720x480@60Hz 4:3  HorFreq: 31469 Hz Clock: 27.000 MHz
    VIC   3 720x480@60Hz 16:9  HorFreq: 31469 Hz Clock: 27.000 MHz
    VIC   5 1920x1080i@60Hz 16:9  HorFreq: 33750 Hz Clock: 74.250 MHz
    VIC  16 1920x1080@60Hz 16:9 (native) HorFreq: 67500 Hz Clock: 148.500 MHz
    VIC   4 1280x720@60Hz 16:9  HorFreq: 45000 Hz Clock: 74.250 MHz
    VIC  32 1920x1080@24Hz 16:9  HorFreq: 27000 Hz Clock: 74.250 MHz
    VIC  93 3840x2160@24Hz 16:9  HorFreq: 54000 Hz Clock: 297.000 MHz
    VIC 226 Unknown mode  HorFreq: 0 Hz Clock: 0.000 MHz
    VIC  95 3840x2160@30Hz 16:9  HorFreq: 67500 Hz Clock: 297.000 MHz
    VIC 100 4096x2160@30Hz 256:135  HorFreq: 67500 Hz Clock: 297.000 MHz
  Audio data block
    Dolby Digital+, max channels 8
      Supported sample rates (kHz): 48 44.1
    RESERVED, max channels 1
      Supported sample rates (kHz):
      Maximum bit rate: 0 kHz
    RESERVED, max channels 1
      Supported sample rates (kHz):
      Maximum bit rate: 0 kHz
    RESERVED, max channels 1
      Supported sample rates (kHz):
      Maximum bit rate: 0 kHz
    Linear PCM, max channels 2
      Supported sample rates (kHz): 48 44.1 32
      Supported sample sizes (bits): 24 20 16
    AC-3, max channels 6
      Supported sample rates (kHz): 48 44.1 32
      Maximum bit rate: 640 kHz
  Speaker allocation data block
    Speaker map:
      FL/FR - Front Left/Right
  Vendor-specific data block, OUI 000c03 (HDMI)
    Source physical address 1.0.0.0
    DC_36bit
    DC_30bit
    DC_Y444
    Maximum TMDS clock: 300MHz
    Extended HDMI video details:
      HDMI VIC 1 3840x2160@30Hz 16:9 HorFreq: 67500 Hz Clock: 297.000 MHz
      HDMI VIC 3 3840x2160@24Hz 16:9 HorFreq: 54000 Hz Clock: 297.000 MHz
      HDMI VIC 4 4096x2160@24Hz 256:135 HorFreq: 54000 Hz Clock: 297.000 MHz
Basic audio support
Supports YCbCr 4:4:4
Supports YCbCr 4:2:2
1 native detailed modes
Detailed mode: Clock 148.500 MHz, 1209 mm x 680 mm
               1920 2008 2052 2200 hborder 0
               1080 1084 1089 1125 vborder 0
               +hsync +vsync 
               VertFreq: 60 Hz, HorFreq: 67500 Hz
Detailed mode: Clock 74.250 MHz, 1209 mm x 680 mm
               1280 1390 1430 1650 hborder 0
                720  725  730  750 vborder 0
               +hsync +vsync 
               VertFreq: 60 Hz, HorFreq: 45000 Hz
Checksum: 0xb (valid)

One or more of the timings is out of range of the Monitor Ranges:
  Vertical Freq: 24 - 75 Hz
  Horizontal Freq: 15734 - 67500 Hz
  Maximum Clock: 297.000 MHz
Warning: HDMI VIC Codes must have their CTA-861 VIC equivalents in the VSB
