
EDID (hex):
00ffffffffffff0009e55f0800000000
011d0104a5220a7802de50a3544c9926
0f505400000001010101010101010101
010101010101a86b00a0f04c30403020
350058631000001a225600a0f04c3040
3020350058631000001a2e1d80a07026
30203020350058631000001a5c1780a0
702630203020350058631000001a00bb

Extracted contents:
header:          00 ff ff ff ff ff ff 00
serial number:   09 e5 5f 08 00 00 00 00 01 1d
version:         01 04
basic params:    a5 22 0a 78 02
chroma info:     de 50 a3 54 4c 99 26 0f 50 54
established:     00 00 00
standard:        01 01 01 01 01 01 01 01 01 01 01 01 01 01 01 01
descriptor 1:    a8 6b 00 a0 f0 4c 30 40 30 20 35 00 58 63 10 00 00 1a
descriptor 2:    22 56 00 a0 f0 4c 30 40 30 20 35 00 58 63 10 00 00 1a
descriptor 3:    2e 1d 80 a0 70 26 30 20 30 20 35 00 58 63 10 00 00 1a
descriptor 4:    5c 17 80 a0 70 26 30 20 30 20 35 00 58 63 10 00 00 1a
extensions:      00
checksum:        bb

EDID version: 1.4
Manufacturer: BOE Model 85f Serial Number --
Made in week 1 of 2019
Digital display
8 bits per primary color channel
DisplayPort interface
Maximum image size: 34 cm x 10 cm
Gamma: 2.20
Supported color formats: RGB 4:4:4
First detailed timing includes the native pixel format and preferred refresh rate
Display x,y Chromaticity:
  Red:   0.6396, 0.3291
  Green: 0.2998, 0.5996
  Blue:  0.1494, 0.0595
  White: 0.3125, 0.3281
Established timings supported:
Standard timings supported:
Detailed mode: Clock 275.600 MHz, 344 mm x 99 mm
               3840 3888 3920 4000 hborder 0
               1100 1103 1108 1148 vborder 0
               +hsync -vsync 
               VertFreq: 60 Hz, HorFreq: 68900 Hz
Detailed mode: Clock 220.500 MHz, 344 mm x 99 mm
               3840 3888 3920 4000 hborder 0
               1100 1103 1108 1148 vborder 0
               +hsync -vsync 
               VertFreq: 48 Hz, HorFreq: 55125 Hz
Detailed mode: Clock 74.700 MHz, 344 mm x 99 mm
               1920 1968 2000 2080 hborder 0
                550  553  558  598 vborder 0
               +hsync -vsync 
               VertFreq: 60 Hz, HorFreq: 35913 Hz
Detailed mode: Clock 59.800 MHz, 344 mm x 99 mm
               1920 1968 2000 2080 hborder 0
                550  553  558  598 vborder 0
               +hsync -vsync 
               VertFreq: 48 Hz, HorFreq: 28750 Hz
Checksum: 0xbb (valid)
EDID block does NOT conform to EDID 1.4!
	Missing name descriptor
	Missing monitor ranges


