
EDID (hex):
00ffffffffffff004a8b722400000000
03140103802f1a78eab4b0a555489a26
125054210e00a9c095c081c0d1c00101
010101010101302a40c8608464301850
1300baf91000001e000000ff00303030
3030310a0a0a0a0a0a0a000000fd0032
4b1e550f000a202020202020000000fc
0043504c2041494f2050430a2020003f

Extracted contents:
header:          00 ff ff ff ff ff ff 00
serial number:   4a 8b 72 24 00 00 00 00 03 14
version:         01 03
basic params:    80 2f 1a 78 ea
chroma info:     b4 b0 a5 55 48 9a 26 12 50 54
established:     21 0e 00
standard:        a9 c0 95 c0 81 c0 d1 c0 01 01 01 01 01 01 01 01
descriptor 1:    30 2a 40 c8 60 84 64 30 18 50 13 00 ba f9 10 00 00 1e
descriptor 2:    00 00 00 ff 00 30 30 30 30 30 31 0a 0a 0a 0a 0a 0a 0a
descriptor 3:    00 00 00 fd 00 32 4b 1e 55 0f 00 0a 20 20 20 20 20 20
descriptor 4:    00 00 00 fc 00 43 50 4c 20 41 49 4f 20 50 43 0a 20 20
extensions:      00
checksum:        3f

EDID version: 1.3
Manufacturer: RTK Model 2472 Serial Number --
Made in week 3 of 2010
Digital display
Maximum image size: 47 cm x 26 cm
Gamma: 2.20
DPMS levels: Standby Suspend Off
RGB color display
First detailed timing is preferred timing
Display x,y Chromaticity:
  Red:   0.6464, 0.3349
  Green: 0.2822, 0.6015
  Blue:  0.1503, 0.0732
  White: 0.3125, 0.3281
Established timings supported:
  640x480@60Hz 4:3 HorFreq: 31469 Hz Clock: 25.175 MHz
  800x600@60Hz 4:3 HorFreq: 37900 Hz Clock: 40.000 MHz
  1024x768@60Hz 4:3 HorFreq: 48400 Hz Clock: 65.000 MHz
  1024x768@70Hz 4:3 HorFreq: 56500 Hz Clock: 75.000 MHz
  1024x768@75Hz 4:3 HorFreq: 60000 Hz Clock: 78.750 MHz
Standard timings supported:
  1600x900@60Hz 16:9
  1440x810@60Hz 16:9
  1280x720@60Hz 16:9
  1920x1080@60Hz 16:9
Detailed mode: Clock 108.000 MHz, 442 mm x 249 mm
               1600 1624 1704 1800 hborder 0
                900  901  904 1000 vborder 0
               +hsync +vsync 
               VertFreq: 60 Hz, HorFreq: 60000 Hz
Serial number: --
Monitor ranges (GTF): 50-75Hz V, 30-85kHz H, max dotclock 150MHz
Monitor name: CPL AIO PC
Checksum: 0x3f (valid)
EDID block does NOT conform to EDID 1.3!
	Detailed block string not properly terminated
