
EDID (hex):
00ffffffffffff0040a7888801000000
0816010380341d78ee2445a45650a128
975054210800814081809500b3000101
010101010101023a801871382d40582c
450009252100001e000000fd00323c18
5e10000a202020202020000000fc0069
505053422d5344515f445649000000ff
00300a2020202020202020202020005e

edid-decode (hex):

00 ff ff ff ff ff ff 00 40 a7 88 88 01 00 00 00
08 16 01 03 80 34 1d 78 ee 24 45 a4 56 50 a1 28
97 50 54 21 08 00 81 40 81 80 95 00 b3 00 01 01
01 01 01 01 01 01 02 3a 80 18 71 38 2d 40 58 2c
45 00 09 25 21 00 00 1e 00 00 00 fd 00 32 3c 18
5e 10 00 0a 20 20 20 20 20 20 00 00 00 fc 00 69
50 50 53 42 2d 53 44 51 5f 44 56 49 00 00 00 ff
00 30 0a 20 20 20 20 20 20 20 20 20 20 20 00 5e

----------------

Block 0, Base EDID:
  EDID Structure Version & Revision: 1.3
  Vendor & Product Identification:
    Manufacturer: PEG
    Model: 34952
    Serial Number: 1
    Made in: week 8 of 2012
  Basic Display Parameters & Features:
    Digital display
    Maximum image size: 52 cm x 29 cm
    Gamma: 2.20
    DPMS levels: Standby Suspend Off
    RGB color display
    Default (sRGB) color space is primary color space
    First detailed timing is the preferred timing
  Color Characteristics:
    Red  : 0.6406, 0.3378
    Green: 0.3134, 0.6289
    Blue : 0.1572, 0.5898
    White: 0.3134, 0.3291
  Established Timings I & II:
    DMT 0x04:   640x480    59.940476 Hz   4:3     31.469 kHz     25.175000 MHz
    DMT 0x09:   800x600    60.316541 Hz   4:3     37.879 kHz     40.000000 MHz
    DMT 0x10:  1024x768    60.003840 Hz   4:3     48.363 kHz     65.000000 MHz
  Standard Timings:
    DMT 0x20:  1280x960    60.000000 Hz   4:3     60.000 kHz    108.000000 MHz
    DMT 0x23:  1280x1024   60.019740 Hz   5:4     63.981 kHz    108.000000 MHz
    DMT 0x2f:  1440x900    59.887445 Hz  16:10    55.935 kHz    106.500000 MHz
    DMT 0x3a:  1680x1050   59.954250 Hz  16:10    65.290 kHz    146.250000 MHz
  Detailed Timing Descriptors:
    DTD 1:  1920x1080   60.000000 Hz  16:9     67.500 kHz    148.500000 MHz (521 mm x 293 mm)
                 Hfront   88 Hsync  44 Hback  148 Hpol P
                 Vfront    4 Vsync   5 Vback   36 Vpol P
    Display Range Limits:
      Monitor ranges (GTF): 50-60 Hz V, 24-94 kHz H, max dotclock 160 MHz
    Display Product Name: 'iPPSB-SDQ_DVI'
    Display Product Serial Number: '0'
Checksum: 0x5e
