
EDID (hex):
00ffffffffffff0030e4900600000000
421e0104a52213780300080000000000
004f5600000001010101010101010101
010101010101bc6100a0a0a05d503020
350058c21000001a000000fd0c3cf071
7165010a202020202020000000fe0048
4d483259813135365148470a00000000
0002813fa8000300000f010a202001f6
7013790000030114ea860184ff099f00
2f801f009f055c000200040081030968
1a000001013cf0000000000000000000
00000000000000000000000000000000
00000000000000000000000000000000
00000000000000000000000000000000
00000000000000000000000000000000
0000000000000000000000000000af90

Extracted contents:
header:          00 ff ff ff ff ff ff 00
serial number:   30 e4 90 06 00 00 00 00 42 1e
version:         01 04
basic params:    a5 22 13 78 03
chroma info:     00 08 00 00 00 00 00 00 4f 56
established:     00 00 00
standard:        01 01 01 01 01 01 01 01 01 01 01 01 01 01 01 01
descriptor 1:    bc 61 00 a0 a0 a0 5d 50 30 20 35 00 58 c2 10 00 00 1a
descriptor 2:    00 00 00 fd 0c 3c f0 71 71 65 01 0a 20 20 20 20 20 20
descriptor 3:    00 00 00 fe 00 48 4d 48 32 59 81 31 35 36 51 48 47 0a
descriptor 4:    00 00 00 00 00 02 81 3f a8 00 03 00 00 0f 01 0a 20 20
extensions:      01
checksum:        f6

EDID version: 1.4
Manufacturer: LGD Model 690 Serial Number --
Digital display
8 bits per primary color channel
DisplayPort interface
Maximum image size: 34 cm x 19 cm
Gamma: 2.20
Supported color formats: RGB 4:4:4
First detailed timing includes the native pixel format and preferred refresh rate
Display is continuous frequency
Display x,y Chromaticity:
  Red:   0.0000, 0.0000
  Green: 0.0000, 0.0000
  Blue:  0.0000, 0.0000
  White: 0.3105, 0.3359
Established timings supported:
Standard timings supported:
Detailed mode: Clock 250.200 MHz, 344 mm x 194 mm
               2560 2608 2640 2720 hborder 0
               1440 1443 1448 1533 vborder 0
               +hsync -vsync 
               VertFreq: 60 Hz, HorFreq: 91985 Hz
Monitor ranges (bare limits): 60-240Hz V, 113-368kHz H, max dotclock 1010MHz
ASCII string: HMH2Y
Manufacturer-specified data, tag 0
Has 1 extension blocks
Checksum: 0xf6 (valid)

DisplayID extension block
Extension version: 19
Length 121, version 19, extension count 0
Checksum: 0xaf (valid)
Type 1 detailed timing: aspect: 16:9, Preferred  
Detailed mode: Clock 1000.740 MHz, 0 mm x 0 mm
               2559 2606 2637 2718
               1439 1441 1445 1531
               +hsync -vsync
Unknown displayid data block 0x81

EDID block does NOT conform to EDID 1.4!
	Missing name descriptor
	Detailed block string not properly terminated
Warning: One or more of the timings is out of range of the Monitor Ranges:
  Vertical Freq: 60 - 60 Hz
  Horizontal Freq: 91985 - 91985 Hz
  Maximum Clock: 250.200 MHz
EDID block does not conform at all!
	Has 167772160 nonconformant extension block(s)
	Bad year of manufacture
	Bad week of manufacture
