
EDID (hex):
00ffffffffffff0008ab484401000000
0116010380a05a782aec6ba056479c25
10484a27ce0001010101814081800101
8b000101a940023a80d072382d40102c
4580a05a0000001e023a801871382d40
582c4500a05a0000001e000000fd0031
4c0f5108000a202020202020000000fc
00424b2057555847410a202020200172
02031f724f1405130412031102160715
06019f902309070766030c002000801b
2150a051001e30d0886504a05a000000
1c0e1f008051001e30c0804704a05a00
00001ca028808041602930c0782408a0
5a0000001c8f2f78d0511a2740e89004
08a0900000001c9a29a0d051842230e8
989604a0900000001c000000000000d9

Extracted contents:
header:          00 ff ff ff ff ff ff 00
serial number:   08 ab 48 44 01 00 00 00 01 16
version:         01 03
basic params:    80 a0 5a 78 2a
chroma info:     ec 6b a0 56 47 9c 25 10 48 4a
established:     27 ce 00
standard:        01 01 01 01 81 40 81 80 01 01 8b 00 01 01 a9 40
descriptor 1:    02 3a 80 d0 72 38 2d 40 10 2c 45 80 a0 5a 00 00 00 1e
descriptor 2:    02 3a 80 18 71 38 2d 40 58 2c 45 00 a0 5a 00 00 00 1e
descriptor 3:    00 00 00 fd 00 31 4c 0f 51 08 00 0a 20 20 20 20 20 20
descriptor 4:    00 00 00 fc 00 42 4b 20 57 55 58 47 41 0a 20 20 20 20
extensions:      01
checksum:        72

EDID version: 1.3
Manufacturer: BEK Model 4448 Serial Number --
Made in week 1 of 2012
Digital display
Maximum image size: 160 cm x 90 cm
Gamma: 2.20
DPMS levels: Off
RGB color display
First detailed timing is preferred timing
Display x,y Chromaticity:
  Red:   0.6279, 0.3378
  Green: 0.2802, 0.6093
  Blue:  0.1455, 0.0644
  White: 0.2832, 0.2919
Established timings supported:
  640x480@60Hz 4:3 HorFreq: 31469 Hz Clock: 25.175 MHz
  640x480@75Hz 4:3 HorFreq: 37500 Hz Clock: 31.500 MHz
  800x600@56Hz 4:3 HorFreq: 35200 Hz Clock: 36.000 MHz
  800x600@60Hz 4:3 HorFreq: 37900 Hz Clock: 40.000 MHz
  800x600@72Hz 4:3 HorFreq: 48100 Hz Clock: 50.000 MHz
  800x600@75Hz 4:3 HorFreq: 46900 Hz Clock: 49.500 MHz
  1024x768@60Hz 4:3 HorFreq: 48400 Hz Clock: 65.000 MHz
  1024x768@70Hz 4:3 HorFreq: 56500 Hz Clock: 75.000 MHz
  1024x768@75Hz 4:3 HorFreq: 60000 Hz Clock: 78.750 MHz
Standard timings supported:
  1280x960@60Hz 4:3 HorFreq: 60000 Hz Clock: 108.000 MHz
  1280x1024@60Hz 5:4 HorFreq: 64000 Hz Clock: 108.000 MHz
  1360x850@60Hz 16:10
  1600x1200@60Hz 4:3 HorFreq: 75000 Hz Clock: 162.000 MHz
Detailed mode: Clock 148.500 MHz, 160 mm x 90 mm
               1920 2448 2492 2640 hborder 0
               1080 1084 1089 1125 vborder 0
               +hsync +vsync 
               VertFreq: 50 Hz, HorFreq: 56250 Hz
Detailed mode: Clock 148.500 MHz, 160 mm x 90 mm
               1920 2008 2052 2200 hborder 0
               1080 1084 1089 1125 vborder 0
               +hsync +vsync 
               VertFreq: 60 Hz, HorFreq: 67500 Hz
Monitor ranges (GTF): 49-76Hz V, 15-81kHz H, max dotclock 80MHz
Monitor name: BK WUXGA
Has 1 extension blocks
Checksum: 0x72 (valid)

CTA extension block
Extension version: 3
27 bytes of CTA data
  Video data block
    VIC  20 1920x1080i@50Hz 16:9  HorFreq: 28125 Hz Clock: 74.250 MHz
    VIC   5 1920x1080i@60Hz 16:9  HorFreq: 33750 Hz Clock: 74.250 MHz
    VIC  19 1280x720@50Hz 16:9  HorFreq: 37500 Hz Clock: 74.250 MHz
    VIC   4 1280x720@60Hz 16:9  HorFreq: 45000 Hz Clock: 74.250 MHz
    VIC  18 720x576@50Hz 16:9  HorFreq: 31250 Hz Clock: 27.000 MHz
    VIC   3 720x480@60Hz 16:9  HorFreq: 31469 Hz Clock: 27.000 MHz
    VIC  17 720x576@50Hz 4:3  HorFreq: 31250 Hz Clock: 27.000 MHz
    VIC   2 720x480@60Hz 4:3  HorFreq: 31469 Hz Clock: 27.000 MHz
    VIC  22 1440x576i@50Hz 16:9  HorFreq: 15625 Hz Clock: 27.000 MHz
    VIC   7 1440x480i@60Hz 16:9  HorFreq: 15734 Hz Clock: 27.000 MHz
    VIC  21 1440x576i@50Hz 4:3  HorFreq: 15625 Hz Clock: 27.000 MHz
    VIC   6 1440x480i@60Hz 4:3  HorFreq: 15734 Hz Clock: 27.000 MHz
    VIC   1 640x480@60Hz 4:3  HorFreq: 31469 Hz Clock: 25.175 MHz
    VIC  31 1920x1080@50Hz 16:9 (native) HorFreq: 56250 Hz Clock: 148.500 MHz
    VIC  16 1920x1080@60Hz 16:9 (native) HorFreq: 67500 Hz Clock: 148.500 MHz
  Audio data block
    Linear PCM, max channels 2
      Supported sample rates (kHz): 48 44.1 32
      Supported sample sizes (bits): 24 20 16
  Vendor-specific data block, OUI 000c03 (HDMI)
    Source physical address 2.0.0.0
    Supports_AI
Basic audio support
Supports YCbCr 4:4:4
Supports YCbCr 4:2:2
2 native detailed modes
Detailed mode: Clock 84.750 MHz, 160 mm x 90 mm
               1360 1568 1704 1776 hborder 0
                768  790  795  798 vborder 0
               -hsync +vsync 
               VertFreq: 59 Hz, HorFreq: 47719 Hz
Detailed mode: Clock 79.500 MHz, 160 mm x 90 mm
               1280 1472 1600 1664 hborder 0
                768  788  795  798 vborder 0
               -hsync +vsync 
               VertFreq: 59 Hz, HorFreq: 47776 Hz
Detailed mode: Clock 104.000 MHz, 160 mm x 90 mm
               1152 1344 1464 1536 hborder 0
                864  898  902  905 vborder 0
               -hsync +vsync 
               VertFreq: 74 Hz, HorFreq: 67708 Hz
Detailed mode: Clock 121.750 MHz, 160 mm x 144 mm
               1400 1632 1776 1864 hborder 0
               1050 1082 1086 1089 vborder 0
               -hsync +vsync 
               VertFreq: 59 Hz, HorFreq: 65316 Hz
Detailed mode: Clock 106.500 MHz, 160 mm x 144 mm
               1440 1672 1824 1904 hborder 0
                900  925  931  934 vborder 0
               -hsync +vsync 
               VertFreq: 59 Hz, HorFreq: 55934 Hz
Checksum: 0xd9 (valid)

One or more of the timings is out of range of the Monitor Ranges:
  Vertical Freq: 50 - 75 Hz
  Horizontal Freq: 15625 - 75000 Hz
  Maximum Clock: 162.000 MHz
