edid-decode (hex):

00 ff ff ff ff ff ff 00 4c 2d cb 75 32 42 55 30
ff ff 01 04 b5 3c 22 78 3b 89 d1 b2 4c 3c b8 24
0e 50 54 21 08 00 81 c0 81 00 81 80 95 00 a9 c0
b3 00 01 01 01 01 14 d9 00 40 a1 a0 a8 50 80 20
3a 00 56 50 21 00 00 1a 00 00 00 fd 0e 30 69 ff
ff a7 01 0a 20 20 20 20 20 20 00 00 00 fc 00 4f
64 79 73 73 65 79 20 47 36 30 53 44 00 00 00 ff
00 48 4e 41 58 38 30 32 39 37 38 0a 20 20 02 87

02 03 37 f1 44 90 3f 04 03 23 09 07 07 83 01 00
00 e3 05 c0 00 74 1a 00 00 03 07 30 f0 00 a0 60
01 4b 02 68 01 00 00 00 00 00 e6 06 05 01 60 4b
00 e5 01 8b 84 90 39 8a 6c 00 40 a1 a0 a8 50 80
20 3a 00 56 50 21 00 00 1a 00 00 00 00 00 00 00
00 00 00 00 00 00 00 00 00 00 00 00 00 00 00 00
00 00 00 00 00 00 00 00 00 00 00 00 00 00 00 00
00 00 00 00 00 00 00 00 00 00 00 00 00 00 00 5f

00 ff ff ff ff ff ff 00 4c 2d cb 75 32 42 55 30
ff ff 01 04 b5 3c 22 78 3b 89 d1 b2 4c 3c b8 24
0e 50 54 21 08 00 81 c0 81 00 81 80 95 00 a9 c0
b3 00 01 01 01 01 14 d9 00 40 a1 a0 a8 50 80 20
3a 00 56 50 21 00 00 1a 00 00 00 fd 0e 30 69 ff
ff a7 01 0a 20 20 20 20 20 20 00 00 00 fc 00 4f
64 79 73 73 65 79 20 47 36 30 53 44 00 00 00 ff
00 48 4e 41 58 38 30 32 39 37 38 0a 20 20 02 87

00 ff ff ff ff ff ff 00 4c 2d cb 75 32 42 55 30
ff ff 01 04 b5 3c 22 78 3b 89 d1 b2 4c 3c b8 24
0e 50 54 21 08 00 81 c0 81 00 81 80 95 00 a9 c0
b3 00 01 01 01 01 14 d9 00 40 a1 a0 a8 50 80 20
3a 00 56 50 21 00 00 1a 00 00 00 fd 0e 30 69 ff
ff a7 01 0a 20 20 20 20 20 20 00 00 00 fc 00 4f
64 79 73 73 65 79 20 47 36 30 53 44 00 00 00 ff
00 48 4e 41 58 38 30 32 39 37 38 0a 20 20 02 87

02 03 37 f1 44 90 3f 04 03 23 09 07 07 83 01 00
00 e3 05 c0 00 74 1a 00 00 03 07 30 f0 00 a0 60
01 4b 02 68 01 00 00 00 00 00 e6 06 05 01 60 4b
00 e5 01 8b 84 90 39 8a 6c 00 40 a1 a0 a8 50 80
20 3a 00 56 50 21 00 00 1a 00 00 00 00 00 00 00
00 00 00 00 00 00 00 00 00 00 00 00 00 00 00 00
00 00 00 00 00 00 00 00 00 00 00 00 00 00 00 00
00 00 00 00 00 00 00 00 00 00 00 00 00 00 00 5f

00 ff ff ff ff ff ff 00 4c 2d cb 75 32 42 55 30
ff ff 01 04 b5 3c 22 78 3b 89 d1 b2 4c 3c b8 24
0e 50 54 21 08 00 81 c0 81 00 81 80 95 00 a9 c0
b3 00 01 01 01 01 14 d9 00 40 a1 a0 a8 50 80 20
3a 00 56 50 21 00 00 1a 00 00 00 fd 0e 30 69 ff
ff a7 01 0a 20 20 20 20 20 20 00 00 00 fc 00 4f
64 79 73 73 65 79 20 47 36 30 53 44 00 00 00 ff
00 48 4e 41 58 38 30 32 39 37 38 0a 20 20 02 87

----------------

Block 0, Base EDID:
  EDID Structure Version & Revision: 1.4
  Vendor & Product Identification:
    Manufacturer: SAM
    Model: 30155
    Serial Number: ...
    Model year: 2245
  Basic Display Parameters & Features:
    Digital display
    Bits per primary color channel: 10
    DisplayPort interface
    Maximum image size: 60 cm x 34 cm
    Gamma: 2.20
    DPMS levels: Off
    Supported color formats: RGB 4:4:4, YCrCb 4:4:4, YCrCb 4:2:2
    First detailed timing includes the native pixel format and preferred refresh rate
    Display is continuous frequency
  Color Characteristics:
    Red  : 0.6972, 0.2968
    Green: 0.2363, 0.7197
    Blue : 0.1435, 0.0556
    White: 0.3125, 0.3291
  Established Timings I & II:
    DMT 0x04:   640x480    59.940476 Hz   4:3     31.469 kHz     25.175000 MHz
    DMT 0x09:   800x600    60.316541 Hz   4:3     37.879 kHz     40.000000 MHz
    DMT 0x10:  1024x768    60.003840 Hz   4:3     48.363 kHz     65.000000 MHz
  Standard Timings:
    DMT 0x55:  1280x720    60.000000 Hz  16:9     45.000 kHz     74.250000 MHz
    DMT 0x1c:  1280x800    59.810326 Hz  16:10    49.702 kHz     83.500000 MHz
    DMT 0x23:  1280x1024   60.019740 Hz   5:4     63.981 kHz    108.000000 MHz
    DMT 0x2f:  1440x900    59.887445 Hz  16:10    55.935 kHz    106.500000 MHz
    DMT 0x53:  1600x900    60.000000 Hz  16:9     60.000 kHz    108.000000 MHz (RB)
    DMT 0x3a:  1680x1050   59.954250 Hz  16:10    65.290 kHz    146.250000 MHz
  Detailed Timing Descriptors:
    DTD 1:  2560x1440  119.998964 Hz  16:9    192.958 kHz    555.720000 MHz (598 mm x 336 mm)
                 Hfront  128 Hsync  32 Hback  160 Hpol P
                 Vfront    3 Vsync  10 Vback  155 Vpol N
    Display Range Limits:
      Monitor ranges (Bare Limits): 48-360 Hz V, 510-510 kHz H, max dotclock 1670 MHz
    Display Product Name: 'Odyssey G60SD'
    Display Product Serial Number: ...
  Extension blocks: 2
Checksum: 0x87

----------------

Block 1, CTA-861 Extension Block:
  Revision: 3
  Underscans IT Video Formats by default
  Basic audio support
  Supports YCbCr 4:4:4
  Supports YCbCr 4:2:2
  Native detailed modes: 1
  Video Data Block:
    VIC  16:  1920x1080   60.000000 Hz  16:9     67.500 kHz    148.500000 MHz (native)
    VIC  63:  1920x1080  120.000000 Hz  16:9    135.000 kHz    297.000000 MHz
    VIC   4:  1280x720    60.000000 Hz  16:9     45.000 kHz     74.250000 MHz
    VIC   3:   720x480    59.940060 Hz  16:9     31.469 kHz     27.000000 MHz
  Audio Data Block:
    Linear PCM:
      Max channels: 2
      Supported sample rates (kHz): 48 44.1 32
      Supported sample sizes (bits): 24 20 16
  Speaker Allocation Data Block:
    FL/FR - Front Left/Right
  Colorimetry Data Block:
    BT2020YCC
    BT2020RGB
  Vendor-Specific Data Block (AMD), OUI 00-00-1A:
    Version: 3.7
    Minimum Refresh Rate: 48 Hz
    Maximum Refresh Rate: 240 Hz
    Flags 1.x: 0x00
    Flags 2.x: 0xa0
    Maximum luminance: 96 (400.000 cd/m^2)
    Minimum luminance: 1 (0.000 cd/m^2)
    Unknown: 0x4b 0x02
  HDR Static Metadata Data Block:
    Electro optical transfer functions:
      Traditional gamma - SDR luminance range
      SMPTE ST2084
    Supported static metadata descriptors:
      Static metadata type 1
    Desired content max luminance: 96 (400.000 cd/m^2)
    Desired content max frame-average luminance: 75 (253.810 cd/m^2)
    Desired content min luminance: 0 (0.000 cd/m^2)
  Vendor-Specific Video Data Block (HDR10+), OUI 90-84-8B:
    Application Version: 57
  Detailed Timing Descriptors:
    DTD 2:  2560x1440   59.999482 Hz  16:9     96.479 kHz    277.860000 MHz (598 mm x 336 mm)
                 Hfront  128 Hsync  32 Hback  160 Hpol P
                 Vfront    3 Vsync  10 Vback  155 Vpol N
Checksum: 0x5f  Unused space in Extension Block: 54 bytes

----------------

Block 2, Unknown EDID Extension Block 0x00:
  00 ff ff ff ff ff ff 00 4c 2d cb 75 32 42 55 30 '........L-.u2BU0'
  ff ff 01 04 b5 3c 22 78 3b 89 d1 b2 4c 3c b8 24 '.....<"x;...L<.$'
  0e 50 54 21 08 00 81 c0 81 00 81 80 95 00 a9 c0 '.PT!............'
  b3 00 01 01 01 01 14 d9 00 40 a1 a0 a8 50 80 20 '.........@...P. '
  3a 00 56 50 21 00 00 1a 00 00 00 fd 0e 30 69 ff ':.VP!........0i.'
  ff a7 01 0a 20 20 20 20 20 20 00 00 00 fc 00 4f '....      .....O'
  64 79 73 73 65 79 20 47 36 30 53 44 00 00 00 ff 'dyssey G60SD....'
  00 48 4e 41 58 38 30 32 39 37 38 0a 20 20 02 87 '.HNAX802978.  ..'
Checksum: 0x87

----------------

Block 3, Unknown EDID Extension Block 0x00:
  00 ff ff ff ff ff ff 00 4c 2d cb 75 32 42 55 30 '........L-.u2BU0'
  ff ff 01 04 b5 3c 22 78 3b 89 d1 b2 4c 3c b8 24 '.....<"x;...L<.$'
  0e 50 54 21 08 00 81 c0 81 00 81 80 95 00 a9 c0 '.PT!............'
  b3 00 01 01 01 01 14 d9 00 40 a1 a0 a8 50 80 20 '.........@...P. '
  3a 00 56 50 21 00 00 1a 00 00 00 fd 0e 30 69 ff ':.VP!........0i.'
  ff a7 01 0a 20 20 20 20 20 20 00 00 00 fc 00 4f '....      .....O'
  64 79 73 73 65 79 20 47 36 30 53 44 00 00 00 ff 'dyssey G60SD....'
  00 48 4e 41 58 38 30 32 39 37 38 0a 20 20 02 87 '.HNAX802978.  ..'
Checksum: 0x87

----------------

Block 4, CTA-861 Extension Block:
  Revision: 3
  Underscans IT Video Formats by default
  Basic audio support
  Supports YCbCr 4:4:4
  Supports YCbCr 4:2:2
  Native detailed modes: 1
  Video Data Block:
    VIC  16:  1920x1080   60.000000 Hz  16:9     67.500 kHz    148.500000 MHz (native)
    VIC  63:  1920x1080  120.000000 Hz  16:9    135.000 kHz    297.000000 MHz
    VIC   4:  1280x720    60.000000 Hz  16:9     45.000 kHz     74.250000 MHz
    VIC   3:   720x480    59.940060 Hz  16:9     31.469 kHz     27.000000 MHz
  Audio Data Block:
    Linear PCM:
      Max channels: 2
      Supported sample rates (kHz): 48 44.1 32
      Supported sample sizes (bits): 24 20 16
  Speaker Allocation Data Block:
    FL/FR - Front Left/Right
  Colorimetry Data Block:
    BT2020YCC
    BT2020RGB
  Vendor-Specific Data Block (AMD), OUI 00-00-1A:
    Version: 3.7
    Minimum Refresh Rate: 48 Hz
    Maximum Refresh Rate: 240 Hz
    Flags 1.x: 0x00
    Flags 2.x: 0xa0
    Maximum luminance: 96 (400.000 cd/m^2)
    Minimum luminance: 1 (0.000 cd/m^2)
    Unknown: 0x4b 0x02
  HDR Static Metadata Data Block:
    Electro optical transfer functions:
      Traditional gamma - SDR luminance range
      SMPTE ST2084
    Supported static metadata descriptors:
      Static metadata type 1
    Desired content max luminance: 96 (400.000 cd/m^2)
    Desired content max frame-average luminance: 75 (253.810 cd/m^2)
    Desired content min luminance: 0 (0.000 cd/m^2)
  Vendor-Specific Video Data Block (HDR10+), OUI 90-84-8B:
    Application Version: 57
  Detailed Timing Descriptors:
    DTD 3:  2560x1440   59.999482 Hz  16:9     96.479 kHz    277.860000 MHz (598 mm x 336 mm)
                 Hfront  128 Hsync  32 Hback  160 Hpol P
                 Vfront    3 Vsync  10 Vback  155 Vpol N
Checksum: 0x5f  Unused space in Extension Block: 54 bytes

----------------

Block 5, Unknown EDID Extension Block 0x00:
  00 ff ff ff ff ff ff 00 4c 2d cb 75 32 42 55 30 '........L-.u2BU0'
  ff ff 01 04 b5 3c 22 78 3b 89 d1 b2 4c 3c b8 24 '.....<"x;...L<.$'
  0e 50 54 21 08 00 81 c0 81 00 81 80 95 00 a9 c0 '.PT!............'
  b3 00 01 01 01 01 14 d9 00 40 a1 a0 a8 50 80 20 '.........@...P. '
  3a 00 56 50 21 00 00 1a 00 00 00 fd 0e 30 69 ff ':.VP!........0i.'
  ff a7 01 0a 20 20 20 20 20 20 00 00 00 fc 00 4f '....      .....O'
  64 79 73 73 65 79 20 47 36 30 53 44 00 00 00 ff 'dyssey G60SD....'
  00 48 4e 41 58 38 30 32 39 37 38 0a 20 20 02 87 '.HNAX802978.  ..'
Checksum: 0x87

----------------

Warnings:

Block 1, CTA-861 Extension Block:
  Colorimetry Data Block: Set the sRGB colorimetry bit to avoid interop issues.
  Display Product Serial Number is set, so the Serial Number in the Base EDID should be 0.
Block 4, CTA-861 Extension Block:
  Colorimetry Data Block: Set the sRGB colorimetry bit to avoid interop issues.
  Display Product Serial Number is set, so the Serial Number in the Base EDID should be 0.
EDID:
  Base EDID: Some timings are out of range of the Monitor Ranges:
    Horizontal Freq: 31.468 - 192.958 kHz (Monitor: 510.000 - 510.000 kHz)

Failures:

Block 0, Base EDID:
  Vendor & Product Identification: The year 2245 is more than one year in the future.
Block 1, CTA-861 Extension Block:
  Missing VCDB, needed for Set Selectable RGB Quantization to avoid interop issues.
Block 2, Base EDID:
  Unknown Extension Block.
Block 3, Base EDID:
  Unknown Extension Block.
Block 4, CTA-861 Extension Block:
  Video Data Block: Duplicate VIC 16.
  Video Data Block: Duplicate VIC 63.
  Video Data Block: Duplicate VIC 4.
  Video Data Block: Duplicate VIC 3.
  Speaker Allocation Data Block: Only one instance of this Data Block is allowed.
  Colorimetry Data Block: Only one instance of this Data Block is allowed.
  HDR Static Metadata Data Block: Only one instance of this Data Block is allowed.
  Missing VCDB, needed for Set Selectable RGB Quantization to avoid interop issues.
Block 5, Base EDID:
  Unknown Extension Block.
EDID:
  Base EDID: EDID specified 2 extension block(s), but found 5 extension block(s).
  CTA-861: Native progressive timings are a mix of several resolutions.

EDID conformity: FAIL
