edid-decode (hex):

00 ff ff ff ff ff ff 00 0e 14 90 17 48 01 00 00
09 0d 01 05 68 1e 17 78 ea 8c 0c 99 54 4c 97 26
21 4c 54 af ee 00 31 4a 31 47 61 40 01 01 01 01
01 01 01 01 01 01 64 19 00 40 41 00 26 30 18 88
36 00 30 e4 10 00 00 18 00 00 00 fd 00 37 4b 1f
3c 08 00 0a 20 20 20 20 20 20 00 00 00 ff 00 31
35 47 33 30 39 42 31 35 30 33 32 38 00 00 00 fc
00 43 50 54 20 43 4c 2d 31 35 31 47 0a 20 00 b9

----------------

Block 0, Base EDID:
  EDID Structure Version & Revision: 1.5
  Vendor & Product Identification:
    Manufacturer: CPT
    Model: 6032
    Serial Number: ...
    Made in: week 9 of 2003
  Basic Display Parameters & Features:
    Analog display
    Input voltage level: 0.7/0.7 V
    Blank level equals black level
    Sync: Separate
    Maximum image size: 30 cm x 23 cm
    Gamma: 2.20
    DPMS levels: Standby Suspend Off
    RGB color display
    First detailed timing includes the native pixel format and preferred refresh rate
  Color Characteristics:
    Red  : 0.5996, 0.3281
    Green: 0.2998, 0.5898
    Blue : 0.1484, 0.1289
    White: 0.2998, 0.3281
  Established Timings I & II:
    IBM     :   720x400    70.082 Hz   9:5    31.467 kHz  28.320 MHz
    DMT 0x04:   640x480    59.940 Hz   4:3    31.469 kHz  25.175 MHz
    DMT 0x05:   640x480    72.809 Hz   4:3    37.861 kHz  31.500 MHz
    DMT 0x06:   640x480    75.000 Hz   4:3    37.500 kHz  31.500 MHz
    DMT 0x08:   800x600    56.250 Hz   4:3    35.156 kHz  36.000 MHz
    DMT 0x09:   800x600    60.317 Hz   4:3    37.879 kHz  40.000 MHz
    DMT 0x0a:   800x600    72.188 Hz   4:3    48.077 kHz  50.000 MHz
    DMT 0x0b:   800x600    75.000 Hz   4:3    46.875 kHz  49.500 MHz
    Apple   :   832x624    74.551 Hz   4:3    49.726 kHz  57.284 MHz
    DMT 0x10:  1024x768    60.004 Hz   4:3    48.363 kHz  65.000 MHz
    DMT 0x11:  1024x768    70.069 Hz   4:3    56.476 kHz  75.000 MHz
    DMT 0x12:  1024x768    75.029 Hz   4:3    60.023 kHz  78.750 MHz
  Standard Timings:
    CVT     :   640x480    69.583 Hz   4:3    35.000 kHz  28.000 MHz (EDID 1.4 source)
    GTF     :   640x480    70.000 Hz   4:3    35.000 kHz  28.560 MHz (EDID 1.3 source)
    CVT     :   640x480    66.609 Hz   4:3    33.438 kHz  26.750 MHz (EDID 1.4 source)
    GTF     :   640x480    66.999 Hz   4:3    33.433 kHz  27.281 MHz (EDID 1.3 source)
    DMT 0x10:  1024x768    60.004 Hz   4:3    48.363 kHz  65.000 MHz
  Detailed Timing Descriptors:
    DTD 1:  1024x768    60.004 Hz   4:3    48.363 kHz  65.000 MHz (304 mm x 228 mm)
                 Hfront   24 Hsync 136 Hback 160 Hpol N
                 Vfront    3 Vsync   6 Vback  29 Vpol N
  Display Range Limits:
    Monitor ranges (GTF): 55-75 Hz V, 31-60 kHz H, max dotclock 80 MHz
    Display Product Serial Number: ...
    Display Product Name: 'CPT CL-151G'
Checksum: 0xb9

----------------

Warnings:

Block 0, Base EDID:
  EDID Structure Version & Revision: Unknown EDID minor version 5, assuming 1.4 conformance.

Failures:

Block 0, Base EDID:
  Display Range Limits: GTF can't be combined with non-continuous frequencies.
EDID:
  Base EDID: CVT timings are used, but the EDID does not signal CVT support.

EDID conformity: FAIL
