edid-decode (hex):

00 ff ff ff ff ff ff 00 38 36 10 00 bc 02 00 00
1e 12 01 03 80 08 05 78 00 ee 91 a3 54 4c 99 26
0f 50 54 00 00 00 01 01 01 01 01 01 01 01 01 01
01 01 01 01 01 01 e4 0c 20 00 31 e0 19 10 28 80
13 00 98 5b 00 00 00 1e 00 00 00 fd 00 3b 3f 1d
21 04 00 0a 20 20 20 20 20 20 00 00 00 fc 00 4e
41 4e 4f 56 49 53 49 4f 4e 0a 0a 0a 00 00 00 ff
00 55 37 30 39 32 30 31 30 32 34 36 0a 0a 00 2f

----------------

Block 0, Base EDID:
  EDID Structure Version & Revision: 1.3
  Vendor & Product Identification:
    Manufacturer: NAV
    Model: 16
    Serial Number: ...
    Made in: week 30 of 2008
  Basic Display Parameters & Features:
    Digital display
    Maximum image size: 8 cm x 5 cm
    Gamma: 2.20
    Monochrome or grayscale display
  Color Characteristics:
    Red  : 0.6396, 0.3300
    Green: 0.2998, 0.5996
    Blue : 0.1503, 0.0595
    White: 0.3125, 0.3291
  Established Timings I & II: none
  Standard Timings: none
  Detailed Timing Descriptors:
    DTD 1:   800x480    61.881188 Hz   5:3     31.250 kHz     33.000000 MHz (152 mm x 91 mm)
                 Hfront   40 Hsync 128 Hback   88 Hpol P
                 Vfront    1 Vsync   3 Vback   21 Vpol P
    Display Range Limits:
      Monitor ranges (GTF): 59-63 Hz V, 29-33 kHz H, max dotclock 40 MHz
    Display Product Name: 'NANOVISION'
    Display Product Serial Number: ...
Checksum: 0x2f

----------------

Warnings:

Block 0, Base EDID:
  Basic Display Parameters & Features: Dubious maximum image size (8x5 is smaller than 10x10 cm).

Failures:

Block 0, Base EDID:
  Basic Display Parameters & Features: The chromaticities match sRGB, but sRGB is not signaled.
  Basic Display Parameters & Features: EDID 1.3 requires that the first detailed timing is the preferred timing.
  Detailed Timing Descriptor #1: Mismatch of image size 152x91 mm vs display size 80x50 mm.
  Display Product Name: Non-space after newline.
  Display Product Serial Number: ...
EDID:
  Base EDID: The DTD max image size is 152x91mm, which is larger than the display size 80.0x50.0mm.

EDID conformity: FAIL
