
EDID (hex):
00ffffffffffff000e140b1400000000
15110103802115780a092d9d564f9027
21505400000001010101010101010101
010101010101ea1a0080502010303020
360059df100000190000000f00000000
0000000000206e050f00000000fe0043
543738313031353457423420000000fe
002d42464e73a4c0ff0101202020006e

edid-decode (hex):

00 ff ff ff ff ff ff 00 0e 14 0b 14 00 00 00 00
15 11 01 03 80 21 15 78 0a 09 2d 9d 56 4f 90 27
21 50 54 00 00 00 01 01 01 01 01 01 01 01 01 01
01 01 01 01 01 01 ea 1a 00 80 50 20 10 30 30 20
36 00 59 df 10 00 00 19 00 00 00 0f 00 00 00 00
00 00 00 00 00 20 6e 05 0f 00 00 00 00 fe 00 43
54 37 38 31 30 31 35 34 57 42 34 20 00 00 00 fe
00 2d 42 46 4e 73 a4 c0 ff 01 01 20 20 20 00 6e

----------------

Block 0, Base EDID:
  EDID Structure Version & Revision: 1.3
  Vendor & Product Identification:
    Manufacturer: CPT
    Model: 5131
    Made in: week 21 of 2007
  Basic Display Parameters & Features:
    Digital display
    Maximum image size: 33 cm x 21 cm
    Gamma: 2.20
    RGB color display
    First detailed timing is the preferred timing
  Color Characteristics:
    Red  : 0.6132, 0.3359
    Green: 0.3105, 0.5634
    Blue : 0.1523, 0.1308
    White: 0.3154, 0.3291
  Established Timings I & II: none
  Standard Timings: none
  Detailed Timing Descriptors:
    DTD 1:  1280x800    59.968945 Hz  16:10    48.935 kHz     68.900000 MHz (345 mm x 223 mm)
                 Hfront   48 Hsync  32 Hback   48 Hpol N
                 Vfront    3 Vsync   6 Vback    7 Vpol N
    Manufacturer-Specified Display Descriptor (0x0f): 00 0f 00 00 00 00 00 00 00 00 00 20 6e 05 0f 00 '........... n...'
    Alphanumeric Data String: 'CT7810154WB4 '
    Alphanumeric Data String: '-BFNs'
Checksum: 0x6e
