edid-decode (hex):

00 ff ff ff ff ff ff 00 1e 6d 09 5b 43 4f 01 00
0a 1a 01 04 b5 3c 22 78 9e 30 35 a7 55 4e a3 26
0f 50 54 21 08 00 71 40 81 80 81 c0 a9 c0 d1 c0
81 00 01 01 01 01 4d d0 00 a0 f0 70 3e 80 30 20
65 0c 58 54 21 00 00 1a 28 68 00 a0 f0 70 3e 80
08 90 65 0c 58 54 21 00 00 1a 00 00 00 fd 00 38
3d 1e 87 38 00 0a 20 20 20 20 20 20 00 00 00 fc
00 4c 47 20 55 6c 74 72 61 20 48 44 0a 20 01 04

02 03 11 71 44 90 04 03 01 23 09 07 07 83 01 00
00 02 3a 80 18 71 38 2d 40 58 2c 45 00 58 54 21
00 00 1e 56 5e 00 a0 a0 a0 29 50 30 20 35 00 58
54 21 00 00 1a 00 00 00 00 00 00 00 00 00 00 00
00 00 00 00 00 00 00 00 00 00 00 00 00 00 00 00
00 00 00 00 00 00 00 00 00 00 00 00 00 00 00 00
00 00 00 00 00 00 00 00 00 00 00 00 00 00 00 00
00 00 00 00 00 00 00 00 00 00 00 00 00 00 00 c8

00 ff ff ff ff ff ff 00 22 d2 01 aa 00 00 00 00
ff 1a 01 03 80 00 00 78 02 60 bc aa 55 40 b6 23
0c 4c 52 00 00 00 01 01 01 01 01 01 01 01 01 01
01 01 01 01 01 01 04 74 70 6a 80 b0 08 41 28 14
c2 04 7a 44 00 00 00 18 04 74 70 6a 80 b0 08 41
28 14 c2 04 7a 44 00 00 00 18 00 00 00 fc 00 48
54 43 2d 56 49 56 45 0a 20 20 20 20 00 00 00 fd
00 14 78 01 ff 1d 01 0a 20 20 20 20 20 20 01 de

02 03 15 40 42 01 02 23 09 07 01 83 01 00 00 65
03 0c 00 10 00 04 74 70 6a 80 b0 08 41 28 14 c2
04 c0 78 00 00 00 18 04 74 70 6a 80 b0 08 41 28
14 c2 04 c0 78 00 00 00 18 04 74 70 6a 80 b0 08
41 28 14 c2 04 c0 78 00 00 00 18 04 74 70 6a 80
b0 08 41 28 14 c2 04 c0 78 00 00 00 18 00 00 00
00 00 00 00 00 00 00 00 00 00 00 00 00 00 00 00
00 00 00 00 00 00 00 00 00 00 00 00 00 00 00 b1

----------------

Block 0, Base EDID:
  EDID Structure Version & Revision: 1.4
  Vendor & Product Identification:
    Manufacturer: GSM
    Model: 23305
    Serial Number: ...
    Made in: week 10 of 2016
  Basic Display Parameters & Features:
    Digital display
    Bits per primary color channel: 10
    DisplayPort interface
    Maximum image size: 60 cm x 34 cm
    Gamma: 2.20
    DPMS levels: Standby
    Supported color formats: RGB 4:4:4, YCrCb 4:4:4, YCrCb 4:2:2
    Default (sRGB) color space is primary color space
    First detailed timing includes the native pixel format and preferred refresh rate
  Color Characteristics:
    Red  : 0.6523, 0.3349
    Green: 0.3046, 0.6367
    Blue : 0.1484, 0.0615
    White: 0.3134, 0.3291
  Established Timings I & II:
    DMT 0x04:   640x480    59.940476 Hz   4:3     31.469 kHz     25.175000 MHz
    DMT 0x09:   800x600    60.316541 Hz   4:3     37.879 kHz     40.000000 MHz
    DMT 0x10:  1024x768    60.003840 Hz   4:3     48.363 kHz     65.000000 MHz
  Standard Timings:
    GTF     :  1152x864    60.000000 Hz   4:3     53.700 kHz     81.624000 MHz
    DMT 0x23:  1280x1024   60.019740 Hz   5:4     63.981 kHz    108.000000 MHz
    DMT 0x55:  1280x720    60.000000 Hz  16:9     45.000 kHz     74.250000 MHz
    DMT 0x53:  1600x900    60.000000 Hz  16:9     60.000 kHz    108.000000 MHz (RB)
    DMT 0x52:  1920x1080   60.000000 Hz  16:9     67.500 kHz    148.500000 MHz
    DMT 0x1c:  1280x800    59.810326 Hz  16:10    49.702 kHz     83.500000 MHz
  Detailed Timing Descriptors:
    DTD 1:  3840x2160   59.996625 Hz  16:9    133.312 kHz    533.250000 MHz (600 mm x 340 mm)
                 Hfront   48 Hsync  32 Hback   80 Hpol P
                 Vfront   54 Vsync   5 Vback    3 Vpol N
    DTD 2:  3840x2160   30.000000 Hz  16:9     66.660 kHz    266.640000 MHz (600 mm x 340 mm)
                 Hfront    8 Hsync 144 Hback    8 Hpol P
                 Vfront   54 Vsync   5 Vback    3 Vpol N
    Display Range Limits:
      Monitor ranges (GTF): 56-61 Hz V, 30-135 kHz H, max dotclock 560 MHz
    Display Product Name: 'LG Ultra HD'
  Extension blocks: 1
Checksum: 0x04

----------------

Block 1, CTA-861 Extension Block:
  Revision: 3
  Basic audio support
  Supports YCbCr 4:4:4
  Supports YCbCr 4:2:2
  Native detailed modes: 1
  Video Data Block:
    VIC  16:  1920x1080   60.000000 Hz  16:9     67.500 kHz    148.500000 MHz (native)
    VIC   4:  1280x720    60.000000 Hz  16:9     45.000 kHz     74.250000 MHz
    VIC   3:   720x480    59.940060 Hz  16:9     31.469 kHz     27.000000 MHz
    VIC   1:   640x480    59.940476 Hz   4:3     31.469 kHz     25.175000 MHz
  Audio Data Block:
    Linear PCM:
      Max channels: 2
      Supported sample rates (kHz): 48 44.1 32
      Supported sample sizes (bits): 24 20 16
  Speaker Allocation Data Block:
    FL/FR - Front Left/Right
  Detailed Timing Descriptors:
    DTD 3:  1920x1080   60.000000 Hz  16:9     67.500 kHz    148.500000 MHz (600 mm x 340 mm)
                 Hfront   88 Hsync  44 Hback  148 Hpol P
                 Vfront    4 Vsync   5 Vback   36 Vpol P
    DTD 4:  2560x1440   59.950550 Hz  16:9     88.787 kHz    241.500000 MHz (600 mm x 340 mm)
                 Hfront   48 Hsync  32 Hback   80 Hpol P
                 Vfront    3 Vsync   5 Vback   33 Vpol N
Checksum: 0xc8

----------------

Block 2, Unknown EDID Extension Block 0x00:
  00 ff ff ff ff ff ff 00 22 d2 01 aa 00 00 00 00 '........".......'
  ff 1a 01 03 80 00 00 78 02 60 bc aa 55 40 b6 23 '.......x.`..U@.#'
  0c 4c 52 00 00 00 01 01 01 01 01 01 01 01 01 01 '.LR.............'
  01 01 01 01 01 01 04 74 70 6a 80 b0 08 41 28 14 '.......tpj...A(.'
  c2 04 7a 44 00 00 00 18 04 74 70 6a 80 b0 08 41 '..zD.....tpj...A'
  28 14 c2 04 7a 44 00 00 00 18 00 00 00 fc 00 48 '(...zD.........H'
  54 43 2d 56 49 56 45 0a 20 20 20 20 00 00 00 fd 'TC-VIVE.    ....'
  00 14 78 01 ff 1d 01 0a 20 20 20 20 20 20 01 de '..x.....      ..'
Checksum: 0xde

----------------

Block 3, CTA-861 Extension Block:
  Revision: 3
  Basic audio support
  Native detailed modes: 0
  Video Data Block:
    VIC   1:   640x480    59.940476 Hz   4:3     31.469 kHz     25.175000 MHz
    VIC   2:   720x480    59.940060 Hz   4:3     31.469 kHz     27.000000 MHz
  Audio Data Block:
    Linear PCM:
      Max channels: 2
      Supported sample rates (kHz): 48 44.1 32
      Supported sample sizes (bits): 16
  Speaker Allocation Data Block:
    FL/FR - Front Left/Right
  Vendor-Specific Data Block (HDMI), OUI 00-0C-03:
    Source physical address: 1.0.0.0
  Detailed Timing Descriptors:
    DTD 5:  2160x1200   89.527296 Hz   9:5    131.068 kHz    297.000000 MHz (192 mm x 120 mm)
                 Hfront   40 Hsync  20 Hback   46 Hpol N
                 Vfront   28 Vsync   2 Vback  234 Vpol N
    DTD 6:  2160x1200   89.527296 Hz   9:5    131.068 kHz    297.000000 MHz (192 mm x 120 mm)
                 Hfront   40 Hsync  20 Hback   46 Hpol N
                 Vfront   28 Vsync   2 Vback  234 Vpol N
    DTD 7:  2160x1200   89.527296 Hz   9:5    131.068 kHz    297.000000 MHz (192 mm x 120 mm)
                 Hfront   40 Hsync  20 Hback   46 Hpol N
                 Vfront   28 Vsync   2 Vback  234 Vpol N
    DTD 8:  2160x1200   89.527296 Hz   9:5    131.068 kHz    297.000000 MHz (192 mm x 120 mm)
                 Hfront   40 Hsync  20 Hback   46 Hpol N
                 Vfront   28 Vsync   2 Vback  234 Vpol N
Checksum: 0xb1

----------------

Warnings:

Block 0, Base EDID:
  Display Range Limits: GTF support is deprecated in EDID 1.4.
Block 1, CTA-861 Extension Block:
  IT Video Formats are overscanned by default, but normally this should be underscanned.
Block 3, CTA-861 Extension Block:
  IT Video Formats are overscanned by default, but normally this should be underscanned.
EDID:
  Base EDID: Some timings are out of range of the Monitor Ranges:
    Vertical Freq: 30.000 - 89.527 Hz (Monitor: 56.000 - 61.000 Hz)

Failures:

Block 0, Base EDID:
  Basic Display Parameters & Features: sRGB is signaled, but the chromaticities do not match.
  Display Range Limits: GTF can't be combined with non-continuous frequencies.
  Base EDID: EDID specified 1 extension block(s), but found 3 extension block(s).
Block 1, CTA-861 Extension Block:
  Missing VCDB, needed for Set Selectable RGB Quantization to avoid interop issues.
Block 2, Base EDID:
  Unknown Extension Block.
Block 3, CTA-861 Extension Block:
  Byte 3 must be the same for all CTA-861 Extension Blocks.
  Video Data Block: Duplicate VIC 1.
  Speaker Allocation Data Block: Only one instance of this Data Block is allowed.
  Vendor-Specific Data Block (HDMI), OUI 00-0C-03: The HDMI Specification requires EDID 1.3 instead of 1.4.
  Detailed Timing Descriptor #5: Mismatch of image size 192x120 mm vs display size 600x340 mm.
  Detailed Timing Descriptor #6: Mismatch of image size 192x120 mm vs display size 600x340 mm.
  Detailed Timing Descriptor #7: Mismatch of image size 192x120 mm vs display size 600x340 mm.
  Detailed Timing Descriptor #8: Mismatch of image size 192x120 mm vs display size 600x340 mm.
  Missing VCDB, needed for Set Selectable RGB Quantization to avoid interop issues.
EDID:
  CTA-861: Native progressive timings are a mix of several resolutions.

EDID conformity: FAIL
