
EDID (hex):
00ffffffffffff001c52560101000000
2b1e0103802313782a6435a5544f9e27
125054a1cf0071408180814081c09500
d1c0a9c0b300023a801871382d40582c
450059c21000001e000000fd003a901f
aa24000a202020202020000000fc0041
525a4f50410a202020202020000000ff
003030303030303030303030310a0181
020338f1479001020304454523091f07
8301000067030c001000384867d85dc4
0148c000681a000001013a90e6e305c0
00e606050169694ffd8180a070381f40
3020350059c21000001e786e80a07038
35403020360059c21000001a0f5c80a0
703835403020360059c21000001a0000
0000000000000000000000000000005f

Extracted contents:
header:          00 ff ff ff ff ff ff 00
serial number:   1c 52 56 01 01 00 00 00 2b 1e
version:         01 03
basic params:    80 23 13 78 2a
chroma info:     64 35 a5 54 4f 9e 27 12 50 54
established:     a1 cf 00
standard:        71 40 81 80 81 40 81 c0 95 00 d1 c0 a9 c0 b3 00
descriptor 1:    02 3a 80 18 71 38 2d 40 58 2c 45 00 59 c2 10 00 00 1e
descriptor 2:    00 00 00 fd 00 3a 90 1f aa 24 00 0a 20 20 20 20 20 20
descriptor 3:    00 00 00 fc 00 41 52 5a 4f 50 41 0a 20 20 20 20 20 20
descriptor 4:    00 00 00 ff 00 30 30 30 30 30 30 30 30 30 30 30 31 0a
extensions:      01
checksum:        81

EDID version: 1.3
Manufacturer: GBR Model 156 Serial Number --
Made in week 43 of 2020
Digital display
Maximum image size: 35 cm x 19 cm
Gamma: 2.20
DPMS levels: Off
RGB color display
First detailed timing is preferred timing
Display x,y Chromaticity:
  Red:   0.6455, 0.3300
  Green: 0.3095, 0.6171
  Blue:  0.1523, 0.0732
  White: 0.3134, 0.3291
Established timings supported:
  720x400@70Hz 9:5 HorFreq: 31469 Hz Clock: 28.320 MHz
  640x480@60Hz 4:3 HorFreq: 31469 Hz Clock: 25.175 MHz
  800x600@60Hz 4:3 HorFreq: 37900 Hz Clock: 40.000 MHz
  800x600@72Hz 4:3 HorFreq: 48100 Hz Clock: 50.000 MHz
  800x600@75Hz 4:3 HorFreq: 46900 Hz Clock: 49.500 MHz
  1024x768@60Hz 4:3 HorFreq: 48400 Hz Clock: 65.000 MHz
  1024x768@70Hz 4:3 HorFreq: 56500 Hz Clock: 75.000 MHz
  1024x768@75Hz 4:3 HorFreq: 60000 Hz Clock: 78.750 MHz
  1280x1024@75Hz 5:4 HorFreq: 80000 Hz Clock: 135.000 MHz
Standard timings supported:
  1152x864@60Hz 4:3
  1280x1024@60Hz 5:4 HorFreq: 64000 Hz Clock: 108.000 MHz
  1280x960@60Hz 4:3 HorFreq: 60000 Hz Clock: 108.000 MHz
  1280x720@60Hz 16:9
  1440x900@60Hz 16:10 HorFreq: 55500 Hz Clock: 88.750 MHz
  1920x1080@60Hz 16:9
  1600x900@60Hz 16:9
  1680x1050@60Hz 16:10 HorFreq: 64700 Hz Clock: 119.000 MHz
Detailed mode: Clock 148.500 MHz, 345 mm x 194 mm
               1920 2008 2052 2200 hborder 0
               1080 1084 1089 1125 vborder 0
               +hsync +vsync 
               VertFreq: 60 Hz, HorFreq: 67500 Hz
Monitor ranges (GTF): 58-144Hz V, 31-170kHz H, max dotclock 360MHz
Monitor name: ARZOPA
Serial number: --
Has 1 extension blocks
Checksum: 0x81 (valid)

CTA extension block
Extension version: 3
52 bytes of CTA data
  Video data block
    VIC  16 1920x1080@60Hz 16:9 (native) HorFreq: 67500 Hz Clock: 148.500 MHz
    VIC   1 640x480@60Hz 4:3  HorFreq: 31469 Hz Clock: 25.175 MHz
    VIC   2 720x480@60Hz 4:3  HorFreq: 31469 Hz Clock: 27.000 MHz
    VIC   3 720x480@60Hz 16:9  HorFreq: 31469 Hz Clock: 27.000 MHz
    VIC   4 1280x720@60Hz 16:9  HorFreq: 45000 Hz Clock: 74.250 MHz
    VIC  69 1280x720@60Hz 64:27  HorFreq: 45000 Hz Clock: 74.250 MHz
    VIC  69 1280x720@60Hz 64:27  HorFreq: 45000 Hz Clock: 74.250 MHz
  Audio data block
    Linear PCM, max channels 2
      Supported sample rates (kHz): 96 88.2 48 44.1 32
      Supported sample sizes (bits): 24 20 16
  Speaker allocation data block
    Speaker map:
      FL/FR - Front Left/Right
  Vendor-specific data block, OUI 000c03 (HDMI)
    Source physical address 1.0.0.0
    DC_36bit
    DC_30bit
    DC_Y444
    Maximum TMDS clock: 360MHz
  Vendor-specific data block, OUI c45dd8 (HDMI Forum)
    Version: 1
    Maximum TMDS Character Rate: 360MHz
    SCDC Present
    SCDC Read Request Capable
  Vendor-specific data block, OUI 00001a
  Extended tag: Colorimetry data block
    BT2020YCC
    BT2020RGB
  Extended tag: HDR static metadata data block
    Electro optical transfer functions:
      Traditional gamma - SDR luminance range
      SMPTE ST2084
    Supported static metadata descriptors:
      Static metadata type 1
    Desired content max luminance: 105 (486.099 cd/m^2)
    Desired content max frame-average luminance: 105 (486.099 cd/m^2)
    Desired content min luminance: 79 (0.467 cd/m^2)
Underscans PC formats by default
Basic audio support
Supports YCbCr 4:4:4
Supports YCbCr 4:2:2
1 native detailed modes
Detailed mode: Clock 332.770 MHz, 345 mm x 194 mm
               1920 1968 2000 2080 hborder 0
               1080 1083 1088 1111 vborder 0
               +hsync +vsync 
               VertFreq: 144 Hz, HorFreq: 159985 Hz
Detailed mode: Clock 282.800 MHz, 345 mm x 194 mm
               1920 1968 2000 2080 hborder 0
               1080 1083 1089 1133 vborder 0
               +hsync -vsync 
               VertFreq: 120 Hz, HorFreq: 135961 Hz
Detailed mode: Clock 235.670 MHz, 345 mm x 194 mm
               1920 1968 2000 2080 hborder 0
               1080 1083 1089 1133 vborder 0
               +hsync -vsync 
               VertFreq: 100 Hz, HorFreq: 113302 Hz
Checksum: 0x5f (valid)

EDID block does NOT conform to EDID 1.3!
	HDMI VSDB Max TMDS rate is > 340
EDID block does not conform at all!
	Both the serial number and the serial string are set


