
EDID (hex):
00ffffffffffff0006af913600000000
001e010495221378038aa58f56559329
1f505400000001010101010101010101
010101010101ce1d56e250001e302616
360058c110000018df1356e250001e30
2616360058c110000018000000000000
00000000000000000000000000000002
001048ff0f3c7d1c11237d20202000ed

Extracted contents:
header:          00 ff ff ff ff ff ff 00
serial number:   06 af 91 36 00 00 00 00 00 1e
version:         01 04
basic params:    95 22 13 78 03
chroma info:     8a a5 8f 56 55 93 29 1f 50 54
established:     00 00 00
standard:        01 01 01 01 01 01 01 01 01 01 01 01 01 01 01 01
descriptor 1:    ce 1d 56 e2 50 00 1e 30 26 16 36 00 58 c1 10 00 00 18
descriptor 2:    df 13 56 e2 50 00 1e 30 26 16 36 00 58 c1 10 00 00 18
descriptor 3:    00 00 00 00 00 00 00 00 00 00 00 00 00 00 00 00 00 00
descriptor 4:    00 00 00 02 00 10 48 ff 0f 3c 7d 1c 11 23 7d 20 20 20
extensions:      00
checksum:        ed

EDID version: 1.4
Manufacturer: AUO Model 3691 Serial Number --
Made in year 2020
Digital display
6 bits per primary color channel
DisplayPort interface
Maximum image size: 34 cm x 19 cm
Gamma: 2.20
Supported color formats: RGB 4:4:4
First detailed timing includes the native pixel format and preferred refresh rate
Display is continuous frequency
Display x,y Chromaticity:
  Red:   0.5605, 0.3359
  Green: 0.3339, 0.5761
  Blue:  0.1621, 0.1230
  White: 0.3134, 0.3291
Established timings supported:
Standard timings supported:
Detailed mode: Clock 76.300 MHz, 344 mm x 193 mm
               1366 1404 1426 1592 hborder 0
                768  771  777  798 vborder 0
               -hsync -vsync 
               VertFreq: 60 Hz, HorFreq: 47927 Hz
Detailed mode: Clock 50.870 MHz, 344 mm x 193 mm
               1366 1404 1426 1592 hborder 0
                768  771  777  798 vborder 0
               -hsync -vsync 
               VertFreq: 40 Hz, HorFreq: 31953 Hz
Manufacturer-specified data, tag 0
Manufacturer-specified data, tag 2
Checksum: 0xed (valid)
EDID block does NOT conform to EDID 1.4!
	Missing name descriptor
	Missing monitor ranges


