
EDID (hex):
00ffffffffffff000610629c00000000
0f100103802517780a7ea09857518b27
22505400000001010101010101010101
0101010101017c2e90a0601a1e403020
36006fe6100000180000000100061030
00000000000000000a20000000fe004c
503137315745322d544c4131000000fe
00436f6c6f72204c43440a20202000eb

Extracted contents:
header:          00 ff ff ff ff ff ff 00
serial number:   06 10 62 9c 00 00 00 00 0f 10
version:         01 03
basic params:    80 25 17 78 0a
chroma info:     7e a0 98 57 51 8b 27 22 50 54
established:     00 00 00
standard:        01 01 01 01 01 01 01 01 01 01 01 01 01 01 01 01
descriptor 1:    7c 2e 90 a0 60 1a 1e 40 30 20 36 00 6f e6 10 00 00 18
descriptor 2:    00 00 00 01 00 06 10 30 00 00 00 00 00 00 00 00 0a 20
descriptor 3:    00 00 00 fe 00 4c 50 31 37 31 57 45 32 2d 54 4c 41 31
descriptor 4:    00 00 00 fe 00 43 6f 6c 6f 72 20 4c 43 44 0a 20 20 20
extensions:      00
checksum:        eb

EDID version: 1.3
Manufacturer: APP Model 9c62 Serial Number --
Made in week 15 of 2006
Digital display
Maximum image size: 37 cm x 23 cm
Gamma: 2.20
RGB color display
First detailed timing is preferred timing
Display x,y Chromaticity:
  Red:   0.5947, 0.3427
  Green: 0.3193, 0.5449
  Blue:  0.1542, 0.1347
  White: 0.3125, 0.3281
Established timings supported:
Standard timings supported:
Detailed mode: Clock 119.000 MHz, 367 mm x 230 mm
               1680 1728 1760 1840 hborder 0
               1050 1053 1059 1080 vborder 0
               -hsync -vsync 
               VertFreq: 59 Hz, HorFreq: 64673 Hz
Manufacturer-specified data, tag 1
ASCII string: LP171WE2-TLA1
ASCII string: Color LCD
Checksum: 0xeb (valid)
EDID block does NOT conform to EDID 1.3!
	Missing name descriptor
	Missing monitor ranges
