
EDID (hex):
00ffffffffffff0010ac8a70464b3042
240a0104a5241baee2a5c29d594a9c27
12484fa443003159455961598199a940
010101010101863d00c05100304040a0
1300630911000018000000ff00343531
325230393842304b460a000000fc0044
454c4c204d393930200a2020000000fd
0032a01e60ff000a202020202020007e

Extracted contents:
header:          00 ff ff ff ff ff ff 00
serial number:   10 ac 8a 70 46 4b 30 42 24 0a
version:         01 04
basic params:    a5 24 1b ae e2
chroma info:     a5 c2 9d 59 4a 9c 27 12 48 4f
established:     a4 43 00
standard:        31 59 45 59 61 59 81 99 a9 40 01 01 01 01 01 01
descriptor 1:    86 3d 00 c0 51 00 30 40 40 a0 13 00 63 09 11 00 00 18
descriptor 2:    00 00 00 ff 00 34 35 31 32 52 30 39 38 42 30 4b 46 0a
descriptor 3:    00 00 00 fc 00 44 45 4c 4c 20 4d 39 39 30 20 0a 20 20
descriptor 4:    00 00 00 fd 00 32 a0 1e 60 ff 00 0a 20 20 20 20 20 20
extensions:      00
checksum:        7e

EDID version: 1.4
Manufacturer: DEL Model 708a Serial Number --
Digital display
8 bits per primary color channel
DisplayPort interface
Maximum image size: 36 cm x 27 cm
Gamma: 2.74
DPMS levels: Standby Suspend Off
Supported color formats: RGB 4:4:4
First detailed timing includes the native pixel format and preferred refresh rate
Display x,y Chromaticity:
  Red:   0.6152, 0.3496
  Green: 0.2900, 0.6103
  Blue:  0.1552, 0.0703
  White: 0.2812, 0.3105
Established timings supported:
  720x400@70Hz 9:5 HorFreq: 31469 Hz Clock: 28.320 MHz
  640x480@60Hz 4:3 HorFreq: 31469 Hz Clock: 25.175 MHz
  640x480@75Hz 4:3 HorFreq: 37500 Hz Clock: 31.500 MHz
  800x600@75Hz 4:3 HorFreq: 46900 Hz Clock: 49.500 MHz
  1024x768@75Hz 4:3 HorFreq: 60000 Hz Clock: 78.750 MHz
  1280x1024@75Hz 5:4 HorFreq: 80000 Hz Clock: 135.000 MHz
Standard timings supported:
  640x480@85Hz 4:3 HorFreq: 43300 Hz Clock: 36.000 MHz
  800x600@85Hz 4:3 HorFreq: 53700 Hz Clock: 56.250 MHz
  1024x768@85Hz 4:3 HorFreq: 68700 Hz Clock: 94.500 MHz
  1280x1024@85Hz 5:4 HorFreq: 91100 Hz Clock: 157.500 MHz
  1600x1200@60Hz 4:3 HorFreq: 75000 Hz Clock: 162.000 MHz
Detailed mode: Clock 157.500 MHz, 355 mm x 265 mm
               1280 1344 1504 1728 hborder 0
               1024 1025 1028 1072 vborder 0
               -hsync -vsync 
               VertFreq: 85 Hz, HorFreq: 91145 Hz
Serial number: --
Monitor name: DELL M990 
Monitor ranges (GTF): 50-160Hz V, 30-96kHz H, max dotclock 2550MHz
Checksum: 0x7e (valid)
EDID block does not conform at all!
	Bad year of manufacture
