
EDID (hex):
00ffffffffffff000e6f081500000000
001f0104b52213780371d4a85237b525
11515700000001010101010101010101
01010101010150d000a0f0703e803020
350058c210000018000000fd00303c86
8636010a202020202020000000fe0043
534f542054330a2020202020000000fe
004d4e463630314541312d380a20016a
02031d00e3058000e60605017373216d
1a00000203303c000473217321000000
00000000000000000000000000000000
00000000000000000000000000000000
00000000000000000000000000000000
00000000000000000000000000000000
00000000000000000000000000000000
00000000000000000000000000000059

Extracted contents:
header:          00 ff ff ff ff ff ff 00
serial number:   0e 6f 08 15 00 00 00 00 00 1f
version:         01 04
basic params:    b5 22 13 78 03
chroma info:     71 d4 a8 52 37 b5 25 11 51 57
established:     00 00 00
standard:        01 01 01 01 01 01 01 01 01 01 01 01 01 01 01 01
descriptor 1:    50 d0 00 a0 f0 70 3e 80 30 20 35 00 58 c2 10 00 00 18
descriptor 2:    00 00 00 fd 00 30 3c 86 86 36 01 0a 20 20 20 20 20 20
descriptor 3:    00 00 00 fe 00 43 53 4f 54 20 54 33 0a 20 20 20 20 20
descriptor 4:    00 00 00 fe 00 4d 4e 46 36 30 31 45 41 31 2d 38 0a 20
extensions:      01
checksum:        6a

EDID version: 1.4
Manufacturer: CSO Model 1508 Serial Number --
Made in year 2021
Digital display
10 bits per primary color channel
DisplayPort interface
Maximum image size: 34 cm x 19 cm
Gamma: 2.20
Supported color formats: RGB 4:4:4
First detailed timing includes the native pixel format and preferred refresh rate
Display is continuous frequency
Display x,y Chromaticity:
  Red:   0.6572, 0.3232
  Green: 0.2148, 0.7080
  Blue:  0.1474, 0.0673
  White: 0.3173, 0.3398
Established timings supported:
Standard timings supported:
Detailed mode: Clock 533.280 MHz, 344 mm x 194 mm
               3840 3888 3920 4000 hborder 0
               2160 2163 2168 2222 vborder 0
               -hsync -vsync 
               VertFreq: 60 Hz, HorFreq: 133320 Hz
Monitor ranges (bare limits): 48-60Hz V, 134-134kHz H, max dotclock 540MHz
ASCII string: CSOT T3
ASCII string: MNF601EA1-8
Has 1 extension blocks
Checksum: 0x6a (valid)

CTA extension block
Extension version: 3
25 bytes of CTA data
  Extended tag: Colorimetry data block
    BT2020RGB
  Extended tag: HDR static metadata data block
    Electro optical transfer functions:
      Traditional gamma - SDR luminance range
      SMPTE ST2084
    Supported static metadata descriptors:
      Static metadata type 1
    Desired content max luminance: 115 (603.666 cd/m^2)
    Desired content max frame-average luminance: 115 (603.666 cd/m^2)
    Desired content min luminance: 33 (0.101 cd/m^2)
  Vendor-specific data block, OUI 00001a
0 native detailed modes
Checksum: 0x59 (valid)

EDID block does NOT conform to EDID 1.4!
	Required 640x480p60 timings are missing in the established timings
	and/or in the SVD list (VIC 1)
	Missing name descriptor
Warning: One or more of the timings is out of range of the Monitor Ranges:
  Vertical Freq: 60 - 60 Hz
  Horizontal Freq: 133320 - 133320 Hz
  Maximum Clock: 533.280 MHz
