edid-decode (hex):

00 ff ff ff ff ff ff 00 0d af 95 15 00 00 00 00
0c 13 01 03 80 22 13 78 0a 7b 95 9c 57 57 94 29
15 50 54 00 00 00 01 01 01 01 01 01 01 01 01 01
01 01 01 01 01 01 1c 2a 40 24 61 84 31 30 1a 3c
9a 00 58 c1 10 00 00 18 00 00 00 fe 00 4e 31 35
36 4f 36 2d 4c 30 31 0a 20 20 00 00 00 fe 00 43
4d 4f 0a 20 20 20 20 20 20 20 20 20 00 00 00 fe
00 4e 31 35 36 4f 36 2d 4c 30 31 0a 20 20 00 1c

----------------

Block 0, Base EDID:
  EDID Structure Version & Revision: 1.3
  Vendor & Product Identification:
    Manufacturer: CMO
    Model: 5525
    Made in: week 12 of 2009
  Basic Display Parameters & Features:
    Digital display
    Maximum image size: 34 cm x 19 cm
    Gamma: 2.20
    RGB color display
    First detailed timing is the preferred timing
  Color Characteristics:
    Red  : 0.6103, 0.3427
    Green: 0.3417, 0.5810
    Blue : 0.1621, 0.0830
    White: 0.3134, 0.3291
  Established Timings I & II: none
  Standard Timings: none
  Detailed Timing Descriptors:
    DTD 1:  1600x900    60.039 Hz  16:9    56.977 kHz 107.800 MHz (344 mm x 193 mm)
                 Hfront   26 Hsync  60 Hback 206 Hpol N
                 Vfront    9 Vsync  10 Vback  30 Vpol N
    Alphanumeric Data String: 'N156O6-L01'
    Alphanumeric Data String: 'CMO'
    Alphanumeric Data String: 'N156O6-L01'
Checksum: 0x1c

----------------

Failures:

Block 0, Base EDID:
  Missing Display Product Name.
  Missing Display Range Limits Descriptor.

EDID conformity: FAIL
