edid-decode (hex):

00 ff ff ff ff ff ff 00 4c a3 4c 32 00 00 00 00
00 14 01 03 80 1f 11 78 ea 1d 85 91 56 59 8f 26
18 50 54 00 00 00 01 01 01 01 01 01 01 01 01 01
01 01 01 01 01 01 5d 26 40 a0 60 84 1e 30 30 20
25 00 36 ae 10 00 00 19 00 00 00 0f 00 00 00 00
00 00 00 00 00 32 c8 04 32 00 00 00 00 fe 00 53
41 4d 53 55 4e 47 0a 20 4c a3 4b 54 00 00 00 fe
00 4c 54 4e 31 34 30 4b 54 30 33 34 30 31 00 ca

----------------

Block 0, Base EDID:
  EDID Structure Version & Revision: 1.3
  Vendor & Product Identification:
    Manufacturer: SEC
    Model: 12876
    Made in: 2010
  Basic Display Parameters & Features:
    Digital display
    Maximum image size: 31 cm x 17 cm
    Gamma: 2.20
    DPMS levels: Standby Suspend Off
    RGB color display
    First detailed timing is the preferred timing
  Color Characteristics:
    Red  : 0.5664, 0.3369
    Green: 0.3505, 0.5595
    Blue : 0.1503, 0.0937
    White: 0.3134, 0.3291
  Established Timings I & II: none
  Standard Timings: none
  Detailed Timing Descriptors:
    DTD 1:  1600x900    60.001 Hz  16:9    55.801 kHz  98.210 MHz (310 mm x 174 mm)
                 Hfront   48 Hsync  32 Hback  80 Hpol N
                 Vfront    2 Vsync   5 Vback  23 Vpol N
    Manufacturer-Specified Display Descriptor (0x0f): 00 0f 00 00 00 00 00 00 00 00 00 32 c8 04 32 00 '...........2..2.'
    Alphanumeric Data String: 'SAMSUNG'
    Alphanumeric Data String: 'LTN140KT03401'
Checksum: 0xca

----------------

Failures:

Block 0, Base EDID:
  Alphanumeric Data String: Non-space after newline.
  Missing Display Product Name.
  Missing Display Range Limits Descriptor.

EDID conformity: FAIL
