
EDID (hex):
00ffffffffffff0006af474000000000
01110103901e13780a89e59457549327
22505400000001010101010101010101
010101010101302aa01252840c304020
33002fbd1000001a521ca01252840c30
402033002fbd1000001a000000fe0047
58393638804231343150573400000000
00000000000000000002010a202000ce

Extracted contents:
header:          00 ff ff ff ff ff ff 00
serial number:   06 af 47 40 00 00 00 00 01 11
version:         01 03
basic params:    90 1e 13 78 0a
chroma info:     89 e5 94 57 54 93 27 22 50 54
established:     00 00 00
standard:        01 01 01 01 01 01 01 01 01 01 01 01 01 01 01 01
descriptor 1:    30 2a a0 12 52 84 0c 30 40 20 33 00 2f bd 10 00 00 1a
descriptor 2:    52 1c a0 12 52 84 0c 30 40 20 33 00 2f bd 10 00 00 1a
descriptor 3:    00 00 00 fe 00 47 58 39 36 38 80 42 31 34 31 50 57 34
descriptor 4:    00 00 00 00 00 00 00 00 00 00 00 00 00 02 01 0a 20 20
extensions:      00
checksum:        ce

EDID version: 1.3
Manufacturer: AUO Model 4047 Serial Number --
Made in week 1 of 2007
Digital display
Maximum image size: 30 cm x 19 cm
Gamma: 2.20
RGB color display
First detailed timing is preferred timing
Display x,y Chromaticity:
  Red:   0.5800, 0.3398
  Green: 0.3300, 0.5751
  Blue:  0.1552, 0.1347
  White: 0.3134, 0.3291
Established timings supported:
Standard timings supported:
Detailed mode: Clock 108.000 MHz, 303 mm x 189 mm
               1440 1504 1536 1970 hborder 0
                900  903  906  912 vborder 0
               +hsync -vsync 
               VertFreq: 60 Hz, HorFreq: 54822 Hz
Detailed mode: Clock 72.500 MHz, 303 mm x 189 mm
               1440 1504 1536 1970 hborder 0
                900  903  906  912 vborder 0
               +hsync -vsync 
               VertFreq: 40 Hz, HorFreq: 36802 Hz
ASCII string: GX968
Manufacturer-specified data, tag 0
Checksum: 0xce (valid)
EDID block does NOT conform to EDID 1.3!
	Digital display field contains garbage: 10
	Missing name descriptor
	Missing monitor ranges
	Detailed block string not properly terminated
