
EDID (hex):
00ffffffffffff004ea5092401000000
281f0104a5341f783ba661a953459822
1e4d5da54f0081c081408180b300a9c0
d1c001010101023a801871382d403020
350055502100001a662150b051001b30
4070360055502100001a000000fd0030
92a2a224010a202020202020000000fc
00534656323430390a202020202001ed
020318744b01031207160413901f0514
2309070783010000fb8180a070381f40
30203500555021000018866f80a07038
4040302035005550210000187c2e90a0
601a1e403020350055502100001e302a
40c86084643018501300555021000018
00000000000000000000000000000000
00000000000000000000000000000060

Extracted contents:
header:          00 ff ff ff ff ff ff 00
serial number:   4e a5 09 24 01 00 00 00 28 1f
version:         01 04
basic params:    a5 34 1f 78 3b
chroma info:     a6 61 a9 53 45 98 22 1e 4d 5d
established:     a5 4f 00
standard:        81 c0 81 40 81 80 b3 00 a9 c0 d1 c0 01 01 01 01
descriptor 1:    02 3a 80 18 71 38 2d 40 30 20 35 00 55 50 21 00 00 1a
descriptor 2:    66 21 50 b0 51 00 1b 30 40 70 36 00 55 50 21 00 00 1a
descriptor 3:    00 00 00 fd 00 30 92 a2 a2 24 01 0a 20 20 20 20 20 20
descriptor 4:    00 00 00 fc 00 53 46 56 32 34 30 39 0a 20 20 20 20 20
extensions:      01
checksum:        ed

EDID version: 1.4
Manufacturer: SUE Model 2409 Serial Number --
Made in week 40 of 2021
Digital display
8 bits per primary color channel
DisplayPort interface
Maximum image size: 52 cm x 31 cm
Gamma: 2.20
DPMS levels: Off
Supported color formats: RGB 4:4:4, YCrCb 4:4:4, YCrCb 4:2:2
First detailed timing includes the native pixel format and preferred refresh rate
Display is continuous frequency
Display x,y Chromaticity:
  Red:   0.6621, 0.3261
  Green: 0.2705, 0.5957
  Blue:  0.1337, 0.1191
  White: 0.3007, 0.3642
Established timings supported:
  720x400@70Hz 9:5 HorFreq: 31469 Hz Clock: 28.320 MHz
  640x480@60Hz 4:3 HorFreq: 31469 Hz Clock: 25.175 MHz
  640x480@75Hz 4:3 HorFreq: 37500 Hz Clock: 31.500 MHz
  800x600@60Hz 4:3 HorFreq: 37900 Hz Clock: 40.000 MHz
  800x600@75Hz 4:3 HorFreq: 46900 Hz Clock: 49.500 MHz
  1024x768@60Hz 4:3 HorFreq: 48400 Hz Clock: 65.000 MHz
  1024x768@70Hz 4:3 HorFreq: 56500 Hz Clock: 75.000 MHz
  1024x768@75Hz 4:3 HorFreq: 60000 Hz Clock: 78.750 MHz
  1280x1024@75Hz 5:4 HorFreq: 80000 Hz Clock: 135.000 MHz
Standard timings supported:
  1280x720@60Hz 16:9
  1280x960@60Hz 4:3 HorFreq: 60000 Hz Clock: 108.000 MHz
  1280x1024@60Hz 5:4 HorFreq: 64000 Hz Clock: 108.000 MHz
  1680x1050@60Hz 16:10 HorFreq: 64700 Hz Clock: 119.000 MHz
  1600x900@60Hz 16:9
  1920x1080@60Hz 16:9
Detailed mode: Clock 148.500 MHz, 597 mm x 336 mm
               1920 1968 2000 2200 hborder 0
               1080 1083 1088 1125 vborder 0
               +hsync -vsync 
               VertFreq: 60 Hz, HorFreq: 67500 Hz
Detailed mode: Clock 85.500 MHz, 597 mm x 336 mm
               1360 1424 1536 1792 hborder 0
                768  771  777  795 vborder 0
               +hsync -vsync 
               VertFreq: 60 Hz, HorFreq: 47712 Hz
Monitor ranges (bare limits): 48-146Hz V, 162-162kHz H, max dotclock 360MHz
Monitor name: SFV2409
Has 1 extension blocks
Checksum: 0xed (valid)

CTA extension block
Extension version: 3
20 bytes of CTA data
  Video data block
    VIC   1 640x480@60Hz 4:3  HorFreq: 31469 Hz Clock: 25.175 MHz
    VIC   3 720x480@60Hz 16:9  HorFreq: 31469 Hz Clock: 27.000 MHz
    VIC  18 720x576@50Hz 16:9  HorFreq: 31250 Hz Clock: 27.000 MHz
    VIC   7 1440x480i@60Hz 16:9  HorFreq: 15734 Hz Clock: 27.000 MHz
    VIC  22 1440x576i@50Hz 16:9  HorFreq: 15625 Hz Clock: 27.000 MHz
    VIC   4 1280x720@60Hz 16:9  HorFreq: 45000 Hz Clock: 74.250 MHz
    VIC  19 1280x720@50Hz 16:9  HorFreq: 37500 Hz Clock: 74.250 MHz
    VIC  16 1920x1080@60Hz 16:9 (native) HorFreq: 67500 Hz Clock: 148.500 MHz
    VIC  31 1920x1080@50Hz 16:9  HorFreq: 56250 Hz Clock: 148.500 MHz
    VIC   5 1920x1080i@60Hz 16:9  HorFreq: 33750 Hz Clock: 74.250 MHz
    VIC  20 1920x1080i@50Hz 16:9  HorFreq: 28125 Hz Clock: 74.250 MHz
  Audio data block
    Linear PCM, max channels 2
      Supported sample rates (kHz): 48 44.1 32
      Supported sample sizes (bits): 24 20 16
  Speaker allocation data block
    Speaker map:
      FL/FR - Front Left/Right
Basic audio support
Supports YCbCr 4:4:4
Supports YCbCr 4:2:2
4 native detailed modes
Detailed mode: Clock 332.750 MHz, 597 mm x 336 mm
               1920 1968 2000 2080 hborder 0
               1080 1083 1088 1111 vborder 0
               -hsync -vsync 
               VertFreq: 143 Hz, HorFreq: 159975 Hz
Detailed mode: Clock 285.500 MHz, 597 mm x 336 mm
               1920 1968 2000 2080 hborder 0
               1080 1083 1088 1144 vborder 0
               -hsync -vsync 
               VertFreq: 119 Hz, HorFreq: 137259 Hz
Detailed mode: Clock 119.000 MHz, 597 mm x 336 mm
               1680 1728 1760 1840 hborder 0
               1050 1053 1058 1080 vborder 0
               +hsync +vsync 
               VertFreq: 59 Hz, HorFreq: 64673 Hz
Detailed mode: Clock 108.000 MHz, 597 mm x 336 mm
               1600 1624 1704 1800 hborder 0
                900  901  904 1000 vborder 0
               -hsync -vsync 
               VertFreq: 60 Hz, HorFreq: 60000 Hz
Checksum: 0x60 (valid)

Warning: One or more of the timings is out of range of the Monitor Ranges:
  Vertical Freq: 50 - 143 Hz
  Horizontal Freq: 15625 - 159975 Hz
  Maximum Clock: 332.750 MHz
