
EDID (hex):
00ffffffffffff000daec31500000000
0a1801049522137802f2359e55529529
10505400000001010101010101010101
010101010101373680a0703820403020
350058c11000001a252480a070382040
3020350058c11000001a000000000000
00000000000000000000000000000002
000c33ff0f3c9615163696000000006c

Extracted contents:
header:          00 ff ff ff ff ff ff 00
serial number:   0d ae c3 15 00 00 00 00 0a 18
version:         01 04
basic params:    95 22 13 78 02
chroma info:     f2 35 9e 55 52 95 29 10 50 54
established:     00 00 00
standard:        01 01 01 01 01 01 01 01 01 01 01 01 01 01 01 01
descriptor 1:    37 36 80 a0 70 38 20 40 30 20 35 00 58 c1 10 00 00 1a
descriptor 2:    25 24 80 a0 70 38 20 40 30 20 35 00 58 c1 10 00 00 1a
descriptor 3:    00 00 00 00 00 00 00 00 00 00 00 00 00 00 00 00 00 00
descriptor 4:    00 00 00 02 00 0c 33 ff 0f 3c 96 15 16 36 96 00 00 00
extensions:      00
checksum:        6c

EDID version: 1.4
Manufacturer: CMN Model 15c3 Serial Number --
Made in week 10 of 2014
Digital display
6 bits per primary color channel
DisplayPort interface
Maximum image size: 34 cm x 19 cm
Gamma: 2.20
Supported color formats: RGB 4:4:4
First detailed timing includes the native pixel format and preferred refresh rate
Display x,y Chromaticity:
  Red:   0.6201, 0.3349
  Green: 0.3203, 0.5839
  Blue:  0.1601, 0.0654
  White: 0.3134, 0.3291
Established timings supported:
Standard timings supported:
Detailed mode: Clock 138.790 MHz, 344 mm x 193 mm
               1920 1968 2000 2080 hborder 0
               1080 1083 1088 1112 vborder 0
               +hsync -vsync 
               VertFreq: 60 Hz, HorFreq: 66725 Hz
Detailed mode: Clock 92.530 MHz, 344 mm x 193 mm
               1920 1968 2000 2080 hborder 0
               1080 1083 1088 1112 vborder 0
               +hsync -vsync 
               VertFreq: 40 Hz, HorFreq: 44485 Hz
Manufacturer-specified data, tag 0
Manufacturer-specified data, tag 2
Checksum: 0x6c (valid)
EDID block does NOT conform to EDID 1.4!
	Missing name descriptor
	Missing monitor ranges
