edid-decode (hex):

00 ff ff ff ff ff ff 00 28 9a 38 10 00 00 00 00
21 21 01 04 a5 1e 13 78 03 d7 25 94 58 5a 93 29
1d 50 54 00 00 00 01 01 01 01 01 01 01 01 01 01
01 01 01 01 01 01 42 3c 80 a0 70 b0 24 40 10 10
3e 00 2e bc 10 00 00 18 00 00 00 fd 00 28 3c 4b
4b 10 01 0a 20 20 20 20 20 20 00 00 00 fe 00 47
31 34 30 45 43 30 35 0a 20 20 20 20 00 00 00 fe
00 47 31 34 30 45 43 30 35 0a 20 20 20 20 00 8f

00 ff ff ff ff ff ff 00 28 9a 38 10 00 00 00 00
21 21 01 04 a5 1e 13 78 03 d7 25 94 58 5a 93 29
1d 50 54 00 00 00 01 01 01 01 01 01 01 01 01 01
01 01 01 01 01 01 42 3c 80 a0 70 b0 24 40 10 10
3e 00 2e bc 10 00 00 18 00 00 00 fd 00 28 3c 4b
4b 10 01 0a 20 20 20 20 20 20 00 00 00 fe 00 47
31 34 30 45 43 30 35 0a 20 20 20 20 00 00 00 fe
00 47 31 34 30 45 43 30 35 0a 20 20 20 20 00 8f

----------------

Block 0, Base EDID:
  EDID Structure Version & Revision: 1.4
  Vendor & Product Identification:
    Manufacturer: JDZ
    Model: 4152
    Made in: week 33 of 2023
  Basic Display Parameters & Features:
    Digital display
    Bits per primary color channel: 8
    DisplayPort interface
    Maximum image size: 30 cm x 19 cm
    Gamma: 2.20
    Supported color formats: RGB 4:4:4
    First detailed timing includes the native pixel format and preferred refresh rate
    Display is continuous frequency
  Color Characteristics:
    Red  : 0.5810, 0.3447
    Green: 0.3525, 0.5771
    Blue : 0.1601, 0.1152
    White: 0.3134, 0.3291
  Established Timings I & II: none
  Standard Timings: none
  Detailed Timing Descriptors:
    DTD 1:  1920x1200   60.002801 Hz  16:10    74.163 kHz    154.260000 MHz (302 mm x 188 mm)
                 Hfront   16 Hsync  16 Hback  128 Hpol N
                 Vfront    3 Vsync  14 Vback   19 Vpol N
    Display Range Limits:
      Monitor ranges (Bare Limits): 40-60 Hz V, 75-75 kHz H, max dotclock 160 MHz
    Alphanumeric Data String: 'G140EC05'
    Alphanumeric Data String: 'G140EC05'
Checksum: 0x8f

----------------

Block 1, Unknown EDID Extension Block 0x00:
  00 ff ff ff ff ff ff 00 28 9a 38 10 00 00 00 00 '........(.8.....'
  21 21 01 04 a5 1e 13 78 03 d7 25 94 58 5a 93 29 '!!.....x..%.XZ.)'
  1d 50 54 00 00 00 01 01 01 01 01 01 01 01 01 01 '.PT.............'
  01 01 01 01 01 01 42 3c 80 a0 70 b0 24 40 10 10 '......B<..p.$@..'
  3e 00 2e bc 10 00 00 18 00 00 00 fd 00 28 3c 4b '>............(<K'
  4b 10 01 0a 20 20 20 20 20 20 00 00 00 fe 00 47 'K...      .....G'
  31 34 30 45 43 30 35 0a 20 20 20 20 00 00 00 fe '140EC05.    ....'
  00 47 31 34 30 45 43 30 35 0a 20 20 20 20 00 8f '.G140EC05.    ..'
Checksum: 0x8f

----------------

Warnings:

Block 0, Base EDID:
  Missing Display Product Name.
EDID:
  Base EDID: Some timings are out of range of the Monitor Ranges:
    Horizontal Freq: 74.163 - 74.163 kHz (Monitor: 75.000 - 75.000 kHz)
    Could be due to a Monitor Range off-by-one rounding issue

Failures:

Block 1, Base EDID:
  Unknown Extension Block.
EDID:
  Base EDID: EDID specified 0 extension block(s), but found 1 extension block(s).

EDID conformity: FAIL
