
EDID (hex):
00ffffffffffff00220e0f3601010101
111d010380361e782a9055a75553a028
135054a10800d1c0a9c081c0b3009500
8100d1d9d1e8023a801871382d40582c
4500202f2100001e000000fd0030f01e
ff3c000a202020202020000000fc004f
4d454e2058203235660a2020000000ff
00434e4b393137303146510a20200108
020332f149901f041303120211012309
07078301000067030c001000004467d8
5dc401788000681a0000010130f0ede2
002b5a8780a070384d4030203500202f
2100001a909780a07038564030203500
202f2100001a5cc180a070386e403020
3500202f2100001aa1dd807870385040
1c20980c202f2100001a00000000008e

Extracted contents:
header:          00 ff ff ff ff ff ff 00
serial number:   22 0e 0f 36 01 01 01 01 11 1d
version:         01 03
basic params:    80 36 1e 78 2a
chroma info:     90 55 a7 55 53 a0 28 13 50 54
established:     a1 08 00
standard:        d1 c0 a9 c0 81 c0 b3 00 95 00 81 00 d1 d9 d1 e8
descriptor 1:    02 3a 80 18 71 38 2d 40 58 2c 45 00 20 2f 21 00 00 1e
descriptor 2:    00 00 00 fd 00 30 f0 1e ff 3c 00 0a 20 20 20 20 20 20
descriptor 3:    00 00 00 fc 00 4f 4d 45 4e 20 58 20 32 35 66 0a 20 20
descriptor 4:    00 00 00 ff 00 43 4e 4b 39 31 37 30 31 46 51 0a 20 20
extensions:      01
checksum:        08

EDID version: 1.3
Manufacturer: HPN Model 360f Serial Number --
Made in week 17 of 2019
Digital display
Maximum image size: 54 cm x 30 cm
Gamma: 2.20
DPMS levels: Off
RGB color display
First detailed timing is preferred timing
Display x,y Chromaticity:
  Red:   0.6542, 0.3330
  Green: 0.3242, 0.6250
  Blue:  0.1572, 0.0751
  White: 0.3134, 0.3291
Established timings supported:
  720x400@70Hz 9:5 HorFreq: 31469 Hz Clock: 28.320 MHz
  640x480@60Hz 4:3 HorFreq: 31469 Hz Clock: 25.175 MHz
  800x600@60Hz 4:3 HorFreq: 37900 Hz Clock: 40.000 MHz
  1024x768@60Hz 4:3 HorFreq: 48400 Hz Clock: 65.000 MHz
Standard timings supported:
  1920x1080@60Hz 16:9
  1600x900@60Hz 16:9
  1280x720@60Hz 16:9
  1680x1050@60Hz 16:10 HorFreq: 64700 Hz Clock: 119.000 MHz
  1440x900@60Hz 16:10 HorFreq: 55500 Hz Clock: 88.750 MHz
  1280x800@60Hz 16:10
  1920x1080@85Hz 16:9
  1920x1080@100Hz 16:9
Detailed mode: Clock 148.500 MHz, 544 mm x 303 mm
               1920 2008 2052 2200 hborder 0
               1080 1084 1089 1125 vborder 0
               +hsync +vsync 
               VertFreq: 60 Hz, HorFreq: 67500 Hz
Monitor ranges (GTF): 48-240Hz V, 30-255kHz H, max dotclock 600MHz
Monitor name: OMEN X 25f
Serial number: --
Has 1 extension blocks
Checksum: 0x8 (valid)

CTA extension block
Extension version: 3
46 bytes of CTA data
  Video data block
    VIC  16 1920x1080@60Hz 16:9 (native) HorFreq: 67500 Hz Clock: 148.500 MHz
    VIC  31 1920x1080@50Hz 16:9  HorFreq: 56250 Hz Clock: 148.500 MHz
    VIC   4 1280x720@60Hz 16:9  HorFreq: 45000 Hz Clock: 74.250 MHz
    VIC  19 1280x720@50Hz 16:9  HorFreq: 37500 Hz Clock: 74.250 MHz
    VIC   3 720x480@60Hz 16:9  HorFreq: 31469 Hz Clock: 27.000 MHz
    VIC  18 720x576@50Hz 16:9  HorFreq: 31250 Hz Clock: 27.000 MHz
    VIC   2 720x480@60Hz 4:3  HorFreq: 31469 Hz Clock: 27.000 MHz
    VIC  17 720x576@50Hz 4:3  HorFreq: 31250 Hz Clock: 27.000 MHz
    VIC   1 640x480@60Hz 4:3  HorFreq: 31469 Hz Clock: 25.175 MHz
  Audio data block
    Linear PCM, max channels 2
      Supported sample rates (kHz): 48 44.1 32
      Supported sample sizes (bits): 24 20 16
  Speaker allocation data block
    Speaker map:
      FL/FR - Front Left/Right
  Vendor-specific data block, OUI 000c03 (HDMI)
    Source physical address 1.0.0.0
    Maximum TMDS clock: 340MHz
  Vendor-specific data block, OUI c45dd8 (HDMI Forum)
    Version: 1
    Maximum TMDS Character Rate: 600MHz
    SCDC Present
  Vendor-specific data block, OUI 00001a
  Extended tag: Video capability data block
    YCbCr quantization: No Data (0)
    RGB quantization: No Data (0)
    PT scan behaviour: Always Underscanned (2)
    IT scan behaviour: Always Underscanned (2)
    CE scan behaviour: Support both over- and underscan (3)
Underscans PC formats by default
Basic audio support
Supports YCbCr 4:4:4
Supports YCbCr 4:2:2
1 native detailed modes
Detailed mode: Clock 346.500 MHz, 544 mm x 303 mm
               1920 1968 2000 2080 hborder 0
               1080 1083 1088 1157 vborder 0
               +hsync -vsync 
               VertFreq: 143 Hz, HorFreq: 166586 Hz
Detailed mode: Clock 388.000 MHz, 544 mm x 303 mm
               1920 1968 2000 2080 hborder 0
               1080 1083 1088 1166 vborder 0
               +hsync -vsync 
               VertFreq: 159 Hz, HorFreq: 186538 Hz
Detailed mode: Clock 495.000 MHz, 544 mm x 303 mm
               1920 1968 2000 2080 hborder 0
               1080 1083 1088 1190 vborder 0
               +hsync -vsync 
               VertFreq: 199 Hz, HorFreq: 237980 Hz
Detailed mode: Clock 567.370 MHz, 544 mm x 303 mm
               1920 1948 1980 2040 hborder 0
               1080 1137 1145 1160 vborder 0
               +hsync -vsync 
               VertFreq: 239 Hz, HorFreq: 278122 Hz
Checksum: 0x8e (valid)

One or more of the timings is out of range of the Monitor Ranges:
  Vertical Freq: 50 - 239 Hz
  Horizontal Freq: 31250 - 278122 Hz
  Maximum Clock: 567.370 MHz
EDID block does not conform at all!
	Both the serial number and the serial string are set
