
EDID (hex):
00ffffffffffff000dae6c1700000000
181c0104a526157803ee95a3544c9926
0f505400000001010101010101010101
010101010101b43b804a713834403020
a5007dd61000001acd27804a71383440
3020a5007dd61000001a000000000000
00000000000000000000000000000002
000c33ff0f3c96121a42960000000032

Extracted contents:
header:          00 ff ff ff ff ff ff 00
serial number:   0d ae 6c 17 00 00 00 00 18 1c
version:         01 04
basic params:    a5 26 15 78 03
chroma info:     ee 95 a3 54 4c 99 26 0f 50 54
established:     00 00 00
standard:        01 01 01 01 01 01 01 01 01 01 01 01 01 01 01 01
descriptor 1:    b4 3b 80 4a 71 38 34 40 30 20 a5 00 7d d6 10 00 00 1a
descriptor 2:    cd 27 80 4a 71 38 34 40 30 20 a5 00 7d d6 10 00 00 1a
descriptor 3:    00 00 00 00 00 00 00 00 00 00 00 00 00 00 00 00 00 00
descriptor 4:    00 00 00 02 00 0c 33 ff 0f 3c 96 12 1a 42 96 00 00 00
extensions:      00
checksum:        32

EDID version: 1.4
Manufacturer: CMN Model 176c Serial Number --
Made in week 24 of 2018
Digital display
8 bits per primary color channel
DisplayPort interface
Maximum image size: 38 cm x 21 cm
Gamma: 2.20
Supported color formats: RGB 4:4:4
First detailed timing includes the native pixel format and preferred refresh rate
Display is continuous frequency
Display x,y Chromaticity:
  Red:   0.6396, 0.3300
  Green: 0.2998, 0.5996
  Blue:  0.1503, 0.0595
  White: 0.3134, 0.3291
Established timings supported:
Standard timings supported:
Detailed mode: Clock 152.840 MHz, 381 mm x 214 mm
               1920 1968 2000 2250 hborder 0
               1080 1090 1095 1132 vborder 0
               +hsync -vsync 
               VertFreq: 60 Hz, HorFreq: 67928 Hz
Detailed mode: Clock 101.890 MHz, 381 mm x 214 mm
               1920 1968 2000 2250 hborder 0
               1080 1090 1095 1132 vborder 0
               +hsync -vsync 
               VertFreq: 40 Hz, HorFreq: 45284 Hz
Manufacturer-specified data, tag 0
Manufacturer-specified data, tag 2
Checksum: 0x32 (valid)
EDID block does NOT conform to EDID 1.4!
	Missing name descriptor
	Missing monitor ranges
