
EDID (hex):
00ffffffffffff0030e4fc0300000000
00170104951f11780aa3e59659558e27
1f505400000001010101010101010101
010101010101482640a460841a303020
250035ae100000190000000000000000
00000000000000000000000000fe004c
4720446973706c61790a2020000000fe
004c503134305744322d54504231002a

Extracted contents:
header:          00 ff ff ff ff ff ff 00
serial number:   30 e4 fc 03 00 00 00 00 00 17
version:         01 04
basic params:    95 1f 11 78 0a
chroma info:     a3 e5 96 59 55 8e 27 1f 50 54
established:     00 00 00
standard:        01 01 01 01 01 01 01 01 01 01 01 01 01 01 01 01
descriptor 1:    48 26 40 a4 60 84 1a 30 30 20 25 00 35 ae 10 00 00 19
descriptor 2:    00 00 00 00 00 00 00 00 00 00 00 00 00 00 00 00 00 00
descriptor 3:    00 00 00 fe 00 4c 47 20 44 69 73 70 6c 61 79 0a 20 20
descriptor 4:    00 00 00 fe 00 4c 50 31 34 30 57 44 32 2d 54 50 42 31
extensions:      00
checksum:        2a

EDID version: 1.4
Manufacturer: LGD Model 3fc Serial Number --
Made in year 2013
Digital display
6 bits per primary color channel
DisplayPort interface
Maximum image size: 31 cm x 17 cm
Gamma: 2.20
Supported color formats: RGB 4:4:4, YCrCb 4:4:4
First detailed timing includes the native pixel format and preferred refresh rate
Display x,y Chromaticity:
  Red:   0.5878, 0.3496
  Green: 0.3320, 0.5576
  Blue:  0.1552, 0.1230
  White: 0.3134, 0.3291
Established timings supported:
Standard timings supported:
Detailed mode: Clock 98.000 MHz, 309 mm x 174 mm
               1600 1648 1680 1764 hborder 0
                900  902  907  926 vborder 0
               -hsync -vsync 
               VertFreq: 59 Hz, HorFreq: 55555 Hz
Manufacturer-specified data, tag 0
ASCII string: LG Display
ASCII string: LP140WD2-TPB1
Checksum: 0x2a (valid)
EDID block does NOT conform to EDID 1.4!
	Missing name descriptor
	Missing monitor ranges


