
EDID (hex):
00ffffffffffff0009e53a0900000000
0f1e0104a51d1178075435a7544b9c25
0f505400000001010101010101010101
010101010101b73980f070383c403020
360026a51000001a2c2e80f070383c40
3020360026a51000001a000000fe0034
50465630804e5631334e364c00000000
00024121a8001100000a010a2020007e

Extracted contents:
header:          00 ff ff ff ff ff ff 00
serial number:   09 e5 3a 09 00 00 00 00 0f 1e
version:         01 04
basic params:    a5 1d 11 78 07
chroma info:     54 35 a7 54 4b 9c 25 0f 50 54
established:     00 00 00
standard:        01 01 01 01 01 01 01 01 01 01 01 01 01 01 01 01
descriptor 1:    b7 39 80 f0 70 38 3c 40 30 20 36 00 26 a5 10 00 00 1a
descriptor 2:    2c 2e 80 f0 70 38 3c 40 30 20 36 00 26 a5 10 00 00 1a
descriptor 3:    00 00 00 fe 00 34 50 46 56 30 80 4e 56 31 33 4e 36 4c
descriptor 4:    00 00 00 00 00 02 41 21 a8 00 11 00 00 0a 01 0a 20 20
extensions:      00
checksum:        7e

EDID version: 1.4
Manufacturer: BOE Model 93a Serial Number --
Made in week 15 of 2020
Digital display
8 bits per primary color channel
DisplayPort interface
Maximum image size: 29 cm x 17 cm
Gamma: 2.20
Supported color formats: RGB 4:4:4
Default (sRGB) color space is primary color space
First detailed timing includes the native pixel format and preferred refresh rate
Display is continuous frequency
Display x,y Chromaticity:
  Red:   0.6533, 0.3291
  Green: 0.2939, 0.6093
  Blue:  0.1445, 0.0615
  White: 0.3134, 0.3291
Established timings supported:
Standard timings supported:
Detailed mode: Clock 147.750 MHz, 294 mm x 165 mm
               1920 1968 2000 2160 hborder 0
               1080 1083 1089 1140 vborder 0
               +hsync -vsync 
               VertFreq: 60 Hz, HorFreq: 68402 Hz
Detailed mode: Clock 118.200 MHz, 294 mm x 165 mm
               1920 1968 2000 2160 hborder 0
               1080 1083 1089 1140 vborder 0
               +hsync -vsync 
               VertFreq: 48 Hz, HorFreq: 54722 Hz
ASCII string: 4PFV0
Manufacturer-specified data, tag 0
Checksum: 0x7e (valid)
EDID block does NOT conform to EDID 1.4!
	sRGB is signaled, but the chromaticities do not match
	Missing name descriptor
	Missing monitor ranges
	Detailed block string not properly terminated
