
EDID (hex):
00ffffffffffff000469992401010101
111501031e351e78eab7d5a456549f27
0c5054330800818081409500a940b300
d1c001010101023a801871382d40582c
4500132b2100001e000000fd00324c1e
5311000a202020202020000000fc004d
4c3234390a20202020202020000000ff
0042344c4d51533034383533340a00bf

Extracted contents:
header:          00 ff ff ff ff ff ff 00
serial number:   04 69 99 24 01 01 01 01 11 15
version:         01 03
basic params:    1e 35 1e 78 ea
chroma info:     b7 d5 a4 56 54 9f 27 0c 50 54
established:     33 08 00
standard:        81 80 81 40 95 00 a9 40 b3 00 d1 c0 01 01 01 01
descriptor 1:    02 3a 80 18 71 38 2d 40 58 2c 45 00 13 2b 21 00 00 1e
descriptor 2:    00 00 00 fd 00 32 4c 1e 53 11 00 0a 20 20 20 20 20 20
descriptor 3:    00 00 00 fc 00 4d 4c 32 34 39 0a 20 20 20 20 20 20 20
descriptor 4:    00 00 00 ff 00 42 34 4c 4d 51 53 30 34 38 35 33 34 0a
extensions:      00
checksum:        bf

EDID version: 1.3
Manufacturer: ACI Model 2499 Serial Number --
Made in week 17 of 2011
Analog display, Input voltage level: 0.7/0.3 V
Configurable signal levels
Sync: Separate Composite SyncOnGreen 
Maximum image size: 53 cm x 30 cm
Gamma: 2.20
DPMS levels: Standby Suspend Off
RGB color display
First detailed timing is preferred timing
Display x,y Chromaticity:
  Red:   0.6425, 0.3388
  Green: 0.3291, 0.6240
  Blue:  0.1552, 0.0478
  White: 0.3134, 0.3291
Established timings supported:
  640x480@60Hz 4:3 HorFreq: 31469 Hz Clock: 25.175 MHz
  640x480@67Hz 4:3 HorFreq: 35000 Hz Clock: 30.240 MHz
  800x600@56Hz 4:3 HorFreq: 35200 Hz Clock: 36.000 MHz
  800x600@60Hz 4:3 HorFreq: 37900 Hz Clock: 40.000 MHz
  1024x768@60Hz 4:3 HorFreq: 48400 Hz Clock: 65.000 MHz
Standard timings supported:
  1280x1024@60Hz 5:4 HorFreq: 64000 Hz Clock: 108.000 MHz
  1280x960@60Hz 4:3 HorFreq: 60000 Hz Clock: 108.000 MHz
  1440x900@60Hz 16:10 HorFreq: 55500 Hz Clock: 88.750 MHz
  1600x1200@60Hz 4:3 HorFreq: 75000 Hz Clock: 162.000 MHz
  1680x1050@60Hz 16:10 HorFreq: 64700 Hz Clock: 119.000 MHz
  1920x1080@60Hz 16:9
Detailed mode: Clock 148.500 MHz, 531 mm x 299 mm
               1920 2008 2052 2200 hborder 0
               1080 1084 1089 1125 vborder 0
               +hsync +vsync 
               VertFreq: 60 Hz, HorFreq: 67500 Hz
Monitor ranges (GTF): 50-76Hz V, 30-83kHz H, max dotclock 170MHz
Monitor name: ML249
Serial number: --
Checksum: 0xbf (valid)
