
EDID (hex):
00ffffffffffff0009e5b80600000000
011a0104951d11780aa3f09959578c29
23505400000001010101010101010101
010101010101363680a0703820403020
350026a51000001a5e2b80a070382040
3020350026a51000001a000000fe0042
4f452048460a202020202020000000fe
004e5631333346484d2d4e34340a0007

Extracted contents:
header:          00 ff ff ff ff ff ff 00
serial number:   09 e5 b8 06 00 00 00 00 01 1a
version:         01 04
basic params:    95 1d 11 78 0a
chroma info:     a3 f0 99 59 57 8c 29 23 50 54
established:     00 00 00
standard:        01 01 01 01 01 01 01 01 01 01 01 01 01 01 01 01
descriptor 1:    36 36 80 a0 70 38 20 40 30 20 35 00 26 a5 10 00 00 1a
descriptor 2:    5e 2b 80 a0 70 38 20 40 30 20 35 00 26 a5 10 00 00 1a
descriptor 3:    00 00 00 fe 00 42 4f 45 20 48 46 0a 20 20 20 20 20 20
descriptor 4:    00 00 00 fe 00 4e 56 31 33 33 46 48 4d 2d 4e 34 34 0a
extensions:      00
checksum:        07

EDID version: 1.4
Manufacturer: BOE Model 6b8 Serial Number --
Made in week 1 of 2016
Digital display
6 bits per primary color channel
DisplayPort interface
Maximum image size: 29 cm x 17 cm
Gamma: 2.20
Supported color formats: RGB 4:4:4, YCrCb 4:4:4
First detailed timing includes the native pixel format and preferred refresh rate
Display x,y Chromaticity:
  Red:   0.5996, 0.3496
  Green: 0.3398, 0.5498
  Blue:  0.1630, 0.1396
  White: 0.3125, 0.3281
Established timings supported:
Standard timings supported:
Detailed mode: Clock 138.780 MHz, 294 mm x 165 mm
               1920 1968 2000 2080 hborder 0
               1080 1083 1088 1112 vborder 0
               +hsync -vsync 
               VertFreq: 60 Hz, HorFreq: 66721 Hz
Detailed mode: Clock 111.020 MHz, 294 mm x 165 mm
               1920 1968 2000 2080 hborder 0
               1080 1083 1088 1112 vborder 0
               +hsync -vsync 
               VertFreq: 47 Hz, HorFreq: 53375 Hz
ASCII string: BOE HF
ASCII string: NV133FHM-N44
Checksum: 0x7 (valid)
EDID block does NOT conform to EDID 1.4!
	Missing name descriptor
	Missing monitor ranges
