edid-decode (hex):

00 ff ff ff ff ff ff 00 5d f2 10 22 70 03 00 00
01 17 01 04 a5 00 00 78 e2 80 42 ac 51 30 b4 25
10 50 53 00 00 00 01 01 01 01 01 01 01 01 01 01
01 01 01 01 01 01 25 38 80 c8 70 38 32 40 21 42
80 01 07 44 21 00 00 1a c9 2e 80 c8 70 38 32 40
21 42 80 01 07 44 21 00 00 1a 00 00 00 fd 00 38
4c 1e 53 11 00 0a 20 20 20 20 20 20 00 00 00 fc
00 41 49 4f 20 50 43 20 32 32 31 30 0a 20 00 1b

----------------

Block 0, Base EDID:
  EDID Structure Version & Revision: 1.4
  Vendor & Product Identification:
    Manufacturer: WOR
    Model: 8720
    Serial Number: ...
    Made in: week 1 of 2013
  Basic Display Parameters & Features:
    Digital display
    Bits per primary color channel: 8
    DisplayPort interface
    Image size is variable
    Gamma: 2.20
    DPMS levels: Standby Suspend Off
    Supported color formats: RGB 4:4:4
    First detailed timing includes the native pixel format and preferred refresh rate
  Color Characteristics:
    Red  : 0.6738, 0.3164
    Green: 0.1875, 0.7031
    Blue : 0.1455, 0.0625
    White: 0.3125, 0.3261
  Established Timings I & II: none
  Standard Timings: none
  Detailed Timing Descriptors:
    DTD 1:  1920x1080   59.997495 Hz  16:9     67.797 kHz    143.730000 MHz (519 mm x 324 mm)
                 Hfront   33 Hsync  66 Hback  101 Hpol P
                 Vfront    8 Vsync  16 Vback   26 Vpol N
    DTD 2:  1920x1080   49.995826 Hz  16:9     56.495 kHz    119.770000 MHz (519 mm x 324 mm)
                 Hfront   33 Hsync  66 Hback  101 Hpol P
                 Vfront    8 Vsync  16 Vback   26 Vpol N
    Display Range Limits:
      Monitor ranges (GTF): 56-76 Hz V, 30-83 kHz H, max dotclock 170 MHz
    Display Product Name: 'AIO PC 2210'
Checksum: 0x1b

----------------

Warnings:

Block 0, Base EDID:
  Display Range Limits: GTF support is deprecated in EDID 1.4.
EDID:
  Base EDID: Some timings are out of range of the Monitor Ranges:
    Vertical Freq: 49.996 - 59.997 Hz (Monitor: 56.000 - 76.000 Hz)

Failures:

Block 0, Base EDID:
  Display Range Limits: GTF can't be combined with non-continuous frequencies.
EDID:
  Base EDID: The DTD max image size is 519x324mm, but the display size is not specified anywhere.

EDID conformity: FAIL
