
EDID (hex):
00ffffffffffff0009e5150600000000
01180104952213780afb0f955855912a
1e4f5600000001010101010101010101
010101010101641b5677500013303020
360035ad1000001aa21756b950002d30
3020360035ad1000001a000000fe0031
57374e48804e54313536574800000000
00004101940100000009010a20200066

Extracted contents:
header:          00 ff ff ff ff ff ff 00
serial number:   09 e5 15 06 00 00 00 00 01 18
version:         01 04
basic params:    95 22 13 78 0a
chroma info:     fb 0f 95 58 55 91 2a 1e 4f 56
established:     00 00 00
standard:        01 01 01 01 01 01 01 01 01 01 01 01 01 01 01 01
descriptor 1:    64 1b 56 77 50 00 13 30 30 20 36 00 35 ad 10 00 00 1a
descriptor 2:    a2 17 56 b9 50 00 2d 30 30 20 36 00 35 ad 10 00 00 1a
descriptor 3:    00 00 00 fe 00 31 57 37 4e 48 80 4e 54 31 35 36 57 48
descriptor 4:    00 00 00 00 00 00 41 01 94 01 00 00 00 09 01 0a 20 20
extensions:      00
checksum:        66

EDID version: 1.4
Manufacturer: BOE Model 615 Serial Number --
Made in week 1 of 2014
Digital display
6 bits per primary color channel
DisplayPort interface
Maximum image size: 34 cm x 19 cm
Gamma: 2.20
Supported color formats: RGB 4:4:4, YCrCb 4:4:4
First detailed timing includes the native pixel format and preferred refresh rate
Display x,y Chromaticity:
  Red:   0.5849, 0.3466
  Green: 0.3339, 0.5693
  Blue:  0.1640, 0.1171
  White: 0.3115, 0.3388
Established timings supported:
Standard timings supported:
Detailed mode: Clock 70.120 MHz, 309 mm x 173 mm
               1366 1414 1446 1485 hborder 0
                768  771  777  787 vborder 0
               +hsync -vsync 
               VertFreq: 59 Hz, HorFreq: 47218 Hz
Detailed mode: Clock 60.500 MHz, 309 mm x 173 mm
               1366 1414 1446 1551 hborder 0
                768  771  777  813 vborder 0
               +hsync -vsync 
               VertFreq: 47 Hz, HorFreq: 39007 Hz
ASCII string: 1W7NH
Manufacturer-specified data, tag 0
Checksum: 0x66 (valid)
EDID block does NOT conform to EDID 1.4!
	Missing name descriptor
	Missing monitor ranges
	Detailed block string not properly terminated
