
EDID (hex):
00ffffffffffff005a8b700200000000
241b0104a53c22783b8c75a954459822
1e5054a52b00714081c0818095c0a9c0
8140d1c0d100565e00a0a0a029503020
350055502100001a000000fd003090d7
d73c010a202020202020000000fc0056
494f54454b20474e3237440a000000ff
002020202020202020202020200a01aa
02031af14d90010203041112131f292f
3f40230907078301000021e400a0a0a0
33502040450055502100001a1cbe00a0
a0a033502040450055502100001aca9d
00a0a0a02d502040450055502100001a
388b801871382d40582c450055502100
001e0000000000000000000000000000
00000000000000000000000000000009

Extracted contents:
header:          00 ff ff ff ff ff ff 00
serial number:   5a 8b 70 02 00 00 00 00 24 1b
version:         01 04
basic params:    a5 3c 22 78 3b
chroma info:     8c 75 a9 54 45 98 22 1e 50 54
established:     a5 2b 00
standard:        71 40 81 c0 81 80 95 c0 a9 c0 81 40 d1 c0 d1 00
descriptor 1:    56 5e 00 a0 a0 a0 29 50 30 20 35 00 55 50 21 00 00 1a
descriptor 2:    00 00 00 fd 00 30 90 d7 d7 3c 01 0a 20 20 20 20 20 20
descriptor 3:    00 00 00 fc 00 56 49 4f 54 45 4b 20 47 4e 32 37 44 0a
descriptor 4:    00 00 00 ff 00 20 20 20 20 20 20 20 20 20 20 20 20 0a
extensions:      01
checksum:        aa

EDID version: 1.4
Manufacturer: VTK Model 270 Serial Number --
Made in week 36 of 2017
Digital display
8 bits per primary color channel
DisplayPort interface
Maximum image size: 60 cm x 34 cm
Gamma: 2.20
DPMS levels: Off
Supported color formats: RGB 4:4:4, YCrCb 4:4:4, YCrCb 4:2:2
First detailed timing includes the native pixel format and preferred refresh rate
Display is continuous frequency
Display x,y Chromaticity:
  Red:   0.6621, 0.3281
  Green: 0.2724, 0.5937
  Blue:  0.1337, 0.1201
  White: 0.3134, 0.3291
Established timings supported:
  720x400@70Hz 9:5 HorFreq: 31469 Hz Clock: 28.320 MHz
  640x480@60Hz 4:3 HorFreq: 31469 Hz Clock: 25.175 MHz
  640x480@75Hz 4:3 HorFreq: 37500 Hz Clock: 31.500 MHz
  800x600@60Hz 4:3 HorFreq: 37900 Hz Clock: 40.000 MHz
  832x624@75Hz 4:3 HorFreq: 49726 Hz Clock: 57.284 MHz
  1024x768@60Hz 4:3 HorFreq: 48400 Hz Clock: 65.000 MHz
  1024x768@75Hz 4:3 HorFreq: 60000 Hz Clock: 78.750 MHz
  1280x1024@75Hz 5:4 HorFreq: 80000 Hz Clock: 135.000 MHz
Standard timings supported:
  1152x864@60Hz 4:3
  1280x720@60Hz 16:9
  1280x1024@60Hz 5:4 HorFreq: 64000 Hz Clock: 108.000 MHz
  1440x810@60Hz 16:9
  1600x900@60Hz 16:9
  1280x960@60Hz 4:3 HorFreq: 60000 Hz Clock: 108.000 MHz
  1920x1080@60Hz 16:9
  1920x1200@60Hz 16:10 HorFreq: 74000 Hz Clock: 154.000 MHz
Detailed mode: Clock 241.500 MHz, 597 mm x 336 mm
               2560 2608 2640 2720 hborder 0
               1440 1443 1448 1481 vborder 0
               +hsync -vsync 
               VertFreq: 59 Hz, HorFreq: 88786 Hz
Monitor ranges (bare limits): 48-144Hz V, 215-215kHz H, max dotclock 600MHz
Monitor name: VIOTEK GN27D
Serial number:             
-- 1 extension blocks
Checksum: 0xaa (valid)

CTA extension block
Extension version: 3
22 bytes of CTA data
  Video data block
    VIC  16 1920x1080@60Hz 16:9 (native) HorFreq: 67500 Hz Clock: 148.500 MHz
    VIC   1 640x480@60Hz 4:3  HorFreq: 31469 Hz Clock: 25.175 MHz
    VIC   2 720x480@60Hz 4:3  HorFreq: 31469 Hz Clock: 27.000 MHz
    VIC   3 720x480@60Hz 16:9  HorFreq: 31469 Hz Clock: 27.000 MHz
    VIC   4 1280x720@60Hz 16:9  HorFreq: 45000 Hz Clock: 74.250 MHz
    VIC  17 720x576@50Hz 4:3  HorFreq: 31250 Hz Clock: 27.000 MHz
    VIC  18 720x576@50Hz 16:9  HorFreq: 31250 Hz Clock: 27.000 MHz
    VIC  19 1280x720@50Hz 16:9  HorFreq: 37500 Hz Clock: 74.250 MHz
    VIC  31 1920x1080@50Hz 16:9  HorFreq: 56250 Hz Clock: 148.500 MHz
    VIC  41 1280x720@100Hz 16:9  HorFreq: 75000 Hz Clock: 148.500 MHz
    VIC  47 1280x720@120Hz 16:9  HorFreq: 90000 Hz Clock: 148.500 MHz
    VIC  63 1920x1080@120Hz 16:9  HorFreq: 135000 Hz Clock: 297.000 MHz
    VIC  64 1920x1080@100Hz 16:9  HorFreq: 112500 Hz Clock: 297.000 MHz
  Audio data block
    Linear PCM, max channels 2
      Supported sample rates (kHz): 48 44.1 32
      Supported sample sizes (bits): 24 20 16
  Speaker allocation data block
    Speaker map:
      FL/FR - Front Left/Right
Underscans PC formats by default
Basic audio support
Supports YCbCr 4:4:4
Supports YCbCr 4:2:2
1 native detailed modes
Detailed mode: Clock 584.010 MHz, 597 mm x 336 mm
               2560 2592 2656 2720 hborder 0
               1440 1444 1449 1491 vborder 0
               +hsync -vsync 
               VertFreq: 144 Hz, HorFreq: 214709 Hz
Detailed mode: Clock 486.680 MHz, 597 mm x 336 mm
               2560 2592 2656 2720 hborder 0
               1440 1444 1449 1491 vborder 0
               +hsync -vsync 
               VertFreq: 120 Hz, HorFreq: 178926 Hz
Detailed mode: Clock 403.940 MHz, 597 mm x 336 mm
               2560 2592 2656 2720 hborder 0
               1440 1444 1449 1485 vborder 0
               +hsync -vsync 
               VertFreq: 100 Hz, HorFreq: 148507 Hz
Detailed mode: Clock 356.400 MHz, 597 mm x 336 mm
               1920 2008 2052 2200 hborder 0
               1080 1084 1089 1125 vborder 0
               +hsync +vsync 
               VertFreq: 144 Hz, HorFreq: 162000 Hz
Checksum: 0x9 (valid)

Warning: One or more of the timings is out of range of the Monitor Ranges:
  Vertical Freq: 50 - 144 Hz
  Horizontal Freq: 31250 - 214709 Hz
  Maximum Clock: 584.010 MHz
