
EDID (hex):
00ffffffffffff00410c3909ba0a0000
2e1e0104b56921783f7f25ad4f47a526
105054bfef00d1c0b300950081808140
81c0d1000101687300a0f0b01f403040
35001c494100001a000000ff00415530
32303436303032373436000000fc0050
484c203433395039480a2020000000fd
0030641e963c010a20202020202001fe
020322f14d61601f9014010304121305
0240230907078301000067030c003000
1878a24e00a0a0b02340302058041c49
4100001a58c000a0f0b01f4030403a00
1c494100001ad67400c8f0b023404420
58041c494100001a283c80a070b02340
302036001c494100001a000000000000
000000000000000000000000000000fd

Extracted contents:
header:          00 ff ff ff ff ff ff 00
serial number:   41 0c 39 09 ba 0a 00 00 2e 1e
version:         01 04
basic params:    b5 69 21 78 3f
chroma info:     7f 25 ad 4f 47 a5 26 10 50 54
established:     bf ef 00
standard:        d1 c0 b3 00 95 00 81 80 81 40 81 c0 d1 00 01 01
descriptor 1:    68 73 00 a0 f0 b0 1f 40 30 40 35 00 1c 49 41 00 00 1a
descriptor 2:    00 00 00 ff 00 41 55 30 32 30 34 36 30 30 32 37 34 36
descriptor 3:    00 00 00 fc 00 50 48 4c 20 34 33 39 50 39 48 0a 20 20
descriptor 4:    00 00 00 fd 00 30 64 1e 96 3c 01 0a 20 20 20 20 20 20
extensions:      01
checksum:        fe

EDID version: 1.4
Manufacturer: PHL Model 939 Serial Number --
Made in week 46 of 2020
Digital display
10 bits per primary color channel
DisplayPort interface
Maximum image size: 105 cm x 33 cm
Gamma: 2.20
DPMS levels: Off
Supported color formats: RGB 4:4:4, YCrCb 4:4:4, YCrCb 4:2:2
Default (sRGB) color space is primary color space
First detailed timing includes the native pixel format and preferred refresh rate
Display is continuous frequency
Display x,y Chromaticity:
  Red:   0.6767, 0.3115
  Green: 0.2802, 0.6474
  Blue:  0.1484, 0.0644
  White: 0.3134, 0.3291
Established timings supported:
  720x400@70Hz 9:5 HorFreq: 31469 Hz Clock: 28.320 MHz
  640x480@60Hz 4:3 HorFreq: 31469 Hz Clock: 25.175 MHz
  640x480@67Hz 4:3 HorFreq: 35000 Hz Clock: 30.240 MHz
  640x480@72Hz 4:3 HorFreq: 37900 Hz Clock: 31.500 MHz
  640x480@75Hz 4:3 HorFreq: 37500 Hz Clock: 31.500 MHz
  800x600@56Hz 4:3 HorFreq: 35200 Hz Clock: 36.000 MHz
  800x600@60Hz 4:3 HorFreq: 37900 Hz Clock: 40.000 MHz
  800x600@72Hz 4:3 HorFreq: 48100 Hz Clock: 50.000 MHz
  800x600@75Hz 4:3 HorFreq: 46900 Hz Clock: 49.500 MHz
  832x624@75Hz 4:3 HorFreq: 49726 Hz Clock: 57.284 MHz
  1024x768@60Hz 4:3 HorFreq: 48400 Hz Clock: 65.000 MHz
  1024x768@70Hz 4:3 HorFreq: 56500 Hz Clock: 75.000 MHz
  1024x768@75Hz 4:3 HorFreq: 60000 Hz Clock: 78.750 MHz
  1280x1024@75Hz 5:4 HorFreq: 80000 Hz Clock: 135.000 MHz
Standard timings supported:
  1920x1080@60Hz 16:9
  1680x1050@60Hz 16:10 HorFreq: 64700 Hz Clock: 119.000 MHz
  1440x900@60Hz 16:10 HorFreq: 55500 Hz Clock: 88.750 MHz
  1280x1024@60Hz 5:4 HorFreq: 64000 Hz Clock: 108.000 MHz
  1280x960@60Hz 4:3 HorFreq: 60000 Hz Clock: 108.000 MHz
  1280x720@60Hz 16:9
  1920x1200@60Hz 16:10 HorFreq: 74000 Hz Clock: 154.000 MHz
Detailed mode: Clock 295.440 MHz, 1052 mm x 329 mm
               3840 3888 3952 4000 hborder 0
               1200 1203 1208 1231 vborder 0
               +hsync -vsync 
               VertFreq: 60 Hz, HorFreq: 73860 Hz
Serial number: --
Monitor name: PHL 439P9H
Monitor ranges (bare limits): 48-100Hz V, 30-150kHz H, max dotclock 600MHz
Has 1 extension blocks
Checksum: 0xfe (valid)

CTA extension block
Extension version: 3
30 bytes of CTA data
  Video data block
    VIC  97 3840x2160@60Hz 16:9  HorFreq: 135000 Hz Clock: 594.000 MHz
    VIC  96 3840x2160@50Hz 16:9  HorFreq: 112500 Hz Clock: 594.000 MHz
    VIC  31 1920x1080@50Hz 16:9  HorFreq: 56250 Hz Clock: 148.500 MHz
    VIC  16 1920x1080@60Hz 16:9 (native) HorFreq: 67500 Hz Clock: 148.500 MHz
    VIC  20 1920x1080i@50Hz 16:9  HorFreq: 28125 Hz Clock: 74.250 MHz
    VIC   1 640x480@60Hz 4:3  HorFreq: 31469 Hz Clock: 25.175 MHz
    VIC   3 720x480@60Hz 16:9  HorFreq: 31469 Hz Clock: 27.000 MHz
    VIC   4 1280x720@60Hz 16:9  HorFreq: 45000 Hz Clock: 74.250 MHz
    VIC  18 720x576@50Hz 16:9  HorFreq: 31250 Hz Clock: 27.000 MHz
    VIC  19 1280x720@50Hz 16:9  HorFreq: 37500 Hz Clock: 74.250 MHz
    VIC   5 1920x1080i@60Hz 16:9  HorFreq: 33750 Hz Clock: 74.250 MHz
    VIC   2 720x480@60Hz 4:3  HorFreq: 31469 Hz Clock: 27.000 MHz
    VIC  64 1920x1080@100Hz 16:9  HorFreq: 112500 Hz Clock: 297.000 MHz
  Audio data block
    Linear PCM, max channels 2
      Supported sample rates (kHz): 48 44.1 32
      Supported sample sizes (bits): 24 20 16
  Speaker allocation data block
    Speaker map:
      FL/FR - Front Left/Right
  Vendor-specific data block, OUI 000c03 (HDMI)
    Source physical address 3.0.0.0
    DC_30bit
    DC_Y444
    Maximum TMDS clock: 600MHz
Underscans PC formats by default
Basic audio support
Supports YCbCr 4:4:4
Supports YCbCr 4:2:2
1 native detailed modes
Detailed mode: Clock 201.300 MHz, 1052 mm x 329 mm
               2560 2608 2640 2720 hborder 0
               1200 1221 1229 1235 vborder 0
               +hsync -vsync 
               VertFreq: 59 Hz, HorFreq: 74007 Hz
Detailed mode: Clock 492.400 MHz, 1052 mm x 329 mm
               3840 3888 3952 4000 hborder 0
               1200 1203 1213 1231 vborder 0
               +hsync -vsync 
               VertFreq: 100 Hz, HorFreq: 123100 Hz
Detailed mode: Clock 299.100 MHz, 1052 mm x 329 mm
               3840 3908 3940 4040 hborder 0
               1200 1221 1229 1235 vborder 0
               +hsync -vsync 
               VertFreq: 59 Hz, HorFreq: 74034 Hz
Detailed mode: Clock 154.000 MHz, 1052 mm x 329 mm
               1920 1968 2000 2080 hborder 0
               1200 1203 1209 1235 vborder 0
               +hsync -vsync 
               VertFreq: 59 Hz, HorFreq: 74038 Hz
Checksum: 0xfd (valid)

EDID block does NOT conform to EDID 1.4!
	sRGB is signaled, but the chromaticities do not match
	HDMI VSDB Max TMDS rate is > 340
Warning: One or more of the timings is out of range of the Monitor Ranges:
  Vertical Freq: 50 - 100 Hz
  Horizontal Freq: 28125 - 135000 Hz
  Maximum Clock: 594.000 MHz
EDID block does not conform at all!
	Both the serial number and the serial string are set


