
EDID (hex):
00ffffffffffff004dd9de0001010101
23100103085831782aee9da3544c9926
0f4f54a1080081800101010101010101
010101010101742778a0501a1e403020
340070ea3100001a662150b051001b30
4670360070ea3100001e000000fd0039
3f1d430b000a202020202020000000fc
00534f4e592054560a0a0a0a0a200036

Extracted contents:
header:          00 ff ff ff ff ff ff 00
serial number:   4d d9 de 00 01 01 01 01 23 10
version:         01 03
basic params:    08 58 31 78 2a
chroma info:     ee 9d a3 54 4c 99 26 0f 4f 54
established:     a1 08 00
standard:        81 80 01 01 01 01 01 01 01 01 01 01 01 01 01 01
descriptor 1:    74 27 78 a0 50 1a 1e 40 30 20 34 00 70 ea 31 00 00 1a
descriptor 2:    66 21 50 b0 51 00 1b 30 46 70 36 00 70 ea 31 00 00 1e
descriptor 3:    00 00 00 fd 00 39 3f 1d 43 0b 00 0a 20 20 20 20 20 20
descriptor 4:    00 00 00 fc 00 53 4f 4e 59 20 54 56 0a 0a 0a 0a 0a 20
extensions:      00
checksum:        36

EDID version: 1.3
Manufacturer: SNY Model de Serial Number --
Made in week 35 of 2006
Analog display, Input voltage level: 0.7/0.3 V
Sync: Separate 
Maximum image size: 88 cm x 49 cm
Gamma: 2.20
DPMS levels: Off
RGB color display
First detailed timing is preferred timing
Display x,y Chromaticity:
  Red:   0.6396, 0.3300
  Green: 0.2998, 0.5996
  Blue:  0.1503, 0.0595
  White: 0.3115, 0.3291
Established timings supported:
  720x400@70Hz 9:5 HorFreq: 31469 Hz Clock: 28.320 MHz
  640x480@60Hz 4:3 HorFreq: 31469 Hz Clock: 25.175 MHz
  800x600@60Hz 4:3 HorFreq: 37900 Hz Clock: 40.000 MHz
  1024x768@60Hz 4:3 HorFreq: 48400 Hz Clock: 65.000 MHz
Standard timings supported:
  1280x1024@60Hz 5:4 HorFreq: 64000 Hz Clock: 108.000 MHz
Detailed mode: Clock 101.000 MHz, 880 mm x 490 mm
               1400 1448 1480 1560 hborder 0
               1050 1053 1057 1080 vborder 0
               +hsync -vsync 
               VertFreq: 59 Hz, HorFreq: 64743 Hz
Detailed mode: Clock 85.500 MHz, 880 mm x 490 mm
               1360 1430 1542 1792 hborder 0
                768  771  777  795 vborder 0
               +hsync +vsync 
               VertFreq: 60 Hz, HorFreq: 47712 Hz
Monitor ranges (GTF): 57-63Hz V, 29-67kHz H, max dotclock 110MHz
Monitor name: SONY TV
Checksum: 0x36 (valid)
EDID block does NOT conform to EDID 1.3!
	Detailed block string not properly terminated
One or more of the timings is out of range of the Monitor Ranges:
  Vertical Freq: 59 - 70 Hz
  Horizontal Freq: 31469 - 64743 Hz
  Maximum Clock: 108.000 MHz


