edid-decode (hex):

00 ff ff ff ff ff ff 00 0d ae 48 12 00 00 00 00
0b 1d 01 04 95 19 11 78 03 67 75 98 59 53 90 27
1c 50 54 00 00 00 01 01 01 01 01 01 01 01 01 01
01 01 01 01 01 01 61 1f 56 56 50 90 0a 30 30 20
36 00 fd a9 00 00 00 1a eb 14 56 56 50 90 0a 30
30 20 36 00 fd a9 00 00 00 1a 00 00 00 00 00 00
00 00 00 00 00 00 00 00 00 00 00 00 00 00 00 02
00 0c 42 ff 0c 3c 75 07 0b 16 75 00 00 00 00 a3

00 ff ff ff ff ff ff 00 0d ae 48 12 00 00 00 00
0b 1d 01 04 95 19 11 78 03 67 75 98 59 53 90 27
1c 50 54 00 00 00 01 01 01 01 01 01 01 01 01 01
01 01 01 01 01 01 61 1f 56 56 50 90 0a 30 30 20
36 00 fd a9 00 00 00 1a eb 14 56 56 50 90 0a 30
30 20 36 00 fd a9 00 00 00 1a 00 00 00 00 00 00
00 00 00 00 00 00 00 00 00 00 00 00 00 00 00 02
00 0c 42 ff 0c 3c 75 07 0b 16 75 00 00 00 00 a3

----------------

Block 0, Base EDID:
  EDID Structure Version & Revision: 1.4
  Vendor & Product Identification:
    Manufacturer: CMN
    Model: 4680
    Made in: week 11 of 2019
  Basic Display Parameters & Features:
    Digital display
    Bits per primary color channel: 6
    DisplayPort interface
    Maximum image size: 25 cm x 17 cm
    Gamma: 2.20
    Supported color formats: RGB 4:4:4
    First detailed timing includes the native pixel format and preferred refresh rate
    Display is continuous frequency
  Color Characteristics:
    Red  : 0.5947, 0.3496
    Green: 0.3251, 0.5654
    Blue : 0.1533, 0.1123
    White: 0.3134, 0.3291
  Established Timings I & II: none
  Standard Timings: none
  Detailed Timing Descriptors:
    DTD 1:  1366x912    60.004004 Hz 683:456   55.324 kHz     80.330000 MHz (253 mm x 169 mm)
                 Hfront   48 Hsync  32 Hback    6 Hpol P
                 Vfront    3 Vsync   6 Vback    1 Vpol N
    DTD 2:  1366x912    40.000179 Hz 683:456   36.880 kHz     53.550000 MHz (253 mm x 169 mm)
                 Hfront   48 Hsync  32 Hback    6 Hpol P
                 Vfront    3 Vsync   6 Vback    1 Vpol N
    Empty Descriptor
    Manufacturer-Specified Display Descriptor (0x02): 00 02 00 0c 42 ff 0c 3c 75 07 0b 16 75 00 00 00 '....B..<u...u...'
Checksum: 0xa3

----------------

Block 1, Unknown EDID Extension Block 0x00:
  00 ff ff ff ff ff ff 00 0d ae 48 12 00 00 00 00 '..........H.....'
  0b 1d 01 04 95 19 11 78 03 67 75 98 59 53 90 27 '.......x.gu.YS.''
  1c 50 54 00 00 00 01 01 01 01 01 01 01 01 01 01 '.PT.............'
  01 01 01 01 01 01 61 1f 56 56 50 90 0a 30 30 20 '......a.VVP..00 '
  36 00 fd a9 00 00 00 1a eb 14 56 56 50 90 0a 30 '6.........VVP..0'
  30 20 36 00 fd a9 00 00 00 1a 00 00 00 00 00 00 '0 6.............'
  00 00 00 00 00 00 00 00 00 00 00 00 00 00 00 02 '................'
  00 0c 42 ff 0c 3c 75 07 0b 16 75 00 00 00 00 a3 '..B..<u...u.....'
Checksum: 0xa3

----------------

Warnings:

Block 0, Base EDID:
  Missing Display Product Name.

Failures:

Block 0, Base EDID:
  Empty Descriptor: Use Dummy Descriptor instead of all zeroes.
  Missing Display Range Limits Descriptor.
Block 1, Base EDID:
  Unknown Extension Block.
EDID:
  Base EDID: EDID specified 0 extension block(s), but found 1 extension block(s).

EDID conformity: FAIL
