
EDID (hex):
00ffffffffffff0009e5690600000000
01190104951d11780a0160a7574e9f24
15505400000001010101010101010101
010101010101363680a0703820403020
350026a51000001a5e2b80a070382040
3020350026a51000001a000000fe0032
44433552804e5631334e343300000000
00004101940010000009010a2020001e

Extracted contents:
header:          00 ff ff ff ff ff ff 00
serial number:   09 e5 69 06 00 00 00 00 01 19
version:         01 04
basic params:    95 1d 11 78 0a
chroma info:     01 60 a7 57 4e 9f 24 15 50 54
established:     00 00 00
standard:        01 01 01 01 01 01 01 01 01 01 01 01 01 01 01 01
descriptor 1:    36 36 80 a0 70 38 20 40 30 20 35 00 26 a5 10 00 00 1a
descriptor 2:    5e 2b 80 a0 70 38 20 40 30 20 35 00 26 a5 10 00 00 1a
descriptor 3:    00 00 00 fe 00 32 44 43 35 52 80 4e 56 31 33 4e 34 33
descriptor 4:    00 00 00 00 00 00 41 01 94 00 10 00 00 09 01 0a 20 20
extensions:      00
checksum:        1e

EDID version: 1.4
Manufacturer: BOE Model 669 Serial Number --
Made in week 1 of 2015
Digital display
6 bits per primary color channel
DisplayPort interface
Maximum image size: 29 cm x 17 cm
Gamma: 2.20
Supported color formats: RGB 4:4:4, YCrCb 4:4:4
First detailed timing includes the native pixel format and preferred refresh rate
Display x,y Chromaticity:
  Red:   0.6523, 0.3398
  Green: 0.3046, 0.6220
  Blue:  0.1416, 0.0839
  White: 0.3125, 0.3281
Established timings supported:
Standard timings supported:
Detailed mode: Clock 138.780 MHz, 294 mm x 165 mm
               1920 1968 2000 2080 hborder 0
               1080 1083 1088 1112 vborder 0
               +hsync -vsync 
               VertFreq: 60 Hz, HorFreq: 66721 Hz
Detailed mode: Clock 111.020 MHz, 294 mm x 165 mm
               1920 1968 2000 2080 hborder 0
               1080 1083 1088 1112 vborder 0
               +hsync -vsync 
               VertFreq: 47 Hz, HorFreq: 53375 Hz
ASCII string: 2DC5R
Manufacturer-specified data, tag 0
Checksum: 0x1e (valid)
EDID block does NOT conform to EDID 1.4!
	Missing name descriptor
	Missing monitor ranges
	Detailed block string not properly terminated
