
EDID (hex):
00ffffffffffff0010acfc935936c717
1c1b010380301b780a8260a756539c27
10505400000001010101010101010101
01010101010140388000713814403021
4200dc0c1100001e0000001000000000
00000000000000000000000000fc0049
6e737069726f6e2033323735000000fd
00324b365913000a2020212020200038

Extracted contents:
header:          00 ff ff ff ff ff ff 00
serial number:   10 ac fc 93 59 36 c7 17 1c 1b
version:         01 03
basic params:    80 30 1b 78 0a
chroma info:     82 60 a7 56 53 9c 27 10 50 54
established:     00 00 00
standard:        01 01 01 01 01 01 01 01 01 01 01 01 01 01 01 01
descriptor 1:    40 38 80 00 71 38 14 40 30 21 42 00 dc 0c 11 00 00 1e
descriptor 2:    00 00 00 10 00 00 00 00 00 00 00 00 00 00 00 00 00 00
descriptor 3:    00 00 00 fc 00 49 6e 73 70 69 72 6f 6e 20 33 32 37 35
descriptor 4:    00 00 00 fd 00 32 4b 36 59 13 00 0a 20 20 21 20 20 20
extensions:      00
checksum:        38

EDID version: 1.3
Manufacturer: DEL Model 93fc Serial Number --
Made in week 28 of 2017
Digital display
Maximum image size: 48 cm x 27 cm
Gamma: 2.20
RGB color display
First detailed timing is preferred timing
Display x,y Chromaticity:
  Red:   0.6542, 0.3359
  Green: 0.3242, 0.6113
  Blue:  0.1533, 0.0644
  White: 0.3125, 0.3281
Established timings supported:
Standard timings supported:
Detailed mode: Clock 144.000 MHz, 476 mm x 268 mm
               1920 1968 2001 2176 hborder 0
               1080 1084 1086 1100 vborder 0
               +hsync +vsync 
               VertFreq: 60 Hz, HorFreq: 66176 Hz
Dummy block
Monitor ranges (GTF): 50-75Hz V, 54-89kHz H, max dotclock 190MHz
Checksum: 0x38 (valid)
EDID block does NOT conform to EDID 1.3!
	Name descriptor not terminated with a newline
