edid-decode (hex):

00 ff ff ff ff ff ff 00 06 75 02 00 21 00 00 00
2d 18 01 03 68 00 00 78 0a 79 35 9d 48 53 4f 25
07 54 5d bf ef 80 90 c0 95 00 81 00 81 fc 61 7c
45 7c 81 40 81 80 bc 1b 00 a0 50 20 17 30 30 20
36 00 00 00 00 00 00 1a 00 00 00 fd 00 32 78 0f
64 0f 00 0a 20 20 20 20 20 20 00 00 00 ff 00 45
43 4c 4a 53 54 30 30 30 30 33 33 20 00 00 00 fc
00 41 53 55 53 2d 42 31 0a 20 20 20 20 20 00 65

00 ff ff ff ff ff ff 00 06 75 02 00 21 00 00 00
2d 18 01 03 68 00 00 78 0a 79 35 9d 48 53 4f 25
07 54 5d bf ef 80 90 c0 95 00 81 00 81 fc 61 7c
45 7c 81 40 81 80 bc 1b 00 a0 50 20 17 30 30 20
36 00 00 00 00 00 00 1a 00 00 00 fd 00 32 78 0f
64 0f 00 0a 20 20 20 20 20 20 00 00 00 ff 00 45
43 4c 4a 53 54 30 30 30 30 33 33 20 00 00 00 fc
00 41 53 55 53 2d 42 31 0a 20 20 20 20 20 00 65

----------------

Block 0, Base EDID:
  EDID Structure Version & Revision: 1.3
  Vendor & Product Identification:
    Manufacturer: ASU
    Model: 2
    Serial Number: ...
    Made in: week 45 of 2014
  Basic Display Parameters & Features:
    Analog display
    Signal Level Standard: 0.700 : 0.000 : 0.700 V p-p
    Blank level equals black level
    Sync: Separate
    Image size is variable
    Gamma: 2.20
    RGB color display
    First detailed timing is the preferred timing
  Color Characteristics:
    Red  : 0.6142, 0.2841
    Green: 0.3261, 0.3095
    Blue : 0.1445, 0.0302
    White: 0.3291, 0.3642
  Established Timings I & II:
    IBM     :   720x400    70.081663 Hz   9:5     31.467 kHz     28.320000 MHz
    DMT 0x04:   640x480    59.940476 Hz   4:3     31.469 kHz     25.175000 MHz
    Apple   :   640x480    66.666667 Hz   4:3     35.000 kHz     30.240000 MHz
    DMT 0x05:   640x480    72.808802 Hz   4:3     37.861 kHz     31.500000 MHz
    DMT 0x06:   640x480    75.000000 Hz   4:3     37.500 kHz     31.500000 MHz
    DMT 0x08:   800x600    56.250000 Hz   4:3     35.156 kHz     36.000000 MHz
    DMT 0x09:   800x600    60.316541 Hz   4:3     37.879 kHz     40.000000 MHz
    DMT 0x0a:   800x600    72.187572 Hz   4:3     48.077 kHz     50.000000 MHz
    DMT 0x0b:   800x600    75.000000 Hz   4:3     46.875 kHz     49.500000 MHz
    Apple   :   832x624    74.551266 Hz   4:3     49.726 kHz     57.284000 MHz
    DMT 0x10:  1024x768    60.003840 Hz   4:3     48.363 kHz     65.000000 MHz
    DMT 0x11:  1024x768    70.069359 Hz   4:3     56.476 kHz     75.000000 MHz
    DMT 0x12:  1024x768    75.028582 Hz   4:3     60.023 kHz     78.750000 MHz
    DMT 0x24:  1280x1024   75.024675 Hz   5:4     79.976 kHz    135.000000 MHz
    Apple   :  1152x870    75.061550 Hz 192:145   68.681 kHz    100.000000 MHz
  Standard Timings:
    GTF     :  1400x787    60.000134 Hz  16:9     48.900 kHz     89.585000 MHz
    DMT 0x2f:  1440x900    59.887445 Hz  16:10    55.935 kHz    106.500000 MHz
    DMT 0x1c:  1280x800    59.810326 Hz  16:10    49.702 kHz     83.500000 MHz
    GTF     :  1280x720   119.999881 Hz  16:9     92.640 kHz    161.564000 MHz
    GTF     :  1024x768   119.999931 Hz   4:3     98.760 kHz    139.054000 MHz
    GTF     :   800x600   119.999886 Hz   4:3     77.160 kHz     83.950000 MHz
    DMT 0x20:  1280x960    60.000000 Hz   4:3     60.000 kHz    108.000000 MHz
    DMT 0x23:  1280x1024   60.019740 Hz   5:4     63.981 kHz    108.000000 MHz
  Detailed Timing Descriptors:
    DTD 1:  1280x800    59.909545 Hz  16:10    49.306 kHz     71.000000 MHz
                 Hfront   48 Hsync  32 Hback   80 Hpol P
                 Vfront    3 Vsync   6 Vback   14 Vpol N
    Display Range Limits:
      Monitor ranges (GTF): 50-120 Hz V, 15-100 kHz H, max dotclock 150 MHz
    Display Product Serial Number: ...
    Display Product Name: 'ASUS-B1'
Checksum: 0x65

----------------

Block 1, Unknown EDID Extension Block 0x00:
  00 ff ff ff ff ff ff 00 06 75 02 00 21 00 00 00 '.........u..!...'
  2d 18 01 03 68 00 00 78 0a 79 35 9d 48 53 4f 25 '-...h..x.y5.HSO%'
  07 54 5d bf ef 80 90 c0 95 00 81 00 81 fc 61 7c '.T]...........a|'
  45 7c 81 40 81 80 bc 1b 00 a0 50 20 17 30 30 20 'E|.@......P .00 '
  36 00 00 00 00 00 00 1a 00 00 00 fd 00 32 78 0f '6............2x.'
  64 0f 00 0a 20 20 20 20 20 20 00 00 00 ff 00 45 'd...      .....E'
  43 4c 4a 53 54 30 30 30 30 33 33 20 00 00 00 fc 'CLJST000033 ....'
  00 41 53 55 53 2d 42 31 0a 20 20 20 20 20 00 65 '.ASUS-B1.     .e'
Checksum: 0x65

----------------

Warnings:

Block 0, Base EDID:
  Standard Timings: Standard Timing 1400x787 has a dubious odd vertical resolution.

Failures:

Block 0, Base EDID:
  Display Product Serial Number: ...
Block 1, Base EDID:
  Unknown Extension Block.
EDID:
  Base EDID: Some timings are out of range of the Monitor Ranges:
    Maximum Clock: 161.564 MHz (Monitor: 150.000 MHz)
  Base EDID: EDID specified 0 extension block(s), but found 1 extension block(s).

EDID conformity: FAIL
