
EDID (hex):
00ffffffffffff002c83090600000000
181b0104a51a0e780ae79fa354559926
1d4a5000000001010101010101010101
010101010101ad36801871380f400a0a
55000090100000180000000000000000
00000000000000000000000000000000
000000000000000000000000000000fe
004b443131364e3131333041303400f8

edid-decode (hex):

00 ff ff ff ff ff ff 00 2c 83 09 06 00 00 00 00
18 1b 01 04 a5 1a 0e 78 0a e7 9f a3 54 55 99 26
1d 4a 50 00 00 00 01 01 01 01 01 01 01 01 01 01
01 01 01 01 01 01 ad 36 80 18 71 38 0f 40 0a 0a
55 00 00 90 10 00 00 18 00 00 00 00 00 00 00 00
00 00 00 00 00 00 00 00 00 00 00 00 00 00 00 00
00 00 00 00 00 00 00 00 00 00 00 00 00 00 00 fe
00 4b 44 31 31 36 4e 31 31 33 30 41 30 34 00 f8

----------------

Block 0, Base EDID:
  EDID Structure Version & Revision: 1.4
  Vendor & Product Identification:
    Manufacturer: KDC
    Model: 1545
    Made in: week 24 of 2017
  Basic Display Parameters & Features:
    Digital display
    Bits per primary color channel: 8
    DisplayPort interface
    Maximum image size: 26 cm x 14 cm
    Gamma: 2.20
    Supported color formats: RGB 4:4:4, YCrCb 4:4:4
    First detailed timing includes the native pixel format and preferred refresh rate
  Color Characteristics:
    Red  : 0.6396, 0.3300
    Green: 0.3330, 0.6005
    Blue : 0.1503, 0.1142
    White: 0.2919, 0.3154
  Established Timings I & II: none
  Standard Timings: none
  Detailed Timing Descriptors:
    DTD 1:  1920x1080   58.102947 Hz  16:9     63.623 kHz    139.970000 MHz (256 mm x 144 mm)
                 Hfront   10 Hsync  10 Hback  260 Hpol N
                 Vfront    5 Vsync   5 Vback    5 Vpol N
    Empty Descriptor
    Empty Descriptor
    Alphanumeric Data String: 'KD116N1130A04'
Checksum: 0xf8
