
EDID (hex):
00ffffffffffff0022f0942534323343
0d0d010368221b78ea36ada2594c9724
175056a54f0081800101010101010101
010101010101302a009851002a403070
1300520e1100001e000000fd00384c1e
530e000a202020202020000000fc0068
702066313730330a20202020000000ff
00434e43474d30433332340a20200070

Extracted contents:
header:          00 ff ff ff ff ff ff 00
serial number:   22 f0 94 25 34 32 33 43 0d 0d
version:         01 03
basic params:    68 22 1b 78 ea
chroma info:     36 ad a2 59 4c 97 24 17 50 56
established:     a5 4f 00
standard:        81 80 01 01 01 01 01 01 01 01 01 01 01 01 01 01
descriptor 1:    30 2a 00 98 51 00 2a 40 30 70 13 00 52 0e 11 00 00 1e
descriptor 2:    00 00 00 fd 00 38 4c 1e 53 0e 00 0a 20 20 20 20 20 20
descriptor 3:    00 00 00 fc 00 68 70 20 66 31 37 30 33 0a 20 20 20 20
descriptor 4:    00 00 00 ff 00 43 4e 43 47 4d 30 43 33 32 34 0a 20 20
extensions:      00
checksum:        70

EDID version: 1.3
Manufacturer: HWP Model 2594 Serial Number --
Analog display, Input voltage level: 0.7/0.7 V
Sync: Separate 
Maximum image size: 34 cm x 27 cm
Gamma: 2.20
DPMS levels: Standby Suspend Off
RGB color display
First detailed timing is preferred timing
Display x,y Chromaticity:
  Red:   0.6328, 0.3505
  Green: 0.2978, 0.5917
  Blue:  0.1425, 0.0917
  White: 0.3154, 0.3369
Established timings supported:
  720x400@70Hz 9:5 HorFreq: 31469 Hz Clock: 28.320 MHz
  640x480@60Hz 4:3 HorFreq: 31469 Hz Clock: 25.175 MHz
  640x480@75Hz 4:3 HorFreq: 37500 Hz Clock: 31.500 MHz
  800x600@60Hz 4:3 HorFreq: 37900 Hz Clock: 40.000 MHz
  800x600@75Hz 4:3 HorFreq: 46900 Hz Clock: 49.500 MHz
  1024x768@60Hz 4:3 HorFreq: 48400 Hz Clock: 65.000 MHz
  1024x768@70Hz 4:3 HorFreq: 56500 Hz Clock: 75.000 MHz
  1024x768@75Hz 4:3 HorFreq: 60000 Hz Clock: 78.750 MHz
  1280x1024@75Hz 5:4 HorFreq: 80000 Hz Clock: 135.000 MHz
Standard timings supported:
  1280x1024@60Hz 5:4 HorFreq: 64000 Hz Clock: 108.000 MHz
Detailed mode: Clock 108.000 MHz, 338 mm x 270 mm
               1280 1328 1440 1688 hborder 0
               1024 1025 1028 1066 vborder 0
               +hsync +vsync 
               VertFreq: 60 Hz, HorFreq: 63981 Hz
Monitor ranges (GTF): 56-76Hz V, 30-83kHz H, max dotclock 140MHz
Monitor name: hp f1703
Serial number: --
Checksum: 0x70 (valid)
EDID block does not conform at all!
	Bad year of manufacture
