edid-decode (hex):

00 ff ff ff ff ff ff 00 0d af 22 12 00 00 00 00
0c 12 01 03 80 1a 10 78 0a 0d 60 8e 5a 5c 93 27
1e 50 54 00 00 00 01 01 01 01 01 01 01 01 01 01
01 01 01 01 01 01 11 1b 00 82 50 20 13 30 27 1a
24 00 05 a3 10 00 00 18 00 00 00 fe 00 4e 31 32
31 49 37 2d 4c 30 31 0a 20 20 00 00 00 fe 00 43
4d 4f 0a 20 20 20 20 20 20 20 20 20 00 00 00 fe
00 4e 31 32 31 49 37 2d 4c 30 31 0a 20 20 00 e6

----------------

Block 0, Base EDID:
  EDID Structure Version & Revision: 1.3
  Vendor & Product Identification:
    Manufacturer: CMO
    Model: 4642
    Made in: week 12 of 2008
  Basic Display Parameters & Features:
    Digital display
    Maximum image size: 26 cm x 16 cm
    Gamma: 2.20
    RGB color display
    First detailed timing is the preferred timing
  Color Characteristics:
    Red  : 0.5546, 0.3515
    Green: 0.3623, 0.5751
    Blue : 0.1533, 0.1191
    White: 0.3125, 0.3281
  Established Timings I & II: none
  Standard Timings: none
  Detailed Timing Descriptors:
    DTD 1:  1280x800    60.002251 Hz  16:10    49.142 kHz     69.290000 MHz (261 mm x 163 mm)
                 Hfront   39 Hsync  26 Hback   65 Hpol N
                 Vfront    2 Vsync   4 Vback   13 Vpol N
    Alphanumeric Data String: 'N121I7-L01'
    Alphanumeric Data String: 'CMO'
    Alphanumeric Data String: 'N121I7-L01'
Checksum: 0xe6

----------------

Failures:

Block 0, Base EDID:
  Missing Display Product Name.
  Missing Display Range Limits Descriptor.

EDID conformity: FAIL
