edid-decode (hex):

00 ff ff ff ff ff ff 00 5c 2d 50 21 01 01 01 01
12 22 01 03 0e 30 1b 78 ea 1e c5 ae 4f 34 b1 26
0e 50 54 25 4b 00 81 80 a9 40 d1 c0 71 4f 01 01
01 01 01 01 01 01 02 3a 80 18 71 38 2d 40 58 2c
45 00 dc 0c 11 00 00 1e b2 43 80 a0 70 38 1f 40
30 20 45 00 dc 0c 11 00 00 1e 00 00 00 fc 00 57
44 32 31 35 49 30 39 0a 20 20 20 20 00 00 00 fd
00 38 4c 1e 58 12 00 0a 20 20 20 20 20 20 00 f5

00 ff ff ff ff ff ff 00 5c 2d 50 21 01 01 01 01
12 22 01 03 0e 30 1b 78 ea 1e c5 ae 4f 34 b1 26
0e 50 54 25 4b 00 81 80 a9 40 d1 c0 71 4f 01 01
01 01 01 01 01 01 02 3a 80 18 71 38 2d 40 58 2c
45 00 dc 0c 11 00 00 1e b2 43 80 a0 70 38 1f 40
30 20 45 00 dc 0c 11 00 00 1e 00 00 00 fc 00 57
44 32 31 35 49 30 39 0a 20 20 20 20 00 00 00 fd
00 38 4c 1e 58 12 00 0a 20 20 20 20 20 20 00 f5

----------------

Block 0, Base EDID:
  EDID Structure Version & Revision: 1.3
  Vendor & Product Identification:
    Manufacturer: WAM
    Model: 8528
    Serial Number: ...
    Made in: week 18 of 2024
  Basic Display Parameters & Features:
    Analog display
    Signal Level Standard: 0.700 : 0.300 : 1.000 V p-p
    Blank level equals black level
    Sync: Separate Composite SyncOnGreen
    Maximum image size: 48 cm x 27 cm
    Gamma: 2.20
    DPMS levels: Standby Suspend Off
    RGB color display
    First detailed timing is the preferred timing
  Color Characteristics:
    Red  : 0.6796, 0.3095
    Green: 0.2060, 0.6933
    Blue : 0.1513, 0.0546
    White: 0.3134, 0.3291
  Established Timings I & II:
    DMT 0x04:   640x480    59.940476 Hz   4:3     31.469 kHz     25.175000 MHz
    DMT 0x06:   640x480    75.000000 Hz   4:3     37.500 kHz     31.500000 MHz
    DMT 0x09:   800x600    60.316541 Hz   4:3     37.879 kHz     40.000000 MHz
    DMT 0x0b:   800x600    75.000000 Hz   4:3     46.875 kHz     49.500000 MHz
    DMT 0x10:  1024x768    60.003840 Hz   4:3     48.363 kHz     65.000000 MHz
    DMT 0x12:  1024x768    75.028582 Hz   4:3     60.023 kHz     78.750000 MHz
    DMT 0x24:  1280x1024   75.024675 Hz   5:4     79.976 kHz    135.000000 MHz
  Standard Timings:
    DMT 0x23:  1280x1024   60.019740 Hz   5:4     63.981 kHz    108.000000 MHz
    DMT 0x33:  1600x1200   60.000000 Hz   4:3     75.000 kHz    162.000000 MHz
    DMT 0x52:  1920x1080   60.000000 Hz  16:9     67.500 kHz    148.500000 MHz
    DMT 0x15:  1152x864    75.000000 Hz   4:3     67.500 kHz    108.000000 MHz
  Detailed Timing Descriptors:
    DTD 1:  1920x1080   60.000000 Hz  16:9     67.500 kHz    148.500000 MHz (476 mm x 268 mm)
                 Hfront   88 Hsync  44 Hback  148 Hpol P
                 Vfront    4 Vsync   5 Vback   36 Vpol P
    DTD 2:  1920x1080   74.993076 Hz  16:9     83.317 kHz    173.300000 MHz (476 mm x 268 mm)
                 Hfront   48 Hsync  32 Hback   80 Hpol P
                 Vfront    4 Vsync   5 Vback   22 Vpol P
    Display Product Name: 'WD215I09'
    Display Range Limits:
      Monitor ranges (GTF): 56-76 Hz V, 30-88 kHz H, max dotclock 180 MHz
Checksum: 0xf5

----------------

Block 1, Unknown EDID Extension Block 0x00:
  00 ff ff ff ff ff ff 00 5c 2d 50 21 01 01 01 01 '........\-P!....'
  12 22 01 03 0e 30 1b 78 ea 1e c5 ae 4f 34 b1 26 '."...0.x....O4.&'
  0e 50 54 25 4b 00 81 80 a9 40 d1 c0 71 4f 01 01 '.PT%K....@..qO..'
  01 01 01 01 01 01 02 3a 80 18 71 38 2d 40 58 2c '.......:..q8-@X,'
  45 00 dc 0c 11 00 00 1e b2 43 80 a0 70 38 1f 40 'E........C..p8.@'
  30 20 45 00 dc 0c 11 00 00 1e 00 00 00 fc 00 57 '0 E............W'
  44 32 31 35 49 30 39 0a 20 20 20 20 00 00 00 fd 'D215I09.    ....'
  00 38 4c 1e 58 12 00 0a 20 20 20 20 20 20 00 f5 '.8L.X...      ..'
Checksum: 0xf5

----------------

Failures:

Block 1, Base EDID:
  Unknown Extension Block.
EDID:
  Base EDID: EDID specified 0 extension block(s), but found 1 extension block(s).

EDID conformity: FAIL
