edid-decode (hex):

00 ff ff ff ff ff ff 00 2a 59 50 18 00 00 00 00
25 18 01 03 60 22 13 78 ae b1 a5 a1 58 4f 95 26
16 50 54 a1 08 00 31 40 45 40 61 40 81 80 01 01
01 01 01 01 01 01 66 21 50 b0 51 00 1b 30 40 70
36 00 c4 fe 10 00 00 1e 00 00 00 ff 00 4e 55 4c
4c 0a 20 20 20 20 20 20 20 20 00 00 00 fd 00 37
4b 1e 51 09 00 0a 20 20 20 20 20 20 00 00 00 fc
00 41 6e 61 6c 6f 67 0a 20 20 20 20 20 20 00 ad

00 ff ff ff ff ff ff 00 2a 59 50 18 00 00 00 00
25 18 01 03 60 22 13 78 ae b1 a5 a1 58 4f 95 26
16 50 54 a1 08 00 31 40 45 40 61 40 81 80 01 01
01 01 01 01 01 01 66 21 50 b0 51 00 1b 30 40 70
36 00 c4 fe 10 00 00 1e 00 00 00 ff 00 4e 55 4c
4c 0a 20 20 20 20 20 20 20 20 00 00 00 fd 00 37
4b 1e 51 09 00 0a 20 20 20 20 20 20 00 00 00 fc
00 41 6e 61 6c 6f 67 0a 20 20 20 20 20 20 00 ad

----------------

Block 0, Base EDID:
  EDID Structure Version & Revision: 1.3
  Vendor & Product Identification:
    Manufacturer: JRY
    Model: 6224
    Made in: week 37 of 2014
  Basic Display Parameters & Features:
    Analog display
    Signal Level Standard: 0.700 : 0.000 : 0.700 V p-p
    Blank level equals black level
    Maximum image size: 34 cm x 19 cm
    Gamma: 2.20
    DPMS levels: Standby Off
    RGB color display
    Default (sRGB) color space is primary color space
    First detailed timing is the preferred timing
  Color Characteristics:
    Red  : 0.6308, 0.3466
    Green: 0.3085, 0.5830
    Blue : 0.1503, 0.0878
    White: 0.3134, 0.3291
  Established Timings I & II:
    IBM     :   720x400    70.081663 Hz   9:5     31.467 kHz     28.320000 MHz
    DMT 0x04:   640x480    59.940476 Hz   4:3     31.469 kHz     25.175000 MHz
    DMT 0x09:   800x600    60.316541 Hz   4:3     37.879 kHz     40.000000 MHz
    DMT 0x10:  1024x768    60.003840 Hz   4:3     48.363 kHz     65.000000 MHz
  Standard Timings:
    DMT 0x04:   640x480    59.940476 Hz   4:3     31.469 kHz     25.175000 MHz
    DMT 0x09:   800x600    60.316541 Hz   4:3     37.879 kHz     40.000000 MHz
    DMT 0x10:  1024x768    60.003840 Hz   4:3     48.363 kHz     65.000000 MHz
    DMT 0x23:  1280x1024   60.019740 Hz   5:4     63.981 kHz    108.000000 MHz
  Detailed Timing Descriptors:
    DTD 1:  1360x768    60.015162 Hz  85:48    47.712 kHz     85.500000 MHz (452 mm x 254 mm)
                 Hfront   64 Hsync 112 Hback  256 Hpol P
                 Vfront    3 Vsync   6 Vback   18 Vpol P
    Display Product Serial Number: ...
    Display Range Limits:
      Monitor ranges (GTF): 55-75 Hz V, 30-81 kHz H, max dotclock 90 MHz
    Display Product Name: 'Analog'
Checksum: 0xad

----------------

Block 1, Unknown EDID Extension Block 0x00:
  00 ff ff ff ff ff ff 00 2a 59 50 18 00 00 00 00 '........*YP.....'
  25 18 01 03 60 22 13 78 ae b1 a5 a1 58 4f 95 26 '%...`".x....XO.&'
  16 50 54 a1 08 00 31 40 45 40 61 40 81 80 01 01 '.PT...1@E@a@....'
  01 01 01 01 01 01 66 21 50 b0 51 00 1b 30 40 70 '......f!P.Q..0@p'
  36 00 c4 fe 10 00 00 1e 00 00 00 ff 00 4e 55 4c '6............NUL'
  4c 0a 20 20 20 20 20 20 20 20 00 00 00 fd 00 37 'L.        .....7'
  4b 1e 51 09 00 0a 20 20 20 20 20 20 00 00 00 fc 'K.Q...      ....'
  00 41 6e 61 6c 6f 67 0a 20 20 20 20 20 20 00 ad '.Analog.      ..'
Checksum: 0xad

----------------

Failures:

Block 0, Base EDID:
  Basic Display Parameters & Features: sRGB is signaled, but the chromaticities do not match.
  Detailed Timing Descriptor #1: Mismatch of image size 452x254 mm vs display size 340x190 mm.
Block 1, Base EDID:
  Unknown Extension Block.
EDID:
  Base EDID: Some timings are out of range of the Monitor Ranges:
    Maximum Clock: 108.000 MHz (Monitor: 90.000 MHz)
  Base EDID: The DTD max image size is 452x254mm, which is larger than the display size 340.0x190.0mm.
  Base EDID: EDID specified 0 extension block(s), but found 1 extension block(s).

EDID conformity: FAIL
