
EDID (hex):
00ffffffffffff0015c3191901010101
311101036c301e78ea0eb5aa5137ab25
145054bfef8081808140814f714f6159
45593159010121399030621a274068b0
3600da291100001c000000ff00323530
38393132370a20202020000000fd0031
5618520f000a202020202020000000fc
005332323331570a2020202020200010

Extracted contents:
header:          00 ff ff ff ff ff ff 00
serial number:   15 c3 19 19 01 01 01 01 31 11
version:         01 03
basic params:    6c 30 1e 78 ea
chroma info:     0e b5 aa 51 37 ab 25 14 50 54
established:     bf ef 80
standard:        81 80 81 40 81 4f 71 4f 61 59 45 59 31 59 01 01
descriptor 1:    21 39 90 30 62 1a 27 40 68 b0 36 00 da 29 11 00 00 1c
descriptor 2:    00 00 00 ff 00 32 35 30 38 39 31 32 37 0a 20 20 20 20
descriptor 3:    00 00 00 fd 00 31 56 18 52 0f 00 0a 20 20 20 20 20 20
descriptor 4:    00 00 00 fc 00 53 32 32 33 31 57 0a 20 20 20 20 20 20
extensions:      00
checksum:        10

EDID version: 1.3
Manufacturer: ENC Model 1919 Serial Number --
Made in week 49 of 2007
Analog display, Input voltage level: 0.7/0.7 V
Sync: Separate Composite 
Maximum image size: 48 cm x 30 cm
Gamma: 2.20
DPMS levels: Standby Suspend Off
RGB color display
First detailed timing is preferred timing
Display x,y Chromaticity:
  Red:   0.6640, 0.3164
  Green: 0.2177, 0.6699
  Blue:  0.1464, 0.0810
  White: 0.3134, 0.3291
Established timings supported:
  720x400@70Hz 9:5 HorFreq: 31469 Hz Clock: 28.320 MHz
  640x480@60Hz 4:3 HorFreq: 31469 Hz Clock: 25.175 MHz
  640x480@67Hz 4:3 HorFreq: 35000 Hz Clock: 30.240 MHz
  640x480@72Hz 4:3 HorFreq: 37900 Hz Clock: 31.500 MHz
  640x480@75Hz 4:3 HorFreq: 37500 Hz Clock: 31.500 MHz
  800x600@56Hz 4:3 HorFreq: 35200 Hz Clock: 36.000 MHz
  800x600@60Hz 4:3 HorFreq: 37900 Hz Clock: 40.000 MHz
  800x600@72Hz 4:3 HorFreq: 48100 Hz Clock: 50.000 MHz
  800x600@75Hz 4:3 HorFreq: 46900 Hz Clock: 49.500 MHz
  832x624@75Hz 4:3 HorFreq: 49726 Hz Clock: 57.284 MHz
  1024x768@60Hz 4:3 HorFreq: 48400 Hz Clock: 65.000 MHz
  1024x768@70Hz 4:3 HorFreq: 56500 Hz Clock: 75.000 MHz
  1024x768@75Hz 4:3 HorFreq: 60000 Hz Clock: 78.750 MHz
  1280x1024@75Hz 5:4 HorFreq: 80000 Hz Clock: 135.000 MHz
  1152x870@75Hz 192:145 HorFreq: 67500 Hz Clock: 108.000 MHz
Standard timings supported:
  1280x1024@60Hz 5:4 HorFreq: 64000 Hz Clock: 108.000 MHz
  1280x960@60Hz 4:3 HorFreq: 60000 Hz Clock: 108.000 MHz
  1280x960@75Hz 4:3
  1152x864@75Hz 4:3 HorFreq: 67500 Hz Clock: 108.000 MHz
  1024x768@85Hz 4:3 HorFreq: 68700 Hz Clock: 94.500 MHz
  800x600@85Hz 4:3 HorFreq: 53700 Hz Clock: 56.250 MHz
  640x480@85Hz 4:3 HorFreq: 43300 Hz Clock: 36.000 MHz
Detailed mode: Clock 146.250 MHz, 474 mm x 297 mm
               1680 1784 1960 2240 hborder 0
               1050 1053 1059 1089 vborder 0
               -hsync +vsync 
               VertFreq: 59 Hz, HorFreq: 65290 Hz
Serial number: --
Monitor ranges (GTF): 49-86Hz V, 24-82kHz H, max dotclock 150MHz
Monitor name: S2231W
Checksum: 0x10 (valid)
