
EDID (hex):
00ffffffffffff0022f0412801010101
27130103682c1978eeb7b5a655489d25
155054a1080081c08180950001010101
010101010101302a40c8608464301850
1300baf91000001e000000fd00304c18
5511000a202020202020000000fc0048
50204c4532303031770a2020000000ff
00434e543933393732354d0a20200004

Extracted contents:
header:          00 ff ff ff ff ff ff 00
serial number:   22 f0 41 28 01 01 01 01 27 13
version:         01 03
basic params:    68 2c 19 78 ee
chroma info:     b7 b5 a6 55 48 9d 25 15 50 54
established:     a1 08 00
standard:        81 c0 81 80 95 00 01 01 01 01 01 01 01 01 01 01
descriptor 1:    30 2a 40 c8 60 84 64 30 18 50 13 00 ba f9 10 00 00 1e
descriptor 2:    00 00 00 fd 00 30 4c 18 55 11 00 0a 20 20 20 20 20 20
descriptor 3:    00 00 00 fc 00 48 50 20 4c 45 32 30 30 31 77 0a 20 20
descriptor 4:    00 00 00 ff 00 43 4e 54 39 33 39 37 32 35 4d 0a 20 20
extensions:      00
checksum:        04

EDID version: 1.3
Manufacturer: HWP Model 2841 Serial Number --
Made in week 39 of 2009
Analog display, Input voltage level: 0.7/0.7 V
Sync: Separate 
Maximum image size: 44 cm x 25 cm
Gamma: 2.20
DPMS levels: Standby Suspend Off
RGB color display
Default (sRGB) color space is primary color space
First detailed timing is preferred timing
Display x,y Chromaticity:
  Red:   0.6503, 0.3349
  Green: 0.2822, 0.6162
  Blue:  0.1464, 0.0849
  White: 0.3134, 0.3291
Established timings supported:
  720x400@70Hz 9:5 HorFreq: 31469 Hz Clock: 28.320 MHz
  640x480@60Hz 4:3 HorFreq: 31469 Hz Clock: 25.175 MHz
  800x600@60Hz 4:3 HorFreq: 37900 Hz Clock: 40.000 MHz
  1024x768@60Hz 4:3 HorFreq: 48400 Hz Clock: 65.000 MHz
Standard timings supported:
  1280x720@60Hz 16:9
  1280x1024@60Hz 5:4 HorFreq: 64000 Hz Clock: 108.000 MHz
  1440x900@60Hz 16:10 HorFreq: 55500 Hz Clock: 88.750 MHz
Detailed mode: Clock 108.000 MHz, 442 mm x 249 mm
               1600 1624 1704 1800 hborder 0
                900  901  904 1000 vborder 0
               +hsync +vsync 
               VertFreq: 60 Hz, HorFreq: 60000 Hz
Monitor ranges (GTF): 48-76Hz V, 24-85kHz H, max dotclock 170MHz
Monitor name: HP LE2001w
Serial number: --
Checksum: 0x4 (valid)
EDID block does NOT conform to EDID 1.3!
	sRGB is signaled, but the chromaticities do not match
