edid-decode (hex):

00 ff ff ff ff ff ff 00 0d ae 5a 14 00 00 00 00
24 20 01 04 a5 1e 13 78 03 ee 95 a3 54 4c 99 26
0f 50 54 00 00 01 01 01 01 01 01 01 01 01 01 01
01 01 01 01 01 01 42 3c 80 a0 70 b0 24 40 30 20
a6 00 2d bc 10 00 00 1a 00 00 00 fd 00 30 3c 4a
4a 0f 01 0a 20 20 20 20 20 20 00 00 00 fe 00 38
30 4d 39 31 80 31 34 30 4a 4c 47 0a 00 00 00 00
00 02 41 11 a8 00 00 00 00 0a 41 0a 20 20 00 4e

00 ff ff ff ff ff ff 00 0d ae 5a 14 00 00 00 00
24 20 01 04 a5 1e 13 78 03 ee 95 a3 54 4c 99 26
0f 50 54 00 00 01 01 01 01 01 01 01 01 01 01 01
01 01 01 01 01 01 42 3c 80 a0 70 b0 24 40 30 20
a6 00 2d bc 10 00 00 1a 00 00 00 fd 00 30 3c 4a
4a 0f 01 0a 20 20 20 20 20 20 00 00 00 fe 00 38
30 4d 39 31 80 31 34 30 4a 4c 47 0a 00 00 00 00
00 02 41 11 a8 00 00 00 00 0a 41 0a 20 20 00 4e

----------------

Block 0, Base EDID:
  EDID Structure Version & Revision: 1.4
  Vendor & Product Identification:
    Manufacturer: CMN
    Model: 5210
    Made in: week 36 of 2022
  Basic Display Parameters & Features:
    Digital display
    Bits per primary color channel: 8
    DisplayPort interface
    Maximum image size: 30 cm x 19 cm
    Gamma: 2.20
    Supported color formats: RGB 4:4:4
    First detailed timing includes the native pixel format and preferred refresh rate
    Display is continuous frequency
  Color Characteristics:
    Red  : 0.6396, 0.3300
    Green: 0.2998, 0.5996
    Blue : 0.1503, 0.0595
    White: 0.3134, 0.3291
  Established Timings I & II:
  Standard Timings: none
  Detailed Timing Descriptors:
    DTD 1:  1920x1200   60.002801 Hz  16:10    74.163 kHz    154.260000 MHz (301 mm x 188 mm)
                 Hfront   48 Hsync  32 Hback   80 Hpol P
                 Vfront   10 Vsync   6 Vback   20 Vpol N
    Display Range Limits:
      Monitor ranges (Bare Limits): 48-60 Hz V, 74-74 kHz H, max dotclock 150 MHz
    Alphanumeric Data String: '80M91'
    Manufacturer-Specified Display Descriptor (0x00): 00 00 00 02 41 11 a8 00 00 00 00 0a 41 0a 20 20 '....A.......A.  '
Checksum: 0x4e

----------------

Block 1, Unknown EDID Extension Block 0x00:
  00 ff ff ff ff ff ff 00 0d ae 5a 14 00 00 00 00 '..........Z.....'
  24 20 01 04 a5 1e 13 78 03 ee 95 a3 54 4c 99 26 '$ .....x....TL.&'
  0f 50 54 00 00 01 01 01 01 01 01 01 01 01 01 01 '.PT.............'
  01 01 01 01 01 01 42 3c 80 a0 70 b0 24 40 30 20 '......B<..p.$@0 '
  a6 00 2d bc 10 00 00 1a 00 00 00 fd 00 30 3c 4a '..-..........0<J'
  4a 0f 01 0a 20 20 20 20 20 20 00 00 00 fe 00 38 'J...      .....8'
  30 4d 39 31 80 31 34 30 4a 4c 47 0a 00 00 00 00 '0M91.140JLG.....'
  00 02 41 11 a8 00 00 00 00 0a 41 0a 20 20 00 4e '..A.......A.  .N'
Checksum: 0x4e

----------------

Warnings:

Block 0, Base EDID:
  Missing Display Product Name.
EDID:
  Base EDID: Some timings are out of range of the Monitor Ranges:
    Maximum Clock: 154.260 MHz (Monitor: 150.000 MHz)
    Could be due to a Monitor Range off-by-one rounding issue

Failures:

Block 0, Base EDID:
  Alphanumeric Data String: Non-printable character.
Block 1, Base EDID:
  Unknown Extension Block.
EDID:
  Base EDID: EDID specified 0 extension block(s), but found 1 extension block(s).

EDID conformity: FAIL
