
EDID (hex):
00ffffffffffff000dae231100000000
00160104a5210e780a44b5a057599728
12505400000001010101010101010101
0101010101011027001e710022300c40
330050901000001a000000fe004e3134
344e47452d4534310a20000000fe0043
4d4e0a202020202020202020000000fe
004e3134344e47452d4534310a2000b1

Extracted contents:
header:          00 ff ff ff ff ff ff 00
serial number:   0d ae 23 11 00 00 00 00 00 16
version:         01 04
basic params:    a5 21 0e 78 0a
chroma info:     44 b5 a0 57 59 97 28 12 50 54
established:     00 00 00
standard:        01 01 01 01 01 01 01 01 01 01 01 01 01 01 01 01
descriptor 1:    10 27 00 1e 71 00 22 30 0c 40 33 00 50 90 10 00 00 1a
descriptor 2:    00 00 00 fe 00 4e 31 34 34 4e 47 45 2d 45 34 31 0a 20
descriptor 3:    00 00 00 fe 00 43 4d 4e 0a 20 20 20 20 20 20 20 20 20
descriptor 4:    00 00 00 fe 00 4e 31 34 34 4e 47 45 2d 45 34 31 0a 20
extensions:      00
checksum:        b1

EDID version: 1.4
Manufacturer: CMN Model 1123 Serial Number --
Made in year 2012
Digital display
8 bits per primary color channel
DisplayPort interface
Maximum image size: 33 cm x 14 cm
Gamma: 2.20
Supported color formats: RGB 4:4:4, YCrCb 4:4:4
First detailed timing includes the native pixel format and preferred refresh rate
Display x,y Chromaticity:
  Red:   0.6259, 0.3398
  Green: 0.3486, 0.5898
  Blue:  0.1582, 0.0732
  White: 0.3134, 0.3291
Established timings supported:
Standard timings supported:
Detailed mode: Clock 100.000 MHz, 336 mm x 144 mm
               1792 1804 1868 2078 hborder 0
                768  771  774  802 vborder 0
               +hsync -vsync 
               VertFreq: 60 Hz, HorFreq: 48123 Hz
ASCII string: N144NGE-E41
ASCII string: CMN
ASCII string: N144NGE-E41
Checksum: 0xb1 (valid)
EDID block does NOT conform to EDID 1.4!
	Missing name descriptor
	Missing monitor ranges
