
EDID (hex):
00ffffffffffff002270260249010000
2e110103803f25782ac581a3524a9c26
124747afce0081c081808bc001010101
010101010101662150b051001b304070
37003f432100001e0e1f008051001e30
408037003f042100001c000000fc0048
53502055332032360a202020000000fd
00324b0f4b08000a2020202020200188
02031971460304051213942309070783
01000065030c001000000000fe000a20
2020202020202020202020000000fe00
0a202020202020202020202020000000
fe000a20202020202020202020202000
0000fe000a2020202020202020202020
20000000fe000a202020202020202020
2020200000000000000000000000007c

Extracted contents:
header:          00 ff ff ff ff ff ff 00
serial number:   22 70 26 02 49 01 00 00 2e 11
version:         01 03
basic params:    80 3f 25 78 2a
chroma info:     c5 81 a3 52 4a 9c 26 12 47 47
established:     af ce 00
standard:        81 c0 81 80 8b c0 01 01 01 01 01 01 01 01 01 01
descriptor 1:    66 21 50 b0 51 00 1b 30 40 70 37 00 3f 43 21 00 00 1e
descriptor 2:    0e 1f 00 80 51 00 1e 30 40 80 37 00 3f 04 21 00 00 1c
descriptor 3:    00 00 00 fc 00 48 53 50 20 55 33 20 32 36 0a 20 20 20
descriptor 4:    00 00 00 fd 00 32 4b 0f 4b 08 00 0a 20 20 20 20 20 20
extensions:      01
checksum:        88

EDID version: 1.3
Manufacturer: HSP Model 226 Serial Number --
Made in week 46 of 2007
Digital display
Maximum image size: 63 cm x 37 cm
Gamma: 2.20
DPMS levels: Off
RGB color display
First detailed timing is preferred timing
Display x,y Chromaticity:
  Red:   0.6396, 0.3203
  Green: 0.2900, 0.6103
  Blue:  0.1503, 0.0703
  White: 0.2773, 0.2783
Established timings supported:
  720x400@70Hz 9:5 HorFreq: 31469 Hz Clock: 28.320 MHz
  640x480@60Hz 4:3 HorFreq: 31469 Hz Clock: 25.175 MHz
  640x480@72Hz 4:3 HorFreq: 37900 Hz Clock: 31.500 MHz
  640x480@75Hz 4:3 HorFreq: 37500 Hz Clock: 31.500 MHz
  800x600@56Hz 4:3 HorFreq: 35200 Hz Clock: 36.000 MHz
  800x600@60Hz 4:3 HorFreq: 37900 Hz Clock: 40.000 MHz
  800x600@72Hz 4:3 HorFreq: 48100 Hz Clock: 50.000 MHz
  800x600@75Hz 4:3 HorFreq: 46900 Hz Clock: 49.500 MHz
  1024x768@60Hz 4:3 HorFreq: 48400 Hz Clock: 65.000 MHz
  1024x768@70Hz 4:3 HorFreq: 56500 Hz Clock: 75.000 MHz
  1024x768@75Hz 4:3 HorFreq: 60000 Hz Clock: 78.750 MHz
Standard timings supported:
  1280x720@60Hz 16:9
  1280x1024@60Hz 5:4 HorFreq: 64000 Hz Clock: 108.000 MHz
  1360x765@60Hz 16:9
Detailed mode: Clock 85.500 MHz, 575 mm x 323 mm
               1360 1424 1536 1792 hborder 0
                768  771  778  795 vborder 0
               +hsync +vsync 
               VertFreq: 60 Hz, HorFreq: 47712 Hz
Detailed mode: Clock 79.500 MHz, 575 mm x 260 mm
               1280 1344 1472 1664 hborder 0
                768  771  778  798 vborder 0
               -hsync +vsync 
               VertFreq: 59 Hz, HorFreq: 47776 Hz
Monitor name: HSP U3 26
Monitor ranges (GTF): 50-75Hz V, 15-75kHz H, max dotclock 80MHz
Has 1 extension blocks
Checksum: 0x88 (valid)

CTA extension block
Extension version: 3
21 bytes of CTA data
  Video data block
    VIC   3 720x480@60Hz 16:9  HorFreq: 31469 Hz Clock: 27.000 MHz
    VIC   4 1280x720@60Hz 16:9  HorFreq: 45000 Hz Clock: 74.250 MHz
    VIC   5 1920x1080i@60Hz 16:9  HorFreq: 33750 Hz Clock: 74.250 MHz
    VIC  18 720x576@50Hz 16:9  HorFreq: 31250 Hz Clock: 27.000 MHz
    VIC  19 1280x720@50Hz 16:9  HorFreq: 37500 Hz Clock: 74.250 MHz
    VIC  20 1920x1080i@50Hz 16:9 (native) HorFreq: 28125 Hz Clock: 74.250 MHz
  Audio data block
    Linear PCM, max channels 2
      Supported sample rates (kHz): 48 44.1 32
      Supported sample sizes (bits): 24 20 16
  Speaker allocation data block
    Speaker map:
      FL/FR - Front Left/Right
  Vendor-specific data block, OUI 000c03 (HDMI)
    Source physical address 1.0.0.0
Basic audio support
Supports YCbCr 4:4:4
Supports YCbCr 4:2:2
1 native detailed modes
Checksum: 0x7c (valid)

One or more of the timings is out of range of the Monitor Ranges:
  Vertical Freq: 50 - 75 Hz
  Horizontal Freq: 28125 - 64000 Hz
  Maximum Clock: 108.000 MHz


