edid-decode (hex):

00 ff ff ff ff ff ff 00 1a b3 71 04 01 01 01 01
11 0d 01 03 80 26 1f 78 2a 2c 95 a6 58 4a 9a 26
21 50 54 a5 4e 00 81 80 01 01 01 01 01 01 01 01
01 01 01 01 01 01 30 2a 00 98 51 00 2a 40 30 70
13 00 78 2d 11 00 00 1e 00 00 00 fd 00 38 4b 1f
44 0b 00 0a 20 20 20 20 20 20 00 00 00 fc 00 58
31 39 2d 31 0a 20 20 20 20 20 20 20 00 00 00 ff
00 59 45 47 50 30 31 36 37 38 37 0a 20 20 00 fa

00 ff ff ff ff ff ff 00 1a b3 71 04 01 01 01 01
11 0d 01 03 80 26 1f 78 2a 2c 95 a6 58 4a 9a 26
21 50 54 a5 4e 00 81 80 01 01 01 01 01 01 01 01
01 01 01 01 01 01 30 2a 00 98 51 00 2a 40 30 70
13 00 78 2d 11 00 00 1e 00 00 00 fd 00 38 4b 1f
44 0b 00 0a 20 20 20 20 20 20 00 00 00 fc 00 58
31 39 2d 31 0a 20 20 20 20 20 20 20 00 00 00 ff
00 59 45 47 50 30 31 36 37 38 37 0a 20 20 00 fa

----------------

Block 0, Base EDID:
  EDID Structure Version & Revision: 1.3
  Vendor & Product Identification:
    Manufacturer: FUS
    Model: 1137
    Serial Number: ...
    Made in: week 17 of 2003
  Basic Display Parameters & Features:
    Digital display
    Maximum image size: 38 cm x 31 cm
    Gamma: 2.20
    DPMS levels: Off
    RGB color display
    First detailed timing is the preferred timing
  Color Characteristics:
    Red  : 0.6484, 0.3457
    Green: 0.2919, 0.6015
    Blue : 0.1503, 0.1298
    White: 0.3134, 0.3291
  Established Timings I & II:
    IBM     :   720x400    70.081663 Hz   9:5     31.467 kHz     28.320000 MHz
    DMT 0x04:   640x480    59.940476 Hz   4:3     31.469 kHz     25.175000 MHz
    DMT 0x06:   640x480    75.000000 Hz   4:3     37.500 kHz     31.500000 MHz
    DMT 0x09:   800x600    60.316541 Hz   4:3     37.879 kHz     40.000000 MHz
    DMT 0x0b:   800x600    75.000000 Hz   4:3     46.875 kHz     49.500000 MHz
    DMT 0x10:  1024x768    60.003840 Hz   4:3     48.363 kHz     65.000000 MHz
    DMT 0x11:  1024x768    70.069359 Hz   4:3     56.476 kHz     75.000000 MHz
    DMT 0x12:  1024x768    75.028582 Hz   4:3     60.023 kHz     78.750000 MHz
  Standard Timings:
    DMT 0x23:  1280x1024   60.019740 Hz   5:4     63.981 kHz    108.000000 MHz
  Detailed Timing Descriptors:
    DTD 1:  1280x1024   60.019740 Hz   5:4     63.981 kHz    108.000000 MHz (376 mm x 301 mm)
                 Hfront   48 Hsync 112 Hback  248 Hpol P
                 Vfront    1 Vsync   3 Vback   38 Vpol P
    Display Range Limits:
      Monitor ranges (GTF): 56-75 Hz V, 31-68 kHz H, max dotclock 110 MHz
    Display Product Name: 'X19-1'
    Display Product Serial Number: ...
Checksum: 0xfa

----------------

Block 1, Unknown EDID Extension Block 0x00:
  00 ff ff ff ff ff ff 00 1a b3 71 04 01 01 01 01 '..........q.....'
  11 0d 01 03 80 26 1f 78 2a 2c 95 a6 58 4a 9a 26 '.....&.x*,..XJ.&'
  21 50 54 a5 4e 00 81 80 01 01 01 01 01 01 01 01 '!PT.N...........'
  01 01 01 01 01 01 30 2a 00 98 51 00 2a 40 30 70 '......0*..Q.*@0p'
  13 00 78 2d 11 00 00 1e 00 00 00 fd 00 38 4b 1f '..x-.........8K.'
  44 0b 00 0a 20 20 20 20 20 20 00 00 00 fc 00 58 'D...      .....X'
  31 39 2d 31 0a 20 20 20 20 20 20 20 00 00 00 ff '19-1.       ....'
  00 59 45 47 50 30 31 36 37 38 37 0a 20 20 00 fa '.YEGP016787.  ..'
Checksum: 0xfa

----------------

Failures:

Block 1, Base EDID:
  Unknown Extension Block.
EDID:
  Base EDID: EDID specified 0 extension block(s), but found 1 extension block(s).

EDID conformity: FAIL
