
EDID (hex):
00ffffffffffff004c2d250035315141
270b0103681c15502afb99a1554b9724
11484cfff80031594559614071400101
010101010101f91520f830581f202040
13000bc81000001e000000fd0032781e
3707000a202020202020000000fc0053
796e634d61737465720a2020000000ff
00484a46523930303634340a20200052

Extracted contents:
header:          00 ff ff ff ff ff ff 00
serial number:   4c 2d 25 00 35 31 51 41 27 0b
version:         01 03
basic params:    68 1c 15 50 2a
chroma info:     fb 99 a1 55 4b 97 24 11 48 4c
established:     ff f8 00
standard:        31 59 45 59 61 40 71 40 01 01 01 01 01 01 01 01
descriptor 1:    f9 15 20 f8 30 58 1f 20 20 40 13 00 0b c8 10 00 00 1e
descriptor 2:    00 00 00 fd 00 32 78 1e 37 07 00 0a 20 20 20 20 20 20
descriptor 3:    00 00 00 fc 00 53 79 6e 63 4d 61 73 74 65 72 0a 20 20
descriptor 4:    00 00 00 ff 00 48 4a 46 52 39 30 30 36 34 34 0a 20 20
extensions:      00
checksum:        52

EDID version: 1.3
Manufacturer: SAM Model 25 Serial Number --
Analog display, Input voltage level: 0.7/0.7 V
Sync: Separate 
Maximum image size: 28 cm x 21 cm
Gamma: 1.80
DPMS levels: Off
RGB color display
First detailed timing is preferred timing
Display x,y Chromaticity:
  Red:   0.6318, 0.3349
  Green: 0.2949, 0.5927
  Blue:  0.1425, 0.0673
  White: 0.2832, 0.2978
Established timings supported:
  720x400@70Hz 9:5 HorFreq: 31469 Hz Clock: 28.320 MHz
  720x400@88Hz 9:5 HorFreq: 39500 Hz Clock: 35.500 MHz
  640x480@60Hz 4:3 HorFreq: 31469 Hz Clock: 25.175 MHz
  640x480@67Hz 4:3 HorFreq: 35000 Hz Clock: 30.240 MHz
  640x480@72Hz 4:3 HorFreq: 37900 Hz Clock: 31.500 MHz
  640x480@75Hz 4:3 HorFreq: 37500 Hz Clock: 31.500 MHz
  800x600@56Hz 4:3 HorFreq: 35200 Hz Clock: 36.000 MHz
  800x600@60Hz 4:3 HorFreq: 37900 Hz Clock: 40.000 MHz
  800x600@72Hz 4:3 HorFreq: 48100 Hz Clock: 50.000 MHz
  800x600@75Hz 4:3 HorFreq: 46900 Hz Clock: 49.500 MHz
  832x624@75Hz 4:3 HorFreq: 49726 Hz Clock: 57.284 MHz
  1280x768i@87Hz 5:3 HorFreq: 35522 Hz Clock: 44.900 MHz
  1024x768@60Hz 4:3 HorFreq: 48400 Hz Clock: 65.000 MHz
Standard timings supported:
  640x480@85Hz 4:3 HorFreq: 43300 Hz Clock: 36.000 MHz
  800x600@85Hz 4:3 HorFreq: 53700 Hz Clock: 56.250 MHz
  1024x768@60Hz 4:3 HorFreq: 48400 Hz Clock: 65.000 MHz
  1152x864@60Hz 4:3
Detailed mode: Clock 56.250 MHz, 267 mm x 200 mm
                800  832  896 1048 hborder 0
                600  601  604  631 vborder 0
               +hsync +vsync 
               VertFreq: 85 Hz, HorFreq: 53673 Hz
Monitor ranges (GTF): 50-120Hz V, 30-55kHz H, max dotclock 70MHz
Monitor name: SyncMaster
Serial number: --
Checksum: 0x52 (valid)
EDID block does not conform at all!
	Bad year of manufacture
