
EDID (hex):
00ffffffffffff002a59000200000000
06160103602c19788a0013a057499b26
10484eadcf008180818c818a818a8180
8b4095000101302a40c8608464301850
1300c7001100001c000000fc00323057
0a202020202020202020000000ff0030
3030303030310a2020202020000000fc
00416e616c6f670a20202020202000c3

Extracted contents:
header:          00 ff ff ff ff ff ff 00
serial number:   2a 59 00 02 00 00 00 00 06 16
version:         01 03
basic params:    60 2c 19 78 8a
chroma info:     00 13 a0 57 49 9b 26 10 48 4e
established:     ad cf 00
standard:        81 80 81 8c 81 8a 81 8a 81 80 8b 40 95 00 01 01
descriptor 1:    30 2a 40 c8 60 84 64 30 18 50 13 00 c7 00 11 00 00 1c
descriptor 2:    00 00 00 fc 00 32 30 57 0a 20 20 20 20 20 20 20 20 20
descriptor 3:    00 00 00 ff 00 30 30 30 30 30 30 31 0a 20 20 20 20 20
descriptor 4:    00 00 00 fc 00 41 6e 61 6c 6f 67 0a 20 20 20 20 20 20
extensions:      00
checksum:        c3

EDID version: 1.3
Manufacturer: JRY Model 200 Serial Number --
Made in week 6 of 2012
Analog display, Input voltage level: 0.7/0.7 V
Sync: 
Maximum image size: 44 cm x 25 cm
Gamma: 2.20
DPMS levels: Standby
RGB color display
First detailed timing is preferred timing
Display x,y Chromaticity:
  Red:   0.6250, 0.3398
  Green: 0.2851, 0.6054
  Blue:  0.1484, 0.0634
  White: 0.2812, 0.3076
Established timings supported:
  720x400@70Hz 9:5 HorFreq: 31469 Hz Clock: 28.320 MHz
  640x480@60Hz 4:3 HorFreq: 31469 Hz Clock: 25.175 MHz
  640x480@72Hz 4:3 HorFreq: 37900 Hz Clock: 31.500 MHz
  640x480@75Hz 4:3 HorFreq: 37500 Hz Clock: 31.500 MHz
  800x600@60Hz 4:3 HorFreq: 37900 Hz Clock: 40.000 MHz
  800x600@72Hz 4:3 HorFreq: 48100 Hz Clock: 50.000 MHz
  800x600@75Hz 4:3 HorFreq: 46900 Hz Clock: 49.500 MHz
  1024x768@60Hz 4:3 HorFreq: 48400 Hz Clock: 65.000 MHz
  1024x768@70Hz 4:3 HorFreq: 56500 Hz Clock: 75.000 MHz
  1024x768@75Hz 4:3 HorFreq: 60000 Hz Clock: 78.750 MHz
  1280x1024@75Hz 5:4 HorFreq: 80000 Hz Clock: 135.000 MHz
Standard timings supported:
  1280x1024@60Hz 5:4 HorFreq: 64000 Hz Clock: 108.000 MHz
  1280x1024@72Hz 5:4
  1280x1024@70Hz 5:4
  1280x1024@70Hz 5:4
  1280x1024@60Hz 5:4 HorFreq: 64000 Hz Clock: 108.000 MHz
  1360x1020@60Hz 4:3
  1440x900@60Hz 16:10 HorFreq: 55500 Hz Clock: 88.750 MHz
Detailed mode: Clock 108.000 MHz, 455 mm x 256 mm
               1600 1624 1704 1800 hborder 0
                900  901  904 1000 vborder 0
               -hsync +vsync 
               VertFreq: 60 Hz, HorFreq: 60000 Hz
Monitor name: 20W
Serial number: --
Checksum: 0xc3 (valid)
EDID block does NOT conform to EDID 1.3!
	Missing monitor ranges
