edid-decode (hex):

00 ff ff ff ff ff ff 00 30 f0 46 b9 00 00 00 00
00 0d 01 03 80 1e 17 78 0a 08 20 97 57 52 88 28
22 50 54 00 00 00 01 01 01 01 01 01 01 01 01 01
01 01 01 01 01 01 64 19 00 40 41 00 26 30 18 88
36 00 30 e4 10 00 00 18 64 19 00 40 41 00 26 30
18 88 36 00 30 e4 10 00 00 00 00 00 00 fe 00 46
31 31 32 34 00 31 35 30 58 30 39 0a 00 00 00 fe
00 c8 b8 a8 98 88 68 48 00 01 00 0a 20 20 00 4f

----------------

Block 0, Base EDID:
  EDID Structure Version & Revision: 1.3
  Vendor & Product Identification:
    Manufacturer: LGP
    Model: 47430
    Made in: 2003
  Basic Display Parameters & Features:
    Digital display
    Maximum image size: 30 cm x 23 cm
    Gamma: 2.20
    RGB color display
    First detailed timing is preferred timing
  Color Characteristics:
    Red  : 0.5898, 0.3398
    Green: 0.3222, 0.5312
    Blue : 0.1562, 0.1347
    White: 0.3125, 0.3281
  Established Timings I & II: none
  Standard Timings: none
  Detailed Timing Descriptors:
    DTD 1:  1024x768    60.004 Hz   4:3    48.363 kHz  65.000 MHz (304 mm x 228 mm)
                 Hfront   24 Hsync 136 Hback 160 Hpol N
                 Vfront    3 Vsync   6 Vback  29 Vpol N
    DTD 2:  1024x768    60.004 Hz   4:3    48.363 kHz  65.000 MHz (304 mm x 228 mm)
                 Hfront   24 Hsync 136 Hback 160 Hpol N
                 Vfront    3 Vsync   6 Vback  29 Vpol N
    SPWG Module Revision: 0
    SPWG Descriptor #3:
      SPWG PC Maker P/N: 'F1124'
      SPWG LCD Supplier EEDID Revision: 0
      SPWG Manufacturer P/N: '150X09'
    SPWG Descriptor #4:
      SMBUS Values: 0xc8 0xb8 0xa8 0x98 0x88 0x68 0x48 0x00
      LVDS Channels: 1
      Panel Self Test Not Present
Checksum: 0x4f
