
EDID (hex):
00ffffffffffff0030f046b900000000
000d0103801e17780a08209757528828
22505400000001010101010101010101
01010101010164190040410026301888
360030e4100000186419004041002630
1888360030e410000000000000fe0046
31313234003135305830390a000000fe
00c8b8a8988868480001000a2020004f

Extracted contents:
header:          00 ff ff ff ff ff ff 00
serial number:   30 f0 46 b9 00 00 00 00 00 0d
version:         01 03
basic params:    80 1e 17 78 0a
chroma info:     08 20 97 57 52 88 28 22 50 54
established:     00 00 00
standard:        01 01 01 01 01 01 01 01 01 01 01 01 01 01 01 01
descriptor 1:    64 19 00 40 41 00 26 30 18 88 36 00 30 e4 10 00 00 18
descriptor 2:    64 19 00 40 41 00 26 30 18 88 36 00 30 e4 10 00 00 00
descriptor 3:    00 00 00 fe 00 46 31 31 32 34 00 31 35 30 58 30 39 0a
descriptor 4:    00 00 00 fe 00 c8 b8 a8 98 88 68 48 00 01 00 0a 20 20
extensions:      00
checksum:        4f

EDID version: 1.3
Manufacturer: LGP Model b946 Serial Number --
Digital display
Maximum image size: 30 cm x 23 cm
Gamma: 2.20
RGB color display
First detailed timing is preferred timing
Display x,y Chromaticity:
  Red:   0.5898, 0.3398
  Green: 0.3222, 0.5312
  Blue:  0.1562, 0.1347
  White: 0.3125, 0.3281
Established timings supported:
Standard timings supported:
Detailed mode: Clock 65.000 MHz, 304 mm x 228 mm
               1024 1048 1184 1344 hborder 0
                768  771  777  806 vborder 0
               -hsync -vsync 
               VertFreq: 60 Hz, HorFreq: 48363 Hz
Detailed mode: Clock 65.000 MHz, 304 mm x 228 mm
               1024 1048 1184 1344 hborder 0
                768  771  777  806 vborder 0
               -hsync -vsync analog composite 
               VertFreq: 60 Hz, HorFreq: 48363 Hz
ASCII string: F1124
ASCII string: 
Checksum: 0x4f (valid)
EDID block does NOT conform to EDID 1.3!
	Missing name descriptor
	Missing monitor ranges
	Detailed block string not properly terminated
EDID block does not conform at all!
	Bad year of manufacture
