edid-decode (hex):

00 ff ff ff ff ff ff 00 22 70 00 00 00 00 00 00
17 20 01 03 08 30 1a 78 ea 5b 35 aa 53 46 97 23
1f 4b 59 bf ef 80 d1 c0 b3 00 a9 40 a9 c0 90 40
81 40 81 00 81 c0 1a 36 80 a0 70 38 1f 40 30 20
25 00 df 04 11 00 00 1a 00 00 00 ff 00 0a 20 20
20 20 20 20 20 20 20 20 20 20 00 00 00 fd 00 38
4b 1e 53 13 00 0a 20 20 20 20 20 20 00 00 00 fc
00 48 53 47 31 34 36 30 0a 20 20 20 20 20 00 7a

00 ff ff ff ff ff ff 00 22 70 00 00 00 00 00 00
17 20 01 03 08 30 1a 78 ea 5b 35 aa 53 46 97 23
1f 4b 59 bf ef 80 d1 c0 b3 00 a9 40 a9 c0 90 40
81 40 81 00 81 c0 1a 36 80 a0 70 38 1f 40 30 20
25 00 df 04 11 00 00 1a 00 00 00 ff 00 0a 20 20
20 20 20 20 20 20 20 20 20 20 00 00 00 fd 00 38
4b 1e 53 13 00 0a 20 20 20 20 20 20 00 00 00 fc
00 48 53 47 31 34 36 30 0a 20 20 20 20 20 00 7a

----------------

Block 0, Base EDID:
  EDID Structure Version & Revision: 1.3
  Vendor & Product Identification:
    Manufacturer: HSP
    Model: 0
    Made in: week 23 of 2022
  Basic Display Parameters & Features:
    Analog display
    Signal Level Standard: 0.700 : 0.300 : 1.000 V p-p
    Blank level equals black level
    Sync: Separate
    Maximum image size: 48 cm x 26 cm
    Gamma: 2.20
    DPMS levels: Standby Suspend Off
    RGB color display
    First detailed timing is the preferred timing
  Color Characteristics:
    Red  : 0.6650, 0.3251
    Green: 0.2753, 0.5927
    Blue : 0.1367, 0.1240
    White: 0.2939, 0.3486
  Established Timings I & II:
    IBM     :   720x400    70.081663 Hz   9:5     31.467 kHz     28.320000 MHz
    DMT 0x04:   640x480    59.940476 Hz   4:3     31.469 kHz     25.175000 MHz
    Apple   :   640x480    66.666667 Hz   4:3     35.000 kHz     30.240000 MHz
    DMT 0x05:   640x480    72.808802 Hz   4:3     37.861 kHz     31.500000 MHz
    DMT 0x06:   640x480    75.000000 Hz   4:3     37.500 kHz     31.500000 MHz
    DMT 0x08:   800x600    56.250000 Hz   4:3     35.156 kHz     36.000000 MHz
    DMT 0x09:   800x600    60.316541 Hz   4:3     37.879 kHz     40.000000 MHz
    DMT 0x0a:   800x600    72.187572 Hz   4:3     48.077 kHz     50.000000 MHz
    DMT 0x0b:   800x600    75.000000 Hz   4:3     46.875 kHz     49.500000 MHz
    Apple   :   832x624    74.551266 Hz   4:3     49.726 kHz     57.284000 MHz
    DMT 0x10:  1024x768    60.003840 Hz   4:3     48.363 kHz     65.000000 MHz
    DMT 0x11:  1024x768    70.069359 Hz   4:3     56.476 kHz     75.000000 MHz
    DMT 0x12:  1024x768    75.028582 Hz   4:3     60.023 kHz     78.750000 MHz
    DMT 0x24:  1280x1024   75.024675 Hz   5:4     79.976 kHz    135.000000 MHz
    Apple   :  1152x870    75.061550 Hz 192:145   68.681 kHz    100.000000 MHz
  Standard Timings:
    DMT 0x52:  1920x1080   60.000000 Hz  16:9     67.500 kHz    148.500000 MHz
    DMT 0x3a:  1680x1050   59.954250 Hz  16:10    65.290 kHz    146.250000 MHz
    DMT 0x33:  1600x1200   60.000000 Hz   4:3     75.000 kHz    162.000000 MHz
    DMT 0x53:  1600x900    60.000000 Hz  16:9     60.000 kHz    108.000000 MHz (RB)
    DMT 0x2a:  1400x1050   59.978442 Hz   4:3     65.317 kHz    121.750000 MHz
    DMT 0x20:  1280x960    60.000000 Hz   4:3     60.000 kHz    108.000000 MHz
    DMT 0x1c:  1280x800    59.810326 Hz  16:10    49.702 kHz     83.500000 MHz
    DMT 0x55:  1280x720    60.000000 Hz  16:9     45.000 kHz     74.250000 MHz
  Detailed Timing Descriptors:
    DTD 1:  1920x1080   59.933878 Hz  16:9     66.587 kHz    138.500000 MHz (479 mm x 260 mm)
                 Hfront   48 Hsync  32 Hback   80 Hpol P
                 Vfront    2 Vsync   5 Vback   24 Vpol N
    Display Product Serial Number: ...
    Display Range Limits:
      Monitor ranges (GTF): 56-75 Hz V, 30-83 kHz H, max dotclock 190 MHz
    Display Product Name: 'HSG1460'
Checksum: 0x7a

----------------

Block 1, Unknown EDID Extension Block 0x00:
  00 ff ff ff ff ff ff 00 22 70 00 00 00 00 00 00 '........"p......'
  17 20 01 03 08 30 1a 78 ea 5b 35 aa 53 46 97 23 '. ...0.x.[5.SF.#'
  1f 4b 59 bf ef 80 d1 c0 b3 00 a9 40 a9 c0 90 40 '.KY........@...@'
  81 40 81 00 81 c0 1a 36 80 a0 70 38 1f 40 30 20 '.@.....6..p8.@0 '
  25 00 df 04 11 00 00 1a 00 00 00 ff 00 0a 20 20 '%.............  '
  20 20 20 20 20 20 20 20 20 20 00 00 00 fd 00 38 '          .....8'
  4b 1e 53 13 00 0a 20 20 20 20 20 20 00 00 00 fc 'K.S...      ....'
  00 48 53 47 31 34 36 30 0a 20 20 20 20 20 00 7a '.HSG1460.     .z'
Checksum: 0x7a

----------------

Failures:

Block 0, Base EDID:
  Display Product Serial Number: ...
Block 1, Base EDID:
  Unknown Extension Block.
EDID:
  Base EDID: EDID specified 0 extension block(s), but found 1 extension block(s).

EDID conformity: FAIL
