
EDID (hex):
00ffffffffffff0004727d07fc060000
041f010380441d782a58e1ac4e48a525
0e5054bfef80d1c0b30095008180714f
81c08140a940b84700a0a0382d403040
3500a8202100001e000000fd00306438
b43c000a202020202020000000fc0045
493239324355520a20202020000000ff
00544c544545303031335a30310a0101
020346f14a0102030405101112131f23
097f078301000068030c001000384200
67d85dc401788803681a000001173064
ede20f01e6010200040011e305c201e6
060701625f22887700a0a0382d403040
3500a8202100001af82500a050382d40
30403500a8202100001aa65900a0a038
2d4030403500a8202100001a0000006c

Extracted contents:
header:          00 ff ff ff ff ff ff 00
serial number:   04 72 7d 07 fc 06 00 00 04 1f
version:         01 03
basic params:    80 44 1d 78 2a
chroma info:     58 e1 ac 4e 48 a5 25 0e 50 54
established:     bf ef 80
standard:        d1 c0 b3 00 95 00 81 80 71 4f 81 c0 81 40 a9 40
descriptor 1:    b8 47 00 a0 a0 38 2d 40 30 40 35 00 a8 20 21 00 00 1e
descriptor 2:    00 00 00 fd 00 30 64 38 b4 3c 00 0a 20 20 20 20 20 20
descriptor 3:    00 00 00 fc 00 45 49 32 39 32 43 55 52 0a 20 20 20 20
descriptor 4:    00 00 00 ff 00 54 4c 54 45 45 30 30 31 33 5a 30 31 0a
extensions:      01
checksum:        01

EDID version: 1.3
Manufacturer: ACR Model 77d Serial Number --
Made in week 4 of 2021
Digital display
Maximum image size: 68 cm x 29 cm
Gamma: 2.20
DPMS levels: Off
RGB color display
First detailed timing is preferred timing
Display x,y Chromaticity:
  Red:   0.6728, 0.3056
  Green: 0.2832, 0.6445
  Blue:  0.1474, 0.0566
  White: 0.3125, 0.3291
Established timings supported:
  720x400@70Hz 9:5 HorFreq: 31469 Hz Clock: 28.320 MHz
  640x480@60Hz 4:3 HorFreq: 31469 Hz Clock: 25.175 MHz
  640x480@67Hz 4:3 HorFreq: 35000 Hz Clock: 30.240 MHz
  640x480@72Hz 4:3 HorFreq: 37900 Hz Clock: 31.500 MHz
  640x480@75Hz 4:3 HorFreq: 37500 Hz Clock: 31.500 MHz
  800x600@56Hz 4:3 HorFreq: 35200 Hz Clock: 36.000 MHz
  800x600@60Hz 4:3 HorFreq: 37900 Hz Clock: 40.000 MHz
  800x600@72Hz 4:3 HorFreq: 48100 Hz Clock: 50.000 MHz
  800x600@75Hz 4:3 HorFreq: 46900 Hz Clock: 49.500 MHz
  832x624@75Hz 4:3 HorFreq: 49726 Hz Clock: 57.284 MHz
  1024x768@60Hz 4:3 HorFreq: 48400 Hz Clock: 65.000 MHz
  1024x768@70Hz 4:3 HorFreq: 56500 Hz Clock: 75.000 MHz
  1024x768@75Hz 4:3 HorFreq: 60000 Hz Clock: 78.750 MHz
  1280x1024@75Hz 5:4 HorFreq: 80000 Hz Clock: 135.000 MHz
  1152x870@75Hz 192:145 HorFreq: 67500 Hz Clock: 108.000 MHz
Standard timings supported:
  1920x1080@60Hz 16:9
  1680x1050@60Hz 16:10 HorFreq: 64700 Hz Clock: 119.000 MHz
  1440x900@60Hz 16:10 HorFreq: 55500 Hz Clock: 88.750 MHz
  1280x1024@60Hz 5:4 HorFreq: 64000 Hz Clock: 108.000 MHz
  1152x864@75Hz 4:3 HorFreq: 67500 Hz Clock: 108.000 MHz
  1280x720@60Hz 16:9
  1280x960@60Hz 4:3 HorFreq: 60000 Hz Clock: 108.000 MHz
  1600x1200@60Hz 4:3 HorFreq: 75000 Hz Clock: 162.000 MHz
Detailed mode: Clock 183.600 MHz, 680 mm x 288 mm
               2560 2608 2672 2720 hborder 0
               1080 1083 1088 1125 vborder 0
               +hsync +vsync 
               VertFreq: 60 Hz, HorFreq: 67500 Hz
Monitor ranges (GTF): 48-100Hz V, 56-180kHz H, max dotclock 600MHz
Monitor name: EI292CUR
Serial number: --
Has 1 extension blocks
Checksum: 0x1 (valid)

CTA extension block
Extension version: 3
66 bytes of CTA data
  Video data block
    VIC   1 640x480@60Hz 4:3  HorFreq: 31469 Hz Clock: 25.175 MHz
    VIC   2 720x480@60Hz 4:3  HorFreq: 31469 Hz Clock: 27.000 MHz
    VIC   3 720x480@60Hz 16:9  HorFreq: 31469 Hz Clock: 27.000 MHz
    VIC   4 1280x720@60Hz 16:9  HorFreq: 45000 Hz Clock: 74.250 MHz
    VIC   5 1920x1080i@60Hz 16:9  HorFreq: 33750 Hz Clock: 74.250 MHz
    VIC  16 1920x1080@60Hz 16:9  HorFreq: 67500 Hz Clock: 148.500 MHz
    VIC  17 720x576@50Hz 4:3  HorFreq: 31250 Hz Clock: 27.000 MHz
    VIC  18 720x576@50Hz 16:9  HorFreq: 31250 Hz Clock: 27.000 MHz
    VIC  19 1280x720@50Hz 16:9  HorFreq: 37500 Hz Clock: 74.250 MHz
    VIC  31 1920x1080@50Hz 16:9  HorFreq: 56250 Hz Clock: 148.500 MHz
  Audio data block
    Linear PCM, max channels 2
      Supported sample rates (kHz): 192 176.4 96 88.2 48 44.1 32
      Supported sample sizes (bits): 24 20 16
  Speaker allocation data block
    Speaker map:
      FL/FR - Front Left/Right
  Vendor-specific data block, OUI 000c03 (HDMI)
    Source physical address 1.0.0.0
    DC_36bit
    DC_30bit
    DC_Y444
    Maximum TMDS clock: 330MHz
  Vendor-specific data block, OUI c45dd8 (HDMI Forum)
    Version: 1
    Maximum TMDS Character Rate: 600MHz
    SCDC Present
    Supports scrambling for <= 340 Mcsc
    Supports 12-bits/component Deep Color 4:2:0 Pixel Encoding
    Supports 10-bits/component Deep Color 4:2:0 Pixel Encoding
  Vendor-specific data block, OUI 00001a
  Extended tag: YCbCr 4:2:0 capability map data block
    VSD Index 0
  Extended tag: Vendor-specific video data block
  Extended tag: Colorimetry data block
    xvYCC709
    BT2020YCC
    BT2020RGB
  Extended tag: HDR static metadata data block
    Electro optical transfer functions:
      Traditional gamma - SDR luminance range
      Traditional gamma - HDR luminance range
      SMPTE ST2084
    Supported static metadata descriptors:
      Static metadata type 1
    Desired content max luminance: 98 (417.710 cd/m^2)
    Desired content max frame-average luminance: 95 (391.429 cd/m^2)
    Desired content min luminance: 34 (0.074 cd/m^2)
Underscans PC formats by default
Basic audio support
Supports YCbCr 4:4:4
Supports YCbCr 4:2:2
1 native detailed modes
Detailed mode: Clock 306.000 MHz, 680 mm x 288 mm
               2560 2608 2672 2720 hborder 0
               1080 1083 1088 1125 vborder 0
               +hsync -vsync 
               VertFreq: 100 Hz, HorFreq: 112500 Hz
Detailed mode: Clock 97.200 MHz, 680 mm x 288 mm
               1280 1328 1392 1440 hborder 0
               1080 1083 1088 1125 vborder 0
               +hsync -vsync 
               VertFreq: 60 Hz, HorFreq: 67500 Hz
Detailed mode: Clock 229.500 MHz, 680 mm x 288 mm
               2560 2608 2672 2720 hborder 0
               1080 1083 1088 1125 vborder 0
               +hsync -vsync 
               VertFreq: 75 Hz, HorFreq: 84375 Hz
Checksum: 0x6c (valid)

One or more of the timings is out of range of the Monitor Ranges:
  Vertical Freq: 50 - 100 Hz
  Horizontal Freq: 31250 - 112500 Hz
  Maximum Clock: 306.000 MHz
EDID block does not conform at all!
	Both the serial number and the serial string are set
