
EDID (hex):
00ffffffffffff0009e50c0800000000
1f1c0104951a0e78035d40945b579429
1c505400000001010101010101010101
010101010101181d56b4500023303020
360000901000001a651356b450002330
3020360000901000001a000000000000
00000000000000000000000000000002
000d49ff0a3c6e110b146e00000000ec

Extracted contents:
header:          00 ff ff ff ff ff ff 00
serial number:   09 e5 0c 08 00 00 00 00 1f 1c
version:         01 04
basic params:    95 1a 0e 78 03
chroma info:     5d 40 94 5b 57 94 29 1c 50 54
established:     00 00 00
standard:        01 01 01 01 01 01 01 01 01 01 01 01 01 01 01 01
descriptor 1:    18 1d 56 b4 50 00 23 30 30 20 36 00 00 90 10 00 00 1a
descriptor 2:    65 13 56 b4 50 00 23 30 30 20 36 00 00 90 10 00 00 1a
descriptor 3:    00 00 00 00 00 00 00 00 00 00 00 00 00 00 00 00 00 00
descriptor 4:    00 00 00 02 00 0d 49 ff 0a 3c 6e 11 0b 14 6e 00 00 00
extensions:      00
checksum:        ec

EDID version: 1.4
Manufacturer: BOE Model 80c Serial Number --
Made in week 31 of 2018
Digital display
6 bits per primary color channel
DisplayPort interface
Maximum image size: 26 cm x 14 cm
Gamma: 2.20
Supported color formats: RGB 4:4:4
First detailed timing includes the native pixel format and preferred refresh rate
Display is continuous frequency
Display x,y Chromaticity:
  Red:   0.5791, 0.3564
  Green: 0.3427, 0.5791
  Blue:  0.1611, 0.1093
  White: 0.3125, 0.3281
Established timings supported:
Standard timings supported:
Detailed mode: Clock 74.480 MHz, 256 mm x 144 mm
               1366 1414 1446 1546 hborder 0
                768  771  777  803 vborder 0
               +hsync -vsync 
               VertFreq: 59 Hz, HorFreq: 48175 Hz
Detailed mode: Clock 49.650 MHz, 256 mm x 144 mm
               1366 1414 1446 1546 hborder 0
                768  771  777  803 vborder 0
               +hsync -vsync 
               VertFreq: 39 Hz, HorFreq: 32115 Hz
Manufacturer-specified data, tag 0
Manufacturer-specified data, tag 2
Checksum: 0xec (valid)
EDID block does NOT conform to EDID 1.4!
	Missing name descriptor
	Missing monitor ranges
