
EDID (hex):
00ffffffffffff0015c38323232d4702
11170103803c2278ea2795a9544f9e26
0a5054a10800d100d1c0a94081808140
81c001010101565e00a0a0a029503020
350055502100001a21390000a3a01c50
7808351055502100001c000000fd003b
3d1f5919000a202020202020000000fc
00455632373336570a202020202000b2

Extracted contents:
header:          00 ff ff ff ff ff ff 00
serial number:   15 c3 83 23 23 2d 47 02 11 17
version:         01 03
basic params:    80 3c 22 78 ea
chroma info:     27 95 a9 54 4f 9e 26 0a 50 54
established:     a1 08 00
standard:        d1 00 d1 c0 a9 40 81 80 81 40 81 c0 01 01 01 01
descriptor 1:    56 5e 00 a0 a0 a0 29 50 30 20 35 00 55 50 21 00 00 1a
descriptor 2:    21 39 00 00 a3 a0 1c 50 78 08 35 10 55 50 21 00 00 1c
descriptor 3:    00 00 00 fd 00 3b 3d 1f 59 19 00 0a 20 20 20 20 20 20
descriptor 4:    00 00 00 fc 00 45 56 32 37 33 36 57 0a 20 20 20 20 20
extensions:      00
checksum:        b2

EDID version: 1.3
Manufacturer: ENC Model 2383 Serial Number --
Made in week 17 of 2013
Digital display
Maximum image size: 60 cm x 34 cm
Gamma: 2.20
DPMS levels: Standby Suspend Off
RGB color display
First detailed timing is preferred timing
Display x,y Chromaticity:
  Red:   0.6601, 0.3300
  Green: 0.3095, 0.6201
  Blue:  0.1503, 0.0400
  White: 0.3134, 0.3291
Established timings supported:
  720x400@70Hz 9:5 HorFreq: 31469 Hz Clock: 28.320 MHz
  640x480@60Hz 4:3 HorFreq: 31469 Hz Clock: 25.175 MHz
  800x600@60Hz 4:3 HorFreq: 37900 Hz Clock: 40.000 MHz
  1024x768@60Hz 4:3 HorFreq: 48400 Hz Clock: 65.000 MHz
Standard timings supported:
  1920x1200@60Hz 16:10 HorFreq: 74000 Hz Clock: 154.000 MHz
  1920x1080@60Hz 16:9
  1600x1200@60Hz 4:3 HorFreq: 75000 Hz Clock: 162.000 MHz
  1280x1024@60Hz 5:4 HorFreq: 64000 Hz Clock: 108.000 MHz
  1280x960@60Hz 4:3 HorFreq: 60000 Hz Clock: 108.000 MHz
  1280x720@60Hz 16:9
Detailed mode: Clock 241.500 MHz, 597 mm x 336 mm
               2560 2608 2640 2720 hborder 0
               1440 1443 1448 1481 vborder 0
               +hsync -vsync 
               VertFreq: 59 Hz, HorFreq: 88786 Hz
Detailed mode: Clock 146.250 MHz, 597 mm x 336 mm
               2560 2680 2944 3328 hborder 0
               1440 1443 1448 1468 vborder 0
               -hsync +vsync 
               VertFreq: 29 Hz, HorFreq: 43945 Hz
Monitor ranges (GTF): 59-61Hz V, 31-89kHz H, max dotclock 250MHz
Monitor name: EV2736W
Checksum: 0xb2 (valid)
One or more of the timings is out of range of the Monitor Ranges:
  Vertical Freq: 29 - 70 Hz
  Horizontal Freq: 31469 - 88786 Hz
  Maximum Clock: 241.500 MHz
