edid-decode (hex):

00 ff ff ff ff ff ff 00 21 23 00 00 03 00 00 00
28 20 01 03 80 50 2d 78 f6 0d c9 a0 57 47 98 27
12 48 4c 21 08 00 d1 c0 81 c0 3b 40 01 01 45 44
61 64 01 01 01 01 02 3a 80 18 71 38 2d 40 58 2c
45 00 40 44 21 00 00 06 21 39 90 30 62 1a 27 40
68 b0 36 00 20 c2 31 00 00 1c 00 00 00 fd 00 3b
46 1f 87 0f 00 0a 20 20 20 20 20 20 00 00 00 fc
00 48 69 63 68 69 70 20 54 56 0a 20 20 20 01 6a

02 03 26 f5 4d 04 90 13 1f 01 05 03 20 12 14 22
16 07 23 09 07 07 83 04 00 00 67 03 0c 00 10 00
30 3c e3 05 1f 00 9e 20 00 90 51 20 1f 30 48 80
36 00 20 c2 31 00 00 1c 30 2a 00 98 51 00 2a 40
30 70 13 00 20 c2 31 00 00 1e 66 21 50 b0 51 00
1b 30 40 70 36 00 20 c2 31 00 00 1e 30 2a 00 08
52 c0 28 30 60 70 13 00 20 c2 31 00 00 06 9a 29
a0 d0 51 84 22 30 50 98 36 00 20 e0 31 00 00 0e

00 ff ff ff ff ff ff 00 21 23 00 00 03 00 00 00
28 20 01 03 80 50 2d 78 f6 0d c9 a0 57 47 98 27
12 48 4c 21 08 00 d1 c0 81 c0 3b 40 01 01 45 44
61 64 01 01 01 01 02 3a 80 18 71 38 2d 40 58 2c
45 00 40 44 21 00 00 06 21 39 90 30 62 1a 27 40
68 b0 36 00 20 c2 31 00 00 1c 00 00 00 fd 00 3b
46 1f 87 0f 00 0a 20 20 20 20 20 20 00 00 00 fc
00 48 69 63 68 69 70 20 54 56 0a 20 20 20 01 6a

02 03 26 f5 4d 04 90 13 1f 01 05 03 20 12 14 22
16 07 23 09 07 07 83 04 00 00 67 03 0c 00 10 00
30 3c e3 05 1f 00 9e 20 00 90 51 20 1f 30 48 80
36 00 20 c2 31 00 00 1c 30 2a 00 98 51 00 2a 40
30 70 13 00 20 c2 31 00 00 1e 66 21 50 b0 51 00
1b 30 40 70 36 00 20 c2 31 00 00 1e 30 2a 00 08
52 c0 28 30 60 70 13 00 20 c2 31 00 00 06 9a 29
a0 d0 51 84 22 30 50 98 36 00 20 e0 31 00 00 0e

----------------

Block 0, Base EDID:
  EDID Structure Version & Revision: 1.3
  Vendor & Product Identification:
    Manufacturer: HIC
    Model: 0
    Serial Number: ...
    Made in: week 40 of 2022
  Basic Display Parameters & Features:
    Digital display
    Maximum image size: 80 cm x 45 cm
    Gamma: 2.20
    DPMS levels: Standby Suspend Off
    Non-RGB color display
    Default (sRGB) color space is primary color space
    First detailed timing is the preferred timing
  Color Characteristics:
    Red  : 0.6250, 0.3398
    Green: 0.2802, 0.5947
    Blue : 0.1552, 0.0703
    White: 0.2832, 0.2978
  Established Timings I & II:
    DMT 0x04:   640x480    59.940476 Hz   4:3     31.469 kHz     25.175000 MHz
    DMT 0x09:   800x600    60.316541 Hz   4:3     37.879 kHz     40.000000 MHz
    DMT 0x10:  1024x768    60.003840 Hz   4:3     48.363 kHz     65.000000 MHz
  Standard Timings:
    DMT 0x52:  1920x1080   60.000000 Hz  16:9     67.500 kHz    148.500000 MHz
    DMT 0x55:  1280x720    60.000000 Hz  16:9     45.000 kHz     74.250000 MHz
    GTF     :   720x540    59.999058 Hz   4:3     33.539 kHz     30.588000 MHz
    GTF     :   800x600    64.000113 Hz   4:3     39.872 kHz     40.829000 MHz
    GTF     :  1024x768    95.999837 Hz   4:3     77.952 kHz    108.509000 MHz
  Detailed Timing Descriptors:
    DTD  1:  1920x1080   60.000000 Hz  16:9     67.500 kHz    148.500000 MHz (analog composite, serrate, 576 mm x 324 mm)
                  Hfront   88 Hsync  44 Hback  148 Hpol N
                  Vfront    4 Vsync   5 Vback   36 Vpol N
    DTD  2:  1680x1050   59.954250 Hz  16:10    65.290 kHz    146.250000 MHz (800 mm x 450 mm)
                  Hfront  104 Hsync 176 Hback  280 Hpol N
                  Vfront    3 Vsync   6 Vback   30 Vpol P
    Display Range Limits:
      Monitor ranges (GTF): 59-70 Hz V, 31-135 kHz H, max dotclock 150 MHz
    Display Product Name: 'Hichip TV'
  Extension blocks: 1
Checksum: 0x6a

----------------

Block 1, CTA-861 Extension Block:
  Revision: 3
  Underscans IT Video Formats by default
  Basic audio support
  Supports YCbCr 4:4:4
  Supports YCbCr 4:2:2
  Native detailed modes: 5
  Video Data Block:
    VIC   4:  1280x720    60.000000 Hz  16:9     45.000 kHz     74.250000 MHz
    VIC  16:  1920x1080   60.000000 Hz  16:9     67.500 kHz    148.500000 MHz (native)
    VIC  19:  1280x720    50.000000 Hz  16:9     37.500 kHz     74.250000 MHz
    VIC  31:  1920x1080   50.000000 Hz  16:9     56.250 kHz    148.500000 MHz
    VIC   1:   640x480    59.940476 Hz   4:3     31.469 kHz     25.175000 MHz
    VIC   5:  1920x1080i  60.000000 Hz  16:9     33.750 kHz     74.250000 MHz
    VIC   3:   720x480    59.940060 Hz  16:9     31.469 kHz     27.000000 MHz
    VIC  32:  1920x1080   24.000000 Hz  16:9     27.000 kHz     74.250000 MHz
    VIC  18:   720x576    50.000000 Hz  16:9     31.250 kHz     27.000000 MHz
    VIC  20:  1920x1080i  50.000000 Hz  16:9     28.125 kHz     74.250000 MHz
    VIC  34:  1920x1080   30.000000 Hz  16:9     33.750 kHz     74.250000 MHz
    VIC  22:  1440x576i   50.000000 Hz  16:9     15.625 kHz     27.000000 MHz
    VIC   7:  1440x480i   59.940060 Hz  16:9     15.734 kHz     27.000000 MHz
  Audio Data Block:
    Linear PCM:
      Max channels: 2
      Supported sample rates (kHz): 48 44.1 32
      Supported sample sizes (bits): 24 20 16
  Speaker Allocation Data Block:
    FC - Front Center
  Vendor-Specific Data Block (HDMI), OUI 00-0C-03:
    Source physical address: 1.0.0.0
    DC_36bit
    DC_30bit
    Maximum TMDS clock: 300 MHz
  Colorimetry Data Block:
    xvYCC601
    xvYCC709
    sYCC601
    opYCC601
    opRGB
  Detailed Timing Descriptors:
    DTD  3:  1280x800    59.810326 Hz  16:10    49.702 kHz     83.500000 MHz (800 mm x 450 mm)
                  Hfront   72 Hsync 128 Hback  200 Hpol N
                  Vfront    3 Vsync   6 Vback   22 Vpol P
    DTD  4:  1280x1024   60.019740 Hz   5:4     63.981 kHz    108.000000 MHz (800 mm x 450 mm)
                  Hfront   48 Hsync 112 Hback  248 Hpol P
                  Vfront    1 Vsync   3 Vback   38 Vpol P
    DTD  5:  1360x768    60.015162 Hz  85:48    47.712 kHz     85.500000 MHz (800 mm x 450 mm)
                  Hfront   64 Hsync 112 Hback  256 Hpol P
                  Vfront    3 Vsync   6 Vback   18 Vpol P
    DTD  6:  1280x960    60.000000 Hz   4:3     60.000 kHz    108.000000 MHz (analog composite, serrate, 800 mm x 450 mm)
                  Hfront   96 Hsync 112 Hback  312 Hpol N
                  Vfront    1 Vsync   3 Vback   36 Vpol N
Checksum: 0x0e  Unused space in Extension Block: 17 bytes

----------------

Block 2, Unknown EDID Extension Block 0x00:
  00 ff ff ff ff ff ff 00 21 23 00 00 03 00 00 00 '........!#......'
  28 20 01 03 80 50 2d 78 f6 0d c9 a0 57 47 98 27 '( ...P-x....WG.''
  12 48 4c 21 08 00 d1 c0 81 c0 3b 40 01 01 45 44 '.HL!......;@..ED'
  61 64 01 01 01 01 02 3a 80 18 71 38 2d 40 58 2c 'ad.....:..q8-@X,'
  45 00 40 44 21 00 00 06 21 39 90 30 62 1a 27 40 'E.@D!...!9.0b.'@'
  68 b0 36 00 20 c2 31 00 00 1c 00 00 00 fd 00 3b 'h.6. .1........;'
  46 1f 87 0f 00 0a 20 20 20 20 20 20 00 00 00 fc 'F.....      ....'
  00 48 69 63 68 69 70 20 54 56 0a 20 20 20 01 6a '.Hichip TV.   .j'
Checksum: 0x6a

----------------

Block 3, CTA-861 Extension Block:
  Revision: 3
  Underscans IT Video Formats by default
  Basic audio support
  Supports YCbCr 4:4:4
  Supports YCbCr 4:2:2
  Native detailed modes: 5
  Video Data Block:
    VIC   4:  1280x720    60.000000 Hz  16:9     45.000 kHz     74.250000 MHz
    VIC  16:  1920x1080   60.000000 Hz  16:9     67.500 kHz    148.500000 MHz (native)
    VIC  19:  1280x720    50.000000 Hz  16:9     37.500 kHz     74.250000 MHz
    VIC  31:  1920x1080   50.000000 Hz  16:9     56.250 kHz    148.500000 MHz
    VIC   1:   640x480    59.940476 Hz   4:3     31.469 kHz     25.175000 MHz
    VIC   5:  1920x1080i  60.000000 Hz  16:9     33.750 kHz     74.250000 MHz
    VIC   3:   720x480    59.940060 Hz  16:9     31.469 kHz     27.000000 MHz
    VIC  32:  1920x1080   24.000000 Hz  16:9     27.000 kHz     74.250000 MHz
    VIC  18:   720x576    50.000000 Hz  16:9     31.250 kHz     27.000000 MHz
    VIC  20:  1920x1080i  50.000000 Hz  16:9     28.125 kHz     74.250000 MHz
    VIC  34:  1920x1080   30.000000 Hz  16:9     33.750 kHz     74.250000 MHz
    VIC  22:  1440x576i   50.000000 Hz  16:9     15.625 kHz     27.000000 MHz
    VIC   7:  1440x480i   59.940060 Hz  16:9     15.734 kHz     27.000000 MHz
  Audio Data Block:
    Linear PCM:
      Max channels: 2
      Supported sample rates (kHz): 48 44.1 32
      Supported sample sizes (bits): 24 20 16
  Speaker Allocation Data Block:
    FC - Front Center
  Vendor-Specific Data Block (HDMI), OUI 00-0C-03:
    Source physical address: 1.0.0.0
    DC_36bit
    DC_30bit
    Maximum TMDS clock: 300 MHz
  Colorimetry Data Block:
    xvYCC601
    xvYCC709
    sYCC601
    opYCC601
    opRGB
  Detailed Timing Descriptors:
    DTD  7:  1280x800    59.810326 Hz  16:10    49.702 kHz     83.500000 MHz (800 mm x 450 mm)
                  Hfront   72 Hsync 128 Hback  200 Hpol N
                  Vfront    3 Vsync   6 Vback   22 Vpol P
    DTD  8:  1280x1024   60.019740 Hz   5:4     63.981 kHz    108.000000 MHz (800 mm x 450 mm)
                  Hfront   48 Hsync 112 Hback  248 Hpol P
                  Vfront    1 Vsync   3 Vback   38 Vpol P
    DTD  9:  1360x768    60.015162 Hz  85:48    47.712 kHz     85.500000 MHz (800 mm x 450 mm)
                  Hfront   64 Hsync 112 Hback  256 Hpol P
                  Vfront    3 Vsync   6 Vback   18 Vpol P
    DTD 10:  1280x960    60.000000 Hz   4:3     60.000 kHz    108.000000 MHz (analog composite, serrate, 800 mm x 450 mm)
                  Hfront   96 Hsync 112 Hback  312 Hpol N
                  Vfront    1 Vsync   3 Vback   36 Vpol N
Checksum: 0x0e  Unused space in Extension Block: 17 bytes

----------------

Warnings:

Block 0, Base EDID:
  Detailed Timing Descriptor #1: DTD is similar but not identical to VIC 16.
Block 1, CTA-861 Extension Block:
  Detailed Timing Descriptor #6: DTD is similar but not identical to DMT 0x20.
Block 3, CTA-861 Extension Block:
  Detailed Timing Descriptor #10: DTD is similar but not identical to DMT 0x20.

Failures:

Block 0, Base EDID:
  Basic Display Parameters & Features: sRGB is signaled, but the chromaticities do not match.
  Detailed Timing Descriptor #1: Mismatch of image size 576x324 mm vs display size 800x450 mm.
Block 1, CTA-861 Extension Block:
  Padding: Contains non-zero bytes.
  Missing VCDB, needed for Set Selectable RGB Quantization to avoid interop issues.
Block 2, Base EDID:
  Unknown Extension Block.
Block 3, CTA-861 Extension Block:
  Video Data Block: Duplicate VIC 4.
  Video Data Block: Duplicate VIC 16.
  Video Data Block: Duplicate VIC 19.
  Video Data Block: Duplicate VIC 31.
  Video Data Block: Duplicate VIC 1.
  Video Data Block: Duplicate VIC 5.
  Video Data Block: Duplicate VIC 3.
  Video Data Block: Duplicate VIC 32.
  Video Data Block: Duplicate VIC 18.
  Video Data Block: Duplicate VIC 20.
  Video Data Block: Duplicate VIC 34.
  Video Data Block: Duplicate VIC 22.
  Video Data Block: Duplicate VIC 7.
  Speaker Allocation Data Block: Only one instance of this Data Block is allowed.
  Colorimetry Data Block: Only one instance of this Data Block is allowed.
  Padding: Contains non-zero bytes.
  Missing VCDB, needed for Set Selectable RGB Quantization to avoid interop issues.
EDID:
  Base EDID: Some timings are out of range of the Monitor Ranges:
    Vertical Freq: 24.000 - 96.000 Hz (Monitor: 59.000 - 70.000 Hz)
    Horizontal Freq: 15.625 - 77.951 kHz (Monitor: 31.000 - 135.000 kHz)
  Base EDID: EDID specified 1 extension block(s), but found 3 extension block(s).
  Base EDID: EDID 1.3 requires a Block Map Extension in Block 1 if there are more than 2 blocks in the EDID.
  CTA-861: Native progressive timings are a mix of several resolutions.

EDID conformity: FAIL
