
EDID (hex):
00ffffffffffff004e14a10901000000
281e0104a5341d783b8e05ad4f33b026
0d5054bfef00714f81c0810081408180
9500b3000101023a801871382d403020
35000e282100001a1b82808870382d40
182035000e282100001e000000fd0030
a5dede3c010a202020202020000000fc
0053636570747265204d32340a20019f
020318f14b0103051404131f12021190
2309070783010000023a80d072382d40
102c96800e2821000018819180887038
1240182035000e282100001804748018
71382d40084096000e282100001e8c0a
d090204031200c4055000e2821000018
00000000000000000000000000000000
0000000000000000000000000000005d

Extracted contents:
header:          00 ff ff ff ff ff ff 00
serial number:   4e 14 a1 09 01 00 00 00 28 1e
version:         01 04
basic params:    a5 34 1d 78 3b
chroma info:     8e 05 ad 4f 33 b0 26 0d 50 54
established:     bf ef 00
standard:        71 4f 81 c0 81 00 81 40 81 80 95 00 b3 00 01 01
descriptor 1:    02 3a 80 18 71 38 2d 40 30 20 35 00 0e 28 21 00 00 1a
descriptor 2:    1b 82 80 88 70 38 2d 40 18 20 35 00 0e 28 21 00 00 1e
descriptor 3:    00 00 00 fd 00 30 a5 de de 3c 01 0a 20 20 20 20 20 20
descriptor 4:    00 00 00 fc 00 53 63 65 70 74 72 65 20 4d 32 34 0a 20
extensions:      01
checksum:        9f

EDID version: 1.4
Manufacturer: SPT Model 9a1 Serial Number --
Made in week 40 of 2020
Digital display
8 bits per primary color channel
DisplayPort interface
Maximum image size: 52 cm x 29 cm
Gamma: 2.20
DPMS levels: Off
Supported color formats: RGB 4:4:4, YCrCb 4:4:4, YCrCb 4:2:2
First detailed timing includes the native pixel format and preferred refresh rate
Display is continuous frequency
Display x,y Chromaticity:
  Red:   0.6777, 0.3085
  Green: 0.2021, 0.6894
  Blue:  0.1484, 0.0507
  White: 0.3134, 0.3291
Established timings supported:
  720x400@70Hz 9:5 HorFreq: 31469 Hz Clock: 28.320 MHz
  640x480@60Hz 4:3 HorFreq: 31469 Hz Clock: 25.175 MHz
  640x480@67Hz 4:3 HorFreq: 35000 Hz Clock: 30.240 MHz
  640x480@72Hz 4:3 HorFreq: 37900 Hz Clock: 31.500 MHz
  640x480@75Hz 4:3 HorFreq: 37500 Hz Clock: 31.500 MHz
  800x600@56Hz 4:3 HorFreq: 35200 Hz Clock: 36.000 MHz
  800x600@60Hz 4:3 HorFreq: 37900 Hz Clock: 40.000 MHz
  800x600@72Hz 4:3 HorFreq: 48100 Hz Clock: 50.000 MHz
  800x600@75Hz 4:3 HorFreq: 46900 Hz Clock: 49.500 MHz
  832x624@75Hz 4:3 HorFreq: 49726 Hz Clock: 57.284 MHz
  1024x768@60Hz 4:3 HorFreq: 48400 Hz Clock: 65.000 MHz
  1024x768@70Hz 4:3 HorFreq: 56500 Hz Clock: 75.000 MHz
  1024x768@75Hz 4:3 HorFreq: 60000 Hz Clock: 78.750 MHz
  1280x1024@75Hz 5:4 HorFreq: 80000 Hz Clock: 135.000 MHz
Standard timings supported:
  1152x864@75Hz 4:3 HorFreq: 67500 Hz Clock: 108.000 MHz
  1280x720@60Hz 16:9
  1280x800@60Hz 16:10
  1280x960@60Hz 4:3 HorFreq: 60000 Hz Clock: 108.000 MHz
  1280x1024@60Hz 5:4 HorFreq: 64000 Hz Clock: 108.000 MHz
  1440x900@60Hz 16:10 HorFreq: 55500 Hz Clock: 88.750 MHz
  1680x1050@60Hz 16:10 HorFreq: 64700 Hz Clock: 119.000 MHz
Detailed mode: Clock 148.500 MHz, 526 mm x 296 mm
               1920 1968 2000 2200 hborder 0
               1080 1083 1088 1125 vborder 0
               +hsync -vsync 
               VertFreq: 60 Hz, HorFreq: 67500 Hz
Detailed mode: Clock 333.070 MHz, 526 mm x 296 mm
               1920 1944 1976 2056 hborder 0
               1080 1083 1088 1125 vborder 0
               +hsync +vsync 
               VertFreq: 143 Hz, HorFreq: 161999 Hz
Monitor ranges (bare limits): 48-165Hz V, 222-222kHz H, max dotclock 600MHz
Monitor name: Sceptre M24
Has 1 extension blocks
Checksum: 0x9f (valid)

CTA extension block
Extension version: 3
20 bytes of CTA data
  Video data block
    VIC   1 640x480@60Hz 4:3  HorFreq: 31469 Hz Clock: 25.175 MHz
    VIC   3 720x480@60Hz 16:9  HorFreq: 31469 Hz Clock: 27.000 MHz
    VIC   5 1920x1080i@60Hz 16:9  HorFreq: 33750 Hz Clock: 74.250 MHz
    VIC  20 1920x1080i@50Hz 16:9  HorFreq: 28125 Hz Clock: 74.250 MHz
    VIC   4 1280x720@60Hz 16:9  HorFreq: 45000 Hz Clock: 74.250 MHz
    VIC  19 1280x720@50Hz 16:9  HorFreq: 37500 Hz Clock: 74.250 MHz
    VIC  31 1920x1080@50Hz 16:9  HorFreq: 56250 Hz Clock: 148.500 MHz
    VIC  18 720x576@50Hz 16:9  HorFreq: 31250 Hz Clock: 27.000 MHz
    VIC   2 720x480@60Hz 4:3  HorFreq: 31469 Hz Clock: 27.000 MHz
    VIC  17 720x576@50Hz 4:3  HorFreq: 31250 Hz Clock: 27.000 MHz
    VIC  16 1920x1080@60Hz 16:9 (native) HorFreq: 67500 Hz Clock: 148.500 MHz
  Audio data block
    Linear PCM, max channels 2
      Supported sample rates (kHz): 48 44.1 32
      Supported sample sizes (bits): 24 20 16
  Speaker allocation data block
    Speaker map:
      FL/FR - Front Left/Right
Underscans PC formats by default
Basic audio support
Supports YCbCr 4:4:4
Supports YCbCr 4:2:2
1 native detailed modes
Detailed mode: Clock 148.500 MHz, 526 mm x 296 mm
               1920 2448 2492 2640 hborder 0
               1080 1089 1095 1125 vborder 0
               -hsync -vsync 
               VertFreq: 50 Hz, HorFreq: 56250 Hz
Detailed mode: Clock 372.490 MHz, 526 mm x 296 mm
               1920 1944 1976 2056 hborder 0
               1080 1083 1088 1098 vborder 0
               -hsync -vsync 
               VertFreq: 165 Hz, HorFreq: 181172 Hz
Detailed mode: Clock 297.000 MHz, 526 mm x 296 mm
               1920 1928 1992 2200 hborder 0
               1080 1089 1095 1125 vborder 0
               +hsync +vsync 
               VertFreq: 120 Hz, HorFreq: 135000 Hz
Detailed mode: Clock 27.000 MHz, 526 mm x 296 mm
                720  732  796  864 hborder 0
                576  581  586  625 vborder 0
               -hsync -vsync 
               VertFreq: 50 Hz, HorFreq: 31250 Hz
Checksum: 0x5d (valid)

Warning: One or more of the timings is out of range of the Monitor Ranges:
  Vertical Freq: 50 - 165 Hz
  Horizontal Freq: 28125 - 181172 Hz
  Maximum Clock: 372.490 MHz
