
EDID (hex):
00ffffffffffff0006af9e2200000000
0f1901049526157802ee859e59509d26
1d505400000001010101010101010101
0101010101011c2a405261841a303020
36007ed610000018131c405261841a30
302036007ed610000018000000000000
00000000000000000000000000000002
001048ff0f3c6e5210226e202020006d

Extracted contents:
header:          00 ff ff ff ff ff ff 00
serial number:   06 af 9e 22 00 00 00 00 0f 19
version:         01 04
basic params:    95 26 15 78 02
chroma info:     ee 85 9e 59 50 9d 26 1d 50 54
established:     00 00 00
standard:        01 01 01 01 01 01 01 01 01 01 01 01 01 01 01 01
descriptor 1:    1c 2a 40 52 61 84 1a 30 30 20 36 00 7e d6 10 00 00 18
descriptor 2:    13 1c 40 52 61 84 1a 30 30 20 36 00 7e d6 10 00 00 18
descriptor 3:    00 00 00 00 00 00 00 00 00 00 00 00 00 00 00 00 00 00
descriptor 4:    00 00 00 02 00 10 48 ff 0f 3c 6e 52 10 22 6e 20 20 20
extensions:      00
checksum:        6d

EDID version: 1.4
Manufacturer: AUO Model 229e Serial Number --
Made in week 15 of 2015
Digital display
6 bits per primary color channel
DisplayPort interface
Maximum image size: 38 cm x 21 cm
Gamma: 2.20
Supported color formats: RGB 4:4:4
First detailed timing includes the native pixel format and preferred refresh rate
Display x,y Chromaticity:
  Red:   0.6201, 0.3496
  Green: 0.3154, 0.6152
  Blue:  0.1503, 0.1132
  White: 0.3134, 0.3291
Established timings supported:
Standard timings supported:
Detailed mode: Clock 107.800 MHz, 382 mm x 214 mm
               1600 1648 1680 1938 hborder 0
                900  903  909  926 vborder 0
               -hsync -vsync 
               VertFreq: 60 Hz, HorFreq: 55624 Hz
Detailed mode: Clock 71.870 MHz, 382 mm x 214 mm
               1600 1648 1680 1938 hborder 0
                900  903  909  926 vborder 0
               -hsync -vsync 
               VertFreq: 40 Hz, HorFreq: 37084 Hz
Manufacturer-specified data, tag 0
Manufacturer-specified data, tag 2
Checksum: 0x6d (valid)
EDID block does NOT conform to EDID 1.4!
	Missing name descriptor
	Missing monitor ranges
