
EDID (hex):
00ffffffffffff0022f0504200000000
2d18010180301b78eeeb14a2564fa228
0e505400000001010101010101010101
010101010101023a801871382d40582c
4500dc0c11000000000000fc00485020
416c6c2d696e2d4f6e65000000fc000a
202020202020202020202020000000fc
000a2020202020202020202020200040

Extracted contents:
header:          00 ff ff ff ff ff ff 00
serial number:   22 f0 50 42 00 00 00 00 2d 18
version:         01 01
basic params:    80 30 1b 78 ee
chroma info:     eb 14 a2 56 4f a2 28 0e 50 54
established:     00 00 00
standard:        01 01 01 01 01 01 01 01 01 01 01 01 01 01 01 01
descriptor 1:    02 3a 80 18 71 38 2d 40 58 2c 45 00 dc 0c 11 00 00 00
descriptor 2:    00 00 00 fc 00 48 50 20 41 6c 6c 2d 69 6e 2d 4f 6e 65
descriptor 3:    00 00 00 fc 00 0a 20 20 20 20 20 20 20 20 20 20 20 20
descriptor 4:    00 00 00 fc 00 0a 20 20 20 20 20 20 20 20 20 20 20 20
extensions:      00
checksum:        40

EDID version: 1.1
Manufacturer: HWP Model 4250 Serial Number --
Made in week 45 of 2014
Digital display
Maximum image size: 48 cm x 27 cm
Gamma: 2.20
DPMS levels: Standby Suspend Off
RGB color display
Default (sRGB) color space is primary color space
First detailed timing is preferred timing
Display x,y Chromaticity:
  Red:   0.6357, 0.3378
  Green: 0.3105, 0.6357
  Blue:  0.1562, 0.0556
  White: 0.3134, 0.3281
Established timings supported:
Standard timings supported:
Detailed mode: Clock 148.500 MHz, 476 mm x 268 mm
               1920 2008 2052 2200 hborder 0
               1080 1084 1089 1125 vborder 0
               -hsync -vsync analog composite 
               VertFreq: 60 Hz, HorFreq: 67500 Hz
Monitor name: HP All-in-One
Checksum: 0x40 (valid)
EDID block does NOT conform to EDID 1.0!
	Has descriptor blocks other than detailed timings
