
EDID (hex):
00ffffffffffff0006af9bfa00000000
001f0104a51e137803aeac9358599128
1d505400000001010101010101010101
010101010101fa3c80b870b024401010
3e002dbc100000180000000f00000000
00000000000000000020000000fe0041
554f0a202020202020202020000000fe
004231343055414e30332e32200a00dc

Extracted contents:
header:          00 ff ff ff ff ff ff 00
serial number:   06 af 9b fa 00 00 00 00 00 1f
version:         01 04
basic params:    a5 1e 13 78 03
chroma info:     ae ac 93 58 59 91 28 1d 50 54
established:     00 00 00
standard:        01 01 01 01 01 01 01 01 01 01 01 01 01 01 01 01
descriptor 1:    fa 3c 80 b8 70 b0 24 40 10 10 3e 00 2d bc 10 00 00 18
descriptor 2:    00 00 00 0f 00 00 00 00 00 00 00 00 00 00 00 00 00 20
descriptor 3:    00 00 00 fe 00 41 55 4f 0a 20 20 20 20 20 20 20 20 20
descriptor 4:    00 00 00 fe 00 42 31 34 30 55 41 4e 30 33 2e 32 20 0a
extensions:      00
checksum:        dc

EDID version: 1.4
Manufacturer: AUO Model fa9b Serial Number --
Made in year 2021
Digital display
8 bits per primary color channel
DisplayPort interface
Maximum image size: 30 cm x 19 cm
Gamma: 2.20
Supported color formats: RGB 4:4:4
First detailed timing includes the native pixel format and preferred refresh rate
Display is continuous frequency
Display x,y Chromaticity:
  Red:   0.5761, 0.3457
  Green: 0.3505, 0.5683
  Blue:  0.1582, 0.1152
  White: 0.3154, 0.3281
Established timings supported:
Standard timings supported:
Detailed mode: Clock 156.100 MHz, 301 mm x 188 mm
               1920 1936 1952 2104 hborder 0
               1200 1203 1217 1236 vborder 0
               -hsync -vsync 
               VertFreq: 60 Hz, HorFreq: 74192 Hz
Manufacturer-specified data, tag 15
ASCII string: AUO
ASCII string: B140UAN03.2 
Checksum: 0xdc (valid)
EDID block does NOT conform to EDID 1.4!
	Missing name descriptor
	Missing monitor ranges
