edid-decode (hex):

00 ff ff ff ff ff ff 00 06 af b5 e8 00 00 00 00
1b 22 01 04 a5 22 16 78 03 54 6d 9b 5a 56 8e 26
25 52 57 00 00 00 01 01 01 01 01 01 01 01 01 01
01 01 01 01 01 01 c3 3d 80 c8 70 b0 2b 40 6c 30
aa 00 58 d7 10 00 00 18 00 00 00 fd 00 28 3c 4b
4b 10 01 0a 20 20 20 20 20 20 00 00 00 fe 00 41
55 4f 0a 20 20 20 20 20 20 20 20 20 00 00 00 fc
00 42 31 36 30 55 41 4e 30 34 2e 39 20 0a 01 7e

70 20 79 02 00 22 00 14 9d 69 02 85 7f 07 c7 00
6b 80 2f 00 af 04 2a 00 09 00 09 00 25 01 09 9d
69 02 9d 69 02 28 3c 80 2b 00 0c 27 00 28 3b 00
00 27 00 28 3b 00 00 81 00 15 74 1a 00 00 03 01
28 3c 00 00 00 00 00 00 3c 00 00 00 00 8d 00 00
00 00 00 00 00 00 00 00 00 00 00 00 00 00 00 00
00 00 00 00 00 00 00 00 00 00 00 00 00 00 00 00
00 00 00 00 00 00 00 00 00 00 00 00 00 00 89 90

00 ff ff ff ff ff ff 00 06 af b5 e8 00 00 00 00
1b 22 01 04 a5 22 16 78 03 54 6d 9b 5a 56 8e 26
25 52 57 00 00 00 01 01 01 01 01 01 01 01 01 01
01 01 01 01 01 01 c3 3d 80 c8 70 b0 2b 40 6c 30
aa 00 58 d7 10 00 00 18 00 00 00 fd 00 28 3c 4b
4b 10 01 0a 20 20 20 20 20 20 00 00 00 fe 00 41
55 4f 0a 20 20 20 20 20 20 20 20 20 00 00 00 fc
00 42 31 36 30 55 41 4e 30 34 2e 39 20 0a 01 7e

70 20 79 02 00 22 00 14 9d 69 02 85 7f 07 c7 00
6b 80 2f 00 af 04 2a 00 09 00 09 00 25 01 09 9d
69 02 9d 69 02 28 3c 80 2b 00 0c 27 00 28 3b 00
00 27 00 28 3b 00 00 81 00 15 74 1a 00 00 03 01
28 3c 00 00 00 00 00 00 3c 00 00 00 00 8d 00 00
00 00 00 00 00 00 00 00 00 00 00 00 00 00 00 00
00 00 00 00 00 00 00 00 00 00 00 00 00 00 00 00
00 00 00 00 00 00 00 00 00 00 00 00 00 00 89 90

----------------

Block 0, Base EDID:
  EDID Structure Version & Revision: 1.4
  Vendor & Product Identification:
    Manufacturer: AUO
    Model: 59573
    Made in: week 27 of 2024
  Basic Display Parameters & Features:
    Digital display
    Bits per primary color channel: 8
    DisplayPort interface
    Maximum image size: 34 cm x 22 cm
    Gamma: 2.20
    Supported color formats: RGB 4:4:4
    First detailed timing includes the native pixel format and preferred refresh rate
    Display is continuous frequency
  Color Characteristics:
    Red  : 0.6064, 0.3525
    Green: 0.3369, 0.5546
    Blue : 0.1494, 0.1464
    White: 0.3232, 0.3408
  Established Timings I & II: none
  Standard Timings: none
  Detailed Timing Descriptors:
    DTD 1:  1920x1200   60.000152 Hz  16:10    74.580 kHz    158.110000 MHz (344 mm x 215 mm)
                 Hfront  108 Hsync  48 Hback   44 Hpol N
                 Vfront   10 Vsync  10 Vback   23 Vpol N
    Display Range Limits:
      Monitor ranges (Bare Limits): 40-60 Hz V, 75-75 kHz H, max dotclock 160 MHz
    Alphanumeric Data String: 'AUO'
    Display Product Name: 'B160UAN04.9 '
  Extension blocks: 1
Checksum: 0x7e

----------------

Block 1, DisplayID Extension Block:
  Version: 2.0
  Extension Count: 0
  Display Product Primary Use Case: None of the listed primary use cases; generic display
  Video Timing Modes Type 7 - Detailed Timings Data Block:
    DTD:  1920x1200   60.000152 Hz  16:10    74.580 kHz    158.110000 MHz (aspect 16:10, no 3D stereo, preferred)
               Hfront  108 Hsync  48 Hback   44 Hpol P
               Vfront   10 Vsync  10 Vback   23 Vpol N
  Dynamic Video Timing Range Limits Data Block:
    Minimum Pixel Clock: 158110 kHz
    Maximum Pixel Clock: 158110 kHz
    Minimum Vertical Refresh Rate: 40 Hz
    Maximum Vertical Refresh Rate: 60 Hz
    Seamless Dynamic Video Timing Support: Yes
  Adaptive Sync Data Block:
    Descriptor #1:
      Native Panel Range
      Fixed Average V-Total and Adaptive V-Total
      'Max Single Frame Duration Increase' field value without jitter impact
      'Max Single Frame Duration Decrease' field value without jitter impact
      Max Duration Increase: 0.00 ms
      Max Duration Decrease: 0.00 ms
      Min Refresh Rate: 40 Hz
      Max Refresh Rate: 60 Hz
    Descriptor #2:
      Native Panel Range
      Fixed Average V-Total and Adaptive V-Total
      'Max Single Frame Duration Increase' field value without jitter impact
      'Max Single Frame Duration Decrease' field value without jitter impact
      Max Duration Increase: 0.00 ms
      Max Duration Decrease: 0.00 ms
      Min Refresh Rate: 40 Hz
      Max Refresh Rate: 60 Hz
  CTA-861 DisplayID Data Block:
  Vendor-Specific Data Block (AMD), OUI 00-00-1A:
    Version: 3.1
    Minimum Refresh Rate: 40 Hz
    Maximum Refresh Rate: 60 Hz
    Flags 1.x: 0x00
    Flags 2.x: 0x00
    Maximum luminance: 0 (50.000 cd/m^2)
    Minimum luminance: 0 (0.000 cd/m^2)
    Unknown: 0x00 0x00
  Checksum: 0x89
Checksum: 0x90

----------------

Block 2, Unknown EDID Extension Block 0x00:
  00 ff ff ff ff ff ff 00 06 af b5 e8 00 00 00 00 '................'
  1b 22 01 04 a5 22 16 78 03 54 6d 9b 5a 56 8e 26 '."...".x.Tm.ZV.&'
  25 52 57 00 00 00 01 01 01 01 01 01 01 01 01 01 '%RW.............'
  01 01 01 01 01 01 c3 3d 80 c8 70 b0 2b 40 6c 30 '.......=..p.+@l0'
  aa 00 58 d7 10 00 00 18 00 00 00 fd 00 28 3c 4b '..X..........(<K'
  4b 10 01 0a 20 20 20 20 20 20 00 00 00 fe 00 41 'K...      .....A'
  55 4f 0a 20 20 20 20 20 20 20 20 20 00 00 00 fc 'UO.         ....'
  00 42 31 36 30 55 41 4e 30 34 2e 39 20 0a 01 7e '.B160UAN04.9 ..~'
Checksum: 0x7e

----------------

Block 3, DisplayID Extension Block:
  Version: 2.0
  Extension Count: 0
  Video Timing Modes Type 7 - Detailed Timings Data Block:
    DTD:  1920x1200   60.000152 Hz  16:10    74.580 kHz    158.110000 MHz (aspect 16:10, no 3D stereo, preferred)
               Hfront  108 Hsync  48 Hback   44 Hpol P
               Vfront   10 Vsync  10 Vback   23 Vpol N
  Dynamic Video Timing Range Limits Data Block:
    Minimum Pixel Clock: 158110 kHz
    Maximum Pixel Clock: 158110 kHz
    Minimum Vertical Refresh Rate: 40 Hz
    Maximum Vertical Refresh Rate: 60 Hz
    Seamless Dynamic Video Timing Support: Yes
  Adaptive Sync Data Block:
    Descriptor #1:
      Native Panel Range
      Fixed Average V-Total and Adaptive V-Total
      'Max Single Frame Duration Increase' field value without jitter impact
      'Max Single Frame Duration Decrease' field value without jitter impact
      Max Duration Increase: 0.00 ms
      Max Duration Decrease: 0.00 ms
      Min Refresh Rate: 40 Hz
      Max Refresh Rate: 60 Hz
    Descriptor #2:
      Native Panel Range
      Fixed Average V-Total and Adaptive V-Total
      'Max Single Frame Duration Increase' field value without jitter impact
      'Max Single Frame Duration Decrease' field value without jitter impact
      Max Duration Increase: 0.00 ms
      Max Duration Decrease: 0.00 ms
      Min Refresh Rate: 40 Hz
      Max Refresh Rate: 60 Hz
  CTA-861 DisplayID Data Block:
  Vendor-Specific Data Block (AMD), OUI 00-00-1A:
    Version: 3.1
    Minimum Refresh Rate: 40 Hz
    Maximum Refresh Rate: 60 Hz
    Flags 1.x: 0x00
    Flags 2.x: 0x00
    Maximum luminance: 0 (50.000 cd/m^2)
    Minimum luminance: 0 (0.000 cd/m^2)
    Unknown: 0x00 0x00
  Checksum: 0x89
Checksum: 0x90

----------------

Failures:

Block 0, Base EDID:
  Display Product Name: One or more trailing spaces.
Block 1, DisplayID Extension Block:
  Expected 0 DisplayID Extension Block, but got 1.
Block 2, Base EDID:
  Unknown Extension Block.
Block 3, DisplayID Extension Block:
  Product Type should be 0 in extension block.
EDID:
  Base EDID: EDID specified 1 extension block(s), but found 3 extension block(s).
  DisplayID: Missing DisplayID Product Identification Data Block.
  DisplayID: Missing DisplayID Display Parameters Data Block.
  DisplayID: Missing DisplayID Display Interface Features Data Block.

EDID conformity: FAIL
