edid-decode (hex):

00 ff ff ff ff ff ff 00 30 ae 00 20 01 01 01 01
15 17 01 03 80 2b 18 78 ee 25 65 a3 54 4f a0 27
ab 50 54 00 00 00 01 01 01 01 01 01 01 01 01 01
01 01 01 01 01 01 30 2a 40 c8 60 84 64 30 60 40
84 00 b2 ec 10 00 00 1a 00 00 00 fc 00 4c 65 6e
6f 76 6f 20 41 49 4f 20 50 43 00 00 00 fd 00 3b
3d 1e 47 0f 00 0a 20 20 20 20 20 20 00 00 00 ff
00 4c 4d 31 39 35 57 44 31 2d 54 4c 41 31 00 df

----------------

Block 0, Base EDID:
  EDID Structure Version & Revision: 1.3
  Vendor & Product Identification:
    Manufacturer: LEN
    Model: 8192
    Serial Number: ...
    Made in: week 21 of 2013
  Basic Display Parameters & Features:
    Digital display
    Maximum image size: 43 cm x 24 cm
    Gamma: 2.20
    DPMS levels: Standby Suspend Off
    RGB color display
    Default (sRGB) color space is primary color space
    First detailed timing is the preferred timing
  Color Characteristics:
    Red  : 0.6367, 0.3300
    Green: 0.3095, 0.6259
    Blue : 0.1533, 0.6699
    White: 0.3134, 0.3291
  Established Timings I & II: none
  Standard Timings: none
  Detailed Timing Descriptors:
    DTD 1:  1600x900    60.000 Hz  16:9    60.000 kHz 108.000 MHz (434 mm x 236 mm)
                 Hfront   96 Hsync  64 Hback  40 Hpol P
                 Vfront    8 Vsync   4 Vback  88 Vpol N
    Display Product Name: 'Lenovo AIO PC'
  Display Range Limits:
    Monitor ranges (GTF): 59-61 Hz V, 30-71 kHz H, max dotclock 150 MHz
    Display Product Serial Number: ...
Checksum: 0xdf

----------------

Failures:

Block 0, Base EDID:
  Basic Display Parameters & Features: sRGB is signaled, but the chromaticities do not match.

EDID conformity: FAIL
