
EDID (hex):
00ffffffffffff0009e5900900000000
1c1e0104b5221578038235a5534a9e26
0f505400000001010101010101010101
0101010101013c7000c8a04087603020
360058d710000018000000fd0c30a51f
1f4f010a202020202020000000fe0042
4f452043510a202020202020000000fe
004e4531363051444d2d4e59310a019f
7013790000030114a4340185ff09c700
2f001f003f0686000200050000000000
00000000000000000000000000000000
00000000000000000000000000000000
00000000000000000000000000000000
00000000000000000000000000000000
00000000000000000000000000000000
00000000000000000000000000000f90

Extracted contents:
header:          00 ff ff ff ff ff ff 00
serial number:   09 e5 90 09 00 00 00 00 1c 1e
version:         01 04
basic params:    b5 22 15 78 03
chroma info:     82 35 a5 53 4a 9e 26 0f 50 54
established:     00 00 00
standard:        01 01 01 01 01 01 01 01 01 01 01 01 01 01 01 01
descriptor 1:    3c 70 00 c8 a0 40 87 60 30 20 36 00 58 d7 10 00 00 18
descriptor 2:    00 00 00 fd 0c 30 a5 1f 1f 4f 01 0a 20 20 20 20 20 20
descriptor 3:    00 00 00 fe 00 42 4f 45 20 43 51 0a 20 20 20 20 20 20
descriptor 4:    00 00 00 fe 00 4e 45 31 36 30 51 44 4d 2d 4e 59 31 0a
extensions:      01
checksum:        9f

EDID version: 1.4
Manufacturer: BOE Model 990 Serial Number --
Made in week 28 of 2020
Digital display
10 bits per primary color channel
DisplayPort interface
Maximum image size: 34 cm x 21 cm
Gamma: 2.20
Supported color formats: RGB 4:4:4
First detailed timing includes the native pixel format and preferred refresh rate
Display is continuous frequency
Display x,y Chromaticity:
  Red:   0.6464, 0.3242
  Green: 0.2890, 0.6191
  Blue:  0.1484, 0.0615
  White: 0.3134, 0.3291
Established timings supported:
Standard timings supported:
Detailed mode: Clock 287.320 MHz, 344 mm x 215 mm
               2560 2608 2640 2760 hborder 0
               1600 1603 1609 1735 vborder 0
               -hsync -vsync 
               VertFreq: 60 Hz, HorFreq: 104101 Hz
Monitor ranges (bare limits): 48-165Hz V, 31-286kHz H, max dotclock 790MHz
ASCII string: BOE CQ
ASCII string: NE160QDM-NY1
Has 1 extension blocks
Checksum: 0x9f (valid)

DisplayID extension block
Extension version: 19
Length 121, version 19, extension count 0
Checksum: 0xf (valid)
Type 1 detailed timing: aspect: 16:10, Preferred  
Detailed mode: Clock 790.120 MHz, 0 mm x 0 mm
               2559 2606 2637 2758
               1599 1601 1606 1733
               -hsync -vsync

EDID block does NOT conform to EDID 1.4!
	Missing name descriptor
EDID block does not conform at all!
	Has 1627389952 nonconformant extension block(s)
