
EDID (hex):
00ffffffffffff005a741266b1040000
02130104a52d2278066755a55b479c25
1e4f54a30e8071408140818090409500
a940b3000101023a801871382d40582c
4500c48e2100001e000000fc000a2020
20202020202020202020000000fc0056
5354363631322044656d6f0a000000fd
00324b1e500e000a2020202020200052

Extracted contents:
header:          00 ff ff ff ff ff ff 00
serial number:   5a 74 12 66 b1 04 00 00 02 13
version:         01 04
basic params:    a5 2d 22 78 06
chroma info:     67 55 a5 5b 47 9c 25 1e 4f 54
established:     a3 0e 80
standard:        71 40 81 40 81 80 90 40 95 00 a9 40 b3 00 01 01
descriptor 1:    02 3a 80 18 71 38 2d 40 58 2c 45 00 c4 8e 21 00 00 1e
descriptor 2:    00 00 00 fc 00 0a 20 20 20 20 20 20 20 20 20 20 20 20
descriptor 3:    00 00 00 fc 00 56 53 54 36 36 31 32 20 44 65 6d 6f 0a
descriptor 4:    00 00 00 fd 00 32 4b 1e 50 0e 00 0a 20 20 20 20 20 20
extensions:      00
checksum:        52

EDID version: 1.4
Manufacturer: VST Model 6612 Serial Number --
Made in week 2 of 2009
Digital display
8 bits per primary color channel
DisplayPort interface
Maximum image size: 45 cm x 34 cm
Gamma: 2.20
Supported color formats: RGB 4:4:4
Default (sRGB) color space is primary color space
First detailed timing includes the native pixel format and preferred refresh rate
Display x,y Chromaticity:
  Red:   0.6455, 0.3574
  Green: 0.2783, 0.6123
  Blue:  0.1455, 0.1181
  White: 0.3095, 0.3291
Established timings supported:
  720x400@70Hz 9:5 HorFreq: 31469 Hz Clock: 28.320 MHz
  640x480@60Hz 4:3 HorFreq: 31469 Hz Clock: 25.175 MHz
  800x600@56Hz 4:3 HorFreq: 35200 Hz Clock: 36.000 MHz
  800x600@60Hz 4:3 HorFreq: 37900 Hz Clock: 40.000 MHz
  1024x768@60Hz 4:3 HorFreq: 48400 Hz Clock: 65.000 MHz
  1024x768@70Hz 4:3 HorFreq: 56500 Hz Clock: 75.000 MHz
  1024x768@75Hz 4:3 HorFreq: 60000 Hz Clock: 78.750 MHz
  1152x870@75Hz 192:145 HorFreq: 67500 Hz Clock: 108.000 MHz
Standard timings supported:
  1152x864@60Hz 4:3
  1280x960@60Hz 4:3 HorFreq: 60000 Hz Clock: 108.000 MHz
  1280x1024@60Hz 5:4 HorFreq: 64000 Hz Clock: 108.000 MHz
  1400x1050@60Hz 4:3 HorFreq: 64700 Hz Clock: 101.000 MHz
  1440x900@60Hz 16:10 HorFreq: 55500 Hz Clock: 88.750 MHz
  1600x1200@60Hz 4:3 HorFreq: 75000 Hz Clock: 162.000 MHz
  1680x1050@60Hz 16:10 HorFreq: 64700 Hz Clock: 119.000 MHz
Detailed mode: Clock 148.500 MHz, 708 mm x 398 mm
               1920 2008 2052 2200 hborder 0
               1080 1084 1089 1125 vborder 0
               +hsync +vsync 
               VertFreq: 60 Hz, HorFreq: 67500 Hz
Monitor name: 
Monitor ranges (GTF): 50-75Hz V, 30-80kHz H, max dotclock 140MHz
Checksum: 0x52 (valid)
EDID block does NOT conform to EDID 1.4!
	sRGB is signaled, but the chromaticities do not match
Warning: One or more of the timings is out of range of the Monitor Ranges:
  Vertical Freq: 56 - 75 Hz
  Horizontal Freq: 31469 - 75000 Hz
  Maximum Clock: 162.000 MHz
