
EDID (hex):
00ffffffffffff000d12117570030000
05180104a5351d78e28496ac5130b425
10505300000001000100010001000100
0100010001005136808c70382d403020
35000f282100001a000000f7000a0000
00000000000000000000000000fd0032
501e5307000a202020202020000000fc
00434837353132420a202020202000fd

edid-decode (hex):

00 ff ff ff ff ff ff 00 0d 12 11 75 70 03 00 00
05 18 01 04 a5 35 1d 78 e2 84 96 ac 51 30 b4 25
10 50 53 00 00 00 01 00 01 00 01 00 01 00 01 00
01 00 01 00 01 00 51 36 80 8c 70 38 2d 40 30 20
35 00 0f 28 21 00 00 1a 00 00 00 f7 00 0a 00 00
00 00 00 00 00 00 00 00 00 00 00 00 00 fd 00 32
50 1e 53 07 00 0a 20 20 20 20 20 20 00 00 00 fc
00 43 48 37 35 31 32 42 0a 20 20 20 20 20 00 fd

----------------

Block 0, Base EDID:
  EDID Structure Version & Revision: 1.4
  Vendor & Product Identification:
    Manufacturer: CHR
    Model: 29969
    Serial Number: 880
    Made in: week 5 of 2014
  Basic Display Parameters & Features:
    Digital display
    Bits per primary color channel: 8
    DisplayPort interface
    Maximum image size: 53 cm x 29 cm
    Gamma: 2.20
    DPMS levels: Standby Suspend Off
    Supported color formats: RGB 4:4:4
    First detailed timing includes the native pixel format and preferred refresh rate
  Color Characteristics:
    Red  : 0.6738, 0.3164
    Green: 0.1884, 0.7031
    Blue : 0.1464, 0.0634
    White: 0.3134, 0.3261
  Established Timings I & II: none
  Standard Timings:
  Detailed Timing Descriptors:
    DTD 1:  1920x1080   60.000000 Hz  16:9     67.500 kHz    139.050000 MHz (527 mm x 296 mm)
                 Hfront   48 Hsync  32 Hback   60 Hpol P
                 Vfront    3 Vsync   5 Vback   37 Vpol N
    Established timings III:
    Display Range Limits:
      Monitor ranges (GTF): 50-80 Hz V, 30-83 kHz H, max dotclock 70 MHz
    Display Product Name: 'CH7512B'
Checksum: 0xfd
