
EDID (hex):
00ffffffffffff000d12117570030000
05170104a52b1d78e28042ac5130b425
10505300000001010101010101010101
010101010101312e400062841a3058a8
4800064d2100001c7e26400062841a30
58a84800064d2100001c000000fd0038
4c1e5311000a202020202020000000fc
00455432303331490a2020202020004d

edid-decode (hex):

00 ff ff ff ff ff ff 00 0d 12 11 75 70 03 00 00
05 17 01 04 a5 2b 1d 78 e2 80 42 ac 51 30 b4 25
10 50 53 00 00 00 01 01 01 01 01 01 01 01 01 01
01 01 01 01 01 01 31 2e 40 00 62 84 1a 30 58 a8
48 00 06 4d 21 00 00 1c 7e 26 40 00 62 84 1a 30
58 a8 48 00 06 4d 21 00 00 1c 00 00 00 fd 00 38
4c 1e 53 11 00 0a 20 20 20 20 20 20 00 00 00 fc
00 45 54 32 30 33 31 49 0a 20 20 20 20 20 00 4d

----------------

Block 0, Base EDID:
  EDID Structure Version & Revision: 1.4
  Vendor & Product Identification:
    Manufacturer: CHR
    Model: 29969
    Serial Number: 880
    Made in: week 5 of 2013
  Basic Display Parameters & Features:
    Digital display
    Bits per primary color channel: 8
    DisplayPort interface
    Maximum image size: 43 cm x 29 cm
    Gamma: 2.20
    DPMS levels: Standby Suspend Off
    Supported color formats: RGB 4:4:4
    First detailed timing includes the native pixel format and preferred refresh rate
  Color Characteristics:
    Red  : 0.6738, 0.3164
    Green: 0.1875, 0.7031
    Blue : 0.1455, 0.0625
    White: 0.3125, 0.3261
  Established Timings I & II: none
  Standard Timings: none
  Detailed Timing Descriptors:
    DTD 1:  1600x900    60.463913 Hz  16:9     55.990 kHz    118.250000 MHz (518 mm x 333 mm)
                 Hfront   88 Hsync 168 Hback  256 Hpol N
                 Vfront    4 Vsync   8 Vback   14 Vpol P
    DTD 2:  1600x900    50.385742 Hz  16:9     46.657 kHz     98.540000 MHz (518 mm x 333 mm)
                 Hfront   88 Hsync 168 Hback  256 Hpol N
                 Vfront    4 Vsync   8 Vback   14 Vpol P
    Display Range Limits:
      Monitor ranges (GTF): 56-76 Hz V, 30-83 kHz H, max dotclock 170 MHz
    Display Product Name: 'ET2031I'
Checksum: 0x4d
