edid-decode (hex):

00 ff ff ff ff ff ff 00 0d f2 79 05 00 00 00 00
00 15 01 03 80 1f 11 78 0a 26 f5 96 59 56 90 27
1c 50 54 00 00 00 01 01 01 01 01 01 01 01 01 01
01 01 01 01 01 01 7d 1e 56 e8 50 00 2e 30 30 20
3c 00 35 ae 10 00 00 18 7d 1e 56 e8 50 00 2e 30
30 20 3c 00 35 ae 10 00 00 18 00 00 00 fe 00 49
6e 66 6f 56 69 73 69 6f 6e 0a 0a 0a 00 00 00 fe
00 50 31 34 30 4e 57 52 31 20 20 20 20 20 00 50

----------------

Block 0, Base EDID:
  EDID Structure Version & Revision: 1.3
  Vendor & Product Identification:
    Manufacturer: COR
    Model: 1401
    Made in: 2011
  Basic Display Parameters & Features:
    Digital display
    Maximum image size: 31 cm x 17 cm
    Gamma: 2.20
    RGB color display
    First detailed timing is the preferred timing
  Color Characteristics:
    Red  : 0.5859, 0.3496
    Green: 0.3369, 0.5644
    Blue : 0.1552, 0.1123
    White: 0.3134, 0.3291
  Established Timings I & II: none
  Standard Timings: none
  Detailed Timing Descriptors:
    DTD 1:  1366x768    60.002829 Hz 683:384   48.842 kHz     78.050000 MHz (309 mm x 174 mm)
                 Hfront   48 Hsync  32 Hback  152 Hpol N
                 Vfront    3 Vsync  12 Vback   31 Vpol N
    DTD 2:  1366x768    60.002829 Hz 683:384   48.842 kHz     78.050000 MHz (309 mm x 174 mm)
                 Hfront   48 Hsync  32 Hback  152 Hpol N
                 Vfront    3 Vsync  12 Vback   31 Vpol N
    Alphanumeric Data String: 'InfoVision'
    Alphanumeric Data String: 'P140NWR1     '
Checksum: 0x50

----------------

Failures:

Block 0, Base EDID:
  Alphanumeric Data String: Non-space after newline.
  Alphanumeric Data String: One or more trailing spaces.
  Missing Display Product Name.
  Missing Display Range Limits Descriptor.

EDID conformity: FAIL
