
EDID (hex):
00ffffffffffff000df2790500000000
00150103801f11780a26f59659569027
1c505400000001010101010101010101
0101010101017d1e56e850002e303020
3c0035ae100000187d1e56e850002e30
30203c0035ae10000018000000fe0049
6e666f566973696f6e0a0a0a000000fe
00503134304e57523120202020200050

Extracted contents:
header:          00 ff ff ff ff ff ff 00
serial number:   0d f2 79 05 00 00 00 00 00 15
version:         01 03
basic params:    80 1f 11 78 0a
chroma info:     26 f5 96 59 56 90 27 1c 50 54
established:     00 00 00
standard:        01 01 01 01 01 01 01 01 01 01 01 01 01 01 01 01
descriptor 1:    7d 1e 56 e8 50 00 2e 30 30 20 3c 00 35 ae 10 00 00 18
descriptor 2:    7d 1e 56 e8 50 00 2e 30 30 20 3c 00 35 ae 10 00 00 18
descriptor 3:    00 00 00 fe 00 49 6e 66 6f 56 69 73 69 6f 6e 0a 0a 0a
descriptor 4:    00 00 00 fe 00 50 31 34 30 4e 57 52 31 20 20 20 20 20
extensions:      00
checksum:        50

EDID version: 1.3
Manufacturer: COR Model 579 Serial Number --
Made in year 2011
Digital display
Maximum image size: 31 cm x 17 cm
Gamma: 2.20
RGB color display
First detailed timing is preferred timing
Display x,y Chromaticity:
  Red:   0.5859, 0.3496
  Green: 0.3369, 0.5644
  Blue:  0.1552, 0.1123
  White: 0.3134, 0.3291
Established timings supported:
Standard timings supported:
Detailed mode: Clock 78.050 MHz, 309 mm x 174 mm
               1366 1414 1446 1598 hborder 0
                768  771  783  814 vborder 0
               -hsync -vsync 
               VertFreq: 60 Hz, HorFreq: 48842 Hz
Detailed mode: Clock 78.050 MHz, 309 mm x 174 mm
               1366 1414 1446 1598 hborder 0
                768  771  783  814 vborder 0
               -hsync -vsync 
               VertFreq: 60 Hz, HorFreq: 48842 Hz
ASCII string: InfoVision
ASCII string: P140NWR1     
Checksum: 0x50 (valid)
EDID block does NOT conform to EDID 1.3!
	Missing name descriptor
	Missing monitor ranges
	Detailed block string not properly terminated
