
EDID (hex):
00ffffffffffff0009e5900a00000000
191f0104a51f1278036cd0a7534c9c24
10505400000001010101010101010101
010101010101b29f00a0a04046603020
35002dbc1000001a776a00a0a0404660
302035002dbc10000000000000fe0042
4f452048460a202020202020000000fe
004e5631343051444d2d4e46310a00f5

edid-decode (hex):

00 ff ff ff ff ff ff 00 09 e5 90 0a 00 00 00 00
19 1f 01 04 a5 1f 12 78 03 6c d0 a7 53 4c 9c 24
10 50 54 00 00 00 01 01 01 01 01 01 01 01 01 01
01 01 01 01 01 01 b2 9f 00 a0 a0 40 46 60 30 20
35 00 2d bc 10 00 00 1a 77 6a 00 a0 a0 40 46 60
30 20 35 00 2d bc 10 00 00 00 00 00 00 fe 00 42
4f 45 20 48 46 0a 20 20 20 20 20 20 00 00 00 fe
00 4e 56 31 34 30 51 44 4d 2d 4e 46 31 0a 00 f5

----------------

Block 0, Base EDID:
  EDID Structure Version & Revision: 1.4
  Vendor & Product Identification:
    Manufacturer: BOE
    Model: 2704
    Made in: week 25 of 2021
  Basic Display Parameters & Features:
    Digital display
    Bits per primary color channel: 8
    DisplayPort interface
    Maximum image size: 31 cm x 18 cm
    Gamma: 2.20
    Supported color formats: RGB 4:4:4
    First detailed timing includes the native pixel format and preferred refresh rate
    Display is continuous frequency
  Color Characteristics:
    Red  : 0.6533, 0.3261
    Green: 0.2998, 0.6093
    Blue : 0.1435, 0.0634
    White: 0.3125, 0.3281
  Established Timings I & II: none
  Standard Timings: none
  Detailed Timing Descriptors:
    DTD 1:  2560x1600   90.000881 Hz  16:10   150.301 kHz    408.820000 MHz (301 mm x 188 mm)
                 Hfront   48 Hsync  32 Hback   80 Hpol P
                 Vfront    3 Vsync   5 Vback   62 Vpol N
    DTD 2:  2560x1600   60.001321 Hz  16:10   100.202 kHz    272.550000 MHz (analog composite, sync-on-green, 301 mm x 188 mm)
                 Hfront   48 Hsync  32 Hback   80 Hpol N
                 Vfront    3 Vsync   5 Vback   62 Vpol N
    Alphanumeric Data String: 'BOE HF'
    Alphanumeric Data String: 'NV140QDM-NF1'
Checksum: 0xf5
