
EDID (hex):
00ffffffffffff002163000000000000
1a1e0103803c2178263d85a6564a9a24
125054afcf0001010101d1c081809500
a9c0b3000101695e00a0a0a029503020
3a00584a2100001e000000fd00324c1e
7019000a202020202020000000fc0048
4b432d4d4232375431510a20000000ff
00434230363035363032303439340161
02032bf1509005040302011112131406
0715160000230907078301000065030c
00100067d85dc4013cc000704700a0a0
38294030203a00584a2100001e023a80
1871382d40582c4500584a2100001e01
1d007251d01e206e285500584a210000
1e000000000000000000000000000000
0000000000000000000000000000007d

Extracted contents:
header:          00 ff ff ff ff ff ff 00
serial number:   21 63 00 00 00 00 00 00 1a 1e
version:         01 03
basic params:    80 3c 21 78 26
chroma info:     3d 85 a6 56 4a 9a 24 12 50 54
established:     af cf 00
standard:        01 01 01 01 d1 c0 81 80 95 00 a9 c0 b3 00 01 01
descriptor 1:    69 5e 00 a0 a0 a0 29 50 30 20 3a 00 58 4a 21 00 00 1e
descriptor 2:    00 00 00 fd 00 32 4c 1e 70 19 00 0a 20 20 20 20 20 20
descriptor 3:    00 00 00 fc 00 48 4b 43 2d 4d 42 32 37 54 31 51 0a 20
descriptor 4:    00 00 00 ff 00 43 42 30 36 30 35 36 30 32 30 34 39 34
extensions:      01
checksum:        61

EDID version: 1.3
Manufacturer: HKC Model 0 Serial Number --
Made in week 26 of 2020
Digital display
Maximum image size: 60 cm x 33 cm
Gamma: 2.20
DPMS levels: Off
Monochrome or grayscale display
Default (sRGB) color space is primary color space
First detailed timing is preferred timing
Display x,y Chromaticity:
  Red:   0.6484, 0.3388
  Green: 0.2919, 0.6025
  Blue:  0.1425, 0.0703
  White: 0.3134, 0.3291
Established timings supported:
  720x400@70Hz 9:5 HorFreq: 31469 Hz Clock: 28.320 MHz
  640x480@60Hz 4:3 HorFreq: 31469 Hz Clock: 25.175 MHz
  640x480@72Hz 4:3 HorFreq: 37900 Hz Clock: 31.500 MHz
  640x480@75Hz 4:3 HorFreq: 37500 Hz Clock: 31.500 MHz
  800x600@56Hz 4:3 HorFreq: 35200 Hz Clock: 36.000 MHz
  800x600@60Hz 4:3 HorFreq: 37900 Hz Clock: 40.000 MHz
  800x600@72Hz 4:3 HorFreq: 48100 Hz Clock: 50.000 MHz
  800x600@75Hz 4:3 HorFreq: 46900 Hz Clock: 49.500 MHz
  1024x768@60Hz 4:3 HorFreq: 48400 Hz Clock: 65.000 MHz
  1024x768@70Hz 4:3 HorFreq: 56500 Hz Clock: 75.000 MHz
  1024x768@75Hz 4:3 HorFreq: 60000 Hz Clock: 78.750 MHz
  1280x1024@75Hz 5:4 HorFreq: 80000 Hz Clock: 135.000 MHz
Standard timings supported:
  1920x1080@60Hz 16:9
  1280x1024@60Hz 5:4 HorFreq: 64000 Hz Clock: 108.000 MHz
  1440x900@60Hz 16:10 HorFreq: 55500 Hz Clock: 88.750 MHz
  1600x900@60Hz 16:9
  1680x1050@60Hz 16:10 HorFreq: 64700 Hz Clock: 119.000 MHz
Detailed mode: Clock 241.690 MHz, 600 mm x 330 mm
               2560 2608 2640 2720 hborder 0
               1440 1443 1453 1481 vborder 0
               +hsync +vsync 
               VertFreq: 59 Hz, HorFreq: 88856 Hz
Monitor ranges (GTF): 50-76Hz V, 30-112kHz H, max dotclock 250MHz
Monitor name: HKC-MB27T1Q
Serial number: --
Has 1 extension blocks
Checksum: 0x61 (valid)

CTA extension block
Extension version: 3
39 bytes of CTA data
  Video data block
    VIC  16 1920x1080@60Hz 16:9 (native) HorFreq: 67500 Hz Clock: 148.500 MHz
    VIC   5 1920x1080i@60Hz 16:9  HorFreq: 33750 Hz Clock: 74.250 MHz
    VIC   4 1280x720@60Hz 16:9  HorFreq: 45000 Hz Clock: 74.250 MHz
    VIC   3 720x480@60Hz 16:9  HorFreq: 31469 Hz Clock: 27.000 MHz
    VIC   2 720x480@60Hz 4:3  HorFreq: 31469 Hz Clock: 27.000 MHz
    VIC   1 640x480@60Hz 4:3  HorFreq: 31469 Hz Clock: 25.175 MHz
    VIC  17 720x576@50Hz 4:3  HorFreq: 31250 Hz Clock: 27.000 MHz
    VIC  18 720x576@50Hz 16:9  HorFreq: 31250 Hz Clock: 27.000 MHz
    VIC  19 1280x720@50Hz 16:9  HorFreq: 37500 Hz Clock: 74.250 MHz
    VIC  20 1920x1080i@50Hz 16:9  HorFreq: 28125 Hz Clock: 74.250 MHz
    VIC   6 1440x480i@60Hz 4:3  HorFreq: 15734 Hz Clock: 27.000 MHz
    VIC   7 1440x480i@60Hz 16:9  HorFreq: 15734 Hz Clock: 27.000 MHz
    VIC  21 1440x576i@50Hz 4:3  HorFreq: 15625 Hz Clock: 27.000 MHz
    VIC  22 1440x576i@50Hz 16:9  HorFreq: 15625 Hz Clock: 27.000 MHz
  Audio data block
    Linear PCM, max channels 2
      Supported sample rates (kHz): 48 44.1 32
      Supported sample sizes (bits): 24 20 16
  Speaker allocation data block
    Speaker map:
      FL/FR - Front Left/Right
  Vendor-specific data block, OUI 000c03 (HDMI)
    Source physical address 1.0.0.0
  Vendor-specific data block, OUI c45dd8 (HDMI Forum)
    Version: 1
    Maximum TMDS Character Rate: 300MHz
    SCDC Present
    SCDC Read Request Capable
Underscans PC formats by default
Basic audio support
Supports YCbCr 4:4:4
Supports YCbCr 4:2:2
1 native detailed modes
Detailed mode: Clock 182.880 MHz, 600 mm x 330 mm
               2560 2608 2640 2720 hborder 0
               1080 1083 1093 1121 vborder 0
               +hsync +vsync 
               VertFreq: 59 Hz, HorFreq: 67235 Hz
Detailed mode: Clock 148.500 MHz, 600 mm x 330 mm
               1920 2008 2052 2200 hborder 0
               1080 1084 1089 1125 vborder 0
               +hsync +vsync 
               VertFreq: 60 Hz, HorFreq: 67500 Hz
Detailed mode: Clock 74.250 MHz, 600 mm x 330 mm
               1280 1390 1430 1650 hborder 0
                720  725  730  750 vborder 0
               +hsync +vsync 
               VertFreq: 60 Hz, HorFreq: 45000 Hz
Checksum: 0x7d (valid)

EDID block does NOT conform to EDID 1.3!
	sRGB is signaled, but the chromaticities do not match
	HDMI Forum VSDB Max TMDS rate is > 0 and <= 340 or > 600
One or more of the timings is out of range of the Monitor Ranges:
  Vertical Freq: 50 - 75 Hz
  Horizontal Freq: 15625 - 88856 Hz
  Maximum Clock: 241.690 MHz


