edid-decode (hex):

00 ff ff ff ff ff ff 00 30 ae a5 60 01 01 01 01
2d 17 01 03 80 43 1c 78 2e ca 95 a6 55 4e a1 26
0f 50 54 a1 08 00 81 c0 81 00 81 80 95 00 a9 c0
b3 00 d1 c0 01 01 cd 46 00 a0 a0 38 1f 40 30 20
3a 00 a1 1c 21 00 00 1a 02 3a 80 18 71 38 2d 40
58 2c 45 00 a1 1c 21 00 00 1e 00 00 00 fd 00 32
4c 1e 46 15 00 0a 20 20 20 20 20 20 00 00 00 fc
00 4c 45 4e 20 4c 54 32 39 33 34 7a 77 41 01 07

02 03 1e f1 4b 90 01 02 03 04 05 11 12 13 1f 14
23 09 07 07 83 01 00 00 65 03 0c 00 10 00 2b 16
80 d0 20 38 28 40 28 40 3a 00 a1 1c 21 00 00 1a
0e 1f 00 80 51 00 1e 30 40 80 37 00 a1 1c 21 00
00 1c ec 2c 00 b0 51 38 28 40 50 88 3a 00 a1 1c
21 00 00 1c 66 21 50 b0 51 00 1b 30 40 70 36 00
a1 1c 21 00 00 1e 31 15 00 50 51 1c 16 20 30 80
3a 00 a1 1c 21 00 00 1a 00 00 00 00 00 00 00 4a

00 ff ff ff ff ff ff 00 30 ae a5 60 01 01 01 01
2d 17 01 03 80 43 1c 78 2e ca 95 a6 55 4e a1 26
0f 50 54 a1 08 00 81 c0 81 00 81 80 95 00 a9 c0
b3 00 d1 c0 01 01 cd 46 00 a0 a0 38 1f 40 30 20
3a 00 a1 1c 21 00 00 1a 02 3a 80 18 71 38 2d 40
58 2c 45 00 a1 1c 21 00 00 1e 00 00 00 fd 00 32
4c 1e 46 15 00 0a 20 20 20 20 20 20 00 00 00 fc
00 4c 45 4e 20 4c 54 32 39 33 34 7a 77 41 01 07

02 03 1e f1 4b 90 01 02 03 04 05 11 12 13 1f 14
23 09 07 07 83 01 00 00 65 03 0c 00 10 00 2b 16
80 d0 20 38 28 40 28 40 3a 00 a1 1c 21 00 00 1a
0e 1f 00 80 51 00 1e 30 40 80 37 00 a1 1c 21 00
00 1c ec 2c 00 b0 51 38 28 40 50 88 3a 00 a1 1c
21 00 00 1c 66 21 50 b0 51 00 1b 30 40 70 36 00
a1 1c 21 00 00 1e 31 15 00 50 51 1c 16 20 30 80
3a 00 a1 1c 21 00 00 1a 00 00 00 00 00 00 00 4a

----------------

Block 0, Base EDID:
  EDID Structure Version & Revision: 1.3
  Vendor & Product Identification:
    Manufacturer: LEN
    Model: 24741
    Serial Number: ...
    Made in: week 45 of 2013
  Basic Display Parameters & Features:
    Digital display
    Maximum image size: 67 cm x 28 cm
    Gamma: 2.20
    DPMS levels: Off
    RGB color display
    Default (sRGB) color space is primary color space
    First detailed timing is the preferred timing
  Color Characteristics:
    Red  : 0.6513, 0.3320
    Green: 0.3066, 0.6308
    Blue : 0.1503, 0.0595
    White: 0.3134, 0.3291
  Established Timings I & II:
    IBM     :   720x400    70.081663 Hz   9:5     31.467 kHz     28.320000 MHz
    DMT 0x04:   640x480    59.940476 Hz   4:3     31.469 kHz     25.175000 MHz
    DMT 0x09:   800x600    60.316541 Hz   4:3     37.879 kHz     40.000000 MHz
    DMT 0x10:  1024x768    60.003840 Hz   4:3     48.363 kHz     65.000000 MHz
  Standard Timings:
    DMT 0x55:  1280x720    60.000000 Hz  16:9     45.000 kHz     74.250000 MHz
    DMT 0x1c:  1280x800    59.810326 Hz  16:10    49.702 kHz     83.500000 MHz
    DMT 0x23:  1280x1024   60.019740 Hz   5:4     63.981 kHz    108.000000 MHz
    DMT 0x2f:  1440x900    59.887445 Hz  16:10    55.935 kHz    106.500000 MHz
    DMT 0x53:  1600x900    60.000000 Hz  16:9     60.000 kHz    108.000000 MHz (RB)
    DMT 0x3a:  1680x1050   59.954250 Hz  16:10    65.290 kHz    146.250000 MHz
    DMT 0x52:  1920x1080   60.000000 Hz  16:9     67.500 kHz    148.500000 MHz
  Detailed Timing Descriptors:
    DTD  1:  2560x1080   59.978424 Hz  64:27    66.636 kHz    181.250000 MHz (673 mm x 284 mm)
                  Hfront   48 Hsync  32 Hback   80 Hpol P
                  Vfront    3 Vsync  10 Vback   18 Vpol N
    DTD  2:  1920x1080   60.000000 Hz  16:9     67.500 kHz    148.500000 MHz (673 mm x 284 mm)
                  Hfront   88 Hsync  44 Hback  148 Hpol P
                  Vfront    4 Vsync   5 Vback   36 Vpol P
    Display Range Limits:
      Monitor ranges (GTF): 50-76 Hz V, 30-70 kHz H, max dotclock 210 MHz
    Display Product Name: 'LEN LT2934zwA'
  Extension blocks: 1
Checksum: 0x07

----------------

Block 1, CTA-861 Extension Block:
  Revision: 3
  Underscans IT Video Formats by default
  Basic audio support
  Supports YCbCr 4:4:4
  Supports YCbCr 4:2:2
  Native detailed modes: 1
  Video Data Block:
    VIC  16:  1920x1080   60.000000 Hz  16:9     67.500 kHz    148.500000 MHz (native)
    VIC   1:   640x480    59.940476 Hz   4:3     31.469 kHz     25.175000 MHz
    VIC   2:   720x480    59.940060 Hz   4:3     31.469 kHz     27.000000 MHz
    VIC   3:   720x480    59.940060 Hz  16:9     31.469 kHz     27.000000 MHz
    VIC   4:  1280x720    60.000000 Hz  16:9     45.000 kHz     74.250000 MHz
    VIC   5:  1920x1080i  60.000000 Hz  16:9     33.750 kHz     74.250000 MHz
    VIC  17:   720x576    50.000000 Hz   4:3     31.250 kHz     27.000000 MHz
    VIC  18:   720x576    50.000000 Hz  16:9     31.250 kHz     27.000000 MHz
    VIC  19:  1280x720    50.000000 Hz  16:9     37.500 kHz     74.250000 MHz
    VIC  31:  1920x1080   50.000000 Hz  16:9     56.250 kHz    148.500000 MHz
    VIC  20:  1920x1080i  50.000000 Hz  16:9     28.125 kHz     74.250000 MHz
  Audio Data Block:
    Linear PCM:
      Max channels: 2
      Supported sample rates (kHz): 48 44.1 32
      Supported sample sizes (bits): 24 20 16
  Speaker Allocation Data Block:
    FL/FR - Front Left/Right
  Vendor-Specific Data Block (HDMI), OUI 00-0C-03:
    Source physical address: 1.0.0.0
  Detailed Timing Descriptors:
    DTD  3:   640x1080   59.751937 Hz  16:27    66.922 kHz     56.750000 MHz (673 mm x 284 mm)
                  Hfront   40 Hsync  64 Hback  104 Hpol P
                  Vfront    3 Vsync  10 Vback   27 Vpol N
    DTD  4:  1280x768    59.870228 Hz   5:3     47.776 kHz     79.500000 MHz (673 mm x 284 mm)
                  Hfront   64 Hsync 128 Hback  192 Hpol N
                  Vfront    3 Vsync   7 Vback   20 Vpol P
    DTD  5:  1280x1080   59.975801 Hz  32:27    67.173 kHz    115.000000 MHz (673 mm x 284 mm)
                  Hfront   80 Hsync 136 Hback  216 Hpol N
                  Vfront    3 Vsync  10 Vback   27 Vpol P
    DTD  6:  1360x768    60.015162 Hz  85:48    47.712 kHz     85.500000 MHz (673 mm x 284 mm)
                  Hfront   64 Hsync 112 Hback  256 Hpol P
                  Vfront    3 Vsync   6 Vback   18 Vpol P
    DTD  7:  1280x540    59.734065 Hz  64:27    33.571 kHz     54.250000 MHz (673 mm x 284 mm)
                  Hfront   48 Hsync 128 Hback  160 Hpol P
                  Vfront    3 Vsync  10 Vback    9 Vpol N
Checksum: 0x4a  Unused space in Extension Block: 7 bytes

----------------

Block 2, Unknown EDID Extension Block 0x00:
  00 ff ff ff ff ff ff 00 30 ae a5 60 01 01 01 01 '........0..`....'
  2d 17 01 03 80 43 1c 78 2e ca 95 a6 55 4e a1 26 '-....C.x....UN.&'
  0f 50 54 a1 08 00 81 c0 81 00 81 80 95 00 a9 c0 '.PT.............'
  b3 00 d1 c0 01 01 cd 46 00 a0 a0 38 1f 40 30 20 '.......F...8.@0 '
  3a 00 a1 1c 21 00 00 1a 02 3a 80 18 71 38 2d 40 ':...!....:..q8-@'
  58 2c 45 00 a1 1c 21 00 00 1e 00 00 00 fd 00 32 'X,E...!........2'
  4c 1e 46 15 00 0a 20 20 20 20 20 20 00 00 00 fc 'L.F...      ....'
  00 4c 45 4e 20 4c 54 32 39 33 34 7a 77 41 01 07 '.LEN LT2934zwA..'
Checksum: 0x07

----------------

Block 3, CTA-861 Extension Block:
  Revision: 3
  Underscans IT Video Formats by default
  Basic audio support
  Supports YCbCr 4:4:4
  Supports YCbCr 4:2:2
  Native detailed modes: 1
  Video Data Block:
    VIC  16:  1920x1080   60.000000 Hz  16:9     67.500 kHz    148.500000 MHz (native)
    VIC   1:   640x480    59.940476 Hz   4:3     31.469 kHz     25.175000 MHz
    VIC   2:   720x480    59.940060 Hz   4:3     31.469 kHz     27.000000 MHz
    VIC   3:   720x480    59.940060 Hz  16:9     31.469 kHz     27.000000 MHz
    VIC   4:  1280x720    60.000000 Hz  16:9     45.000 kHz     74.250000 MHz
    VIC   5:  1920x1080i  60.000000 Hz  16:9     33.750 kHz     74.250000 MHz
    VIC  17:   720x576    50.000000 Hz   4:3     31.250 kHz     27.000000 MHz
    VIC  18:   720x576    50.000000 Hz  16:9     31.250 kHz     27.000000 MHz
    VIC  19:  1280x720    50.000000 Hz  16:9     37.500 kHz     74.250000 MHz
    VIC  31:  1920x1080   50.000000 Hz  16:9     56.250 kHz    148.500000 MHz
    VIC  20:  1920x1080i  50.000000 Hz  16:9     28.125 kHz     74.250000 MHz
  Audio Data Block:
    Linear PCM:
      Max channels: 2
      Supported sample rates (kHz): 48 44.1 32
      Supported sample sizes (bits): 24 20 16
  Speaker Allocation Data Block:
    FL/FR - Front Left/Right
  Vendor-Specific Data Block (HDMI), OUI 00-0C-03:
    Source physical address: 1.0.0.0
  Detailed Timing Descriptors:
    DTD  8:   640x1080   59.751937 Hz  16:27    66.922 kHz     56.750000 MHz (673 mm x 284 mm)
                  Hfront   40 Hsync  64 Hback  104 Hpol P
                  Vfront    3 Vsync  10 Vback   27 Vpol N
    DTD  9:  1280x768    59.870228 Hz   5:3     47.776 kHz     79.500000 MHz (673 mm x 284 mm)
                  Hfront   64 Hsync 128 Hback  192 Hpol N
                  Vfront    3 Vsync   7 Vback   20 Vpol P
    DTD 10:  1280x1080   59.975801 Hz  32:27    67.173 kHz    115.000000 MHz (673 mm x 284 mm)
                  Hfront   80 Hsync 136 Hback  216 Hpol N
                  Vfront    3 Vsync  10 Vback   27 Vpol P
    DTD 11:  1360x768    60.015162 Hz  85:48    47.712 kHz     85.500000 MHz (673 mm x 284 mm)
                  Hfront   64 Hsync 112 Hback  256 Hpol P
                  Vfront    3 Vsync   6 Vback   18 Vpol P
    DTD 12:  1280x540    59.734065 Hz  64:27    33.571 kHz     54.250000 MHz (673 mm x 284 mm)
                  Hfront   48 Hsync 128 Hback  160 Hpol P
                  Vfront    3 Vsync  10 Vback    9 Vpol N
Checksum: 0x4a  Unused space in Extension Block: 7 bytes

----------------

Failures:

Block 0, Base EDID:
  Basic Display Parameters & Features: sRGB is signaled, but the chromaticities do not match.
Block 1, CTA-861 Extension Block:
  Missing VCDB, needed for Set Selectable RGB Quantization to avoid interop issues.
Block 2, Base EDID:
  Unknown Extension Block.
Block 3, CTA-861 Extension Block:
  Video Data Block: Duplicate VIC 16.
  Video Data Block: Duplicate VIC 1.
  Video Data Block: Duplicate VIC 2.
  Video Data Block: Duplicate VIC 3.
  Video Data Block: Duplicate VIC 4.
  Video Data Block: Duplicate VIC 5.
  Video Data Block: Duplicate VIC 17.
  Video Data Block: Duplicate VIC 18.
  Video Data Block: Duplicate VIC 19.
  Video Data Block: Duplicate VIC 31.
  Video Data Block: Duplicate VIC 20.
  Speaker Allocation Data Block: Only one instance of this Data Block is allowed.
  Missing VCDB, needed for Set Selectable RGB Quantization to avoid interop issues.
EDID:
  Base EDID: Some timings are out of range of the Monitor Ranges:
    Horizontal Freq: 28.125 - 67.500 kHz (Monitor: 30.000 - 70.000 kHz)
  Base EDID: EDID specified 1 extension block(s), but found 3 extension block(s).
  Base EDID: EDID 1.3 requires a Block Map Extension in Block 1 if there are more than 2 blocks in the EDID.
  CTA-861: Native progressive timings are a mix of several resolutions.

EDID conformity: FAIL
