
EDID (hex):
00ffffffffffff0010ac164059333447
3212010380402878288585a85334aa25
12505400000001010101010101010101
010101010101bc1b00a0502017303020
360086962100001ab06800a0a0402e60
3020360086962100001e000000fc0044
454c4c333030375746504843000000ff
004737343448384342473433590a00e3

Extracted contents:
header:          00 ff ff ff ff ff ff 00
serial number:   10 ac 16 40 59 33 34 47 32 12
version:         01 03
basic params:    80 40 28 78 28
chroma info:     85 85 a8 53 34 aa 25 12 50 54
established:     00 00 00
standard:        01 01 01 01 01 01 01 01 01 01 01 01 01 01 01 01
descriptor 1:    bc 1b 00 a0 50 20 17 30 30 20 36 00 86 96 21 00 00 1a
descriptor 2:    b0 68 00 a0 a0 40 2e 60 30 20 36 00 86 96 21 00 00 1e
descriptor 3:    00 00 00 fc 00 44 45 4c 4c 33 30 30 37 57 46 50 48 43
descriptor 4:    00 00 00 ff 00 47 37 34 34 48 38 43 42 47 34 33 59 0a
extensions:      00
checksum:        e3

EDID version: 1.3
Manufacturer: DEL Model 4016 Serial Number --
Made in week 50 of 2008
Digital display
Maximum image size: 64 cm x 40 cm
Gamma: 2.20
DPMS levels: Off
RGB color display
Display x,y Chromaticity:
  Red:   0.6582, 0.3242
  Green: 0.2041, 0.6650
  Blue:  0.1464, 0.0703
  White: 0.3134, 0.3291
Established timings supported:
Standard timings supported:
Detailed mode: Clock 71.000 MHz, 646 mm x 406 mm
               1280 1328 1360 1440 hborder 0
                800  803  809  823 vborder 0
               +hsync -vsync 
               VertFreq: 59 Hz, HorFreq: 49305 Hz
Detailed mode: Clock 268.000 MHz, 646 mm x 406 mm
               2560 2608 2640 2720 hborder 0
               1600 1603 1609 1646 vborder 0
               +hsync +vsync 
               VertFreq: 59 Hz, HorFreq: 98529 Hz
Serial number: --
Checksum: 0xe3 (valid)
EDID block does NOT conform to EDID 1.3!
	Name descriptor not terminated with a newline
	Missing preferred timing
	Missing monitor ranges


