
EDID (hex):
00ffffffffffff0038b82d2001010101
33150103082c1978eafa45a259539f26
0f5054a54b00a9c0818081c001010101
0101010101012f2640a060841a303020
3500bbf91000001a000000fc0032304c
440a2020202020202020000000fd0038
4c1e5210000a202020202020000000ff
0032304c4441473135313032333400be

Extracted contents:
header:          00 ff ff ff ff ff ff 00
serial number:   38 b8 2d 20 01 01 01 01 33 15
version:         01 03
basic params:    08 2c 19 78 ea
chroma info:     fa 45 a2 59 53 9f 26 0f 50 54
established:     a5 4b 00
standard:        a9 c0 81 80 81 c0 01 01 01 01 01 01 01 01 01 01
descriptor 1:    2f 26 40 a0 60 84 1a 30 30 20 35 00 bb f9 10 00 00 1a
descriptor 2:    00 00 00 fc 00 32 30 4c 44 0a 20 20 20 20 20 20 20 20
descriptor 3:    00 00 00 fd 00 38 4c 1e 52 10 00 0a 20 20 20 20 20 20
descriptor 4:    00 00 00 ff 00 32 30 4c 44 41 47 31 35 31 30 32 33 34
extensions:      00
checksum:        be

EDID version: 1.3
Manufacturer: NEX Model 202d Serial Number --
Made in week 51 of 2011
Analog display, Input voltage level: 0.7/0.3 V
Sync: Separate 
Maximum image size: 44 cm x 25 cm
Gamma: 2.20
DPMS levels: Standby Suspend Off
RGB color display
First detailed timing is preferred timing
Display x,y Chromaticity:
  Red:   0.6357, 0.3505
  Green: 0.3261, 0.6230
  Blue:  0.1494, 0.0585
  White: 0.3134, 0.3291
Established timings supported:
  720x400@70Hz 9:5 HorFreq: 31469 Hz Clock: 28.320 MHz
  640x480@60Hz 4:3 HorFreq: 31469 Hz Clock: 25.175 MHz
  640x480@75Hz 4:3 HorFreq: 37500 Hz Clock: 31.500 MHz
  800x600@60Hz 4:3 HorFreq: 37900 Hz Clock: 40.000 MHz
  800x600@75Hz 4:3 HorFreq: 46900 Hz Clock: 49.500 MHz
  1024x768@60Hz 4:3 HorFreq: 48400 Hz Clock: 65.000 MHz
  1024x768@75Hz 4:3 HorFreq: 60000 Hz Clock: 78.750 MHz
  1280x1024@75Hz 5:4 HorFreq: 80000 Hz Clock: 135.000 MHz
Standard timings supported:
  1600x900@60Hz 16:9
  1280x1024@60Hz 5:4 HorFreq: 64000 Hz Clock: 108.000 MHz
  1280x720@60Hz 16:9
Detailed mode: Clock 97.750 MHz, 443 mm x 249 mm
               1600 1648 1680 1760 hborder 0
                900  903  908  926 vborder 0
               +hsync -vsync 
               VertFreq: 59 Hz, HorFreq: 55539 Hz
Monitor name: 20LD
Monitor ranges (GTF): 56-76Hz V, 30-82kHz H, max dotclock 160MHz
Serial number: --
Checksum: 0xbe (valid)
