edid-decode (hex):

00 ff ff ff ff ff ff 00 04 72 96 04 59 17 00 31
0a 21 01 04 00 3c 22 ff 02 00 00 00 00 00 00 00
00 00 00 b3 0c 00 71 4f 81 c0 81 00 81 80 95 00
b3 00 d1 c0 d1 cf 3b 56 80 b0 72 38 32 40 88 d0
35 00 00 00 00 00 00 1c 00 00 00 fc 00 52 32 37
31 0a 20 20 20 20 20 20 20 20 00 00 00 ff 00 00
00 00 00 00 00 00 00 00 00 00 00 00 00 00 00 00
00 00 00 00 00 00 00 00 00 00 00 00 00 00 00 94

00 ff ff ff ff ff ff 00 04 72 96 04 59 17 00 31
0a 21 01 04 00 3c 22 ff 02 00 00 00 00 00 00 00
00 00 00 b3 0c 00 71 4f 81 c0 81 00 81 80 95 00
b3 00 d1 c0 d1 cf 3b 56 80 b0 72 38 32 40 88 d0
35 00 00 00 00 00 00 1c 00 00 00 fc 00 52 32 37
31 0a 20 20 20 20 20 20 20 20 00 00 00 ff 00 00
00 00 00 00 00 00 00 00 00 00 00 00 00 00 00 00
00 00 00 00 00 00 00 00 00 00 00 00 00 00 00 94

----------------

Block 0, Base EDID:
  EDID Structure Version & Revision: 1.4
  Vendor & Product Identification:
    Manufacturer: ACR
    Model: 1174
    Serial Number: ...
    Made in: week 10 of 2023
  Basic Display Parameters & Features:
    Analog display
    Signal Level Standard: 0.700 : 0.300 : 1.000 V p-p
    Blank level equals black level
    Maximum image size: 60 cm x 34 cm
    Gamma is defined in an extension block
    Monochrome or grayscale display
    First detailed timing includes the native pixel format and preferred refresh rate
  Color Characteristics:
    Red  : 0.0000, 0.0000
    Green: 0.0000, 0.0000
    Blue : 0.0000, 0.0000
    White: 0.0000, 0.0000
  Established Timings I & II:
    IBM     :   720x400    70.081663 Hz   9:5     31.467 kHz     28.320000 MHz
    DMT 0x04:   640x480    59.940476 Hz   4:3     31.469 kHz     25.175000 MHz
    Apple   :   640x480    66.666667 Hz   4:3     35.000 kHz     30.240000 MHz
    DMT 0x08:   800x600    56.250000 Hz   4:3     35.156 kHz     36.000000 MHz
    DMT 0x09:   800x600    60.316541 Hz   4:3     37.879 kHz     40.000000 MHz
    DMT 0x10:  1024x768    60.003840 Hz   4:3     48.363 kHz     65.000000 MHz
    DMT 0x11:  1024x768    70.069359 Hz   4:3     56.476 kHz     75.000000 MHz
  Standard Timings:
    DMT 0x15:  1152x864    75.000000 Hz   4:3     67.500 kHz    108.000000 MHz
    DMT 0x55:  1280x720    60.000000 Hz  16:9     45.000 kHz     74.250000 MHz
    DMT 0x1c:  1280x800    59.810326 Hz  16:10    49.702 kHz     83.500000 MHz
    DMT 0x23:  1280x1024   60.019740 Hz   5:4     63.981 kHz    108.000000 MHz
    DMT 0x2f:  1440x900    59.887445 Hz  16:10    55.935 kHz    106.500000 MHz
    DMT 0x3a:  1680x1050   59.954250 Hz  16:10    65.290 kHz    146.250000 MHz
    DMT 0x52:  1920x1080   60.000000 Hz  16:9     67.500 kHz    148.500000 MHz
    GTF     :  1920x1080   75.000068 Hz  16:9     84.600 kHz    220.637000 MHz
  Detailed Timing Descriptors:
    DTD 1:  1920x1080   74.905668 Hz  16:9     84.643 kHz    220.750000 MHz
                 Hfront  136 Hsync 208 Hback  344 Hpol N
                 Vfront    3 Vsync   5 Vback   42 Vpol P
    Display Product Name: 'R271'
    Display Product Serial Number: ...
    Empty Descriptor
Checksum: 0x94

----------------

Block 1, Unknown EDID Extension Block 0x00:
  00 ff ff ff ff ff ff 00 04 72 96 04 59 17 00 31 '.........r..Y..1'
  0a 21 01 04 00 3c 22 ff 02 00 00 00 00 00 00 00 '.!...<".........'
  00 00 00 b3 0c 00 71 4f 81 c0 81 00 81 80 95 00 '......qO........'
  b3 00 d1 c0 d1 cf 3b 56 80 b0 72 38 32 40 88 d0 '......;V..r82@..'
  35 00 00 00 00 00 00 1c 00 00 00 fc 00 52 32 37 '5............R27'
  31 0a 20 20 20 20 20 20 20 20 00 00 00 ff 00 00 '1.        ......'
  00 00 00 00 00 00 00 00 00 00 00 00 00 00 00 00 '................'
  00 00 00 00 00 00 00 00 00 00 00 00 00 00 00 94 '................'
Checksum: 0x94

----------------

Failures:

Block 0, Base EDID:
  Detailed Timing Descriptor #1: Mismatch of image size vs display size: image size is not set, but display size is.
  Display Product Serial Number: ...
  Empty Descriptor: Use Dummy Descriptor instead of all zeroes.
Block 1, Base EDID:
  Unknown Extension Block.
EDID:
  Base EDID: EDID specified 0 extension block(s), but found 1 extension block(s).

EDID conformity: FAIL
