
EDID (hex):
00ffffffffffff0006afec1100000000
01120103902213780ae6b5a3574f9426
1e505400000001010101010101010101
010101010101201c5678500026303020
340058c11000001a201c567850002630
3020340058c11000001a000000fe004d
30393447804231353658573100000000
00000000000000000001010a202000df

Extracted contents:
header:          00 ff ff ff ff ff ff 00
serial number:   06 af ec 11 00 00 00 00 01 12
version:         01 03
basic params:    90 22 13 78 0a
chroma info:     e6 b5 a3 57 4f 94 26 1e 50 54
established:     00 00 00
standard:        01 01 01 01 01 01 01 01 01 01 01 01 01 01 01 01
descriptor 1:    20 1c 56 78 50 00 26 30 30 20 34 00 58 c1 10 00 00 1a
descriptor 2:    20 1c 56 78 50 00 26 30 30 20 34 00 58 c1 10 00 00 1a
descriptor 3:    00 00 00 fe 00 4d 30 39 34 47 80 42 31 35 36 58 57 31
descriptor 4:    00 00 00 00 00 00 00 00 00 00 00 00 00 01 01 0a 20 20
extensions:      00
checksum:        df

EDID version: 1.3
Manufacturer: AUO Model 11ec Serial Number --
Made in week 1 of 2008
Digital display
Maximum image size: 34 cm x 19 cm
Gamma: 2.20
RGB color display
First detailed timing is preferred timing
Display x,y Chromaticity:
  Red:   0.6396, 0.3417
  Green: 0.3095, 0.5800
  Blue:  0.1503, 0.1201
  White: 0.3134, 0.3291
Established timings supported:
Standard timings supported:
Detailed mode: Clock 72.000 MHz, 344 mm x 193 mm
               1366 1414 1446 1486 hborder 0
                768  771  775  806 vborder 0
               +hsync -vsync 
               VertFreq: 60 Hz, HorFreq: 48452 Hz
Detailed mode: Clock 72.000 MHz, 344 mm x 193 mm
               1366 1414 1446 1486 hborder 0
                768  771  775  806 vborder 0
               +hsync -vsync 
               VertFreq: 60 Hz, HorFreq: 48452 Hz
ASCII string: M094G
Manufacturer-specified data, tag 0
Checksum: 0xdf (valid)
EDID block does NOT conform to EDID 1.3!
	Digital display field contains garbage: 10
	Missing name descriptor
	Missing monitor ranges
	Detailed block string not properly terminated
