
EDID (hex):
00ffffffffffff0006afec1100000000
001701049522137802bbf59455549027
23505400000001010101010101010101
010101010101a21c56a0500020302820
360058c11000001aa21c561e52002030
2820360058c11000001a000000fe0031
4b305850814231353658545400000000
00004122960111000009010a202000bf

edid-decode (hex):

00 ff ff ff ff ff ff 00 06 af ec 11 00 00 00 00
00 17 01 04 95 22 13 78 02 bb f5 94 55 54 90 27
23 50 54 00 00 00 01 01 01 01 01 01 01 01 01 01
01 01 01 01 01 01 a2 1c 56 a0 50 00 20 30 28 20
36 00 58 c1 10 00 00 1a a2 1c 56 1e 52 00 20 30
28 20 36 00 58 c1 10 00 00 1a 00 00 00 fe 00 31
4b 30 58 50 81 42 31 35 36 58 54 54 00 00 00 00
00 00 41 22 96 01 11 00 00 09 01 0a 20 20 00 bf

----------------

Block 0, Base EDID:
  EDID Structure Version & Revision: 1.4
  Vendor & Product Identification:
    Manufacturer: AUO
    Model: 4588
    Made in: 2013
  Basic Display Parameters & Features:
    Digital display
    Bits per primary color channel: 6
    DisplayPort interface
    Maximum image size: 34 cm x 19 cm
    Gamma: 2.20
    Supported color formats: RGB 4:4:4
    First detailed timing includes the native pixel format and preferred refresh rate
  Color Characteristics:
    Red  : 0.5800, 0.3349
    Green: 0.3300, 0.5654
    Blue : 0.1552, 0.1396
    White: 0.3134, 0.3291
  Established Timings I & II: none
  Standard Timings: none
  Detailed Timing Descriptors:
    DTD 1:  1366x768    60.042595 Hz 683:384   48.034 kHz     73.300000 MHz (344 mm x 193 mm)
                 Hfront   40 Hsync  32 Hback   88 Hpol P
                 Vfront    3 Vsync   6 Vback   23 Vpol N
    DTD 2:  1366x768    48.021488 Hz 683:384   38.417 kHz     73.300000 MHz (344 mm x 193 mm)
                 Hfront   40 Hsync  32 Hback  470 Hpol P
                 Vfront    3 Vsync   6 Vback   23 Vpol N
    Alphanumeric Data String: '1K0XP'
    Manufacturer-Specified Display Descriptor (0x00): 00 00 00 00 41 22 96 01 11 00 00 09 01 0a 20 20 '....A"........  '
Checksum: 0xbf
