
EDID (hex):
00ffffffffffff0025ce350001000000
261b0103805223783ace1fa3544c9926
0f4f53a54b00714f81c081809500b300
d1c001010101804800e0a0381f403020
350034593100001e000000ff00303030
0a202020202020202020000000fd0031
4c365519000a202020202020000000fc
00554c54524f4e203335343755430135
020328f14c0102030405079012131416
1f230907078301000065030c00100068
1a00000101314ced023a801871382d40
582c4500fe1f1100001e9e5a00e0a038
1f403020350034593100001a00000000
00000000000000000000000000000000
00000000000000000000000000000000
000000000000000000000000000000e7

Extracted contents:
header:          00 ff ff ff ff ff ff 00
serial number:   25 ce 35 00 01 00 00 00 26 1b
version:         01 03
basic params:    80 52 23 78 3a
chroma info:     ce 1f a3 54 4c 99 26 0f 4f 53
established:     a5 4b 00
standard:        71 4f 81 c0 81 80 95 00 b3 00 d1 c0 01 01 01 01
descriptor 1:    80 48 00 e0 a0 38 1f 40 30 20 35 00 34 59 31 00 00 1e
descriptor 2:    00 00 00 ff 00 30 30 30 0a 20 20 20 20 20 20 20 20 20
descriptor 3:    00 00 00 fd 00 31 4c 36 55 19 00 0a 20 20 20 20 20 20
descriptor 4:    00 00 00 fc 00 55 4c 54 52 4f 4e 20 33 35 34 37 55 43
extensions:      01
checksum:        35

EDID version: 1.3
Manufacturer: INN Model 35 Serial Number --
Made in week 38 of 2017
Digital display
Maximum image size: 82 cm x 35 cm
Gamma: 2.20
DPMS levels: Off
Undefined display color type
First detailed timing is preferred timing
Display x,y Chromaticity:
  Red:   0.6396, 0.3281
  Green: 0.2998, 0.5996
  Blue:  0.1484, 0.0595
  White: 0.3115, 0.3271
Established timings supported:
  720x400@70Hz 9:5 HorFreq: 31469 Hz Clock: 28.320 MHz
  640x480@60Hz 4:3 HorFreq: 31469 Hz Clock: 25.175 MHz
  640x480@75Hz 4:3 HorFreq: 37500 Hz Clock: 31.500 MHz
  800x600@60Hz 4:3 HorFreq: 37900 Hz Clock: 40.000 MHz
  800x600@75Hz 4:3 HorFreq: 46900 Hz Clock: 49.500 MHz
  1024x768@60Hz 4:3 HorFreq: 48400 Hz Clock: 65.000 MHz
  1024x768@75Hz 4:3 HorFreq: 60000 Hz Clock: 78.750 MHz
  1280x1024@75Hz 5:4 HorFreq: 80000 Hz Clock: 135.000 MHz
Standard timings supported:
  1152x864@75Hz 4:3 HorFreq: 67500 Hz Clock: 108.000 MHz
  1280x720@60Hz 16:9
  1280x1024@60Hz 5:4 HorFreq: 64000 Hz Clock: 108.000 MHz
  1440x900@60Hz 16:10 HorFreq: 55500 Hz Clock: 88.750 MHz
  1680x1050@60Hz 16:10 HorFreq: 64700 Hz Clock: 119.000 MHz
  1920x1080@60Hz 16:9
Detailed mode: Clock 185.600 MHz, 820 mm x 345 mm
               2560 2608 2640 2784 hborder 0
               1080 1083 1088 1111 vborder 0
               +hsync +vsync 
               VertFreq: 60 Hz, HorFreq: 66666 Hz
Serial number: --
Monitor ranges (GTF): 49-76Hz V, 54-85kHz H, max dotclock 250MHz
Has 1 extension blocks
Checksum: 0x35 (valid)

CTA extension block
Extension version: 3
36 bytes of CTA data
  Video data block
    VIC   1 640x480@60Hz 4:3  HorFreq: 31469 Hz Clock: 25.175 MHz
    VIC   2 720x480@60Hz 4:3  HorFreq: 31469 Hz Clock: 27.000 MHz
    VIC   3 720x480@60Hz 16:9  HorFreq: 31469 Hz Clock: 27.000 MHz
    VIC   4 1280x720@60Hz 16:9  HorFreq: 45000 Hz Clock: 74.250 MHz
    VIC   5 1920x1080i@60Hz 16:9  HorFreq: 33750 Hz Clock: 74.250 MHz
    VIC   7 1440x480i@60Hz 16:9  HorFreq: 15734 Hz Clock: 27.000 MHz
    VIC  16 1920x1080@60Hz 16:9 (native) HorFreq: 67500 Hz Clock: 148.500 MHz
    VIC  18 720x576@50Hz 16:9  HorFreq: 31250 Hz Clock: 27.000 MHz
    VIC  19 1280x720@50Hz 16:9  HorFreq: 37500 Hz Clock: 74.250 MHz
    VIC  20 1920x1080i@50Hz 16:9  HorFreq: 28125 Hz Clock: 74.250 MHz
    VIC  22 1440x576i@50Hz 16:9  HorFreq: 15625 Hz Clock: 27.000 MHz
    VIC  31 1920x1080@50Hz 16:9  HorFreq: 56250 Hz Clock: 148.500 MHz
  Audio data block
    Linear PCM, max channels 2
      Supported sample rates (kHz): 48 44.1 32
      Supported sample sizes (bits): 24 20 16
  Speaker allocation data block
    Speaker map:
      FL/FR - Front Left/Right
  Vendor-specific data block, OUI 000c03 (HDMI)
    Source physical address 1.0.0.0
  Vendor-specific data block, OUI 00001a
Underscans PC formats by default
Basic audio support
Supports YCbCr 4:4:4
Supports YCbCr 4:2:2
1 native detailed modes
Detailed mode: Clock 148.500 MHz, 510 mm x 287 mm
               1920 2008 2052 2200 hborder 0
               1080 1084 1089 1125 vborder 0
               +hsync +vsync 
               VertFreq: 60 Hz, HorFreq: 67500 Hz
Detailed mode: Clock 231.980 MHz, 820 mm x 345 mm
               2560 2608 2640 2784 hborder 0
               1080 1083 1088 1111 vborder 0
               +hsync -vsync 
               VertFreq: 75 Hz, HorFreq: 83326 Hz
Checksum: 0xe7 (valid)

EDID block does NOT conform to EDID 1.3!
	Name descriptor not terminated with a newline
One or more of the timings is out of range of the Monitor Ranges:
  Vertical Freq: 50 - 75 Hz
  Horizontal Freq: 15625 - 83326 Hz
  Maximum Clock: 231.980 MHz
EDID block does not conform at all!
	Both the serial number and the serial string are set
