edid-decode (hex):

00 ff ff ff ff ff ff 00 42 93 e5 03 ba f4 03 00
23 0d 01 03 08 24 1a 1b e8 5c 11 9e 59 47 9b 27
10 48 4f a1 43 00 31 59 31 68 45 59 45 68 61 59
81 99 a9 4f 31 59 10 0e 80 c0 20 e0 1d 10 38 38
13 00 5e fa 10 00 00 18 f9 15 20 f8 30 58 1f 20
20 40 13 00 5e fa 10 00 00 1e 00 00 00 fd 00 32
a0 1e 62 15 00 0a 20 20 20 20 20 20 00 00 00 ff
00 46 48 53 4a 33 38 30 32 35 39 32 35 38 00 b9

----------------

Block 0, Base EDID:
  EDID Structure Version & Revision: 1.3
  Vendor & Product Identification:
    Manufacturer: PTS
    Model: 997
    Serial Number: ...
    Made in: week 35 of 2003
  Basic Display Parameters & Features:
    Analog display
    Input voltage level: 0.7/0.3 V
    Sync: Separate
    Maximum image size: 36 cm x 26 cm
    Gamma: 1.27
    DPMS levels: Standby Suspend Off
    RGB color display
  Color Characteristics:
    Red  : 0.6181, 0.3486
    Green: 0.2802, 0.6054
    Blue : 0.1523, 0.0634
    White: 0.2812, 0.3095
  Established Timings I & II:
    IBM     :   720x400    70.082 Hz   9:5    31.467 kHz  28.320 MHz
    DMT 0x04:   640x480    59.940 Hz   4:3    31.469 kHz  25.175 MHz
    DMT 0x09:   800x600    60.317 Hz   4:3    37.879 kHz  40.000 MHz
    DMT 0x0b:   800x600    75.000 Hz   4:3    46.875 kHz  49.500 MHz
    DMT 0x12:  1024x768    75.029 Hz   4:3    60.023 kHz  78.750 MHz
    DMT 0x24:  1280x1024   75.025 Hz   5:4    79.976 kHz 135.000 MHz
  Standard Timings:
    DMT 0x07:   640x480    85.008 Hz   4:3    43.269 kHz  36.000 MHz
    GTF     :   640x480   100.000 Hz   4:3    50.900 kHz  43.163 MHz
    DMT 0x0c:   800x600    85.061 Hz   4:3    53.674 kHz  56.250 MHz
    GTF     :   800x600   100.000 Hz   4:3    63.600 kHz  68.179 MHz
    DMT 0x13:  1024x768    84.997 Hz   4:3    68.677 kHz  94.500 MHz
    DMT 0x25:  1280x1024   85.024 Hz   5:4    91.146 kHz 157.500 MHz
    DMT 0x36:  1600x1200   75.000 Hz   4:3    93.750 kHz 202.500 MHz
    DMT 0x07:   640x480    85.008 Hz   4:3    43.269 kHz  36.000 MHz
  Detailed Timing Descriptors:
    DTD 1:   640x480    85.008 Hz   4:3    43.269 kHz  36.000 MHz (350 mm x 250 mm)
                 Hfront   56 Hsync  56 Hback  80 Hpol N
                 Vfront    1 Vsync   3 Vback  25 Vpol N
    DTD 2:   800x600    85.061 Hz   4:3    53.674 kHz  56.250 MHz (350 mm x 250 mm)
                 Hfront   32 Hsync  64 Hback 152 Hpol P
                 Vfront    1 Vsync   3 Vback  27 Vpol P
  Display Range Limits:
    Monitor ranges (GTF): 50-160 Hz V, 30-98 kHz H, max dotclock 210 MHz
    Display Product Serial Number: ...
Checksum: 0xb9

----------------

Failures:

Block 0, Base EDID:
  Detailed Timing Descriptor #1: Mismatch of image size 350x250 mm vs display size 360x260 mm.
  Detailed Timing Descriptor #2: Mismatch of image size 350x250 mm vs display size 360x260 mm.
  Missing Display Product Name.

EDID conformity: FAIL
