
EDID (hex):
00ffffffffffff001e6d769e01010101
1e170103807a4578ea7c5ba6544e9a26
0f474aa10800b3008140818071406140
4540314081c0023a801871382d40582c
4500bfae4200001e662156aa51001e30
468f3300bfae42000018000000fd0038
3c1e530f000a202020202020000000fc
004c47205349474e4147450a2020003c

Extracted contents:
header:          00 ff ff ff ff ff ff 00
serial number:   1e 6d 76 9e 01 01 01 01 1e 17
version:         01 03
basic params:    80 7a 45 78 ea
chroma info:     7c 5b a6 54 4e 9a 26 0f 47 4a
established:     a1 08 00
standard:        b3 00 81 40 81 80 71 40 61 40 45 40 31 40 81 c0
descriptor 1:    02 3a 80 18 71 38 2d 40 58 2c 45 00 bf ae 42 00 00 1e
descriptor 2:    66 21 56 aa 51 00 1e 30 46 8f 33 00 bf ae 42 00 00 18
descriptor 3:    00 00 00 fd 00 38 3c 1e 53 0f 00 0a 20 20 20 20 20 20
descriptor 4:    00 00 00 fc 00 4c 47 20 53 49 47 4e 41 47 45 0a 20 20
extensions:      00
checksum:        3c

EDID version: 1.3
Manufacturer: GSM Model 9e76 Serial Number --
Made in week 30 of 2013
Digital display
Maximum image size: 122 cm x 69 cm
Gamma: 2.20
DPMS levels: Standby Suspend Off
RGB color display
First detailed timing is preferred timing
Display x,y Chromaticity:
  Red:   0.6494, 0.3310
  Green: 0.3076, 0.6015
  Blue:  0.1494, 0.0595
  White: 0.2792, 0.2919
Established timings supported:
  720x400@70Hz 9:5 HorFreq: 31469 Hz Clock: 28.320 MHz
  640x480@60Hz 4:3 HorFreq: 31469 Hz Clock: 25.175 MHz
  800x600@60Hz 4:3 HorFreq: 37900 Hz Clock: 40.000 MHz
  1024x768@60Hz 4:3 HorFreq: 48400 Hz Clock: 65.000 MHz
Standard timings supported:
  1680x1050@60Hz 16:10 HorFreq: 64700 Hz Clock: 119.000 MHz
  1280x960@60Hz 4:3 HorFreq: 60000 Hz Clock: 108.000 MHz
  1280x1024@60Hz 5:4 HorFreq: 64000 Hz Clock: 108.000 MHz
  1152x864@60Hz 4:3
  1024x768@60Hz 4:3 HorFreq: 48400 Hz Clock: 65.000 MHz
  800x600@60Hz 4:3 HorFreq: 37900 Hz Clock: 40.000 MHz
  640x480@60Hz 4:3 HorFreq: 31469 Hz Clock: 25.175 MHz
  1280x720@60Hz 16:9
Detailed mode: Clock 148.500 MHz, 1215 mm x 686 mm
               1920 2008 2052 2200 hborder 0
               1080 1084 1089 1125 vborder 0
               +hsync +vsync 
               VertFreq: 60 Hz, HorFreq: 67500 Hz
Detailed mode: Clock 85.500 MHz, 1215 mm x 686 mm
               1366 1436 1579 1792 hborder 0
                768  771  774  798 vborder 0
               -hsync -vsync 
               VertFreq: 59 Hz, HorFreq: 47712 Hz
Monitor ranges (GTF): 56-60Hz V, 30-83kHz H, max dotclock 150MHz
Monitor name: LG SIGNAGE
Checksum: 0x3c (valid)
One or more of the timings is out of range of the Monitor Ranges:
  Vertical Freq: 59 - 70 Hz
  Horizontal Freq: 31469 - 67500 Hz
  Maximum Clock: 148.500 MHz
