
EDID (hex):
00ffffffffffff0030e4380300000000
001501049022137802a5459d5a509727
0e505400000001010101010101010101
010101010101ba2740e060841c303020
350058c210000019ba2740f86284b030
3020350058c210000019000000fe0044
3057524d803135365744310a00000000
00004131990000000002010a2020005b

Extracted contents:
header:          00 ff ff ff ff ff ff 00
serial number:   30 e4 38 03 00 00 00 00 00 15
version:         01 04
basic params:    90 22 13 78 02
chroma info:     a5 45 9d 5a 50 97 27 0e 50 54
established:     00 00 00
standard:        01 01 01 01 01 01 01 01 01 01 01 01 01 01 01 01
descriptor 1:    ba 27 40 e0 60 84 1c 30 30 20 35 00 58 c2 10 00 00 19
descriptor 2:    ba 27 40 f8 62 84 b0 30 30 20 35 00 58 c2 10 00 00 19
descriptor 3:    00 00 00 fe 00 44 30 57 52 4d 80 31 35 36 57 44 31 0a
descriptor 4:    00 00 00 00 00 00 41 31 99 00 00 00 00 02 01 0a 20 20
extensions:      00
checksum:        5b

EDID version: 1.4
Manufacturer: LGD Model 338 Serial Number --
Made in year 2011
Digital display
6 bits per primary color channel
Digital interface is not defined
Maximum image size: 34 cm x 19 cm
Gamma: 2.20
Supported color formats: RGB 4:4:4
First detailed timing includes the native pixel format and preferred refresh rate
Display x,y Chromaticity:
  Red:   0.6152, 0.3535
  Green: 0.3134, 0.5908
  Blue:  0.1533, 0.0546
  White: 0.3134, 0.3291
Established timings supported:
Standard timings supported:
Detailed mode: Clock 101.700 MHz, 344 mm x 194 mm
               1600 1648 1680 1824 hborder 0
                900  903  908  928 vborder 0
               -hsync -vsync 
               VertFreq: 60 Hz, HorFreq: 55756 Hz
Detailed mode: Clock 101.700 MHz, 344 mm x 194 mm
               1600 1648 1680 2360 hborder 0
                900  903  908 1076 vborder 0
               -hsync -vsync 
               VertFreq: 40 Hz, HorFreq: 43093 Hz
ASCII string: D0WRM
Manufacturer-specified data, tag 0
Checksum: 0x5b (valid)
EDID block does NOT conform to EDID 1.4!
	Missing name descriptor
	Missing monitor ranges
	Detailed block string not properly terminated
