
EDID (hex):
00ffffffffffff0006af2d6600000000
001d0104a51d11780393059258599029
1d505400000001010101010101010101
010101010101143780b8703824401010
3e0025a5100000180000000f00000000
00000000000000000020000000fe0041
554f0a202020202020202020000000fe
004231333348414e30362e36200a002c

Extracted contents:
header:          00 ff ff ff ff ff ff 00
serial number:   06 af 2d 66 00 00 00 00 00 1d
version:         01 04
basic params:    a5 1d 11 78 03
chroma info:     93 05 92 58 59 90 29 1d 50 54
established:     00 00 00
standard:        01 01 01 01 01 01 01 01 01 01 01 01 01 01 01 01
descriptor 1:    14 37 80 b8 70 38 24 40 10 10 3e 00 25 a5 10 00 00 18
descriptor 2:    00 00 00 0f 00 00 00 00 00 00 00 00 00 00 00 00 00 20
descriptor 3:    00 00 00 fe 00 41 55 4f 0a 20 20 20 20 20 20 20 20 20
descriptor 4:    00 00 00 fe 00 42 31 33 33 48 41 4e 30 36 2e 36 20 0a
extensions:      00
checksum:        2c

EDID version: 1.4
Manufacturer: AUO Model 662d Serial Number --
Made in year 2019
Digital display
8 bits per primary color channel
DisplayPort interface
Maximum image size: 29 cm x 17 cm
Gamma: 2.20
Supported color formats: RGB 4:4:4
First detailed timing includes the native pixel format and preferred refresh rate
Display is continuous frequency
Display x,y Chromaticity:
  Red:   0.5722, 0.3447
  Green: 0.3476, 0.5654
  Blue:  0.1601, 0.1132
  White: 0.3134, 0.3291
Established timings supported:
Standard timings supported:
Detailed mode: Clock 141.000 MHz, 293 mm x 165 mm
               1920 1936 1952 2104 hborder 0
               1080 1083 1097 1116 vborder 0
               -hsync -vsync 
               VertFreq: 60 Hz, HorFreq: 67015 Hz
Manufacturer-specified data, tag 15
ASCII string: AUO
ASCII string: B133HAN06.6 
Checksum: 0x2c (valid)
EDID block does NOT conform to EDID 1.4!
	Missing name descriptor
	Missing monitor ranges
