edid-decode (hex):

00 ff ff ff ff ff ff 00 06 af 14 81 00 00 00 00
01 11 01 03 80 1a 10 78 0a 87 f5 94 57 4f 8c 27
27 50 54 00 00 00 01 01 01 01 01 01 01 01 01 01
01 01 01 01 01 01 e9 1b 00 b4 50 20 10 30 15 20
44 00 05 a3 10 00 00 19 76 1b 00 a2 50 20 0c 30
15 20 44 00 05 a3 10 00 00 00 00 00 00 fe 00 4d
4e 39 30 36 05 42 31 32 31 45 57 38 00 00 00 fe
00 21 2a 3e 5f 7b 99 be ff 01 01 0a 20 20 00 8a

----------------

Block 0, Base EDID:
  EDID Structure Version & Revision: 1.3
  Vendor & Product Identification:
    Manufacturer: AUO
    Model: 33044
    Made in: week 1 of 2007
  Basic Display Parameters & Features:
    Digital display
    Maximum image size: 26 cm x 16 cm
    Gamma: 2.20
    RGB color display
    First detailed timing is the preferred timing
  Color Characteristics:
    Red  : 0.5800, 0.3398
    Green: 0.3095, 0.5498
    Blue : 0.1552, 0.1552
    White: 0.3134, 0.3291
  Established Timings I & II: none
  Standard Timings: none
  Detailed Timing Descriptors:
    DTD 1:  1280x800    59.973476 Hz   8:5     48.938 kHz     71.450000 MHz (DE timing only, 261 mm x 163 mm)
                 Hfront   21 Hsync  32 Hback  127 Hpol N
                 Vfront    4 Vsync   4 Vback    8 Vpol N
    DTD 2:  1280x800    60.039081 Hz   8:5     48.752 kHz     70.300000 MHz (DE timing only, 261 mm x 163 mm)
                 Hfront   21 Hsync  32 Hback  109 Hpol N
                 Vfront    4 Vsync   4 Vback    4 Vpol N
    SPWG Module Revision: 0
    SPWG Descriptor #3:
      SPWG PC Maker P/N: 'MN906'
      SPWG LCD Supplier EEDID Revision: 5
      SPWG Manufacturer P/N: 'B121EW8'
    SPWG Descriptor #4:
      SMBUS Values: 0x21 0x2a 0x3e 0x5f 0x7b 0x99 0xbe 0xff
      LVDS Channels: 1
      Panel Self Test Present
Checksum: 0x8a

----------------

Failures:

Block 0, Base EDID:
  Missing Display Product Name.
  Missing Display Range Limits Descriptor.

EDID conformity: FAIL
