edid-decode (hex):

00 ff ff ff ff ff ff 00 38 69 03 50 73 0a 00 00
2e 0a 01 03 08 20 18 b8 ea 4f 2e a1 57 47 99 25
0f 48 4f ff fe 80 31 59 45 59 61 59 81 80 31 68
45 68 01 01 01 01 ea 24 00 60 41 00 28 30 30 60
13 00 40 f0 10 00 00 1e 00 00 00 ff 00 54 47 4d
4e 30 34 36 30 32 36 37 35 0a 00 00 00 fc 00 4e
45 43 20 43 49 20 41 37 32 36 0a 20 00 00 00 fd
00 32 78 1e 46 ff 00 0a 20 20 20 20 20 20 00 4c

00 ff ff ff ff ff ff 00 38 69 03 50 73 0a 00 00
2e 0a 01 03 08 20 18 b8 ea 4f 2e a1 57 47 99 25
0f 48 4f ff fe 80 31 59 45 59 61 59 81 80 31 68
45 68 01 01 01 01 ea 24 00 60 41 00 28 30 30 60
13 00 40 f0 10 00 00 1e 00 00 00 ff 00 54 47 4d
4e 30 34 36 30 32 36 37 35 0a 00 00 00 fc 00 4e
45 43 20 43 49 20 41 37 32 36 0a 20 00 00 00 fd
00 32 78 1e 46 ff 00 0a 20 20 20 20 20 20 00 4c

----------------

Block 0, Base EDID:
  EDID Structure Version & Revision: 1.3
  Vendor & Product Identification:
    Manufacturer: NCI
    Model: 20483
    Serial Number: ...
    Made in: week 46 of 2000
  Basic Display Parameters & Features:
    Analog display
    Signal Level Standard: 0.700 : 0.300 : 1.000 V p-p
    Blank level equals black level
    Sync: Separate
    Maximum image size: 32 cm x 24 cm
    Gamma: 2.84
    DPMS levels: Standby Suspend Off
    RGB color display
    First detailed timing is the preferred timing
  Color Characteristics:
    Red  : 0.6298, 0.3398
    Green: 0.2802, 0.6005
    Blue : 0.1445, 0.0605
    White: 0.2841, 0.3105
  Established Timings I & II:
    IBM     :   720x400    70.081663 Hz   9:5     31.467 kHz     28.320000 MHz
    IBM     :   720x400    87.849542 Hz   9:5     39.444 kHz     35.500000 MHz
    DMT 0x04:   640x480    59.940476 Hz   4:3     31.469 kHz     25.175000 MHz
    Apple   :   640x480    66.666667 Hz   4:3     35.000 kHz     30.240000 MHz
    DMT 0x05:   640x480    72.808802 Hz   4:3     37.861 kHz     31.500000 MHz
    DMT 0x06:   640x480    75.000000 Hz   4:3     37.500 kHz     31.500000 MHz
    DMT 0x08:   800x600    56.250000 Hz   4:3     35.156 kHz     36.000000 MHz
    DMT 0x09:   800x600    60.316541 Hz   4:3     37.879 kHz     40.000000 MHz
    DMT 0x0a:   800x600    72.187572 Hz   4:3     48.077 kHz     50.000000 MHz
    DMT 0x0b:   800x600    75.000000 Hz   4:3     46.875 kHz     49.500000 MHz
    Apple   :   832x624    74.551266 Hz   4:3     49.726 kHz     57.284000 MHz
    DMT 0x0f:  1024x768i   86.957532 Hz   4:3     35.522 kHz     44.900000 MHz
    DMT 0x10:  1024x768    60.003840 Hz   4:3     48.363 kHz     65.000000 MHz
    DMT 0x11:  1024x768    70.069359 Hz   4:3     56.476 kHz     75.000000 MHz
    DMT 0x12:  1024x768    75.028582 Hz   4:3     60.023 kHz     78.750000 MHz
    Apple   :  1152x870    75.061550 Hz 192:145   68.681 kHz    100.000000 MHz
  Standard Timings:
    DMT 0x07:   640x480    85.008312 Hz   4:3     43.269 kHz     36.000000 MHz
    DMT 0x0c:   800x600    85.061274 Hz   4:3     53.674 kHz     56.250000 MHz
    DMT 0x13:  1024x768    84.996690 Hz   4:3     68.677 kHz     94.500000 MHz
    DMT 0x23:  1280x1024   60.019740 Hz   5:4     63.981 kHz    108.000000 MHz
    GTF     :   640x480    99.999537 Hz   4:3     50.900 kHz     43.163000 MHz
    GTF     :   800x600    99.999707 Hz   4:3     63.600 kHz     68.179000 MHz
  Detailed Timing Descriptors:
    DTD 1:  1024x768    84.996690 Hz   4:3     68.677 kHz     94.500000 MHz (320 mm x 240 mm)
                 Hfront   48 Hsync  96 Hback  208 Hpol P
                 Vfront    1 Vsync   3 Vback   36 Vpol P
    Display Product Serial Number: ...
    Display Product Name: 'NEC CI A726'
    Display Range Limits:
      Monitor ranges (GTF): 50-120 Hz V, 30-70 kHz H, max dotclock 2550 MHz
Checksum: 0x4c

----------------

Block 1, Unknown EDID Extension Block 0x00:
  00 ff ff ff ff ff ff 00 38 69 03 50 73 0a 00 00 '........8i.Ps...'
  2e 0a 01 03 08 20 18 b8 ea 4f 2e a1 57 47 99 25 '..... ...O..WG.%'
  0f 48 4f ff fe 80 31 59 45 59 61 59 81 80 31 68 '.HO...1YEYaY..1h'
  45 68 01 01 01 01 ea 24 00 60 41 00 28 30 30 60 'Eh.....$.`A.(00`'
  13 00 40 f0 10 00 00 1e 00 00 00 ff 00 54 47 4d '..@..........TGM'
  4e 30 34 36 30 32 36 37 35 0a 00 00 00 fc 00 4e 'N04602675......N'
  45 43 20 43 49 20 41 37 32 36 0a 20 00 00 00 fd 'EC CI A726. ....'
  00 32 78 1e 46 ff 00 0a 20 20 20 20 20 20 00 4c '.2x.F...      .L'
Checksum: 0x4c

----------------

Failures:

Block 1, Base EDID:
  Unknown Extension Block.
EDID:
  Base EDID: EDID specified 0 extension block(s), but found 1 extension block(s).

EDID conformity: FAIL
