
EDID (hex):
00ffffffffffff000dae901400000000
21180104951f1178027e459355539428
23505400000001010101010101010101
010101010101da1d56e250002030442d
470035ad1000001a1c1756b850001b30
0223460035ad1000001a000000fe0036
37363159803134304247450a00000000
00004131940010000009010a20200031

Extracted contents:
header:          00 ff ff ff ff ff ff 00
serial number:   0d ae 90 14 00 00 00 00 21 18
version:         01 04
basic params:    95 1f 11 78 02
chroma info:     7e 45 93 55 53 94 28 23 50 54
established:     00 00 00
standard:        01 01 01 01 01 01 01 01 01 01 01 01 01 01 01 01
descriptor 1:    da 1d 56 e2 50 00 20 30 44 2d 47 00 35 ad 10 00 00 1a
descriptor 2:    1c 17 56 b8 50 00 1b 30 02 23 46 00 35 ad 10 00 00 1a
descriptor 3:    00 00 00 fe 00 36 37 36 31 59 80 31 34 30 42 47 45 0a
descriptor 4:    00 00 00 00 00 00 41 31 94 00 10 00 00 09 01 0a 20 20
extensions:      00
checksum:        31

EDID version: 1.4
Manufacturer: CMN Model 1490 Serial Number --
Made in week 33 of 2014
Digital display
6 bits per primary color channel
DisplayPort interface
Maximum image size: 31 cm x 17 cm
Gamma: 2.20
Supported color formats: RGB 4:4:4
First detailed timing includes the native pixel format and preferred refresh rate
Display x,y Chromaticity:
  Red:   0.5751, 0.3349
  Green: 0.3271, 0.5800
  Blue:  0.1572, 0.1367
  White: 0.3134, 0.3291
Established timings supported:
Standard timings supported:
Detailed mode: Clock 76.420 MHz, 309 mm x 173 mm
               1366 1434 1479 1592 hborder 0
                768  772  779  800 vborder 0
               +hsync -vsync 
               VertFreq: 60 Hz, HorFreq: 48002 Hz
Detailed mode: Clock 59.160 MHz, 309 mm x 173 mm
               1366 1368 1403 1550 hborder 0
                768  772  778  795 vborder 0
               +hsync -vsync 
               VertFreq: 48 Hz, HorFreq: 38167 Hz
ASCII string: 6761Y
Manufacturer-specified data, tag 0
Checksum: 0x31 (valid)
EDID block does NOT conform to EDID 1.4!
	Missing name descriptor
	Missing monitor ranges
	Detailed block string not properly terminated


