edid-decode (hex):

00 ff ff ff ff ff ff 00 09 e5 52 07 00 00 00 00
01 1b 01 04 95 22 13 78 02 24 30 93 57 58 93 29
21 50 54 00 00 00 01 01 01 01 01 01 01 01 01 01
01 01 01 01 01 01 ce 1d 56 e2 50 00 1e 30 30 20
36 00 58 c2 10 00 00 1a ce 1d 56 a9 53 00 3c 30
30 20 36 00 58 c2 10 00 00 1a 00 00 00 00 00 00
00 00 00 00 00 00 00 00 00 00 00 00 00 00 00 02
00 11 3f ea 0b 3c 6e 0d 0e 19 6e 0a 20 20 00 58

----------------

Block 0, Base EDID:
  EDID Structure Version & Revision: 1.4
  Vendor & Product Identification:
    Manufacturer: BOE
    Model: 1874
    Made in: week 1 of 2017
  Basic Display Parameters & Features:
    Digital display
    Bits per primary color channel: 6
    DisplayPort interface
    Maximum image size: 34 cm x 19 cm
    Gamma: 2.20
    Supported color formats: RGB 4:4:4
    First detailed timing includes the native pixel format and preferred refresh rate
  Color Characteristics:
    Red  : 0.5742, 0.3417
    Green: 0.3447, 0.5742
    Blue : 0.1601, 0.1318
    White: 0.3125, 0.3281
  Established Timings I & II: none
  Standard Timings: none
  Detailed Timing Descriptors:
    DTD 1:  1366x768    60.059 Hz 683:384  47.927 kHz  76.300 MHz (344 mm x 194 mm)
                 Hfront   48 Hsync  32 Hback 146 Hpol P
                 Vfront    3 Vsync   6 Vback  21 Vpol N
    DTD 2:  1366x768    40.013 Hz 683:384  33.131 kHz  76.300 MHz (344 mm x 194 mm)
                 Hfront   48 Hsync  32 Hback 857 Hpol P
                 Vfront    3 Vsync   6 Vback  51 Vpol N
    Empty Descriptor
    Manufacturer-Specified Display Descriptor (0x02): 00 02 00 11 3f ea 0b 3c 6e 0d 0e 19 6e 0a 20 20 '....?..<n...n.  '
Checksum: 0x58
