
EDID (hex):
00ffffffffffff0038a34e6701010101
2c1501030e342078ea9ef5a6564b9a25
125054bfef8081c0818090408bc09500
a940b300d1007d4b80a072b02d4088c8
360006442100001c000000fd00384c1f
5214000a202020202020000000fc0045
41323431574d0a2020202020000000ff
0031593034383230394e420a20200038

Extracted contents:
header:          00 ff ff ff ff ff ff 00
serial number:   38 a3 4e 67 01 01 01 01 2c 15
version:         01 03
basic params:    0e 34 20 78 ea
chroma info:     9e f5 a6 56 4b 9a 25 12 50 54
established:     bf ef 80
standard:        81 c0 81 80 90 40 8b c0 95 00 a9 40 b3 00 d1 00
descriptor 1:    7d 4b 80 a0 72 b0 2d 40 88 c8 36 00 06 44 21 00 00 1c
descriptor 2:    00 00 00 fd 00 38 4c 1f 52 14 00 0a 20 20 20 20 20 20
descriptor 3:    00 00 00 fc 00 45 41 32 34 31 57 4d 0a 20 20 20 20 20
descriptor 4:    00 00 00 ff 00 31 59 30 34 38 32 30 39 4e 42 0a 20 20
extensions:      00
checksum:        38

EDID version: 1.3
Manufacturer: NEC Model 674e Serial Number --
Made in week 44 of 2011
Analog display, Input voltage level: 0.7/0.3 V
Sync: Separate Composite SyncOnGreen 
Maximum image size: 52 cm x 32 cm
Gamma: 2.20
DPMS levels: Standby Suspend Off
RGB color display
First detailed timing is preferred timing
Display x,y Chromaticity:
  Red:   0.6503, 0.3369
  Green: 0.2958, 0.6035
  Blue:  0.1474, 0.0732
  White: 0.3134, 0.3291
Established timings supported:
  720x400@70Hz 9:5 HorFreq: 31469 Hz Clock: 28.320 MHz
  640x480@60Hz 4:3 HorFreq: 31469 Hz Clock: 25.175 MHz
  640x480@67Hz 4:3 HorFreq: 35000 Hz Clock: 30.240 MHz
  640x480@72Hz 4:3 HorFreq: 37900 Hz Clock: 31.500 MHz
  640x480@75Hz 4:3 HorFreq: 37500 Hz Clock: 31.500 MHz
  800x600@56Hz 4:3 HorFreq: 35200 Hz Clock: 36.000 MHz
  800x600@60Hz 4:3 HorFreq: 37900 Hz Clock: 40.000 MHz
  800x600@72Hz 4:3 HorFreq: 48100 Hz Clock: 50.000 MHz
  800x600@75Hz 4:3 HorFreq: 46900 Hz Clock: 49.500 MHz
  832x624@75Hz 4:3 HorFreq: 49726 Hz Clock: 57.284 MHz
  1024x768@60Hz 4:3 HorFreq: 48400 Hz Clock: 65.000 MHz
  1024x768@70Hz 4:3 HorFreq: 56500 Hz Clock: 75.000 MHz
  1024x768@75Hz 4:3 HorFreq: 60000 Hz Clock: 78.750 MHz
  1280x1024@75Hz 5:4 HorFreq: 80000 Hz Clock: 135.000 MHz
  1152x870@75Hz 192:145 HorFreq: 67500 Hz Clock: 108.000 MHz
Standard timings supported:
  1280x720@60Hz 16:9
  1280x1024@60Hz 5:4 HorFreq: 64000 Hz Clock: 108.000 MHz
  1400x1050@60Hz 4:3 HorFreq: 64700 Hz Clock: 101.000 MHz
  1360x765@60Hz 16:9
  1440x900@60Hz 16:10 HorFreq: 55500 Hz Clock: 88.750 MHz
  1600x1200@60Hz 4:3 HorFreq: 75000 Hz Clock: 162.000 MHz
  1680x1050@60Hz 16:10 HorFreq: 64700 Hz Clock: 119.000 MHz
  1920x1200@60Hz 16:10 HorFreq: 74000 Hz Clock: 154.000 MHz
Detailed mode: Clock 193.250 MHz, 518 mm x 324 mm
               1920 2056 2256 2592 hborder 0
               1200 1203 1209 1245 vborder 0
               -hsync +vsync 
               VertFreq: 59 Hz, HorFreq: 74556 Hz
Monitor ranges (GTF): 56-76Hz V, 31-82kHz H, max dotclock 200MHz
Monitor name: EA241WM
Serial number: --
Checksum: 0x38 (valid)
