
EDID (hex):
00ffffffffffff0009e5dc0600000000
011a0104a51a11780ade50a3544c9926
0f505400000001010101010101010101
010101010101603f80a0700014503020
840003ad1000001ab33280a070001450
3020840003ad1000001a000000fe0030
4b4b385880545631324e443000000000
0002410128050100000a010a2020009f

Extracted contents:
header:          00 ff ff ff ff ff ff 00
serial number:   09 e5 dc 06 00 00 00 00 01 1a
version:         01 04
basic params:    a5 1a 11 78 0a
chroma info:     de 50 a3 54 4c 99 26 0f 50 54
established:     00 00 00
standard:        01 01 01 01 01 01 01 01 01 01 01 01 01 01 01 01
descriptor 1:    60 3f 80 a0 70 00 14 50 30 20 84 00 03 ad 10 00 00 1a
descriptor 2:    b3 32 80 a0 70 00 14 50 30 20 84 00 03 ad 10 00 00 1a
descriptor 3:    00 00 00 fe 00 30 4b 4b 38 58 80 54 56 31 32 4e 44 30
descriptor 4:    00 00 00 00 00 02 41 01 28 05 01 00 00 0a 01 0a 20 20
extensions:      00
checksum:        9f

EDID version: 1.4
Manufacturer: BOE Model 6dc Serial Number --
Made in week 1 of 2016
Digital display
8 bits per primary color channel
DisplayPort interface
Maximum image size: 26 cm x 17 cm
Gamma: 2.20
Supported color formats: RGB 4:4:4, YCrCb 4:4:4
First detailed timing includes the native pixel format and preferred refresh rate
Display x,y Chromaticity:
  Red:   0.6396, 0.3291
  Green: 0.2998, 0.5996
  Blue:  0.1494, 0.0595
  White: 0.3125, 0.3281
Established timings supported:
Standard timings supported:
Detailed mode: Clock 162.240 MHz, 259 mm x 173 mm
               1920 1968 2000 2080 hborder 0
               1280 1288 1292 1300 vborder 0
               +hsync -vsync 
               VertFreq: 60 Hz, HorFreq: 78000 Hz
Detailed mode: Clock 129.790 MHz, 259 mm x 173 mm
               1920 1968 2000 2080 hborder 0
               1280 1288 1292 1300 vborder 0
               +hsync -vsync 
               VertFreq: 47 Hz, HorFreq: 62399 Hz
ASCII string: 0KK8X
Manufacturer-specified data, tag 0
Checksum: 0x9f (valid)
EDID block does NOT conform to EDID 1.4!
	Missing name descriptor
	Missing monitor ranges
	Detailed block string not properly terminated
