
EDID (hex):
00ffffffffffff0022f0902601010101
32100103804028782a8585a85334aa25
12505400000001010101010101010101
010101010101b06800a0a0402e603020
360081902100001abc1b00a050201730
3020360081902100001a000000fc0048
50204c50333036350a202020000000ff
00434e4e363530313853560a20200047

Extracted contents:
header:          00 ff ff ff ff ff ff 00
serial number:   22 f0 90 26 01 01 01 01 32 10
version:         01 03
basic params:    80 40 28 78 2a
chroma info:     85 85 a8 53 34 aa 25 12 50 54
established:     00 00 00
standard:        01 01 01 01 01 01 01 01 01 01 01 01 01 01 01 01
descriptor 1:    b0 68 00 a0 a0 40 2e 60 30 20 36 00 81 90 21 00 00 1a
descriptor 2:    bc 1b 00 a0 50 20 17 30 30 20 36 00 81 90 21 00 00 1a
descriptor 3:    00 00 00 fc 00 48 50 20 4c 50 33 30 36 35 0a 20 20 20
descriptor 4:    00 00 00 ff 00 43 4e 4e 36 35 30 31 38 53 56 0a 20 20
extensions:      00
checksum:        47

EDID version: 1.3
Manufacturer: HWP Model 2690 Serial Number --
Made in week 50 of 2006
Digital display
Maximum image size: 64 cm x 40 cm
Gamma: 2.20
DPMS levels: Off
RGB color display
First detailed timing is preferred timing
Display x,y Chromaticity:
  Red:   0.6582, 0.3242
  Green: 0.2041, 0.6650
  Blue:  0.1464, 0.0703
  White: 0.3134, 0.3291
Established timings supported:
Standard timings supported:
Detailed mode: Clock 268.000 MHz, 641 mm x 400 mm
               2560 2608 2640 2720 hborder 0
               1600 1603 1609 1646 vborder 0
               +hsync -vsync 
               VertFreq: 59 Hz, HorFreq: 98529 Hz
Detailed mode: Clock 71.000 MHz, 641 mm x 400 mm
               1280 1328 1360 1440 hborder 0
                800  803  809  823 vborder 0
               +hsync -vsync 
               VertFreq: 59 Hz, HorFreq: 49305 Hz
Monitor name: HP LP3065
Serial number: --
Checksum: 0x47 (valid)
EDID block does NOT conform to EDID 1.3!
	Missing monitor ranges
