edid-decode (hex):

00 ff ff ff ff ff ff 00 22 f0 90 26 01 01 01 01
16 14 01 03 80 40 28 78 2a 8f 95 ad 4f 32 b2 25
0f 50 54 00 00 00 01 01 01 01 01 01 01 01 01 01
01 01 01 01 01 01 b0 68 00 a0 a0 40 2e 60 30 20
36 00 81 90 21 00 00 1a bc 1b 00 a0 50 20 17 30
30 20 36 00 81 90 21 00 00 1a 00 00 00 fc 00 48
50 20 4c 50 33 30 36 35 0a 20 20 20 00 00 00 ff
00 43 4e 34 30 32 32 30 51 39 43 0a 20 20 00 77

00 ff ff ff ff ff ff 00 22 f0 90 26 01 01 01 01
16 14 01 03 80 40 28 78 2a 8f 95 ad 4f 32 b2 25
0f 50 54 00 00 00 01 01 01 01 01 01 01 01 01 01
01 01 01 01 01 01 b0 68 00 a0 a0 40 2e 60 30 20
36 00 81 90 21 00 00 1a bc 1b 00 a0 50 20 17 30
30 20 36 00 81 90 21 00 00 1a 00 00 00 fc 00 48
50 20 4c 50 33 30 36 35 0a 20 20 20 00 00 00 ff
00 43 4e 34 30 32 32 30 51 39 43 0a 20 20 00 77

----------------

Block 0, Base EDID:
  EDID Structure Version & Revision: 1.3
  Vendor & Product Identification:
    Manufacturer: HWP
    Model: 9872
    Serial Number: ...
    Made in: week 22 of 2010
  Basic Display Parameters & Features:
    Digital display
    Maximum image size: 64 cm x 40 cm
    Gamma: 2.20
    DPMS levels: Off
    RGB color display
    First detailed timing is the preferred timing
  Color Characteristics:
    Red  : 0.6777, 0.3085
    Green: 0.1982, 0.6982
    Blue : 0.1464, 0.0595
    White: 0.3134, 0.3291
  Established Timings I & II: none
  Standard Timings: none
  Detailed Timing Descriptors:
    DTD 1:  2560x1600   59.859910 Hz  16:10    98.529 kHz    268.000000 MHz (641 mm x 400 mm)
                 Hfront   48 Hsync  32 Hback   80 Hpol P
                 Vfront    3 Vsync   6 Vback   37 Vpol N
    DTD 2:  1280x800    59.909545 Hz  16:10    49.306 kHz     71.000000 MHz (641 mm x 400 mm)
                 Hfront   48 Hsync  32 Hback   80 Hpol P
                 Vfront    3 Vsync   6 Vback   14 Vpol N
    Display Product Name: 'HP LP3065'
    Display Product Serial Number: ...
Checksum: 0x77

----------------

Block 1, Unknown EDID Extension Block 0x00:
  00 ff ff ff ff ff ff 00 22 f0 90 26 01 01 01 01 '........"..&....'
  16 14 01 03 80 40 28 78 2a 8f 95 ad 4f 32 b2 25 '.....@(x*...O2.%'
  0f 50 54 00 00 00 01 01 01 01 01 01 01 01 01 01 '.PT.............'
  01 01 01 01 01 01 b0 68 00 a0 a0 40 2e 60 30 20 '.......h...@.`0 '
  36 00 81 90 21 00 00 1a bc 1b 00 a0 50 20 17 30 '6...!.......P .0'
  30 20 36 00 81 90 21 00 00 1a 00 00 00 fc 00 48 '0 6...!........H'
  50 20 4c 50 33 30 36 35 0a 20 20 20 00 00 00 ff 'P LP3065.   ....'
  00 43 4e 34 30 32 32 30 51 39 43 0a 20 20 00 77 '.CN40220Q9C.  .w'
Checksum: 0x77

----------------

Failures:

Block 0, Base EDID:
  Missing Display Range Limits Descriptor.
Block 1, Base EDID:
  Unknown Extension Block.
EDID:
  Base EDID: EDID specified 0 extension block(s), but found 1 extension block(s).

EDID conformity: FAIL
