edid-decode (hex):

00 ff ff ff ff ff ff 00 49 94 12 32 65 00 00 00
03 13 01 03 68 46 27 78 2a e2 bd a1 5b 4a 98 24
15 47 4a af ce 00 81 00 95 00 b3 00 01 01 01 01
01 01 01 01 01 01 80 43 80 90 72 38 26 40 78 d0
13 00 75 f2 31 00 00 1c 18 21 50 a0 51 00 1b 30
40 90 13 00 75 f2 31 00 00 1c 00 00 00 fd 00 3c
4b 1e 46 12 00 0a 20 20 20 20 20 20 00 00 00 fc
00 4c 43 44 2d 54 56 0a 20 20 20 20 20 20 00 d6

----------------

Block 0, Base EDID:
  EDID Structure Version & Revision: 1.3
  Vendor & Product Identification:
    Manufacturer: RLT
    Model: 12818
    Serial Number: ...
    Made in: week 3 of 2009
  Basic Display Parameters & Features:
    Analog display
    Input voltage level: 0.7/0.7 V
    Blank level equals black level
    Sync: Separate
    Maximum image size: 70 cm x 39 cm
    Gamma: 2.20
    DPMS levels: Off
    RGB color display
    First detailed timing is the preferred timing
  Color Characteristics:
    Red  : 0.6318, 0.3574
    Green: 0.2890, 0.5957
    Blue : 0.1425, 0.0849
    White: 0.2802, 0.2900
  Established Timings I & II:
    IBM     :   720x400    70.082 Hz   9:5    31.467 kHz  28.320 MHz
    DMT 0x04:   640x480    59.940 Hz   4:3    31.469 kHz  25.175 MHz
    DMT 0x05:   640x480    72.809 Hz   4:3    37.861 kHz  31.500 MHz
    DMT 0x06:   640x480    75.000 Hz   4:3    37.500 kHz  31.500 MHz
    DMT 0x08:   800x600    56.250 Hz   4:3    35.156 kHz  36.000 MHz
    DMT 0x09:   800x600    60.317 Hz   4:3    37.879 kHz  40.000 MHz
    DMT 0x0a:   800x600    72.188 Hz   4:3    48.077 kHz  50.000 MHz
    DMT 0x0b:   800x600    75.000 Hz   4:3    46.875 kHz  49.500 MHz
    DMT 0x10:  1024x768    60.004 Hz   4:3    48.363 kHz  65.000 MHz
    DMT 0x11:  1024x768    70.069 Hz   4:3    56.476 kHz  75.000 MHz
    DMT 0x12:  1024x768    75.029 Hz   4:3    60.023 kHz  78.750 MHz
  Standard Timings:
    DMT 0x1c:  1280x800    59.810 Hz  16:10   49.702 kHz  83.500 MHz
    DMT 0x2f:  1440x900    59.887 Hz  16:10   55.935 kHz 106.500 MHz
    DMT 0x3a:  1680x1050   59.954 Hz  16:10   65.290 kHz 146.250 MHz
  Detailed Timing Descriptors:
    DTD 1:  1920x1080   60.001 Hz  16:9    67.081 kHz 172.800 MHz (885 mm x 498 mm)
                 Hfront  120 Hsync 208 Hback 328 Hpol N
                 Vfront    1 Vsync   3 Vback  34 Vpol P
    DTD 2:  1360x768    60.003 Hz  85:48   47.703 kHz  84.720 MHz (885 mm x 498 mm)
                 Hfront   64 Hsync 144 Hback 208 Hpol N
                 Vfront    1 Vsync   3 Vback  23 Vpol P
  Display Range Limits:
    Monitor ranges (GTF): 60-75 Hz V, 30-70 kHz H, max dotclock 180 MHz
    Display Product Name: 'LCD-TV'
Checksum: 0xd6

----------------

Failures:

Block 0, Base EDID:
  Detailed Timing Descriptor #1: Mismatch of image size 885x498 mm vs display size 700x390 mm.
  Detailed Timing Descriptor #2: Mismatch of image size 885x498 mm vs display size 700x390 mm.
EDID:
  Base EDID: Some timings are out of range of the Monitor Ranges:
    Vertical Freq: 56.250 - 75.029 Hz (Monitor: 60.000 - 75.000 Hz)

EDID conformity: FAIL
