edid-decode (hex):

00 ff ff ff ff ff ff 00 09 e5 2b 0b 00 00 00 00
15 20 01 04 a5 23 16 78 03 ee 95 a3 54 4c 99 26
0f 50 54 00 00 00 01 01 01 01 01 01 01 01 01 01
01 01 01 01 01 01 fc 81 80 04 71 b0 48 40 30 20
35 00 59 d7 10 00 00 1a fc 81 80 04 71 b0 40 45
30 20 35 00 59 d7 10 00 00 1a 00 00 00 fd 00 30
78 99 99 21 01 0a 20 20 20 20 20 20 00 00 00 fe
00 4e 45 31 36 30 57 55 4d 2d 4e 58 31 0a 01 05

02 03 12 00 6d 1a 00 00 02 01 30 78 00 00 53 4a
53 4a 00 00 00 00 00 00 00 00 00 00 00 00 00 00
00 00 00 00 00 00 00 00 00 00 00 00 00 00 00 00
00 00 00 00 00 00 00 00 00 00 00 00 00 00 00 00
00 00 00 00 00 00 00 00 00 00 00 00 00 00 00 00
00 00 00 00 00 00 00 00 00 00 00 00 00 00 00 00
00 00 00 00 00 00 00 00 00 00 00 00 00 00 00 00
00 00 00 00 00 00 00 00 00 00 00 00 00 00 00 7d

00 ff ff ff ff ff ff 00 09 e5 2b 0b 00 00 00 00
15 20 01 04 a5 23 16 78 03 ee 95 a3 54 4c 99 26
0f 50 54 00 00 00 01 01 01 01 01 01 01 01 01 01
01 01 01 01 01 01 fc 81 80 04 71 b0 48 40 30 20
35 00 59 d7 10 00 00 1a fc 81 80 04 71 b0 40 45
30 20 35 00 59 d7 10 00 00 1a 00 00 00 fd 00 30
78 99 99 21 01 0a 20 20 20 20 20 20 00 00 00 fe
00 4e 45 31 36 30 57 55 4d 2d 4e 58 31 0a 01 05

02 03 12 00 6d 1a 00 00 02 01 30 78 00 00 53 4a
53 4a 00 00 00 00 00 00 00 00 00 00 00 00 00 00
00 00 00 00 00 00 00 00 00 00 00 00 00 00 00 00
00 00 00 00 00 00 00 00 00 00 00 00 00 00 00 00
00 00 00 00 00 00 00 00 00 00 00 00 00 00 00 00
00 00 00 00 00 00 00 00 00 00 00 00 00 00 00 00
00 00 00 00 00 00 00 00 00 00 00 00 00 00 00 00
00 00 00 00 00 00 00 00 00 00 00 00 00 00 00 7d

----------------

Block 0, Base EDID:
  EDID Structure Version & Revision: 1.4
  Vendor & Product Identification:
    Manufacturer: BOE
    Model: 2859
    Made in: week 21 of 2022
  Basic Display Parameters & Features:
    Digital display
    Bits per primary color channel: 8
    DisplayPort interface
    Maximum image size: 35 cm x 22 cm
    Gamma: 2.20
    Supported color formats: RGB 4:4:4
    First detailed timing includes the native pixel format and preferred refresh rate
    Display is continuous frequency
  Color Characteristics:
    Red  : 0.6396, 0.3300
    Green: 0.2998, 0.5996
    Blue : 0.1503, 0.0595
    White: 0.3134, 0.3291
  Established Timings I & II: none
  Standard Timings: none
  Detailed Timing Descriptors:
    DTD 1:  1920x1200  120.001731 Hz  16:10   152.642 kHz    332.760000 MHz (345 mm x 215 mm)
                 Hfront   48 Hsync  32 Hback  180 Hpol P
                 Vfront    3 Vsync   5 Vback   64 Vpol N
    DTD 2:  1920x1200   60.000866 Hz  16:10   152.642 kHz    332.760000 MHz (345 mm x 215 mm)
                 Hfront   48 Hsync  32 Hback  180 Hpol P
                 Vfront    3 Vsync   5 Vback 1336 Vpol N
    Display Range Limits:
      Monitor ranges (Bare Limits): 48-120 Hz V, 153-153 kHz H, max dotclock 330 MHz
    Alphanumeric Data String: 'NE160WUM-NX1'
  Extension blocks: 1
Checksum: 0x05

----------------

Block 1, CTA-861 Extension Block:
  Revision: 3
  Native detailed modes: 0
  Vendor-Specific Data Block (AMD), OUI 00-00-1A:
    Version: 2.1
    Minimum Refresh Rate: 48 Hz
    Maximum Refresh Rate: 120 Hz
    Flags 1.x: 0x00
    Flags 2.x: 0x00
    Maximum luminance: 83 (301.833 cd/m^2)
    Minimum luminance: 74 (0.254 cd/m^2)
    Unknown: 0x53 0x4a
Checksum: 0x7d  Unused space in Extension Block: 109 bytes

----------------

Block 2, Unknown EDID Extension Block 0x00:
  00 ff ff ff ff ff ff 00 09 e5 2b 0b 00 00 00 00 '..........+.....'
  15 20 01 04 a5 23 16 78 03 ee 95 a3 54 4c 99 26 '. ...#.x....TL.&'
  0f 50 54 00 00 00 01 01 01 01 01 01 01 01 01 01 '.PT.............'
  01 01 01 01 01 01 fc 81 80 04 71 b0 48 40 30 20 '..........q.H@0 '
  35 00 59 d7 10 00 00 1a fc 81 80 04 71 b0 40 45 '5.Y.........q.@E'
  30 20 35 00 59 d7 10 00 00 1a 00 00 00 fd 00 30 '0 5.Y..........0'
  78 99 99 21 01 0a 20 20 20 20 20 20 00 00 00 fe 'x..!..      ....'
  00 4e 45 31 36 30 57 55 4d 2d 4e 58 31 0a 01 05 '.NE160WUM-NX1...'
Checksum: 0x05

----------------

Block 3, CTA-861 Extension Block:
  Revision: 3
  Native detailed modes: 0
  Vendor-Specific Data Block (AMD), OUI 00-00-1A:
    Version: 2.1
    Minimum Refresh Rate: 48 Hz
    Maximum Refresh Rate: 120 Hz
    Flags 1.x: 0x00
    Flags 2.x: 0x00
    Maximum luminance: 83 (301.833 cd/m^2)
    Minimum luminance: 74 (0.254 cd/m^2)
    Unknown: 0x53 0x4a
Checksum: 0x7d  Unused space in Extension Block: 109 bytes

----------------

Warnings:

Block 0, Base EDID:
  Missing Display Product Name.
Block 1, CTA-861 Extension Block:
  IT Video Formats are overscanned by default, but normally this should be underscanned.
  Add a Colorimetry Data Block with the sRGB colorimetry bit set to avoid interop issues.
Block 3, CTA-861 Extension Block:
  IT Video Formats are overscanned by default, but normally this should be underscanned.
  Add a Colorimetry Data Block with the sRGB colorimetry bit set to avoid interop issues.
EDID:
  Base EDID: Some timings are out of range of the Monitor Ranges:
    Maximum Clock: 332.760 MHz (Monitor: 330.000 MHz)
    Could be due to a Monitor Range off-by-one rounding issue

Failures:

Block 1, CTA-861 Extension Block:
  Required 640x480p60 timings are missing in the established timings and the SVD list (VIC 1).
  Missing VCDB, needed for Set Selectable RGB Quantization to avoid interop issues.
Block 2, Base EDID:
  Unknown Extension Block.
Block 3, CTA-861 Extension Block:
  Required 640x480p60 timings are missing in the established timings and the SVD list (VIC 1).
  Missing VCDB, needed for Set Selectable RGB Quantization to avoid interop issues.
EDID:
  Base EDID: EDID specified 1 extension block(s), but found 3 extension block(s).

EDID conformity: FAIL
