
EDID (hex):
00ffffffffffff000465601901000000
221b0103682b18782ab0a4a852469823
194c57bfef008180814081c001010101
010101010101662156aa51001e30468f
3300b2ec1000001e662150b051001b30
46703600b2ec1000001c000000ff0031
453139373357413733343030000000fc
00453139373357410a202020202000c6

Extracted contents:
header:          00 ff ff ff ff ff ff 00
serial number:   04 65 60 19 01 00 00 00 22 1b
version:         01 03
basic params:    68 2b 18 78 2a
chroma info:     b0 a4 a8 52 46 98 23 19 4c 57
established:     bf ef 00
standard:        81 80 81 40 81 c0 01 01 01 01 01 01 01 01 01 01
descriptor 1:    66 21 56 aa 51 00 1e 30 46 8f 33 00 b2 ec 10 00 00 1e
descriptor 2:    66 21 50 b0 51 00 1b 30 46 70 36 00 b2 ec 10 00 00 1c
descriptor 3:    00 00 00 ff 00 31 45 31 39 37 33 57 41 37 33 34 30 30
descriptor 4:    00 00 00 fc 00 45 31 39 37 33 57 41 0a 20 20 20 20 20
extensions:      00
checksum:        c6

EDID version: 1.3
Manufacturer: ACE Model 1960 Serial Number --
Made in week 34 of 2017
Analog display, Input voltage level: 0.7/0.7 V
Sync: Separate 
Maximum image size: 43 cm x 24 cm
Gamma: 2.20
DPMS levels: Off
RGB color display
First detailed timing is preferred timing
Display x,y Chromaticity:
  Red:   0.6582, 0.3232
  Green: 0.2734, 0.5937
  Blue:  0.1386, 0.0996
  White: 0.2978, 0.3398
Established timings supported:
  720x400@70Hz 9:5 HorFreq: 31469 Hz Clock: 28.320 MHz
  640x480@60Hz 4:3 HorFreq: 31469 Hz Clock: 25.175 MHz
  640x480@67Hz 4:3 HorFreq: 35000 Hz Clock: 30.240 MHz
  640x480@72Hz 4:3 HorFreq: 37900 Hz Clock: 31.500 MHz
  640x480@75Hz 4:3 HorFreq: 37500 Hz Clock: 31.500 MHz
  800x600@56Hz 4:3 HorFreq: 35200 Hz Clock: 36.000 MHz
  800x600@60Hz 4:3 HorFreq: 37900 Hz Clock: 40.000 MHz
  800x600@72Hz 4:3 HorFreq: 48100 Hz Clock: 50.000 MHz
  800x600@75Hz 4:3 HorFreq: 46900 Hz Clock: 49.500 MHz
  832x624@75Hz 4:3 HorFreq: 49726 Hz Clock: 57.284 MHz
  1024x768@60Hz 4:3 HorFreq: 48400 Hz Clock: 65.000 MHz
  1024x768@70Hz 4:3 HorFreq: 56500 Hz Clock: 75.000 MHz
  1024x768@75Hz 4:3 HorFreq: 60000 Hz Clock: 78.750 MHz
  1280x1024@75Hz 5:4 HorFreq: 80000 Hz Clock: 135.000 MHz
Standard timings supported:
  1280x1024@60Hz 5:4 HorFreq: 64000 Hz Clock: 108.000 MHz
  1280x960@60Hz 4:3 HorFreq: 60000 Hz Clock: 108.000 MHz
  1280x720@60Hz 16:9
Detailed mode: Clock 85.500 MHz, 434 mm x 236 mm
               1366 1436 1579 1792 hborder 0
                768  771  774  798 vborder 0
               +hsync +vsync 
               VertFreq: 59 Hz, HorFreq: 47712 Hz
Detailed mode: Clock 85.500 MHz, 434 mm x 236 mm
               1360 1430 1542 1792 hborder 0
                768  771  777  795 vborder 0
               -hsync +vsync 
               VertFreq: 60 Hz, HorFreq: 47712 Hz
Serial number: --
Monitor name: E1973WA
Checksum: 0xc6 (valid)
EDID block does NOT conform to EDID 1.3!
	Missing monitor ranges
