
EDID (hex):
00ffffffffffff004d10471500000000
341f0104a51d12780fde50a3544c9926
0f505400000001010101010101010101
010101010101283c80a070b023403020
360020b410000018000000fd001e3c4a
4a0f010a202020202020000000fe0057
31434758814c513133344e3100000000
0002410332010200000a410a202000ac

Extracted contents:
header:          00 ff ff ff ff ff ff 00
serial number:   4d 10 47 15 00 00 00 00 34 1f
version:         01 04
basic params:    a5 1d 12 78 0f
chroma info:     de 50 a3 54 4c 99 26 0f 50 54
established:     00 00 00
standard:        01 01 01 01 01 01 01 01 01 01 01 01 01 01 01 01
descriptor 1:    28 3c 80 a0 70 b0 23 40 30 20 36 00 20 b4 10 00 00 18
descriptor 2:    00 00 00 fd 00 1e 3c 4a 4a 0f 01 0a 20 20 20 20 20 20
descriptor 3:    00 00 00 fe 00 57 31 43 47 58 81 4c 51 31 33 34 4e 31
descriptor 4:    00 00 00 00 00 02 41 03 32 01 02 00 00 0a 41 0a 20 20
extensions:      00
checksum:        ac

EDID version: 1.4
Manufacturer: SHP Model 1547 Serial Number --
Made in week 52 of 2021
Digital display
8 bits per primary color channel
DisplayPort interface
Maximum image size: 29 cm x 18 cm
Gamma: 2.20
Supported color formats: RGB 4:4:4, YCrCb 4:4:4
Default (sRGB) color space is primary color space
First detailed timing includes the native pixel format and preferred refresh rate
Display is continuous frequency
Display x,y Chromaticity:
  Red:   0.6396, 0.3291
  Green: 0.2998, 0.5996
  Blue:  0.1494, 0.0595
  White: 0.3125, 0.3281
Established timings supported:
Standard timings supported:
Detailed mode: Clock 154.000 MHz, 288 mm x 180 mm
               1920 1968 2000 2080 hborder 0
               1200 1203 1209 1235 vborder 0
               -hsync -vsync 
               VertFreq: 59 Hz, HorFreq: 74038 Hz
Monitor ranges (bare limits): 30-60Hz V, 74-74kHz H, max dotclock 150MHz
ASCII string: W1CGX
Manufacturer-specified data, tag 0
Checksum: 0xac (valid)
EDID block does NOT conform to EDID 1.4!
	sRGB is signaled, but the chromaticities do not match
	Missing name descriptor
	Detailed block string not properly terminated
Warning: One or more of the timings is out of range of the Monitor Ranges:
  Vertical Freq: 59 - 59 Hz
  Horizontal Freq: 74038 - 74038 Hz
  Maximum Clock: 154.000 MHz
