edid-decode (hex):

00 ff ff ff ff ff ff 00 06 af 14 01 40 4e 00 00
32 0e 01 03 80 21 14 78 0a 05 50 97 57 4f 8f 26
21 50 54 00 00 00 01 01 01 01 01 01 01 01 01 01
01 01 01 01 01 01 c6 1b 00 a0 50 00 37 30 10 70
13 00 31 b7 10 00 00 18 00 00 00 fe 00 42 31 34
30 45 57 30 31 56 31 0a 20 20 00 00 00 fe 00 42
31 34 30 45 57 30 31 56 31 0a 20 20 00 00 00 fc
00 42 31 34 30 45 57 30 31 56 31 0a 20 20 00 55

----------------

Block 0, Base EDID:
  EDID Structure Version & Revision: 1.3
  Vendor & Product Identification:
    Manufacturer: AUO
    Model: 276
    Serial Number: ...
    Made in: week 50 of 2004
  Basic Display Parameters & Features:
    Digital display
    Maximum image size: 33 cm x 20 cm
    Gamma: 2.20
    RGB color display
    First detailed timing is preferred timing
  Color Characteristics:
    Red  : 0.5898, 0.3398
    Green: 0.3095, 0.5595
    Blue : 0.1494, 0.1298
    White: 0.3125, 0.3281
  Established Timings I & II: none
  Standard Timings: none
  Detailed Timing Descriptors:
    DTD 1:  1280x768    59.994 Hz   5:3    49.375 kHz  71.100 MHz (305 mm x 183 mm)
                 Hfront   16 Hsync 112 Hback  32 Hpol N
                 Vfront    1 Vsync   3 Vback  51 Vpol N
    Alphanumeric Data String: 'B140EW01V1'
    Alphanumeric Data String: 'B140EW01V1'
    Display Product Name: 'B140EW01V1'
Checksum: 0x55
