
EDID (hex):
00ffffffffffff0006af140100000000
010e0103802114780a055097574f8f26
21505400000001010101010101010101
010101010101c61b00a0500037301070
130031b710000018000000fe00423134
304557303156310a2020000000fe0042
3134304557303156310a2020000000fc
00423134304557303156310a20200014

Extracted contents:
header:          00 ff ff ff ff ff ff 00
serial number:   06 af 14 01 00 00 00 00 01 0e
version:         01 03
basic params:    80 21 14 78 0a
chroma info:     05 50 97 57 4f 8f 26 21 50 54
established:     00 00 00
standard:        01 01 01 01 01 01 01 01 01 01 01 01 01 01 01 01
descriptor 1:    c6 1b 00 a0 50 00 37 30 10 70 13 00 31 b7 10 00 00 18
descriptor 2:    00 00 00 fe 00 42 31 34 30 45 57 30 31 56 31 0a 20 20
descriptor 3:    00 00 00 fe 00 42 31 34 30 45 57 30 31 56 31 0a 20 20
descriptor 4:    00 00 00 fc 00 42 31 34 30 45 57 30 31 56 31 0a 20 20
extensions:      00
checksum:        14

EDID version: 1.3
Manufacturer: AUO Model 114 Serial Number --
Digital display
Maximum image size: 33 cm x 20 cm
Gamma: 2.20
RGB color display
First detailed timing is preferred timing
Display x,y Chromaticity:
  Red:   0.5898, 0.3398
  Green: 0.3095, 0.5595
  Blue:  0.1494, 0.1298
  White: 0.3125, 0.3281
Established timings supported:
Standard timings supported:
Detailed mode: Clock 71.100 MHz, 305 mm x 183 mm
               1280 1296 1408 1440 hborder 0
                768  769  772  823 vborder 0
               -hsync -vsync 
               VertFreq: 59 Hz, HorFreq: 49375 Hz
ASCII string: B140EW01V1
ASCII string: B140EW01V1
Monitor name: B140EW01V1
Checksum: 0x14 (valid)
EDID block does NOT conform to EDID 1.3!
	Missing monitor ranges
EDID block does not conform at all!
	Bad year of manufacture
