
EDID (hex):
00ffffffffffff0004720704ffffffff
ff170104a53e227806ee91a3544c9926
0f505400000001010101010101010101
0101010101014dd000a0f0703e803020
35006d552100001a000000ff00234153
4e4a64365942384c4464000000fd001e
461e8c36010a202020202020000000fc
0041636572205842323830484b0a0126
02030a01654b04000101ef5100a0f070
1980302035006d552100001a00000000
00000000000000000000000000000000
00000000000000000000000000000000
00000000000000000000000000000000
00000000000000000000000000000000
00000000000000000000000000000000
000000000000000000000000000000df

Extracted contents:
header:          00 ff ff ff ff ff ff 00
serial number:   04 72 07 04 ff ff ff ff ff 17
version:         01 04
basic params:    a5 3e 22 78 06
chroma info:     ee 91 a3 54 4c 99 26 0f 50 54
established:     00 00 00
standard:        01 01 01 01 01 01 01 01 01 01 01 01 01 01 01 01
descriptor 1:    4d d0 00 a0 f0 70 3e 80 30 20 35 00 6d 55 21 00 00 1a
descriptor 2:    00 00 00 ff 00 23 41 53 4e 4a 64 36 59 42 38 4c 44 64
descriptor 3:    00 00 00 fd 00 1e 46 1e 8c 36 01 0a 20 20 20 20 20 20
descriptor 4:    00 00 00 fc 00 41 63 65 72 20 58 42 32 38 30 48 4b 0a
extensions:      01
checksum:        26

EDID version: 1.4
Manufacturer: ACR Model 407 Serial Number --
Model year 2013
Digital display
8 bits per primary color channel
DisplayPort interface
Maximum image size: 62 cm x 34 cm
Gamma: 2.20
Supported color formats: RGB 4:4:4
Default (sRGB) color space is primary color space
First detailed timing includes the native pixel format and preferred refresh rate
Display x,y Chromaticity:
  Red:   0.6396, 0.3300
  Green: 0.2998, 0.5996
  Blue:  0.1503, 0.0595
  White: 0.3125, 0.3291
Established timings supported:
Standard timings supported:
Detailed mode: Clock 533.250 MHz, 621 mm x 341 mm
               3840 3888 3920 4000 hborder 0
               2160 2163 2168 2222 vborder 0
               +hsync -vsync 
               VertFreq: 59 Hz, HorFreq: 133312 Hz
Serial number: --
Monitor ranges (bare limits): 30-70Hz V, 30-140kHz H, max dotclock 540MHz
Monitor name: Acer XB280HK
Has 1 extension blocks
Checksum: 0x26 (valid)

CTA extension block
Extension version: 3
6 bytes of CTA data
  Vendor-specific data block, OUI 00044b
1 native detailed modes
Detailed mode: Clock 209.750 MHz, 621 mm x 341 mm
               3840 3888 3920 4000 hborder 0
               2160 2163 2168 2185 vborder 0
               +hsync -vsync 
               VertFreq: 23 Hz, HorFreq: 52437 Hz
Checksum: 0xdf (valid)

EDID block does NOT conform to EDID 1.4!
	Required 640x480p60 timings are missing in the established timings
	and/or in the SVD list (VIC 1)
Warning: One or more of the timings is out of range of the Monitor Ranges:
  Vertical Freq: 23 - 59 Hz
  Horizontal Freq: 52437 - 133312 Hz
  Maximum Clock: 533.250 MHz
EDID block does not conform at all!
	Both the serial number and the serial string are set
