
EDID (hex):
00ffffffffffff001e6d893e01010101
0b130104a5231478e231419c54519627
18505421080031404540614001010101
010101010101201c5686500020300e38
130058c21000001e662150b051001b30
4070360058c21000001c000000fd0039
3f1e3209000a202020202020000000fc
005731363432430a20202020202000f4

Extracted contents:
header:          00 ff ff ff ff ff ff 00
serial number:   1e 6d 89 3e 01 01 01 01 0b 13
version:         01 04
basic params:    a5 23 14 78 e2
chroma info:     31 41 9c 54 51 96 27 18 50 54
established:     21 08 00
standard:        31 40 45 40 61 40 01 01 01 01 01 01 01 01 01 01
descriptor 1:    20 1c 56 86 50 00 20 30 0e 38 13 00 58 c2 10 00 00 1e
descriptor 2:    66 21 50 b0 51 00 1b 30 40 70 36 00 58 c2 10 00 00 1c
descriptor 3:    00 00 00 fd 00 39 3f 1e 32 09 00 0a 20 20 20 20 20 20
descriptor 4:    00 00 00 fc 00 57 31 36 34 32 43 0a 20 20 20 20 20 20
extensions:      00
checksum:        f4

EDID version: 1.4
Manufacturer: GSM Model 3e89 Serial Number --
Made in week 11 of 2009
Digital display
8 bits per primary color channel
DisplayPort interface
Maximum image size: 35 cm x 20 cm
Gamma: 2.20
DPMS levels: Standby Suspend Off
Supported color formats: RGB 4:4:4
First detailed timing includes the native pixel format and preferred refresh rate
Display x,y Chromaticity:
  Red:   0.6093, 0.3310
  Green: 0.3164, 0.5869
  Blue:  0.1533, 0.0937
  White: 0.3125, 0.3291
Established timings supported:
  640x480@60Hz 4:3 HorFreq: 31469 Hz Clock: 25.175 MHz
  800x600@60Hz 4:3 HorFreq: 37900 Hz Clock: 40.000 MHz
  1024x768@60Hz 4:3 HorFreq: 48400 Hz Clock: 65.000 MHz
Standard timings supported:
  640x480@60Hz 4:3 HorFreq: 31469 Hz Clock: 25.175 MHz
  800x600@60Hz 4:3 HorFreq: 37900 Hz Clock: 40.000 MHz
  1024x768@60Hz 4:3 HorFreq: 48400 Hz Clock: 65.000 MHz
Detailed mode: Clock 72.000 MHz, 344 mm x 194 mm
               1366 1380 1436 1500 hborder 0
                768  769  772  800 vborder 0
               +hsync +vsync 
               VertFreq: 60 Hz, HorFreq: 48000 Hz
Detailed mode: Clock 85.500 MHz, 344 mm x 194 mm
               1360 1424 1536 1792 hborder 0
                768  771  777  795 vborder 0
               -hsync +vsync 
               VertFreq: 60 Hz, HorFreq: 47712 Hz
Monitor ranges (GTF): 57-63Hz V, 30-50kHz H, max dotclock 90MHz
Monitor name: W1642C
Checksum: 0xf4 (valid)
