edid-decode (hex):

00 ff ff ff ff ff ff 00 0e 11 48 14 89 82 aa cc
2a 0c 01 03 68 1e 16 62 ea 7e 35 98 54 4b 8d 26
1f 4e 54 ad ee 00 01 01 01 01 01 01 01 01 01 01
01 01 01 01 01 01 64 19 00 40 41 00 26 30 18 88
36 00 2c dc 10 00 00 18 00 00 00 fd 00 38 4b 1e
3d 08 00 0a 20 20 20 20 20 20 00 00 00 fc 00 43
4f 4d 50 41 51 20 35 30 31 37 0a 20 00 00 00 0d
00 02 00 20 0c 4e f9 db 24 d9 fc a0 0a 7b 00 89

00 ff ff ff ff ff ff 00 0e 11 48 14 89 82 aa cc
2a 0c 01 03 68 1e 16 62 ea 7e 35 98 54 4b 8d 26
1f 4e 54 ad ee 00 01 01 01 01 01 01 01 01 01 01
01 01 01 01 01 01 64 19 00 40 41 00 26 30 18 88
36 00 2c dc 10 00 00 18 00 00 00 fd 00 38 4b 1e
3d 08 00 0a 20 20 20 20 20 20 00 00 00 fc 00 43
4f 4d 50 41 51 20 35 30 31 37 0a 20 00 00 00 0d
00 02 00 20 0c 4e f9 db 24 d9 fc a0 0a 7b 00 89

----------------

Block 0, Base EDID:
  EDID Structure Version & Revision: 1.3
  Vendor & Product Identification:
    Manufacturer: CPQ
    Model: 5192
    Serial Number: ...
    Made in: week 42 of 2002
  Basic Display Parameters & Features:
    Analog display
    Signal Level Standard: 0.700 : 0.000 : 0.700 V p-p
    Blank level equals black level
    Sync: Separate
    Maximum image size: 30 cm x 22 cm
    Gamma: 1.98
    DPMS levels: Standby Suspend Off
    RGB color display
    First detailed timing is the preferred timing
  Color Characteristics:
    Red  : 0.5947, 0.3310
    Green: 0.2958, 0.5527
    Blue : 0.1484, 0.1240
    White: 0.3056, 0.3291
  Established Timings I & II:
    IBM     :   720x400    70.081663 Hz   9:5     31.467 kHz     28.320000 MHz
    DMT 0x04:   640x480    59.940476 Hz   4:3     31.469 kHz     25.175000 MHz
    DMT 0x05:   640x480    72.808802 Hz   4:3     37.861 kHz     31.500000 MHz
    DMT 0x06:   640x480    75.000000 Hz   4:3     37.500 kHz     31.500000 MHz
    DMT 0x09:   800x600    60.316541 Hz   4:3     37.879 kHz     40.000000 MHz
    DMT 0x0a:   800x600    72.187572 Hz   4:3     48.077 kHz     50.000000 MHz
    DMT 0x0b:   800x600    75.000000 Hz   4:3     46.875 kHz     49.500000 MHz
    Apple   :   832x624    74.551266 Hz   4:3     49.726 kHz     57.284000 MHz
    DMT 0x10:  1024x768    60.003840 Hz   4:3     48.363 kHz     65.000000 MHz
    DMT 0x11:  1024x768    70.069359 Hz   4:3     56.476 kHz     75.000000 MHz
    DMT 0x12:  1024x768    75.028582 Hz   4:3     60.023 kHz     78.750000 MHz
  Standard Timings: none
  Detailed Timing Descriptors:
    DTD 1:  1024x768    60.003840 Hz   4:3     48.363 kHz     65.000000 MHz (300 mm x 220 mm)
                 Hfront   24 Hsync 136 Hback  160 Hpol N
                 Vfront    3 Vsync   6 Vback   29 Vpol N
    Display Range Limits:
      Monitor ranges (GTF): 56-75 Hz V, 30-61 kHz H, max dotclock 80 MHz
    Display Product Name: 'COMPAQ 5017'
    Manufacturer-Specified Display Descriptor (0x0d): 00 0d 00 02 00 20 0c 4e f9 db 24 d9 fc a0 0a 7b '..... .N..$....{'
Checksum: 0x89

----------------

Block 1, Unknown EDID Extension Block 0x00:
  00 ff ff ff ff ff ff 00 0e 11 48 14 89 82 aa cc '..........H.....'
  2a 0c 01 03 68 1e 16 62 ea 7e 35 98 54 4b 8d 26 '*...h..b.~5.TK.&'
  1f 4e 54 ad ee 00 01 01 01 01 01 01 01 01 01 01 '.NT.............'
  01 01 01 01 01 01 64 19 00 40 41 00 26 30 18 88 '......d..@A.&0..'
  36 00 2c dc 10 00 00 18 00 00 00 fd 00 38 4b 1e '6.,..........8K.'
  3d 08 00 0a 20 20 20 20 20 20 00 00 00 fc 00 43 '=...      .....C'
  4f 4d 50 41 51 20 35 30 31 37 0a 20 00 00 00 0d 'OMPAQ 5017. ....'
  00 02 00 20 0c 4e f9 db 24 d9 fc a0 0a 7b 00 89 '... .N..$....{..'
Checksum: 0x89

----------------

Failures:

Block 1, Base EDID:
  Unknown Extension Block.
EDID:
  Base EDID: EDID specified 0 extension block(s), but found 1 extension block(s).

EDID conformity: FAIL
