
EDID (hex):
00ffffffffffff0022f0443101010101
0a190103682b18782e2cc5a45650a128
0f5054a10800a9c081c0950081800101
010101010101302a40c8608464301850
1300b0ef1000001e000000fd00324b18
5311000a202020202020000000fc0048
5020323077640a2020202020000000ff
00334351353130303756510a2020002a

Extracted contents:
header:          00 ff ff ff ff ff ff 00
serial number:   22 f0 44 31 01 01 01 01 0a 19
version:         01 03
basic params:    68 2b 18 78 2e
chroma info:     2c c5 a4 56 50 a1 28 0f 50 54
established:     a1 08 00
standard:        a9 c0 81 c0 95 00 81 80 01 01 01 01 01 01 01 01
descriptor 1:    30 2a 40 c8 60 84 64 30 18 50 13 00 b0 ef 10 00 00 1e
descriptor 2:    00 00 00 fd 00 32 4b 18 53 11 00 0a 20 20 20 20 20 20
descriptor 3:    00 00 00 fc 00 48 50 20 32 30 77 64 0a 20 20 20 20 20
descriptor 4:    00 00 00 ff 00 33 43 51 35 31 30 30 37 56 51 0a 20 20
extensions:      00
checksum:        2a

EDID version: 1.3
Manufacturer: HWP Model 3144 Serial Number --
Made in week 10 of 2015
Analog display, Input voltage level: 0.7/0.7 V
Sync: Separate 
Maximum image size: 43 cm x 24 cm
Gamma: 2.20
DPMS levels: Off
RGB color display
Default (sRGB) color space is primary color space
First detailed timing is preferred timing
Display x,y Chromaticity:
  Red:   0.6406, 0.3378
  Green: 0.3154, 0.6289
  Blue:  0.1591, 0.0585
  White: 0.3134, 0.3291
Established timings supported:
  720x400@70Hz 9:5 HorFreq: 31469 Hz Clock: 28.320 MHz
  640x480@60Hz 4:3 HorFreq: 31469 Hz Clock: 25.175 MHz
  800x600@60Hz 4:3 HorFreq: 37900 Hz Clock: 40.000 MHz
  1024x768@60Hz 4:3 HorFreq: 48400 Hz Clock: 65.000 MHz
Standard timings supported:
  1600x900@60Hz 16:9
  1280x720@60Hz 16:9
  1440x900@60Hz 16:10 HorFreq: 55500 Hz Clock: 88.750 MHz
  1280x1024@60Hz 5:4 HorFreq: 64000 Hz Clock: 108.000 MHz
Detailed mode: Clock 108.000 MHz, 432 mm x 239 mm
               1600 1624 1704 1800 hborder 0
                900  901  904 1000 vborder 0
               +hsync +vsync 
               VertFreq: 60 Hz, HorFreq: 60000 Hz
Monitor ranges (GTF): 50-75Hz V, 24-83kHz H, max dotclock 170MHz
Monitor name: HP 20wd
Serial number: --
Checksum: 0x2a (valid)
EDID block does NOT conform to EDID 1.3!
	sRGB is signaled, but the chromaticities do not match
