
EDID (hex):
00ffffffffffff005a6305e001010101
290a01021b241baaeb7c59a353479a24
10484cffff80315945596159714f8159
8199a94aa94fbc34009851002a401090
13005e061100001e000000ff00333035
3030343130313734390a000000fd0032
a01e5f12000a202020202020000000fc
00453739302d330a20202020202000a1

Extracted contents:
header:          00 ff ff ff ff ff ff 00
serial number:   5a 63 05 e0 01 01 01 01 29 0a
version:         01 02
basic params:    1b 24 1b aa eb
chroma info:     7c 59 a3 53 47 9a 24 10 48 4c
established:     ff ff 80
standard:        31 59 45 59 61 59 71 4f 81 59 81 99 a9 4a a9 4f
descriptor 1:    bc 34 00 98 51 00 2a 40 10 90 13 00 5e 06 11 00 00 1e
descriptor 2:    00 00 00 ff 00 33 30 35 30 30 34 31 30 31 37 34 39 0a
descriptor 3:    00 00 00 fd 00 32 a0 1e 5f 12 00 0a 20 20 20 20 20 20
descriptor 4:    00 00 00 fc 00 45 37 39 30 2d 33 0a 20 20 20 20 20 20
extensions:      00
checksum:        a1

EDID version: 1.2
Manufacturer: VSC Model e005 Serial Number --
Analog display, Input voltage level: 0.7/0.3 V
Configurable signal levels
Sync: Separate SyncOnGreen Serration 
Maximum image size: 36 cm x 27 cm
Gamma: 2.70
DPMS levels: Standby Suspend Off
RGB color display
First detailed timing is preferred timing
Supports GTF timings within operating range
Display x,y Chromaticity:
  Red:   0.6376, 0.3271
  Green: 0.2802, 0.6015
  Blue:  0.1416, 0.0634
  White: 0.2832, 0.2978
Established timings supported:
  720x400@70Hz 9:5 HorFreq: 31469 Hz Clock: 28.320 MHz
  720x400@88Hz 9:5 HorFreq: 39500 Hz Clock: 35.500 MHz
  640x480@60Hz 4:3 HorFreq: 31469 Hz Clock: 25.175 MHz
  640x480@67Hz 4:3 HorFreq: 35000 Hz Clock: 30.240 MHz
  640x480@72Hz 4:3 HorFreq: 37900 Hz Clock: 31.500 MHz
  640x480@75Hz 4:3 HorFreq: 37500 Hz Clock: 31.500 MHz
  800x600@56Hz 4:3 HorFreq: 35200 Hz Clock: 36.000 MHz
  800x600@60Hz 4:3 HorFreq: 37900 Hz Clock: 40.000 MHz
  800x600@72Hz 4:3 HorFreq: 48100 Hz Clock: 50.000 MHz
  800x600@75Hz 4:3 HorFreq: 46900 Hz Clock: 49.500 MHz
  832x624@75Hz 4:3 HorFreq: 49726 Hz Clock: 57.284 MHz
  1280x768i@87Hz 5:3 HorFreq: 35522 Hz Clock: 44.900 MHz
  1024x768@60Hz 4:3 HorFreq: 48400 Hz Clock: 65.000 MHz
  1024x768@70Hz 4:3 HorFreq: 56500 Hz Clock: 75.000 MHz
  1024x768@75Hz 4:3 HorFreq: 60000 Hz Clock: 78.750 MHz
  1280x1024@75Hz 5:4 HorFreq: 80000 Hz Clock: 135.000 MHz
  1152x870@75Hz 192:145 HorFreq: 67500 Hz Clock: 108.000 MHz
Standard timings supported:
  640x480@85Hz 4:3 HorFreq: 43300 Hz Clock: 36.000 MHz
  800x600@85Hz 4:3 HorFreq: 53700 Hz Clock: 56.250 MHz
  1024x768@85Hz 4:3 HorFreq: 68700 Hz Clock: 94.500 MHz
  1152x864@75Hz 4:3 HorFreq: 67500 Hz Clock: 108.000 MHz
  1280x960@85Hz 4:3 HorFreq: 85900 Hz Clock: 148.500 MHz
  1280x1024@85Hz 5:4 HorFreq: 91100 Hz Clock: 157.500 MHz
  1600x1200@70Hz 4:3 HorFreq: 87500 Hz Clock: 189.000 MHz
  1600x1200@75Hz 4:3 HorFreq: 93800 Hz Clock: 202.500 MHz
Detailed mode: Clock 135.000 MHz, 350 mm x 262 mm
               1280 1296 1440 1688 hborder 0
               1024 1025 1028 1066 vborder 0
               +hsync +vsync 
               VertFreq: 75 Hz, HorFreq: 79976 Hz
Serial number: --
Monitor ranges (GTF): 50-160Hz V, 30-95kHz H, max dotclock 180MHz
Monitor name: E790-3
Checksum: 0xa1 (valid)
One or more of the timings is out of range of the Monitor Ranges:
  Vertical Freq: 56 - 88 Hz
  Horizontal Freq: 31469 - 93800 Hz
  Maximum Clock: 202.500 MHz
EDID block does not conform at all!
	Bad year of manufacture
