edid-decode (hex):

00 ff ff ff ff ff ff 00 50 34 54 30 28 3b 00 00
33 08 01 01 68 1f 17 b1 e8 ef 2e a2 55 47 99 25
0f 47 4f a5 4a 00 31 59 45 59 61 59 81 80 01 01
01 01 01 01 01 01 d6 09 80 a0 20 5e 63 10 10 60
52 08 fa be 00 08 06 1a 00 00 00 fd 00 32 64 1e
46 ff 00 0a 20 20 20 20 20 20 00 00 00 ff 00 34
4f 41 38 35 31 30 31 35 31 34 34 0a 00 00 00 00
00 00 00 00 00 00 00 00 00 00 00 00 00 00 00 9b

----------------

Block 0, Base EDID:
  EDID Structure Version & Revision: 1.1
  Vendor & Product Identification:
    Manufacturer: TAT
    Model: 12372
    Serial Number: ...
    Made in: week 51 of 1998
  Basic Display Parameters & Features:
    Analog display
    Signal Level Standard: 0.700 : 0.000 : 0.700 V p-p
    Blank level equals black level
    Sync: Separate
    Maximum image size: 31 cm x 23 cm
    Gamma: 2.77
    DPMS levels: Standby Suspend Off
    RGB color display
  Color Characteristics:
    Red  : 0.6357, 0.3339
    Green: 0.2802, 0.6005
    Blue : 0.1445, 0.0605
    White: 0.2802, 0.3105
  Established Timings I & II:
    IBM     :   720x400    70.081663 Hz   9:5     31.467 kHz     28.320000 MHz
    DMT 0x04:   640x480    59.940476 Hz   4:3     31.469 kHz     25.175000 MHz
    DMT 0x06:   640x480    75.000000 Hz   4:3     37.500 kHz     31.500000 MHz
    DMT 0x09:   800x600    60.316541 Hz   4:3     37.879 kHz     40.000000 MHz
    DMT 0x0b:   800x600    75.000000 Hz   4:3     46.875 kHz     49.500000 MHz
    DMT 0x10:  1024x768    60.003840 Hz   4:3     48.363 kHz     65.000000 MHz
    DMT 0x12:  1024x768    75.028582 Hz   4:3     60.023 kHz     78.750000 MHz
  Standard Timings:
    DMT 0x07:   640x480    85.008312 Hz   4:3     43.269 kHz     36.000000 MHz
    DMT 0x0c:   800x600    85.061274 Hz   4:3     53.674 kHz     56.250000 MHz
    DMT 0x13:  1024x768    84.996690 Hz   4:3     68.677 kHz     94.500000 MHz
    DMT 0x23:  1280x1024   60.019740 Hz   5:4     63.981 kHz    108.000000 MHz
  Detailed Timing Descriptors:
    DTD 1:   640x350    70.100223 Hz  64:35    31.475 kHz     25.180000 MHz (250 mm x 190 mm)
                 Hfront   16 Hsync  96 Hback   32 Hpol P Hborder 8
                 Vfront   37 Vsync   2 Vback   48 Vpol N Vborder 6
    Display Range Limits:
      Monitor ranges (GTF): 50-100 Hz V, 30-70 kHz H, max dotclock 2550 MHz
    Display Product Serial Number: ...
    Empty Descriptor
Checksum: 0x9b

----------------

Warnings:

Block 0, Base EDID:
  EDID Structure Version & Revision: EDID 1.1 is deprecated, do not use.
  Detailed Timing Descriptor #1: The use of non-zero borders in a DTD is not recommended.

Failures:

Block 0, Base EDID:
  Detailed Timing Descriptor #1: Mismatch of image size 250x190 mm vs display size 310x230 mm.
  Empty Descriptor: Use Dummy Descriptor instead of all zeroes.

EDID conformity: FAIL
