
EDID (hex):
00ffffffffffff0051b8881300000000
161e0104a51d147802ee95a3544c9926
0f505400000001010101010101010101
010101010101b898b8a0b0d03e703020
4a0025c41000001a0000000000000000
00000000000000000018000000fe0054
49414e4d4120584d20000000000000ff
00544c31333947445850303200000088

Extracted contents:
header:          00 ff ff ff ff ff ff 00
serial number:   51 b8 88 13 00 00 00 00 16 1e
version:         01 04
basic params:    a5 1d 14 78 02
chroma info:     ee 95 a3 54 4c 99 26 0f 50 54
established:     00 00 00
standard:        01 01 01 01 01 01 01 01 01 01 01 01 01 01 01 01
descriptor 1:    b8 98 b8 a0 b0 d0 3e 70 30 20 4a 00 25 c4 10 00 00 1a
descriptor 2:    00 00 00 00 00 00 00 00 00 00 00 00 00 00 00 00 00 18
descriptor 3:    00 00 00 fe 00 54 49 41 4e 4d 41 20 58 4d 20 00 00 00
descriptor 4:    00 00 00 ff 00 54 4c 31 33 39 47 44 58 50 30 32 00 00
extensions:      00
checksum:        88

EDID version: 1.4
Manufacturer: TMX Model 1388 Serial Number --
Made in week 22 of 2020
Digital display
8 bits per primary color channel
DisplayPort interface
Maximum image size: 29 cm x 20 cm
Gamma: 2.20
Supported color formats: RGB 4:4:4
First detailed timing includes the native pixel format and preferred refresh rate
Display x,y Chromaticity:
  Red:   0.6396, 0.3300
  Green: 0.2998, 0.5996
  Blue:  0.1503, 0.0595
  White: 0.3134, 0.3291
Established timings supported:
Standard timings supported:
Detailed mode: Clock 390.960 MHz, 293 mm x 196 mm
               3000 3048 3080 3160 hborder 0
               2000 2004 2014 2062 vborder 0
               +hsync -vsync 
               VertFreq: 60 Hz, HorFreq: 123721 Hz
Manufacturer-specified data, tag 0
ASCII string: TIANMA XM 
Serial number: --
Checksum: 0x88 (valid)
EDID block does NOT conform to EDID 1.4!
	Missing name descriptor
	Missing monitor ranges
	Detailed block string not properly terminated
