
EDID (hex):
00ffffffffffff000dae761400000000
33150103801f11780a2b359757548f29
23505400000001010101010101010101
010101010101f71b5692500015302c1d
340035ae10000018000000fe004e3134
304247452d4c42320a20000000fe0043
4d4e0a202020202020202020000000fe
004e3134304247452d4c42320a200069

Extracted contents:
header:          00 ff ff ff ff ff ff 00
serial number:   0d ae 76 14 00 00 00 00 33 15
version:         01 03
basic params:    80 1f 11 78 0a
chroma info:     2b 35 97 57 54 8f 29 23 50 54
established:     00 00 00
standard:        01 01 01 01 01 01 01 01 01 01 01 01 01 01 01 01
descriptor 1:    f7 1b 56 92 50 00 15 30 2c 1d 34 00 35 ae 10 00 00 18
descriptor 2:    00 00 00 fe 00 4e 31 34 30 42 47 45 2d 4c 42 32 0a 20
descriptor 3:    00 00 00 fe 00 43 4d 4e 0a 20 20 20 20 20 20 20 20 20
descriptor 4:    00 00 00 fe 00 4e 31 34 30 42 47 45 2d 4c 42 32 0a 20
extensions:      00
checksum:        69

EDID version: 1.3
Manufacturer: CMN Model 1476 Serial Number --
Made in week 51 of 2011
Digital display
Maximum image size: 31 cm x 17 cm
Gamma: 2.20
RGB color display
First detailed timing is preferred timing
Display x,y Chromaticity:
  Red:   0.5898, 0.3417
  Green: 0.3300, 0.5615
  Blue:  0.1601, 0.1396
  White: 0.3134, 0.3291
Established timings supported:
Standard timings supported:
Detailed mode: Clock 71.590 MHz, 309 mm x 174 mm
               1366 1410 1439 1512 hborder 0
                768  771  775  789 vborder 0
               -hsync -vsync 
               VertFreq: 60 Hz, HorFreq: 47347 Hz
ASCII string: N140BGE-LB2
ASCII string: CMN
ASCII string: N140BGE-LB2
Checksum: 0x69 (valid)
EDID block does NOT conform to EDID 1.3!
	Missing name descriptor
	Missing monitor ranges
