edid-decode (hex):

00 ff ff ff ff ff ff 00 4c 83 52 48 00 00 00 00
00 17 01 03 95 22 13 78 ea ce 85 9e 5b 4c 94 26
17 50 54 00 00 00 01 01 01 01 01 01 01 01 01 01
01 01 01 01 01 01 ab a4 00 74 f0 70 3c 80 30 20
25 00 58 c2 10 00 00 18 01 00 00 0f 00 00 00 00
00 00 00 00 00 37 82 05 46 00 01 00 00 fe 00 53
41 4d 53 55 4e 47 0a 20 4c 83 46 4c 01 00 00 fe
00 4c 54 4e 31 35 36 46 4c 30 32 4c 30 31 00 bd

00 ff ff ff ff ff ff 00 4c 83 52 48 00 00 00 00
00 17 01 03 95 22 13 78 ea ce 85 9e 5b 4c 94 26
17 50 54 00 00 00 01 01 01 01 01 01 01 01 01 01
01 01 01 01 01 01 ab a4 00 74 f0 70 3c 80 30 20
25 00 58 c2 10 00 00 18 01 00 00 0f 00 00 00 00
00 00 00 00 00 37 82 05 46 00 01 00 00 fe 00 53
41 4d 53 55 4e 47 0a 20 4c 83 46 4c 01 00 00 fe
00 4c 54 4e 31 35 36 46 4c 30 32 4c 30 31 00 bd

----------------

Block 0, Base EDID:
  EDID Structure Version & Revision: 1.3
  Vendor & Product Identification:
    Manufacturer: SDC
    Model: 18514
    Made in: 2013
  Basic Display Parameters & Features:
    Digital display
    DFP 1.x compatible TMDS
    Maximum image size: 34 cm x 19 cm
    Gamma: 2.20
    DPMS levels: Standby Suspend Off
    RGB color display
    First detailed timing is the preferred timing
  Color Characteristics:
    Red  : 0.6201, 0.3554
    Green: 0.2998, 0.5800
    Blue : 0.1503, 0.0898
    White: 0.3134, 0.3291
  Established Timings I & II: none
  Standard Timings: none
  Detailed Timing Descriptors:
    DTD 1:  3840x2160   47.999845 Hz  16:9    106.560 kHz    421.550000 MHz (344 mm x 194 mm)
                 Hfront   48 Hsync  32 Hback   36 Hpol N
                 Vfront    2 Vsync   5 Vback   53 Vpol N
    Detailed mode: 01 00 00 0f 00 00 00 00 00 00 00 00 00 37 82 05 46 00 '.............7..F.'
    Detailed mode: 01 00 00 fe 00 53 41 4d 53 55 4e 47 0a 20 4c 83 46 4c '.....SAMSUNG. L.FL'
    Detailed mode: 01 00 00 fe 00 4c 54 4e 31 35 36 46 4c 30 32 4c 30 31 '.....LTN156FL02L01'
Checksum: 0xbd

----------------

Block 1, Unknown EDID Extension Block 0x00:
  00 ff ff ff ff ff ff 00 4c 83 52 48 00 00 00 00 '........L.RH....'
  00 17 01 03 95 22 13 78 ea ce 85 9e 5b 4c 94 26 '.....".x....[L.&'
  17 50 54 00 00 00 01 01 01 01 01 01 01 01 01 01 '.PT.............'
  01 01 01 01 01 01 ab a4 00 74 f0 70 3c 80 30 20 '.........t.p<.0 '
  25 00 58 c2 10 00 00 18 01 00 00 0f 00 00 00 00 '%.X.............'
  00 00 00 00 00 37 82 05 46 00 01 00 00 fe 00 53 '.....7..F......S'
  41 4d 53 55 4e 47 0a 20 4c 83 46 4c 01 00 00 fe 'AMSUNG. L.FL....'
  00 4c 54 4e 31 35 36 46 4c 30 32 4c 30 31 00 bd '.LTN156FL02L01..'
Checksum: 0xbd

----------------

Failures:

Block 0, Base EDID:
  Basic Display Parameters & Features: Digital Video Interface Standard set to reserved value 0x14.
  Detailed Timing Descriptor #2: Pixelclock < 10 MHz, assuming invalid data 0x01 0x00.
  Detailed Timing Descriptor #3: Pixelclock < 10 MHz, assuming invalid data 0x01 0x00.
  Detailed Timing Descriptor #4: Pixelclock < 10 MHz, assuming invalid data 0x01 0x00.
  Missing Display Product Name.
  Missing Display Range Limits Descriptor.
Block 1, Base EDID:
  Unknown Extension Block.
EDID:
  Base EDID: EDID specified 0 extension block(s), but found 1 extension block(s).

EDID conformity: FAIL
