edid-decode (hex):

00 ff ff ff ff ff ff 00 65 94 00 41 00 00 00 00
30 18 01 04 a5 15 0d 78 ea 50 1d 9b 55 44 8f 24
29 50 54 00 00 00 01 01 01 01 01 01 01 01 01 01
01 01 01 01 01 01 38 40 80 e0 70 b0 4e 40 50 20
86 04 d8 87 00 00 00 1e 60 33 80 e0 70 b0 4e 40
50 20 86 04 d8 87 00 00 00 1e 00 00 00 fe 00 4c
42 31 30 31 46 30 31 34 41 30 30 0a 00 00 00 fe
00 50 41 58 31 30 34 31 2d 30 32 0a 20 20 00 e6

----------------

Block 0, Base EDID:
  EDID Structure Version & Revision: 1.4
  Vendor & Product Identification:
    Manufacturer: YLT
    Model: 16640
    Made in: week 48 of 2014
  Basic Display Parameters & Features:
    Digital display
    Bits per primary color channel: 8
    DisplayPort interface
    Maximum image size: 21 cm x 13 cm
    Gamma: 2.20
    DPMS levels: Standby Suspend Off
    Supported color formats: RGB 4:4:4, YCrCb 4:4:4
    First detailed timing includes the native pixel format and preferred refresh rate
  Color Characteristics:
    Red  : 0.6064, 0.3330
    Green: 0.2656, 0.5585
    Blue : 0.1406, 0.1611
    White: 0.3154, 0.3291
  Established Timings I & II: none
  Standard Timings: none
  Detailed Timing Descriptors:
    DTD 1:  1920x1200   59.999299 Hz   8:5     76.679 kHz    164.400000 MHz (216 mm x 135 mm)
                 Hfront   80 Hsync  32 Hback  112 Hpol P
                 Vfront   24 Vsync   6 Vback   48 Vpol P
    DTD 2:  1920x1200   47.999439 Hz   8:5     61.343 kHz    131.520000 MHz (216 mm x 135 mm)
                 Hfront   80 Hsync  32 Hback  112 Hpol P
                 Vfront   24 Vsync   6 Vback   48 Vpol P
    Alphanumeric Data String: 'LB101F014A00'
    Alphanumeric Data String: 'PAX1041-02'
Checksum: 0xe6

----------------

Failures:

Block 0, Base EDID:
  Missing Display Product Name.

EDID conformity: FAIL
