edid-decode (hex):

00 ff ff ff ff ff ff 00 30 ae eb 63 01 01 01 01
08 22 01 03 80 30 1b 78 2a 9e f5 a9 55 4e 9f 24
0b 50 54 ad eb 00 d1 c0 81 80 95 00 a9 c0 b3 00
71 4f 01 01 01 01 02 3a 80 18 71 38 2d 40 58 2c
45 00 dc 0b 11 00 00 1e 00 00 00 fd 00 30 4b 1e
5a 12 00 0a 20 20 20 20 20 20 00 00 00 fc 00 45
32 32 2d 33 30 0a 20 20 20 20 20 20 00 00 00 ff
00 56 4e 41 41 36 38 54 47 0a 20 20 20 20 01 fe

02 03 21 f1 4b 90 1f 01 02 03 04 11 12 13 05 14
23 09 07 07 83 01 00 00 e2 00 ea 65 03 0c 00 10
00 01 1d 00 bc 52 d0 1e 20 b8 28 55 40 dc 0b 11
00 00 1e 8c 0a d0 90 20 40 31 20 0c 40 55 00 dc
0b 11 00 00 18 15 3b 40 20 62 84 2a 30 68 a8 35
00 dc 0b 11 00 00 1a 20 1c 56 86 50 00 20 30 0e
38 13 00 dc 0b 11 00 00 1a 2a 44 80 a0 70 38 27
40 08 20 98 04 dc 0b 11 00 00 1c 00 00 00 00 8c

00 ff ff ff ff ff ff 00 30 ae eb 63 01 01 01 01
08 22 01 03 80 30 1b 78 2a 9e f5 a9 55 4e 9f 24
0b 50 54 ad eb 00 d1 c0 81 80 95 00 a9 c0 b3 00
71 4f 01 01 01 01 02 3a 80 18 71 38 2d 40 58 2c
45 00 dc 0b 11 00 00 1e 00 00 00 fd 00 30 4b 1e
5a 12 00 0a 20 20 20 20 20 20 00 00 00 fc 00 45
32 32 2d 33 30 0a 20 20 20 20 20 20 00 00 00 ff
00 56 4e 41 41 36 38 54 47 0a 20 20 20 20 01 fe

02 03 21 f1 4b 90 1f 01 02 03 04 11 12 13 05 14
23 09 07 07 83 01 00 00 e2 00 ea 65 03 0c 00 10
00 01 1d 00 bc 52 d0 1e 20 b8 28 55 40 dc 0b 11
00 00 1e 8c 0a d0 90 20 40 31 20 0c 40 55 00 dc
0b 11 00 00 18 15 3b 40 20 62 84 2a 30 68 a8 35
00 dc 0b 11 00 00 1a 20 1c 56 86 50 00 20 30 0e
38 13 00 dc 0b 11 00 00 1a 2a 44 80 a0 70 38 27
40 08 20 98 04 dc 0b 11 00 00 1c 00 00 00 00 8c

----------------

Block 0, Base EDID:
  EDID Structure Version & Revision: 1.3
  Vendor & Product Identification:
    Manufacturer: LEN
    Model: 25579
    Serial Number: ...
    Made in: week 8 of 2024
  Basic Display Parameters & Features:
    Digital display
    Maximum image size: 48 cm x 27 cm
    Gamma: 2.20
    DPMS levels: Off
    RGB color display
    First detailed timing is the preferred timing
  Color Characteristics:
    Red  : 0.6621, 0.3330
    Green: 0.3076, 0.6230
    Blue : 0.1435, 0.0458
    White: 0.3134, 0.3291
  Established Timings I & II:
    IBM     :   720x400    70.081663 Hz   9:5     31.467 kHz     28.320000 MHz
    DMT 0x04:   640x480    59.940476 Hz   4:3     31.469 kHz     25.175000 MHz
    DMT 0x05:   640x480    72.808802 Hz   4:3     37.861 kHz     31.500000 MHz
    DMT 0x06:   640x480    75.000000 Hz   4:3     37.500 kHz     31.500000 MHz
    DMT 0x09:   800x600    60.316541 Hz   4:3     37.879 kHz     40.000000 MHz
    DMT 0x0a:   800x600    72.187572 Hz   4:3     48.077 kHz     50.000000 MHz
    DMT 0x0b:   800x600    75.000000 Hz   4:3     46.875 kHz     49.500000 MHz
    Apple   :   832x624    74.551266 Hz   4:3     49.726 kHz     57.284000 MHz
    DMT 0x10:  1024x768    60.003840 Hz   4:3     48.363 kHz     65.000000 MHz
    DMT 0x12:  1024x768    75.028582 Hz   4:3     60.023 kHz     78.750000 MHz
    DMT 0x24:  1280x1024   75.024675 Hz   5:4     79.976 kHz    135.000000 MHz
  Standard Timings:
    DMT 0x52:  1920x1080   60.000000 Hz  16:9     67.500 kHz    148.500000 MHz
    DMT 0x23:  1280x1024   60.019740 Hz   5:4     63.981 kHz    108.000000 MHz
    DMT 0x2f:  1440x900    59.887445 Hz  16:10    55.935 kHz    106.500000 MHz
    DMT 0x53:  1600x900    60.000000 Hz  16:9     60.000 kHz    108.000000 MHz (RB)
    DMT 0x3a:  1680x1050   59.954250 Hz  16:10    65.290 kHz    146.250000 MHz
    DMT 0x15:  1152x864    75.000000 Hz   4:3     67.500 kHz    108.000000 MHz
  Detailed Timing Descriptors:
    DTD  1:  1920x1080   60.000000 Hz  16:9     67.500 kHz    148.500000 MHz (476 mm x 267 mm)
                  Hfront   88 Hsync  44 Hback  148 Hpol P
                  Vfront    4 Vsync   5 Vback   36 Vpol P
    Display Range Limits:
      Monitor ranges (GTF): 48-75 Hz V, 30-90 kHz H, max dotclock 180 MHz
    Display Product Name: 'E22-30'
    Display Product Serial Number: ...
  Extension blocks: 1
Checksum: 0xfe

----------------

Block 1, CTA-861 Extension Block:
  Revision: 3
  Underscans IT Video Formats by default
  Basic audio support
  Supports YCbCr 4:4:4
  Supports YCbCr 4:2:2
  Native detailed modes: 1
  Video Data Block:
    VIC  16:  1920x1080   60.000000 Hz  16:9     67.500 kHz    148.500000 MHz (native)
    VIC  31:  1920x1080   50.000000 Hz  16:9     56.250 kHz    148.500000 MHz
    VIC   1:   640x480    59.940476 Hz   4:3     31.469 kHz     25.175000 MHz
    VIC   2:   720x480    59.940060 Hz   4:3     31.469 kHz     27.000000 MHz
    VIC   3:   720x480    59.940060 Hz  16:9     31.469 kHz     27.000000 MHz
    VIC   4:  1280x720    60.000000 Hz  16:9     45.000 kHz     74.250000 MHz
    VIC  17:   720x576    50.000000 Hz   4:3     31.250 kHz     27.000000 MHz
    VIC  18:   720x576    50.000000 Hz  16:9     31.250 kHz     27.000000 MHz
    VIC  19:  1280x720    50.000000 Hz  16:9     37.500 kHz     74.250000 MHz
    VIC   5:  1920x1080i  60.000000 Hz  16:9     33.750 kHz     74.250000 MHz
    VIC  20:  1920x1080i  50.000000 Hz  16:9     28.125 kHz     74.250000 MHz
  Audio Data Block:
    Linear PCM:
      Max channels: 2
      Supported sample rates (kHz): 48 44.1 32
      Supported sample sizes (bits): 24 20 16
  Speaker Allocation Data Block:
    FL/FR - Front Left/Right
  Video Capability Data Block:
    YCbCr quantization: Selectable (via AVI YQ)
    RGB quantization: Selectable (via AVI Q)
    PT scan behavior: Always Underscanned
    IT scan behavior: Always Underscanned
    CE scan behavior: Always Underscanned
  Vendor-Specific Data Block (HDMI), OUI 00-0C-03:
    Source physical address: 1.0.0.0
  Detailed Timing Descriptors:
    DTD  2:  1280x720    50.000000 Hz  16:9     37.500 kHz     74.250000 MHz (476 mm x 267 mm)
                  Hfront  440 Hsync  40 Hback  220 Hpol P
                  Vfront    5 Vsync   5 Vback   20 Vpol P
    DTD  3:   720x576    50.000000 Hz   5:4     31.250 kHz     27.000000 MHz (476 mm x 267 mm)
                  Hfront   12 Hsync  64 Hback   68 Hpol N
                  Vfront    5 Vsync   5 Vback   39 Vpol N
    DTD  4:  1600x900    74.889288 Hz  16:9     70.546 kHz    151.250000 MHz (476 mm x 267 mm)
                  Hfront  104 Hsync 168 Hback  272 Hpol P
                  Vfront    3 Vsync   5 Vback   34 Vpol N
    DTD  5:  1366x768    60.000000 Hz 683:384   48.000 kHz     72.000000 MHz (476 mm x 267 mm)
                  Hfront   14 Hsync  56 Hback   64 Hpol P
                  Vfront    1 Vsync   3 Vback   28 Vpol N
    DTD  6:  1920x1080   74.972503 Hz  16:9     83.894 kHz    174.500000 MHz (476 mm x 267 mm)
                  Hfront    8 Hsync  32 Hback  120 Hpol N
                  Vfront   25 Vsync   8 Vback    6 Vpol P
Checksum: 0x8c  Unused space in Extension Block: 4 bytes

----------------

Block 2, Unknown EDID Extension Block 0x00:
  00 ff ff ff ff ff ff 00 30 ae eb 63 01 01 01 01 '........0..c....'
  08 22 01 03 80 30 1b 78 2a 9e f5 a9 55 4e 9f 24 '."...0.x*...UN.$'
  0b 50 54 ad eb 00 d1 c0 81 80 95 00 a9 c0 b3 00 '.PT.............'
  71 4f 01 01 01 01 02 3a 80 18 71 38 2d 40 58 2c 'qO.....:..q8-@X,'
  45 00 dc 0b 11 00 00 1e 00 00 00 fd 00 30 4b 1e 'E............0K.'
  5a 12 00 0a 20 20 20 20 20 20 00 00 00 fc 00 45 'Z...      .....E'
  32 32 2d 33 30 0a 20 20 20 20 20 20 00 00 00 ff '22-30.      ....'
  00 56 4e 41 41 36 38 54 47 0a 20 20 20 20 01 fe '.VNAA68TG.    ..'
Checksum: 0xfe

----------------

Block 3, CTA-861 Extension Block:
  Revision: 3
  Underscans IT Video Formats by default
  Basic audio support
  Supports YCbCr 4:4:4
  Supports YCbCr 4:2:2
  Native detailed modes: 1
  Video Data Block:
    VIC  16:  1920x1080   60.000000 Hz  16:9     67.500 kHz    148.500000 MHz (native)
    VIC  31:  1920x1080   50.000000 Hz  16:9     56.250 kHz    148.500000 MHz
    VIC   1:   640x480    59.940476 Hz   4:3     31.469 kHz     25.175000 MHz
    VIC   2:   720x480    59.940060 Hz   4:3     31.469 kHz     27.000000 MHz
    VIC   3:   720x480    59.940060 Hz  16:9     31.469 kHz     27.000000 MHz
    VIC   4:  1280x720    60.000000 Hz  16:9     45.000 kHz     74.250000 MHz
    VIC  17:   720x576    50.000000 Hz   4:3     31.250 kHz     27.000000 MHz
    VIC  18:   720x576    50.000000 Hz  16:9     31.250 kHz     27.000000 MHz
    VIC  19:  1280x720    50.000000 Hz  16:9     37.500 kHz     74.250000 MHz
    VIC   5:  1920x1080i  60.000000 Hz  16:9     33.750 kHz     74.250000 MHz
    VIC  20:  1920x1080i  50.000000 Hz  16:9     28.125 kHz     74.250000 MHz
  Audio Data Block:
    Linear PCM:
      Max channels: 2
      Supported sample rates (kHz): 48 44.1 32
      Supported sample sizes (bits): 24 20 16
  Speaker Allocation Data Block:
    FL/FR - Front Left/Right
  Video Capability Data Block:
    YCbCr quantization: Selectable (via AVI YQ)
    RGB quantization: Selectable (via AVI Q)
    PT scan behavior: Always Underscanned
    IT scan behavior: Always Underscanned
    CE scan behavior: Always Underscanned
  Vendor-Specific Data Block (HDMI), OUI 00-0C-03:
    Source physical address: 1.0.0.0
  Detailed Timing Descriptors:
    DTD  7:  1280x720    50.000000 Hz  16:9     37.500 kHz     74.250000 MHz (476 mm x 267 mm)
                  Hfront  440 Hsync  40 Hback  220 Hpol P
                  Vfront    5 Vsync   5 Vback   20 Vpol P
    DTD  8:   720x576    50.000000 Hz   5:4     31.250 kHz     27.000000 MHz (476 mm x 267 mm)
                  Hfront   12 Hsync  64 Hback   68 Hpol N
                  Vfront    5 Vsync   5 Vback   39 Vpol N
    DTD  9:  1600x900    74.889288 Hz  16:9     70.546 kHz    151.250000 MHz (476 mm x 267 mm)
                  Hfront  104 Hsync 168 Hback  272 Hpol P
                  Vfront    3 Vsync   5 Vback   34 Vpol N
    DTD 10:  1366x768    60.000000 Hz 683:384   48.000 kHz     72.000000 MHz (476 mm x 267 mm)
                  Hfront   14 Hsync  56 Hback   64 Hpol P
                  Vfront    1 Vsync   3 Vback   28 Vpol N
    DTD 11:  1920x1080   74.972503 Hz  16:9     83.894 kHz    174.500000 MHz (476 mm x 267 mm)
                  Hfront    8 Hsync  32 Hback  120 Hpol N
                  Vfront   25 Vsync   8 Vback    6 Vpol P
Checksum: 0x8c  Unused space in Extension Block: 4 bytes

----------------

Warnings:

Block 1, CTA-861 Extension Block:
  Video Capability Data Block: S_PT is equal to S_IT and S_CE, so should be set to 0 instead.
  Detailed Timing Descriptor #5: DTD is similar but not identical to DMT 0x56.
  Display Product Serial Number is set, so the Serial Number in the Base EDID should be 0.
  Add a Colorimetry Data Block with the sRGB colorimetry bit set to avoid interop issues.
Block 3, CTA-861 Extension Block:
  Video Capability Data Block: S_PT is equal to S_IT and S_CE, so should be set to 0 instead.
  Detailed Timing Descriptor #10: DTD is similar but not identical to DMT 0x56.
  Display Product Serial Number is set, so the Serial Number in the Base EDID should be 0.
  Add a Colorimetry Data Block with the sRGB colorimetry bit set to avoid interop issues.
EDID:
  CTA-861: Multiple native progressive timings are defined.

Failures:

Block 2, Base EDID:
  Unknown Extension Block.
Block 3, CTA-861 Extension Block:
  Video Data Block: Duplicate VIC 16.
  Video Data Block: Duplicate VIC 31.
  Video Data Block: Duplicate VIC 1.
  Video Data Block: Duplicate VIC 2.
  Video Data Block: Duplicate VIC 3.
  Video Data Block: Duplicate VIC 4.
  Video Data Block: Duplicate VIC 17.
  Video Data Block: Duplicate VIC 18.
  Video Data Block: Duplicate VIC 19.
  Video Data Block: Duplicate VIC 5.
  Video Data Block: Duplicate VIC 20.
  Speaker Allocation Data Block: Only one instance of this Data Block is allowed.
  Video Capability Data Block: Only one instance of this Data Block is allowed.
EDID:
  Base EDID: Some timings are out of range of the Monitor Ranges:
    Horizontal Freq: 28.125 - 83.894 kHz (Monitor: 30.000 - 90.000 kHz)
  Base EDID: EDID specified 1 extension block(s), but found 3 extension block(s).
  Base EDID: EDID 1.3 requires a Block Map Extension in Block 1 if there are more than 2 blocks in the EDID.

EDID conformity: FAIL
