
EDID (hex):
00ffffffffffff0030aeb14000000000
0014010380221378eac8959e57549226
0f505400000001010101010101010101
0101010101019f25407e60841e303020
250058c2100000197f1f408660841e30
3020250058c2100000190000000f00a9
0932a909281609004ca34b54000000fe
004c544e3135364b5430323430310095

Extracted contents:
header:          00 ff ff ff ff ff ff 00
serial number:   30 ae b1 40 00 00 00 00 00 14
version:         01 03
basic params:    80 22 13 78 ea
chroma info:     c8 95 9e 57 54 92 26 0f 50 54
established:     00 00 00
standard:        01 01 01 01 01 01 01 01 01 01 01 01 01 01 01 01
descriptor 1:    9f 25 40 7e 60 84 1e 30 30 20 25 00 58 c2 10 00 00 19
descriptor 2:    7f 1f 40 86 60 84 1e 30 30 20 25 00 58 c2 10 00 00 19
descriptor 3:    00 00 00 0f 00 a9 09 32 a9 09 28 16 09 00 4c a3 4b 54
descriptor 4:    00 00 00 fe 00 4c 54 4e 31 35 36 4b 54 30 32 34 30 31
extensions:      00
checksum:        95

EDID version: 1.3
Manufacturer: LEN Model 40b1 Serial Number --
Made in year 2010
Digital display
Maximum image size: 34 cm x 19 cm
Gamma: 2.20
DPMS levels: Standby Suspend Off
RGB color display
First detailed timing is preferred timing
Display x,y Chromaticity:
  Red:   0.6201, 0.3398
  Green: 0.3300, 0.5703
  Blue:  0.1503, 0.0595
  White: 0.3134, 0.3291
Established timings supported:
Standard timings supported:
Detailed mode: Clock 96.310 MHz, 344 mm x 194 mm
               1600 1648 1680 1726 hborder 0
                900  902  907  930 vborder 0
               -hsync -vsync 
               VertFreq: 59 Hz, HorFreq: 55799 Hz
Detailed mode: Clock 80.630 MHz, 344 mm x 194 mm
               1600 1648 1680 1734 hborder 0
                900  902  907  930 vborder 0
               -hsync -vsync 
               VertFreq: 49 Hz, HorFreq: 46499 Hz
Manufacturer-specified data, tag 15
ASCII string: LTN156KT02401
Checksum: 0x95 (valid)
EDID block does NOT conform to EDID 1.3!
	Missing name descriptor
	Missing monitor ranges
