
EDID (hex):
00ffffffffffff0009e5300a00000000
0f1f0104a5221678075990a6554c9d24
10525800000001010101010101010101
010101010101333f80dc70b03c403020
360059d71000001a000000fd00283c4c
4c10010a202020202020000000fe0042
4f452043510a202020202020000000fe
004e4531363057554d2d4e36320a0115
02030d00681a00000101283c00000000
00000000000000000000000000000000
00000000000000000000000000000000
00000000000000000000000000000000
00000000000000000000000000000000
00000000000000000000000000000000
00000000000000000000000000000000
00000000000000000000000000000006

Extracted contents:
header:          00 ff ff ff ff ff ff 00
serial number:   09 e5 30 0a 00 00 00 00 0f 1f
version:         01 04
basic params:    a5 22 16 78 07
chroma info:     59 90 a6 55 4c 9d 24 10 52 58
established:     00 00 00
standard:        01 01 01 01 01 01 01 01 01 01 01 01 01 01 01 01
descriptor 1:    33 3f 80 dc 70 b0 3c 40 30 20 36 00 59 d7 10 00 00 1a
descriptor 2:    00 00 00 fd 00 28 3c 4c 4c 10 01 0a 20 20 20 20 20 20
descriptor 3:    00 00 00 fe 00 42 4f 45 20 43 51 0a 20 20 20 20 20 20
descriptor 4:    00 00 00 fe 00 4e 45 31 36 30 57 55 4d 2d 4e 36 32 0a
extensions:      01
checksum:        15

EDID version: 1.4
Manufacturer: BOE Model a30 Serial Number --
Made in week 15 of 2021
Digital display
8 bits per primary color channel
DisplayPort interface
Maximum image size: 34 cm x 22 cm
Gamma: 2.20
Supported color formats: RGB 4:4:4
Default (sRGB) color space is primary color space
First detailed timing includes the native pixel format and preferred refresh rate
Display is continuous frequency
Display x,y Chromaticity:
  Red:   0.6494, 0.3330
  Green: 0.2988, 0.6142
  Blue:  0.1425, 0.0634
  White: 0.3203, 0.3437
Established timings supported:
Standard timings supported:
Detailed mode: Clock 161.790 MHz, 345 mm x 215 mm
               1920 1968 2000 2140 hborder 0
               1200 1203 1209 1260 vborder 0
               +hsync -vsync 
               VertFreq: 60 Hz, HorFreq: 75602 Hz
Monitor ranges (bare limits): 40-60Hz V, 76-76kHz H, max dotclock 160MHz
ASCII string: BOE CQ
ASCII string: NE160WUM-N62
Has 1 extension blocks
Checksum: 0x15 (valid)

CTA extension block
Extension version: 3
9 bytes of CTA data
  Vendor-specific data block, OUI 00001a
0 native detailed modes
Checksum: 0x6 (valid)

EDID block does NOT conform to EDID 1.4!
	sRGB is signaled, but the chromaticities do not match
	Required 640x480p60 timings are missing in the established timings
	and/or in the SVD list (VIC 1)
	Missing name descriptor
Warning: One or more of the timings is out of range of the Monitor Ranges:
  Vertical Freq: 60 - 60 Hz
  Horizontal Freq: 75602 - 75602 Hz
  Maximum Clock: 161.790 MHz
