
EDID (hex):
00ffffffffffff0006af9d4000000000
101c0104a5261678029675a356529c27
0c505400000001010101010101010101
010101010101ce8f80b6703888403020
a5007ed710000018ce8f80b670382e47
3020a5007ed710000018000000fe0041
554f0a202020202020202020000000fe
004231373348414e30342e30200a00cd

Extracted contents:
header:          00 ff ff ff ff ff ff 00
serial number:   06 af 9d 40 00 00 00 00 10 1c
version:         01 04
basic params:    a5 26 16 78 02
chroma info:     96 75 a3 56 52 9c 27 0c 50 54
established:     00 00 00
standard:        01 01 01 01 01 01 01 01 01 01 01 01 01 01 01 01
descriptor 1:    ce 8f 80 b6 70 38 88 40 30 20 a5 00 7e d7 10 00 00 18
descriptor 2:    ce 8f 80 b6 70 38 2e 47 30 20 a5 00 7e d7 10 00 00 18
descriptor 3:    00 00 00 fe 00 41 55 4f 0a 20 20 20 20 20 20 20 20 20
descriptor 4:    00 00 00 fe 00 42 31 37 33 48 41 4e 30 34 2e 30 20 0a
extensions:      00
checksum:        cd

EDID version: 1.4
Manufacturer: AUO Model 409d Serial Number --
Made in week 16 of 2018
Digital display
8 bits per primary color channel
DisplayPort interface
Maximum image size: 38 cm x 22 cm
Gamma: 2.20
Supported color formats: RGB 4:4:4
First detailed timing includes the native pixel format and preferred refresh rate
Display x,y Chromaticity:
  Red:   0.6386, 0.3369
  Green: 0.3212, 0.6113
  Blue:  0.1533, 0.0498
  White: 0.3134, 0.3291
Established timings supported:
Standard timings supported:
Detailed mode: Clock 368.140 MHz, 382 mm x 215 mm
               1920 1968 2000 2102 hborder 0
               1080 1090 1095 1216 vborder 0
               -hsync -vsync 
               VertFreq: 144 Hz, HorFreq: 175137 Hz
Detailed mode: Clock 368.140 MHz, 382 mm x 215 mm
               1920 1968 2000 2102 hborder 0
               1080 1090 1095 2918 vborder 0
               -hsync -vsync 
               VertFreq: 60 Hz, HorFreq: 175137 Hz
ASCII string: AUO
ASCII string: B173HAN04.0 
Checksum: 0xcd (valid)
EDID block does NOT conform to EDID 1.4!
	Missing name descriptor
	Missing monitor ranges


