
EDID (hex):
00ffffffffffff0006afed4500000000
021b0104a52213780232a5a555529d26
0b505400000001010101010101010101
010101010101987180c870383e406c30
aa0058c110000018987180c87038b444
6c30aa0058c110000018000000fe0041
554f0a202020202020202020000000fe
004231353648414e30342e35200a00dd

Extracted contents:
header:          00 ff ff ff ff ff ff 00
serial number:   06 af ed 45 00 00 00 00 02 1b
version:         01 04
basic params:    a5 22 13 78 02
chroma info:     32 a5 a5 55 52 9d 26 0b 50 54
established:     00 00 00
standard:        01 01 01 01 01 01 01 01 01 01 01 01 01 01 01 01
descriptor 1:    98 71 80 c8 70 38 3e 40 6c 30 aa 00 58 c1 10 00 00 18
descriptor 2:    98 71 80 c8 70 38 b4 44 6c 30 aa 00 58 c1 10 00 00 18
descriptor 3:    00 00 00 fe 00 41 55 4f 0a 20 20 20 20 20 20 20 20 20
descriptor 4:    00 00 00 fe 00 42 31 35 36 48 41 4e 30 34 2e 35 20 0a
extensions:      00
checksum:        dd

EDID version: 1.4
Manufacturer: AUO Model 45ed Serial Number --
Made in week 2 of 2017
Digital display
8 bits per primary color channel
DisplayPort interface
Maximum image size: 34 cm x 19 cm
Gamma: 2.20
Supported color formats: RGB 4:4:4
First detailed timing includes the native pixel format and preferred refresh rate
Display x,y Chromaticity:
  Red:   0.6445, 0.3349
  Green: 0.3203, 0.6152
  Blue:  0.1503, 0.0449
  White: 0.3134, 0.3291
Established timings supported:
Standard timings supported:
Detailed mode: Clock 290.800 MHz, 344 mm x 193 mm
               1920 2028 2076 2120 hborder 0
               1080 1090 1100 1142 vborder 0
               -hsync -vsync 
               VertFreq: 120 Hz, HorFreq: 137169 Hz
Detailed mode: Clock 290.800 MHz, 344 mm x 193 mm
               1920 2028 2076 2120 hborder 0
               1080 1090 1100 2284 vborder 0
               -hsync -vsync 
               VertFreq: 60 Hz, HorFreq: 137169 Hz
ASCII string: AUO
ASCII string: B156HAN04.5 
Checksum: 0xdd (valid)
EDID block does NOT conform to EDID 1.4!
	Missing name descriptor
	Missing monitor ranges
