
EDID (hex):
00ffffffffffff0006af3e2300000000
00160104951f1178022a259756539728
20505400000001010101010101010101
010101010101602c407461843c30402a
330035ae10000018951d407461843c30
402a330035ae10000018000000000000
00000000000000000000000000000002
000c3dff0c3c7d1b0d1c7d20202000ac

Extracted contents:
header:          00 ff ff ff ff ff ff 00
serial number:   06 af 3e 23 00 00 00 00 00 16
version:         01 04
basic params:    95 1f 11 78 02
chroma info:     2a 25 97 56 53 97 28 20 50 54
established:     00 00 00
standard:        01 01 01 01 01 01 01 01 01 01 01 01 01 01 01 01
descriptor 1:    60 2c 40 74 61 84 3c 30 40 2a 33 00 35 ae 10 00 00 18
descriptor 2:    95 1d 40 74 61 84 3c 30 40 2a 33 00 35 ae 10 00 00 18
descriptor 3:    00 00 00 00 00 00 00 00 00 00 00 00 00 00 00 00 00 00
descriptor 4:    00 00 00 02 00 0c 3d ff 0c 3c 7d 1b 0d 1c 7d 20 20 20
extensions:      00
checksum:        ac

EDID version: 1.4
Manufacturer: AUO Model 233e Serial Number --
Made in year 2012
Digital display
6 bits per primary color channel
DisplayPort interface
Maximum image size: 31 cm x 17 cm
Gamma: 2.20
Supported color formats: RGB 4:4:4
First detailed timing includes the native pixel format and preferred refresh rate
Display x,y Chromaticity:
  Red:   0.5898, 0.3378
  Green: 0.3261, 0.5917
  Blue:  0.1562, 0.1269
  White: 0.3134, 0.3291
Established timings supported:
Standard timings supported:
Detailed mode: Clock 113.600 MHz, 309 mm x 174 mm
               1600 1664 1706 1972 hborder 0
                900  903  906  960 vborder 0
               -hsync -vsync 
               VertFreq: 60 Hz, HorFreq: 57606 Hz
Detailed mode: Clock 75.730 MHz, 309 mm x 174 mm
               1600 1664 1706 1972 hborder 0
                900  903  906  960 vborder 0
               -hsync -vsync 
               VertFreq: 40 Hz, HorFreq: 38402 Hz
Manufacturer-specified data, tag 0
Manufacturer-specified data, tag 2
Checksum: 0xac (valid)
EDID block does NOT conform to EDID 1.4!
	Missing name descriptor
	Missing monitor ranges
