
EDID (hex):
00ffffffffffff0038c3e03800000000
000d010380261f6bea0d99a057479126
234f54bfef00314a454a614c8180818a
010101010101302a009851002a403070
1300692011000000000000fd00384b1e
500e000a202020202020000000fe000a
202020202020202020202020000000fc
003139314d0a202020202020202000ba

Extracted contents:
header:          00 ff ff ff ff ff ff 00
serial number:   38 c3 e0 38 00 00 00 00 00 0d
version:         01 03
basic params:    80 26 1f 6b ea
chroma info:     0d 99 a0 57 47 91 26 23 4f 54
established:     bf ef 00
standard:        31 4a 45 4a 61 4c 81 80 81 8a 01 01 01 01 01 01
descriptor 1:    30 2a 00 98 51 00 2a 40 30 70 13 00 69 20 11 00 00 00
descriptor 2:    00 00 00 fd 00 38 4b 1e 50 0e 00 0a 20 20 20 20 20 20
descriptor 3:    00 00 00 fe 00 0a 20 20 20 20 20 20 20 20 20 20 20 20
descriptor 4:    00 00 00 fc 00 31 39 31 4d 0a 20 20 20 20 20 20 20 20
extensions:      00
checksum:        ba

EDID version: 1.3
Manufacturer: NFC Model 38e0 Serial Number --
Digital display
Maximum image size: 38 cm x 31 cm
Gamma: 2.07
DPMS levels: Standby Suspend Off
RGB color display
First detailed timing is preferred timing
Display x,y Chromaticity:
  Red:   0.6250, 0.3398
  Green: 0.2802, 0.5673
  Blue:  0.1503, 0.1376
  White: 0.3105, 0.3291
Established timings supported:
  720x400@70Hz 9:5 HorFreq: 31469 Hz Clock: 28.320 MHz
  640x480@60Hz 4:3 HorFreq: 31469 Hz Clock: 25.175 MHz
  640x480@67Hz 4:3 HorFreq: 35000 Hz Clock: 30.240 MHz
  640x480@72Hz 4:3 HorFreq: 37900 Hz Clock: 31.500 MHz
  640x480@75Hz 4:3 HorFreq: 37500 Hz Clock: 31.500 MHz
  800x600@56Hz 4:3 HorFreq: 35200 Hz Clock: 36.000 MHz
  800x600@60Hz 4:3 HorFreq: 37900 Hz Clock: 40.000 MHz
  800x600@72Hz 4:3 HorFreq: 48100 Hz Clock: 50.000 MHz
  800x600@75Hz 4:3 HorFreq: 46900 Hz Clock: 49.500 MHz
  832x624@75Hz 4:3 HorFreq: 49726 Hz Clock: 57.284 MHz
  1024x768@60Hz 4:3 HorFreq: 48400 Hz Clock: 65.000 MHz
  1024x768@70Hz 4:3 HorFreq: 56500 Hz Clock: 75.000 MHz
  1024x768@75Hz 4:3 HorFreq: 60000 Hz Clock: 78.750 MHz
  1280x1024@75Hz 5:4 HorFreq: 80000 Hz Clock: 135.000 MHz
Standard timings supported:
  640x480@70Hz 4:3
  800x600@70Hz 4:3
  1024x768@72Hz 4:3
  1280x1024@60Hz 5:4 HorFreq: 64000 Hz Clock: 108.000 MHz
  1280x1024@70Hz 5:4
Detailed mode: Clock 108.000 MHz, 361 mm x 288 mm
               1280 1328 1440 1688 hborder 0
               1024 1025 1028 1066 vborder 0
               -hsync -vsync analog composite 
               VertFreq: 60 Hz, HorFreq: 63981 Hz
Monitor ranges (GTF): 56-75Hz V, 30-80kHz H, max dotclock 140MHz
ASCII string: 
Monitor name: 191M
Checksum: 0xba (valid)
EDID block does not conform at all!
	Bad year of manufacture


