
EDID (hex):
00ffffffffffff0030aedd6100000000
1f1e0104a51f12783aee95a3544c9926
0f5054bdcf84a94081008180818c9500
950fa94ab300023a801871382d40582c
450035ae1000001e000000fc004d3134
0a202020202020202020000000fd0032
4b1e5a14000a202020202020000000ff
0056393036434c36390affffffff011c
020316b14b9005040302011f12131411
65030c0010007c2e90a0601a1e403020
3600dc0b1100001cab22a0a050841a30
30203600dc0b1100001c662156aa5100
1e30468f3300dc0b1100001e00000000
00000000000000000000000000000000
00000000000000000000000000000000
00000000000000000000000000000008

Extracted contents:
header:          00 ff ff ff ff ff ff 00
serial number:   30 ae dd 61 00 00 00 00 1f 1e
version:         01 04
basic params:    a5 1f 12 78 3a
chroma info:     ee 95 a3 54 4c 99 26 0f 50 54
established:     bd cf 84
standard:        a9 40 81 00 81 80 81 8c 95 00 95 0f a9 4a b3 00
descriptor 1:    02 3a 80 18 71 38 2d 40 58 2c 45 00 35 ae 10 00 00 1e
descriptor 2:    00 00 00 fc 00 4d 31 34 0a 20 20 20 20 20 20 20 20 20
descriptor 3:    00 00 00 fd 00 32 4b 1e 5a 14 00 0a 20 20 20 20 20 20
descriptor 4:    00 00 00 ff 00 56 39 30 36 43 4c 36 39 0a ff ff ff ff
extensions:      01
checksum:        1c

EDID version: 1.4
Manufacturer: LEN Model 61dd Serial Number --
Made in week 31 of 2020
Digital display
8 bits per primary color channel
DisplayPort interface
Maximum image size: 31 cm x 18 cm
Gamma: 2.20
DPMS levels: Off
Supported color formats: RGB 4:4:4, YCrCb 4:4:4, YCrCb 4:2:2
First detailed timing includes the native pixel format and preferred refresh rate
Display x,y Chromaticity:
  Red:   0.6396, 0.3300
  Green: 0.2998, 0.5996
  Blue:  0.1503, 0.0595
  White: 0.3134, 0.3291
Established timings supported:
  720x400@70Hz 9:5 HorFreq: 31469 Hz Clock: 28.320 MHz
  640x480@60Hz 4:3 HorFreq: 31469 Hz Clock: 25.175 MHz
  640x480@67Hz 4:3 HorFreq: 35000 Hz Clock: 30.240 MHz
  640x480@72Hz 4:3 HorFreq: 37900 Hz Clock: 31.500 MHz
  640x480@75Hz 4:3 HorFreq: 37500 Hz Clock: 31.500 MHz
  800x600@60Hz 4:3 HorFreq: 37900 Hz Clock: 40.000 MHz
  800x600@72Hz 4:3 HorFreq: 48100 Hz Clock: 50.000 MHz
  800x600@75Hz 4:3 HorFreq: 46900 Hz Clock: 49.500 MHz
  1024x768@60Hz 4:3 HorFreq: 48400 Hz Clock: 65.000 MHz
  1024x768@70Hz 4:3 HorFreq: 56500 Hz Clock: 75.000 MHz
  1024x768@75Hz 4:3 HorFreq: 60000 Hz Clock: 78.750 MHz
  1280x1024@75Hz 5:4 HorFreq: 80000 Hz Clock: 135.000 MHz
  1152x870@75Hz 192:145 HorFreq: 67500 Hz Clock: 108.000 MHz
Standard timings supported:
  1600x1200@60Hz 4:3 HorFreq: 75000 Hz Clock: 162.000 MHz
  1280x800@60Hz 16:10
  1280x1024@60Hz 5:4 HorFreq: 64000 Hz Clock: 108.000 MHz
  1280x1024@72Hz 5:4
  1440x900@60Hz 16:10 HorFreq: 55500 Hz Clock: 88.750 MHz
  1440x900@75Hz 16:10 HorFreq: 82300 Hz Clock: 156.000 MHz
  1600x1200@70Hz 4:3 HorFreq: 87500 Hz Clock: 189.000 MHz
  1680x1050@60Hz 16:10 HorFreq: 64700 Hz Clock: 119.000 MHz
Detailed mode: Clock 148.500 MHz, 309 mm x 174 mm
               1920 2008 2052 2200 hborder 0
               1080 1084 1089 1125 vborder 0
               +hsync +vsync 
               VertFreq: 60 Hz, HorFreq: 67500 Hz
Monitor name: M14
Monitor ranges (GTF): 50-75Hz V, 30-90kHz H, max dotclock 200MHz
Serial number: --
Has 1 extension blocks
Checksum: 0x1c (valid)

CTA extension block
Extension version: 3
18 bytes of CTA data
  Video data block
    VIC  16 1920x1080@60Hz 16:9 (native) HorFreq: 67500 Hz Clock: 148.500 MHz
    VIC   5 1920x1080i@60Hz 16:9  HorFreq: 33750 Hz Clock: 74.250 MHz
    VIC   4 1280x720@60Hz 16:9  HorFreq: 45000 Hz Clock: 74.250 MHz
    VIC   3 720x480@60Hz 16:9  HorFreq: 31469 Hz Clock: 27.000 MHz
    VIC   2 720x480@60Hz 4:3  HorFreq: 31469 Hz Clock: 27.000 MHz
    VIC   1 640x480@60Hz 4:3  HorFreq: 31469 Hz Clock: 25.175 MHz
    VIC  31 1920x1080@50Hz 16:9  HorFreq: 56250 Hz Clock: 148.500 MHz
    VIC  18 720x576@50Hz 16:9  HorFreq: 31250 Hz Clock: 27.000 MHz
    VIC  19 1280x720@50Hz 16:9  HorFreq: 37500 Hz Clock: 74.250 MHz
    VIC  20 1920x1080i@50Hz 16:9  HorFreq: 28125 Hz Clock: 74.250 MHz
    VIC  17 720x576@50Hz 4:3  HorFreq: 31250 Hz Clock: 27.000 MHz
  Vendor-specific data block, OUI 000c03 (HDMI)
    Source physical address 1.0.0.0
Underscans PC formats by default
Supports YCbCr 4:4:4
Supports YCbCr 4:2:2
1 native detailed modes
Detailed mode: Clock 119.000 MHz, 476 mm x 267 mm
               1680 1728 1760 1840 hborder 0
               1050 1053 1059 1080 vborder 0
               -hsync +vsync 
               VertFreq: 59 Hz, HorFreq: 64673 Hz
Detailed mode: Clock 88.750 MHz, 476 mm x 267 mm
               1440 1488 1520 1600 hborder 0
                900  903  909  926 vborder 0
               -hsync +vsync 
               VertFreq: 59 Hz, HorFreq: 55468 Hz
Detailed mode: Clock 85.500 MHz, 476 mm x 267 mm
               1366 1436 1579 1792 hborder 0
                768  771  774  798 vborder 0
               +hsync +vsync 
               VertFreq: 59 Hz, HorFreq: 47712 Hz
Checksum: 0x8 (valid)

EDID block does NOT conform to EDID 1.4!
	Detailed block string not properly terminated
Warning: One or more of the timings is out of range of the Monitor Ranges:
  Vertical Freq: 50 - 75 Hz
  Horizontal Freq: 28125 - 87500 Hz
  Maximum Clock: 189.000 MHz
