edid-decode (hex):

00 ff ff ff ff ff ff 00 09 e5 1d 0a 00 00 00 00
01 1f 01 04 a5 1e 13 78 03 e0 05 ac 52 42 b3 27
0e 50 54 00 00 00 01 01 01 01 01 01 01 01 01 01
01 01 01 01 01 01 c0 d8 00 a0 a0 40 64 60 30 20
35 00 2e bd 10 00 00 1a 60 6c 00 a0 a0 40 64 60
30 20 35 00 2e bc 10 00 00 1a 00 00 00 fd 00 30
78 cc cc 37 01 0a 20 20 20 20 20 20 00 00 00 fe
00 4e 45 31 34 30 51 44 4d 2d 4e 58 31 0a 00 46

----------------

Block 0, Base EDID:
  EDID Structure Version & Revision: 1.4
  Vendor & Product Identification:
    Manufacturer: BOE
    Model: 2589
    Made in: week 1 of 2021
  Basic Display Parameters & Features:
    Digital display
    Bits per primary color channel: 8
    DisplayPort interface
    Maximum image size: 30 cm x 19 cm
    Gamma: 2.20
    Supported color formats: RGB 4:4:4
    First detailed timing includes the native pixel format and preferred refresh rate
    Display is continuous frequency
  Color Characteristics:
    Red  : 0.6748, 0.3222
    Green: 0.2578, 0.6992
    Blue : 0.1523, 0.0546
    White: 0.3134, 0.3291
  Established Timings I & II: none
  Standard Timings: none
  Detailed Timing Descriptors:
    DTD 1:  2560x1600  120.000000 Hz  16:10   204.000 kHz    554.880000 MHz (302 mm x 189 mm)
                 Hfront   48 Hsync  32 Hback   80 Hpol P
                 Vfront    3 Vsync   5 Vback   92 Vpol N
    DTD 2:  2560x1600   60.000000 Hz  16:10   102.000 kHz    277.440000 MHz (302 mm x 188 mm)
                 Hfront   48 Hsync  32 Hback   80 Hpol P
                 Vfront    3 Vsync   5 Vback   92 Vpol N
    Display Range Limits:
      Monitor ranges (Bare Limits): 48-120 Hz V, 204-204 kHz H, max dotclock 550 MHz
    Alphanumeric Data String: 'NE140QDM-NX1'
Checksum: 0x46

----------------

Warnings:

Block 0, Base EDID:
  Missing Display Product Name.
EDID:
  Base EDID: Some timings are out of range of the Monitor Ranges:
    Horizontal Freq: 102.000 - 204.000 kHz (Monitor: 204.000 - 204.000 kHz)
    Maximum Clock: 554.880 MHz (Monitor: 550.000 MHz)

EDID conformity: PASS
