
EDID (hex):
00ffffffffffff0030e4510400000000
0018010495231378eaae95a357549e24
0c505400000001010101010101010101
0101010101012e3680a070381f403020
350059c21000001a5c2b80a070381f40
3020350059c21000001a000000fe0044
57594658803135365746350a00000000
000041319e011000000a010a20200075

Extracted contents:
header:          00 ff ff ff ff ff ff 00
serial number:   30 e4 51 04 00 00 00 00 00 18
version:         01 04
basic params:    95 23 13 78 ea
chroma info:     ae 95 a3 57 54 9e 24 0c 50 54
established:     00 00 00
standard:        01 01 01 01 01 01 01 01 01 01 01 01 01 01 01 01
descriptor 1:    2e 36 80 a0 70 38 1f 40 30 20 35 00 59 c2 10 00 00 1a
descriptor 2:    5c 2b 80 a0 70 38 1f 40 30 20 35 00 59 c2 10 00 00 1a
descriptor 3:    00 00 00 fe 00 44 57 59 46 58 80 31 35 36 57 46 35 0a
descriptor 4:    00 00 00 00 00 00 41 31 9e 01 10 00 00 0a 01 0a 20 20
extensions:      00
checksum:        75

EDID version: 1.4
Manufacturer: LGD Model 451 Serial Number --
Made in year 2014
Digital display
6 bits per primary color channel
DisplayPort interface
Maximum image size: 35 cm x 19 cm
Gamma: 2.20
DPMS levels: Standby Suspend Off
Supported color formats: RGB 4:4:4, YCrCb 4:4:4
First detailed timing includes the native pixel format and preferred refresh rate
Display x,y Chromaticity:
  Red:   0.6386, 0.3417
  Green: 0.3310, 0.6191
  Blue:  0.1425, 0.0478
  White: 0.3134, 0.3291
Established timings supported:
Standard timings supported:
Detailed mode: Clock 138.700 MHz, 345 mm x 194 mm
               1920 1968 2000 2080 hborder 0
               1080 1083 1088 1111 vborder 0
               +hsync -vsync 
               VertFreq: 60 Hz, HorFreq: 66682 Hz
Detailed mode: Clock 111.000 MHz, 345 mm x 194 mm
               1920 1968 2000 2080 hborder 0
               1080 1083 1088 1111 vborder 0
               +hsync -vsync 
               VertFreq: 48 Hz, HorFreq: 53365 Hz
ASCII string: DWYFX
Manufacturer-specified data, tag 0
Checksum: 0x75 (valid)
EDID block does NOT conform to EDID 1.4!
	Missing name descriptor
	Missing monitor ranges
	Detailed block string not properly terminated
