
EDID (hex):
00ffffffffffff0030e4000000000000
00130104952213780215d59e59509826
0e505400000001010101010101010101
010101010101ca35809270381f403020
350058c210000018222480a070381f40
3020350058c210000018000000fe0044
48303931803135365746310a00000000
000041311e0000000009010a202000d6

Extracted contents:
header:          00 ff ff ff ff ff ff 00
serial number:   30 e4 00 00 00 00 00 00 00 13
version:         01 04
basic params:    95 22 13 78 02
chroma info:     15 d5 9e 59 50 98 26 0e 50 54
established:     00 00 00
standard:        01 01 01 01 01 01 01 01 01 01 01 01 01 01 01 01
descriptor 1:    ca 35 80 92 70 38 1f 40 30 20 35 00 58 c2 10 00 00 18
descriptor 2:    22 24 80 a0 70 38 1f 40 30 20 35 00 58 c2 10 00 00 18
descriptor 3:    00 00 00 fe 00 44 48 30 39 31 80 31 35 36 57 46 31 0a
descriptor 4:    00 00 00 00 00 00 41 31 1e 00 00 00 00 09 01 0a 20 20
extensions:      00
checksum:        d6

EDID version: 1.4
Manufacturer: LGD Model 0 Serial Number --
Made in year 2009
Digital display
6 bits per primary color channel
DisplayPort interface
Maximum image size: 34 cm x 19 cm
Gamma: 2.20
Supported color formats: RGB 4:4:4
First detailed timing includes the native pixel format and preferred refresh rate
Display x,y Chromaticity:
  Red:   0.6171, 0.3486
  Green: 0.3134, 0.5947
  Blue:  0.1513, 0.0556
  White: 0.3134, 0.3291
Established timings supported:
Standard timings supported:
Detailed mode: Clock 137.700 MHz, 344 mm x 194 mm
               1920 1968 2000 2066 hborder 0
               1080 1083 1088 1111 vborder 0
               -hsync -vsync 
               VertFreq: 59 Hz, HorFreq: 66650 Hz
Detailed mode: Clock 92.500 MHz, 344 mm x 194 mm
               1920 1968 2000 2080 hborder 0
               1080 1083 1088 1111 vborder 0
               -hsync -vsync 
               VertFreq: 40 Hz, HorFreq: 44471 Hz
ASCII string: DH091
Manufacturer-specified data, tag 0
Checksum: 0xd6 (valid)
EDID block does NOT conform to EDID 1.4!
	Missing name descriptor
	Missing monitor ranges
	Detailed block string not properly terminated
