
EDID (hex):
00ffffffffffff0006b3ba2701010101
1d1f0104b53c22783b0b10b04c45a826
0a5054bfcf00714f81c081408180d1c0
d1fc9500b3004dd000a0f0703e803020
3500544f2100001a000000fd0c30904a
4a81010a202020202020000000fc0052
4f4720584732375551520a20000000ff
004d374c4d515330383839343020025e
020335f251010203111213040e0f1d1e
1f10403f6061e200d523090707830100
00e305c000e6060501707007681a0000
010b309000565e00a0a0a02950302035
00544f2100001a86bc0050a0a0555008
207800544f2100001e00000000000000
00000000000000000000000000000000
000000000000000000000000000000cf
70126700000301649b120104ff0e4f00
07001f006f08520044000700154c0104
ff0e3b0007801f006f08400002000400
7b5a0104ff0e4f0007001f006f086800
5a0007003a9b0104ff0e4f0007801f00
6f084d000200040047f80104ff0e4f00
07001f006f087e007000070052000000
00000000000000000000000000000090

Extracted contents:
header:          00 ff ff ff ff ff ff 00
serial number:   06 b3 ba 27 01 01 01 01 1d 1f
version:         01 04
basic params:    b5 3c 22 78 3b
chroma info:     0b 10 b0 4c 45 a8 26 0a 50 54
established:     bf cf 00
standard:        71 4f 81 c0 81 40 81 80 d1 c0 d1 fc 95 00 b3 00
descriptor 1:    4d d0 00 a0 f0 70 3e 80 30 20 35 00 54 4f 21 00 00 1a
descriptor 2:    00 00 00 fd 0c 30 90 4a 4a 81 01 0a 20 20 20 20 20 20
descriptor 3:    00 00 00 fc 00 52 4f 47 20 58 47 32 37 55 51 52 0a 20
descriptor 4:    00 00 00 ff 00 4d 37 4c 4d 51 53 30 38 38 39 34 30 20
extensions:      02
checksum:        5e

EDID version: 1.4
Manufacturer: AUS Model 27ba Serial Number --
Made in week 29 of 2021
Digital display
10 bits per primary color channel
DisplayPort interface
Maximum image size: 60 cm x 34 cm
Gamma: 2.20
DPMS levels: Off
Supported color formats: RGB 4:4:4, YCrCb 4:4:4, YCrCb 4:2:2
First detailed timing includes the native pixel format and preferred refresh rate
Display is continuous frequency
Display x,y Chromaticity:
  Red:   0.6875, 0.2968
  Green: 0.2714, 0.6591
  Blue:  0.1484, 0.0400
  White: 0.3125, 0.3281
Established timings supported:
  720x400@70Hz 9:5 HorFreq: 31469 Hz Clock: 28.320 MHz
  640x480@60Hz 4:3 HorFreq: 31469 Hz Clock: 25.175 MHz
  640x480@67Hz 4:3 HorFreq: 35000 Hz Clock: 30.240 MHz
  640x480@72Hz 4:3 HorFreq: 37900 Hz Clock: 31.500 MHz
  640x480@75Hz 4:3 HorFreq: 37500 Hz Clock: 31.500 MHz
  800x600@56Hz 4:3 HorFreq: 35200 Hz Clock: 36.000 MHz
  800x600@60Hz 4:3 HorFreq: 37900 Hz Clock: 40.000 MHz
  800x600@72Hz 4:3 HorFreq: 48100 Hz Clock: 50.000 MHz
  800x600@75Hz 4:3 HorFreq: 46900 Hz Clock: 49.500 MHz
  1024x768@60Hz 4:3 HorFreq: 48400 Hz Clock: 65.000 MHz
  1024x768@70Hz 4:3 HorFreq: 56500 Hz Clock: 75.000 MHz
  1024x768@75Hz 4:3 HorFreq: 60000 Hz Clock: 78.750 MHz
  1280x1024@75Hz 5:4 HorFreq: 80000 Hz Clock: 135.000 MHz
Standard timings supported:
  1152x864@75Hz 4:3 HorFreq: 67500 Hz Clock: 108.000 MHz
  1280x720@60Hz 16:9
  1280x960@60Hz 4:3 HorFreq: 60000 Hz Clock: 108.000 MHz
  1280x1024@60Hz 5:4 HorFreq: 64000 Hz Clock: 108.000 MHz
  1920x1080@60Hz 16:9
  1920x1080@120Hz 16:9
  1440x900@60Hz 16:10 HorFreq: 55500 Hz Clock: 88.750 MHz
  1680x1050@60Hz 16:10 HorFreq: 64700 Hz Clock: 119.000 MHz
Detailed mode: Clock 533.250 MHz, 596 mm x 335 mm
               3840 3888 3920 4000 hborder 0
               2160 2163 2168 2222 vborder 0
               +hsync -vsync 
               VertFreq: 59 Hz, HorFreq: 133312 Hz
Monitor ranges (bare limits): 48-144Hz V, 74-329kHz H, max dotclock 1290MHz
Monitor name: ROG XG27UQR
Serial number: -- 
Has 2 extension blocks
Checksum: 0x5e (valid)

CTA extension block
Extension version: 3
49 bytes of CTA data
  Video data block
    VIC   1 640x480@60Hz 4:3  HorFreq: 31469 Hz Clock: 25.175 MHz
    VIC   2 720x480@60Hz 4:3  HorFreq: 31469 Hz Clock: 27.000 MHz
    VIC   3 720x480@60Hz 16:9  HorFreq: 31469 Hz Clock: 27.000 MHz
    VIC  17 720x576@50Hz 4:3  HorFreq: 31250 Hz Clock: 27.000 MHz
    VIC  18 720x576@50Hz 16:9  HorFreq: 31250 Hz Clock: 27.000 MHz
    VIC  19 1280x720@50Hz 16:9  HorFreq: 37500 Hz Clock: 74.250 MHz
    VIC   4 1280x720@60Hz 16:9  HorFreq: 45000 Hz Clock: 74.250 MHz
    VIC  14 1440x480@60Hz 4:3  HorFreq: 31469 Hz Clock: 54.000 MHz
    VIC  15 1440x480@60Hz 16:9  HorFreq: 31469 Hz Clock: 54.000 MHz
    VIC  29 1440x576@50Hz 4:3  HorFreq: 31250 Hz Clock: 54.000 MHz
    VIC  30 1440x576@50Hz 16:9  HorFreq: 31250 Hz Clock: 54.000 MHz
    VIC  31 1920x1080@50Hz 16:9  HorFreq: 56250 Hz Clock: 148.500 MHz
    VIC  16 1920x1080@60Hz 16:9  HorFreq: 67500 Hz Clock: 148.500 MHz
    VIC  64 1920x1080@100Hz 16:9  HorFreq: 112500 Hz Clock: 297.000 MHz
    VIC  63 1920x1080@120Hz 16:9  HorFreq: 135000 Hz Clock: 297.000 MHz
    VIC  96 3840x2160@50Hz 16:9  HorFreq: 112500 Hz Clock: 594.000 MHz
    VIC  97 3840x2160@60Hz 16:9  HorFreq: 135000 Hz Clock: 594.000 MHz
  Extended tag: Video capability data block
    YCbCr quantization: Selectable (via AVI YQ) (1)
    RGB quantization: Selectable (via AVI Q) (1)
    PT scan behaviour: Always Overscannned (1)
    IT scan behaviour: Always Overscannned (1)
    CE scan behaviour: Always Overscannned (1)
  Audio data block
    Linear PCM, max channels 2
      Supported sample rates (kHz): 48 44.1 32
      Supported sample sizes (bits): 24 20 16
  Speaker allocation data block
    Speaker map:
      FL/FR - Front Left/Right
  Extended tag: Colorimetry data block
    BT2020YCC
    BT2020RGB
  Extended tag: HDR static metadata data block
    Electro optical transfer functions:
      Traditional gamma - SDR luminance range
      SMPTE ST2084
    Supported static metadata descriptors:
      Static metadata type 1
    Desired content max luminance: 112 (565.685 cd/m^2)
    Desired content max frame-average luminance: 112 (565.685 cd/m^2)
    Desired content min luminance: 7 (0.004 cd/m^2)
  Vendor-specific data block, OUI 00001a
Underscans PC formats by default
Basic audio support
Supports YCbCr 4:4:4
Supports YCbCr 4:2:2
2 native detailed modes
Detailed mode: Clock 241.500 MHz, 596 mm x 335 mm
               2560 2608 2640 2720 hborder 0
               1440 1443 1448 1481 vborder 0
               +hsync -vsync 
               VertFreq: 59 Hz, HorFreq: 88786 Hz
Detailed mode: Clock 482.620 MHz, 596 mm x 335 mm
               2560 2568 2600 2640 hborder 0
               1440 1447 1455 1525 vborder 0
               +hsync +vsync 
               VertFreq: 119 Hz, HorFreq: 182810 Hz
Checksum: 0xcf (valid)


DisplayID extension block
Extension version: 18
Length 103, version 18, extension count 0
Checksum: 0x52 (valid)
Type 1 detailed timing: aspect: 16:9,  
Detailed mode: Clock 702.990 MHz, 0 mm x 0 mm
               3839 3846 3877 3918
               2159 2227 2234 2241
               -hsync -vsync
Type 1 detailed timing: aspect: 16:9,  
Detailed mode: Clock 850.130 MHz, 0 mm x 0 mm
               3839 3846 3877 3898
               2159 2161 2165 2223
               +hsync -vsync
Type 1 detailed timing: aspect: 16:9,  
Detailed mode: Clock 886.990 MHz, 0 mm x 0 mm
               3839 3846 3877 3918
               2159 2249 2256 2263
               -hsync -vsync
Type 1 detailed timing: aspect: 16:9,  
Detailed mode: Clock 1052.740 MHz, 0 mm x 0 mm
               3839 3846 3877 3918
               2159 2161 2165 2236
               +hsync -vsync
Type 1 detailed timing: aspect: 16:9,  
Detailed mode: Clock 1290.950 MHz, 0 mm x 0 mm
               3839 3846 3877 3918
               2159 2271 2278 2285
               -hsync -vsync

Warning: One or more of the timings is out of range of the Monitor Ranges:
  Vertical Freq: 50 - 120 Hz
  Horizontal Freq: 31250 - 182810 Hz
  Maximum Clock: 594.000 MHz
EDID block does not conform at all!
	Both the serial number and the serial string are set


