edid-decode (hex):

00 ff ff ff ff ff ff 00 41 8e 11 24 ef 02 00 00
0e 12 01 03 80 34 21 78 2a de 50 a3 54 4c 9b 26
0f 50 54 bf ef 80 71 4f 81 40 81 4f 81 80 95 00
a9 40 b3 00 01 01 28 3c 80 a0 70 b0 23 40 30 20
36 00 06 44 21 00 00 1a 00 00 00 fd 00 38 4d 1e
5e 15 00 0a 20 20 20 20 20 20 00 00 00 fc 00 50
58 32 34 31 31 57 0a 20 20 20 20 20 00 00 00 ff
00 50 48 36 32 38 34 4a 41 30 30 37 35 31 00 8f

00 ff ff ff ff ff ff 00 41 8e 11 24 ef 02 00 00
0e 12 01 03 80 34 21 78 2a de 50 a3 54 4c 9b 26
0f 50 54 bf ef 80 71 4f 81 40 81 4f 81 80 95 00
a9 40 b3 00 01 01 28 3c 80 a0 70 b0 23 40 30 20
36 00 06 44 21 00 00 1a 00 00 00 fd 00 38 4d 1e
5e 15 00 0a 20 20 20 20 20 20 00 00 00 fc 00 50
58 32 34 31 31 57 0a 20 20 20 20 20 00 00 00 ff
00 50 48 36 32 38 34 4a 41 30 30 37 35 31 00 8f

----------------

Block 0, Base EDID:
  EDID Structure Version & Revision: 1.3
  Vendor & Product Identification:
    Manufacturer: PLN
    Model: 9233
    Serial Number: ...
    Made in: week 14 of 2008
  Basic Display Parameters & Features:
    Digital display
    Maximum image size: 52 cm x 33 cm
    Gamma: 2.20
    DPMS levels: Off
    RGB color display
    First detailed timing is the preferred timing
  Color Characteristics:
    Red  : 0.6396, 0.3291
    Green: 0.2998, 0.6074
    Blue : 0.1494, 0.0595
    White: 0.3125, 0.3281
  Established Timings I & II:
    IBM     :   720x400    70.081663 Hz   9:5     31.467 kHz     28.320000 MHz
    DMT 0x04:   640x480    59.940476 Hz   4:3     31.469 kHz     25.175000 MHz
    Apple   :   640x480    66.666667 Hz   4:3     35.000 kHz     30.240000 MHz
    DMT 0x05:   640x480    72.808802 Hz   4:3     37.861 kHz     31.500000 MHz
    DMT 0x06:   640x480    75.000000 Hz   4:3     37.500 kHz     31.500000 MHz
    DMT 0x08:   800x600    56.250000 Hz   4:3     35.156 kHz     36.000000 MHz
    DMT 0x09:   800x600    60.316541 Hz   4:3     37.879 kHz     40.000000 MHz
    DMT 0x0a:   800x600    72.187572 Hz   4:3     48.077 kHz     50.000000 MHz
    DMT 0x0b:   800x600    75.000000 Hz   4:3     46.875 kHz     49.500000 MHz
    Apple   :   832x624    74.551266 Hz   4:3     49.726 kHz     57.284000 MHz
    DMT 0x10:  1024x768    60.003840 Hz   4:3     48.363 kHz     65.000000 MHz
    DMT 0x11:  1024x768    70.069359 Hz   4:3     56.476 kHz     75.000000 MHz
    DMT 0x12:  1024x768    75.028582 Hz   4:3     60.023 kHz     78.750000 MHz
    DMT 0x24:  1280x1024   75.024675 Hz   5:4     79.976 kHz    135.000000 MHz
    Apple   :  1152x870    75.061550 Hz 192:145   68.681 kHz    100.000000 MHz
  Standard Timings:
    DMT 0x15:  1152x864    75.000000 Hz   4:3     67.500 kHz    108.000000 MHz
    DMT 0x20:  1280x960    60.000000 Hz   4:3     60.000 kHz    108.000000 MHz
    GTF     :  1280x960    74.999884 Hz   4:3     75.150 kHz    129.859000 MHz
    DMT 0x23:  1280x1024   60.019740 Hz   5:4     63.981 kHz    108.000000 MHz
    DMT 0x2f:  1440x900    59.887445 Hz  16:10    55.935 kHz    106.500000 MHz
    DMT 0x33:  1600x1200   60.000000 Hz   4:3     75.000 kHz    162.000000 MHz
    DMT 0x3a:  1680x1050   59.954250 Hz  16:10    65.290 kHz    146.250000 MHz
  Detailed Timing Descriptors:
    DTD 1:  1920x1200   59.950171 Hz  16:10    74.038 kHz    154.000000 MHz (518 mm x 324 mm)
                 Hfront   48 Hsync  32 Hback   80 Hpol P
                 Vfront    3 Vsync   6 Vback   26 Vpol N
    Display Range Limits:
      Monitor ranges (GTF): 56-77 Hz V, 30-94 kHz H, max dotclock 210 MHz
    Display Product Name: 'PX2411W'
    Display Product Serial Number: ...
Checksum: 0x8f

----------------

Block 1, Unknown EDID Extension Block 0x00:
  00 ff ff ff ff ff ff 00 41 8e 11 24 ef 02 00 00 '........A..$....'
  0e 12 01 03 80 34 21 78 2a de 50 a3 54 4c 9b 26 '.....4!x*.P.TL.&'
  0f 50 54 bf ef 80 71 4f 81 40 81 4f 81 80 95 00 '.PT...qO.@.O....'
  a9 40 b3 00 01 01 28 3c 80 a0 70 b0 23 40 30 20 '.@....(<..p.#@0 '
  36 00 06 44 21 00 00 1a 00 00 00 fd 00 38 4d 1e '6..D!........8M.'
  5e 15 00 0a 20 20 20 20 20 20 00 00 00 fc 00 50 '^...      .....P'
  58 32 34 31 31 57 0a 20 20 20 20 20 00 00 00 ff 'X2411W.     ....'
  00 50 48 36 32 38 34 4a 41 30 30 37 35 31 00 8f '.PH6284JA00751..'
Checksum: 0x8f

----------------

Failures:

Block 1, Base EDID:
  Unknown Extension Block.
EDID:
  Base EDID: EDID specified 0 extension block(s), but found 1 extension block(s).

EDID conformity: FAIL
