
EDID (hex):
00ffffffffffff004ca3425400000000
00140103901e13780a87f594574f8c27
27505400000001010101010101010101
0101010101011d2aa0e8518420302e46
99002fbe1000001a141ca0e851842030
2e4699002fbe1000001a000000fe0054
543231398431343142540a2000000000
000c10171b3669a9ff02010a202000cb

Extracted contents:
header:          00 ff ff ff ff ff ff 00
serial number:   4c a3 42 54 00 00 00 00 00 14
version:         01 03
basic params:    90 1e 13 78 0a
chroma info:     87 f5 94 57 4f 8c 27 27 50 54
established:     00 00 00
standard:        01 01 01 01 01 01 01 01 01 01 01 01 01 01 01 01
descriptor 1:    1d 2a a0 e8 51 84 20 30 2e 46 99 00 2f be 10 00 00 1a
descriptor 2:    14 1c a0 e8 51 84 20 30 2e 46 99 00 2f be 10 00 00 1a
descriptor 3:    00 00 00 fe 00 54 54 32 31 39 84 31 34 31 42 54 0a 20
descriptor 4:    00 00 00 00 00 0c 10 17 1b 36 69 a9 ff 02 01 0a 20 20
extensions:      00
checksum:        cb

EDID version: 1.3
Manufacturer: SEC Model 5442 Serial Number --
Made in year 2010
Digital display
Maximum image size: 30 cm x 19 cm
Gamma: 2.20
RGB color display
First detailed timing is preferred timing
Display x,y Chromaticity:
  Red:   0.5800, 0.3398
  Green: 0.3095, 0.5498
  Blue:  0.1552, 0.1552
  White: 0.3134, 0.3291
Established timings supported:
Standard timings supported:
Detailed mode: Clock 107.810 MHz, 303 mm x 190 mm
               1440 1486 1556 1928 hborder 0
                900  909  918  932 vborder 0
               +hsync -vsync 
               VertFreq: 59 Hz, HorFreq: 55918 Hz
Detailed mode: Clock 71.880 MHz, 303 mm x 190 mm
               1440 1486 1556 1928 hborder 0
                900  909  918  932 vborder 0
               +hsync -vsync 
               VertFreq: 40 Hz, HorFreq: 37282 Hz
ASCII string: TT219
Manufacturer-specified data, tag 0
Checksum: 0xcb (valid)
EDID block does NOT conform to EDID 1.3!
	Digital display field contains garbage: 10
	Missing name descriptor
	Missing monitor ranges
	Detailed block string not properly terminated
