
EDID (hex):
00ffffffffffff004ca3425400000000
00120103902115780a87f594574f8c27
27505400000001010101010101010101
010101010101302aa01852840c304020
33004bcf1000001a302aa01852840c30
402033004bcf1000001a000000fe004a
373939438031353442540a2000000000
00000000000000000002010a2020008e

Extracted contents:
header:          00 ff ff ff ff ff ff 00
serial number:   4c a3 42 54 00 00 00 00 00 12
version:         01 03
basic params:    90 21 15 78 0a
chroma info:     87 f5 94 57 4f 8c 27 27 50 54
established:     00 00 00
standard:        01 01 01 01 01 01 01 01 01 01 01 01 01 01 01 01
descriptor 1:    30 2a a0 18 52 84 0c 30 40 20 33 00 4b cf 10 00 00 1a
descriptor 2:    30 2a a0 18 52 84 0c 30 40 20 33 00 4b cf 10 00 00 1a
descriptor 3:    00 00 00 fe 00 4a 37 39 39 43 80 31 35 34 42 54 0a 20
descriptor 4:    00 00 00 00 00 00 00 00 00 00 00 00 00 02 01 0a 20 20
extensions:      00
checksum:        8e

EDID version: 1.3
Manufacturer: SEC Model 5442 Serial Number --
Made in year 2008
Digital display
Maximum image size: 33 cm x 21 cm
Gamma: 2.20
RGB color display
First detailed timing is preferred timing
Display x,y Chromaticity:
  Red:   0.5800, 0.3398
  Green: 0.3095, 0.5498
  Blue:  0.1552, 0.1552
  White: 0.3134, 0.3291
Established timings supported:
Standard timings supported:
Detailed mode: Clock 108.000 MHz, 331 mm x 207 mm
               1440 1504 1536 1976 hborder 0
                900  903  906  912 vborder 0
               +hsync -vsync 
               VertFreq: 59 Hz, HorFreq: 54655 Hz
Detailed mode: Clock 108.000 MHz, 331 mm x 207 mm
               1440 1504 1536 1976 hborder 0
                900  903  906  912 vborder 0
               +hsync -vsync 
               VertFreq: 59 Hz, HorFreq: 54655 Hz
ASCII string: J799C
Manufacturer-specified data, tag 0
Checksum: 0x8e (valid)
EDID block does NOT conform to EDID 1.3!
	Digital display field contains garbage: 10
	Missing name descriptor
	Missing monitor ranges
	Detailed block string not properly terminated
