
EDID (hex):
00ffffffffffff004ca3425400000000
00140104902517780ab8989659568d28
21505600000001010101010101010101
010101010101f229a0b0518438305098
36006fe61000001af229a0b051843830
509836006fe61000001a000000fe0046
313939528231373042540a2000000000
00004101120000000006010a202000b7

Extracted contents:
header:          00 ff ff ff ff ff ff 00
serial number:   4c a3 42 54 00 00 00 00 00 14
version:         01 04
basic params:    90 25 17 78 0a
chroma info:     b8 98 96 59 56 8d 28 21 50 56
established:     00 00 00
standard:        01 01 01 01 01 01 01 01 01 01 01 01 01 01 01 01
descriptor 1:    f2 29 a0 b0 51 84 38 30 50 98 36 00 6f e6 10 00 00 1a
descriptor 2:    f2 29 a0 b0 51 84 38 30 50 98 36 00 6f e6 10 00 00 1a
descriptor 3:    00 00 00 fe 00 46 31 39 39 52 82 31 37 30 42 54 0a 20
descriptor 4:    00 00 00 00 00 00 41 01 12 00 00 00 00 06 01 0a 20 20
extensions:      00
checksum:        b7

EDID version: 1.4
Manufacturer: SEC Model 5442 Serial Number --
Made in year 2010
Digital display
6 bits per primary color channel
Digital interface is not defined
Maximum image size: 37 cm x 23 cm
Gamma: 2.20
Supported color formats: RGB 4:4:4, YCrCb 4:4:4
First detailed timing includes the native pixel format and preferred refresh rate
Display x,y Chromaticity:
  Red:   0.5878, 0.3505
  Green: 0.3378, 0.5507
  Blue:  0.1582, 0.1298
  White: 0.3144, 0.3359
Established timings supported:
Standard timings supported:
Detailed mode: Clock 107.380 MHz, 367 mm x 230 mm
               1440 1520 1672 1872 hborder 0
                900  903  909  956 vborder 0
               +hsync -vsync 
               VertFreq: 60 Hz, HorFreq: 57361 Hz
Detailed mode: Clock 107.380 MHz, 367 mm x 230 mm
               1440 1520 1672 1872 hborder 0
                900  903  909  956 vborder 0
               +hsync -vsync 
               VertFreq: 60 Hz, HorFreq: 57361 Hz
ASCII string: F199R
Manufacturer-specified data, tag 0
Checksum: 0xb7 (valid)
EDID block does NOT conform to EDID 1.4!
	Missing name descriptor
	Missing monitor ranges
	Detailed block string not properly terminated
