edid-decode (hex):

00 ff ff ff ff ff ff 00 30 f0 00 00 00 00 00 00
00 0e 01 02 80 21 15 78 0a 0a a0 99 58 52 87 27
24 50 54 00 00 00 01 01 01 01 01 01 01 01 01 01
01 01 01 01 01 01 d5 1b 00 a0 50 20 17 30 30 20
26 00 4b cf 10 00 00 19 00 00 00 0f 00 00 00 00
00 00 00 00 00 32 4a 04 14 00 00 00 00 fe 00 58
34 32 34 31 00 31 35 34 57 30 31 0a 00 00 00 fe
00 c5 af 9e 8e 72 60 40 00 01 00 0a 20 20 00 0f

----------------

Block 0, Base EDID:
  EDID Structure Version & Revision: 1.2
  Vendor & Product Identification:
    Manufacturer: LGP
    Model: 0
    Made in: 2004
  Basic Display Parameters & Features:
    Digital display
    Maximum image size: 33 cm x 21 cm
    Gamma: 2.20
    RGB color display
    First detailed timing is the preferred timing
  Color Characteristics:
    Red  : 0.5976, 0.3437
    Green: 0.3222, 0.5292
    Blue : 0.1542, 0.1425
    White: 0.3125, 0.3281
  Established Timings I & II: none
  Standard Timings: none
  Detailed Timing Descriptors:
    DTD 1:  1280x800    60.120494 Hz  16:10    49.479 kHz     71.250000 MHz (331 mm x 207 mm)
                 Hfront   48 Hsync  32 Hback   80 Hpol N
                 Vfront    2 Vsync   6 Vback   15 Vpol N
    Manufacturer-Specified Display Descriptor (0x0f): 00 0f 00 00 00 00 00 00 00 00 00 32 4a 04 14 00 '...........2J...'
    Alphanumeric Data String: 'X4241'
    Alphanumeric Data String: ''
Checksum: 0x0f

----------------

Warnings:

Block 0, Base EDID:
  EDID Structure Version & Revision: EDID 1.2 is deprecated, do not use.

Failures:

Block 0, Base EDID:
  Alphanumeric Data String: Non-printable character.
  Alphanumeric Data String: Non-printable character.

EDID conformity: FAIL
