
EDID (hex):
00ffffffffffff0030f0000000000000
000d0103802115780a00000000000000
00000000000001010101010101010101
010101010101ea1a0080502010301520
44004bcf100000190000000f00000000
0000000000324a041400000000100000
000000000000000000000000000000fe
004c503135345730312d41334b3300df

Extracted contents:
header:          00 ff ff ff ff ff ff 00
serial number:   30 f0 00 00 00 00 00 00 00 0d
version:         01 03
basic params:    80 21 15 78 0a
chroma info:     00 00 00 00 00 00 00 00 00 00
established:     00 00 00
standard:        01 01 01 01 01 01 01 01 01 01 01 01 01 01 01 01
descriptor 1:    ea 1a 00 80 50 20 10 30 15 20 44 00 4b cf 10 00 00 19
descriptor 2:    00 00 00 0f 00 00 00 00 00 00 00 00 00 32 4a 04 14 00
descriptor 3:    00 00 00 10 00 00 00 00 00 00 00 00 00 00 00 00 00 00
descriptor 4:    00 00 00 fe 00 4c 50 31 35 34 57 30 31 2d 41 33 4b 33
extensions:      00
checksum:        df

EDID version: 1.3
Manufacturer: LGP Model 0 Serial Number --
Digital display
Maximum image size: 33 cm x 21 cm
Gamma: 2.20
RGB color display
First detailed timing is preferred timing
Display x,y Chromaticity:
  Red:   0.0000, 0.0000
  Green: 0.0000, 0.0000
  Blue:  0.0000, 0.0000
  White: 0.0000, 0.0000
Established timings supported:
Standard timings supported:
Detailed mode: Clock 68.900 MHz, 331 mm x 207 mm
               1280 1301 1333 1408 hborder 0
                800  804  808  816 vborder 0
               -hsync -vsync 
               VertFreq: 59 Hz, HorFreq: 48934 Hz
Manufacturer-specified data, tag 15
Dummy block
ASCII string: LP154W01-A3K3
Checksum: 0xdf (valid)
EDID block does NOT conform to EDID 1.3!
	Missing name descriptor
	Missing monitor ranges
EDID block does not conform at all!
	Bad year of manufacture
