edid-decode (hex):

00 ff ff ff ff ff ff 00 04 72 07 ad 74 0d 00 00
15 0e 01 03 81 25 1e 78 ea ec 50 a5 58 4a 9a 26
21 50 54 ad ce 00 81 80 01 01 01 01 01 01 01 01
01 01 01 01 01 01 30 2a 00 98 51 00 2a 40 30 70
13 00 77 2d 11 00 00 1e 00 00 00 ff 00 45 54 4c
30 37 30 32 30 30 31 0a 20 20 00 00 00 fd 00 38
4b 1e 40 0b 00 0a 20 20 20 20 20 20 00 00 00 fc
00 41 63 65 72 20 41 4c 31 39 33 31 0a 20 00 f2

00 ff ff ff ff ff ff 00 04 72 07 ad 74 0d 00 00
15 0e 01 03 81 25 1e 78 ea ec 50 a5 58 4a 9a 26
21 50 54 ad ce 00 81 80 01 01 01 01 01 01 01 01
01 01 01 01 01 01 30 2a 00 98 51 00 2a 40 30 70
13 00 77 2d 11 00 00 1e 00 00 00 ff 00 45 54 4c
30 37 30 32 30 30 31 0a 20 20 00 00 00 fd 00 38
4b 1e 40 0b 00 0a 20 20 20 20 20 20 00 00 00 fc
00 41 63 65 72 20 41 4c 31 39 33 31 0a 20 00 f2

----------------

Block 0, Base EDID:
  EDID Structure Version & Revision: 1.3
  Vendor & Product Identification:
    Manufacturer: ACR
    Model: 44295
    Serial Number: ...
    Made in: week 21 of 2004
  Basic Display Parameters & Features:
    Digital display
    DFP 1.x compatible TMDS
    Maximum image size: 37 cm x 30 cm
    Gamma: 2.20
    DPMS levels: Standby Suspend Off
    RGB color display
    First detailed timing is the preferred timing
  Color Characteristics:
    Red  : 0.6474, 0.3457
    Green: 0.2919, 0.6015
    Blue : 0.1494, 0.1298
    White: 0.3125, 0.3281
  Established Timings I & II:
    IBM     :   720x400    70.081663 Hz   9:5     31.467 kHz     28.320000 MHz
    DMT 0x04:   640x480    59.940476 Hz   4:3     31.469 kHz     25.175000 MHz
    DMT 0x05:   640x480    72.808802 Hz   4:3     37.861 kHz     31.500000 MHz
    DMT 0x06:   640x480    75.000000 Hz   4:3     37.500 kHz     31.500000 MHz
    DMT 0x09:   800x600    60.316541 Hz   4:3     37.879 kHz     40.000000 MHz
    DMT 0x0a:   800x600    72.187572 Hz   4:3     48.077 kHz     50.000000 MHz
    DMT 0x0b:   800x600    75.000000 Hz   4:3     46.875 kHz     49.500000 MHz
    DMT 0x10:  1024x768    60.003840 Hz   4:3     48.363 kHz     65.000000 MHz
    DMT 0x11:  1024x768    70.069359 Hz   4:3     56.476 kHz     75.000000 MHz
    DMT 0x12:  1024x768    75.028582 Hz   4:3     60.023 kHz     78.750000 MHz
  Standard Timings:
    DMT 0x23:  1280x1024   60.019740 Hz   5:4     63.981 kHz    108.000000 MHz
  Detailed Timing Descriptors:
    DTD 1:  1280x1024   60.019740 Hz   5:4     63.981 kHz    108.000000 MHz (375 mm x 301 mm)
                 Hfront   48 Hsync 112 Hback  248 Hpol P
                 Vfront    1 Vsync   3 Vback   38 Vpol P
    Display Product Serial Number: ...
    Display Range Limits:
      Monitor ranges (GTF): 56-75 Hz V, 30-64 kHz H, max dotclock 110 MHz
    Display Product Name: 'Acer AL1931'
Checksum: 0xf2

----------------

Block 1, Unknown EDID Extension Block 0x00:
  00 ff ff ff ff ff ff 00 04 72 07 ad 74 0d 00 00 '.........r..t...'
  15 0e 01 03 81 25 1e 78 ea ec 50 a5 58 4a 9a 26 '.....%.x..P.XJ.&'
  21 50 54 ad ce 00 81 80 01 01 01 01 01 01 01 01 '!PT.............'
  01 01 01 01 01 01 30 2a 00 98 51 00 2a 40 30 70 '......0*..Q.*@0p'
  13 00 77 2d 11 00 00 1e 00 00 00 ff 00 45 54 4c '..w-.........ETL'
  30 37 30 32 30 30 31 0a 20 20 00 00 00 fd 00 38 '0702001.  .....8'
  4b 1e 40 0b 00 0a 20 20 20 20 20 20 00 00 00 fc 'K.@...      ....'
  00 41 63 65 72 20 41 4c 31 39 33 31 0a 20 00 f2 '.Acer AL1931. ..'
Checksum: 0xf2

----------------

Failures:

Block 1, Base EDID:
  Unknown Extension Block.
EDID:
  Base EDID: EDID specified 0 extension block(s), but found 1 extension block(s).

EDID conformity: FAIL
