
EDID (hex):
00ffffffffffff000daf251400000000
0e110103801e13780a9f059656508827
20505400000001010101010101010101
010101010101111b008250201330271a
24002fbe10000018000000fe004e3134
3149332d4c30320a2020000000fe0043
4d4f0a202020202020202020000000fe
004e31343149332d4c30320a20200070

Extracted contents:
header:          00 ff ff ff ff ff ff 00
serial number:   0d af 25 14 00 00 00 00 0e 11
version:         01 03
basic params:    80 1e 13 78 0a
chroma info:     9f 05 96 56 50 88 27 20 50 54
established:     00 00 00
standard:        01 01 01 01 01 01 01 01 01 01 01 01 01 01 01 01
descriptor 1:    11 1b 00 82 50 20 13 30 27 1a 24 00 2f be 10 00 00 18
descriptor 2:    00 00 00 fe 00 4e 31 34 31 49 33 2d 4c 30 32 0a 20 20
descriptor 3:    00 00 00 fe 00 43 4d 4f 0a 20 20 20 20 20 20 20 20 20
descriptor 4:    00 00 00 fe 00 4e 31 34 31 49 33 2d 4c 30 32 0a 20 20
extensions:      00
checksum:        70

EDID version: 1.3
Manufacturer: CMO Model 1425 Serial Number --
Made in week 14 of 2007
Digital display
Maximum image size: 30 cm x 19 cm
Gamma: 2.20
RGB color display
First detailed timing is preferred timing
Display x,y Chromaticity:
  Red:   0.5878, 0.3369
  Green: 0.3154, 0.5341
  Blue:  0.1523, 0.1250
  White: 0.3134, 0.3291
Established timings supported:
Standard timings supported:
Detailed mode: Clock 69.290 MHz, 303 mm x 190 mm
               1280 1319 1345 1410 hborder 0
                800  802  806  819 vborder 0
               -hsync -vsync 
               VertFreq: 60 Hz, HorFreq: 49141 Hz
ASCII string: N141I3-L02
ASCII string: CMO
ASCII string: N141I3-L02
Checksum: 0x70 (valid)
EDID block does NOT conform to EDID 1.3!
	Missing name descriptor
	Missing monitor ranges
