edid-decode (hex):

00 ff ff ff ff ff ff 00 22 0e b7 36 01 01 01 01
1a 1f 01 03 80 36 1e 78 2a 0e f5 a5 55 50 9e 26
10 50 54 a5 4b 00 d1 cf d1 c0 a9 c0 81 c0 b3 00
95 00 81 00 81 80 02 3a 80 18 71 38 2d 40 58 2c
45 00 13 2b 21 00 00 1e 00 00 00 fd 00 30 4b 1e
56 12 01 0a 20 20 20 20 20 20 00 00 00 fc 00 48
50 20 56 32 34 0a 20 20 20 20 20 20 00 00 00 ff
00 31 43 52 31 32 36 30 48 56 33 0a 20 20 01 fb

02 03 22 81 49 10 1f 04 13 13 13 03 02 01 67 03
0c 00 10 00 00 24 68 1a 00 00 01 01 00 4b ed e2
00 6b 2a 44 80 a0 70 38 27 40 30 20 35 00 13 2b
21 00 00 1a 02 3a 80 18 71 38 2d 40 58 2c 45 00
13 2b 21 00 00 1e 6b 35 a0 f0 51 84 2a 30 60 98
36 00 13 2b 21 00 00 1a b1 1d 00 50 50 d0 1a 20
08 20 c8 00 13 2b 21 00 00 1a 9a 29 00 a0 51 20
26 30 50 80 36 00 13 2b 21 00 00 1a 00 00 00 8f

00 ff ff ff ff ff ff 00 22 0e b7 36 01 01 01 01
1a 1f 01 03 80 36 1e 78 2a 0e f5 a5 55 50 9e 26
10 50 54 a5 4b 00 d1 cf d1 c0 a9 c0 81 c0 b3 00
95 00 81 00 81 80 02 3a 80 18 71 38 2d 40 58 2c
45 00 13 2b 21 00 00 1e 00 00 00 fd 00 30 4b 1e
56 12 01 0a 20 20 20 20 20 20 00 00 00 fc 00 48
50 20 56 32 34 0a 20 20 20 20 20 20 00 00 00 ff
00 31 43 52 31 32 36 30 48 56 33 0a 20 20 01 fb

02 03 22 81 49 10 1f 04 13 13 13 03 02 01 67 03
0c 00 10 00 00 24 68 1a 00 00 01 01 00 4b ed e2
00 6b 2a 44 80 a0 70 38 27 40 30 20 35 00 13 2b
21 00 00 1a 02 3a 80 18 71 38 2d 40 58 2c 45 00
13 2b 21 00 00 1e 6b 35 a0 f0 51 84 2a 30 60 98
36 00 13 2b 21 00 00 1a b1 1d 00 50 50 d0 1a 20
08 20 c8 00 13 2b 21 00 00 1a 9a 29 00 a0 51 20
26 30 50 80 36 00 13 2b 21 00 00 1a 00 00 00 8f

----------------

Block 0, Base EDID:
  EDID Structure Version & Revision: 1.3
  Vendor & Product Identification:
    Manufacturer: HPN
    Model: 14007
    Serial Number: ...
    Made in: week 26 of 2021
  Basic Display Parameters & Features:
    Digital display
    Maximum image size: 54 cm x 30 cm
    Gamma: 2.20
    DPMS levels: Off
    RGB color display
    First detailed timing is the preferred timing
  Color Characteristics:
    Red  : 0.6445, 0.3320
    Green: 0.3154, 0.6191
    Blue : 0.1513, 0.0654
    White: 0.3134, 0.3291
  Established Timings I & II:
    IBM     :   720x400    70.081663 Hz   9:5     31.467 kHz     28.320000 MHz
    DMT 0x04:   640x480    59.940476 Hz   4:3     31.469 kHz     25.175000 MHz
    DMT 0x06:   640x480    75.000000 Hz   4:3     37.500 kHz     31.500000 MHz
    DMT 0x09:   800x600    60.316541 Hz   4:3     37.879 kHz     40.000000 MHz
    DMT 0x0b:   800x600    75.000000 Hz   4:3     46.875 kHz     49.500000 MHz
    DMT 0x10:  1024x768    60.003840 Hz   4:3     48.363 kHz     65.000000 MHz
    DMT 0x12:  1024x768    75.028582 Hz   4:3     60.023 kHz     78.750000 MHz
    DMT 0x24:  1280x1024   75.024675 Hz   5:4     79.976 kHz    135.000000 MHz
  Standard Timings:
    GTF     :  1920x1080   75.000068 Hz  16:9     84.600 kHz    220.637000 MHz
    DMT 0x52:  1920x1080   60.000000 Hz  16:9     67.500 kHz    148.500000 MHz
    DMT 0x53:  1600x900    60.000000 Hz  16:9     60.000 kHz    108.000000 MHz (RB)
    DMT 0x55:  1280x720    60.000000 Hz  16:9     45.000 kHz     74.250000 MHz
    DMT 0x3a:  1680x1050   59.954250 Hz  16:10    65.290 kHz    146.250000 MHz
    DMT 0x2f:  1440x900    59.887445 Hz  16:10    55.935 kHz    106.500000 MHz
    DMT 0x1c:  1280x800    59.810326 Hz  16:10    49.702 kHz     83.500000 MHz
    DMT 0x23:  1280x1024   60.019740 Hz   5:4     63.981 kHz    108.000000 MHz
  Detailed Timing Descriptors:
    DTD  1:  1920x1080   60.000000 Hz  16:9     67.500 kHz    148.500000 MHz (531 mm x 299 mm)
                  Hfront   88 Hsync  44 Hback  148 Hpol P
                  Vfront    4 Vsync   5 Vback   36 Vpol P
    Display Range Limits:
      Monitor ranges (Bare Limits): 48-75 Hz V, 30-86 kHz H, max dotclock 180 MHz
    Display Product Name: 'HP V24'
    Display Product Serial Number: ...
  Extension blocks: 1
Checksum: 0xfb

----------------

Block 1, CTA-861 Extension Block:
  Revision: 3
  Underscans IT Video Formats by default
  Native detailed modes: 1
  Video Data Block:
    VIC  16:  1920x1080   60.000000 Hz  16:9     67.500 kHz    148.500000 MHz
    VIC  31:  1920x1080   50.000000 Hz  16:9     56.250 kHz    148.500000 MHz
    VIC   4:  1280x720    60.000000 Hz  16:9     45.000 kHz     74.250000 MHz
    VIC  19:  1280x720    50.000000 Hz  16:9     37.500 kHz     74.250000 MHz
    VIC  19:  1280x720    50.000000 Hz  16:9     37.500 kHz     74.250000 MHz
    VIC  19:  1280x720    50.000000 Hz  16:9     37.500 kHz     74.250000 MHz
    VIC   3:   720x480    59.940060 Hz  16:9     31.469 kHz     27.000000 MHz
    VIC   2:   720x480    59.940060 Hz   4:3     31.469 kHz     27.000000 MHz
    VIC   1:   640x480    59.940476 Hz   4:3     31.469 kHz     25.175000 MHz
  Vendor-Specific Data Block (HDMI), OUI 00-0C-03:
    Source physical address: 1.0.0.0
    Maximum TMDS clock: 180 MHz
  Vendor-Specific Data Block (AMD), OUI 00-00-1A:
    Version: 1.1
    Minimum Refresh Rate: 0 Hz
    Maximum Refresh Rate: 75 Hz
    Flags 1.x: 0xed (MCCS)
  Video Capability Data Block:
    YCbCr quantization: No Data
    RGB quantization: Selectable (via AVI Q)
    PT scan behavior: Always Underscanned
    IT scan behavior: Always Underscanned
    CE scan behavior: Supports both over- and underscan
  Detailed Timing Descriptors:
    DTD  2:  1920x1080   74.972503 Hz  16:9     83.894 kHz    174.500000 MHz (531 mm x 299 mm)
                  Hfront   48 Hsync  32 Hback   80 Hpol P
                  Vfront    3 Vsync   5 Vback   31 Vpol N
    DTD  3:  1920x1080   60.000000 Hz  16:9     67.500 kHz    148.500000 MHz (531 mm x 299 mm)
                  Hfront   88 Hsync  44 Hback  148 Hpol P
                  Vfront    4 Vsync   5 Vback   36 Vpol P
    DTD  4:  1440x900    74.984427 Hz  16:10    70.635 kHz    136.750000 MHz (531 mm x 299 mm)
                  Hfront   96 Hsync 152 Hback  248 Hpol P
                  Vfront    3 Vsync   6 Vback   33 Vpol N
    DTD  5:  1280x720    74.919177 Hz  16:9     55.890 kHz     76.010000 MHz (531 mm x 299 mm)
                  Hfront    8 Hsync  32 Hback   40 Hpol P
                  Vfront   12 Vsync   8 Vback    6 Vpol N
    DTD  6:  1280x800    74.934142 Hz  16:10    62.795 kHz    106.500000 MHz (531 mm x 299 mm)
                  Hfront   80 Hsync 128 Hback  208 Hpol P
                  Vfront    3 Vsync   6 Vback   29 Vpol N
Checksum: 0x8f  Unused space in Extension Block: 3 bytes

----------------

Block 2, Unknown EDID Extension Block 0x00:
  00 ff ff ff ff ff ff 00 22 0e b7 36 01 01 01 01 '........"..6....'
  1a 1f 01 03 80 36 1e 78 2a 0e f5 a5 55 50 9e 26 '.....6.x*...UP.&'
  10 50 54 a5 4b 00 d1 cf d1 c0 a9 c0 81 c0 b3 00 '.PT.K...........'
  95 00 81 00 81 80 02 3a 80 18 71 38 2d 40 58 2c '.......:..q8-@X,'
  45 00 13 2b 21 00 00 1e 00 00 00 fd 00 30 4b 1e 'E..+!........0K.'
  56 12 01 0a 20 20 20 20 20 20 00 00 00 fc 00 48 'V...      .....H'
  50 20 56 32 34 0a 20 20 20 20 20 20 00 00 00 ff 'P V24.      ....'
  00 31 43 52 31 32 36 30 48 56 33 0a 20 20 01 fb '.1CR1260HV3.  ..'
Checksum: 0xfb

----------------

Block 3, CTA-861 Extension Block:
  Revision: 3
  Underscans IT Video Formats by default
  Native detailed modes: 1
  Video Data Block:
    VIC  16:  1920x1080   60.000000 Hz  16:9     67.500 kHz    148.500000 MHz
    VIC  31:  1920x1080   50.000000 Hz  16:9     56.250 kHz    148.500000 MHz
    VIC   4:  1280x720    60.000000 Hz  16:9     45.000 kHz     74.250000 MHz
    VIC  19:  1280x720    50.000000 Hz  16:9     37.500 kHz     74.250000 MHz
    VIC  19:  1280x720    50.000000 Hz  16:9     37.500 kHz     74.250000 MHz
    VIC  19:  1280x720    50.000000 Hz  16:9     37.500 kHz     74.250000 MHz
    VIC   3:   720x480    59.940060 Hz  16:9     31.469 kHz     27.000000 MHz
    VIC   2:   720x480    59.940060 Hz   4:3     31.469 kHz     27.000000 MHz
    VIC   1:   640x480    59.940476 Hz   4:3     31.469 kHz     25.175000 MHz
  Vendor-Specific Data Block (HDMI), OUI 00-0C-03:
    Source physical address: 1.0.0.0
    Maximum TMDS clock: 180 MHz
  Vendor-Specific Data Block (AMD), OUI 00-00-1A:
    Version: 1.1
    Minimum Refresh Rate: 0 Hz
    Maximum Refresh Rate: 75 Hz
    Flags 1.x: 0xed (MCCS)
  Video Capability Data Block:
    YCbCr quantization: No Data
    RGB quantization: Selectable (via AVI Q)
    PT scan behavior: Always Underscanned
    IT scan behavior: Always Underscanned
    CE scan behavior: Supports both over- and underscan
  Detailed Timing Descriptors:
    DTD  7:  1920x1080   74.972503 Hz  16:9     83.894 kHz    174.500000 MHz (531 mm x 299 mm)
                  Hfront   48 Hsync  32 Hback   80 Hpol P
                  Vfront    3 Vsync   5 Vback   31 Vpol N
    DTD  8:  1920x1080   60.000000 Hz  16:9     67.500 kHz    148.500000 MHz (531 mm x 299 mm)
                  Hfront   88 Hsync  44 Hback  148 Hpol P
                  Vfront    4 Vsync   5 Vback   36 Vpol P
    DTD  9:  1440x900    74.984427 Hz  16:10    70.635 kHz    136.750000 MHz (531 mm x 299 mm)
                  Hfront   96 Hsync 152 Hback  248 Hpol P
                  Vfront    3 Vsync   6 Vback   33 Vpol N
    DTD 10:  1280x720    74.919177 Hz  16:9     55.890 kHz     76.010000 MHz (531 mm x 299 mm)
                  Hfront    8 Hsync  32 Hback   40 Hpol P
                  Vfront   12 Vsync   8 Vback    6 Vpol N
    DTD 11:  1280x800    74.934142 Hz  16:10    62.795 kHz    106.500000 MHz (531 mm x 299 mm)
                  Hfront   80 Hsync 128 Hback  208 Hpol P
                  Vfront    3 Vsync   6 Vback   29 Vpol N
Checksum: 0x8f  Unused space in Extension Block: 3 bytes

----------------

Warnings:

Block 1, CTA-861 Extension Block:
  Detailed Timing Descriptor #4: DTD is similar but not identical to DMT 0x30.
  Detailed Timing Descriptor #6: DTD is similar but not identical to DMT 0x1d.
  Display Product Serial Number is set, so the Serial Number in the Base EDID should be 0.
  Add a Colorimetry Data Block with the sRGB colorimetry bit set to avoid interop issues.
Block 3, CTA-861 Extension Block:
  Detailed Timing Descriptor #9: DTD is similar but not identical to DMT 0x30.
  Detailed Timing Descriptor #11: DTD is similar but not identical to DMT 0x1d.
  Display Product Serial Number is set, so the Serial Number in the Base EDID should be 0.
  Add a Colorimetry Data Block with the sRGB colorimetry bit set to avoid interop issues.

Failures:

Block 0, Base EDID:
  Display Range Limits: 'Bare Limits' is not allowed for EDID < 1.4.
Block 1, CTA-861 Extension Block:
  Video Data Block: Duplicate VIC 19.
Block 2, Base EDID:
  Unknown Extension Block.
Block 3, CTA-861 Extension Block:
  Video Data Block: Duplicate VIC 16.
  Video Data Block: Duplicate VIC 31.
  Video Data Block: Duplicate VIC 4.
  Video Data Block: Duplicate VIC 3.
  Video Data Block: Duplicate VIC 2.
  Video Data Block: Duplicate VIC 1.
  Video Capability Data Block: Only one instance of this Data Block is allowed.
EDID:
  Base EDID: Some timings are out of range of the Monitor Ranges:
    Maximum Clock: 220.637 MHz (Monitor: 180.000 MHz)
  Base EDID: EDID specified 1 extension block(s), but found 3 extension block(s).
  Base EDID: EDID 1.3 requires a Block Map Extension in Block 1 if there are more than 2 blocks in the EDID.

EDID conformity: FAIL
