
EDID (hex):
00ffffffffffff0006af3e3000000000
30150104901f117802a0959959529226
21505400000001010101010101010101
010101010101fc2b40a061841e30402a
330035ae10000018531d40a061841e30
402a330035ae10000018000000000000
00000000000000000000000000000002
000c4cff0a3c64181625642020200032

Extracted contents:
header:          00 ff ff ff ff ff ff 00
serial number:   06 af 3e 30 00 00 00 00 30 15
version:         01 04
basic params:    90 1f 11 78 02
chroma info:     a0 95 99 59 52 92 26 21 50 54
established:     00 00 00
standard:        01 01 01 01 01 01 01 01 01 01 01 01 01 01 01 01
descriptor 1:    fc 2b 40 a0 61 84 1e 30 40 2a 33 00 35 ae 10 00 00 18
descriptor 2:    53 1d 40 a0 61 84 1e 30 40 2a 33 00 35 ae 10 00 00 18
descriptor 3:    00 00 00 00 00 00 00 00 00 00 00 00 00 00 00 00 00 00
descriptor 4:    00 00 00 02 00 0c 4c ff 0a 3c 64 18 16 25 64 20 20 20
extensions:      00
checksum:        32

EDID version: 1.4
Manufacturer: AUO Model 303e Serial Number --
Made in week 48 of 2011
Digital display
6 bits per primary color channel
Digital interface is not defined
Maximum image size: 31 cm x 17 cm
Gamma: 2.20
Supported color formats: RGB 4:4:4
First detailed timing includes the native pixel format and preferred refresh rate
Display x,y Chromaticity:
  Red:   0.5996, 0.3496
  Green: 0.3203, 0.5703
  Blue:  0.1503, 0.1298
  White: 0.3134, 0.3291
Established timings supported:
Standard timings supported:
Detailed mode: Clock 112.600 MHz, 309 mm x 174 mm
               1600 1664 1706 2016 hborder 0
                900  903  906  930 vborder 0
               -hsync -vsync 
               VertFreq: 60 Hz, HorFreq: 55853 Hz
Detailed mode: Clock 75.070 MHz, 309 mm x 174 mm
               1600 1664 1706 2016 hborder 0
                900  903  906  930 vborder 0
               -hsync -vsync 
               VertFreq: 40 Hz, HorFreq: 37237 Hz
Manufacturer-specified data, tag 0
Manufacturer-specified data, tag 2
Checksum: 0x32 (valid)
EDID block does NOT conform to EDID 1.4!
	Missing name descriptor
	Missing monitor ranges
