
EDID (hex):
00ffffffffffff0006af3e3000000000
08190104901f1178021cf59758508e27
27505400000001010101010101010101
010101010101002d409061843c30402a
330035ae1000001a001e409061843c30
402a330035ae1000001a000000fe0036
54483039804231343052543000000000
00004122990011000002010a20200002

Extracted contents:
header:          00 ff ff ff ff ff ff 00
serial number:   06 af 3e 30 00 00 00 00 08 19
version:         01 04
basic params:    90 1f 11 78 02
chroma info:     1c f5 97 58 50 8e 27 27 50 54
established:     00 00 00
standard:        01 01 01 01 01 01 01 01 01 01 01 01 01 01 01 01
descriptor 1:    00 2d 40 90 61 84 3c 30 40 2a 33 00 35 ae 10 00 00 1a
descriptor 2:    00 1e 40 90 61 84 3c 30 40 2a 33 00 35 ae 10 00 00 1a
descriptor 3:    00 00 00 fe 00 36 54 48 30 39 80 42 31 34 30 52 54 30
descriptor 4:    00 00 00 00 00 00 41 22 99 00 11 00 00 02 01 0a 20 20
extensions:      00
checksum:        02

EDID version: 1.4
Manufacturer: AUO Model 303e Serial Number --
Made in week 8 of 2015
Digital display
6 bits per primary color channel
Digital interface is not defined
Maximum image size: 31 cm x 17 cm
Gamma: 2.20
Supported color formats: RGB 4:4:4
First detailed timing includes the native pixel format and preferred refresh rate
Display x,y Chromaticity:
  Red:   0.5898, 0.3447
  Green: 0.3154, 0.5546
  Blue:  0.1552, 0.1552
  White: 0.3134, 0.3291
Established timings supported:
Standard timings supported:
Detailed mode: Clock 115.200 MHz, 309 mm x 174 mm
               1600 1664 1706 2000 hborder 0
                900  903  906  960 vborder 0
               +hsync -vsync 
               VertFreq: 60 Hz, HorFreq: 57600 Hz
Detailed mode: Clock 76.800 MHz, 309 mm x 174 mm
               1600 1664 1706 2000 hborder 0
                900  903  906  960 vborder 0
               +hsync -vsync 
               VertFreq: 40 Hz, HorFreq: 38400 Hz
ASCII string: 6TH09
Manufacturer-specified data, tag 0
Checksum: 0x2 (valid)
EDID block does NOT conform to EDID 1.4!
	Missing name descriptor
	Missing monitor ranges
	Detailed block string not properly terminated
