edid-decode (hex):

00 ff ff ff ff ff ff 00 51 f3 8f 50 00 00 01 80
11 15 01 03 80 33 1d 78 0a d9 45 a2 55 4d a0 27
12 50 54 00 00 00 01 01 01 01 01 01 01 01 01 01
01 01 01 01 01 01 40 38 80 00 71 38 14 40 60 40
84 00 fd 1e 11 00 00 19 00 00 00 00 00 00 00 00
00 00 00 00 00 00 00 00 00 00 00 00 00 fc 00 54
4f 53 48 49 42 41 0a 20 20 20 20 20 00 00 00 ff
00 0a 20 20 20 20 20 20 20 20 20 20 20 20 00 60

----------------

Block 0, Base EDID:
  EDID Structure Version & Revision: 1.3
  Vendor & Product Identification:
    Manufacturer: TOS
    Model: 20623
    Serial Number: ...
    Made in: week 17 of 2011
  Basic Display Parameters & Features:
    Digital display
    Maximum image size: 51 cm x 29 cm
    Gamma: 2.20
    RGB color display
    First detailed timing is the preferred timing
  Color Characteristics:
    Red  : 0.6357, 0.3330
    Green: 0.3027, 0.6259
    Blue : 0.1533, 0.0703
    White: 0.3134, 0.3291
  Established Timings I & II: none
  Standard Timings: none
  Detailed Timing Descriptors:
    DTD 1:  1920x1080   60.160 Hz  16:9    66.176 kHz 144.000 MHz (509 mm x 286 mm)
                 Hfront   96 Hsync  64 Hback  96 Hpol N
                 Vfront    8 Vsync   4 Vback   8 Vpol N
    Empty Descriptor
    Display Product Name: 'TOSHIBA'
    Display Product Serial Number: ...
Checksum: 0x60

----------------

Failures:

Block 0, Base EDID:
  Empty Descriptor: Use Dummy Descriptor instead of all zeroes.
  Display Product Serial Number: Empty string.
  Missing Display Range Limits Descriptor.

EDID conformity: FAIL
