edid-decode (hex):

00 ff ff ff ff ff ff 00 51 f3 8f 50 00 00 03 80
11 15 01 03 80 33 1d 78 0a 37 74 a4 55 4d 9c 25
11 50 54 00 00 00 01 01 01 01 01 01 01 01 01 01
01 01 01 01 01 01 40 38 80 00 71 38 14 40 60 40
84 00 d6 2c 11 00 00 1e 50 46 80 00 71 38 14 40
60 40 84 00 d6 2c 11 00 00 1e 00 00 00 fd 00 38
55 1f 5e 15 00 0a 20 20 20 20 20 20 00 00 00 fc
00 54 4f 53 48 49 42 41 0a 20 20 20 20 20 00 25

----------------

Block 0, Base EDID:
  EDID Structure Version & Revision: 1.3
  Vendor & Product Identification:
    Manufacturer: TOS
    Model: 20623
    Serial Number: ...
    Made in: week 17 of 2011
  Basic Display Parameters & Features:
    Digital display
    Maximum image size: 51 cm x 29 cm
    Gamma: 2.20
    RGB color display
    First detailed timing is preferred timing
  Color Characteristics:
    Red  : 0.6406, 0.3349
    Green: 0.3017, 0.6123
    Blue : 0.1455, 0.0693
    White: 0.3134, 0.3281
  Established Timings I & II: none
  Standard Timings: none
  Detailed Timing Descriptors:
    DTD 1:  1920x1080   60.160 Hz  16:9    66.176 kHz 144.000 MHz (470 mm x 300 mm)
                 Hfront   96 Hsync  64 Hback  96 Hpol P
                 Vfront    8 Vsync   4 Vback   8 Vpol P
    DTD 2:  1920x1080   75.201 Hz  16:9    82.721 kHz 180.000 MHz (470 mm x 300 mm)
                 Hfront   96 Hsync  64 Hback  96 Hpol P
                 Vfront    8 Vsync   4 Vback   8 Vpol P
  Display Range Limits:
    Monitor ranges (GTF): 56-85 Hz V, 31-94 kHz H, max dotclock 210 MHz
    Display Product Name: 'TOSHIBA'
Checksum: 0x25

----------------

Failures:

Block 0, Base EDID:
  Detailed Timing Descriptor #1: Mismatch of image size 470x300 mm vs display size 510x290 mm.
  Detailed Timing Descriptor #2: Mismatch of image size 470x300 mm vs display size 510x290 mm.

EDID conformity: FAIL
