
EDID (hex):
00ffffffffffff00593a670001010101
26150103083a20782a726da157539d26
0b474aa5660001010101010101010101
010101010101662150b051001b304070
36003f432100001e6419004041002630
188836003f4321000018000000fc0045
32363156410a202020202020000000fd
003a4c1e3d09000a2020202020200086

Extracted contents:
header:          00 ff ff ff ff ff ff 00
serial number:   59 3a 67 00 01 01 01 01 26 15
version:         01 03
basic params:    08 3a 20 78 2a
chroma info:     72 6d a1 57 53 9d 26 0b 47 4a
established:     a5 66 00
standard:        01 01 01 01 01 01 01 01 01 01 01 01 01 01 01 01
descriptor 1:    66 21 50 b0 51 00 1b 30 40 70 36 00 3f 43 21 00 00 1e
descriptor 2:    64 19 00 40 41 00 26 30 18 88 36 00 3f 43 21 00 00 18
descriptor 3:    00 00 00 fc 00 45 32 36 31 56 41 0a 20 20 20 20 20 20
descriptor 4:    00 00 00 fd 00 3a 4c 1e 3d 09 00 0a 20 20 20 20 20 20
extensions:      00
checksum:        86

EDID version: 1.3
Manufacturer: VIZ Model 67 Serial Number --
Made in week 38 of 2011
Analog display, Input voltage level: 0.7/0.3 V
Sync: Separate 
Maximum image size: 58 cm x 32 cm
Gamma: 2.20
DPMS levels: Off
RGB color display
First detailed timing is preferred timing
Display x,y Chromaticity:
  Red:   0.6298, 0.3427
  Green: 0.3242, 0.6152
  Blue:  0.1494, 0.0449
  White: 0.2802, 0.2900
Established timings supported:
  720x400@70Hz 9:5 HorFreq: 31469 Hz Clock: 28.320 MHz
  640x480@60Hz 4:3 HorFreq: 31469 Hz Clock: 25.175 MHz
  640x480@75Hz 4:3 HorFreq: 37500 Hz Clock: 31.500 MHz
  800x600@60Hz 4:3 HorFreq: 37900 Hz Clock: 40.000 MHz
  800x600@75Hz 4:3 HorFreq: 46900 Hz Clock: 49.500 MHz
  832x624@75Hz 4:3 HorFreq: 49726 Hz Clock: 57.284 MHz
  1024x768@70Hz 4:3 HorFreq: 56500 Hz Clock: 75.000 MHz
  1024x768@75Hz 4:3 HorFreq: 60000 Hz Clock: 78.750 MHz
Standard timings supported:
Detailed mode: Clock 85.500 MHz, 575 mm x 323 mm
               1360 1424 1536 1792 hborder 0
                768  771  777  795 vborder 0
               +hsync +vsync 
               VertFreq: 60 Hz, HorFreq: 47712 Hz
Detailed mode: Clock 65.000 MHz, 575 mm x 323 mm
               1024 1048 1184 1344 hborder 0
                768  771  777  806 vborder 0
               -hsync -vsync 
               VertFreq: 60 Hz, HorFreq: 48363 Hz
Monitor name: E261VA
Monitor ranges (GTF): 58-76Hz V, 30-61kHz H, max dotclock 90MHz
Checksum: 0x86 (valid)
