
EDID (hex):
00ffffffffffff00593a670001010101
00150103684627782aa81aa2554a9a25
0f474aa54a00d1c00101010101010101
010101010101023a801871382d40582c
4500ba882100001e011d007251d01e20
6e285500ba882100001e000000fc0045
33323056540a202020202020000000fd
00374c0f4b10000a20202020202000fb

Extracted contents:
header:          00 ff ff ff ff ff ff 00
serial number:   59 3a 67 00 01 01 01 01 00 15
version:         01 03
basic params:    68 46 27 78 2a
chroma info:     a8 1a a2 55 4a 9a 25 0f 47 4a
established:     a5 4a 00
standard:        d1 c0 01 01 01 01 01 01 01 01 01 01 01 01 01 01
descriptor 1:    02 3a 80 18 71 38 2d 40 58 2c 45 00 ba 88 21 00 00 1e
descriptor 2:    01 1d 00 72 51 d0 1e 20 6e 28 55 00 ba 88 21 00 00 1e
descriptor 3:    00 00 00 fc 00 45 33 32 30 56 54 0a 20 20 20 20 20 20
descriptor 4:    00 00 00 fd 00 37 4c 0f 4b 10 00 0a 20 20 20 20 20 20
extensions:      00
checksum:        fb

EDID version: 1.3
Manufacturer: VIZ Model 67 Serial Number --
Made in year 2011
Analog display, Input voltage level: 0.7/0.7 V
Sync: Separate 
Maximum image size: 70 cm x 39 cm
Gamma: 2.20
DPMS levels: Off
RGB color display
First detailed timing is preferred timing
Display x,y Chromaticity:
  Red:   0.6347, 0.3339
  Green: 0.2910, 0.6015
  Blue:  0.1445, 0.0595
  White: 0.2792, 0.2910
Established timings supported:
  720x400@70Hz 9:5 HorFreq: 31469 Hz Clock: 28.320 MHz
  640x480@60Hz 4:3 HorFreq: 31469 Hz Clock: 25.175 MHz
  640x480@75Hz 4:3 HorFreq: 37500 Hz Clock: 31.500 MHz
  800x600@60Hz 4:3 HorFreq: 37900 Hz Clock: 40.000 MHz
  800x600@75Hz 4:3 HorFreq: 46900 Hz Clock: 49.500 MHz
  1024x768@60Hz 4:3 HorFreq: 48400 Hz Clock: 65.000 MHz
  1024x768@75Hz 4:3 HorFreq: 60000 Hz Clock: 78.750 MHz
Standard timings supported:
  1920x1080@60Hz 16:9
Detailed mode: Clock 148.500 MHz, 698 mm x 392 mm
               1920 2008 2052 2200 hborder 0
               1080 1084 1089 1125 vborder 0
               +hsync +vsync 
               VertFreq: 60 Hz, HorFreq: 67500 Hz
Detailed mode: Clock 74.250 MHz, 698 mm x 392 mm
               1280 1390 1430 1650 hborder 0
                720  725  730  750 vborder 0
               +hsync +vsync 
               VertFreq: 60 Hz, HorFreq: 45000 Hz
Monitor name: E320VT
Monitor ranges (GTF): 55-76Hz V, 15-75kHz H, max dotclock 160MHz
Checksum: 0xfb (valid)
