
EDID (hex):
00ffffffffffff005262080101010101
ff130104a5522e780275dba3554a9c24
10474aafce0081c08180010101010101
010101010101662150b051001b304070
360033cc3100001e0e1f008051001e30
4080370033cc3100001c000000fc0054
4f53484942412d54560a2020000000fd
00384c1f410b000a202020202020000e

Extracted contents:
header:          00 ff ff ff ff ff ff 00
serial number:   52 62 08 01 01 01 01 01 ff 13
version:         01 04
basic params:    a5 52 2e 78 02
chroma info:     75 db a3 55 4a 9c 24 10 47 4a
established:     af ce 00
standard:        81 c0 81 80 01 01 01 01 01 01 01 01 01 01 01 01
descriptor 1:    66 21 50 b0 51 00 1b 30 40 70 36 00 33 cc 31 00 00 1e
descriptor 2:    0e 1f 00 80 51 00 1e 30 40 80 37 00 33 cc 31 00 00 1c
descriptor 3:    00 00 00 fc 00 54 4f 53 48 49 42 41 2d 54 56 0a 20 20
descriptor 4:    00 00 00 fd 00 38 4c 1f 41 0b 00 0a 20 20 20 20 20 20
extensions:      00
checksum:        0e

EDID version: 1.4
Manufacturer: TSB Model 108 Serial Number --
Model year 2009
Digital display
8 bits per primary color channel
DisplayPort interface
Maximum image size: 82 cm x 46 cm
Gamma: 2.20
Supported color formats: RGB 4:4:4
First detailed timing includes the native pixel format and preferred refresh rate
Display x,y Chromaticity:
  Red:   0.6376, 0.3349
  Green: 0.2900, 0.6103
  Blue:  0.1435, 0.0634
  White: 0.2792, 0.2919
Established timings supported:
  720x400@70Hz 9:5 HorFreq: 31469 Hz Clock: 28.320 MHz
  640x480@60Hz 4:3 HorFreq: 31469 Hz Clock: 25.175 MHz
  640x480@72Hz 4:3 HorFreq: 37900 Hz Clock: 31.500 MHz
  640x480@75Hz 4:3 HorFreq: 37500 Hz Clock: 31.500 MHz
  800x600@56Hz 4:3 HorFreq: 35200 Hz Clock: 36.000 MHz
  800x600@60Hz 4:3 HorFreq: 37900 Hz Clock: 40.000 MHz
  800x600@72Hz 4:3 HorFreq: 48100 Hz Clock: 50.000 MHz
  800x600@75Hz 4:3 HorFreq: 46900 Hz Clock: 49.500 MHz
  1024x768@60Hz 4:3 HorFreq: 48400 Hz Clock: 65.000 MHz
  1024x768@70Hz 4:3 HorFreq: 56500 Hz Clock: 75.000 MHz
  1024x768@75Hz 4:3 HorFreq: 60000 Hz Clock: 78.750 MHz
Standard timings supported:
  1280x720@60Hz 16:9
  1280x1024@60Hz 5:4 HorFreq: 64000 Hz Clock: 108.000 MHz
Detailed mode: Clock 85.500 MHz, 819 mm x 460 mm
               1360 1424 1536 1792 hborder 0
                768  771  777  795 vborder 0
               +hsync +vsync 
               VertFreq: 60 Hz, HorFreq: 47712 Hz
Detailed mode: Clock 79.500 MHz, 819 mm x 460 mm
               1280 1344 1472 1664 hborder 0
                768  771  778  798 vborder 0
               -hsync +vsync 
               VertFreq: 59 Hz, HorFreq: 47776 Hz
Monitor name: TOSHIBA-TV
Monitor ranges (GTF): 56-76Hz V, 31-65kHz H, max dotclock 110MHz
Checksum: 0xe (valid)
