edid-decode (hex):

00 ff ff ff ff ff ff 00 09 e5 41 06 00 00 00 00
01 18 01 04 a5 22 13 78 02 f6 a0 99 59 51 94 2d
1f 50 54 00 00 00 01 01 01 01 01 01 01 01 01 01
01 01 01 01 01 01 3c 3c 80 02 71 38 64 40 30 20
36 00 58 c1 10 00 00 1a d2 24 80 de 70 38 14 40
64 64 44 05 58 c1 10 00 00 1a 00 00 00 00 00 00
00 00 00 00 00 00 00 00 00 00 00 00 00 00 00 02
00 0c 43 f9 0b 3c 6e 1e 16 28 6f 00 00 00 00 74

----------------

Block 0, Base EDID:
  EDID Structure Version & Revision: 1.4
  Vendor & Product Identification:
    Manufacturer: BOE
    Model: 1601
    Made in: week 1 of 2014
  Basic Display Parameters & Features:
    Digital display
    Bits per primary color channel: 8
    DisplayPort interface
    Maximum image size: 34 cm x 19 cm
    Gamma: 2.20
    Supported color formats: RGB 4:4:4
    First detailed timing includes the native pixel format and preferred refresh rate
  Color Characteristics:
    Red  : 0.6005, 0.3505
    Green: 0.3173, 0.5800
    Blue : 0.1777, 0.1230
    White: 0.3125, 0.3281
  Established Timings I & II: none
  Standard Timings: none
  Detailed Timing Descriptors:
    DTD 1:  1920x1080   59.999 Hz  16:9    70.799 kHz 154.200 MHz (344 mm x 193 mm)
                 Hfront   48 Hsync  32 Hback 178 Hpol P
                 Vfront    3 Vsync   6 Vback  91 Vpol N
    DTD 2:  1920x1080   40.005 Hz  16:9    44.006 kHz  94.260 MHz (344 mm x 193 mm)
                 Hfront  100 Hsync 100 Hback  22 Hpol P
                 Vfront   20 Vsync  20 Vback -20 Vpol N
    Empty Descriptor
    Manufacturer-Specified Display Descriptor (0x02): 00 02 00 0c 43 f9 0b 3c 6e 1e 16 28 6f 00 00 00 '....C..<n..(o...'
Checksum: 0x74
