
EDID (hex):
00ffffffffffff00244d4e1a01010101
1a0e0104a5221b78e22ee5a4574a9c25
115054bfef808180818c714f01010101
010101010101302a009851002a403070
1300520e1100001e000000fd00374b1f
510e000a202020202020000000ff0036
362d30333832300a20202020000000fc
0049424d204c3137300a2020202000b5

Extracted contents:
header:          00 ff ff ff ff ff ff 00
serial number:   24 4d 4e 1a 01 01 01 01 1a 0e
version:         01 04
basic params:    a5 22 1b 78 e2
chroma info:     2e e5 a4 57 4a 9c 25 11 50 54
established:     bf ef 80
standard:        81 80 81 8c 71 4f 01 01 01 01 01 01 01 01 01 01
descriptor 1:    30 2a 00 98 51 00 2a 40 30 70 13 00 52 0e 11 00 00 1e
descriptor 2:    00 00 00 fd 00 37 4b 1f 51 0e 00 0a 20 20 20 20 20 20
descriptor 3:    00 00 00 ff 00 36 36 2d 30 33 38 32 30 0a 20 20 20 20
descriptor 4:    00 00 00 fc 00 49 42 4d 20 4c 31 37 30 0a 20 20 20 20
extensions:      00
checksum:        b5

EDID version: 1.4
Manufacturer: IBM Model 1a4e Serial Number --
Digital display
8 bits per primary color channel
DisplayPort interface
Maximum image size: 34 cm x 27 cm
Gamma: 2.20
DPMS levels: Standby Suspend Off
Supported color formats: RGB 4:4:4
First detailed timing includes the native pixel format and preferred refresh rate
Display x,y Chromaticity:
  Red:   0.6406, 0.3417
  Green: 0.2919, 0.6113
  Blue:  0.1474, 0.0683
  White: 0.3134, 0.3291
Established timings supported:
  720x400@70Hz 9:5 HorFreq: 31469 Hz Clock: 28.320 MHz
  640x480@60Hz 4:3 HorFreq: 31469 Hz Clock: 25.175 MHz
  640x480@67Hz 4:3 HorFreq: 35000 Hz Clock: 30.240 MHz
  640x480@72Hz 4:3 HorFreq: 37900 Hz Clock: 31.500 MHz
  640x480@75Hz 4:3 HorFreq: 37500 Hz Clock: 31.500 MHz
  800x600@56Hz 4:3 HorFreq: 35200 Hz Clock: 36.000 MHz
  800x600@60Hz 4:3 HorFreq: 37900 Hz Clock: 40.000 MHz
  800x600@72Hz 4:3 HorFreq: 48100 Hz Clock: 50.000 MHz
  800x600@75Hz 4:3 HorFreq: 46900 Hz Clock: 49.500 MHz
  832x624@75Hz 4:3 HorFreq: 49726 Hz Clock: 57.284 MHz
  1024x768@60Hz 4:3 HorFreq: 48400 Hz Clock: 65.000 MHz
  1024x768@70Hz 4:3 HorFreq: 56500 Hz Clock: 75.000 MHz
  1024x768@75Hz 4:3 HorFreq: 60000 Hz Clock: 78.750 MHz
  1280x1024@75Hz 5:4 HorFreq: 80000 Hz Clock: 135.000 MHz
  1152x870@75Hz 192:145 HorFreq: 67500 Hz Clock: 108.000 MHz
Standard timings supported:
  1280x1024@60Hz 5:4 HorFreq: 64000 Hz Clock: 108.000 MHz
  1280x1024@72Hz 5:4
  1152x864@75Hz 4:3 HorFreq: 67500 Hz Clock: 108.000 MHz
Detailed mode: Clock 108.000 MHz, 338 mm x 270 mm
               1280 1328 1440 1688 hborder 0
               1024 1025 1028 1066 vborder 0
               +hsync +vsync 
               VertFreq: 60 Hz, HorFreq: 63981 Hz
Monitor ranges (GTF): 55-75Hz V, 31-81kHz H, max dotclock 140MHz
Serial number: --
Monitor name: IBM L170
Checksum: 0xb5 (valid)
EDID block does not conform at all!
	Bad year of manufacture


