
EDID (hex):
00ffffffffffff0006106a9c01010101
00100103802b1b780acf74a2574a9c25
11505400001001010101010101010101
0101010101017c2e90a0601a1e403020
3600b10e1100001c0000000100061030
11080000000000000a20000000fe004c
4d3230315745332d544c4631000000fc
00436f6c6f72204c43440a202020002b

Extracted contents:
header:          00 ff ff ff ff ff ff 00
serial number:   06 10 6a 9c 01 01 01 01 00 10
version:         01 03
basic params:    80 2b 1b 78 0a
chroma info:     cf 74 a2 57 4a 9c 25 11 50 54
established:     00 00 10
standard:        01 01 01 01 01 01 01 01 01 01 01 01 01 01 01 01
descriptor 1:    7c 2e 90 a0 60 1a 1e 40 30 20 36 00 b1 0e 11 00 00 1c
descriptor 2:    00 00 00 01 00 06 10 30 11 08 00 00 00 00 00 00 0a 20
descriptor 3:    00 00 00 fe 00 4c 4d 32 30 31 57 45 33 2d 54 4c 46 31
descriptor 4:    00 00 00 fc 00 43 6f 6c 6f 72 20 4c 43 44 0a 20 20 20
extensions:      00
checksum:        2b

EDID version: 1.3
Manufacturer: APP Model 9c6a Serial Number --
Made in year 2006
Digital display
Maximum image size: 43 cm x 27 cm
Gamma: 2.20
RGB color display
First detailed timing is preferred timing
Display x,y Chromaticity:
  Red:   0.6357, 0.3398
  Green: 0.2919, 0.6123
  Blue:  0.1455, 0.0693
  White: 0.3134, 0.3281
Established timings supported:
Standard timings supported:
Detailed mode: Clock 119.000 MHz, 433 mm x 270 mm
               1680 1728 1760 1840 hborder 0
               1050 1053 1059 1080 vborder 0
               -hsync +vsync 
               VertFreq: 59 Hz, HorFreq: 64673 Hz
Manufacturer-specified data, tag 1
ASCII string: LM201WE3-TLF1
Monitor name: Color LCD
Checksum: 0x2b (valid)
EDID block does NOT conform to EDID 1.3!
	Missing monitor ranges
