
EDID (hex):
00ffffffffffff0025cc060000000000
00130103902213780ac8859e57549b26
12505400000001010101010101010101
010101010101c61b567f500019301f15
340058c21000001ac61b567f50001930
1f15340058c21000001a000000fe0057
34363652803135364757303200000000
00000000000000000001010a202000ef

Extracted contents:
header:          00 ff ff ff ff ff ff 00
serial number:   25 cc 06 00 00 00 00 00 00 13
version:         01 03
basic params:    90 22 13 78 0a
chroma info:     c8 85 9e 57 54 9b 26 12 50 54
established:     00 00 00
standard:        01 01 01 01 01 01 01 01 01 01 01 01 01 01 01 01
descriptor 1:    c6 1b 56 7f 50 00 19 30 1f 15 34 00 58 c2 10 00 00 1a
descriptor 2:    c6 1b 56 7f 50 00 19 30 1f 15 34 00 58 c2 10 00 00 1a
descriptor 3:    00 00 00 fe 00 57 34 36 36 52 80 31 35 36 47 57 30 32
descriptor 4:    00 00 00 00 00 00 00 00 00 00 00 00 00 01 01 0a 20 20
extensions:      00
checksum:        ef

EDID version: 1.3
Manufacturer: INL Model 6 Serial Number --
Made in year 2009
Digital display
Maximum image size: 34 cm x 19 cm
Gamma: 2.20
RGB color display
First detailed timing is preferred timing
Display x,y Chromaticity:
  Red:   0.6201, 0.3398
  Green: 0.3300, 0.6054
  Blue:  0.1503, 0.0703
  White: 0.3134, 0.3291
Established timings supported:
Standard timings supported:
Detailed mode: Clock 71.100 MHz, 344 mm x 194 mm
               1366 1397 1418 1493 hborder 0
                768  771  775  793 vborder 0
               +hsync -vsync 
               VertFreq: 60 Hz, HorFreq: 47622 Hz
Detailed mode: Clock 71.100 MHz, 344 mm x 194 mm
               1366 1397 1418 1493 hborder 0
                768  771  775  793 vborder 0
               +hsync -vsync 
               VertFreq: 60 Hz, HorFreq: 47622 Hz
ASCII string: W466R
Manufacturer-specified data, tag 0
Checksum: 0xef (valid)
EDID block does NOT conform to EDID 1.3!
	Digital display field contains garbage: 10
	Missing name descriptor
	Missing monitor ranges
	Detailed block string not properly terminated
