
EDID (hex):
00ffffffffffff00220e9e3601010101
03200104682917782a2cc5a45650a128
0f5054a1080081c00101010101010101
010101010101201c5686500020300e38
13009ae61000001e000000fd00323c1e
500b000a202020202020000000fc0048
50205631390a202020202020000000ff
00334351323033314235420a202000a3

Extracted contents:
header:          00 ff ff ff ff ff ff 00
serial number:   22 0e 9e 36 01 01 01 01 03 20
version:         01 04
basic params:    68 29 17 78 2a
chroma info:     2c c5 a4 56 50 a1 28 0f 50 54
established:     a1 08 00
standard:        81 c0 01 01 01 01 01 01 01 01 01 01 01 01 01 01
descriptor 1:    20 1c 56 86 50 00 20 30 0e 38 13 00 9a e6 10 00 00 1e
descriptor 2:    00 00 00 fd 00 32 3c 1e 50 0b 00 0a 20 20 20 20 20 20
descriptor 3:    00 00 00 fc 00 48 50 20 56 31 39 0a 20 20 20 20 20 20
descriptor 4:    00 00 00 ff 00 33 43 51 32 30 33 31 42 35 42 0a 20 20
extensions:      00
checksum:        a3

EDID version: 1.4
Manufacturer: HPN Model 369e Serial Number --
Made in week 3 of 2022
Analog display, Input voltage level: 0.7/0.7 V
Blank level equals black level
Sync: Separate 
Maximum image size: 41 cm x 23 cm
Gamma: 2.20
DPMS levels: Off
RGB color display
First detailed timing includes the native pixel format and preferred refresh rate
Display x,y Chromaticity:
  Red:   0.6406, 0.3378
  Green: 0.3154, 0.6289
  Blue:  0.1591, 0.0585
  White: 0.3134, 0.3291
Established timings supported:
  720x400@70Hz 9:5 HorFreq: 31469 Hz Clock: 28.320 MHz
  640x480@60Hz 4:3 HorFreq: 31469 Hz Clock: 25.175 MHz
  800x600@60Hz 4:3 HorFreq: 37900 Hz Clock: 40.000 MHz
  1024x768@60Hz 4:3 HorFreq: 48400 Hz Clock: 65.000 MHz
Standard timings supported:
  1280x720@60Hz 16:9
Detailed mode: Clock 72.000 MHz, 410 mm x 230 mm
               1366 1380 1436 1500 hborder 0
                768  769  772  800 vborder 0
               +hsync +vsync 
               VertFreq: 60 Hz, HorFreq: 48000 Hz
Monitor ranges (GTF): 50-60Hz V, 30-80kHz H, max dotclock 110MHz
Monitor name: HP V19
Serial number: --
Checksum: 0xa3 (valid)
Warning: One or more of the timings is out of range of the Monitor Ranges:
  Vertical Freq: 60 - 70 Hz
  Horizontal Freq: 31469 - 48400 Hz
  Maximum Clock: 72.000 MHz
