
EDID (hex):
00ffffffffffff0006af7b1800000000
01110103802115780a87f594574f8c27
27505400000001010101010101010101
0101010101017c2e90a0601a1e403020
36004bcf100000190000000000000000
00000000000000000000000000fe004a
543333310042313534535731000000fe
002939454d6f8eb4ff02010a202000d8

edid-decode (hex):

00 ff ff ff ff ff ff 00 06 af 7b 18 00 00 00 00
01 11 01 03 80 21 15 78 0a 87 f5 94 57 4f 8c 27
27 50 54 00 00 00 01 01 01 01 01 01 01 01 01 01
01 01 01 01 01 01 7c 2e 90 a0 60 1a 1e 40 30 20
36 00 4b cf 10 00 00 19 00 00 00 00 00 00 00 00
00 00 00 00 00 00 00 00 00 00 00 00 00 fe 00 4a
54 33 33 31 00 42 31 35 34 53 57 31 00 00 00 fe
00 29 39 45 4d 6f 8e b4 ff 02 01 0a 20 20 00 d8

----------------

Block 0, Base EDID:
  EDID Structure Version & Revision: 1.3
  Vendor & Product Identification:
    Manufacturer: AUO
    Model: 6267
    Made in: week 1 of 2007
  Basic Display Parameters & Features:
    Digital display
    Maximum image size: 33 cm x 21 cm
    Gamma: 2.20
    RGB color display
    First detailed timing is the preferred timing
  Color Characteristics:
    Red  : 0.5800, 0.3398
    Green: 0.3095, 0.5498
    Blue : 0.1552, 0.1552
    White: 0.3134, 0.3291
  Established Timings I & II: none
  Standard Timings: none
  Detailed Timing Descriptors:
    DTD 1:  1680x1050   59.883253 Hz  16:10    64.674 kHz    119.000000 MHz (331 mm x 207 mm)
                 Hfront   48 Hsync  32 Hback   80 Hpol N
                 Vfront    3 Vsync   6 Vback   21 Vpol N
    Empty Descriptor
    Alphanumeric Data String: 'JT331'
    Alphanumeric Data String: ')9EMo'
Checksum: 0xd8
