
EDID (hex):
00ffffffffffff0006af2d1000000000
001b0104951d117802c3149358599229
22515700000001010101010101010101
010101010101143780b8703824401010
3e0025a51000001a242c80b870382440
10103e0025a51000001a000000fe0034
46485039804231333348414200000000
0000412296001100000a010a20200074

Extracted contents:
header:          00 ff ff ff ff ff ff 00
serial number:   06 af 2d 10 00 00 00 00 00 1b
version:         01 04
basic params:    95 1d 11 78 02
chroma info:     c3 14 93 58 59 92 29 22 51 57
established:     00 00 00
standard:        01 01 01 01 01 01 01 01 01 01 01 01 01 01 01 01
descriptor 1:    14 37 80 b8 70 38 24 40 10 10 3e 00 25 a5 10 00 00 1a
descriptor 2:    24 2c 80 b8 70 38 24 40 10 10 3e 00 25 a5 10 00 00 1a
descriptor 3:    00 00 00 fe 00 34 46 48 50 39 80 42 31 33 33 48 41 42
descriptor 4:    00 00 00 00 00 00 41 22 96 00 11 00 00 0a 01 0a 20 20
extensions:      00
checksum:        74

EDID version: 1.4
Manufacturer: AUO Model 102d Serial Number --
Made in year 2017
Digital display
6 bits per primary color channel
DisplayPort interface
Maximum image size: 29 cm x 17 cm
Gamma: 2.20
Supported color formats: RGB 4:4:4
First detailed timing includes the native pixel format and preferred refresh rate
Display x,y Chromaticity:
  Red:   0.5771, 0.3437
  Green: 0.3476, 0.5732
  Blue:  0.1601, 0.1337
  White: 0.3173, 0.3398
Established timings supported:
Standard timings supported:
Detailed mode: Clock 141.000 MHz, 293 mm x 165 mm
               1920 1936 1952 2104 hborder 0
               1080 1083 1097 1116 vborder 0
               +hsync -vsync 
               VertFreq: 60 Hz, HorFreq: 67015 Hz
Detailed mode: Clock 113.000 MHz, 293 mm x 165 mm
               1920 1936 1952 2104 hborder 0
               1080 1083 1097 1116 vborder 0
               +hsync -vsync 
               VertFreq: 48 Hz, HorFreq: 53707 Hz
ASCII string: 4FHP9
Manufacturer-specified data, tag 0
Checksum: 0x74 (valid)
EDID block does NOT conform to EDID 1.4!
	Missing name descriptor
	Missing monitor ranges
	Detailed block string not properly terminated


