edid-decode (hex):

00 ff ff ff ff ff ff 00 1d 6b 06 63 01 01 01 01
23 17 01 03 08 a0 5a 78 0a 3c e0 a0 57 47 98 27
12 4c 4c a1 08 00 31 40 95 00 61 40 81 00 81 40
81 80 b3 00 81 c0 02 3a 80 18 71 38 2d 40 58 2c
45 00 80 38 74 00 00 1e 66 21 50 b0 51 00 1b 30
40 70 36 00 55 00 53 00 00 1e 0e 1f 00 80 51 00
22 30 50 80 36 00 00 d0 52 00 00 1c 00 00 00 fc
00 43 48 48 57 4a 54 0a 20 20 20 20 20 20 00 17

00 ff ff ff ff ff ff 00 1d 6b 06 63 01 01 01 01
23 17 01 03 08 a0 5a 78 0a 3c e0 a0 57 47 98 27
12 4c 4c a1 08 00 31 40 95 00 61 40 81 00 81 40
81 80 b3 00 81 c0 02 3a 80 18 71 38 2d 40 58 2c
45 00 80 38 74 00 00 1e 66 21 50 b0 51 00 1b 30
40 70 36 00 55 00 53 00 00 1e 0e 1f 00 80 51 00
22 30 50 80 36 00 00 d0 52 00 00 1c 00 00 00 fc
00 43 48 48 57 4a 54 0a 20 20 20 20 20 20 00 17

----------------

Block 0, Base EDID:
  EDID Structure Version & Revision: 1.3
  Vendor & Product Identification:
    Manufacturer: GKK
    Model: 25350
    Serial Number: ...
    Made in: week 35 of 2013
  Basic Display Parameters & Features:
    Analog display
    Signal Level Standard: 0.700 : 0.300 : 1.000 V p-p
    Blank level equals black level
    Sync: Separate
    Maximum image size: 160 cm x 90 cm
    Gamma: 2.20
    RGB color display
    First detailed timing is the preferred timing
  Color Characteristics:
    Red  : 0.6250, 0.3427
    Green: 0.2802, 0.5937
    Blue : 0.1552, 0.0722
    White: 0.2968, 0.2968
  Established Timings I & II:
    IBM     :   720x400    70.081663 Hz   9:5     31.467 kHz     28.320000 MHz
    DMT 0x04:   640x480    59.940476 Hz   4:3     31.469 kHz     25.175000 MHz
    DMT 0x09:   800x600    60.316541 Hz   4:3     37.879 kHz     40.000000 MHz
    DMT 0x10:  1024x768    60.003840 Hz   4:3     48.363 kHz     65.000000 MHz
  Standard Timings:
    DMT 0x04:   640x480    59.940476 Hz   4:3     31.469 kHz     25.175000 MHz
    DMT 0x2f:  1440x900    59.887445 Hz  16:10    55.935 kHz    106.500000 MHz
    DMT 0x10:  1024x768    60.003840 Hz   4:3     48.363 kHz     65.000000 MHz
    DMT 0x1c:  1280x800    59.810326 Hz  16:10    49.702 kHz     83.500000 MHz
    DMT 0x20:  1280x960    60.000000 Hz   4:3     60.000 kHz    108.000000 MHz
    DMT 0x23:  1280x1024   60.019740 Hz   5:4     63.981 kHz    108.000000 MHz
    DMT 0x3a:  1680x1050   59.954250 Hz  16:10    65.290 kHz    146.250000 MHz
    DMT 0x55:  1280x720    60.000000 Hz  16:9     45.000 kHz     74.250000 MHz
  Detailed Timing Descriptors:
    DTD 1:  1920x1080   60.000000 Hz  16:9     67.500 kHz    148.500000 MHz (1920 mm x 1080 mm)
                 Hfront   88 Hsync  44 Hback  148 Hpol P
                 Vfront    4 Vsync   5 Vback   36 Vpol P
    DTD 2:  1360x768    60.015162 Hz  85:48    47.712 kHz     85.500000 MHz (1365 mm x 768 mm)
                 Hfront   64 Hsync 112 Hback  256 Hpol P
                 Vfront    3 Vsync   6 Vback   18 Vpol P
    DTD 3:  1280x768    59.571624 Hz   5:3     47.776 kHz     79.500000 MHz (1280 mm x 720 mm)
                 Hfront   80 Hsync 128 Hback  176 Hpol N
                 Vfront    3 Vsync   6 Vback   25 Vpol P
    Display Product Name: 'CHHWJT'
Checksum: 0x17

----------------

Block 1, Unknown EDID Extension Block 0x00:
  00 ff ff ff ff ff ff 00 1d 6b 06 63 01 01 01 01 '.........k.c....'
  23 17 01 03 08 a0 5a 78 0a 3c e0 a0 57 47 98 27 '#.....Zx.<..WG.''
  12 4c 4c a1 08 00 31 40 95 00 61 40 81 00 81 40 '.LL...1@..a@...@'
  81 80 b3 00 81 c0 02 3a 80 18 71 38 2d 40 58 2c '.......:..q8-@X,'
  45 00 80 38 74 00 00 1e 66 21 50 b0 51 00 1b 30 'E..8t...f!P.Q..0'
  40 70 36 00 55 00 53 00 00 1e 0e 1f 00 80 51 00 '@p6.U.S.......Q.'
  22 30 50 80 36 00 00 d0 52 00 00 1c 00 00 00 fc '"0P.6...R.......'
  00 43 48 48 57 4a 54 0a 20 20 20 20 20 20 00 17 '.CHHWJT.      ..'
Checksum: 0x17

----------------

Failures:

Block 0, Base EDID:
  Detailed Timing Descriptor #1: Mismatch of image size 1920x1080 mm vs display size 1600x900 mm.
  Detailed Timing Descriptor #2: Mismatch of image size 1365x768 mm vs display size 1600x900 mm.
  Detailed Timing Descriptor #3: Mismatch of image size 1280x720 mm vs display size 1600x900 mm.
  Missing Display Range Limits Descriptor.
Block 1, Base EDID:
  Unknown Extension Block.
EDID:
  Base EDID: The DTD max image size is 1920x1080mm, which is larger than the display size 1600.0x900.0mm.
  Base EDID: EDID specified 0 extension block(s), but found 1 extension block(s).

EDID conformity: FAIL
