
EDID (hex):
00ffffffffffff0030aec56501010101
1c1a01036c301b782ac7b5a756539c27
105054a10800b30081809500a9c0d1c0
010101010101023a801871382d40582c
4500dc0c1100001e000000ff00553338
57473037390a20202020000000fd0030
4c1e5315000a202020202020000000fc
004c454e204c4932323634640a20002c

Extracted contents:
header:          00 ff ff ff ff ff ff 00
serial number:   30 ae c5 65 01 01 01 01 1c 1a
version:         01 03
basic params:    6c 30 1b 78 2a
chroma info:     c7 b5 a7 56 53 9c 27 10 50 54
established:     a1 08 00
standard:        b3 00 81 80 95 00 a9 c0 d1 c0 01 01 01 01 01 01
descriptor 1:    02 3a 80 18 71 38 2d 40 58 2c 45 00 dc 0c 11 00 00 1e
descriptor 2:    00 00 00 ff 00 55 33 38 57 47 30 37 39 0a 20 20 20 20
descriptor 3:    00 00 00 fd 00 30 4c 1e 53 15 00 0a 20 20 20 20 20 20
descriptor 4:    00 00 00 fc 00 4c 45 4e 20 4c 49 32 32 36 34 64 0a 20
extensions:      00
checksum:        2c

EDID version: 1.3
Manufacturer: LEN Model 65c5 Serial Number --
Made in week 28 of 2016
Analog display, Input voltage level: 0.7/0.7 V
Sync: Separate Composite 
Maximum image size: 48 cm x 27 cm
Gamma: 2.20
DPMS levels: Off
RGB color display
First detailed timing is preferred timing
Display x,y Chromaticity:
  Red:   0.6552, 0.3359
  Green: 0.3251, 0.6123
  Blue:  0.1542, 0.0654
  White: 0.3134, 0.3291
Established timings supported:
  720x400@70Hz 9:5 HorFreq: 31469 Hz Clock: 28.320 MHz
  640x480@60Hz 4:3 HorFreq: 31469 Hz Clock: 25.175 MHz
  800x600@60Hz 4:3 HorFreq: 37900 Hz Clock: 40.000 MHz
  1024x768@60Hz 4:3 HorFreq: 48400 Hz Clock: 65.000 MHz
Standard timings supported:
  1680x1050@60Hz 16:10 HorFreq: 64700 Hz Clock: 119.000 MHz
  1280x1024@60Hz 5:4 HorFreq: 64000 Hz Clock: 108.000 MHz
  1440x900@60Hz 16:10 HorFreq: 55500 Hz Clock: 88.750 MHz
  1600x900@60Hz 16:9
  1920x1080@60Hz 16:9
Detailed mode: Clock 148.500 MHz, 476 mm x 268 mm
               1920 2008 2052 2200 hborder 0
               1080 1084 1089 1125 vborder 0
               +hsync +vsync 
               VertFreq: 60 Hz, HorFreq: 67500 Hz
Serial number: --
Monitor ranges (GTF): 48-76Hz V, 30-83kHz H, max dotclock 210MHz
Monitor name: LEN LI2264d
Checksum: 0x2c (valid)


