edid-decode (hex):

00 ff ff ff ff ff ff 00 4d 10 b8 15 00 00 00 00
1b 22 01 04 b5 1b 12 78 07 ee 95 a3 54 4c 99 26
0f 50 54 00 00 00 01 01 01 01 01 01 01 01 01 01
01 01 01 01 01 01 b8 8c 40 a0 b0 80 37 70 30 20
3a 00 12 b7 10 00 00 18 00 00 00 fd 00 30 3c 77
77 25 01 0a 20 20 20 20 20 20 00 00 00 fe 00 57
39 4e 37 43 80 4c 51 31 33 30 5a 31 00 00 00 00
00 02 41 00 32 01 01 00 00 0b 41 0a 20 20 01 94

70 20 79 02 00 20 00 13 8c 52 19 b8 15 00 00 00
00 1b 18 07 4c 51 31 33 30 5a 31 21 00 1d b3 0a
22 07 40 0b 80 07 88 3d 8a 54 cd a4 99 66 62 0f
02 45 54 d0 5f d0 5f 51 34 13 78 26 00 09 06 00
00 00 00 00 41 00 00 22 00 14 2f 7f 05 08 3f 0b
9f 00 2f 00 1f 00 7f 07 36 00 02 00 09 00 25 01
09 2f 7f 05 2f 7f 05 30 3c 80 81 00 0b e3 05 80
00 e6 06 05 01 6a 6a 3b 00 00 00 00 00 00 1a 90

00 ff ff ff ff ff ff 00 4d 10 b8 15 00 00 00 00
1b 22 01 04 b5 1b 12 78 07 ee 95 a3 54 4c 99 26
0f 50 54 00 00 00 01 01 01 01 01 01 01 01 01 01
01 01 01 01 01 01 b8 8c 40 a0 b0 80 37 70 30 20
3a 00 12 b7 10 00 00 18 00 00 00 fd 00 30 3c 77
77 25 01 0a 20 20 20 20 20 20 00 00 00 fe 00 57
39 4e 37 43 80 4c 51 31 33 30 5a 31 00 00 00 00
00 02 41 00 32 01 01 00 00 0b 41 0a 20 20 01 94

70 20 79 02 00 20 00 13 8c 52 19 b8 15 00 00 00
00 1b 18 07 4c 51 31 33 30 5a 31 21 00 1d b3 0a
22 07 40 0b 80 07 88 3d 8a 54 cd a4 99 66 62 0f
02 45 54 d0 5f d0 5f 51 34 13 78 26 00 09 06 00
00 00 00 00 41 00 00 22 00 14 2f 7f 05 08 3f 0b
9f 00 2f 00 1f 00 7f 07 36 00 02 00 09 00 25 01
09 2f 7f 05 2f 7f 05 30 3c 80 81 00 0b e3 05 80
00 e6 06 05 01 6a 6a 3b 00 00 00 00 00 00 1a 90

----------------

Block 0, Base EDID:
  EDID Structure Version & Revision: 1.4
  Vendor & Product Identification:
    Manufacturer: SHP
    Model: 5560
    Made in: week 27 of 2024
  Basic Display Parameters & Features:
    Digital display
    Bits per primary color channel: 10
    DisplayPort interface
    Maximum image size: 27 cm x 18 cm
    Gamma: 2.20
    Supported color formats: RGB 4:4:4
    Default (sRGB) color space is primary color space
    First detailed timing includes the native pixel format and preferred refresh rate
    Display is continuous frequency
  Color Characteristics:
    Red  : 0.6396, 0.3300
    Green: 0.2998, 0.5996
    Blue : 0.1503, 0.0595
    White: 0.3134, 0.3291
  Established Timings I & II: none
  Standard Timings: none
  Detailed Timing Descriptors:
    DTD 1:  2880x1920   60.000000 Hz   3:2    118.500 kHz    360.240000 MHz (274 mm x 183 mm)
                 Hfront   48 Hsync  32 Hback   80 Hpol N
                 Vfront    3 Vsync  10 Vback   42 Vpol N
    Display Range Limits:
      Monitor ranges (Bare Limits): 48-60 Hz V, 119-119 kHz H, max dotclock 370 MHz
    Alphanumeric Data String: 'W9N7C'
    Manufacturer-Specified Display Descriptor (0x00): 00 00 00 02 41 00 32 01 01 00 00 0b 41 0a 20 20 '....A.2.....A.  '
  Extension blocks: 1
Checksum: 0x94

----------------

Block 1, DisplayID Extension Block:
  Version: 2.0
  Extension Count: 0
  Display Product Primary Use Case: None of the listed primary use cases; generic display
  Product Identification Data Block (0x20), OUI 8C-52-19:
    Product Code: 5560
    Year of Manufacture: 2024, Week 27
    Product ID: LQ130Z1
  Display Parameters Data Block (0x21):
    Image size: 273.9 mm x 182.6 mm
    Display native pixel format: 2880x1920
    Scan Orientation: Left to Right, Top to Bottom
    Luminance Information: Guidance for the Source device
    Color Information: CIE 1931
    Audio Speaker Information: not integrated
    Native Color Chromaticity:
      Primary #1:  (0.639893, 0.330078)
      Primary #2:  (0.300049, 0.600098)
      Primary #3:  (0.149902, 0.060059)
      White Point: (0.312988, 0.329102)
    Native Maximum Luminance (Full Coverage): 500.000000 cd/m^2
    Native Maximum Luminance (10% Rectangular Coverage): 500.000000 cd/m^2
    Native Minimum Luminance: 0.269775 cd/m^2
    Native Color Depth: 12 bpc
    Display Device Technology: Active Matrix LCD
    Native Gamma EOTF: 2.20
  Display Interface Features Data Block:
    Supported bpc for RGB encoding: 8, 10
    Supported color space and EOTF standard combination 1: sRGB, BT.2020/SMPTE ST 2084
  Video Timing Modes Type 7 - Detailed Timings Data Block:
    DTD:  2880x1920   60.000000 Hz   0:0    118.500 kHz    360.240000 MHz (aspect undefined, no 3D stereo)
               Hfront   48 Hsync  32 Hback   80 Hpol N
               Vfront    3 Vsync  10 Vback   42 Vpol N
  Dynamic Video Timing Range Limits Data Block:
    Minimum Pixel Clock: 360240 kHz
    Maximum Pixel Clock: 360240 kHz
    Minimum Vertical Refresh Rate: 48 Hz
    Maximum Vertical Refresh Rate: 60 Hz
    Seamless Dynamic Video Timing Support: Yes
  CTA-861 DisplayID Data Block:
  Colorimetry Data Block:
    BT2020RGB
  HDR Static Metadata Data Block:
    Electro optical transfer functions:
      Traditional gamma - SDR luminance range
      SMPTE ST2084
    Supported static metadata descriptors:
      Static metadata type 1
    Desired content max luminance: 106 (496.743 cd/m^2)
    Desired content max frame-average luminance: 106 (496.743 cd/m^2)
    Desired content min luminance: 59 (0.266 cd/m^2)
  Checksum: 0x1a
Checksum: 0x90

----------------

Block 2, Unknown EDID Extension Block 0x00:
  00 ff ff ff ff ff ff 00 4d 10 b8 15 00 00 00 00 '........M.......'
  1b 22 01 04 b5 1b 12 78 07 ee 95 a3 54 4c 99 26 '.".....x....TL.&'
  0f 50 54 00 00 00 01 01 01 01 01 01 01 01 01 01 '.PT.............'
  01 01 01 01 01 01 b8 8c 40 a0 b0 80 37 70 30 20 '........@...7p0 '
  3a 00 12 b7 10 00 00 18 00 00 00 fd 00 30 3c 77 ':............0<w'
  77 25 01 0a 20 20 20 20 20 20 00 00 00 fe 00 57 'w%..      .....W'
  39 4e 37 43 80 4c 51 31 33 30 5a 31 00 00 00 00 '9N7C.LQ130Z1....'
  00 02 41 00 32 01 01 00 00 0b 41 0a 20 20 01 94 '..A.2.....A.  ..'
Checksum: 0x94

----------------

Block 3, DisplayID Extension Block:
  Version: 2.0
  Extension Count: 0
  Product Identification Data Block (0x20), OUI 8C-52-19:
    Product Code: 5560
    Year of Manufacture: 2024, Week 27
    Product ID: LQ130Z1
  Display Parameters Data Block (0x21):
    Image size: 273.9 mm x 182.6 mm
    Display native pixel format: 2880x1920
    Scan Orientation: Left to Right, Top to Bottom
    Luminance Information: Guidance for the Source device
    Color Information: CIE 1931
    Audio Speaker Information: not integrated
    Native Color Chromaticity:
      Primary #1:  (0.639893, 0.330078)
      Primary #2:  (0.300049, 0.600098)
      Primary #3:  (0.149902, 0.060059)
      White Point: (0.312988, 0.329102)
    Native Maximum Luminance (Full Coverage): 500.000000 cd/m^2
    Native Maximum Luminance (10% Rectangular Coverage): 500.000000 cd/m^2
    Native Minimum Luminance: 0.269775 cd/m^2
    Native Color Depth: 12 bpc
    Display Device Technology: Active Matrix LCD
    Native Gamma EOTF: 2.20
  Display Interface Features Data Block:
    Supported bpc for RGB encoding: 8, 10
    Supported color space and EOTF standard combination 1: sRGB, BT.2020/SMPTE ST 2084
  Video Timing Modes Type 7 - Detailed Timings Data Block:
    DTD:  2880x1920   60.000000 Hz   0:0    118.500 kHz    360.240000 MHz (aspect undefined, no 3D stereo)
               Hfront   48 Hsync  32 Hback   80 Hpol N
               Vfront    3 Vsync  10 Vback   42 Vpol N
  Dynamic Video Timing Range Limits Data Block:
    Minimum Pixel Clock: 360240 kHz
    Maximum Pixel Clock: 360240 kHz
    Minimum Vertical Refresh Rate: 48 Hz
    Maximum Vertical Refresh Rate: 60 Hz
    Seamless Dynamic Video Timing Support: Yes
  CTA-861 DisplayID Data Block:
  Colorimetry Data Block:
    BT2020RGB
  HDR Static Metadata Data Block:
    Electro optical transfer functions:
      Traditional gamma - SDR luminance range
      SMPTE ST2084
    Supported static metadata descriptors:
      Static metadata type 1
    Desired content max luminance: 106 (496.743 cd/m^2)
    Desired content max frame-average luminance: 106 (496.743 cd/m^2)
    Desired content min luminance: 59 (0.266 cd/m^2)
  Checksum: 0x1a
Checksum: 0x90

----------------

Warnings:

Block 0, Base EDID:
  Missing Display Product Name.
Block 1, DisplayID Extension Block:
  Product Identification Data Block (0x20), OUI 8C-52-19: Unknown OUI 8C-52-19.
Block 3, DisplayID Extension Block:
  Product Identification Data Block (0x20), OUI 8C-52-19: Unknown OUI 8C-52-19.

Failures:

Block 0, Base EDID:
  Basic Display Parameters & Features: sRGB is signaled, but the chromaticities do not match.
  Alphanumeric Data String: Non-printable character.
Block 1, DisplayID Extension Block:
  Expected 0 DisplayID Extension Block, but got 1.
Block 2, Base EDID:
  Unknown Extension Block.
Block 3, DisplayID Extension Block:
  Product Type should be 0 in extension block.
  Product Identification Data Block (0x20), OUI 8C-52-19: Product Identification Data Block (0x20), OUI 8C-52-19 is required to be the first DisplayID Data Block.
  Display Parameters Data Block (0x21): Duplicate Display Parameters Data Block.
  Colorimetry Data Block: Only one instance of this Data Block is allowed.
  HDR Static Metadata Data Block: Only one instance of this Data Block is allowed.
EDID:
  Base EDID: EDID specified 1 extension block(s), but found 3 extension block(s).
  DisplayID: DisplayID expects at least one preferred timing.

EDID conformity: FAIL
