
EDID (hex):
00ffffffffffff001e6dd73a01010101
10120103804728780afe25a85337ae24
115054210800a94081809040814081c0
7140010101018c0ad08a20e02d10103e
9600c48e21000018483f403062b03240
40c01300c48e21000018000000fd003b
3c1e5310000a202020202071000000fc
0041463131352d4a530a202020200125
020319324c2221200103840510129314
1f67030c001000282d011d007251d01e
206e285500c48e2100001e011d801871
1c1620582c2500c48e2100009e8c0ad0
90204031200c405500c48e2100001801
1d00bc52d01e20b8285540c48e210000
1e011d80d0721c1620102c2580c48e21
00009e000000000000000000000000dc

Extracted contents:
header:          00 ff ff ff ff ff ff 00
serial number:   1e 6d d7 3a 01 01 01 01 10 12
version:         01 03
basic params:    80 47 28 78 0a
chroma info:     fe 25 a8 53 37 ae 24 11 50 54
established:     21 08 00
standard:        a9 40 81 80 90 40 81 40 81 c0 71 40 01 01 01 01
descriptor 1:    8c 0a d0 8a 20 e0 2d 10 10 3e 96 00 c4 8e 21 00 00 18
descriptor 2:    48 3f 40 30 62 b0 32 40 40 c0 13 00 c4 8e 21 00 00 18
descriptor 3:    00 00 00 fd 00 3b 3c 1e 53 10 00 0a 20 20 20 20 20 71
descriptor 4:    00 00 00 fc 00 41 46 31 31 35 2d 4a 53 0a 20 20 20 20
extensions:      01
checksum:        25

EDID version: 1.3
Manufacturer: GSM Model 3ad7 Serial Number --
Made in week 16 of 2008
Digital display
Maximum image size: 71 cm x 40 cm
Gamma: 2.20
RGB color display
First detailed timing is preferred timing
Display x,y Chromaticity:
  Red:   0.6591, 0.3271
  Green: 0.2177, 0.6816
  Blue:  0.1406, 0.0683
  White: 0.3134, 0.3291
Established timings supported:
  640x480@60Hz 4:3 HorFreq: 31469 Hz Clock: 25.175 MHz
  800x600@60Hz 4:3 HorFreq: 37900 Hz Clock: 40.000 MHz
  1024x768@60Hz 4:3 HorFreq: 48400 Hz Clock: 65.000 MHz
Standard timings supported:
  1600x1200@60Hz 4:3 HorFreq: 75000 Hz Clock: 162.000 MHz
  1280x1024@60Hz 5:4 HorFreq: 64000 Hz Clock: 108.000 MHz
  1400x1050@60Hz 4:3 HorFreq: 64700 Hz Clock: 101.000 MHz
  1280x960@60Hz 4:3 HorFreq: 60000 Hz Clock: 108.000 MHz
  1280x720@60Hz 16:9
  1152x864@60Hz 4:3
Detailed mode: Clock 27.000 MHz, 708 mm x 398 mm
                720  736  798  858 hborder 0
                480  489  495  525 vborder 0
               -hsync -vsync 
               VertFreq: 59 Hz, HorFreq: 31468 Hz
Detailed mode: Clock 162.000 MHz, 708 mm x 398 mm
               1600 1664 1856 2160 hborder 0
               1200 1201 1204 1250 vborder 0
               -hsync -vsync 
               VertFreq: 60 Hz, HorFreq: 75000 Hz
Monitor ranges (GTF): 59-60Hz V, 30-83kHz H, max dotclock 160MHz
Monitor name: AF115-JS
Has 1 extension blocks
Checksum: 0x25 (valid)

CTA extension block
Extension version: 3
21 bytes of CTA data
  Video data block
    VIC  34 1920x1080@30Hz 16:9  HorFreq: 33750 Hz Clock: 74.250 MHz
    VIC  33 1920x1080@25Hz 16:9  HorFreq: 28125 Hz Clock: 74.250 MHz
    VIC  32 1920x1080@24Hz 16:9  HorFreq: 27000 Hz Clock: 74.250 MHz
    VIC   1 640x480@60Hz 4:3  HorFreq: 31469 Hz Clock: 25.175 MHz
    VIC   3 720x480@60Hz 16:9  HorFreq: 31469 Hz Clock: 27.000 MHz
    VIC   4 1280x720@60Hz 16:9 (native) HorFreq: 45000 Hz Clock: 74.250 MHz
    VIC   5 1920x1080i@60Hz 16:9  HorFreq: 33750 Hz Clock: 74.250 MHz
    VIC  16 1920x1080@60Hz 16:9  HorFreq: 67500 Hz Clock: 148.500 MHz
    VIC  18 720x576@50Hz 16:9  HorFreq: 31250 Hz Clock: 27.000 MHz
    VIC  19 1280x720@50Hz 16:9 (native) HorFreq: 37500 Hz Clock: 74.250 MHz
    VIC  20 1920x1080i@50Hz 16:9  HorFreq: 28125 Hz Clock: 74.250 MHz
    VIC  31 1920x1080@50Hz 16:9  HorFreq: 56250 Hz Clock: 148.500 MHz
  Vendor-specific data block, OUI 000c03 (HDMI)
    Source physical address 1.0.0.0
    DC_36bit
    DC_Y444
    Maximum TMDS clock: 225MHz
Supports YCbCr 4:4:4
Supports YCbCr 4:2:2
2 native detailed modes
Detailed mode: Clock 74.250 MHz, 708 mm x 398 mm
               1280 1390 1430 1650 hborder 0
                720  725  730  750 vborder 0
               +hsync +vsync 
               VertFreq: 60 Hz, HorFreq: 45000 Hz
Detailed mode: Clock 74.250 MHz, 708 mm x 398 mm
               1920 2008 2052 2200 hborder 0
                540  542  547  562 vborder 0
               +hsync +vsync interlaced 
               VertFreq: 60 Hz, HorFreq: 33750 Hz
Detailed mode: Clock 27.000 MHz, 708 mm x 398 mm
                720  732  796  864 hborder 0
                576  581  586  625 vborder 0
               -hsync -vsync 
               VertFreq: 50 Hz, HorFreq: 31250 Hz
Detailed mode: Clock 74.250 MHz, 708 mm x 398 mm
               1280 1720 1760 1980 hborder 0
                720  725  730  750 vborder 0
               +hsync +vsync 
               VertFreq: 50 Hz, HorFreq: 37500 Hz
Detailed mode: Clock 74.250 MHz, 708 mm x 398 mm
               1920 2448 2492 2640 hborder 0
                540  542  547  562 vborder 0
               +hsync +vsync interlaced 
               VertFreq: 50 Hz, HorFreq: 28125 Hz
Checksum: 0xdc (valid)

One or more of the timings is out of range of the Monitor Ranges:
  Vertical Freq: 24 - 60 Hz
  Horizontal Freq: 27000 - 75000 Hz
  Maximum Clock: 162.000 MHz
