
EDID (hex):
00ffffffffffff0009e5e30500000000
01170103801d11780a929ea9534a9a22
194f5500000001010101010101010101
010101010101363680a0703820403020
350026a51000001a363680a070382040
3020350026a51000001a000000fe0042
4f452048460a202020202020000000fe
00484e3133335755332d3130320a00a9

Extracted contents:
header:          00 ff ff ff ff ff ff 00
serial number:   09 e5 e3 05 00 00 00 00 01 17
version:         01 03
basic params:    80 1d 11 78 0a
chroma info:     92 9e a9 53 4a 9a 22 19 4f 55
established:     00 00 00
standard:        01 01 01 01 01 01 01 01 01 01 01 01 01 01 01 01
descriptor 1:    36 36 80 a0 70 38 20 40 30 20 35 00 26 a5 10 00 00 1a
descriptor 2:    36 36 80 a0 70 38 20 40 30 20 35 00 26 a5 10 00 00 1a
descriptor 3:    00 00 00 fe 00 42 4f 45 20 48 46 0a 20 20 20 20 20 20
descriptor 4:    00 00 00 fe 00 48 4e 31 33 33 57 55 33 2d 31 30 32 0a
extensions:      00
checksum:        a9

EDID version: 1.3
Manufacturer: BOE Model 5e3 Serial Number --
Made in week 1 of 2013
Digital display
Maximum image size: 29 cm x 17 cm
Gamma: 2.20
RGB color display
First detailed timing is preferred timing
Display x,y Chromaticity:
  Red:   0.6621, 0.3251
  Green: 0.2890, 0.6035
  Blue:  0.1347, 0.0986
  White: 0.3115, 0.3339
Established timings supported:
Standard timings supported:
Detailed mode: Clock 138.780 MHz, 294 mm x 165 mm
               1920 1968 2000 2080 hborder 0
               1080 1083 1088 1112 vborder 0
               +hsync -vsync 
               VertFreq: 60 Hz, HorFreq: 66721 Hz
Detailed mode: Clock 138.780 MHz, 294 mm x 165 mm
               1920 1968 2000 2080 hborder 0
               1080 1083 1088 1112 vborder 0
               +hsync -vsync 
               VertFreq: 60 Hz, HorFreq: 66721 Hz
ASCII string: BOE HF
ASCII string: HN133WU3-102
Checksum: 0xa9 (valid)
EDID block does NOT conform to EDID 1.3!
	Missing name descriptor
	Missing monitor ranges
