
EDID (hex):
00ffffffffffff0034a4f1e26a750000
0e1101030059328208040000574a0026
125054214d0001010101010001010101
010101010101662150b051001b304070
3600b9882100001e000000ff004d4433
303035380a2020202020000000fc004d
4544494f4e33303035380a20662150b0
51001b3040703600b9882100001e0018

edid-decode (hex):

00 ff ff ff ff ff ff 00 34 a4 f1 e2 6a 75 00 00
0e 11 01 03 00 59 32 82 08 04 00 00 57 4a 00 26
12 50 54 21 4d 00 01 01 01 01 01 00 01 01 01 01
01 01 01 01 01 01 66 21 50 b0 51 00 1b 30 40 70
36 00 b9 88 21 00 00 1e 00 00 00 ff 00 4d 44 33
30 30 35 38 0a 20 20 20 20 20 00 00 00 fc 00 4d
45 44 49 4f 4e 33 30 30 35 38 0a 20 66 21 50 b0
51 00 1b 30 40 70 36 00 b9 88 21 00 00 1e 00 18

----------------

Block 0, Base EDID:
  EDID Structure Version & Revision: 1.3
  Vendor & Product Identification:
    Manufacturer: MED
    Model: 58097
    Serial Number: 30058
    Made in: week 14 of 2007
  Basic Display Parameters & Features:
    Analog display
    Signal Level Standard: 0.700 : 0.300 : 1.000 V p-p
    Blank level equals black level
    Maximum image size: 89 cm x 50 cm
    Gamma: 2.30
    RGB color display
  Color Characteristics:
    Red  : 0.0000, 0.3398
    Green: 0.2900, 0.0000
    Blue : 0.1484, 0.0703
    White: 0.3125, 0.3281
  Established Timings I & II:
    DMT 0x04:   640x480    59.940476 Hz   4:3     31.469 kHz     25.175000 MHz
    DMT 0x09:   800x600    60.316541 Hz   4:3     37.879 kHz     40.000000 MHz
    DMT 0x0b:   800x600    75.000000 Hz   4:3     46.875 kHz     49.500000 MHz
    DMT 0x10:  1024x768    60.003840 Hz   4:3     48.363 kHz     65.000000 MHz
    DMT 0x11:  1024x768    70.069359 Hz   4:3     56.476 kHz     75.000000 MHz
    DMT 0x24:  1280x1024   75.024675 Hz   5:4     79.976 kHz    135.000000 MHz
  Standard Timings:
  Detailed Timing Descriptors:
    DTD 1:  1360x768    60.015162 Hz  85:48    47.712 kHz     85.500000 MHz (697 mm x 392 mm)
                 Hfront   64 Hsync 112 Hback  256 Hpol P
                 Vfront    3 Vsync   6 Vback   18 Vpol P
    Display Product Serial Number: 'MD30058'
    Display Product Name: 'MEDION30058'
    DTD 2:  1360x768    60.015162 Hz  85:48    47.712 kHz     85.500000 MHz (697 mm x 392 mm)
                 Hfront   64 Hsync 112 Hback  256 Hpol P
                 Vfront    3 Vsync   6 Vback   18 Vpol P
Checksum: 0x18
