edid-decode (hex):

00 ff ff ff ff ff ff 00 06 af ec 12 00 00 00 00
00 17 01 04 95 22 13 78 02 bb f5 94 55 54 90 27
23 50 54 00 00 00 01 01 01 01 01 01 01 01 01 01
01 01 01 01 01 01 ce 1d 56 d2 50 00 26 30 10 10
3e 00 58 c1 10 00 00 18 df 13 56 d2 50 00 26 30
10 10 3e 00 58 c1 10 00 00 18 00 00 00 00 00 00
00 00 00 00 00 00 00 00 00 00 00 00 00 00 00 02
00 0c 39 cc 0d 3c 64 0f 0c 1b 6f 20 20 20 00 fc

----------------

Block 0, Base EDID:
  EDID Structure Version & Revision: 1.4
  Vendor & Product Identification:
    Manufacturer: AUO
    Model: 4844
    Made in: 2013
  Basic Display Parameters & Features:
    Digital display
    Bits per primary color channel: 6
    DisplayPort interface
    Maximum image size: 34 cm x 19 cm
    Gamma: 2.20
    Supported color formats: RGB 4:4:4
    First detailed timing includes the native pixel format and preferred refresh rate
  Color Characteristics:
    Red  : 0.5800, 0.3349
    Green: 0.3300, 0.5654
    Blue : 0.1552, 0.1396
    White: 0.3134, 0.3291
  Established Timings I & II: none
  Standard Timings: none
  Detailed Timing Descriptors:
    DTD 1:  1366x768    60.067 Hz 683:384  48.414 kHz  76.300 MHz (344 mm x 193 mm)
                 Hfront   16 Hsync  16 Hback 178 Hpol N
                 Vfront    3 Vsync  14 Vback  21 Vpol N
    DTD 2:  1366x768    40.047 Hz 683:384  32.278 kHz  50.870 MHz (344 mm x 193 mm)
                 Hfront   16 Hsync  16 Hback 178 Hpol N
                 Vfront    3 Vsync  14 Vback  21 Vpol N
    Empty Descriptor
    Manufacturer-Specified Display Descriptor (0x02): 00 02 00 0c 39 cc 0d 3c 64 0f 0c 1b 6f 20 20 20 '....9..<d...o   '
Checksum: 0xfc

----------------

Failures:

Block 0, Base EDID:
  Empty Descriptor: Use Dummy Descriptor instead of all zeroes.
  Missing Display Product Name.

EDID conformity: FAIL
