
EDID (hex):
00ffffffffffff004e16007101000000
0110010368261e6b2a6c55a25a4e9b23
164f54afcf007140714a714f81008140
814f818045403c0000a0500016303020
3700a0d0000000003c00008051001e30
408037005ad0100000004b0000a05100
2530508037005ad01000000000000000
0000000000000000000000000000004f

Extracted contents:
header:          00 ff ff ff ff ff ff 00
serial number:   4e 16 00 71 01 00 00 00 01 10
version:         01 03
basic params:    68 26 1e 6b 2a
chroma info:     6c 55 a2 5a 4e 9b 23 16 4f 54
established:     af cf 00
standard:        71 40 71 4a 71 4f 81 00 81 40 81 4f 81 80 45 40
descriptor 1:    3c 00 00 a0 50 00 16 30 30 20 37 00 a0 d0 00 00 00 00
descriptor 2:    3c 00 00 80 51 00 1e 30 40 80 37 00 5a d0 10 00 00 00
descriptor 3:    4b 00 00 a0 51 00 25 30 50 80 37 00 5a d0 10 00 00 00
descriptor 4:    00 00 00 00 00 00 00 00 00 00 00 00 00 00 00 00 00 00
extensions:      00
checksum:        4f

EDID version: 1.3
Manufacturer: SPV Model 7100 Serial Number --
Made in week 1 of 2006
Analog display, Input voltage level: 0.7/0.7 V
Sync: Separate 
Maximum image size: 38 cm x 30 cm
Gamma: 2.07
DPMS levels: Off
RGB color display
First detailed timing is preferred timing
Display x,y Chromaticity:
  Red:   0.6337, 0.3535
  Green: 0.3076, 0.6054
  Blue:  0.1376, 0.0869
  White: 0.3095, 0.3291
Established timings supported:
  720x400@70Hz 9:5 HorFreq: 31469 Hz Clock: 28.320 MHz
  640x480@60Hz 4:3 HorFreq: 31469 Hz Clock: 25.175 MHz
  640x480@72Hz 4:3 HorFreq: 37900 Hz Clock: 31.500 MHz
  640x480@75Hz 4:3 HorFreq: 37500 Hz Clock: 31.500 MHz
  800x600@56Hz 4:3 HorFreq: 35200 Hz Clock: 36.000 MHz
  800x600@60Hz 4:3 HorFreq: 37900 Hz Clock: 40.000 MHz
  800x600@72Hz 4:3 HorFreq: 48100 Hz Clock: 50.000 MHz
  800x600@75Hz 4:3 HorFreq: 46900 Hz Clock: 49.500 MHz
  1024x768@60Hz 4:3 HorFreq: 48400 Hz Clock: 65.000 MHz
  1024x768@70Hz 4:3 HorFreq: 56500 Hz Clock: 75.000 MHz
  1024x768@75Hz 4:3 HorFreq: 60000 Hz Clock: 78.750 MHz
  1280x1024@75Hz 5:4 HorFreq: 80000 Hz Clock: 135.000 MHz
Standard timings supported:
  1152x864@60Hz 4:3
  1152x864@70Hz 4:3
  1152x864@75Hz 4:3 HorFreq: 67500 Hz Clock: 108.000 MHz
  1280x800@60Hz 16:10
  1280x960@60Hz 4:3 HorFreq: 60000 Hz Clock: 108.000 MHz
  1280x960@75Hz 4:3
  1280x1024@60Hz 5:4 HorFreq: 64000 Hz Clock: 108.000 MHz
  800x600@60Hz 4:3 HorFreq: 37900 Hz Clock: 40.000 MHz
Detailed mode: Clock 0.600 MHz, 160 mm x 208 mm
               1280 1328 1360 1440 hborder 0
                768  771  778  790 vborder 0
               -hsync -vsync analog composite 
               VertFreq: 0 Hz, HorFreq: 416 Hz
Detailed mode: Clock 0.600 MHz, 346 mm x 208 mm
               1280 1344 1472 1664 hborder 0
                768  771  778  798 vborder 0
               -hsync -vsync analog composite 
               VertFreq: 0 Hz, HorFreq: 360 Hz
Detailed mode: Clock 0.750 MHz, 346 mm x 208 mm
               1280 1360 1488 1696 hborder 0
                768  771  778  805 vborder 0
               -hsync -vsync analog composite 
               VertFreq: 0 Hz, HorFreq: 442 Hz
Manufacturer-specified data, tag 0
Checksum: 0x4f (valid)
EDID block does NOT conform to EDID 1.3!
	Missing name descriptor
	Missing monitor ranges
