
EDID (hex):
00ffffffffffff0009e52a0a00000000
111f0104a51e1378032195955c5a932a
1e505400000001010101010101010101
0101010101016140800471b03c403020
36002ebc1000001a8133800471b03c40
302036002ebc1000001a000000fe0059
33473733804e5631344e343200000000
0001412199001000000a010a2020002a

Extracted contents:
header:          00 ff ff ff ff ff ff 00
serial number:   09 e5 2a 0a 00 00 00 00 11 1f
version:         01 04
basic params:    a5 1e 13 78 03
chroma info:     21 95 95 5c 5a 93 2a 1e 50 54
established:     00 00 00
standard:        01 01 01 01 01 01 01 01 01 01 01 01 01 01 01 01
descriptor 1:    61 40 80 04 71 b0 3c 40 30 20 36 00 2e bc 10 00 00 1a
descriptor 2:    81 33 80 04 71 b0 3c 40 30 20 36 00 2e bc 10 00 00 1a
descriptor 3:    00 00 00 fe 00 59 33 47 37 33 80 4e 56 31 34 4e 34 32
descriptor 4:    00 00 00 00 00 01 41 21 99 00 10 00 00 0a 01 0a 20 20
extensions:      00
checksum:        2a

EDID version: 1.4
Manufacturer: BOE Model a2a Serial Number --
Made in week 17 of 2021
Digital display
8 bits per primary color channel
DisplayPort interface
Maximum image size: 30 cm x 19 cm
Gamma: 2.20
Supported color formats: RGB 4:4:4
First detailed timing includes the native pixel format and preferred refresh rate
Display is continuous frequency
Display x,y Chromaticity:
  Red:   0.5820, 0.3613
  Green: 0.3515, 0.5751
  Blue:  0.1660, 0.1181
  White: 0.3134, 0.3291
Established timings supported:
Standard timings supported:
Detailed mode: Clock 164.810 MHz, 302 mm x 188 mm
               1920 1968 2000 2180 hborder 0
               1200 1203 1209 1260 vborder 0
               +hsync -vsync 
               VertFreq: 60 Hz, HorFreq: 75600 Hz
Detailed mode: Clock 131.850 MHz, 302 mm x 188 mm
               1920 1968 2000 2180 hborder 0
               1200 1203 1209 1260 vborder 0
               +hsync -vsync 
               VertFreq: 48 Hz, HorFreq: 60481 Hz
ASCII string: Y3G73
Manufacturer-specified data, tag 0
Checksum: 0x2a (valid)
EDID block does NOT conform to EDID 1.4!
	Missing name descriptor
	Missing monitor ranges
	Detailed block string not properly terminated
