
EDID (hex):
00ffffffffffff002194333400888888
1c1c0103800000780a0dc9a057479827
12484c00000001010101010101010101
010101010101b8353868408010702020
8400803874000018b835386840801070
20208400803874000018000000fc0057
535f4648444f4c45440a2020000000fd
00147801ff1d000a202020202020012b
02031a7147c646464646464623090701
8301000065030c001000b83538684080
107020208400803874000018b8353868
4080107020208400803874000018b835
38684080107020208400803874000018
b8353868408010702020840080387400
00180000000000000000000000000000
0000000000000000000000000000002f

Extracted contents:
header:          00 ff ff ff ff ff ff 00
serial number:   21 94 33 34 00 88 88 88 1c 1c
version:         01 03
basic params:    80 00 00 78 0a
chroma info:     0d c9 a0 57 47 98 27 12 48 4c
established:     00 00 00
standard:        01 01 01 01 01 01 01 01 01 01 01 01 01 01 01 01
descriptor 1:    b8 35 38 68 40 80 10 70 20 20 84 00 80 38 74 00 00 18
descriptor 2:    b8 35 38 68 40 80 10 70 20 20 84 00 80 38 74 00 00 18
descriptor 3:    00 00 00 fc 00 57 53 5f 46 48 44 4f 4c 45 44 0a 20 20
descriptor 4:    00 00 00 fd 00 14 78 01 ff 1d 00 0a 20 20 20 20 20 20
extensions:      01
checksum:        2b

EDID version: 1.3
Manufacturer: HLT Model 3433 Serial Number --
Made in week 28 of 2018
Digital display
Image size is variable
Gamma: 2.20
RGB color display
First detailed timing is preferred timing
Display x,y Chromaticity:
  Red:   0.6250, 0.3398
  Green: 0.2802, 0.5947
  Blue:  0.1552, 0.0703
  White: 0.2832, 0.2978
Established timings supported:
Standard timings supported:
Detailed mode: Clock 137.520 MHz, 1920 mm x 1080 mm
               1080 1112 1144 1184 hborder 0
               1920 1928 1932 1936 vborder 0
               -hsync -vsync 
               VertFreq: 59 Hz, HorFreq: 116148 Hz
Detailed mode: Clock 137.520 MHz, 1920 mm x 1080 mm
               1080 1112 1144 1184 hborder 0
               1920 1928 1932 1936 vborder 0
               -hsync -vsync 
               VertFreq: 59 Hz, HorFreq: 116148 Hz
Monitor name: WS_FHDOLED
Monitor ranges (GTF): 20-120Hz V, 1-255kHz H, max dotclock 290MHz
Has 1 extension blocks
Checksum: 0x2b (valid)

CTA extension block
Extension version: 3
22 bytes of CTA data
  Video data block
    VIC 198 7680x4320@50Hz 16:9  HorFreq: 220000 Hz Clock: 2376.000 MHz
    VIC  70 1280x720@100Hz 64:27  HorFreq: 75000 Hz Clock: 148.500 MHz
    VIC  70 1280x720@100Hz 64:27  HorFreq: 75000 Hz Clock: 148.500 MHz
    VIC  70 1280x720@100Hz 64:27  HorFreq: 75000 Hz Clock: 148.500 MHz
    VIC  70 1280x720@100Hz 64:27  HorFreq: 75000 Hz Clock: 148.500 MHz
    VIC  70 1280x720@100Hz 64:27  HorFreq: 75000 Hz Clock: 148.500 MHz
    VIC  70 1280x720@100Hz 64:27  HorFreq: 75000 Hz Clock: 148.500 MHz
  Audio data block
    Linear PCM, max channels 2
      Supported sample rates (kHz): 48 44.1 32
      Supported sample sizes (bits): 16
  Speaker allocation data block
    Speaker map:
      FL/FR - Front Left/Right
  Vendor-specific data block, OUI 000c03 (HDMI)
    Source physical address 1.0.0.0
Basic audio support
Supports YCbCr 4:4:4
Supports YCbCr 4:2:2
1 native detailed modes
Detailed mode: Clock 137.520 MHz, 1920 mm x 1080 mm
               1080 1112 1144 1184 hborder 0
               1920 1928 1932 1936 vborder 0
               -hsync -vsync 
               VertFreq: 59 Hz, HorFreq: 116148 Hz
Detailed mode: Clock 137.520 MHz, 1920 mm x 1080 mm
               1080 1112 1144 1184 hborder 0
               1920 1928 1932 1936 vborder 0
               -hsync -vsync 
               VertFreq: 59 Hz, HorFreq: 116148 Hz
Detailed mode: Clock 137.520 MHz, 1920 mm x 1080 mm
               1080 1112 1144 1184 hborder 0
               1920 1928 1932 1936 vborder 0
               -hsync -vsync 
               VertFreq: 59 Hz, HorFreq: 116148 Hz
Detailed mode: Clock 137.520 MHz, 1920 mm x 1080 mm
               1080 1112 1144 1184 hborder 0
               1920 1928 1932 1936 vborder 0
               -hsync -vsync 
               VertFreq: 59 Hz, HorFreq: 116148 Hz
Checksum: 0x2f (valid)

EDID block does NOT conform to EDID 1.3!
	Required 640x480p60 timings are missing in the established timings
	and/or in the SVD list (VIC 1)
One or more of the timings is out of range of the Monitor Ranges:
  Vertical Freq: 50 - 100 Hz
  Horizontal Freq: 75000 - 220000 Hz
  Maximum Clock: 2376.000 MHz
