
EDID (hex):
00ffffffffffff000e14291400000000
25120103802115780ad7fd975c549128
26505400000001010101010101010101
010101010101191e002c51200d301820
36004bcf1000001a191e002c51200d30
182036004bcf1000001a000000fe0052
4d353232803135345742392000000000
000c12171e3d67a0ff01010a202000dc

Extracted contents:
header:          00 ff ff ff ff ff ff 00
serial number:   0e 14 29 14 00 00 00 00 25 12
version:         01 03
basic params:    80 21 15 78 0a
chroma info:     d7 fd 97 5c 54 91 28 26 50 54
established:     00 00 00
standard:        01 01 01 01 01 01 01 01 01 01 01 01 01 01 01 01
descriptor 1:    19 1e 00 2c 51 20 0d 30 18 20 36 00 4b cf 10 00 00 1a
descriptor 2:    19 1e 00 2c 51 20 0d 30 18 20 36 00 4b cf 10 00 00 1a
descriptor 3:    00 00 00 fe 00 52 4d 35 32 32 80 31 35 34 57 42 39 20
descriptor 4:    00 00 00 00 00 0c 12 17 1e 3d 67 a0 ff 01 01 0a 20 20
extensions:      00
checksum:        dc

EDID version: 1.3
Manufacturer: CPT Model 1429 Serial Number --
Made in week 37 of 2008
Digital display
Maximum image size: 33 cm x 21 cm
Gamma: 2.20
RGB color display
First detailed timing is preferred timing
Display x,y Chromaticity:
  Red:   0.5927, 0.3603
  Green: 0.3291, 0.5693
  Blue:  0.1591, 0.1513
  White: 0.3154, 0.3291
Established timings supported:
Standard timings supported:
Detailed mode: Clock 77.050 MHz, 331 mm x 207 mm
               1280 1304 1336 1580 hborder 0
                800  803  809  813 vborder 0
               +hsync -vsync 
               VertFreq: 59 Hz, HorFreq: 48765 Hz
Detailed mode: Clock 77.050 MHz, 331 mm x 207 mm
               1280 1304 1336 1580 hborder 0
                800  803  809  813 vborder 0
               +hsync -vsync 
               VertFreq: 59 Hz, HorFreq: 48765 Hz
ASCII string: RM522
Manufacturer-specified data, tag 0
Checksum: 0xdc (valid)
EDID block does NOT conform to EDID 1.3!
	Missing name descriptor
	Missing monitor ranges
	Detailed block string not properly terminated
