
EDID (hex):
00ffffffffffff0021633d0200000000
00210104a5221378e3e0a0955c599328
1e505400000001010101010101010101
0101010101015b3680a0703823403020
360058c210000019000000fd00373c43
430d010a202020202020000000fe0048
4b43204d59202020200a2020000000fe
004d42313536435330312d3820200015

edid-decode (hex):

00 ff ff ff ff ff ff 00 21 63 3d 02 00 00 00 00
00 21 01 04 a5 22 13 78 e3 e0 a0 95 5c 59 93 28
1e 50 54 00 00 00 01 01 01 01 01 01 01 01 01 01
01 01 01 01 01 01 5b 36 80 a0 70 38 23 40 30 20
36 00 58 c2 10 00 00 19 00 00 00 fd 00 37 3c 43
43 0d 01 0a 20 20 20 20 20 20 00 00 00 fe 00 48
4b 43 20 4d 59 20 20 20 20 0a 20 20 00 00 00 fe
00 4d 42 31 35 36 43 53 30 31 2d 38 20 20 00 15

----------------

Block 0, Base EDID:
  EDID Structure Version & Revision: 1.4
  Vendor & Product Identification:
    Manufacturer: HKC
    Model: 573
    Made in: 2023
  Basic Display Parameters & Features:
    Digital display
    Bits per primary color channel: 8
    DisplayPort interface
    Maximum image size: 34 cm x 19 cm
    Gamma: 2.20
    DPMS levels: Standby Suspend Off
    Supported color formats: RGB 4:4:4
    First detailed timing includes the native pixel format and preferred refresh rate
    Display is continuous frequency
  Color Characteristics:
    Red  : 0.5849, 0.3613
    Green: 0.3476, 0.5742
    Blue : 0.1582, 0.1191
    White: 0.3125, 0.3281
  Established Timings I & II: none
  Standard Timings: none
  Detailed Timing Descriptors:
    DTD 1:  1920x1080   59.999138 Hz  16:9     66.899 kHz    139.150000 MHz (344 mm x 194 mm)
                 Hfront   48 Hsync  32 Hback   80 Hpol N
                 Vfront    3 Vsync   6 Vback   26 Vpol N
    Display Range Limits:
      Monitor ranges (Bare Limits): 55-60 Hz V, 67-67 kHz H, max dotclock 130 MHz
    Alphanumeric Data String: 'HKC MY    '
    Alphanumeric Data String: 'MB156CS01-8  '
Checksum: 0x15
