
EDID (hex):
00ffffffffffff000472000100000000
14140103802f1a782e3585a656489a24
125054010800714081c08180a9c09040
d1c001010101023a801871382d40582c
4500dd0c1100001e000000ff00000a20
20202020202020202020000000fd0032
4c1e5e15000a202020202020000000fc
0041494f204c43440a2020202020003c

Extracted contents:
header:          00 ff ff ff ff ff ff 00
serial number:   04 72 00 01 00 00 00 00 14 14
version:         01 03
basic params:    80 2f 1a 78 2e
chroma info:     35 85 a6 56 48 9a 24 12 50 54
established:     01 08 00
standard:        71 40 81 c0 81 80 a9 c0 90 40 d1 c0 01 01 01 01
descriptor 1:    02 3a 80 18 71 38 2d 40 58 2c 45 00 dd 0c 11 00 00 1e
descriptor 2:    00 00 00 ff 00 00 0a 20 20 20 20 20 20 20 20 20 20 20
descriptor 3:    00 00 00 fd 00 32 4c 1e 5e 15 00 0a 20 20 20 20 20 20
descriptor 4:    00 00 00 fc 00 41 49 4f 20 4c 43 44 0a 20 20 20 20 20
extensions:      00
checksum:        3c

EDID version: 1.3
Manufacturer: ACR Model 100 Serial Number --
Made in week 20 of 2010
Digital display
Maximum image size: 47 cm x 26 cm
Gamma: 2.20
DPMS levels: Off
RGB color display
Default (sRGB) color space is primary color space
First detailed timing is preferred timing
Display x,y Chromaticity:
  Red:   0.6484, 0.3388
  Green: 0.2822, 0.6025
  Blue:  0.1425, 0.0703
  White: 0.3134, 0.3291
Established timings supported:
  800x600@60Hz 4:3 HorFreq: 37900 Hz Clock: 40.000 MHz
  1024x768@60Hz 4:3 HorFreq: 48400 Hz Clock: 65.000 MHz
Standard timings supported:
  1152x864@60Hz 4:3
  1280x720@60Hz 16:9
  1280x1024@60Hz 5:4 HorFreq: 64000 Hz Clock: 108.000 MHz
  1600x900@60Hz 16:9
  1400x1050@60Hz 4:3 HorFreq: 64700 Hz Clock: 101.000 MHz
  1920x1080@60Hz 16:9
Detailed mode: Clock 148.500 MHz, 477 mm x 268 mm
               1920 2008 2052 2200 hborder 0
               1080 1084 1089 1125 vborder 0
               +hsync +vsync 
               VertFreq: 60 Hz, HorFreq: 67500 Hz
Serial number: 
-- ranges (GTF): 50-76Hz V, 30-94kHz H, max dotclock 210MHz
Monitor name: AIO LCD
Checksum: 0x3c (valid)
EDID block does NOT conform to EDID 1.3!
	sRGB is signaled, but the chromaticities do not match
	Detailed block string not properly terminated
