
EDID (hex):
00ffffffffffff0038702d0000000000
011c0104952213780211c3985c578c28
1b4e5300000001010101010101010101
0101010101011a3680a070381f403020
350058c21000001a0000000000000000
0000000000000000001a000000fe0043
45432050414e444120202020000000fe
004c4d3135364c462d354c30320a0026

edid-decode (hex):

00 ff ff ff ff ff ff 00 38 70 2d 00 00 00 00 00
01 1c 01 04 95 22 13 78 02 11 c3 98 5c 57 8c 28
1b 4e 53 00 00 00 01 01 01 01 01 01 01 01 01 01
01 01 01 01 01 01 1a 36 80 a0 70 38 1f 40 30 20
35 00 58 c2 10 00 00 1a 00 00 00 00 00 00 00 00
00 00 00 00 00 00 00 00 00 1a 00 00 00 fe 00 43
45 43 20 50 41 4e 44 41 20 20 20 20 00 00 00 fe
00 4c 4d 31 35 36 4c 46 2d 35 4c 30 32 0a 00 26

----------------

Block 0, Base EDID:
  EDID Structure Version & Revision: 1.4
  Vendor & Product Identification:
    Manufacturer: NCP
    Model: 45
    Made in: week 1 of 2018
  Basic Display Parameters & Features:
    Digital display
    Bits per primary color channel: 6
    DisplayPort interface
    Maximum image size: 34 cm x 19 cm
    Gamma: 2.20
    Supported color formats: RGB 4:4:4
    First detailed timing includes the native pixel format and preferred refresh rate
  Color Characteristics:
    Red  : 0.5937, 0.3603
    Green: 0.3398, 0.5478
    Blue : 0.1591, 0.1054
    White: 0.3046, 0.3271
  Established Timings I & II: none
  Standard Timings: none
  Detailed Timing Descriptors:
    DTD 1:  1920x1080   59.933878 Hz  16:9     66.587 kHz    138.500000 MHz (344 mm x 194 mm)
                 Hfront   48 Hsync  32 Hback   80 Hpol P
                 Vfront    3 Vsync   5 Vback   23 Vpol N
    Manufacturer-Specified Display Descriptor (0x00): 00 00 00 00 00 00 00 00 00 00 00 00 00 00 00 1a '................'
    Alphanumeric Data String: 'CEC PANDA    '
    Alphanumeric Data String: 'LM156LF-5L02'
Checksum: 0x26
