edid-decode (hex):

00 ff ff ff ff ff ff 00 32 0c 00 de 00 00 00 00
00 11 01 03 90 21 15 78 0a 19 45 97 58 53 8b 28
24 50 54 00 00 00 01 01 01 01 01 01 01 01 01 01
01 01 01 01 01 01 8a 2f 90 e0 60 1a 0f 40 20 40
25 00 4b cf 10 00 00 1b 8a 2f 90 e0 60 1a 0f 40
20 40 25 00 4b cf 10 00 00 1b 00 00 00 fe 00 59
57 30 34 38 80 31 35 34 57 45 32 0a 00 00 00 00
00 2b 41 52 5a 7d a2 c9 ff 02 01 0a 20 20 00 62

----------------

Block 0, Base EDID:
  EDID Structure Version & Revision: 1.3
  Vendor & Product Identification:
    Manufacturer: LPL
    Model: 56832
    Made in: 2007
  Basic Display Parameters & Features:
    Digital display
    Maximum image size: 33 cm x 21 cm
    Gamma: 2.20
    RGB color display
    First detailed timing is the preferred timing
  Color Characteristics:
    Red  : 0.5898, 0.3447
    Green: 0.3261, 0.5439
    Blue : 0.1572, 0.1406
    White: 0.3134, 0.3291
  Established Timings I & II: none
  Standard Timings: none
  Detailed Timing Descriptors:
    DTD 1:  1680x1050   60.016965 Hz   8:5     63.918 kHz    121.700000 MHz (331 mm x 207 mm)
                 Hfront   32 Hsync  64 Hback  128 Hpol P
                 Vfront    2 Vsync   5 Vback    8 Vpol N
    DTD 2:  1680x1050   60.016965 Hz   8:5     63.918 kHz    121.700000 MHz (331 mm x 207 mm)
                 Hfront   32 Hsync  64 Hback  128 Hpol P
                 Vfront    2 Vsync   5 Vback    8 Vpol N
    Alphanumeric Data String: 'YW048'
    Manufacturer-Specified Display Descriptor (0x00): 00 00 00 2b 41 52 5a 7d a2 c9 ff 02 01 0a 20 20 '...+ARZ}......  '
Checksum: 0x62

----------------

Failures:

Block 0, Base EDID:
  Basic Display Parameters & Features: Digital Video Interface Standard set to reserved value 0x10.
  Alphanumeric Data String: Non-printable character.
  Missing Display Product Name.
  Missing Display Range Limits Descriptor.

EDID conformity: FAIL
