edid-decode (hex):

00 ff ff ff ff ff ff 00 05 d8 30 75 01 00 00 00
01 1b 01 04 a5 06 05 78 06 00 00 00 00 00 00 00
00 00 00 00 00 00 01 00 01 00 01 00 01 00 01 00
01 00 01 00 01 00 af 39 38 a8 40 80 34 70 50 08
11 00 3c 32 00 00 00 10 00 00 00 00 00 00 00 00
00 00 00 00 00 00 00 00 00 00 00 00 00 fc 00 41
4e 58 37 35 33 30 5f 44 50 0a 20 20 00 00 00 10
00 00 00 00 00 00 00 00 00 00 00 00 00 00 00 1a

00 ff ff ff ff ff ff 00 05 d8 30 75 01 00 00 00
01 1b 01 04 a5 06 05 78 06 00 00 00 00 00 00 00
00 00 00 00 00 00 01 00 01 00 01 00 01 00 01 00
01 00 01 00 01 00 af 39 38 a8 40 80 34 70 50 08
11 00 3c 32 00 00 00 10 00 00 00 00 00 00 00 00
00 00 00 00 00 00 00 00 00 00 00 00 00 fc 00 41
4e 58 37 35 33 30 5f 44 50 0a 20 20 00 00 00 10
00 00 00 00 00 00 00 00 00 00 00 00 00 00 00 1a

----------------

Block 0, Base EDID:
  EDID Structure Version & Revision: 1.4
  Vendor & Product Identification:
    Manufacturer: ANX
    Model: 30000
    Serial Number: ...
    Made in: week 1 of 2017
  Basic Display Parameters & Features:
    Digital display
    Bits per primary color channel: 8
    DisplayPort interface
    Maximum image size: 6 cm x 5 cm
    Gamma: 2.20
    Supported color formats: RGB 4:4:4
    Default (sRGB) color space is primary color space
    First detailed timing includes the native pixel format and preferred refresh rate
  Color Characteristics:
    Red  : 0.0000, 0.0000
    Green: 0.0000, 0.0000
    Blue : 0.0000, 0.0000
    White: 0.0000, 0.0000
  Established Timings I & II: none
  Standard Timings:
  Detailed Timing Descriptors:
    DTD 1:  1080x1920   60.002698 Hz   9:16   118.325 kHz    147.670000 MHz (digital composite, 60 mm x 50 mm)
                 Hfront   80 Hsync   8 Hback   80 Hpol N
                 Vfront    1 Vsync   1 Vback   50
    Empty Descriptor
    Display Product Name: 'ANX7530_DP'
    Dummy Descriptor:
Checksum: 0x1a

----------------

Block 1, Unknown EDID Extension Block 0x00:
  00 ff ff ff ff ff ff 00 05 d8 30 75 01 00 00 00 '..........0u....'
  01 1b 01 04 a5 06 05 78 06 00 00 00 00 00 00 00 '.......x........'
  00 00 00 00 00 00 01 00 01 00 01 00 01 00 01 00 '................'
  01 00 01 00 01 00 af 39 38 a8 40 80 34 70 50 08 '.......98.@.4pP.'
  11 00 3c 32 00 00 00 10 00 00 00 00 00 00 00 00 '..<2............'
  00 00 00 00 00 00 00 00 00 00 00 00 00 fc 00 41 '...............A'
  4e 58 37 35 33 30 5f 44 50 0a 20 20 00 00 00 10 'NX7530_DP.  ....'
  00 00 00 00 00 00 00 00 00 00 00 00 00 00 00 1a '................'
Checksum: 0x1a

----------------

Warnings:

Block 0, Base EDID:
  Basic Display Parameters & Features: Dubious maximum image size (6x5 is smaller than 10x10 cm).

Failures:

Block 0, Base EDID:
  Basic Display Parameters & Features: sRGB is signaled, but the chromaticities do not match.
  Standard Timings: Use 0x0101 as the invalid Standard Timings code, not 0x0100.
  Standard Timings: Use 0x0101 as the invalid Standard Timings code, not 0x0100.
  Standard Timings: Use 0x0101 as the invalid Standard Timings code, not 0x0100.
  Standard Timings: Use 0x0101 as the invalid Standard Timings code, not 0x0100.
  Standard Timings: Use 0x0101 as the invalid Standard Timings code, not 0x0100.
  Standard Timings: Use 0x0101 as the invalid Standard Timings code, not 0x0100.
  Standard Timings: Use 0x0101 as the invalid Standard Timings code, not 0x0100.
  Standard Timings: Use 0x0101 as the invalid Standard Timings code, not 0x0100.
  Empty Descriptor: Use Dummy Descriptor instead of all zeroes.
Block 1, Base EDID:
  Unknown Extension Block.
EDID:
  Base EDID: EDID specified 0 extension block(s), but found 1 extension block(s).

EDID conformity: FAIL
