
EDID (hex):
00ffffffffffff0009e5a70a00000000
2a1e0104a5221678037614a6544a9927
0e4d5200000001010101010101010101
010101010101626b00c8a0403c603020
360059d71000001a000000fd00283c64
641c010a202020202020000000fe0042
4f452043510a202020202020000000fe
004e4531363051444d2d4e36330a002c

edid-decode (hex):

00 ff ff ff ff ff ff 00 09 e5 a7 0a 00 00 00 00
2a 1e 01 04 a5 22 16 78 03 76 14 a6 54 4a 99 27
0e 4d 52 00 00 00 01 01 01 01 01 01 01 01 01 01
01 01 01 01 01 01 62 6b 00 c8 a0 40 3c 60 30 20
36 00 59 d7 10 00 00 1a 00 00 00 fd 00 28 3c 64
64 1c 01 0a 20 20 20 20 20 20 00 00 00 fe 00 42
4f 45 20 43 51 0a 20 20 20 20 20 20 00 00 00 fe
00 4e 45 31 36 30 51 44 4d 2d 4e 36 33 0a 00 2c

----------------

Block 0, Base EDID:
  EDID Structure Version & Revision: 1.4
  Vendor & Product Identification:
    Manufacturer: BOE
    Model: 2727
    Made in: week 42 of 2020
  Basic Display Parameters & Features:
    Digital display
    Bits per primary color channel: 8
    DisplayPort interface
    Maximum image size: 34 cm x 22 cm
    Gamma: 2.20
    Supported color formats: RGB 4:4:4
    First detailed timing includes the native pixel format and preferred refresh rate
    Display is continuous frequency
  Color Characteristics:
    Red  : 0.6494, 0.3310
    Green: 0.2900, 0.5996
    Blue : 0.1523, 0.0556
    White: 0.3017, 0.3203
  Established Timings I & II: none
  Standard Timings: none
  Detailed Timing Descriptors:
    DTD 1:  2560x1600   60.000873 Hz  16:10    99.601 kHz    274.900000 MHz (345 mm x 215 mm)
                 Hfront   48 Hsync  32 Hback  120 Hpol P
                 Vfront    3 Vsync   6 Vback   51 Vpol N
    Display Range Limits:
      Monitor ranges (Bare Limits): 40-60 Hz V, 100-100 kHz H, max dotclock 280 MHz
    Alphanumeric Data String: 'BOE CQ'
    Alphanumeric Data String: 'NE160QDM-N63'
Checksum: 0x2c
