
EDID (hex):
00ffffffffffff0009e5a70a00000000
2a1e0104a5221678030aa1a6554b9c24
0e4e5400000001010101010101010101
010101010101626b00c8a0403c603020
360059d71000001a000000fd00283c64
641c010a202020202020000000fe0042
4f452043510a202020202020000000fe
004e4531363051444d2d4e36330a0006

Extracted contents:
header:          00 ff ff ff ff ff ff 00
serial number:   09 e5 a7 0a 00 00 00 00 2a 1e
version:         01 04
basic params:    a5 22 16 78 03
chroma info:     0a a1 a6 55 4b 9c 24 0e 4e 54
established:     00 00 00
standard:        01 01 01 01 01 01 01 01 01 01 01 01 01 01 01 01
descriptor 1:    62 6b 00 c8 a0 40 3c 60 30 20 36 00 59 d7 10 00 00 1a
descriptor 2:    00 00 00 fd 00 28 3c 64 64 1c 01 0a 20 20 20 20 20 20
descriptor 3:    00 00 00 fe 00 42 4f 45 20 43 51 0a 20 20 20 20 20 20
descriptor 4:    00 00 00 fe 00 4e 45 31 36 30 51 44 4d 2d 4e 36 33 0a
extensions:      00
checksum:        06

EDID version: 1.4
Manufacturer: BOE Model aa7 Serial Number --
Made in week 42 of 2020
Digital display
8 bits per primary color channel
DisplayPort interface
Maximum image size: 34 cm x 22 cm
Gamma: 2.20
Supported color formats: RGB 4:4:4
First detailed timing includes the native pixel format and preferred refresh rate
Display is continuous frequency
Display x,y Chromaticity:
  Red:   0.6484, 0.3320
  Green: 0.2949, 0.6113
  Blue:  0.1425, 0.0566
  White: 0.3046, 0.3291
Established timings supported:
Standard timings supported:
Detailed mode: Clock 274.900 MHz, 345 mm x 215 mm
               2560 2608 2640 2760 hborder 0
               1600 1603 1609 1660 vborder 0
               +hsync -vsync 
               VertFreq: 60 Hz, HorFreq: 99601 Hz
Monitor ranges (bare limits): 40-60Hz V, 100-100kHz H, max dotclock 280MHz
ASCII string: BOE CQ
ASCII string: NE160QDM-N63
Checksum: 0x6 (valid)
EDID block does NOT conform to EDID 1.4!
	Missing name descriptor
Warning: One or more of the timings is out of range of the Monitor Ranges:
  Vertical Freq: 60 - 60 Hz
  Horizontal Freq: 99601 - 99601 Hz
  Maximum Clock: 274.900 MHz
