
EDID (hex):
00ffffffffffff00410c1b1501010101
2c110103804728788a288e9e55489724
16484badce0031594559615981808bc0
010101010101a91a00a0500016303020
3700c48e21000018de0dd0d820902e10
24481300c48e21000018000000fc0031
30383070205456202832290a000000fd
002f551f500e000a2020202020200144
02032c71529f10202122140513041211
0302011615070623090707830100006c
030c002000b82dc03d013701011d00bc
52d01e20b8285540c48e2100001a011d
007251d01e206e285500c48e2100001e
011d80d0721c1620102c2580c48e2100
009e011d8018711c1620582c2500c48e
2100009e0000000000000000000000f7

Extracted contents:
header:          00 ff ff ff ff ff ff 00
serial number:   41 0c 1b 15 01 01 01 01 2c 11
version:         01 03
basic params:    80 47 28 78 8a
chroma info:     28 8e 9e 55 48 97 24 16 48 4b
established:     ad ce 00
standard:        31 59 45 59 61 59 81 80 8b c0 01 01 01 01 01 01
descriptor 1:    a9 1a 00 a0 50 00 16 30 30 20 37 00 c4 8e 21 00 00 18
descriptor 2:    de 0d d0 d8 20 90 2e 10 24 48 13 00 c4 8e 21 00 00 18
descriptor 3:    00 00 00 fc 00 31 30 38 30 70 20 54 56 20 28 32 29 0a
descriptor 4:    00 00 00 fd 00 2f 55 1f 50 0e 00 0a 20 20 20 20 20 20
extensions:      01
checksum:        44

EDID version: 1.3
Manufacturer: PHL Model 151b Serial Number --
Made in week 44 of 2007
Digital display
Maximum image size: 71 cm x 40 cm
Gamma: 2.20
DPMS levels: Standby
RGB color display
First detailed timing is preferred timing
Display x,y Chromaticity:
  Red:   0.6171, 0.3339
  Green: 0.2832, 0.5898
  Blue:  0.1425, 0.0859
  White: 0.2841, 0.2949
Established timings supported:
  720x400@70Hz 9:5 HorFreq: 31469 Hz Clock: 28.320 MHz
  640x480@60Hz 4:3 HorFreq: 31469 Hz Clock: 25.175 MHz
  640x480@72Hz 4:3 HorFreq: 37900 Hz Clock: 31.500 MHz
  640x480@75Hz 4:3 HorFreq: 37500 Hz Clock: 31.500 MHz
  800x600@60Hz 4:3 HorFreq: 37900 Hz Clock: 40.000 MHz
  800x600@72Hz 4:3 HorFreq: 48100 Hz Clock: 50.000 MHz
  800x600@75Hz 4:3 HorFreq: 46900 Hz Clock: 49.500 MHz
  1024x768@60Hz 4:3 HorFreq: 48400 Hz Clock: 65.000 MHz
  1024x768@70Hz 4:3 HorFreq: 56500 Hz Clock: 75.000 MHz
  1024x768@75Hz 4:3 HorFreq: 60000 Hz Clock: 78.750 MHz
Standard timings supported:
  640x480@85Hz 4:3 HorFreq: 43300 Hz Clock: 36.000 MHz
  800x600@85Hz 4:3 HorFreq: 53700 Hz Clock: 56.250 MHz
  1024x768@85Hz 4:3 HorFreq: 68700 Hz Clock: 94.500 MHz
  1280x1024@60Hz 5:4 HorFreq: 64000 Hz Clock: 108.000 MHz
  1360x765@60Hz 16:9
Detailed mode: Clock 68.250 MHz, 708 mm x 398 mm
               1280 1328 1360 1440 hborder 0
                768  771  778  790 vborder 0
               -hsync -vsync 
               VertFreq: 59 Hz, HorFreq: 47395 Hz
Detailed mode: Clock 35.500 MHz, 708 mm x 398 mm
                720  756  828  936 hborder 0
                400  401  404  446 vborder 0
               -hsync -vsync 
               VertFreq: 85 Hz, HorFreq: 37927 Hz
Monitor name: 1080p TV (2)
Monitor ranges (GTF): 47-85Hz V, 31-80kHz H, max dotclock 140MHz
Has 1 extension blocks
Checksum: 0x44 (valid)

CTA extension block
Extension version: 3
40 bytes of CTA data
  Video data block
    VIC  31 1920x1080@50Hz 16:9 (native) HorFreq: 56250 Hz Clock: 148.500 MHz
    VIC  16 1920x1080@60Hz 16:9  HorFreq: 67500 Hz Clock: 148.500 MHz
    VIC  32 1920x1080@24Hz 16:9  HorFreq: 27000 Hz Clock: 74.250 MHz
    VIC  33 1920x1080@25Hz 16:9  HorFreq: 28125 Hz Clock: 74.250 MHz
    VIC  34 1920x1080@30Hz 16:9  HorFreq: 33750 Hz Clock: 74.250 MHz
    VIC  20 1920x1080i@50Hz 16:9  HorFreq: 28125 Hz Clock: 74.250 MHz
    VIC   5 1920x1080i@60Hz 16:9  HorFreq: 33750 Hz Clock: 74.250 MHz
    VIC  19 1280x720@50Hz 16:9  HorFreq: 37500 Hz Clock: 74.250 MHz
    VIC   4 1280x720@60Hz 16:9  HorFreq: 45000 Hz Clock: 74.250 MHz
    VIC  18 720x576@50Hz 16:9  HorFreq: 31250 Hz Clock: 27.000 MHz
    VIC  17 720x576@50Hz 4:3  HorFreq: 31250 Hz Clock: 27.000 MHz
    VIC   3 720x480@60Hz 16:9  HorFreq: 31469 Hz Clock: 27.000 MHz
    VIC   2 720x480@60Hz 4:3  HorFreq: 31469 Hz Clock: 27.000 MHz
    VIC   1 640x480@60Hz 4:3  HorFreq: 31469 Hz Clock: 25.175 MHz
    VIC  22 1440x576i@50Hz 16:9  HorFreq: 15625 Hz Clock: 27.000 MHz
    VIC  21 1440x576i@50Hz 4:3  HorFreq: 15625 Hz Clock: 27.000 MHz
    VIC   7 1440x480i@60Hz 16:9  HorFreq: 15734 Hz Clock: 27.000 MHz
    VIC   6 1440x480i@60Hz 4:3  HorFreq: 15734 Hz Clock: 27.000 MHz
  Audio data block
    Linear PCM, max channels 2
      Supported sample rates (kHz): 48 44.1 32
      Supported sample sizes (bits): 24 20 16
  Speaker allocation data block
    Speaker map:
      FL/FR - Front Left/Right
  Vendor-specific data block, OUI 000c03 (HDMI)
    Source physical address 2.0.0.0
    Supports_AI
    DC_36bit
    DC_30bit
    DC_Y444
    Maximum TMDS clock: 225MHz
    Video latency: 61
    Audio latency: 1
    Interlaced video latency: 55
    Interlaced audio latency: 1
Basic audio support
Supports YCbCr 4:4:4
Supports YCbCr 4:2:2
1 native detailed modes
Detailed mode: Clock 74.250 MHz, 708 mm x 398 mm
               1280 1720 1760 1980 hborder 0
                720  725  730  750 vborder 0
               +hsync -vsync 
               VertFreq: 50 Hz, HorFreq: 37500 Hz
Detailed mode: Clock 74.250 MHz, 708 mm x 398 mm
               1280 1390 1430 1650 hborder 0
                720  725  730  750 vborder 0
               +hsync +vsync 
               VertFreq: 60 Hz, HorFreq: 45000 Hz
Detailed mode: Clock 74.250 MHz, 708 mm x 398 mm
               1920 2448 2492 2640 hborder 0
                540  542  547  562 vborder 0
               +hsync +vsync interlaced 
               VertFreq: 50 Hz, HorFreq: 28125 Hz
Detailed mode: Clock 74.250 MHz, 708 mm x 398 mm
               1920 2008 2052 2200 hborder 0
                540  542  547  562 vborder 0
               +hsync +vsync interlaced 
               VertFreq: 60 Hz, HorFreq: 33750 Hz
Checksum: 0xf7 (valid)

One or more of the timings is out of range of the Monitor Ranges:
  Vertical Freq: 24 - 85 Hz
  Horizontal Freq: 15625 - 68700 Hz
  Maximum Clock: 148.500 MHz
