
EDID (hex):
00ffffffffffff0030e43c0500000000
001a0104951f1178029115945c559229
1d505400000001010101010101010101
0101010101012e3680a070381f403020
350035ae100000195c2b80a070381f40
3020350035ae10000019000000fe0039
364b5647803134305746370a00000000
0000413096011000000a010a202000cc

Extracted contents:
header:          00 ff ff ff ff ff ff 00
serial number:   30 e4 3c 05 00 00 00 00 00 1a
version:         01 04
basic params:    95 1f 11 78 02
chroma info:     91 15 94 5c 55 92 29 1d 50 54
established:     00 00 00
standard:        01 01 01 01 01 01 01 01 01 01 01 01 01 01 01 01
descriptor 1:    2e 36 80 a0 70 38 1f 40 30 20 35 00 35 ae 10 00 00 19
descriptor 2:    5c 2b 80 a0 70 38 1f 40 30 20 35 00 35 ae 10 00 00 19
descriptor 3:    00 00 00 fe 00 39 36 4b 56 47 80 31 34 30 57 46 37 0a
descriptor 4:    00 00 00 00 00 00 41 30 96 01 10 00 00 0a 01 0a 20 20
extensions:      00
checksum:        cc

EDID version: 1.4
Manufacturer: LGD Model 53c Serial Number --
Made in year 2016
Digital display
6 bits per primary color channel
DisplayPort interface
Maximum image size: 31 cm x 17 cm
Gamma: 2.20
Supported color formats: RGB 4:4:4
First detailed timing includes the native pixel format and preferred refresh rate
Display x,y Chromaticity:
  Red:   0.5800, 0.3603
  Green: 0.3320, 0.5712
  Blue:  0.1601, 0.1142
  White: 0.3134, 0.3291
Established timings supported:
Standard timings supported:
Detailed mode: Clock 138.700 MHz, 309 mm x 174 mm
               1920 1968 2000 2080 hborder 0
               1080 1083 1088 1111 vborder 0
               -hsync -vsync 
               VertFreq: 60 Hz, HorFreq: 66682 Hz
Detailed mode: Clock 111.000 MHz, 309 mm x 174 mm
               1920 1968 2000 2080 hborder 0
               1080 1083 1088 1111 vborder 0
               -hsync -vsync 
               VertFreq: 48 Hz, HorFreq: 53365 Hz
ASCII string: 96KVG
Manufacturer-specified data, tag 0
Checksum: 0xcc (valid)
EDID block does NOT conform to EDID 1.4!
	Missing name descriptor
	Missing monitor ranges
	Detailed block string not properly terminated
