
EDID (hex):
00ffffffffffff0009d101bc30000000
2b1301036f0000780a9168a259579625
144d54bfee80615981808140714f4559
31590101010164190040410026301888
3600000000000018000000ff0050444c
41393030303438303031000000fd002b
550f4e0b000a202020202020000000fc
0042656e51204d503532330a202000e2

Extracted contents:
header:          00 ff ff ff ff ff ff 00
serial number:   09 d1 01 bc 30 00 00 00 2b 13
version:         01 03
basic params:    6f 00 00 78 0a
chroma info:     91 68 a2 59 57 96 25 14 4d 54
established:     bf ee 80
standard:        61 59 81 80 81 40 71 4f 45 59 31 59 01 01 01 01
descriptor 1:    64 19 00 40 41 00 26 30 18 88 36 00 00 00 00 00 00 18
descriptor 2:    00 00 00 ff 00 50 44 4c 41 39 30 30 30 34 38 30 30 31
descriptor 3:    00 00 00 fd 00 2b 55 0f 4e 0b 00 0a 20 20 20 20 20 20
descriptor 4:    00 00 00 fc 00 42 65 6e 51 20 4d 50 35 32 33 0a 20 20
extensions:      00
checksum:        e2

EDID version: 1.3
Manufacturer: BNQ Model bc01 Serial Number --
Made in week 43 of 2009
Analog display, Input voltage level: 0.7/0.7 V
Sync: Separate Composite SyncOnGreen Serration 
Image size is variable
Gamma: 2.20
RGB color display
First detailed timing is preferred timing
Display x,y Chromaticity:
  Red:   0.6347, 0.3486
  Green: 0.3398, 0.5869
  Blue:  0.1455, 0.0800
  White: 0.3027, 0.3281
Established timings supported:
  720x400@70Hz 9:5 HorFreq: 31469 Hz Clock: 28.320 MHz
  640x480@60Hz 4:3 HorFreq: 31469 Hz Clock: 25.175 MHz
  640x480@67Hz 4:3 HorFreq: 35000 Hz Clock: 30.240 MHz
  640x480@72Hz 4:3 HorFreq: 37900 Hz Clock: 31.500 MHz
  640x480@75Hz 4:3 HorFreq: 37500 Hz Clock: 31.500 MHz
  800x600@56Hz 4:3 HorFreq: 35200 Hz Clock: 36.000 MHz
  800x600@60Hz 4:3 HorFreq: 37900 Hz Clock: 40.000 MHz
  800x600@72Hz 4:3 HorFreq: 48100 Hz Clock: 50.000 MHz
  800x600@75Hz 4:3 HorFreq: 46900 Hz Clock: 49.500 MHz
  832x624@75Hz 4:3 HorFreq: 49726 Hz Clock: 57.284 MHz
  1024x768@60Hz 4:3 HorFreq: 48400 Hz Clock: 65.000 MHz
  1024x768@70Hz 4:3 HorFreq: 56500 Hz Clock: 75.000 MHz
  1024x768@75Hz 4:3 HorFreq: 60000 Hz Clock: 78.750 MHz
  1152x870@75Hz 192:145 HorFreq: 67500 Hz Clock: 108.000 MHz
Standard timings supported:
  1024x768@85Hz 4:3 HorFreq: 68700 Hz Clock: 94.500 MHz
  1280x1024@60Hz 5:4 HorFreq: 64000 Hz Clock: 108.000 MHz
  1280x960@60Hz 4:3 HorFreq: 60000 Hz Clock: 108.000 MHz
  1152x864@75Hz 4:3 HorFreq: 67500 Hz Clock: 108.000 MHz
  800x600@85Hz 4:3 HorFreq: 53700 Hz Clock: 56.250 MHz
  640x480@85Hz 4:3 HorFreq: 43300 Hz Clock: 36.000 MHz
Detailed mode: Clock 65.000 MHz, 0 mm x 0 mm
               1024 1048 1184 1344 hborder 0
                768  771  777  806 vborder 0
               -hsync -vsync 
               VertFreq: 60 Hz, HorFreq: 48363 Hz
Serial number: --
Monitor ranges (GTF): 43-85Hz V, 15-78kHz H, max dotclock 110MHz
Monitor name: BenQ MP523
Checksum: 0xe2 (valid)


