
EDID (hex):
00ffffffffffff0005e316171c1b0100
0212010368221b78e81085a058538e27
254f54bfee00614c714f9500950f0101
0101010101019a29a0d0518422305098
360098ff1000001c000000ff00333637
38314241303732343736000000fd003c
4d1f470b000a202020202020000000fc
0037313657780a2020202020202000d0

Extracted contents:
header:          00 ff ff ff ff ff ff 00
serial number:   05 e3 16 17 1c 1b 01 00 02 12
version:         01 03
basic params:    68 22 1b 78 e8
chroma info:     10 85 a0 58 53 8e 27 25 4f 54
established:     bf ee 00
standard:        61 4c 71 4f 95 00 95 0f 01 01 01 01 01 01 01 01
descriptor 1:    9a 29 a0 d0 51 84 22 30 50 98 36 00 98 ff 10 00 00 1c
descriptor 2:    00 00 00 ff 00 33 36 37 38 31 42 41 30 37 32 34 37 36
descriptor 3:    00 00 00 fd 00 3c 4d 1f 47 0b 00 0a 20 20 20 20 20 20
descriptor 4:    00 00 00 fc 00 37 31 36 57 78 0a 20 20 20 20 20 20 20
extensions:      00
checksum:        d0

EDID version: 1.3
Manufacturer: AOC Model 1716 Serial Number --
Made in week 2 of 2008
Analog display, Input voltage level: 0.7/0.7 V
Sync: Separate 
Maximum image size: 34 cm x 27 cm
Gamma: 2.20
DPMS levels: Standby Suspend Off
RGB color display
Display x,y Chromaticity:
  Red:   0.6250, 0.3447
  Green: 0.3242, 0.5546
  Blue:  0.1542, 0.1445
  White: 0.3095, 0.3291
Established timings supported:
  720x400@70Hz 9:5 HorFreq: 31469 Hz Clock: 28.320 MHz
  640x480@60Hz 4:3 HorFreq: 31469 Hz Clock: 25.175 MHz
  640x480@67Hz 4:3 HorFreq: 35000 Hz Clock: 30.240 MHz
  640x480@72Hz 4:3 HorFreq: 37900 Hz Clock: 31.500 MHz
  640x480@75Hz 4:3 HorFreq: 37500 Hz Clock: 31.500 MHz
  800x600@56Hz 4:3 HorFreq: 35200 Hz Clock: 36.000 MHz
  800x600@60Hz 4:3 HorFreq: 37900 Hz Clock: 40.000 MHz
  800x600@72Hz 4:3 HorFreq: 48100 Hz Clock: 50.000 MHz
  800x600@75Hz 4:3 HorFreq: 46900 Hz Clock: 49.500 MHz
  832x624@75Hz 4:3 HorFreq: 49726 Hz Clock: 57.284 MHz
  1024x768@60Hz 4:3 HorFreq: 48400 Hz Clock: 65.000 MHz
  1024x768@70Hz 4:3 HorFreq: 56500 Hz Clock: 75.000 MHz
  1024x768@75Hz 4:3 HorFreq: 60000 Hz Clock: 78.750 MHz
Standard timings supported:
  1024x768@72Hz 4:3
  1152x864@75Hz 4:3 HorFreq: 67500 Hz Clock: 108.000 MHz
  1440x900@60Hz 16:10 HorFreq: 55500 Hz Clock: 88.750 MHz
  1440x900@75Hz 16:10 HorFreq: 82300 Hz Clock: 156.000 MHz
Detailed mode: Clock 106.500 MHz, 408 mm x 255 mm
               1440 1520 1672 1904 hborder 0
                900  903  909  934 vborder 0
               -hsync +vsync 
               VertFreq: 59 Hz, HorFreq: 55934 Hz
Serial number: --
Monitor ranges (GTF): 60-77Hz V, 31-71kHz H, max dotclock 110MHz
Monitor name: 716Wx
Checksum: 0xd0 (valid)
EDID block does NOT conform to EDID 1.3!
	Missing preferred timing
One or more of the timings is out of range of the Monitor Ranges:
  Vertical Freq: 56 - 75 Hz
  Horizontal Freq: 31469 - 82300 Hz
  Maximum Clock: 156.000 MHz
