
EDID (hex):
00ffffffffffff0005e31617559c0200
2c11010368221b78e80e80a7534c9824
145054bfe00081c00101010101010101
0101010101011a1d008051d01c204080
3500540e1100001c000000ff00443332
37414a41313731303933000000fd0032
4b1f3a08000a202020202020000000fc
0037313653770a202020202020200017

Extracted contents:
header:          00 ff ff ff ff ff ff 00
serial number:   05 e3 16 17 55 9c 02 00 2c 11
version:         01 03
basic params:    68 22 1b 78 e8
chroma info:     0e 80 a7 53 4c 98 24 14 50 54
established:     bf e0 00
standard:        81 c0 01 01 01 01 01 01 01 01 01 01 01 01 01 01
descriptor 1:    1a 1d 00 80 51 d0 1c 20 40 80 35 00 54 0e 11 00 00 1c
descriptor 2:    00 00 00 ff 00 44 33 32 37 41 4a 41 31 37 31 30 39 33
descriptor 3:    00 00 00 fd 00 32 4b 1f 3a 08 00 0a 20 20 20 20 20 20
descriptor 4:    00 00 00 fc 00 37 31 36 53 77 0a 20 20 20 20 20 20 20
extensions:      00
checksum:        17

EDID version: 1.3
Manufacturer: AOC Model 1716 Serial Number --
Made in week 44 of 2007
Analog display, Input voltage level: 0.7/0.7 V
Sync: Separate 
Maximum image size: 34 cm x 27 cm
Gamma: 2.20
DPMS levels: Standby Suspend Off
RGB color display
Display x,y Chromaticity:
  Red:   0.6523, 0.3242
  Green: 0.2998, 0.5957
  Blue:  0.1425, 0.0781
  White: 0.3125, 0.3281
Established timings supported:
  720x400@70Hz 9:5 HorFreq: 31469 Hz Clock: 28.320 MHz
  640x480@60Hz 4:3 HorFreq: 31469 Hz Clock: 25.175 MHz
  640x480@67Hz 4:3 HorFreq: 35000 Hz Clock: 30.240 MHz
  640x480@72Hz 4:3 HorFreq: 37900 Hz Clock: 31.500 MHz
  640x480@75Hz 4:3 HorFreq: 37500 Hz Clock: 31.500 MHz
  800x600@56Hz 4:3 HorFreq: 35200 Hz Clock: 36.000 MHz
  800x600@60Hz 4:3 HorFreq: 37900 Hz Clock: 40.000 MHz
  800x600@72Hz 4:3 HorFreq: 48100 Hz Clock: 50.000 MHz
  800x600@75Hz 4:3 HorFreq: 46900 Hz Clock: 49.500 MHz
  832x624@75Hz 4:3 HorFreq: 49726 Hz Clock: 57.284 MHz
Standard timings supported:
  1280x720@60Hz 16:9
Detailed mode: Clock 74.500 MHz, 340 mm x 270 mm
               1280 1344 1472 1664 hborder 0
                720  723  728  748 vborder 0
               -hsync +vsync 
               VertFreq: 59 Hz, HorFreq: 44771 Hz
Serial number: --
Monitor ranges (GTF): 50-75Hz V, 31-58kHz H, max dotclock 80MHz
Monitor name: 716Sw
Checksum: 0x17 (valid)
EDID block does NOT conform to EDID 1.3!
	Missing preferred timing
