
EDID (hex):
00ffffffffffff001cae505528000000
110c0103681e1778ea40d3a1574a9c23
144e52afce0001010101010101010101
010101010101c31e0020410020301060
130030e41000001e000000fd00384b18
3c08000a202020202020000000fc0047
656e204e50533535350a2020000000ff
0031373336303032383230303430005d

Extracted contents:
header:          00 ff ff ff ff ff ff 00
serial number:   1c ae 50 55 28 00 00 00 11 0c
version:         01 03
basic params:    68 1e 17 78 ea
chroma info:     40 d3 a1 57 4a 9c 23 14 4e 52
established:     af ce 00
standard:        01 01 01 01 01 01 01 01 01 01 01 01 01 01 01 01
descriptor 1:    c3 1e 00 20 41 00 20 30 10 60 13 00 30 e4 10 00 00 1e
descriptor 2:    00 00 00 fd 00 38 4b 18 3c 08 00 0a 20 20 20 20 20 20
descriptor 3:    00 00 00 fc 00 47 65 6e 20 4e 50 53 35 35 35 0a 20 20
descriptor 4:    00 00 00 ff 00 31 37 33 36 30 30 32 38 32 30 30 34 30
extensions:      00
checksum:        5d

EDID version: 1.3
Manufacturer: GEN Model 5550 Serial Number --
Analog display, Input voltage level: 0.7/0.7 V
Sync: Separate 
Maximum image size: 30 cm x 23 cm
Gamma: 2.20
DPMS levels: Standby Suspend Off
RGB color display
First detailed timing is preferred timing
Display x,y Chromaticity:
  Red:   0.6298, 0.3398
  Green: 0.2890, 0.6093
  Blue:  0.1396, 0.0791
  White: 0.3046, 0.3232
Established timings supported:
  720x400@70Hz 9:5 HorFreq: 31469 Hz Clock: 28.320 MHz
  640x480@60Hz 4:3 HorFreq: 31469 Hz Clock: 25.175 MHz
  640x480@72Hz 4:3 HorFreq: 37900 Hz Clock: 31.500 MHz
  640x480@75Hz 4:3 HorFreq: 37500 Hz Clock: 31.500 MHz
  800x600@56Hz 4:3 HorFreq: 35200 Hz Clock: 36.000 MHz
  800x600@60Hz 4:3 HorFreq: 37900 Hz Clock: 40.000 MHz
  800x600@72Hz 4:3 HorFreq: 48100 Hz Clock: 50.000 MHz
  800x600@75Hz 4:3 HorFreq: 46900 Hz Clock: 49.500 MHz
  1024x768@60Hz 4:3 HorFreq: 48400 Hz Clock: 65.000 MHz
  1024x768@70Hz 4:3 HorFreq: 56500 Hz Clock: 75.000 MHz
  1024x768@75Hz 4:3 HorFreq: 60000 Hz Clock: 78.750 MHz
Standard timings supported:
Detailed mode: Clock 78.750 MHz, 304 mm x 228 mm
               1024 1040 1136 1312 hborder 0
                768  769  772  800 vborder 0
               +hsync +vsync 
               VertFreq: 75 Hz, HorFreq: 60022 Hz
Monitor ranges (GTF): 56-75Hz V, 24-60kHz H, max dotclock 80MHz
Monitor name: Gen NPS555
Serial number: --
Checksum: 0x5d (valid)
One or more of the timings is out of range of the Monitor Ranges:
  Vertical Freq: 56 - 75 Hz
  Horizontal Freq: 31469 - 60022 Hz
  Maximum Clock: 78.750 MHz
EDID block does not conform at all!
	Bad year of manufacture
