
EDID (hex):
00ffffffffffff003a6f055601010101
2c0d0102081e1700e80535a2564b9d25
185054afce0001010101010101010101
010101010101000000fa000101010101
010101010101010a000000fd00324b1e
3d08000a202020202020000000ff0030
313139390a20202020202020000000fc
004c443533300a202020202020200063

edid-decode (hex):

00 ff ff ff ff ff ff 00 3a 6f 05 56 01 01 01 01
2c 0d 01 02 08 1e 17 00 e8 05 35 a2 56 4b 9d 25
18 50 54 af ce 00 01 01 01 01 01 01 01 01 01 01
01 01 01 01 01 01 00 00 00 fa 00 01 01 01 01 01
01 01 01 01 01 01 01 0a 00 00 00 fd 00 32 4b 1e
3d 08 00 0a 20 20 20 20 20 20 00 00 00 ff 00 30
31 31 39 39 0a 20 20 20 20 20 20 20 00 00 00 fc
00 4c 44 35 33 30 0a 20 20 20 20 20 20 20 00 63

----------------

Block 0, Base EDID:
  EDID Structure Version & Revision: 1.2
  Vendor & Product Identification:
    Manufacturer: NSO
    Model: 22021
    Serial Number: 16843009
    Made in: week 44 of 2003
  Basic Display Parameters & Features:
    Analog display
    Signal Level Standard: 0.700 : 0.300 : 1.000 V p-p
    Blank level equals black level
    Sync: Separate
    Maximum image size: 30 cm x 23 cm
    Gamma: 1.00
    DPMS levels: Standby Suspend Off
    RGB color display
  Color Characteristics:
    Red  : 0.6328, 0.3359
    Green: 0.2939, 0.6142
    Blue : 0.1445, 0.0966
    White: 0.3134, 0.3291
  Established Timings I & II:
    IBM     :   720x400    70.081663 Hz   9:5     31.467 kHz     28.320000 MHz
    DMT 0x04:   640x480    59.940476 Hz   4:3     31.469 kHz     25.175000 MHz
    DMT 0x05:   640x480    72.808802 Hz   4:3     37.861 kHz     31.500000 MHz
    DMT 0x06:   640x480    75.000000 Hz   4:3     37.500 kHz     31.500000 MHz
    DMT 0x08:   800x600    56.250000 Hz   4:3     35.156 kHz     36.000000 MHz
    DMT 0x09:   800x600    60.316541 Hz   4:3     37.879 kHz     40.000000 MHz
    DMT 0x0a:   800x600    72.187572 Hz   4:3     48.077 kHz     50.000000 MHz
    DMT 0x0b:   800x600    75.000000 Hz   4:3     46.875 kHz     49.500000 MHz
    DMT 0x10:  1024x768    60.003840 Hz   4:3     48.363 kHz     65.000000 MHz
    DMT 0x11:  1024x768    70.069359 Hz   4:3     56.476 kHz     75.000000 MHz
    DMT 0x12:  1024x768    75.028582 Hz   4:3     60.023 kHz     78.750000 MHz
  Standard Timings: none
  Detailed Timing Descriptors:
    Standard Timing Identifications:
    Display Range Limits:
      Monitor ranges (GTF): 50-75 Hz V, 30-61 kHz H, max dotclock 80 MHz
    Display Product Serial Number: '01199'
    Display Product Name: 'LD530'
Checksum: 0x63
