
EDID (hex):
00ffffffffffff004cf4610100000000
091f0103801e1a782a62f5aa524ca326
0f5054230800d1c08180314031404540
454061406140023a801871382d40582c
350059c21000001a000000ff00303030
30300a20202020202020000000fc0020
200a20202020202020202020000000fd
00303e1edc2d000a2020202020200134

edid-decode (hex):

00 ff ff ff ff ff ff 00 4c f4 61 01 00 00 00 00
09 1f 01 03 80 1e 1a 78 2a 62 f5 aa 52 4c a3 26
0f 50 54 23 08 00 d1 c0 81 80 31 40 31 40 45 40
45 40 61 40 61 40 02 3a 80 18 71 38 2d 40 58 2c
35 00 59 c2 10 00 00 1a 00 00 00 ff 00 30 30 30
30 30 0a 20 20 20 20 20 20 20 00 00 00 fc 00 20
20 0a 20 20 20 20 20 20 20 20 20 20 00 00 00 fd
00 30 3e 1e dc 2d 00 0a 20 20 20 20 20 20 01 34

----------------

Block 0, Base EDID:
  EDID Structure Version & Revision: 1.3
  Vendor & Product Identification:
    Manufacturer: SGT
    Model: 353
    Made in: week 9 of 2021
  Basic Display Parameters & Features:
    Digital display
    Maximum image size: 30 cm x 26 cm
    Gamma: 2.20
    DPMS levels: Off
    RGB color display
    First detailed timing is the preferred timing
  Color Characteristics:
    Red  : 0.6650, 0.3222
    Green: 0.2968, 0.6386
    Blue : 0.1513, 0.0615
    White: 0.3134, 0.3291
  Established Timings I & II:
    DMT 0x04:   640x480    59.940476 Hz   4:3     31.469 kHz     25.175000 MHz
    DMT 0x08:   800x600    56.250000 Hz   4:3     35.156 kHz     36.000000 MHz
    DMT 0x09:   800x600    60.316541 Hz   4:3     37.879 kHz     40.000000 MHz
    DMT 0x10:  1024x768    60.003840 Hz   4:3     48.363 kHz     65.000000 MHz
  Standard Timings:
    DMT 0x52:  1920x1080   60.000000 Hz  16:9     67.500 kHz    148.500000 MHz
    DMT 0x23:  1280x1024   60.019740 Hz   5:4     63.981 kHz    108.000000 MHz
    DMT 0x04:   640x480    59.940476 Hz   4:3     31.469 kHz     25.175000 MHz
    DMT 0x04:   640x480    59.940476 Hz   4:3     31.469 kHz     25.175000 MHz
    DMT 0x09:   800x600    60.316541 Hz   4:3     37.879 kHz     40.000000 MHz
    DMT 0x09:   800x600    60.316541 Hz   4:3     37.879 kHz     40.000000 MHz
    DMT 0x10:  1024x768    60.003840 Hz   4:3     48.363 kHz     65.000000 MHz
    DMT 0x10:  1024x768    60.003840 Hz   4:3     48.363 kHz     65.000000 MHz
  Detailed Timing Descriptors:
    DTD 1:  1920x1080   60.000000 Hz  16:9     67.500 kHz    148.500000 MHz (345 mm x 194 mm)
                 Hfront   88 Hsync  44 Hback  148 Hpol P
                 Vfront    3 Vsync   5 Vback   37 Vpol N
    Display Product Serial Number: '00000'
    Display Product Name: '  '
    Display Range Limits:
      Monitor ranges (GTF): 48-62 Hz V, 30-220 kHz H, max dotclock 450 MHz
  Extension blocks: 1
Checksum: 0x34
