
EDID (hex):
00ffffffffffff0006af080901010101
1315010495231478021065a75649a828
0a5054000000d1c00101010101010101
010101010101807080c074389040d050
a6c863c810000018807080b470384040
78288c0463c810000018807080447238
484008284c8463c810000018000000fe
0042313630485730322056300a2001b3
02030401807080867138dc404a280c4c
63c810000018403880b4703840402850
360063c8100000180000000000000000
00000000000000000000000000000000
00000000000000000000000000000000
00000000000000000000000000000000
00000000000000000000000000000000
00000000000000000000000000000049

Extracted contents:
header:          00 ff ff ff ff ff ff 00
serial number:   06 af 08 09 01 01 01 01 13 15
version:         01 04
basic params:    95 23 14 78 02
chroma info:     10 65 a7 56 49 a8 28 0a 50 54
established:     00 00 00
standard:        d1 c0 01 01 01 01 01 01 01 01 01 01 01 01 01 01
descriptor 1:    80 70 80 c0 74 38 90 40 d0 50 a6 c8 63 c8 10 00 00 18
descriptor 2:    80 70 80 b4 70 38 40 40 78 28 8c 04 63 c8 10 00 00 18
descriptor 3:    80 70 80 44 72 38 48 40 08 28 4c 84 63 c8 10 00 00 18
descriptor 4:    00 00 00 fe 00 42 31 36 30 48 57 30 32 20 56 30 0a 20
extensions:      01
checksum:        b3

EDID version: 1.4
Manufacturer: AUO Model 908 Serial Number --
Made in week 19 of 2011
Digital display
6 bits per primary color channel
DisplayPort interface
Maximum image size: 35 cm x 20 cm
Gamma: 2.20
Supported color formats: RGB 4:4:4
First detailed timing includes the native pixel format and preferred refresh rate
Display x,y Chromaticity:
  Red:   0.6523, 0.3369
  Green: 0.2851, 0.6562
  Blue:  0.1572, 0.0410
  White: 0.3134, 0.3291
Established timings supported:
Standard timings supported:
  1920x1080@60Hz 16:9
Detailed mode: Clock 288.000 MHz, 355 mm x 200 mm
               1920 2896 2976 3136 hborder 0
               1080 1122 1128 1224 vborder 0
               -hsync -vsync 
               VertFreq: 75 Hz, HorFreq: 91836 Hz
Detailed mode: Clock 288.000 MHz, 355 mm x 200 mm
               1920 2040 2080 2100 hborder 0
               1080 1104 1116 1144 vborder 0
               -hsync -vsync 
               VertFreq: 119 Hz, HorFreq: 137142 Hz
Detailed mode: Clock 288.000 MHz, 355 mm x 200 mm
               1920 2440 2480 2500 hborder 0
               1080 1100 1112 1152 vborder 0
               -hsync -vsync 
               VertFreq: 100 Hz, HorFreq: 115200 Hz
ASCII string: B160HW02 V0
Has 1 extension blocks
Checksum: 0xb3 (valid)

CTA extension block
Extension version: 3
0 bytes of CTA data
1 native detailed modes
Detailed mode: Clock 288.000 MHz, 355 mm x 200 mm
               1920 2250 2290 2310 hborder 0
               1080 1128 1140 1300 vborder 0
               -hsync -vsync 
               VertFreq: 95 Hz, HorFreq: 124675 Hz
Detailed mode: Clock 144.000 MHz, 355 mm x 200 mm
               1920 1960 2040 2100 hborder 0
               1080 1083 1089 1144 vborder 0
               -hsync -vsync 
               VertFreq: 59 Hz, HorFreq: 68571 Hz
Checksum: 0x49 (valid)

EDID block does NOT conform to EDID 1.4!
	Required 640x480p60 timings are missing in the established timings
	and/or in the SVD list (VIC 1)
	Missing name descriptor
	Missing monitor ranges
