edid-decode (hex):

00 ff ff ff ff ff ff 00 09 e5 14 07 00 00 00 00
01 1a 01 04 a5 1f 11 78 02 b5 d0 9e 55 58 9b 26
1d 50 54 00 00 00 01 01 01 01 01 01 01 01 01 01
01 01 01 01 01 01 0c 3a 80 dc 70 38 4c 40 30 20
36 00 58 c1 10 00 00 1a f2 26 80 e5 70 38 50 40
64 64 44 05 58 c1 10 00 00 1a 00 00 00 00 00 00
00 00 00 00 00 00 00 00 00 00 00 00 00 00 00 02
00 08 30 fc 0c 41 96 10 0d 22 a5 00 00 00 00 87

----------------

Block 0, Base EDID:
  EDID Structure Version & Revision: 1.4
  Vendor & Product Identification:
    Manufacturer: BOE
    Model: 1812
    Made in: week 1 of 2016
  Basic Display Parameters & Features:
    Digital display
    Bits per primary color channel: 8
    DisplayPort interface
    Maximum image size: 31 cm x 17 cm
    Gamma: 2.20
    Supported color formats: RGB 4:4:4
    First detailed timing includes the native pixel format and preferred refresh rate
  Color Characteristics:
    Red  : 0.6191, 0.3349
    Green: 0.3447, 0.6064
    Blue : 0.1513, 0.1142
    White: 0.3125, 0.3281
  Established Timings I & II: none
  Standard Timings: none
  Detailed Timing Descriptors:
    DTD 1:  1920x1080   60.068557 Hz  16:9     69.439 kHz    148.600000 MHz (344 mm x 193 mm)
                 Hfront   48 Hsync  32 Hback  140 Hpol P
                 Vfront    3 Vsync   6 Vback   67 Vpol N
    DTD 2:  1920x1080   39.994544 Hz  16:9     46.394 kHz     99.700000 MHz (344 mm x 193 mm)
                 Hfront  100 Hsync 100 Hback   29 Hpol P
                 Vfront   20 Vsync  20 Vback   40 Vpol N
    Empty Descriptor
    Manufacturer-Specified Display Descriptor (0x02): 00 02 00 08 30 fc 0c 41 96 10 0d 22 a5 00 00 00 '....0..A..."....'
Checksum: 0x87

----------------

Warnings:

Block 0, Base EDID:
  Missing Display Product Name.

Failures:

Block 0, Base EDID:
  Detailed Timing Descriptor #1: Mismatch of image size 344x193 mm vs display size 310x170 mm.
  Detailed Timing Descriptor #2: Mismatch of image size 344x193 mm vs display size 310x170 mm.
  Empty Descriptor: Use Dummy Descriptor instead of all zeroes.
EDID:
  Base EDID: The DTD max image size is 344x193mm, which is larger than the display size 310.0x170.0mm.

EDID conformity: FAIL
