
EDID (hex):
00ffffffffffff0009e5140700000000
011a0104a51f117802b5d09e55589b26
1d505400000001010101010101010101
0101010101010c3a80dc70384c403020
360058c11000001af22680e570385040
6464440558c11000001a000000000000
00000000000000000000000000000002
000830fc0c4196100d22a50000000087

Extracted contents:
header:          00 ff ff ff ff ff ff 00
serial number:   09 e5 14 07 00 00 00 00 01 1a
version:         01 04
basic params:    a5 1f 11 78 02
chroma info:     b5 d0 9e 55 58 9b 26 1d 50 54
established:     00 00 00
standard:        01 01 01 01 01 01 01 01 01 01 01 01 01 01 01 01
descriptor 1:    0c 3a 80 dc 70 38 4c 40 30 20 36 00 58 c1 10 00 00 1a
descriptor 2:    f2 26 80 e5 70 38 50 40 64 64 44 05 58 c1 10 00 00 1a
descriptor 3:    00 00 00 00 00 00 00 00 00 00 00 00 00 00 00 00 00 00
descriptor 4:    00 00 00 02 00 08 30 fc 0c 41 96 10 0d 22 a5 00 00 00
extensions:      00
checksum:        87

EDID version: 1.4
Manufacturer: BOE Model 714 Serial Number --
Made in week 1 of 2016
Digital display
8 bits per primary color channel
DisplayPort interface
Maximum image size: 31 cm x 17 cm
Gamma: 2.20
Supported color formats: RGB 4:4:4
First detailed timing includes the native pixel format and preferred refresh rate
Display x,y Chromaticity:
  Red:   0.6191, 0.3349
  Green: 0.3447, 0.6064
  Blue:  0.1513, 0.1142
  White: 0.3125, 0.3281
Established timings supported:
Standard timings supported:
Detailed mode: Clock 148.600 MHz, 344 mm x 193 mm
               1920 1968 2000 2140 hborder 0
               1080 1083 1089 1156 vborder 0
               +hsync -vsync 
               VertFreq: 60 Hz, HorFreq: 69439 Hz
Detailed mode: Clock 99.700 MHz, 344 mm x 193 mm
               1920 2020 2120 2149 hborder 0
               1080 1100 1120 1160 vborder 0
               +hsync -vsync 
               VertFreq: 39 Hz, HorFreq: 46393 Hz
Manufacturer-specified data, tag 0
Manufacturer-specified data, tag 2
Checksum: 0x87 (valid)
EDID block does NOT conform to EDID 1.4!
	Missing name descriptor
	Missing monitor ranges
