
EDID (hex):
00ffffffffffff002517851affe0f505
1e0f01036800007aaabbb9a352469824
0f484cadcf0001010101010101010101
010101010101302a009851002a403070
2300202000000000000000fd003a4b1e
500e000a202020202020000000fc004e
543137300a0a0a0a0a0a0a0a000000ff
00393939393939393939390a0a0a00a6

Extracted contents:
header:          00 ff ff ff ff ff ff 00
serial number:   25 17 85 1a ff e0 f5 05 1e 0f
version:         01 03
basic params:    68 00 00 7a aa
chroma info:     bb b9 a3 52 46 98 24 0f 48 4c
established:     ad cf 00
standard:        01 01 01 01 01 01 01 01 01 01 01 01 01 01 01 01
descriptor 1:    30 2a 00 98 51 00 2a 40 30 70 23 00 20 20 00 00 00 00
descriptor 2:    00 00 00 fd 00 3a 4b 1e 50 0e 00 0a 20 20 20 20 20 20
descriptor 3:    00 00 00 fc 00 4e 54 31 37 30 0a 0a 0a 0a 0a 0a 0a 0a
descriptor 4:    00 00 00 ff 00 39 39 39 39 39 39 39 39 39 39 0a 0a 0a
extensions:      00
checksum:        a6

EDID version: 1.3
Manufacturer: IHW Model 1a85 Serial Number --
Analog display, Input voltage level: 0.7/0.7 V
Sync: Separate 
Image size is variable
Gamma: 2.22
DPMS levels: Standby Off
RGB color display
First detailed timing is preferred timing
Display x,y Chromaticity:
  Red:   0.6386, 0.3232
  Green: 0.2753, 0.5966
  Blue:  0.1425, 0.0615
  White: 0.2832, 0.2978
Established timings supported:
  720x400@70Hz 9:5 HorFreq: 31469 Hz Clock: 28.320 MHz
  640x480@60Hz 4:3 HorFreq: 31469 Hz Clock: 25.175 MHz
  640x480@72Hz 4:3 HorFreq: 37900 Hz Clock: 31.500 MHz
  640x480@75Hz 4:3 HorFreq: 37500 Hz Clock: 31.500 MHz
  800x600@60Hz 4:3 HorFreq: 37900 Hz Clock: 40.000 MHz
  800x600@72Hz 4:3 HorFreq: 48100 Hz Clock: 50.000 MHz
  800x600@75Hz 4:3 HorFreq: 46900 Hz Clock: 49.500 MHz
  1024x768@60Hz 4:3 HorFreq: 48400 Hz Clock: 65.000 MHz
  1024x768@70Hz 4:3 HorFreq: 56500 Hz Clock: 75.000 MHz
  1024x768@75Hz 4:3 HorFreq: 60000 Hz Clock: 78.750 MHz
  1280x1024@75Hz 5:4 HorFreq: 80000 Hz Clock: 135.000 MHz
Standard timings supported:
Detailed mode: Clock 108.000 MHz, 32 mm x 32 mm
               1280 1328 1440 1688 hborder 0
               1024 1026 1029 1066 vborder 0
               -hsync -vsync analog composite 
               VertFreq: 60 Hz, HorFreq: 63981 Hz
Monitor ranges (GTF): 58-75Hz V, 30-80kHz H, max dotclock 140MHz
Monitor name: NT170
Serial number: --
Checksum: 0xa6 (valid)
EDID block does NOT conform to EDID 1.3!
	Detailed block string not properly terminated
EDID block does not conform at all!
	Bad year of manufacture
