
EDID (hex):
00ffffffffffff0006afed5300000000
101a0104a5221378029685a258549f27
0e505400000001010101010101010101
010101010101987180c870383e406c30
aa0058c110000018987180c87038b444
6c30aa0058c110000018000000fe0041
554f0a202020202020202020000000fe
004231353648544e30352e33200a0064

Extracted contents:
header:          00 ff ff ff ff ff ff 00
serial number:   06 af ed 53 00 00 00 00 10 1a
version:         01 04
basic params:    a5 22 13 78 02
chroma info:     96 85 a2 58 54 9f 27 0e 50 54
established:     00 00 00
standard:        01 01 01 01 01 01 01 01 01 01 01 01 01 01 01 01
descriptor 1:    98 71 80 c8 70 38 3e 40 6c 30 aa 00 58 c1 10 00 00 18
descriptor 2:    98 71 80 c8 70 38 b4 44 6c 30 aa 00 58 c1 10 00 00 18
descriptor 3:    00 00 00 fe 00 41 55 4f 0a 20 20 20 20 20 20 20 20 20
descriptor 4:    00 00 00 fe 00 42 31 35 36 48 54 4e 30 35 2e 33 20 0a
extensions:      00
checksum:        64

EDID version: 1.4
Manufacturer: AUO Model 53ed Serial Number --
Made in week 16 of 2016
Digital display
8 bits per primary color channel
DisplayPort interface
Maximum image size: 34 cm x 19 cm
Gamma: 2.20
Supported color formats: RGB 4:4:4
First detailed timing includes the native pixel format and preferred refresh rate
Display x,y Chromaticity:
  Red:   0.6347, 0.3447
  Green: 0.3291, 0.6230
  Blue:  0.1542, 0.0546
  White: 0.3134, 0.3291
Established timings supported:
Standard timings supported:
Detailed mode: Clock 290.800 MHz, 344 mm x 193 mm
               1920 2028 2076 2120 hborder 0
               1080 1090 1100 1142 vborder 0
               -hsync -vsync 
               VertFreq: 120 Hz, HorFreq: 137169 Hz
Detailed mode: Clock 290.800 MHz, 344 mm x 193 mm
               1920 2028 2076 2120 hborder 0
               1080 1090 1100 2284 vborder 0
               -hsync -vsync 
               VertFreq: 60 Hz, HorFreq: 137169 Hz
ASCII string: AUO
ASCII string: B156HTN05.3 
Checksum: 0x64 (valid)
EDID block does NOT conform to EDID 1.4!
	Missing name descriptor
	Missing monitor ranges
