
EDID (hex):
00ffffffffffff004ca3303000000000
00130103801b10780a25c59759558e27
20505400000001010101010101010101
010101010101131b5660500016303020
25000090100000190000000f00000000
00000000001eb4027400000000fe0053
414d53554e470a2020202020000000fe
00313136415430332d4130310a20006f

Extracted contents:
header:          00 ff ff ff ff ff ff 00
serial number:   4c a3 30 30 00 00 00 00 00 13
version:         01 03
basic params:    80 1b 10 78 0a
chroma info:     25 c5 97 59 55 8e 27 20 50 54
established:     00 00 00
standard:        01 01 01 01 01 01 01 01 01 01 01 01 01 01 01 01
descriptor 1:    13 1b 56 60 50 00 16 30 30 20 25 00 00 90 10 00 00 19
descriptor 2:    00 00 00 0f 00 00 00 00 00 00 00 00 00 1e b4 02 74 00
descriptor 3:    00 00 00 fe 00 53 41 4d 53 55 4e 47 0a 20 20 20 20 20
descriptor 4:    00 00 00 fe 00 31 31 36 41 54 30 33 2d 41 30 31 0a 20
extensions:      00
checksum:        6f

EDID version: 1.3
Manufacturer: SEC Model 3030 Serial Number --
Made in year 2009
Digital display
Maximum image size: 27 cm x 16 cm
Gamma: 2.20
RGB color display
First detailed timing is preferred timing
Display x,y Chromaticity:
  Red:   0.5898, 0.3496
  Green: 0.3330, 0.5556
  Blue:  0.1552, 0.1250
  White: 0.3134, 0.3291
Established timings supported:
Standard timings supported:
Detailed mode: Clock 69.310 MHz, 256 mm x 144 mm
               1366 1414 1446 1462 hborder 0
                768  770  775  790 vborder 0
               -hsync -vsync 
               VertFreq: 60 Hz, HorFreq: 47407 Hz
Manufacturer-specified data, tag 15
ASCII string: SAMSUNG
ASCII string: 116AT03-A01
Checksum: 0x6f (valid)
EDID block does NOT conform to EDID 1.3!
	Missing name descriptor
	Missing monitor ranges
