
EDID (hex):
00ffffffffffff004ca3303000000000
0013010380160d780acec59659559228
1e505400000001010101010101010101
010101010101f8160094415856201888
3600df7d000000190000000f00000000
00000000001eb4027400000000fe0053
414d53554e470a2020202020000000fe
003130314e5430322d3330360a20007b

Extracted contents:
header:          00 ff ff ff ff ff ff 00
serial number:   4c a3 30 30 00 00 00 00 00 13
version:         01 03
basic params:    80 16 0d 78 0a
chroma info:     ce c5 96 59 55 92 28 1e 50 54
established:     00 00 00
standard:        01 01 01 01 01 01 01 01 01 01 01 01 01 01 01 01
descriptor 1:    f8 16 00 94 41 58 56 20 18 88 36 00 df 7d 00 00 00 19
descriptor 2:    00 00 00 0f 00 00 00 00 00 00 00 00 00 1e b4 02 74 00
descriptor 3:    00 00 00 fe 00 53 41 4d 53 55 4e 47 0a 20 20 20 20 20
descriptor 4:    00 00 00 fe 00 31 30 31 4e 54 30 32 2d 33 30 36 0a 20
extensions:      00
checksum:        7b

EDID version: 1.3
Manufacturer: SEC Model 3030 Serial Number --
Made in year 2009
Digital display
Maximum image size: 22 cm x 13 cm
Gamma: 2.20
RGB color display
First detailed timing is preferred timing
Display x,y Chromaticity:
  Red:   0.5888, 0.3476
  Green: 0.3349, 0.5722
  Blue:  0.1591, 0.1171
  White: 0.3134, 0.3291
Established timings supported:
Standard timings supported:
Detailed mode: Clock 58.800 MHz, 223 mm x 125 mm
               1024 1048 1184 1428 hborder 0
                600  603  609  686 vborder 0
               -hsync -vsync 
               VertFreq: 60 Hz, HorFreq: 41176 Hz
Manufacturer-specified data, tag 15
ASCII string: SAMSUNG
ASCII string: 101NT02-306
Checksum: 0x7b (valid)
EDID block does NOT conform to EDID 1.3!
	Missing name descriptor
	Missing monitor ranges
