
EDID (hex):
00ffffffffffff004c2e1322cd332206
05130103802f1d782ac905a3574b9c25
125054afcf0001010101814081800101
b300d1c00101fc3a8018713846403020
3600da281100001a000000fd00384c1f
5311000a202020202020000000fc004c
4344204d4f4e49544f520a20000000fe
000a2020202020202020202020200048

Extracted contents:
header:          00 ff ff ff ff ff ff 00
serial number:   4c 2e 13 22 cd 33 22 06 05 13
version:         01 03
basic params:    80 2f 1d 78 2a
chroma info:     c9 05 a3 57 4b 9c 25 12 50 54
established:     af cf 00
standard:        01 01 01 01 81 40 81 80 01 01 b3 00 d1 c0 01 01
descriptor 1:    fc 3a 80 18 71 38 46 40 30 20 36 00 da 28 11 00 00 1a
descriptor 2:    00 00 00 fd 00 38 4c 1f 53 11 00 0a 20 20 20 20 20 20
descriptor 3:    00 00 00 fc 00 4c 43 44 20 4d 4f 4e 49 54 4f 52 0a 20
descriptor 4:    00 00 00 fe 00 0a 20 20 20 20 20 20 20 20 20 20 20 20
extensions:      00
checksum:        48

EDID version: 1.3
Manufacturer: SAN Model 2213 Serial Number --
Made in week 5 of 2009
Digital display
Maximum image size: 47 cm x 29 cm
Gamma: 2.20
DPMS levels: Off
RGB color display
First detailed timing is preferred timing
Display x,y Chromaticity:
  Red:   0.6396, 0.3398
  Green: 0.2949, 0.6103
  Blue:  0.1445, 0.0703
  White: 0.3134, 0.3291
Established timings supported:
  720x400@70Hz 9:5 HorFreq: 31469 Hz Clock: 28.320 MHz
  640x480@60Hz 4:3 HorFreq: 31469 Hz Clock: 25.175 MHz
  640x480@72Hz 4:3 HorFreq: 37900 Hz Clock: 31.500 MHz
  640x480@75Hz 4:3 HorFreq: 37500 Hz Clock: 31.500 MHz
  800x600@56Hz 4:3 HorFreq: 35200 Hz Clock: 36.000 MHz
  800x600@60Hz 4:3 HorFreq: 37900 Hz Clock: 40.000 MHz
  800x600@72Hz 4:3 HorFreq: 48100 Hz Clock: 50.000 MHz
  800x600@75Hz 4:3 HorFreq: 46900 Hz Clock: 49.500 MHz
  1024x768@60Hz 4:3 HorFreq: 48400 Hz Clock: 65.000 MHz
  1024x768@70Hz 4:3 HorFreq: 56500 Hz Clock: 75.000 MHz
  1024x768@75Hz 4:3 HorFreq: 60000 Hz Clock: 78.750 MHz
  1280x1024@75Hz 5:4 HorFreq: 80000 Hz Clock: 135.000 MHz
Standard timings supported:
  1280x960@60Hz 4:3 HorFreq: 60000 Hz Clock: 108.000 MHz
  1280x1024@60Hz 5:4 HorFreq: 64000 Hz Clock: 108.000 MHz
  1680x1050@60Hz 16:10 HorFreq: 64700 Hz Clock: 119.000 MHz
  1920x1080@60Hz 16:9
Detailed mode: Clock 151.000 MHz, 474 mm x 296 mm
               1920 1968 2000 2200 hborder 0
               1080 1083 1089 1150 vborder 0
               +hsync -vsync 
               VertFreq: 59 Hz, HorFreq: 68636 Hz
Monitor ranges (GTF): 56-76Hz V, 31-83kHz H, max dotclock 170MHz
Monitor name: LCD MONITOR
ASCII string: 
Checksum: 0x48 (valid)
