
EDID (hex):
00ffffffffffff0059af011501000000
3115010380a05a782aedeca6554d9e25
0c4e53a10800714081c0814081809500
b300d1c0d100565e00a0a0a029502820
350055502100001a283c80a070b02340
3020260006442100001a000000fd0038
3d1e5b19000a202020202020000000fc
00514844204456490a20202020200029

Extracted contents:
header:          00 ff ff ff ff ff ff 00
serial number:   59 af 01 15 01 00 00 00 31 15
version:         01 03
basic params:    80 a0 5a 78 2a
chroma info:     ed ec a6 55 4d 9e 25 0c 4e 53
established:     a1 08 00
standard:        71 40 81 c0 81 40 81 80 95 00 b3 00 d1 c0 d1 00
descriptor 1:    56 5e 00 a0 a0 a0 29 50 28 20 35 00 55 50 21 00 00 1a
descriptor 2:    28 3c 80 a0 70 b0 23 40 30 20 26 00 06 44 21 00 00 1a
descriptor 3:    00 00 00 fd 00 38 3d 1e 5b 19 00 0a 20 20 20 20 20 20
descriptor 4:    00 00 00 fc 00 51 48 44 20 44 56 49 0a 20 20 20 20 20
extensions:      00
checksum:        29

EDID version: 1.3
Manufacturer: VMO Model 1501 Serial Number --
Made in week 49 of 2011
Digital display
Maximum image size: 160 cm x 90 cm
Gamma: 2.20
DPMS levels: Off
RGB color display
First detailed timing is preferred timing
Display x,y Chromaticity:
  Red:   0.6513, 0.3339
  Green: 0.3037, 0.6181
  Blue:  0.1474, 0.0488
  White: 0.3076, 0.3242
Established timings supported:
  720x400@70Hz 9:5 HorFreq: 31469 Hz Clock: 28.320 MHz
  640x480@60Hz 4:3 HorFreq: 31469 Hz Clock: 25.175 MHz
  800x600@60Hz 4:3 HorFreq: 37900 Hz Clock: 40.000 MHz
  1024x768@60Hz 4:3 HorFreq: 48400 Hz Clock: 65.000 MHz
Standard timings supported:
  1152x864@60Hz 4:3
  1280x720@60Hz 16:9
  1280x960@60Hz 4:3 HorFreq: 60000 Hz Clock: 108.000 MHz
  1280x1024@60Hz 5:4 HorFreq: 64000 Hz Clock: 108.000 MHz
  1440x900@60Hz 16:10 HorFreq: 55500 Hz Clock: 88.750 MHz
  1680x1050@60Hz 16:10 HorFreq: 64700 Hz Clock: 119.000 MHz
  1920x1080@60Hz 16:9
  1920x1200@60Hz 16:10 HorFreq: 74000 Hz Clock: 154.000 MHz
Detailed mode: Clock 241.500 MHz, 597 mm x 336 mm
               2560 2600 2632 2720 hborder 0
               1440 1443 1448 1481 vborder 0
               +hsync -vsync 
               VertFreq: 59 Hz, HorFreq: 88786 Hz
Detailed mode: Clock 154.000 MHz, 518 mm x 324 mm
               1920 1968 2000 2080 hborder 0
               1200 1202 1208 1235 vborder 0
               +hsync -vsync 
               VertFreq: 59 Hz, HorFreq: 74038 Hz
Monitor ranges (GTF): 56-61Hz V, 30-91kHz H, max dotclock 250MHz
Monitor name: QHD DVI
Checksum: 0x29 (valid)
One or more of the timings is out of range of the Monitor Ranges:
  Vertical Freq: 59 - 70 Hz
  Horizontal Freq: 31469 - 88786 Hz
  Maximum Clock: 241.500 MHz
