
EDID (hex):
00ffffffffffff0030aeb46000000000
2e180104a53e22783a5525a1574fa028
0f5054a10800810081c081809500a9c0
b300d1c0d1004dd000a0f0703e803020
35006d552100001e000000fc0050726f
323834306d0a20202020000000fd0018
461a8c36000a202020202020000000ff
005639303057564b410affffffff01d5
02031ef15190050403020716011f1213
14201511062223097f07830100000474
0030f2705a80b0588a006d552100001e
662150b051001b30704036006d552100
001ee26800a0a0402e60302036006d55
2100001c565e00a0a0a0295030203500
55210000001c0474801871705a80582c
8a006d552100000000000000000000a5

Extracted contents:
header:          00 ff ff ff ff ff ff 00
serial number:   30 ae b4 60 00 00 00 00 2e 18
version:         01 04
basic params:    a5 3e 22 78 3a
chroma info:     55 25 a1 57 4f a0 28 0f 50 54
established:     a1 08 00
standard:        81 00 81 c0 81 80 95 00 a9 c0 b3 00 d1 c0 d1 00
descriptor 1:    4d d0 00 a0 f0 70 3e 80 30 20 35 00 6d 55 21 00 00 1e
descriptor 2:    00 00 00 fc 00 50 72 6f 32 38 34 30 6d 0a 20 20 20 20
descriptor 3:    00 00 00 fd 00 18 46 1a 8c 36 00 0a 20 20 20 20 20 20
descriptor 4:    00 00 00 ff 00 56 39 30 30 57 56 4b 41 0a ff ff ff ff
extensions:      01
checksum:        d5

EDID version: 1.4
Manufacturer: LEN Model 60b4 Serial Number --
Made in week 46 of 2014
Digital display
8 bits per primary color channel
DisplayPort interface
Maximum image size: 62 cm x 34 cm
Gamma: 2.20
DPMS levels: Off
Supported color formats: RGB 4:4:4, YCrCb 4:4:4, YCrCb 4:2:2
First detailed timing includes the native pixel format and preferred refresh rate
Display x,y Chromaticity:
  Red:   0.6298, 0.3408
  Green: 0.3095, 0.6259
  Blue:  0.1562, 0.0605
  White: 0.3134, 0.3291
Established timings supported:
  720x400@70Hz 9:5 HorFreq: 31469 Hz Clock: 28.320 MHz
  640x480@60Hz 4:3 HorFreq: 31469 Hz Clock: 25.175 MHz
  800x600@60Hz 4:3 HorFreq: 37900 Hz Clock: 40.000 MHz
  1024x768@60Hz 4:3 HorFreq: 48400 Hz Clock: 65.000 MHz
Standard timings supported:
  1280x800@60Hz 16:10
  1280x720@60Hz 16:9
  1280x1024@60Hz 5:4 HorFreq: 64000 Hz Clock: 108.000 MHz
  1440x900@60Hz 16:10 HorFreq: 55500 Hz Clock: 88.750 MHz
  1600x900@60Hz 16:9
  1680x1050@60Hz 16:10 HorFreq: 64700 Hz Clock: 119.000 MHz
  1920x1080@60Hz 16:9
  1920x1200@60Hz 16:10 HorFreq: 74000 Hz Clock: 154.000 MHz
Detailed mode: Clock 533.250 MHz, 621 mm x 341 mm
               3840 3888 3920 4000 hborder 0
               2160 2163 2168 2222 vborder 0
               +hsync +vsync 
               VertFreq: 59 Hz, HorFreq: 133312 Hz
Monitor name: Pro2840m
Monitor ranges (GTF): 24-70Hz V, 26-140kHz H, max dotclock 540MHz
Serial number: --
Has 1 extension blocks
Checksum: 0xd5 (valid)

CTA extension block
Extension version: 3
26 bytes of CTA data
  Video data block
    VIC  16 1920x1080@60Hz 16:9 (native) HorFreq: 67500 Hz Clock: 148.500 MHz
    VIC   5 1920x1080i@60Hz 16:9  HorFreq: 33750 Hz Clock: 74.250 MHz
    VIC   4 1280x720@60Hz 16:9  HorFreq: 45000 Hz Clock: 74.250 MHz
    VIC   3 720x480@60Hz 16:9  HorFreq: 31469 Hz Clock: 27.000 MHz
    VIC   2 720x480@60Hz 4:3  HorFreq: 31469 Hz Clock: 27.000 MHz
    VIC   7 1440x480i@60Hz 16:9  HorFreq: 15734 Hz Clock: 27.000 MHz
    VIC  22 1440x576i@50Hz 16:9  HorFreq: 15625 Hz Clock: 27.000 MHz
    VIC   1 640x480@60Hz 4:3  HorFreq: 31469 Hz Clock: 25.175 MHz
    VIC  31 1920x1080@50Hz 16:9  HorFreq: 56250 Hz Clock: 148.500 MHz
    VIC  18 720x576@50Hz 16:9  HorFreq: 31250 Hz Clock: 27.000 MHz
    VIC  19 1280x720@50Hz 16:9  HorFreq: 37500 Hz Clock: 74.250 MHz
    VIC  20 1920x1080i@50Hz 16:9  HorFreq: 28125 Hz Clock: 74.250 MHz
    VIC  32 1920x1080@24Hz 16:9  HorFreq: 27000 Hz Clock: 74.250 MHz
    VIC  21 1440x576i@50Hz 4:3  HorFreq: 15625 Hz Clock: 27.000 MHz
    VIC  17 720x576@50Hz 4:3  HorFreq: 31250 Hz Clock: 27.000 MHz
    VIC   6 1440x480i@60Hz 4:3  HorFreq: 15734 Hz Clock: 27.000 MHz
    VIC  34 1920x1080@30Hz 16:9  HorFreq: 33750 Hz Clock: 74.250 MHz
  Audio data block
    Linear PCM, max channels 2
      Supported sample rates (kHz): 192 176.4 96 88.2 48 44.1 32
      Supported sample sizes (bits): 24 20 16
  Speaker allocation data block
    Speaker map:
      FL/FR - Front Left/Right
Underscans PC formats by default
Basic audio support
Supports YCbCr 4:4:4
Supports YCbCr 4:2:2
1 native detailed modes
Detailed mode: Clock 297.000 MHz, 621 mm x 341 mm
               3840 4016 4104 4400 hborder 0
               2160 2168 2178 2250 vborder 0
               +hsync +vsync 
               VertFreq: 30 Hz, HorFreq: 67500 Hz
Detailed mode: Clock 85.500 MHz, 621 mm x 341 mm
               1360 1472 1536 1792 hborder 0
                768  771  777  795 vborder 0
               +hsync +vsync 
               VertFreq: 60 Hz, HorFreq: 47712 Hz
Detailed mode: Clock 268.500 MHz, 621 mm x 341 mm
               2560 2608 2640 2720 hborder 0
               1600 1603 1609 1646 vborder 0
               -hsync +vsync 
               VertFreq: 59 Hz, HorFreq: 98713 Hz
Detailed mode: Clock 241.500 MHz, 85 mm x 33 mm
               2560 2608 2640 2720 hborder 0
               1440 1443 1448 1481 vborder 0
               -hsync +vsync 
               VertFreq: 59 Hz, HorFreq: 88786 Hz
Detailed mode: Clock 297.000 MHz, 621 mm x 341 mm
               1920 2008 2052 2200 hborder 0
               2160 2168 2178 2250 vborder 0
               -hsync -vsync analog composite 
               VertFreq: 60 Hz, HorFreq: 135000 Hz
Checksum: 0xa5 (valid)

EDID block does NOT conform to EDID 1.4!
	Detailed block string not properly terminated
Warning: One or more of the timings is out of range of the Monitor Ranges:
  Vertical Freq: 24 - 70 Hz
  Horizontal Freq: 15625 - 135000 Hz
  Maximum Clock: 533.250 MHz
