
EDID (hex):
00ffffffffffff0030aed56101010101
1a1d0104b56921783bf9c1ac4f40ac25
0d5054a1080081809500a9c0b300d1c0
d10001010101e0e900c8f0b023404420
58041c494100001ae5c200c8f0b02340
442058041c494100001a000000fd0030
90b2b248010a202020202020000000fc
004c454e20503434772d31300a20026a
020348f14d61601f9014010304121305
023f2309070783010000e200c06d030c
00200038782000600102036d1a000002
03309000036234082fe305e301e30f03
00e606070161561ca64e00a0a0b02340
302058041c494100001aa32900a050b0
2340302058041c494100001ad27400c8
f0b02340442058041c494100001a0029
7012790000030114a6180189ff0ec700
43001f00af0422000700050000000000
00000000000000000000000000000000
00000000000000000000000000000000
00000000000000000000000000000000
00000000000000000000000000000000
00000000000000000000000000000000
0000000000000000000000000000fe90

Extracted contents:
header:          00 ff ff ff ff ff ff 00
serial number:   30 ae d5 61 01 01 01 01 1a 1d
version:         01 04
basic params:    b5 69 21 78 3b
chroma info:     f9 c1 ac 4f 40 ac 25 0d 50 54
established:     a1 08 00
standard:        81 80 95 00 a9 c0 b3 00 d1 c0 d1 00 01 01 01 01
descriptor 1:    e0 e9 00 c8 f0 b0 23 40 44 20 58 04 1c 49 41 00 00 1a
descriptor 2:    e5 c2 00 c8 f0 b0 23 40 44 20 58 04 1c 49 41 00 00 1a
descriptor 3:    00 00 00 fd 00 30 90 b2 b2 48 01 0a 20 20 20 20 20 20
descriptor 4:    00 00 00 fc 00 4c 45 4e 20 50 34 34 77 2d 31 30 0a 20
extensions:      02
checksum:        6a

EDID version: 1.4
Manufacturer: LEN Model 61d5 Serial Number --
Made in week 26 of 2019
Digital display
10 bits per primary color channel
DisplayPort interface
Maximum image size: 105 cm x 33 cm
Gamma: 2.20
DPMS levels: Off
Supported color formats: RGB 4:4:4, YCrCb 4:4:4, YCrCb 4:2:2
First detailed timing includes the native pixel format and preferred refresh rate
Display is continuous frequency
Display x,y Chromaticity:
  Red:   0.6748, 0.3115
  Green: 0.2519, 0.6728
  Blue:  0.1474, 0.0507
  White: 0.3125, 0.3291
Established timings supported:
  720x400@70Hz 9:5 HorFreq: 31469 Hz Clock: 28.320 MHz
  640x480@60Hz 4:3 HorFreq: 31469 Hz Clock: 25.175 MHz
  800x600@60Hz 4:3 HorFreq: 37900 Hz Clock: 40.000 MHz
  1024x768@60Hz 4:3 HorFreq: 48400 Hz Clock: 65.000 MHz
Standard timings supported:
  1280x1024@60Hz 5:4 HorFreq: 64000 Hz Clock: 108.000 MHz
  1440x900@60Hz 16:10 HorFreq: 55500 Hz Clock: 88.750 MHz
  1600x900@60Hz 16:9
  1680x1050@60Hz 16:10 HorFreq: 64700 Hz Clock: 119.000 MHz
  1920x1080@60Hz 16:9
  1920x1200@60Hz 16:10 HorFreq: 74000 Hz Clock: 154.000 MHz
Detailed mode: Clock 598.720 MHz, 1052 mm x 329 mm
               3840 3908 3940 4040 hborder 0
               1200 1221 1229 1235 vborder 0
               +hsync -vsync 
               VertFreq: 119 Hz, HorFreq: 148198 Hz
Detailed mode: Clock 498.930 MHz, 1052 mm x 329 mm
               3840 3908 3940 4040 hborder 0
               1200 1221 1229 1235 vborder 0
               +hsync -vsync 
               VertFreq: 99 Hz, HorFreq: 123497 Hz
Monitor ranges (bare limits): 48-144Hz V, 178-178kHz H, max dotclock 720MHz
Monitor name: LEN P44w-10
Has 2 extension blocks
Checksum: 0x6a (valid)

CTA extension block
Extension version: 3
68 bytes of CTA data
  Video data block
    VIC  97 3840x2160@60Hz 16:9  HorFreq: 135000 Hz Clock: 594.000 MHz
    VIC  96 3840x2160@50Hz 16:9  HorFreq: 112500 Hz Clock: 594.000 MHz
    VIC  31 1920x1080@50Hz 16:9  HorFreq: 56250 Hz Clock: 148.500 MHz
    VIC  16 1920x1080@60Hz 16:9 (native) HorFreq: 67500 Hz Clock: 148.500 MHz
    VIC  20 1920x1080i@50Hz 16:9  HorFreq: 28125 Hz Clock: 74.250 MHz
    VIC   1 640x480@60Hz 4:3  HorFreq: 31469 Hz Clock: 25.175 MHz
    VIC   3 720x480@60Hz 16:9  HorFreq: 31469 Hz Clock: 27.000 MHz
    VIC   4 1280x720@60Hz 16:9  HorFreq: 45000 Hz Clock: 74.250 MHz
    VIC  18 720x576@50Hz 16:9  HorFreq: 31250 Hz Clock: 27.000 MHz
    VIC  19 1280x720@50Hz 16:9  HorFreq: 37500 Hz Clock: 74.250 MHz
    VIC   5 1920x1080i@60Hz 16:9  HorFreq: 33750 Hz Clock: 74.250 MHz
    VIC   2 720x480@60Hz 4:3  HorFreq: 31469 Hz Clock: 27.000 MHz
    VIC  63 1920x1080@120Hz 16:9  HorFreq: 135000 Hz Clock: 297.000 MHz
  Audio data block
    Linear PCM, max channels 2
      Supported sample rates (kHz): 48 44.1 32
      Supported sample sizes (bits): 24 20 16
  Speaker allocation data block
    Speaker map:
      FL/FR - Front Left/Right
  Extended tag: Video capability data block
    YCbCr quantization: Selectable (via AVI YQ) (1)
    RGB quantization: Selectable (via AVI Q) (1)
    PT scan behaviour: No Data (0)
    IT scan behaviour: IT video formats not supported (0)
    CE scan behaviour: CE video formats not supported (0)
  Vendor-specific data block, OUI 000c03 (HDMI)
    Source physical address 2.0.0.0
    DC_36bit
    DC_30bit
    DC_Y444
    Maximum TMDS clock: 600MHz
    Extended HDMI video details:
      HDMI VIC 1 3840x2160@30Hz 16:9 HorFreq: 67500 Hz Clock: 297.000 MHz
      HDMI VIC 2 3840x2160@25Hz 16:9 HorFreq: 56250 Hz Clock: 297.000 MHz
      HDMI VIC 3 3840x2160@24Hz 16:9 HorFreq: 54000 Hz Clock: 297.000 MHz
  Vendor-specific data block, OUI 00001a
  Extended tag: Colorimetry data block
    xvYCC601
    xvYCC709
    BT2020cYCC
    BT2020YCC
    BT2020RGB
  Extended tag: YCbCr 4:2:0 capability map data block
    VSD Index 0
    VSD Index 1
  Extended tag: HDR static metadata data block
    Electro optical transfer functions:
      Traditional gamma - SDR luminance range
      Traditional gamma - HDR luminance range
      SMPTE ST2084
    Supported static metadata descriptors:
      Static metadata type 1
    Desired content max luminance: 97 (408.759 cd/m^2)
    Desired content max frame-average luminance: 86 (322.098 cd/m^2)
    Desired content min luminance: 28 (0.049 cd/m^2)
Underscans PC formats by default
Basic audio support
Supports YCbCr 4:4:4
Supports YCbCr 4:2:2
1 native detailed modes
Detailed mode: Clock 201.340 MHz, 1052 mm x 329 mm
               2560 2608 2640 2720 hborder 0
               1200 1221 1229 1235 vborder 0
               +hsync -vsync 
               VertFreq: 59 Hz, HorFreq: 74022 Hz
Detailed mode: Clock 106.590 MHz, 1052 mm x 329 mm
               1280 1328 1360 1440 hborder 0
               1200 1221 1229 1235 vborder 0
               +hsync -vsync 
               VertFreq: 59 Hz, HorFreq: 74020 Hz
Detailed mode: Clock 299.060 MHz, 1052 mm x 329 mm
               3840 3908 3940 4040 hborder 0
               1200 1221 1229 1235 vborder 0
               +hsync -vsync 
               VertFreq: 59 Hz, HorFreq: 74024 Hz
Checksum: 0x29 (valid)


DisplayID extension block
Extension version: 18
Length 121, version 18, extension count 0
Checksum: 0xfe (valid)
Type 1 detailed timing: aspect: undefined, Preferred  
Detailed mode: Clock 718.460 MHz, 0 mm x 0 mm
               3839 3906 3937 4038
               1199 1206 1211 1233
               -hsync -vsync

EDID block does NOT conform to EDID 1.4!
	HDMI VSDB Max TMDS rate is > 340
Warning: One or more of the timings is out of range of the Monitor Ranges:
  Vertical Freq: 24 - 120 Hz
  Horizontal Freq: 28125 - 148198 Hz
  Maximum Clock: 598.720 MHz
Warning: HDMI VIC Codes must have their CTA-861 VIC equivalents in the VSB
