
EDID (hex):
00ffffffffffff0030e40c0200000000
00130103902313780a1be59e59509826
0e505400000001010101010101010101
0101010101012f2640a060841a303020
350059c21000001b2f2640a060841a30
3020350059c21000001b000000fe004d
54364b47803135365744310a00000000
00000000000000000002010a202000bc

Extracted contents:
header:          00 ff ff ff ff ff ff 00
serial number:   30 e4 0c 02 00 00 00 00 00 13
version:         01 03
basic params:    90 23 13 78 0a
chroma info:     1b e5 9e 59 50 98 26 0e 50 54
established:     00 00 00
standard:        01 01 01 01 01 01 01 01 01 01 01 01 01 01 01 01
descriptor 1:    2f 26 40 a0 60 84 1a 30 30 20 35 00 59 c2 10 00 00 1b
descriptor 2:    2f 26 40 a0 60 84 1a 30 30 20 35 00 59 c2 10 00 00 1b
descriptor 3:    00 00 00 fe 00 4d 54 36 4b 47 80 31 35 36 57 44 31 0a
descriptor 4:    00 00 00 00 00 00 00 00 00 00 00 00 00 02 01 0a 20 20
extensions:      00
checksum:        bc

EDID version: 1.3
Manufacturer: LGD Model 20c Serial Number --
Made in year 2009
Digital display
Maximum image size: 35 cm x 19 cm
Gamma: 2.20
RGB color display
First detailed timing is preferred timing
Display x,y Chromaticity:
  Red:   0.6171, 0.3486
  Green: 0.3144, 0.5966
  Blue:  0.1513, 0.0566
  White: 0.3134, 0.3291
Established timings supported:
Standard timings supported:
Detailed mode: Clock 97.750 MHz, 345 mm x 194 mm
               1600 1648 1680 1760 hborder 0
                900  903  908  926 vborder 0
               +hsync -vsync 
               VertFreq: 59 Hz, HorFreq: 55539 Hz
Detailed mode: Clock 97.750 MHz, 345 mm x 194 mm
               1600 1648 1680 1760 hborder 0
                900  903  908  926 vborder 0
               +hsync -vsync 
               VertFreq: 59 Hz, HorFreq: 55539 Hz
ASCII string: MT6KG
Manufacturer-specified data, tag 0
Checksum: 0xbc (valid)
EDID block does NOT conform to EDID 1.3!
	Digital display field contains garbage: 10
	Missing name descriptor
	Missing monitor ranges
	Detailed block string not properly terminated
