
EDID (hex):
00ffffffffffff00158f87083b030000
1d1101036e211b78ea6ea6a1544c9926
194f54bfef00314f454f614f8180814f
714f818a8140302a009851002a403070
1300000000000000000000fc00455431
3731354c2d384357410a000000fd0038
4b1f510d0000000000000000000000fe
00200a0a0a0a0a0a0a0a0a0a0a0a00cc

Extracted contents:
header:          00 ff ff ff ff ff ff 00
serial number:   15 8f 87 08 3b 03 00 00 1d 11
version:         01 03
basic params:    6e 21 1b 78 ea
chroma info:     6e a6 a1 54 4c 99 26 19 4f 54
established:     bf ef 00
standard:        31 4f 45 4f 61 4f 81 80 81 4f 71 4f 81 8a 81 40
descriptor 1:    30 2a 00 98 51 00 2a 40 30 70 13 00 00 00 00 00 00 00
descriptor 2:    00 00 00 fc 00 45 54 31 37 31 35 4c 2d 38 43 57 41 0a
descriptor 3:    00 00 00 fd 00 38 4b 1f 51 0d 00 00 00 00 00 00 00 00
descriptor 4:    00 00 00 fe 00 20 0a 0a 0a 0a 0a 0a 0a 0a 0a 0a 0a 0a
extensions:      00
checksum:        cc

EDID version: 1.3
Manufacturer: ELO Model 887 Serial Number --
Made in week 29 of 2007
Analog display, Input voltage level: 0.7/0.7 V
Sync: Separate Composite SyncOnGreen 
Maximum image size: 33 cm x 27 cm
Gamma: 2.20
DPMS levels: Standby Suspend Off
RGB color display
First detailed timing is preferred timing
Display x,y Chromaticity:
  Red:   0.6298, 0.3300
  Green: 0.2998, 0.5996
  Blue:  0.1503, 0.0996
  White: 0.3095, 0.3300
Established timings supported:
  720x400@70Hz 9:5 HorFreq: 31469 Hz Clock: 28.320 MHz
  640x480@60Hz 4:3 HorFreq: 31469 Hz Clock: 25.175 MHz
  640x480@67Hz 4:3 HorFreq: 35000 Hz Clock: 30.240 MHz
  640x480@72Hz 4:3 HorFreq: 37900 Hz Clock: 31.500 MHz
  640x480@75Hz 4:3 HorFreq: 37500 Hz Clock: 31.500 MHz
  800x600@56Hz 4:3 HorFreq: 35200 Hz Clock: 36.000 MHz
  800x600@60Hz 4:3 HorFreq: 37900 Hz Clock: 40.000 MHz
  800x600@72Hz 4:3 HorFreq: 48100 Hz Clock: 50.000 MHz
  800x600@75Hz 4:3 HorFreq: 46900 Hz Clock: 49.500 MHz
  832x624@75Hz 4:3 HorFreq: 49726 Hz Clock: 57.284 MHz
  1024x768@60Hz 4:3 HorFreq: 48400 Hz Clock: 65.000 MHz
  1024x768@70Hz 4:3 HorFreq: 56500 Hz Clock: 75.000 MHz
  1024x768@75Hz 4:3 HorFreq: 60000 Hz Clock: 78.750 MHz
  1280x1024@75Hz 5:4 HorFreq: 80000 Hz Clock: 135.000 MHz
Standard timings supported:
  640x480@75Hz 4:3 HorFreq: 37500 Hz Clock: 31.500 MHz
  800x600@75Hz 4:3 HorFreq: 46900 Hz Clock: 49.500 MHz
  1024x768@75Hz 4:3 HorFreq: 60000 Hz Clock: 78.750 MHz
  1280x1024@60Hz 5:4 HorFreq: 64000 Hz Clock: 108.000 MHz
  1280x960@75Hz 4:3
  1152x864@75Hz 4:3 HorFreq: 67500 Hz Clock: 108.000 MHz
  1280x1024@70Hz 5:4
  1280x960@60Hz 4:3 HorFreq: 60000 Hz Clock: 108.000 MHz
Detailed mode: Clock 108.000 MHz, 0 mm x 0 mm
               1280 1328 1440 1688 hborder 0
               1024 1025 1028 1066 vborder 0
               -hsync -vsync analog composite 
               VertFreq: 60 Hz, HorFreq: 63981 Hz
Monitor name: ET1715L-8CWA
Monitor ranges (GTF): 56-75Hz V, 31-81kHz H, max dotclock 130MHz
ASCII string:  
Checksum: 0xcc (valid)
EDID block does NOT conform to EDID 1.3!
	Detailed block string not properly terminated
One or more of the timings is out of range of the Monitor Ranges:
  Vertical Freq: 56 - 75 Hz
  Horizontal Freq: 31469 - 80000 Hz
  Maximum Clock: 135.000 MHz
