
EDID (hex):
00ffffffffffff0009e5d50900000000
281f0104b5221678035305a4544b9c25
0f505400000001010101010101010101
010101010101b79800a0c08060703020
360059d71000001a2c7a00a0c0806070
3020360059d71000001a000000fe004e
434a5046804e4531364e343100000000
000341211e001100000b010a202000cc

Extracted contents:
header:          00 ff ff ff ff ff ff 00
serial number:   09 e5 d5 09 00 00 00 00 28 1f
version:         01 04
basic params:    b5 22 16 78 03
chroma info:     53 05 a4 54 4b 9c 25 0f 50 54
established:     00 00 00
standard:        01 01 01 01 01 01 01 01 01 01 01 01 01 01 01 01
descriptor 1:    b7 98 00 a0 c0 80 60 70 30 20 36 00 59 d7 10 00 00 1a
descriptor 2:    2c 7a 00 a0 c0 80 60 70 30 20 36 00 59 d7 10 00 00 1a
descriptor 3:    00 00 00 fe 00 4e 43 4a 50 46 80 4e 45 31 36 4e 34 31
descriptor 4:    00 00 00 00 00 03 41 21 1e 00 11 00 00 0b 01 0a 20 20
extensions:      00
checksum:        cc

EDID version: 1.4
Manufacturer: BOE Model 9d5 Serial Number --
Made in week 40 of 2021
Digital display
10 bits per primary color channel
DisplayPort interface
Maximum image size: 34 cm x 22 cm
Gamma: 2.20
Supported color formats: RGB 4:4:4
First detailed timing includes the native pixel format and preferred refresh rate
Display is continuous frequency
Display x,y Chromaticity:
  Red:   0.6416, 0.3291
  Green: 0.2929, 0.6123
  Blue:  0.1445, 0.0585
  White: 0.3134, 0.3291
Established timings supported:
Standard timings supported:
Detailed mode: Clock 390.950 MHz, 345 mm x 215 mm
               3072 3120 3152 3232 hborder 0
               1920 1923 1929 2016 vborder 0
               +hsync -vsync 
               VertFreq: 60 Hz, HorFreq: 120962 Hz
Detailed mode: Clock 312.760 MHz, 345 mm x 215 mm
               3072 3120 3152 3232 hborder 0
               1920 1923 1929 2016 vborder 0
               +hsync -vsync 
               VertFreq: 48 Hz, HorFreq: 96769 Hz
ASCII string: NCJPF
Manufacturer-specified data, tag 0
Checksum: 0xcc (valid)
EDID block does NOT conform to EDID 1.4!
	Missing name descriptor
	Missing monitor ranges
	Detailed block string not properly terminated
