
EDID (hex):
00ffffffffffff003669a73c01010101
291f0104b53b2178ff55b5ac5047ac25
0a50543fcf0081809500b300d1c00101
0101010101015335809c70381040582c
450055502100001a000000fd0030a5a7
a73c010a202020202020000000fc004d
534920473237330a20202020000000ff
00434137413439313932393232390136
02033df14b01020304901112131f3f40
23091707830100006a030c001000383c
20000067d85dc4017880036d1a000002
0130a5000000000000e305e301d09480
a070381e40304035000f282100001a13
8480a070383240302075085550210000
1ab24d80a07038324030207508555021
00001a0000000000000000000000009d

Extracted contents:
header:          00 ff ff ff ff ff ff 00
serial number:   36 69 a7 3c 01 01 01 01 29 1f
version:         01 04
basic params:    b5 3b 21 78 ff
chroma info:     55 b5 ac 50 47 ac 25 0a 50 54
established:     3f cf 00
standard:        81 80 95 00 b3 00 d1 c0 01 01 01 01 01 01 01 01
descriptor 1:    53 35 80 9c 70 38 10 40 58 2c 45 00 55 50 21 00 00 1a
descriptor 2:    00 00 00 fd 00 30 a5 a7 a7 3c 01 0a 20 20 20 20 20 20
descriptor 3:    00 00 00 fc 00 4d 53 49 20 47 32 37 33 0a 20 20 20 20
descriptor 4:    00 00 00 ff 00 43 41 37 41 34 39 31 39 32 39 32 32 39
extensions:      01
checksum:        36

EDID version: 1.4
Manufacturer: MSI Model 3ca7 Serial Number --
Made in week 41 of 2021
Digital display
10 bits per primary color channel
DisplayPort interface
Maximum image size: 59 cm x 33 cm
Gamma: 2.20
DPMS levels: Standby Suspend Off
Supported color formats: RGB 4:4:4, YCrCb 4:4:4, YCrCb 4:2:2
Default (sRGB) color space is primary color space
First detailed timing includes the native pixel format and preferred refresh rate
Display is continuous frequency
Display x,y Chromaticity:
  Red:   0.6728, 0.3134
  Green: 0.2783, 0.6728
  Blue:  0.1464, 0.0419
  White: 0.3134, 0.3291
Established timings supported:
  640x480@60Hz 4:3 HorFreq: 31469 Hz Clock: 25.175 MHz
  640x480@67Hz 4:3 HorFreq: 35000 Hz Clock: 30.240 MHz
  640x480@72Hz 4:3 HorFreq: 37900 Hz Clock: 31.500 MHz
  640x480@75Hz 4:3 HorFreq: 37500 Hz Clock: 31.500 MHz
  800x600@56Hz 4:3 HorFreq: 35200 Hz Clock: 36.000 MHz
  800x600@60Hz 4:3 HorFreq: 37900 Hz Clock: 40.000 MHz
  800x600@72Hz 4:3 HorFreq: 48100 Hz Clock: 50.000 MHz
  800x600@75Hz 4:3 HorFreq: 46900 Hz Clock: 49.500 MHz
  1024x768@60Hz 4:3 HorFreq: 48400 Hz Clock: 65.000 MHz
  1024x768@70Hz 4:3 HorFreq: 56500 Hz Clock: 75.000 MHz
  1024x768@75Hz 4:3 HorFreq: 60000 Hz Clock: 78.750 MHz
  1280x1024@75Hz 5:4 HorFreq: 80000 Hz Clock: 135.000 MHz
Standard timings supported:
  1280x1024@60Hz 5:4 HorFreq: 64000 Hz Clock: 108.000 MHz
  1440x900@60Hz 16:10 HorFreq: 55500 Hz Clock: 88.750 MHz
  1680x1050@60Hz 16:10 HorFreq: 64700 Hz Clock: 119.000 MHz
  1920x1080@60Hz 16:9
Detailed mode: Clock 136.510 MHz, 597 mm x 336 mm
               1920 2008 2052 2076 hborder 0
               1080 1084 1089 1096 vborder 0
               +hsync -vsync 
               VertFreq: 59 Hz, HorFreq: 65756 Hz
Monitor ranges (bare limits): 48-165Hz V, 167-167kHz H, max dotclock 600MHz
Monitor name: MSI G273
Serial number: --
Has 1 extension blocks
Checksum: 0x36 (valid)

CTA extension block
Extension version: 3
57 bytes of CTA data
  Video data block
    VIC   1 640x480@60Hz 4:3  HorFreq: 31469 Hz Clock: 25.175 MHz
    VIC   2 720x480@60Hz 4:3  HorFreq: 31469 Hz Clock: 27.000 MHz
    VIC   3 720x480@60Hz 16:9  HorFreq: 31469 Hz Clock: 27.000 MHz
    VIC   4 1280x720@60Hz 16:9  HorFreq: 45000 Hz Clock: 74.250 MHz
    VIC  16 1920x1080@60Hz 16:9 (native) HorFreq: 67500 Hz Clock: 148.500 MHz
    VIC  17 720x576@50Hz 4:3  HorFreq: 31250 Hz Clock: 27.000 MHz
    VIC  18 720x576@50Hz 16:9  HorFreq: 31250 Hz Clock: 27.000 MHz
    VIC  19 1280x720@50Hz 16:9  HorFreq: 37500 Hz Clock: 74.250 MHz
    VIC  31 1920x1080@50Hz 16:9  HorFreq: 56250 Hz Clock: 148.500 MHz
    VIC  63 1920x1080@120Hz 16:9  HorFreq: 135000 Hz Clock: 297.000 MHz
    VIC  64 1920x1080@100Hz 16:9  HorFreq: 112500 Hz Clock: 297.000 MHz
  Audio data block
    Linear PCM, max channels 2
      Supported sample rates (kHz): 96 48 44.1 32
      Supported sample sizes (bits): 24 20 16
  Speaker allocation data block
    Speaker map:
      FL/FR - Front Left/Right
  Vendor-specific data block, OUI 000c03 (HDMI)
    Source physical address 1.0.0.0
    DC_36bit
    DC_30bit
    DC_Y444
    Maximum TMDS clock: 300MHz
    Extended HDMI video details:
  Vendor-specific data block, OUI c45dd8 (HDMI Forum)
    Version: 1
    Maximum TMDS Character Rate: 600MHz
    SCDC Present
    Supports 12-bits/component Deep Color 4:2:0 Pixel Encoding
    Supports 10-bits/component Deep Color 4:2:0 Pixel Encoding
  Vendor-specific data block, OUI 00001a
  Extended tag: Colorimetry data block
    xvYCC601
    xvYCC709
    BT2020cYCC
    BT2020YCC
    BT2020RGB
Underscans PC formats by default
Basic audio support
Supports YCbCr 4:4:4
Supports YCbCr 4:2:2
1 native detailed modes
Detailed mode: Clock 380.960 MHz, 527 mm x 296 mm
               1920 1968 2032 2080 hborder 0
               1080 1083 1088 1110 vborder 0
               +hsync -vsync 
               VertFreq: 165 Hz, HorFreq: 183153 Hz
Detailed mode: Clock 338.110 MHz, 597 mm x 336 mm
               1920 1968 2000 2080 hborder 0
               1080 1119 1124 1130 vborder 0
               +hsync -vsync 
               VertFreq: 143 Hz, HorFreq: 162552 Hz
Detailed mode: Clock 198.900 MHz, 597 mm x 336 mm
               1920 1968 2000 2080 hborder 0
               1080 1119 1124 1130 vborder 0
               +hsync -vsync 
               VertFreq: 84 Hz, HorFreq: 95625 Hz
Checksum: 0x9d (valid)

EDID block does NOT conform to EDID 1.4!
	sRGB is signaled, but the chromaticities do not match
Warning: One or more of the timings is out of range of the Monitor Ranges:
  Vertical Freq: 50 - 165 Hz
  Horizontal Freq: 31250 - 183153 Hz
  Maximum Clock: 380.960 MHz
EDID block does not conform at all!
	Both the serial number and the serial string are set
