
EDID (hex):
00ffffffffffff0010acc0ef49584a30
050f0103682a19782ed9ada355469824
10474aa54a0081800101010101010101
0101010101010e1f008051001e304080
37009cf71000001c000000fd00384b1e
400b000a202020202020000000fc0057
31393030204c43442054560a000000ff
00305735363436353153304a58490030

Extracted contents:
header:          00 ff ff ff ff ff ff 00
serial number:   10 ac c0 ef 49 58 4a 30 05 0f
version:         01 03
basic params:    68 2a 19 78 2e
chroma info:     d9 ad a3 55 46 98 24 10 47 4a
established:     a5 4a 00
standard:        81 80 01 01 01 01 01 01 01 01 01 01 01 01 01 01
descriptor 1:    0e 1f 00 80 51 00 1e 30 40 80 37 00 9c f7 10 00 00 1c
descriptor 2:    00 00 00 fd 00 38 4b 1e 40 0b 00 0a 20 20 20 20 20 20
descriptor 3:    00 00 00 fc 00 57 31 39 30 30 20 4c 43 44 20 54 56 0a
descriptor 4:    00 00 00 ff 00 30 57 35 36 34 36 35 31 53 30 4a 58 49
extensions:      00
checksum:        30

EDID version: 1.3
Manufacturer: DEL Model efc0 Serial Number --
Analog display, Input voltage level: 0.7/0.7 V
Sync: Separate 
Maximum image size: 42 cm x 25 cm
Gamma: 2.20
DPMS levels: Off
RGB color display
Default (sRGB) color space is primary color space
First detailed timing is preferred timing
Display x,y Chromaticity:
  Red:   0.6396, 0.3330
  Green: 0.2753, 0.5947
  Blue:  0.1425, 0.0644
  White: 0.2802, 0.2900
Established timings supported:
  720x400@70Hz 9:5 HorFreq: 31469 Hz Clock: 28.320 MHz
  640x480@60Hz 4:3 HorFreq: 31469 Hz Clock: 25.175 MHz
  640x480@75Hz 4:3 HorFreq: 37500 Hz Clock: 31.500 MHz
  800x600@60Hz 4:3 HorFreq: 37900 Hz Clock: 40.000 MHz
  800x600@75Hz 4:3 HorFreq: 46900 Hz Clock: 49.500 MHz
  1024x768@60Hz 4:3 HorFreq: 48400 Hz Clock: 65.000 MHz
  1024x768@75Hz 4:3 HorFreq: 60000 Hz Clock: 78.750 MHz
Standard timings supported:
  1280x1024@60Hz 5:4 HorFreq: 64000 Hz Clock: 108.000 MHz
Detailed mode: Clock 79.500 MHz, 412 mm x 247 mm
               1280 1344 1472 1664 hborder 0
                768  771  778  798 vborder 0
               -hsync +vsync 
               VertFreq: 59 Hz, HorFreq: 47776 Hz
Monitor ranges (GTF): 56-75Hz V, 30-64kHz H, max dotclock 110MHz
Monitor name: W1900 LCD TV
Serial number: --
Checksum: 0x30 (valid)
EDID block does NOT conform to EDID 1.3!
	sRGB is signaled, but the chromaticities do not match
EDID block does not conform at all!
	Bad year of manufacture
