
EDID (hex):
00ffffffffffff000daee01500000000
161a0104952213780228659759548e27
1e505400000001010101010101010101
010101010101b43b804a713834405036
680058c11000001ac32f804a71383440
5036680058c11000001a000000fe0035
324b4636803135364843410a00000000
0000413196011000000a010a202000e8

Extracted contents:
header:          00 ff ff ff ff ff ff 00
serial number:   0d ae e0 15 00 00 00 00 16 1a
version:         01 04
basic params:    95 22 13 78 02
chroma info:     28 65 97 59 54 8e 27 1e 50 54
established:     00 00 00
standard:        01 01 01 01 01 01 01 01 01 01 01 01 01 01 01 01
descriptor 1:    b4 3b 80 4a 71 38 34 40 50 36 68 00 58 c1 10 00 00 1a
descriptor 2:    c3 2f 80 4a 71 38 34 40 50 36 68 00 58 c1 10 00 00 1a
descriptor 3:    00 00 00 fe 00 35 32 4b 46 36 80 31 35 36 48 43 41 0a
descriptor 4:    00 00 00 00 00 00 41 31 96 01 10 00 00 0a 01 0a 20 20
extensions:      00
checksum:        e8

EDID version: 1.4
Manufacturer: CMN Model 15e0 Serial Number --
Made in week 22 of 2016
Digital display
6 bits per primary color channel
DisplayPort interface
Maximum image size: 34 cm x 19 cm
Gamma: 2.20
Supported color formats: RGB 4:4:4
First detailed timing includes the native pixel format and preferred refresh rate
Display x,y Chromaticity:
  Red:   0.5898, 0.3496
  Green: 0.3300, 0.5546
  Blue:  0.1533, 0.1191
  White: 0.3134, 0.3291
Established timings supported:
Standard timings supported:
Detailed mode: Clock 152.840 MHz, 344 mm x 193 mm
               1920 2000 2054 2250 hborder 0
               1080 1086 1094 1132 vborder 0
               +hsync -vsync 
               VertFreq: 60 Hz, HorFreq: 67928 Hz
Detailed mode: Clock 122.270 MHz, 344 mm x 193 mm
               1920 2000 2054 2250 hborder 0
               1080 1086 1094 1132 vborder 0
               +hsync -vsync 
               VertFreq: 48 Hz, HorFreq: 54342 Hz
ASCII string: 52KF6
Manufacturer-specified data, tag 0
Checksum: 0xe8 (valid)
EDID block does NOT conform to EDID 1.4!
	Missing name descriptor
	Missing monitor ranges
	Detailed block string not properly terminated
