
EDID (hex):
00ffffffffffff0009e50b0a00000000
1c1e0104a5221578030f95ae5243b026
0f505400000001010101010101010101
0101010101010a7000c8a04084603020
360058d710000018000000fd0c30a51f
1f4f010a202020202020000000fe0042
4f452043510a202020202020000000fe
004e4531363051444d2d4e59330a0166
70137900000301141c340185ff09c700
2f001f003f0683000200050000000000
00000000000000000000000000000000
00000000000000000000000000000000
00000000000000000000000000000000
00000000000000000000000000000000
00000000000000000000000000000000
00000000000000000000000000009a90

Extracted contents:
header:          00 ff ff ff ff ff ff 00
serial number:   09 e5 0b 0a 00 00 00 00 1c 1e
version:         01 04
basic params:    a5 22 15 78 03
chroma info:     0f 95 ae 52 43 b0 26 0f 50 54
established:     00 00 00
standard:        01 01 01 01 01 01 01 01 01 01 01 01 01 01 01 01
descriptor 1:    0a 70 00 c8 a0 40 84 60 30 20 36 00 58 d7 10 00 00 18
descriptor 2:    00 00 00 fd 0c 30 a5 1f 1f 4f 01 0a 20 20 20 20 20 20
descriptor 3:    00 00 00 fe 00 42 4f 45 20 43 51 0a 20 20 20 20 20 20
descriptor 4:    00 00 00 fe 00 4e 45 31 36 30 51 44 4d 2d 4e 59 33 0a
extensions:      01
checksum:        66

EDID version: 1.4
Manufacturer: BOE Model a0b Serial Number --
Made in week 28 of 2020
Digital display
8 bits per primary color channel
DisplayPort interface
Maximum image size: 34 cm x 21 cm
Gamma: 2.20
Supported color formats: RGB 4:4:4
First detailed timing includes the native pixel format and preferred refresh rate
Display is continuous frequency
Display x,y Chromaticity:
  Red:   0.6796, 0.3203
  Green: 0.2646, 0.6904
  Blue:  0.1503, 0.0595
  White: 0.3134, 0.3291
Established timings supported:
Standard timings supported:
Detailed mode: Clock 286.820 MHz, 344 mm x 215 mm
               2560 2608 2640 2760 hborder 0
               1600 1603 1609 1732 vborder 0
               -hsync -vsync 
               VertFreq: 60 Hz, HorFreq: 103920 Hz
Monitor ranges (bare limits): 48-165Hz V, 31-286kHz H, max dotclock 790MHz
ASCII string: BOE CQ
ASCII string: NE160QDM-NY3
Has 1 extension blocks
Checksum: 0x66 (valid)

DisplayID extension block
Extension version: 19
Length 121, version 19, extension count 0
Checksum: 0x9a (valid)
Type 1 detailed timing: aspect: 16:10, Preferred  
Detailed mode: Clock 788.760 MHz, 0 mm x 0 mm
               2559 2606 2637 2758
               1599 1601 1606 1730
               -hsync -vsync

EDID block does NOT conform to EDID 1.4!
	Missing name descriptor
EDID block does not conform at all!
	Has -1711276032 nonconformant extension block(s)
