edid-decode (hex):

00 ff ff ff ff ff ff 00 32 04 00 00 00 00 00 00
00 12 01 03 90 25 17 78 0a 3b 60 9a 59 52 8d 28
25 50 54 00 00 00 01 01 01 01 01 01 01 01 01 01
01 01 01 01 01 01 44 2a a0 f8 51 84 1c 30 50 50
23 00 6f e6 10 00 00 19 00 00 00 00 00 00 00 00
00 00 00 00 00 00 00 00 00 00 00 00 00 fe 00 54
39 39 36 4a 00 31 37 31 57 50 34 0a 00 00 00 fe
00 2e 3e 49 53 74 97 c6 ff 02 01 0a 20 20 00 b1

----------------

Block 0, Base EDID:
  EDID Structure Version & Revision: 1.3
  Vendor & Product Identification:
    Manufacturer: LPD
    Model: 0
    Made in: 2008
  Basic Display Parameters & Features:
    Digital display
    Maximum image size: 37 cm x 23 cm
    Gamma: 2.20
    RGB color display
    First detailed timing is the preferred timing
  Color Characteristics:
    Red  : 0.6015, 0.3505
    Green: 0.3222, 0.5537
    Blue : 0.1572, 0.1464
    White: 0.3125, 0.3281
  Established Timings I & II: none
  Standard Timings: none
  Detailed Timing Descriptors:
    DTD 1:  1440x900    59.976763 Hz   8:5     55.658 kHz    108.200000 MHz (367 mm x 230 mm)
                 Hfront   80 Hsync  80 Hback  344 Hpol N
                 Vfront    2 Vsync   3 Vback   23 Vpol N
    Empty Descriptor
    Alphanumeric Data String: 'T996J'
    Alphanumeric Data String: '.>ISt'
Checksum: 0xb1

----------------

Failures:

Block 0, Base EDID:
  Basic Display Parameters & Features: Digital Video Interface Standard set to reserved value 0x10.
  Empty Descriptor: Use Dummy Descriptor instead of all zeroes.
  Alphanumeric Data String: Non-printable character.
  Alphanumeric Data String: Non-printable character.
  Missing Display Product Name.
  Missing Display Range Limits Descriptor.

EDID conformity: FAIL
