edid-decode (hex):

00 ff ff ff ff ff ff 00 38 a3 81 66 00 00 00 00
0d 0f 01 03 80 21 1b 76 e8 45 60 a7 54 49 9a 24
14 50 54 a1 08 00 81 80 01 01 01 01 01 01 01 01
01 01 01 01 01 01 30 2a 00 98 51 00 2a 40 30 70
13 00 51 0e 11 00 00 1e 00 00 00 fd 00 3b 3d 1e
3f 0b 00 0a 20 20 20 20 20 20 00 00 00 fc 00 4e
45 43 20 46 31 37 52 35 31 0a 20 20 00 00 00 01
00 0a 20 20 20 20 20 20 20 20 20 20 20 20 00 31

00 ff ff ff ff ff ff 00 38 a3 81 66 00 00 00 00
0d 0f 01 03 80 21 1b 76 e8 45 60 a7 54 49 9a 24
14 50 54 a1 08 00 81 80 01 01 01 01 01 01 01 01
01 01 01 01 01 01 30 2a 00 98 51 00 2a 40 30 70
13 00 51 0e 11 00 00 1e 00 00 00 fd 00 3b 3d 1e
3f 0b 00 0a 20 20 20 20 20 20 00 00 00 fc 00 4e
45 43 20 46 31 37 52 35 31 0a 20 20 00 00 00 01
00 0a 20 20 20 20 20 20 20 20 20 20 20 20 00 31

----------------

Block 0, Base EDID:
  EDID Structure Version & Revision: 1.3
  Vendor & Product Identification:
    Manufacturer: NEC
    Model: 26241
    Made in: week 13 of 2005
  Basic Display Parameters & Features:
    Digital display
    Maximum image size: 33 cm x 27 cm
    Gamma: 2.18
    DPMS levels: Standby Suspend Off
    RGB color display
  Color Characteristics:
    Red  : 0.6533, 0.3281
    Green: 0.2861, 0.6025
    Blue : 0.1416, 0.0800
    White: 0.3125, 0.3281
  Established Timings I & II:
    IBM     :   720x400    70.081663 Hz   9:5     31.467 kHz     28.320000 MHz
    DMT 0x04:   640x480    59.940476 Hz   4:3     31.469 kHz     25.175000 MHz
    DMT 0x09:   800x600    60.316541 Hz   4:3     37.879 kHz     40.000000 MHz
    DMT 0x10:  1024x768    60.003840 Hz   4:3     48.363 kHz     65.000000 MHz
  Standard Timings:
    DMT 0x23:  1280x1024   60.019740 Hz   5:4     63.981 kHz    108.000000 MHz
  Detailed Timing Descriptors:
    DTD 1:  1280x1024   60.019740 Hz   5:4     63.981 kHz    108.000000 MHz (337 mm x 270 mm)
                 Hfront   48 Hsync 112 Hback  248 Hpol P
                 Vfront    1 Vsync   3 Vback   38 Vpol P
    Display Range Limits:
      Monitor ranges (GTF): 59-61 Hz V, 30-63 kHz H, max dotclock 110 MHz
    Display Product Name: 'NEC F17R51'
    Manufacturer-Specified Display Descriptor (0x01): 00 01 00 0a 20 20 20 20 20 20 20 20 20 20 20 20 '....            '
Checksum: 0x31

----------------

Block 1, Unknown EDID Extension Block 0x00:
  00 ff ff ff ff ff ff 00 38 a3 81 66 00 00 00 00 '........8..f....'
  0d 0f 01 03 80 21 1b 76 e8 45 60 a7 54 49 9a 24 '.....!.v.E`.TI.$'
  14 50 54 a1 08 00 81 80 01 01 01 01 01 01 01 01 '.PT.............'
  01 01 01 01 01 01 30 2a 00 98 51 00 2a 40 30 70 '......0*..Q.*@0p'
  13 00 51 0e 11 00 00 1e 00 00 00 fd 00 3b 3d 1e '..Q..........;=.'
  3f 0b 00 0a 20 20 20 20 20 20 00 00 00 fc 00 4e '?...      .....N'
  45 43 20 46 31 37 52 35 31 0a 20 20 00 00 00 01 'EC F17R51.  ....'
  00 0a 20 20 20 20 20 20 20 20 20 20 20 20 00 31 '..            .1'
Checksum: 0x31

----------------

Failures:

Block 0, Base EDID:
  Basic Display Parameters & Features: EDID 1.3 requires that the first detailed timing is the preferred timing.
Block 1, Base EDID:
  Unknown Extension Block.
EDID:
  Base EDID: Some timings are out of range of the Monitor Ranges:
    Vertical Freq: 59.940 - 70.082 Hz (Monitor: 59.000 - 61.000 Hz)
    Horizontal Freq: 31.466 - 63.981 kHz (Monitor: 30.000 - 63.000 kHz)
  Base EDID: EDID specified 0 extension block(s), but found 1 extension block(s).

EDID conformity: FAIL
