edid-decode (hex):

00 ff ff ff ff ff ff 00 22 f0 27 42 01 00 00 00
01 19 01 03 81 3c 22 78 ea 64 b5 ab 52 38 ab 25
13 50 54 00 00 00 01 01 01 01 01 01 01 01 01 01
01 01 01 01 01 01 94 34 80 64 70 38 1f 40 2c 2c
45 00 55 50 21 00 00 1c 00 00 00 10 00 00 00 00
00 00 00 00 00 00 00 00 00 00 00 00 00 fc 00 48
50 20 41 4c 4c 2d 69 6e 2d 4f 6e 65 00 00 00 ff
00 4c 54 4d 32 37 30 48 4c 30 32 0a 20 20 00 5f

00 ff ff ff ff ff ff 00 22 f0 27 42 01 00 00 00
01 19 01 03 81 3c 22 78 ea 64 b5 ab 52 38 ab 25
13 50 54 00 00 00 01 01 01 01 01 01 01 01 01 01
01 01 01 01 01 01 94 34 80 64 70 38 1f 40 2c 2c
45 00 55 50 21 00 00 1c 00 00 00 10 00 00 00 00
00 00 00 00 00 00 00 00 00 00 00 00 00 fc 00 48
50 20 41 4c 4c 2d 69 6e 2d 4f 6e 65 00 00 00 ff
00 4c 54 4d 32 37 30 48 4c 30 32 0a 20 20 00 5f

----------------

Block 0, Base EDID:
  EDID Structure Version & Revision: 1.3
  Vendor & Product Identification:
    Manufacturer: HWP
    Model: 16935
    Serial Number: ...
    Made in: week 1 of 2015
  Basic Display Parameters & Features:
    Digital display
    DFP 1.x compatible TMDS
    Maximum image size: 60 cm x 34 cm
    Gamma: 2.20
    DPMS levels: Standby Suspend Off
    RGB color display
    First detailed timing is the preferred timing
  Color Characteristics:
    Red  : 0.6689, 0.3222
    Green: 0.2197, 0.6679
    Blue : 0.1464, 0.0771
    White: 0.3134, 0.3291
  Established Timings I & II: none
  Standard Timings: none
  Detailed Timing Descriptors:
    DTD 1:  1920x1080   59.976295 Hz  16:9     66.634 kHz    134.600000 MHz (597 mm x 336 mm)
                 Hfront   44 Hsync  44 Hback   12 Hpol N
                 Vfront    4 Vsync   5 Vback   22 Vpol P
    Dummy Descriptor:
    Display Product Name: 'HP ALL-in-One'
    Display Product Serial Number: ...
Checksum: 0x5f

----------------

Block 1, Unknown EDID Extension Block 0x00:
  00 ff ff ff ff ff ff 00 22 f0 27 42 01 00 00 00 '........".'B....'
  01 19 01 03 81 3c 22 78 ea 64 b5 ab 52 38 ab 25 '.....<"x.d..R8.%'
  13 50 54 00 00 00 01 01 01 01 01 01 01 01 01 01 '.PT.............'
  01 01 01 01 01 01 94 34 80 64 70 38 1f 40 2c 2c '.......4.dp8.@,,'
  45 00 55 50 21 00 00 1c 00 00 00 10 00 00 00 00 'E.UP!...........'
  00 00 00 00 00 00 00 00 00 00 00 00 00 fc 00 48 '...............H'
  50 20 41 4c 4c 2d 69 6e 2d 4f 6e 65 00 00 00 ff 'P ALL-in-One....'
  00 4c 54 4d 32 37 30 48 4c 30 32 0a 20 20 00 5f '.LTM270HL02.  ._'
Checksum: 0x5f

----------------

Failures:

Block 0, Base EDID:
  Missing Display Range Limits Descriptor.
Block 1, Base EDID:
  Unknown Extension Block.
EDID:
  Base EDID: EDID specified 0 extension block(s), but found 1 extension block(s).

EDID conformity: FAIL
