
EDID (hex):
00ffffffffffff001e6ded5701010101
0114010368331c78eac665a059589d27
0e5054a10800b3008180814071400101
010101010101023a801871382d40582c
4500fd1e1100001e000000fd00383d1e
450f000a202020202020000000fc004d
32333830410a202020202020000000ff
000a20202020202020202020202000e3

Extracted contents:
header:          00 ff ff ff ff ff ff 00
serial number:   1e 6d ed 57 01 01 01 01 01 14
version:         01 03
basic params:    68 33 1c 78 ea
chroma info:     c6 65 a0 59 58 9d 27 0e 50 54
established:     a1 08 00
standard:        b3 00 81 80 81 40 71 40 01 01 01 01 01 01 01 01
descriptor 1:    02 3a 80 18 71 38 2d 40 58 2c 45 00 fd 1e 11 00 00 1e
descriptor 2:    00 00 00 fd 00 38 3d 1e 45 0f 00 0a 20 20 20 20 20 20
descriptor 3:    00 00 00 fc 00 4d 32 33 38 30 41 0a 20 20 20 20 20 20
descriptor 4:    00 00 00 ff 00 0a 20 20 20 20 20 20 20 20 20 20 20 20
extensions:      00
checksum:        e3

EDID version: 1.3
Manufacturer: GSM Model 57ed Serial Number --
Made in week 1 of 2010
Analog display, Input voltage level: 0.7/0.7 V
Sync: Separate 
Maximum image size: 51 cm x 28 cm
Gamma: 2.20
DPMS levels: Standby Suspend Off
RGB color display
First detailed timing is preferred timing
Display x,y Chromaticity:
  Red:   0.6279, 0.3476
  Green: 0.3447, 0.6152
  Blue:  0.1533, 0.0566
  White: 0.3134, 0.3291
Established timings supported:
  720x400@70Hz 9:5 HorFreq: 31469 Hz Clock: 28.320 MHz
  640x480@60Hz 4:3 HorFreq: 31469 Hz Clock: 25.175 MHz
  800x600@60Hz 4:3 HorFreq: 37900 Hz Clock: 40.000 MHz
  1024x768@60Hz 4:3 HorFreq: 48400 Hz Clock: 65.000 MHz
Standard timings supported:
  1680x1050@60Hz 16:10 HorFreq: 64700 Hz Clock: 119.000 MHz
  1280x1024@60Hz 5:4 HorFreq: 64000 Hz Clock: 108.000 MHz
  1280x960@60Hz 4:3 HorFreq: 60000 Hz Clock: 108.000 MHz
  1152x864@60Hz 4:3
Detailed mode: Clock 148.500 MHz, 509 mm x 286 mm
               1920 2008 2052 2200 hborder 0
               1080 1084 1089 1125 vborder 0
               +hsync +vsync 
               VertFreq: 60 Hz, HorFreq: 67500 Hz
Monitor ranges (GTF): 56-61Hz V, 30-69kHz H, max dotclock 150MHz
Monitor name: M2380A
Serial number: 
-- 0xe3 (valid)
One or more of the timings is out of range of the Monitor Ranges:
  Vertical Freq: 60 - 70 Hz
  Horizontal Freq: 31469 - 67500 Hz
  Maximum Clock: 148.500 MHz
