
EDID (hex):
00ffffffffffff0022f0653001010101
32180103a0331d78ba31e5a25655a128
0a5054a10800d1c081c081809500a9c0
b30001010101023a801871382d40582c
4500fe1f1100001e000000fd00324c18
5e11000a202020202020000000fc0048
5020453233310a2020202020000000ff
0036434d343530305957360a2020011d
02031b6223097f078301000067030c00
2000802d43011084e2000f0000360040
e86300001a1a1d008051d01c20408035
0040846300001c000000000000000000
00005500000000000000000000000000
00000000000000000000000000000000
00000000000000000000000000000000
000000000000000000000000000000c0

Extracted contents:
header:          00 ff ff ff ff ff ff 00
serial number:   22 f0 65 30 01 01 01 01 32 18
version:         01 03
basic params:    a0 33 1d 78 ba
chroma info:     31 e5 a2 56 55 a1 28 0a 50 54
established:     a1 08 00
standard:        d1 c0 81 c0 81 80 95 00 a9 c0 b3 00 01 01 01 01
descriptor 1:    02 3a 80 18 71 38 2d 40 58 2c 45 00 fe 1f 11 00 00 1e
descriptor 2:    00 00 00 fd 00 32 4c 18 5e 11 00 0a 20 20 20 20 20 20
descriptor 3:    00 00 00 fc 00 48 50 20 45 32 33 31 0a 20 20 20 20 20
descriptor 4:    00 00 00 ff 00 36 43 4d 34 35 30 30 59 57 36 0a 20 20
extensions:      01
checksum:        1d

EDID version: 1.3
Manufacturer: HWP Model 3065 Serial Number --
Made in week 50 of 2014
Digital display
Maximum image size: 51 cm x 29 cm
Gamma: 2.20
DPMS levels: Standby Off
Undefined display color type
First detailed timing is preferred timing
Display x,y Chromaticity:
  Red:   0.6328, 0.3388
  Green: 0.3320, 0.6298
  Blue:  0.1591, 0.0410
  White: 0.3134, 0.3291
Established timings supported:
  720x400@70Hz 9:5 HorFreq: 31469 Hz Clock: 28.320 MHz
  640x480@60Hz 4:3 HorFreq: 31469 Hz Clock: 25.175 MHz
  800x600@60Hz 4:3 HorFreq: 37900 Hz Clock: 40.000 MHz
  1024x768@60Hz 4:3 HorFreq: 48400 Hz Clock: 65.000 MHz
Standard timings supported:
  1920x1080@60Hz 16:9
  1280x720@60Hz 16:9
  1280x1024@60Hz 5:4 HorFreq: 64000 Hz Clock: 108.000 MHz
  1440x900@60Hz 16:10 HorFreq: 55500 Hz Clock: 88.750 MHz
  1600x900@60Hz 16:9
  1680x1050@60Hz 16:10 HorFreq: 64700 Hz Clock: 119.000 MHz
Detailed mode: Clock 148.500 MHz, 510 mm x 287 mm
               1920 2008 2052 2200 hborder 0
               1080 1084 1089 1125 vborder 0
               +hsync +vsync 
               VertFreq: 60 Hz, HorFreq: 67500 Hz
Monitor ranges (GTF): 50-76Hz V, 24-94kHz H, max dotclock 170MHz
Monitor name: HP E231
Serial number: --
Has 1 extension blocks
Checksum: 0x1d (valid)

CTA extension block
Extension version: 3
23 bytes of CTA data
  Audio data block
    Linear PCM, max channels 2
      Supported sample rates (kHz): 192 176.4 96 88.2 48 44.1 32
      Supported sample sizes (bits): 24 20 16
  Speaker allocation data block
    Speaker map:
      FL/FR - Front Left/Right
  Vendor-specific data block, OUI 000c03 (HDMI)
    Source physical address 2.0.0.0
    Supports_AI
    Maximum TMDS clock: 225MHz
  Video data block
    VIC   1 640x480@60Hz 4:3  HorFreq: 31469 Hz Clock: 25.175 MHz
    VIC  16 1920x1080@60Hz 16:9  HorFreq: 67500 Hz Clock: 148.500 MHz
    VIC   4 1280x720@60Hz 16:9 (native) HorFreq: 45000 Hz Clock: 74.250 MHz
  Extended tag: Video capability data block
    YCbCr quantization: No Data (0)
    RGB quantization: No Data (0)
    PT scan behaviour: No Data (0)
    IT scan behaviour: Support both over- and underscan (3)
    CE scan behaviour: Support both over- and underscan (3)
Basic audio support
Supports YCbCr 4:4:4
2 native detailed modes
Detailed mode: Clock 328.320 MHz, 0 mm x 0 mm
               1077 1077 1105 1077 hborder 0
                132  132  132  231 vborder 0
               -hsync -vsync analog composite 
               VertFreq: 1319 Hz, HorFreq: 304846 Hz
Checksum: 0xc0 (valid)

EDID block does NOT conform to EDID 1.3!
	Digital display field contains garbage: 20
One or more of the timings is out of range of the Monitor Ranges:
  Vertical Freq: 60 - 1319 Hz
  Horizontal Freq: 31469 - 304846 Hz
  Maximum Clock: 328.320 MHz
EDID block does not conform at all!
	Both the serial number and the serial string are set
