edid-decode (hex):

00 ff ff ff ff ff ff 00 68 73 00 32 01 00 00 00
32 20 01 03 80 19 0f 78 ee 44 55 a9 55 4d 9d 26
0f 50 54 01 04 00 81 00 01 01 01 01 01 01 01 01
01 01 01 01 01 01 13 67 00 8a a0 40 1e 60 30 0a
82 00 80 90 21 00 00 1a e5 36 80 a0 70 38 2e 40
30 20 36 00 e0 0e 11 00 00 1a 00 00 00 fd 00 17
4b 0f f0 1e 00 0a 20 20 20 20 20 20 00 00 00 fc
00 5a 43 2d 51 48 44 2d 4f 4c 45 44 0a 20 01 e8

02 03 18 70 47 00 00 00 00 00 00 00 23 09 7f 07
67 03 0c 00 30 00 88 44 e5 55 00 8a a0 40 1e 60
30 0a 82 00 80 90 21 00 00 1a 00 00 00 00 00 00
00 00 00 00 00 00 00 00 00 00 00 00 00 00 00 00
00 00 00 00 00 00 00 00 00 00 00 00 00 00 00 00
00 00 00 00 00 00 00 00 00 00 00 00 00 00 00 00
00 00 00 00 00 00 00 00 00 00 00 00 00 00 00 00
00 00 00 00 00 00 00 00 00 00 00 00 00 00 00 df

----------------

Block 0, Base EDID:
  EDID Structure Version & Revision: 1.3
  Vendor & Product Identification:
    Manufacturer: ZCS
    Model: 12800
    Serial Number: ...
    Made in: week 50 of 2022
  Basic Display Parameters & Features:
    Digital display
    Maximum image size: 25 cm x 15 cm
    Gamma: 2.20
    DPMS levels: Standby Suspend Off
    RGB color display
    Default (sRGB) color space is primary color space
    First detailed timing is the preferred timing
  Color Characteristics:
    Red  : 0.6611, 0.3320
    Green: 0.3017, 0.6132
    Blue : 0.1494, 0.0595
    White: 0.3134, 0.3291
  Established Timings I & II:
    DMT 0x09:   800x600    60.316541 Hz   4:3     37.879 kHz     40.000000 MHz
    DMT 0x11:  1024x768    70.069359 Hz   4:3     56.476 kHz     75.000000 MHz
  Standard Timings:
    DMT 0x1c:  1280x800    59.810326 Hz  16:10    49.702 kHz     83.500000 MHz
  Detailed Timing Descriptors:
    DTD 1:  2560x1600   60.001273 Hz  16:10    97.802 kHz    263.870000 MHz (640 mm x 400 mm)
                 Hfront   48 Hsync  10 Hback   80 Hpol P
                 Vfront    8 Vsync   2 Vback   20 Vpol N
    DTD 2:  1920x1080   60.002220 Hz  16:9     67.562 kHz    140.530000 MHz (480 mm x 270 mm)
                 Hfront   48 Hsync  32 Hback   80 Hpol P
                 Vfront    3 Vsync   6 Vback   37 Vpol N
    Display Range Limits:
      Monitor ranges (GTF): 23-75 Hz V, 15-240 kHz H, max dotclock 300 MHz
    Display Product Name: 'ZC-QHD-OLED'
  Extension blocks: 1
Checksum: 0xe8

----------------

Block 1, CTA-861 Extension Block:
  Revision: 3
  Basic audio support
  Supports YCbCr 4:4:4
  Supports YCbCr 4:2:2
  Native detailed modes: 0
  Video Data Block:
  Audio Data Block:
    Linear PCM:
      Max channels: 2
      Supported sample rates (kHz): 192 176.4 96 88.2 48 44.1 32
      Supported sample sizes (bits): 24 20 16
  Vendor-Specific Data Block (HDMI), OUI 00-0C-03:
    Source physical address: 3.0.0.0
    Supports_AI
    DC_Y444
    Maximum TMDS clock: 340 MHz
  Detailed Timing Descriptors:
    DTD 3:  2560x1600   50.000682 Hz  16:10    81.501 kHz    219.890000 MHz (640 mm x 400 mm)
                 Hfront   48 Hsync  10 Hback   80 Hpol P
                 Vfront    8 Vsync   2 Vback   20 Vpol N
Checksum: 0xdf  Unused space in Extension Block: 85 bytes

----------------

Warnings:

Block 1, CTA-861 Extension Block:
  IT Video Formats are overscanned by default, but normally this should be underscanned.

Failures:

Block 0, Base EDID:
  Basic Display Parameters & Features: sRGB is signaled, but the chromaticities do not match.
  Detailed Timing Descriptor #1: Mismatch of image size 640x400 mm vs display size 250x150 mm.
  Detailed Timing Descriptor #2: Mismatch of image size 480x270 mm vs display size 250x150 mm.
Block 1, CTA-861 Extension Block:
  Detailed Timing Descriptor #3: Mismatch of image size 640x400 mm vs display size 250x150 mm.
  Required 640x480p60 timings are missing in the established timings and the SVD list (VIC 1).
  Missing VCDB, needed for Set Selectable RGB Quantization to avoid interop issues.
EDID:
  Base EDID: The DTD max image size is 640x400mm, which is larger than the display size 250.0x150.0mm.

EDID conformity: FAIL
