
EDID (hex):
00ffffffffffff000469a116432e0000
1b120103682213782a6222a255489827
155054bfee0081c081cf010101010101
010101010101662150b051001b304070
360022130000001e000000ff0038374c
4d544e3031313834330a000000fd0037
4b1e550b000a202020202020000000fc
00415355532056573136310a2020008e

Extracted contents:
header:          00 ff ff ff ff ff ff 00
serial number:   04 69 a1 16 43 2e 00 00 1b 12
version:         01 03
basic params:    68 22 13 78 2a
chroma info:     62 22 a2 55 48 98 27 15 50 54
established:     bf ee 00
standard:        81 c0 81 cf 01 01 01 01 01 01 01 01 01 01 01 01
descriptor 1:    66 21 50 b0 51 00 1b 30 40 70 36 00 22 13 00 00 00 1e
descriptor 2:    00 00 00 ff 00 38 37 4c 4d 54 4e 30 31 31 38 34 33 0a
descriptor 3:    00 00 00 fd 00 37 4b 1e 55 0b 00 0a 20 20 20 20 20 20
descriptor 4:    00 00 00 fc 00 41 53 55 53 20 56 57 31 36 31 0a 20 20
extensions:      00
checksum:        8e

EDID version: 1.3
Manufacturer: ACI Model 16a1 Serial Number --
Made in week 27 of 2008
Analog display, Input voltage level: 0.7/0.7 V
Sync: Separate 
Maximum image size: 34 cm x 19 cm
Gamma: 2.20
DPMS levels: Off
RGB color display
First detailed timing is preferred timing
Display x,y Chromaticity:
  Red:   0.6337, 0.3339
  Green: 0.2812, 0.5957
  Blue:  0.1523, 0.0839
  White: 0.3125, 0.3300
Established timings supported:
  720x400@70Hz 9:5 HorFreq: 31469 Hz Clock: 28.320 MHz
  640x480@60Hz 4:3 HorFreq: 31469 Hz Clock: 25.175 MHz
  640x480@67Hz 4:3 HorFreq: 35000 Hz Clock: 30.240 MHz
  640x480@72Hz 4:3 HorFreq: 37900 Hz Clock: 31.500 MHz
  640x480@75Hz 4:3 HorFreq: 37500 Hz Clock: 31.500 MHz
  800x600@56Hz 4:3 HorFreq: 35200 Hz Clock: 36.000 MHz
  800x600@60Hz 4:3 HorFreq: 37900 Hz Clock: 40.000 MHz
  800x600@72Hz 4:3 HorFreq: 48100 Hz Clock: 50.000 MHz
  800x600@75Hz 4:3 HorFreq: 46900 Hz Clock: 49.500 MHz
  832x624@75Hz 4:3 HorFreq: 49726 Hz Clock: 57.284 MHz
  1024x768@60Hz 4:3 HorFreq: 48400 Hz Clock: 65.000 MHz
  1024x768@70Hz 4:3 HorFreq: 56500 Hz Clock: 75.000 MHz
  1024x768@75Hz 4:3 HorFreq: 60000 Hz Clock: 78.750 MHz
Standard timings supported:
  1280x720@60Hz 16:9
  1280x720@75Hz 16:9
Detailed mode: Clock 85.500 MHz, 34 mm x 19 mm
               1360 1424 1536 1792 hborder 0
                768  771  777  795 vborder 0
               +hsync +vsync 
               VertFreq: 60 Hz, HorFreq: 47712 Hz
Serial number: --
Monitor ranges (GTF): 55-75Hz V, 30-85kHz H, max dotclock 110MHz
Monitor name: ASUS VW161
Checksum: 0x8e (valid)
