
EDID (hex):
00ffffffffffff0030e45a0200000000
00130104952517780244759c59549627
23505400000001010101010101010101
010101010101c837806470b00f402220
360072e61000001a3c2880a070b02340
3020360072e61000001a000000fe0048
30383652823137315755370a00000000
000041311e0000000006010a20200023

Extracted contents:
header:          00 ff ff ff ff ff ff 00
serial number:   30 e4 5a 02 00 00 00 00 00 13
version:         01 04
basic params:    95 25 17 78 02
chroma info:     44 75 9c 59 54 96 27 23 50 54
established:     00 00 00
standard:        01 01 01 01 01 01 01 01 01 01 01 01 01 01 01 01
descriptor 1:    c8 37 80 64 70 b0 0f 40 22 20 36 00 72 e6 10 00 00 1a
descriptor 2:    3c 28 80 a0 70 b0 23 40 30 20 36 00 72 e6 10 00 00 1a
descriptor 3:    00 00 00 fe 00 48 30 38 36 52 82 31 37 31 57 55 37 0a
descriptor 4:    00 00 00 00 00 00 41 31 1e 00 00 00 00 06 01 0a 20 20
extensions:      00
checksum:        23

EDID version: 1.4
Manufacturer: LGD Model 25a Serial Number --
Made in year 2009
Digital display
6 bits per primary color channel
DisplayPort interface
Maximum image size: 37 cm x 23 cm
Gamma: 2.20
Supported color formats: RGB 4:4:4
First detailed timing includes the native pixel format and preferred refresh rate
Display x,y Chromaticity:
  Red:   0.6103, 0.3476
  Green: 0.3291, 0.5859
  Blue:  0.1533, 0.1396
  White: 0.3134, 0.3291
Established timings supported:
Standard timings supported:
Detailed mode: Clock 142.800 MHz, 370 mm x 230 mm
               1920 1954 1986 2020 hborder 0
               1200 1203 1209 1215 vborder 0
               +hsync -vsync 
               VertFreq: 58 Hz, HorFreq: 70693 Hz
Detailed mode: Clock 103.000 MHz, 370 mm x 230 mm
               1920 1968 2000 2080 hborder 0
               1200 1203 1209 1235 vborder 0
               +hsync -vsync 
               VertFreq: 40 Hz, HorFreq: 49519 Hz
ASCII string: H086R
Manufacturer-specified data, tag 0
Checksum: 0x23 (valid)
EDID block does NOT conform to EDID 1.4!
	Missing name descriptor
	Missing monitor ranges
	Detailed block string not properly terminated
