
EDID (hex):
00ffffffffffff0009e5e70900000000
1b1e0104951d1078029ca2a658549f26
0e4d5500000001010101010101010101
010101010101c0398018713828403020
360026a51000001a0000000000000000
0000000000000000001a000000fe0042
4f452043510a202020202020000000fe
00455631333346484d2d4e34300a001c

edid-decode (hex):

00 ff ff ff ff ff ff 00 09 e5 e7 09 00 00 00 00
1b 1e 01 04 95 1d 10 78 02 9c a2 a6 58 54 9f 26
0e 4d 55 00 00 00 01 01 01 01 01 01 01 01 01 01
01 01 01 01 01 01 c0 39 80 18 71 38 28 40 30 20
36 00 26 a5 10 00 00 1a 00 00 00 00 00 00 00 00
00 00 00 00 00 00 00 00 00 1a 00 00 00 fe 00 42
4f 45 20 43 51 0a 20 20 20 20 20 20 00 00 00 fe
00 45 56 31 33 33 46 48 4d 2d 4e 34 30 0a 00 1c

----------------

Block 0, Base EDID:
  EDID Structure Version & Revision: 1.4
  Vendor & Product Identification:
    Manufacturer: BOE
    Model: 2535
    Made in: week 27 of 2020
  Basic Display Parameters & Features:
    Digital display
    Bits per primary color channel: 6
    DisplayPort interface
    Maximum image size: 29 cm x 16 cm
    Gamma: 2.20
    Supported color formats: RGB 4:4:4
    First detailed timing includes the native pixel format and preferred refresh rate
  Color Characteristics:
    Red  : 0.6503, 0.3447
    Green: 0.3310, 0.6210
    Blue : 0.1503, 0.0566
    White: 0.3007, 0.3339
  Established Timings I & II: none
  Standard Timings: none
  Detailed Timing Descriptors:
    DTD 1:  1920x1080   60.000000 Hz  16:9     67.200 kHz    147.840000 MHz (294 mm x 165 mm)
                 Hfront   48 Hsync  32 Hback  200 Hpol P
                 Vfront    3 Vsync   6 Vback   31 Vpol N
    Manufacturer-Specified Display Descriptor (0x00): 00 00 00 00 00 00 00 00 00 00 00 00 00 00 00 1a '................'
    Alphanumeric Data String: 'BOE CQ'
    Alphanumeric Data String: 'EV133FHM-N40'
Checksum: 0x1c


