
EDID (hex):
00ffffffffffff004e89511900000000
29150104a5291778873581a656489a24
1250549fef0031ca31408bc081809500
a940b300d1c0662150b051800d104070
2600c48e2100009e000000fd00384b1e
5e09000a202020202020000000fc004d
4c45313935310a2020202020000000ff
003030303030300a20202020202000c0

Extracted contents:
header:          00 ff ff ff ff ff ff 00
serial number:   4e 89 51 19 00 00 00 00 29 15
version:         01 04
basic params:    a5 29 17 78 87
chroma info:     35 81 a6 56 48 9a 24 12 50 54
established:     9f ef 00
standard:        31 ca 31 40 8b c0 81 80 95 00 a9 40 b3 00 d1 c0
descriptor 1:    66 21 50 b0 51 80 0d 10 40 70 26 00 c4 8e 21 00 00 9e
descriptor 2:    00 00 00 fd 00 38 4b 1e 5e 09 00 0a 20 20 20 20 20 20
descriptor 3:    00 00 00 fc 00 4d 4c 45 31 39 35 31 0a 20 20 20 20 20
descriptor 4:    00 00 00 ff 00 30 30 30 30 30 30 0a 20 20 20 20 20 20
extensions:      00
checksum:        c0

EDID version: 1.4
Manufacturer: STI Model 1951 Serial Number --
Made in week 41 of 2011
Digital display
8 bits per primary color channel
DisplayPort interface
Maximum image size: 41 cm x 23 cm
Gamma: 2.20
DPMS levels: Standby
Supported color formats: RGB 4:4:4
Default (sRGB) color space is primary color space
First detailed timing includes the native pixel format and preferred refresh rate
Display is continuous frequency
Display x,y Chromaticity:
  Red:   0.6484, 0.3388
  Green: 0.2822, 0.6025
  Blue:  0.1425, 0.0703
  White: 0.3125, 0.3291
Established timings supported:
  720x400@70Hz 9:5 HorFreq: 31469 Hz Clock: 28.320 MHz
  640x480@67Hz 4:3 HorFreq: 35000 Hz Clock: 30.240 MHz
  640x480@72Hz 4:3 HorFreq: 37900 Hz Clock: 31.500 MHz
  640x480@75Hz 4:3 HorFreq: 37500 Hz Clock: 31.500 MHz
  800x600@56Hz 4:3 HorFreq: 35200 Hz Clock: 36.000 MHz
  800x600@60Hz 4:3 HorFreq: 37900 Hz Clock: 40.000 MHz
  800x600@72Hz 4:3 HorFreq: 48100 Hz Clock: 50.000 MHz
  800x600@75Hz 4:3 HorFreq: 46900 Hz Clock: 49.500 MHz
  832x624@75Hz 4:3 HorFreq: 49726 Hz Clock: 57.284 MHz
  1024x768@60Hz 4:3 HorFreq: 48400 Hz Clock: 65.000 MHz
  1024x768@70Hz 4:3 HorFreq: 56500 Hz Clock: 75.000 MHz
  1024x768@75Hz 4:3 HorFreq: 60000 Hz Clock: 78.750 MHz
  1280x1024@75Hz 5:4 HorFreq: 80000 Hz Clock: 135.000 MHz
Standard timings supported:
  640x360@70Hz 16:9
  640x480@60Hz 4:3 HorFreq: 31469 Hz Clock: 25.175 MHz
  1360x765@60Hz 16:9
  1280x1024@60Hz 5:4 HorFreq: 64000 Hz Clock: 108.000 MHz
  1440x900@60Hz 16:10 HorFreq: 55500 Hz Clock: 88.750 MHz
  1600x1200@60Hz 4:3 HorFreq: 75000 Hz Clock: 162.000 MHz
  1680x1050@60Hz 16:10 HorFreq: 64700 Hz Clock: 119.000 MHz
  1920x1080@60Hz 16:9
Detailed mode: Clock 85.500 MHz, 708 mm x 398 mm
               1360 1424 1536 1792 hborder 0
                384  386  392  397 vborder 0
               +hsync +vsync interlaced 
               VertFreq: 120 Hz, HorFreq: 47712 Hz
Monitor ranges (GTF): 56-75Hz V, 30-94kHz H, max dotclock 90MHz
Monitor name: MLE1951
Serial number: --
Checksum: 0xc0 (valid)
EDID block does NOT conform to EDID 1.4!
	sRGB is signaled, but the chromaticities do not match
Warning: One or more of the timings is out of range of the Monitor Ranges:
  Vertical Freq: 56 - 120 Hz
  Horizontal Freq: 31469 - 80000 Hz
  Maximum Clock: 162.000 MHz


