
EDID (hex):
00ffffffffffff0022f01a3301010101
0b1b01036c331d782a6275a3554fa027
125054a76b80d1c081c081809500a9c0
b30081000101023a801871382d40582c
4500fe221100001e000000fd00384b1e
530f000a202020202020000000fc0048
502056323235687a0a202020000000ff
00425247373131304336510a20200075

Extracted contents:
header:          00 ff ff ff ff ff ff 00
serial number:   22 f0 1a 33 01 01 01 01 0b 1b
version:         01 03
basic params:    6c 33 1d 78 2a
chroma info:     62 75 a3 55 4f a0 27 12 50 54
established:     a7 6b 80
standard:        d1 c0 81 c0 81 80 95 00 a9 c0 b3 00 81 00 01 01
descriptor 1:    02 3a 80 18 71 38 2d 40 58 2c 45 00 fe 22 11 00 00 1e
descriptor 2:    00 00 00 fd 00 38 4b 1e 53 0f 00 0a 20 20 20 20 20 20
descriptor 3:    00 00 00 fc 00 48 50 20 56 32 32 35 68 7a 0a 20 20 20
descriptor 4:    00 00 00 ff 00 42 52 47 37 31 31 30 43 36 51 0a 20 20
extensions:      00
checksum:        75

EDID version: 1.3
Manufacturer: HWP Model 331a Serial Number --
Made in week 11 of 2017
Analog display, Input voltage level: 0.7/0.7 V
Sync: Separate Composite 
Maximum image size: 51 cm x 29 cm
Gamma: 2.20
DPMS levels: Off
RGB color display
First detailed timing is preferred timing
Display x,y Chromaticity:
  Red:   0.6376, 0.3339
  Green: 0.3085, 0.6269
  Blue:  0.1533, 0.0732
  White: 0.3134, 0.3291
Established timings supported:
  720x400@70Hz 9:5 HorFreq: 31469 Hz Clock: 28.320 MHz
  640x480@60Hz 4:3 HorFreq: 31469 Hz Clock: 25.175 MHz
  640x480@75Hz 4:3 HorFreq: 37500 Hz Clock: 31.500 MHz
  800x600@56Hz 4:3 HorFreq: 35200 Hz Clock: 36.000 MHz
  800x600@60Hz 4:3 HorFreq: 37900 Hz Clock: 40.000 MHz
  800x600@75Hz 4:3 HorFreq: 46900 Hz Clock: 49.500 MHz
  832x624@75Hz 4:3 HorFreq: 49726 Hz Clock: 57.284 MHz
  1024x768@60Hz 4:3 HorFreq: 48400 Hz Clock: 65.000 MHz
  1024x768@75Hz 4:3 HorFreq: 60000 Hz Clock: 78.750 MHz
  1280x1024@75Hz 5:4 HorFreq: 80000 Hz Clock: 135.000 MHz
  1152x870@75Hz 192:145 HorFreq: 67500 Hz Clock: 108.000 MHz
Standard timings supported:
  1920x1080@60Hz 16:9
  1280x720@60Hz 16:9
  1280x1024@60Hz 5:4 HorFreq: 64000 Hz Clock: 108.000 MHz
  1440x900@60Hz 16:10 HorFreq: 55500 Hz Clock: 88.750 MHz
  1600x900@60Hz 16:9
  1680x1050@60Hz 16:10 HorFreq: 64700 Hz Clock: 119.000 MHz
  1280x800@60Hz 16:10
Detailed mode: Clock 148.500 MHz, 510 mm x 290 mm
               1920 2008 2052 2200 hborder 0
               1080 1084 1089 1125 vborder 0
               +hsync +vsync 
               VertFreq: 60 Hz, HorFreq: 67500 Hz
Monitor ranges (GTF): 56-75Hz V, 30-83kHz H, max dotclock 150MHz
Monitor name: HP V225hz
Serial number: --
Checksum: 0x75 (valid)
