
EDID (hex):
00ffffffffffff0006af99bf00000000
071f0104a5221678031db5a854489c24
0e505400000001010101010101010101
0101010101014ad800a0a04060603020
aa0058d7100000182a6c00a0a0406060
3020aa0058d710000018000000fd0030
78cccc37010a202020202020000000fe
004231363051414e30322e50200a0004

Extracted contents:
header:          00 ff ff ff ff ff ff 00
serial number:   06 af 99 bf 00 00 00 00 07 1f
version:         01 04
basic params:    a5 22 16 78 03
chroma info:     1d b5 a8 54 48 9c 24 0e 50 54
established:     00 00 00
standard:        01 01 01 01 01 01 01 01 01 01 01 01 01 01 01 01
descriptor 1:    4a d8 00 a0 a0 40 60 60 30 20 aa 00 58 d7 10 00 00 18
descriptor 2:    2a 6c 00 a0 a0 40 60 60 30 20 aa 00 58 d7 10 00 00 18
descriptor 3:    00 00 00 fd 00 30 78 cc cc 37 01 0a 20 20 20 20 20 20
descriptor 4:    00 00 00 fe 00 42 31 36 30 51 41 4e 30 32 2e 50 20 0a
extensions:      00
checksum:        04

EDID version: 1.4
Manufacturer: AUO Model bf99 Serial Number --
Made in week 7 of 2021
Digital display
8 bits per primary color channel
DisplayPort interface
Maximum image size: 34 cm x 22 cm
Gamma: 2.20
Supported color formats: RGB 4:4:4
First detailed timing includes the native pixel format and preferred refresh rate
Display is continuous frequency
Display x,y Chromaticity:
  Red:   0.6562, 0.3291
  Green: 0.2841, 0.6103
  Blue:  0.1425, 0.0576
  White: 0.3134, 0.3291
Established timings supported:
Standard timings supported:
Detailed mode: Clock 553.700 MHz, 344 mm x 215 mm
               2560 2608 2640 2720 hborder 0
               1600 1610 1620 1696 vborder 0
               -hsync -vsync 
               VertFreq: 120 Hz, HorFreq: 203566 Hz
Detailed mode: Clock 276.900 MHz, 344 mm x 215 mm
               2560 2608 2640 2720 hborder 0
               1600 1610 1620 1696 vborder 0
               -hsync -vsync 
               VertFreq: 60 Hz, HorFreq: 101801 Hz
Monitor ranges (bare limits): 48-120Hz V, 204-204kHz H, max dotclock 550MHz
ASCII string: B160QAN02.P 
Checksum: 0x4 (valid)
EDID block does NOT conform to EDID 1.4!
	Missing name descriptor
Warning: One or more of the timings is out of range of the Monitor Ranges:
  Vertical Freq: 60 - 120 Hz
  Horizontal Freq: 101801 - 203566 Hz
  Maximum Clock: 553.700 MHz
