
EDID (hex):
00ffffffffffff0030e46e0600000000
001d0104a522137803ef85a3544c9e26
0e505400000001010101010101010101
01010101010134d080a07038764c3020
350058c21000001a000000fd0e3c2d4f
4f43010a202020202020000000fe0048
43565043813135365746470a00000000
0002411f9e001100000f010a2020016a
70137900000301148b0401847f074f00
2f801f0037041e000900040000000000
00000000000000000000000000000000
00000000000000000000000000000000
00000000000000000000000000000000
00000000000000000000000000000000
00000000000000000000000000000000
00000000000000000000000000003f90

Extracted contents:
header:          00 ff ff ff ff ff ff 00
serial number:   30 e4 6e 06 00 00 00 00 00 1d
version:         01 04
basic params:    a5 22 13 78 03
chroma info:     ef 85 a3 54 4c 9e 26 0e 50 54
established:     00 00 00
standard:        01 01 01 01 01 01 01 01 01 01 01 01 01 01 01 01
descriptor 1:    34 d0 80 a0 70 38 76 4c 30 20 35 00 58 c2 10 00 00 1a
descriptor 2:    00 00 00 fd 0e 3c 2d 4f 4f 43 01 0a 20 20 20 20 20 20
descriptor 3:    00 00 00 fe 00 48 43 56 50 43 81 31 35 36 57 46 47 0a
descriptor 4:    00 00 00 00 00 02 41 1f 9e 00 11 00 00 0f 01 0a 20 20
extensions:      01
checksum:        6a

EDID version: 1.4
Manufacturer: LGD Model 66e Serial Number --
Made in year 2019
Digital display
8 bits per primary color channel
DisplayPort interface
Maximum image size: 34 cm x 19 cm
Gamma: 2.20
Supported color formats: RGB 4:4:4
First detailed timing includes the native pixel format and preferred refresh rate
Display is continuous frequency
Display x,y Chromaticity:
  Red:   0.6396, 0.3300
  Green: 0.2998, 0.6201
  Blue:  0.1503, 0.0546
  White: 0.3134, 0.3291
Established timings supported:
Standard timings supported:
Detailed mode: Clock 533.000 MHz, 344 mm x 194 mm
               1920 1968 2000 2080 hborder 0
               1080 1083 1088 4270 vborder 0
               +hsync -vsync 
               VertFreq: 60 Hz, HorFreq: 256250 Hz
Monitor ranges (bare limits): 60-300Hz V, 334-334kHz H, max dotclock 670MHz
ASCII string: HCVPC
Manufacturer-specified data, tag 0
Has 1 extension blocks
Checksum: 0x6a (valid)

DisplayID extension block
Extension version: 19
Length 121, version 19, extension count 0
Checksum: 0x3f (valid)
Type 1 detailed timing: aspect: 16:9, Preferred  
Detailed mode: Clock 666.990 MHz, 0 mm x 0 mm
               1919 1966 1997 1998
               1079 1088 1092 1109
               +hsync -vsync

EDID block does NOT conform to EDID 1.4!
	Missing name descriptor
	Detailed block string not properly terminated
Warning: One or more of the timings is out of range of the Monitor Ranges:
  Vertical Freq: 60 - 60 Hz
  Horizontal Freq: 256250 - 256250 Hz
  Maximum Clock: 533.000 MHz
EDID block does not conform at all!
	Has -1778384896 nonconformant extension block(s)
