edid-decode (hex):

00 ff ff ff ff ff ff 00 09 e5 81 16 01 00 00 00
01 19 01 03 81 1c 10 78 ee fb b7 99 59 51 94 2d
1f 50 56 00 00 00 01 01 01 01 01 01 01 01 01 01
01 01 01 01 01 01 c9 36 80 cd 70 38 14 40 30 20
36 00 18 a5 10 00 00 18 00 00 00 fd 00 0f f0 0f
7f 11 00 0a 20 20 20 20 20 20 00 00 00 ff 00 31
0a 20 20 20 20 20 20 20 20 20 20 20 00 00 00 fc
00 53 54 41 4e 44 20 53 54 45 41 44 59 0a 00 a8

----------------

Block 0, Base EDID:
  EDID Structure Version & Revision: 1.3
  Vendor & Product Identification:
    Manufacturer: BOE
    Model: 5761
    Serial Number: ...
    Made in: week 1 of 2015
  Basic Display Parameters & Features:
    Digital display
    DFP 1.x compatible TMDS
    Maximum image size: 28 cm x 16 cm
    Gamma: 2.20
    DPMS levels: Standby Suspend Off
    RGB color display
    Default (sRGB) color space is primary color space
    First detailed timing is the preferred timing
  Color Characteristics:
    Red  : 0.6005, 0.3505
    Green: 0.3183, 0.5810
    Blue : 0.1777, 0.1240
    White: 0.3134, 0.3388
  Established Timings I & II: none
  Standard Timings: none
  Detailed Timing Descriptors:
    DTD 1:  1920x1080   60.000 Hz  16:9    66.000 kHz 140.250 MHz (280 mm x 165 mm)
                 Hfront   48 Hsync  32 Hback 125 Hpol N
                 Vfront    3 Vsync   6 Vback  11 Vpol N
  Display Range Limits:
    Monitor ranges (GTF): 15-240 Hz V, 15-127 kHz H, max dotclock 170 MHz
    Display Product Serial Number: ...
    Display Product Name: 'STAND STEADY'
Checksum: 0xa8

----------------

Failures:

Block 0, Base EDID:
  Basic Display Parameters & Features: sRGB is signaled, but the chromaticities do not match.

EDID conformity: FAIL
