
EDID (hex):
00ffffffffffff004ca3415400000000
0013010390160d780a859599574f8f26
21505400000001010101010101010101
010101010101061800b8415864203020
3600df7d0000001a061800b841586420
30203600df7d0000001a000000fe0032
36595732803130314e540a2000000000
000c10171b3669a9ff01010a2020006e

Extracted contents:
header:          00 ff ff ff ff ff ff 00
serial number:   4c a3 41 54 00 00 00 00 00 13
version:         01 03
basic params:    90 16 0d 78 0a
chroma info:     85 95 99 57 4f 8f 26 21 50 54
established:     00 00 00
standard:        01 01 01 01 01 01 01 01 01 01 01 01 01 01 01 01
descriptor 1:    06 18 00 b8 41 58 64 20 30 20 36 00 df 7d 00 00 00 1a
descriptor 2:    06 18 00 b8 41 58 64 20 30 20 36 00 df 7d 00 00 00 1a
descriptor 3:    00 00 00 fe 00 32 36 59 57 32 80 31 30 31 4e 54 0a 20
descriptor 4:    00 00 00 00 00 0c 10 17 1b 36 69 a9 ff 01 01 0a 20 20
extensions:      00
checksum:        6e

EDID version: 1.3
Manufacturer: SEC Model 5441 Serial Number --
Made in year 2009
Digital display
Maximum image size: 22 cm x 13 cm
Gamma: 2.20
RGB color display
First detailed timing is preferred timing
Display x,y Chromaticity:
  Red:   0.5996, 0.3398
  Green: 0.3095, 0.5595
  Blue:  0.1503, 0.1298
  White: 0.3134, 0.3291
Established timings supported:
Standard timings supported:
Detailed mode: Clock 61.500 MHz, 223 mm x 125 mm
               1024 1072 1104 1464 hborder 0
                600  603  609  700 vborder 0
               +hsync -vsync 
               VertFreq: 60 Hz, HorFreq: 42008 Hz
Detailed mode: Clock 61.500 MHz, 223 mm x 125 mm
               1024 1072 1104 1464 hborder 0
                600  603  609  700 vborder 0
               +hsync -vsync 
               VertFreq: 60 Hz, HorFreq: 42008 Hz
ASCII string: 26YW2
Manufacturer-specified data, tag 0
Checksum: 0x6e (valid)
EDID block does NOT conform to EDID 1.3!
	Digital display field contains garbage: 10
	Missing name descriptor
	Missing monitor ranges
	Detailed block string not properly terminated
