
EDID (hex):
00ffffffffffff004ca3415400000000
00140100952213780ac8959e57549226
0f505400000001010101010101010101
0101010101015e1d56dc500016303020
250058c21000001ad61256a050001630
3020250058c21000001a000000fe0054
383932548031353641540a2000000000
00004101190000000009010a20200004

Extracted contents:
header:          00 ff ff ff ff ff ff 00
serial number:   4c a3 41 54 00 00 00 00 00 14
version:         01 00
basic params:    95 22 13 78 0a
chroma info:     c8 95 9e 57 54 92 26 0f 50 54
established:     00 00 00
standard:        01 01 01 01 01 01 01 01 01 01 01 01 01 01 01 01
descriptor 1:    5e 1d 56 dc 50 00 16 30 30 20 25 00 58 c2 10 00 00 1a
descriptor 2:    d6 12 56 a0 50 00 16 30 30 20 25 00 58 c2 10 00 00 1a
descriptor 3:    00 00 00 fe 00 54 38 39 32 54 80 31 35 36 41 54 0a 20
descriptor 4:    00 00 00 00 00 00 41 01 19 00 00 00 00 09 01 0a 20 20
extensions:      00
checksum:        04

EDID version: 1.0
Manufacturer: SEC Model 5441 Serial Number --
Made in year 2010
Digital display
Maximum image size: 34 cm x 19 cm
Gamma: 2.20
RGB color display
First detailed timing is preferred timing
Display x,y Chromaticity:
  Red:   0.6201, 0.3398
  Green: 0.3300, 0.5703
  Blue:  0.1503, 0.0595
  White: 0.3134, 0.3291
Established timings supported:
Standard timings supported:
Detailed mode: Clock 75.180 MHz, 344 mm x 194 mm
               1366 1414 1446 1586 hborder 0
                768  770  775  790 vborder 0
               +hsync -vsync 
               VertFreq: 60 Hz, HorFreq: 47402 Hz
Detailed mode: Clock 48.220 MHz, 344 mm x 194 mm
               1366 1414 1446 1526 hborder 0
                768  770  775  790 vborder 0
               +hsync -vsync 
               VertFreq: 39 Hz, HorFreq: 31598 Hz
ASCII string: T892T
Manufacturer-specified data, tag 0
Checksum: 0x4 (valid)
EDID block does NOT conform to EDID 1.0!
	Has descriptor blocks other than detailed timings
