
EDID (hex):
00ffffffffffff003663350700000000
280f010378221b64e80692a0574f8726
10484fbfef80314a454a614c8180818a
818c8140814a000000fd00384c1e410b
000a202020202020000000fc004d5343
2d3733350a2020202020f322007c5000
264018381300520e1100000a000000ff
00534330353733353030303030300051

Extracted contents:
header:          00 ff ff ff ff ff ff 00
serial number:   36 63 35 07 00 00 00 00 28 0f
version:         01 03
basic params:    78 22 1b 64 e8
chroma info:     06 92 a0 57 4f 87 26 10 48 4f
established:     bf ef 80
standard:        31 4a 45 4a 61 4c 81 80 81 8a 81 8c 81 40 81 4a
descriptor 1:    00 00 00 fd 00 38 4c 1e 41 0b 00 0a 20 20 20 20 20 20
descriptor 2:    00 00 00 fc 00 4d 53 43 2d 37 33 35 0a 20 20 20 20 20
descriptor 3:    f3 22 00 7c 50 00 26 40 18 38 13 00 52 0e 11 00 00 0a
descriptor 4:    00 00 00 ff 00 53 43 30 35 37 33 35 30 30 30 30 30 30
extensions:      00
checksum:        51

EDID version: 1.3
Manufacturer: MSC Model 735 Serial Number --
Analog display, Input voltage level: 0.7/0.7 V
Configurable signal levels
Sync: Separate 
Maximum image size: 34 cm x 27 cm
Gamma: 2.00
DPMS levels: Standby Suspend Off
RGB color display
Display x,y Chromaticity:
  Red:   0.6250, 0.3398
  Green: 0.3095, 0.5292
  Blue:  0.1503, 0.0634
  White: 0.2812, 0.3105
Established timings supported:
  720x400@70Hz 9:5 HorFreq: 31469 Hz Clock: 28.320 MHz
  640x480@60Hz 4:3 HorFreq: 31469 Hz Clock: 25.175 MHz
  640x480@67Hz 4:3 HorFreq: 35000 Hz Clock: 30.240 MHz
  640x480@72Hz 4:3 HorFreq: 37900 Hz Clock: 31.500 MHz
  640x480@75Hz 4:3 HorFreq: 37500 Hz Clock: 31.500 MHz
  800x600@56Hz 4:3 HorFreq: 35200 Hz Clock: 36.000 MHz
  800x600@60Hz 4:3 HorFreq: 37900 Hz Clock: 40.000 MHz
  800x600@72Hz 4:3 HorFreq: 48100 Hz Clock: 50.000 MHz
  800x600@75Hz 4:3 HorFreq: 46900 Hz Clock: 49.500 MHz
  832x624@75Hz 4:3 HorFreq: 49726 Hz Clock: 57.284 MHz
  1024x768@60Hz 4:3 HorFreq: 48400 Hz Clock: 65.000 MHz
  1024x768@70Hz 4:3 HorFreq: 56500 Hz Clock: 75.000 MHz
  1024x768@75Hz 4:3 HorFreq: 60000 Hz Clock: 78.750 MHz
  1280x1024@75Hz 5:4 HorFreq: 80000 Hz Clock: 135.000 MHz
  1152x870@75Hz 192:145 HorFreq: 67500 Hz Clock: 108.000 MHz
Standard timings supported:
  640x480@70Hz 4:3
  800x600@70Hz 4:3
  1024x768@72Hz 4:3
  1280x1024@60Hz 5:4 HorFreq: 64000 Hz Clock: 108.000 MHz
  1280x1024@70Hz 5:4
  1280x1024@72Hz 5:4
  1280x960@60Hz 4:3 HorFreq: 60000 Hz Clock: 108.000 MHz
  1280x960@70Hz 4:3
Monitor ranges (GTF): 56-76Hz V, 30-65kHz H, max dotclock 110MHz
Monitor name: MSC-735
Detailed mode: Clock 89.470 MHz, 338 mm x 270 mm
               1280 1304 1360 1404 hborder 0
               1024 1025 1028 1062 vborder 0
               +hsync -vsync bipolar analog composite 
               VertFreq: 60 Hz, HorFreq: 63725 Hz
Serial number: --
Checksum: 0x51 (valid)
EDID block does NOT conform to EDID 1.3!
	Missing preferred timing
One or more of the timings is out of range of the Monitor Ranges:
  Vertical Freq: 56 - 75 Hz
  Horizontal Freq: 31469 - 80000 Hz
  Maximum Clock: 135.000 MHz
EDID block does not conform at all!
	Bad year of manufacture
	Invalid detailed timing descriptor ordering
