
EDID (hex):
00ffffffffffff0009e59e0600000000
011a0104952615780250f09f5a589c27
19505400000001010101010101010101
010101010101f02840f2608430303020
36007ed71000001abc2040f260843030
302036007ed71000001a000000fe0038
56505230814e54313733574400000000
0000411196000000000a010a2020000b

Extracted contents:
header:          00 ff ff ff ff ff ff 00
serial number:   09 e5 9e 06 00 00 00 00 01 1a
version:         01 04
basic params:    95 26 15 78 02
chroma info:     50 f0 9f 5a 58 9c 27 19 50 54
established:     00 00 00
standard:        01 01 01 01 01 01 01 01 01 01 01 01 01 01 01 01
descriptor 1:    f0 28 40 f2 60 84 30 30 30 20 36 00 7e d7 10 00 00 1a
descriptor 2:    bc 20 40 f2 60 84 30 30 30 20 36 00 7e d7 10 00 00 1a
descriptor 3:    00 00 00 fe 00 38 56 50 52 30 81 4e 54 31 37 33 57 44
descriptor 4:    00 00 00 00 00 00 41 11 96 00 00 00 00 0a 01 0a 20 20
extensions:      00
checksum:        0b

EDID version: 1.4
Manufacturer: BOE Model 69e Serial Number --
Made in week 1 of 2016
Digital display
6 bits per primary color channel
DisplayPort interface
Maximum image size: 38 cm x 21 cm
Gamma: 2.20
Supported color formats: RGB 4:4:4
First detailed timing includes the native pixel format and preferred refresh rate
Display x,y Chromaticity:
  Red:   0.6220, 0.3525
  Green: 0.3437, 0.6093
  Blue:  0.1552, 0.1005
  White: 0.3125, 0.3281
Established timings supported:
Standard timings supported:
Detailed mode: Clock 104.800 MHz, 382 mm x 215 mm
               1600 1648 1680 1842 hborder 0
                900  903  909  948 vborder 0
               +hsync -vsync 
               VertFreq: 60 Hz, HorFreq: 56894 Hz
Detailed mode: Clock 83.800 MHz, 382 mm x 215 mm
               1600 1648 1680 1842 hborder 0
                900  903  909  948 vborder 0
               +hsync -vsync 
               VertFreq: 47 Hz, HorFreq: 45494 Hz
ASCII string: 8VPR0
Manufacturer-specified data, tag 0
Checksum: 0xb (valid)
EDID block does NOT conform to EDID 1.4!
	Missing name descriptor
	Missing monitor ranges
	Detailed block string not properly terminated


