
EDID (hex):
00ffffffffffff0049543a0038900d00
1c1d010380804878ba7c119e59479b27
105054adcf00818081c06140d1c08100
010101010101011d007251d01e206e2c
550000d05200001c662156aa51001e30
468f330056005300001e000000fd0031
4c0f5511000a202020202020000000fc
2048444d490a202020202020202001d8
020322f05039075083011f01011d1272
51d01e206e2301000068030c001000b8
2d10011d007251d01e206e28550000d0
5200001e011d00bc52d01e20b8285540
00d05200001ed50980a020e02d100860
220080e021080818023a801871382d40
582c450080387400001e000000000000
000000000000000000000000000000e2

Extracted contents:
header:          00 ff ff ff ff ff ff 00
serial number:   49 54 3a 00 38 90 0d 00 1c 1d
version:         01 03
basic params:    80 80 48 78 ba
chroma info:     7c 11 9e 59 47 9b 27 10 50 54
established:     ad cf 00
standard:        81 80 81 c0 61 40 d1 c0 81 00 01 01 01 01 01 01
descriptor 1:    01 1d 00 72 51 d0 1e 20 6e 2c 55 00 00 d0 52 00 00 1c
descriptor 2:    66 21 56 aa 51 00 1e 30 46 8f 33 00 56 00 53 00 00 1e
descriptor 3:    00 00 00 fd 00 31 4c 0f 55 11 00 0a 20 20 20 20 20 20
descriptor 4:    00 00 00 fc 20 48 44 4d 49 0a 20 20 20 20 20 20 20 20
extensions:      01
checksum:        d8

EDID version: 1.3
Manufacturer: RJT Model 3a Serial Number --
Made in week 28 of 2019
Digital display
Maximum image size: 128 cm x 72 cm
Gamma: 2.20
DPMS levels: Standby Off
Undefined display color type
First detailed timing is preferred timing
Display x,y Chromaticity:
  Red:   0.6181, 0.3505
  Green: 0.2802, 0.6054
  Blue:  0.1523, 0.0634
  White: 0.3125, 0.3291
Established timings supported:
  720x400@70Hz 9:5 HorFreq: 31469 Hz Clock: 28.320 MHz
  640x480@60Hz 4:3 HorFreq: 31469 Hz Clock: 25.175 MHz
  640x480@72Hz 4:3 HorFreq: 37900 Hz Clock: 31.500 MHz
  640x480@75Hz 4:3 HorFreq: 37500 Hz Clock: 31.500 MHz
  800x600@60Hz 4:3 HorFreq: 37900 Hz Clock: 40.000 MHz
  800x600@72Hz 4:3 HorFreq: 48100 Hz Clock: 50.000 MHz
  800x600@75Hz 4:3 HorFreq: 46900 Hz Clock: 49.500 MHz
  1024x768@60Hz 4:3 HorFreq: 48400 Hz Clock: 65.000 MHz
  1024x768@70Hz 4:3 HorFreq: 56500 Hz Clock: 75.000 MHz
  1024x768@75Hz 4:3 HorFreq: 60000 Hz Clock: 78.750 MHz
  1280x1024@75Hz 5:4 HorFreq: 80000 Hz Clock: 135.000 MHz
Standard timings supported:
  1280x1024@60Hz 5:4 HorFreq: 64000 Hz Clock: 108.000 MHz
  1280x720@60Hz 16:9
  1024x768@60Hz 4:3 HorFreq: 48400 Hz Clock: 65.000 MHz
  1920x1080@60Hz 16:9
  1280x800@60Hz 16:10
Detailed mode: Clock 74.250 MHz, 1280 mm x 720 mm
               1280 1390 1434 1650 hborder 0
                720  725  730  750 vborder 0
               -hsync +vsync 
               VertFreq: 60 Hz, HorFreq: 45000 Hz
Detailed mode: Clock 85.500 MHz, 1366 mm x 768 mm
               1366 1436 1579 1792 hborder 0
                768  771  774  798 vborder 0
               +hsync +vsync 
               VertFreq: 59 Hz, HorFreq: 47712 Hz
Monitor ranges (GTF): 49-76Hz V, 15-85kHz H, max dotclock 170MHz
Monitor descriptor block has byte 4 nonzero (0x20)
Monitor name: HDMI
Has 1 extension blocks
Checksum: 0xd8 (valid)

CTA extension block
Extension version: 3
30 bytes of CTA data
  Video data block
    VIC  57 720x480@240Hz 16:9  HorFreq: 125874 Hz Clock: 108.000 MHz
    VIC   7 1440x480i@60Hz 16:9  HorFreq: 15734 Hz Clock: 27.000 MHz
    VIC  80 1680x720@25Hz 64:27  HorFreq: 18750 Hz Clock: 59.400 MHz
    VIC   3 720x480@60Hz 16:9 (native) HorFreq: 31469 Hz Clock: 27.000 MHz
    VIC   1 640x480@60Hz 4:3  HorFreq: 31469 Hz Clock: 25.175 MHz
    VIC  31 1920x1080@50Hz 16:9  HorFreq: 56250 Hz Clock: 148.500 MHz
    VIC   1 640x480@60Hz 4:3  HorFreq: 31469 Hz Clock: 25.175 MHz
    VIC   1 640x480@60Hz 4:3  HorFreq: 31469 Hz Clock: 25.175 MHz
    VIC  29 1440x576@50Hz 4:3  HorFreq: 31250 Hz Clock: 54.000 MHz
    VIC  18 720x576@50Hz 16:9  HorFreq: 31250 Hz Clock: 27.000 MHz
    VIC 114 3840x2160@48Hz 16:9  HorFreq: 108000 Hz Clock: 594.000 MHz
    VIC  81 1680x720@30Hz 64:27  HorFreq: 22500 Hz Clock: 59.400 MHz
    VIC 208 7680x4320@100Hz 64:27  HorFreq: 450000 Hz Clock: 4752.000 MHz
    VIC  30 1440x576@50Hz 16:9  HorFreq: 31250 Hz Clock: 54.000 MHz
    VIC  32 1920x1080@24Hz 16:9  HorFreq: 27000 Hz Clock: 74.250 MHz
    VIC 110 1680x720@48Hz 64:27  HorFreq: 36000 Hz Clock: 99.000 MHz
  Audio data block
    RESERVED, max channels 2
      Supported sample rates (kHz):
      Maximum bit rate: 0 kHz
  Vendor-specific data block, OUI 000c03 (HDMI)
    Source physical address 1.0.0.0
    Supports_AI
    DC_36bit
    DC_30bit
    DC_Y444
    Maximum TMDS clock: 225MHz
Underscans PC formats by default
Basic audio support
Supports YCbCr 4:4:4
Supports YCbCr 4:2:2
0 native detailed modes
Detailed mode: Clock 74.250 MHz, 1280 mm x 720 mm
               1280 1390 1430 1650 hborder 0
                720  725  730  750 vborder 0
               +hsync +vsync 
               VertFreq: 60 Hz, HorFreq: 45000 Hz
Detailed mode: Clock 74.250 MHz, 1280 mm x 720 mm
               1280 1720 1760 1980 hborder 0
                720  725  730  750 vborder 0
               +hsync +vsync 
               VertFreq: 50 Hz, HorFreq: 37500 Hz
Detailed mode: Clock 25.170 MHz, 640 mm x 480 mm
                640  648  744  800 hborder 8
                480  482  484  525 vborder 8
               -hsync -vsync 
               VertFreq: 59 Hz, HorFreq: 31462 Hz
Detailed mode: Clock 148.500 MHz, 1920 mm x 1080 mm
               1920 2008 2052 2200 hborder 0
               1080 1084 1089 1125 vborder 0
               +hsync +vsync 
               VertFreq: 60 Hz, HorFreq: 67500 Hz
Checksum: 0xe2 (valid)

EDID block does NOT conform to EDID 1.3!
	Invalid descriptor block padding
One or more of the timings is out of range of the Monitor Ranges:
  Vertical Freq: 24 - 240 Hz
  Horizontal Freq: 15734 - 450000 Hz
  Maximum Clock: 4752.000 MHz
