edid-decode (hex):

00 ff ff ff ff ff ff 00 0d ae ab 15 00 00 00 00
2f 16 01 03 80 22 13 78 0a d1 f5 93 5d 59 90 26
1d 50 54 00 00 00 01 01 01 01 01 01 01 01 01 01
01 01 01 01 01 01 1c 1b 56 6e 50 00 0f 30 22 14
23 00 58 c2 10 00 00 18 00 00 00 fe 00 4e 31 35
36 42 47 45 2d 4c 34 31 0a 20 00 00 00 fe 00 43
4d 4e 0a 20 20 20 20 20 20 20 20 20 00 00 00 fe
00 4e 31 35 36 42 47 45 2d 4c 34 31 0a 20 00 ce

----------------

Block 0, Base EDID:
  EDID Structure Version & Revision: 1.3
  Vendor & Product Identification:
    Manufacturer: CMN
    Model: 5547
    Made in: week 47 of 2012
  Basic Display Parameters & Features:
    Digital display
    Maximum image size: 34 cm x 19 cm
    Gamma: 2.20
    RGB color display
    First detailed timing is the preferred timing
  Color Characteristics:
    Red  : 0.5771, 0.3642
    Green: 0.3476, 0.5634
    Blue : 0.1513, 0.1162
    White: 0.3134, 0.3291
  Established Timings I & II: none
  Standard Timings: none
  Detailed Timing Descriptors:
    DTD 1:  1366x768    60.049770 Hz 683:384   47.019 kHz     69.400000 MHz (344 mm x 194 mm)
                 Hfront   34 Hsync  20 Hback   56 Hpol N
                 Vfront    2 Vsync   3 Vback   10 Vpol N
    Alphanumeric Data String: 'N156BGE-L41'
    Alphanumeric Data String: 'CMN'
    Alphanumeric Data String: 'N156BGE-L41'
Checksum: 0xce

----------------

Failures:

Block 0, Base EDID:
  Missing Display Product Name.
  Missing Display Range Limits Descriptor.

EDID conformity: FAIL
