edid-decode (hex):

00 ff ff ff ff ff ff 00 0e 6f 0a 13 00 00 00 00
00 1e 01 04 a5 1d 10 78 03 02 e0 a6 55 4d a1 27
0e 51 54 00 00 00 01 01 01 01 01 01 01 01 01 01
01 01 01 01 01 01 36 36 80 a0 70 38 20 40 30 20
35 00 25 a5 10 00 00 18 60 2b 80 a0 70 38 20 40
30 20 35 00 25 a5 10 00 00 18 00 00 00 fe 00 43
53 4f 54 20 54 33 0a 20 20 20 20 20 00 00 00 fe
00 4d 4e 44 33 30 31 42 41 31 2d 32 0a 20 00 dc

00 ff ff ff ff ff ff 00 0e 6f 0a 13 00 00 00 00
00 1e 01 04 a5 1d 10 78 03 02 e0 a6 55 4d a1 27
0e 51 54 00 00 00 01 01 01 01 01 01 01 01 01 01
01 01 01 01 01 01 36 36 80 a0 70 38 20 40 30 20
35 00 25 a5 10 00 00 18 60 2b 80 a0 70 38 20 40
30 20 35 00 25 a5 10 00 00 18 00 00 00 fe 00 43
53 4f 54 20 54 33 0a 20 20 20 20 20 00 00 00 fe
00 4d 4e 44 33 30 31 42 41 31 2d 32 0a 20 00 dc

----------------

Block 0, Base EDID:
  EDID Structure Version & Revision: 1.4
  Vendor & Product Identification:
    Manufacturer: CSO
    Model: 4874
    Made in: 2020
  Basic Display Parameters & Features:
    Digital display
    Bits per primary color channel: 8
    DisplayPort interface
    Maximum image size: 29 cm x 16 cm
    Gamma: 2.20
    Supported color formats: RGB 4:4:4
    First detailed timing includes the native pixel format and preferred refresh rate
    Display is continuous frequency
  Color Characteristics:
    Red  : 0.6484, 0.3320
    Green: 0.3007, 0.6308
    Blue : 0.1552, 0.0566
    White: 0.3164, 0.3281
  Established Timings I & II: none
  Standard Timings: none
  Detailed Timing Descriptors:
    DTD 1:  1920x1080   60.001038 Hz  16:9     66.721 kHz    138.780000 MHz (293 mm x 165 mm)
                 Hfront   48 Hsync  32 Hback   80 Hpol N
                 Vfront    3 Vsync   5 Vback   24 Vpol N
    DTD 2:  1920x1080   48.007748 Hz  16:9     53.385 kHz    111.040000 MHz (293 mm x 165 mm)
                 Hfront   48 Hsync  32 Hback   80 Hpol N
                 Vfront    3 Vsync   5 Vback   24 Vpol N
    Alphanumeric Data String: 'CSOT T3'
    Alphanumeric Data String: 'MND301BA1-2'
Checksum: 0xdc

----------------

Block 1, Unknown EDID Extension Block 0x00:
  00 ff ff ff ff ff ff 00 0e 6f 0a 13 00 00 00 00 '.........o......'
  00 1e 01 04 a5 1d 10 78 03 02 e0 a6 55 4d a1 27 '.......x....UM.''
  0e 51 54 00 00 00 01 01 01 01 01 01 01 01 01 01 '.QT.............'
  01 01 01 01 01 01 36 36 80 a0 70 38 20 40 30 20 '......66..p8 @0 '
  35 00 25 a5 10 00 00 18 60 2b 80 a0 70 38 20 40 '5.%.....`+..p8 @'
  30 20 35 00 25 a5 10 00 00 18 00 00 00 fe 00 43 '0 5.%..........C'
  53 4f 54 20 54 33 0a 20 20 20 20 20 00 00 00 fe 'SOT T3.     ....'
  00 4d 4e 44 33 30 31 42 41 31 2d 32 0a 20 00 dc '.MND301BA1-2. ..'
Checksum: 0xdc

----------------

Warnings:

Block 0, Base EDID:
  Missing Display Product Name.

Failures:

Block 0, Base EDID:
  Missing Display Range Limits Descriptor.
Block 1, Base EDID:
  Unknown Extension Block.
EDID:
  Base EDID: EDID specified 0 extension block(s), but found 1 extension block(s).

EDID conformity: FAIL
