
EDID (hex):
00ffffffffffff0039ee001403000000
301401037a1f11782e45259c5b559c27
195054afce0001010101010101010101
010101010101662150b051001b304070
360035ae1000001e000000fc00534d49
4c453458582020202020000000fd0038
4b1e3d09000a202020202020000000ff
353541303333594d35342020200a00f2

Extracted contents:
header:          00 ff ff ff ff ff ff 00
serial number:   39 ee 00 14 03 00 00 00 30 14
version:         01 03
basic params:    7a 1f 11 78 2e
chroma info:     45 25 9c 5b 55 9c 27 19 50 54
established:     af ce 00
standard:        01 01 01 01 01 01 01 01 01 01 01 01 01 01 01 01
descriptor 1:    66 21 50 b0 51 00 1b 30 40 70 36 00 35 ae 10 00 00 1e
descriptor 2:    00 00 00 fc 00 53 4d 49 4c 45 34 58 58 20 20 20 20 20
descriptor 3:    00 00 00 fd 00 38 4b 1e 3d 09 00 0a 20 20 20 20 20 20
descriptor 4:    00 00 00 ff 35 35 41 30 33 33 59 4d 35 34 20 20 20 0a
extensions:      00
checksum:        f2

EDID version: 1.3
Manufacturer: NON Model 1400 Serial Number --
Made in week 48 of 2010
Analog display, Input voltage level: 0.7/0.7 V
Configurable signal levels
Sync: Separate SyncOnGreen 
Maximum image size: 31 cm x 17 cm
Gamma: 2.20
DPMS levels: Off
RGB color display
Default (sRGB) color space is primary color space
First detailed timing is preferred timing
Display x,y Chromaticity:
  Red:   0.6103, 0.3554
  Green: 0.3330, 0.6103
  Blue:  0.1523, 0.0996
  White: 0.3134, 0.3291
Established timings supported:
  720x400@70Hz 9:5 HorFreq: 31469 Hz Clock: 28.320 MHz
  640x480@60Hz 4:3 HorFreq: 31469 Hz Clock: 25.175 MHz
  640x480@72Hz 4:3 HorFreq: 37900 Hz Clock: 31.500 MHz
  640x480@75Hz 4:3 HorFreq: 37500 Hz Clock: 31.500 MHz
  800x600@56Hz 4:3 HorFreq: 35200 Hz Clock: 36.000 MHz
  800x600@60Hz 4:3 HorFreq: 37900 Hz Clock: 40.000 MHz
  800x600@72Hz 4:3 HorFreq: 48100 Hz Clock: 50.000 MHz
  800x600@75Hz 4:3 HorFreq: 46900 Hz Clock: 49.500 MHz
  1024x768@60Hz 4:3 HorFreq: 48400 Hz Clock: 65.000 MHz
  1024x768@70Hz 4:3 HorFreq: 56500 Hz Clock: 75.000 MHz
  1024x768@75Hz 4:3 HorFreq: 60000 Hz Clock: 78.750 MHz
Standard timings supported:
Detailed mode: Clock 85.500 MHz, 309 mm x 174 mm
               1360 1424 1536 1792 hborder 0
                768  771  777  795 vborder 0
               +hsync +vsync 
               VertFreq: 60 Hz, HorFreq: 47712 Hz
Monitor ranges (GTF): 56-75Hz V, 30-61kHz H, max dotclock 90MHz
Monitor descriptor block has byte 4 nonzero (0x35)
Serial number: --   
Checksum: 0xf2 (valid)
EDID block does NOT conform to EDID 1.3!
	sRGB is signaled, but the chromaticities do not match
	Name descriptor not terminated with a newline
	Invalid descriptor block padding
