
EDID (hex):
00ffffffffffff000daec41500000000
261801049522137802ef059054529329
25505400000001010101010101010101
010101010101b43b804a713834406442
6a0058c11000001acd27804a71383440
64426a0058c11000001a000000000000
00000000000000000000000000000002
000c44ff0b3c6e13101f6e000000001f

Extracted contents:
header:          00 ff ff ff ff ff ff 00
serial number:   0d ae c4 15 00 00 00 00 26 18
version:         01 04
basic params:    95 22 13 78 02
chroma info:     ef 05 90 54 52 93 29 25 50 54
established:     00 00 00
standard:        01 01 01 01 01 01 01 01 01 01 01 01 01 01 01 01
descriptor 1:    b4 3b 80 4a 71 38 34 40 64 42 6a 00 58 c1 10 00 00 1a
descriptor 2:    cd 27 80 4a 71 38 34 40 64 42 6a 00 58 c1 10 00 00 1a
descriptor 3:    00 00 00 00 00 00 00 00 00 00 00 00 00 00 00 00 00 00
descriptor 4:    00 00 00 02 00 0c 44 ff 0b 3c 6e 13 10 1f 6e 00 00 00
extensions:      00
checksum:        1f

EDID version: 1.4
Manufacturer: CMN Model 15c4 Serial Number --
Made in week 38 of 2014
Digital display
6 bits per primary color channel
DisplayPort interface
Maximum image size: 34 cm x 19 cm
Gamma: 2.20
Supported color formats: RGB 4:4:4
First detailed timing includes the native pixel format and preferred refresh rate
Display x,y Chromaticity:
  Red:   0.5654, 0.3300
  Green: 0.3232, 0.5771
  Blue:  0.1601, 0.1445
  White: 0.3134, 0.3291
Established timings supported:
Standard timings supported:
Detailed mode: Clock 152.840 MHz, 344 mm x 193 mm
               1920 2020 2086 2250 hborder 0
               1080 1086 1096 1132 vborder 0
               +hsync -vsync 
               VertFreq: 60 Hz, HorFreq: 67928 Hz
Detailed mode: Clock 101.890 MHz, 344 mm x 193 mm
               1920 2020 2086 2250 hborder 0
               1080 1086 1096 1132 vborder 0
               +hsync -vsync 
               VertFreq: 40 Hz, HorFreq: 45284 Hz
Manufacturer-specified data, tag 0
Manufacturer-specified data, tag 2
Checksum: 0x1f (valid)
EDID block does NOT conform to EDID 1.4!
	Missing name descriptor
	Missing monitor ranges
