
EDID (hex):
00ffffffffffff0006af5d3100000000
14160103801a0e780aa4159e554e9b26
0f505400000001010101010101010101
0101010101013d3780bc703826403a2a
8e000090100000180000000f00000000
00000000000000000020000000fe0041
554f0a202020202020202020000000fe
004231313648414e30332e31200a00ae

Extracted contents:
header:          00 ff ff ff ff ff ff 00
serial number:   06 af 5d 31 00 00 00 00 14 16
version:         01 03
basic params:    80 1a 0e 78 0a
chroma info:     a4 15 9e 55 4e 9b 26 0f 50 54
established:     00 00 00
standard:        01 01 01 01 01 01 01 01 01 01 01 01 01 01 01 01
descriptor 1:    3d 37 80 bc 70 38 26 40 3a 2a 8e 00 00 90 10 00 00 18
descriptor 2:    00 00 00 0f 00 00 00 00 00 00 00 00 00 00 00 00 00 20
descriptor 3:    00 00 00 fe 00 41 55 4f 0a 20 20 20 20 20 20 20 20 20
descriptor 4:    00 00 00 fe 00 42 31 31 36 48 41 4e 30 33 2e 31 20 0a
extensions:      00
checksum:        ae

EDID version: 1.3
Manufacturer: AUO Model 315d Serial Number --
Made in week 20 of 2012
Digital display
Maximum image size: 26 cm x 14 cm
Gamma: 2.20
RGB color display
First detailed timing is preferred timing
Display x,y Chromaticity:
  Red:   0.6191, 0.3339
  Green: 0.3056, 0.6054
  Blue:  0.1484, 0.0595
  White: 0.3134, 0.3291
Established timings supported:
Standard timings supported:
Detailed mode: Clock 141.410 MHz, 256 mm x 144 mm
               1920 1978 2020 2108 hborder 0
               1080 1088 1102 1118 vborder 0
               -hsync -vsync 
               VertFreq: 60 Hz, HorFreq: 67082 Hz
Manufacturer-specified data, tag 15
ASCII string: AUO
ASCII string: B116HAN03.1 
Checksum: 0xae (valid)
EDID block does NOT conform to EDID 1.3!
	Missing name descriptor
	Missing monitor ranges
