edid-decode (hex):

00 ff ff ff ff ff ff 00 22 64 23 24 00 00 00 00
33 14 01 03 80 29 17 78 2a 5a d5 a7 56 4b 9b 24
13 50 54 bf ee 80 81 40 81 c0 71 4f 61 46 01 01
01 01 01 01 81 c0 66 21 56 aa 51 00 1e 30 46 8f
33 00 9a e6 10 00 00 1e 00 00 00 ff 00 30 35 31
41 55 31 57 59 30 34 37 33 39 00 00 00 fd 00 38
4b 18 3d 0b 00 0a 20 20 20 20 20 20 00 00 00 fc
00 69 50 31 39 31 41 0a 0a 0a 0a 0a 0a 0a 00 52

00 ff ff ff ff ff ff 00 22 64 23 24 00 00 00 00
33 14 01 03 80 29 17 78 2a 5a d5 a7 56 4b 9b 24
13 50 54 bf ee 80 81 40 81 c0 71 4f 61 46 01 01
01 01 01 01 81 c0 66 21 56 aa 51 00 1e 30 46 8f
33 00 9a e6 10 00 00 1e 00 00 00 ff 00 30 35 31
41 55 31 57 59 30 34 37 33 39 00 00 00 fd 00 38
4b 18 3d 0b 00 0a 20 20 20 20 20 20 00 00 00 fc
00 69 50 31 39 31 41 0a 0a 0a 0a 0a 0a 0a 00 52

----------------

Block 0, Base EDID:
  EDID Structure Version & Revision: 1.3
  Vendor & Product Identification:
    Manufacturer: HSD
    Model: 9251
    Made in: week 51 of 2010
  Basic Display Parameters & Features:
    Digital display
    Maximum image size: 41 cm x 23 cm
    Gamma: 2.20
    DPMS levels: Off
    RGB color display
    First detailed timing is the preferred timing
  Color Characteristics:
    Red  : 0.6533, 0.3369
    Green: 0.2949, 0.6074
    Blue : 0.1435, 0.0751
    White: 0.3134, 0.3291
  Established Timings I & II:
    IBM     :   720x400    70.081663 Hz   9:5     31.467 kHz     28.320000 MHz
    DMT 0x04:   640x480    59.940476 Hz   4:3     31.469 kHz     25.175000 MHz
    Apple   :   640x480    66.666667 Hz   4:3     35.000 kHz     30.240000 MHz
    DMT 0x05:   640x480    72.808802 Hz   4:3     37.861 kHz     31.500000 MHz
    DMT 0x06:   640x480    75.000000 Hz   4:3     37.500 kHz     31.500000 MHz
    DMT 0x08:   800x600    56.250000 Hz   4:3     35.156 kHz     36.000000 MHz
    DMT 0x09:   800x600    60.316541 Hz   4:3     37.879 kHz     40.000000 MHz
    DMT 0x0a:   800x600    72.187572 Hz   4:3     48.077 kHz     50.000000 MHz
    DMT 0x0b:   800x600    75.000000 Hz   4:3     46.875 kHz     49.500000 MHz
    Apple   :   832x624    74.551266 Hz   4:3     49.726 kHz     57.284000 MHz
    DMT 0x10:  1024x768    60.003840 Hz   4:3     48.363 kHz     65.000000 MHz
    DMT 0x11:  1024x768    70.069359 Hz   4:3     56.476 kHz     75.000000 MHz
    DMT 0x12:  1024x768    75.028582 Hz   4:3     60.023 kHz     78.750000 MHz
    Apple   :  1152x870    75.061550 Hz 192:145   68.681 kHz    100.000000 MHz
  Standard Timings:
    DMT 0x20:  1280x960    60.000000 Hz   4:3     60.000 kHz    108.000000 MHz
    DMT 0x55:  1280x720    60.000000 Hz  16:9     45.000 kHz     74.250000 MHz
    DMT 0x15:  1152x864    75.000000 Hz   4:3     67.500 kHz    108.000000 MHz
    GTF     :  1024x768    65.999558 Hz   4:3     52.668 kHz     71.628000 MHz
    DMT 0x55:  1280x720    60.000000 Hz  16:9     45.000 kHz     74.250000 MHz
  Detailed Timing Descriptors:
    DTD 1:  1366x768    59.789541 Hz 683:384   47.712 kHz     85.500000 MHz (410 mm x 230 mm)
                 Hfront   70 Hsync 143 Hback  213 Hpol P
                 Vfront    3 Vsync   3 Vback   24 Vpol P
    Display Product Serial Number: ...
    Display Range Limits:
      Monitor ranges (GTF): 56-75 Hz V, 24-61 kHz H, max dotclock 110 MHz
    Display Product Name: 'iP191A'
Checksum: 0x52

----------------

Block 1, Unknown EDID Extension Block 0x00:
  00 ff ff ff ff ff ff 00 22 64 23 24 00 00 00 00 '........"d#$....'
  33 14 01 03 80 29 17 78 2a 5a d5 a7 56 4b 9b 24 '3....).x*Z..VK.$'
  13 50 54 bf ee 80 81 40 81 c0 71 4f 61 46 01 01 '.PT....@..qOaF..'
  01 01 01 01 81 c0 66 21 56 aa 51 00 1e 30 46 8f '......f!V.Q..0F.'
  33 00 9a e6 10 00 00 1e 00 00 00 ff 00 30 35 31 '3............051'
  41 55 31 57 59 30 34 37 33 39 00 00 00 fd 00 38 'AU1WY04739.....8'
  4b 18 3d 0b 00 0a 20 20 20 20 20 20 00 00 00 fc 'K.=...      ....'
  00 69 50 31 39 31 41 0a 0a 0a 0a 0a 0a 0a 00 52 '.iP191A........R'
Checksum: 0x52

----------------

Failures:

Block 0, Base EDID:
  Display Product Name: Non-space after newline.
Block 1, Base EDID:
  Unknown Extension Block.
EDID:
  Base EDID: Some timings are out of range of the Monitor Ranges:
    Horizontal Freq: 31.466 - 68.681 kHz (Monitor: 24.000 - 61.000 kHz)
  Base EDID: EDID specified 0 extension block(s), but found 1 extension block(s).

EDID conformity: FAIL
