
EDID (hex):
00ffffffffffff00244d604101010101
340e010380291f78ea60e5a3574b9c25
1c5054a56a8031403159455961598180
818a01010101213340b460b019401450
130006442100001e000000fc0049424d
204c32303050000a0000000000fd0038
551f500e000a202020202020000000ff
0036362d4e393030310a20202020009b

Extracted contents:
header:          00 ff ff ff ff ff ff 00
serial number:   24 4d 60 41 01 01 01 01 34 0e
version:         01 03
basic params:    80 29 1f 78 ea
chroma info:     60 e5 a3 57 4b 9c 25 1c 50 54
established:     a5 6a 80
standard:        31 40 31 59 45 59 61 59 81 80 81 8a 01 01 01 01
descriptor 1:    21 33 40 b4 60 b0 19 40 14 50 13 00 06 44 21 00 00 1e
descriptor 2:    00 00 00 fc 00 49 42 4d 20 4c 32 30 30 50 00 0a 00 00
descriptor 3:    00 00 00 fd 00 38 55 1f 50 0e 00 0a 20 20 20 20 20 20
descriptor 4:    00 00 00 ff 00 36 36 2d 4e 39 30 30 31 0a 20 20 20 20
extensions:      00
checksum:        9b

EDID version: 1.3
Manufacturer: IBM Model 4160 Serial Number --
Digital display
Maximum image size: 41 cm x 31 cm
Gamma: 2.20
DPMS levels: Standby Suspend Off
RGB color display
First detailed timing is preferred timing
Display x,y Chromaticity:
  Red:   0.6376, 0.3417
  Green: 0.2929, 0.6093
  Blue:  0.1474, 0.1113
  White: 0.3134, 0.3291
Established timings supported:
  720x400@70Hz 9:5 HorFreq: 31469 Hz Clock: 28.320 MHz
  640x480@60Hz 4:3 HorFreq: 31469 Hz Clock: 25.175 MHz
  640x480@75Hz 4:3 HorFreq: 37500 Hz Clock: 31.500 MHz
  800x600@60Hz 4:3 HorFreq: 37900 Hz Clock: 40.000 MHz
  800x600@75Hz 4:3 HorFreq: 46900 Hz Clock: 49.500 MHz
  832x624@75Hz 4:3 HorFreq: 49726 Hz Clock: 57.284 MHz
  1024x768@60Hz 4:3 HorFreq: 48400 Hz Clock: 65.000 MHz
  1024x768@75Hz 4:3 HorFreq: 60000 Hz Clock: 78.750 MHz
  1152x870@75Hz 192:145 HorFreq: 67500 Hz Clock: 108.000 MHz
Standard timings supported:
  640x480@60Hz 4:3 HorFreq: 31469 Hz Clock: 25.175 MHz
  640x480@85Hz 4:3 HorFreq: 43300 Hz Clock: 36.000 MHz
  800x600@85Hz 4:3 HorFreq: 53700 Hz Clock: 56.250 MHz
  1024x768@85Hz 4:3 HorFreq: 68700 Hz Clock: 94.500 MHz
  1280x1024@60Hz 5:4 HorFreq: 64000 Hz Clock: 108.000 MHz
  1280x1024@70Hz 5:4
Detailed mode: Clock 130.890 MHz, 518 mm x 324 mm
               1600 1620 1700 1780 hborder 0
               1200 1201 1204 1225 vborder 0
               +hsync +vsync 
               VertFreq: 60 Hz, HorFreq: 73533 Hz
Monitor ranges (GTF): 56-85Hz V, 31-80kHz H, max dotclock 140MHz
Serial number: --
Checksum: 0x9b (valid)
EDID block does NOT conform to EDID 1.3!
	Name descriptor not terminated with a newline
EDID block does not conform at all!
	Bad year of manufacture


