
EDID (hex):
00ffffffffffff0020ec20ec00000000
130b010388241d96e8fd1c99594d9226
22505ca56e8031404540614081800101
010101010101302a009851002a403070
1300520e1100001e000000fd003a4b1f
500d000a202020202020000000fc0044
5445205341524c20484c4d31000000fc
003730580a202020202020202020007b

Extracted contents:
header:          00 ff ff ff ff ff ff 00
serial number:   20 ec 20 ec 00 00 00 00 13 0b
version:         01 03
basic params:    88 24 1d 96 e8
chroma info:     fd 1c 99 59 4d 92 26 22 50 5c
established:     a5 6e 80
standard:        31 40 45 40 61 40 81 80 01 01 01 01 01 01 01 01
descriptor 1:    30 2a 00 98 51 00 2a 40 30 70 13 00 52 0e 11 00 00 1e
descriptor 2:    00 00 00 fd 00 3a 4b 1f 50 0d 00 0a 20 20 20 20 20 20
descriptor 3:    00 00 00 fc 00 44 54 45 20 53 41 52 4c 20 48 4c 4d 31
descriptor 4:    00 00 00 fc 00 37 30 58 0a 20 20 20 20 20 20 20 20 20
extensions:      00
checksum:        7b

EDID version: 1.3
Manufacturer: HGL Model ec20 Serial Number --
Digital display
Maximum image size: 36 cm x 29 cm
Gamma: 2.50
DPMS levels: Standby Suspend Off
RGB color display
Display x,y Chromaticity:
  Red:   0.6005, 0.3505
  Green: 0.3037, 0.5712
  Blue:  0.1484, 0.1337
  White: 0.3154, 0.3593
Established timings supported:
  720x400@70Hz 9:5 HorFreq: 31469 Hz Clock: 28.320 MHz
  640x480@60Hz 4:3 HorFreq: 31469 Hz Clock: 25.175 MHz
  640x480@75Hz 4:3 HorFreq: 37500 Hz Clock: 31.500 MHz
  800x600@60Hz 4:3 HorFreq: 37900 Hz Clock: 40.000 MHz
  800x600@75Hz 4:3 HorFreq: 46900 Hz Clock: 49.500 MHz
  832x624@75Hz 4:3 HorFreq: 49726 Hz Clock: 57.284 MHz
  1024x768@60Hz 4:3 HorFreq: 48400 Hz Clock: 65.000 MHz
  1024x768@70Hz 4:3 HorFreq: 56500 Hz Clock: 75.000 MHz
  1024x768@75Hz 4:3 HorFreq: 60000 Hz Clock: 78.750 MHz
  1152x870@75Hz 192:145 HorFreq: 67500 Hz Clock: 108.000 MHz
Standard timings supported:
  640x480@60Hz 4:3 HorFreq: 31469 Hz Clock: 25.175 MHz
  800x600@60Hz 4:3 HorFreq: 37900 Hz Clock: 40.000 MHz
  1024x768@60Hz 4:3 HorFreq: 48400 Hz Clock: 65.000 MHz
  1280x1024@60Hz 5:4 HorFreq: 64000 Hz Clock: 108.000 MHz
Detailed mode: Clock 108.000 MHz, 338 mm x 270 mm
               1280 1328 1440 1688 hborder 0
               1024 1025 1028 1066 vborder 0
               +hsync +vsync 
               VertFreq: 60 Hz, HorFreq: 63981 Hz
Monitor ranges (GTF): 58-75Hz V, 31-80kHz H, max dotclock 130MHz
Monitor name: DTE SARL HLM170X
Checksum: 0x7b (valid)
EDID block does NOT conform to EDID 1.3!
	Digital display field contains garbage: 8
	Missing preferred timing
EDID block does not conform at all!
	Bad year of manufacture


