
EDID (hex):
00ffffffffffff003064000001010101
061401030e342078eaee91a3544c9926
0f5054ffff80a940818071869500b300
d1c08100d10064190040410026301888
360006442100001a000000fd0031561d
5e15000a202020202020000000fc004b
564d204d6f6e69746f720a20000000ff
0032303130303231325631300a2000bd

Extracted contents:
header:          00 ff ff ff ff ff ff 00
serial number:   30 64 00 00 01 01 01 01 06 14
version:         01 03
basic params:    0e 34 20 78 ea
chroma info:     ee 91 a3 54 4c 99 26 0f 50 54
established:     ff ff 80
standard:        a9 40 81 80 71 86 95 00 b3 00 d1 c0 81 00 d1 00
descriptor 1:    64 19 00 40 41 00 26 30 18 88 36 00 06 44 21 00 00 1a
descriptor 2:    00 00 00 fd 00 31 56 1d 5e 15 00 0a 20 20 20 20 20 20
descriptor 3:    00 00 00 fc 00 4b 56 4d 20 4d 6f 6e 69 74 6f 72 0a 20
descriptor 4:    00 00 00 ff 00 32 30 31 30 30 32 31 32 56 31 30 0a 20
extensions:      00
checksum:        bd

EDID version: 1.3
Manufacturer: LCD Model 0 Serial Number --
Made in week 6 of 2010
Analog display, Input voltage level: 0.7/0.3 V
Sync: Separate Composite SyncOnGreen 
Maximum image size: 52 cm x 32 cm
Gamma: 2.20
DPMS levels: Standby Suspend Off
RGB color display
First detailed timing is preferred timing
Display x,y Chromaticity:
  Red:   0.6396, 0.3300
  Green: 0.2998, 0.5996
  Blue:  0.1503, 0.0595
  White: 0.3125, 0.3291
Established timings supported:
  720x400@70Hz 9:5 HorFreq: 31469 Hz Clock: 28.320 MHz
  720x400@88Hz 9:5 HorFreq: 39500 Hz Clock: 35.500 MHz
  640x480@60Hz 4:3 HorFreq: 31469 Hz Clock: 25.175 MHz
  640x480@67Hz 4:3 HorFreq: 35000 Hz Clock: 30.240 MHz
  640x480@72Hz 4:3 HorFreq: 37900 Hz Clock: 31.500 MHz
  640x480@75Hz 4:3 HorFreq: 37500 Hz Clock: 31.500 MHz
  800x600@56Hz 4:3 HorFreq: 35200 Hz Clock: 36.000 MHz
  800x600@60Hz 4:3 HorFreq: 37900 Hz Clock: 40.000 MHz
  800x600@72Hz 4:3 HorFreq: 48100 Hz Clock: 50.000 MHz
  800x600@75Hz 4:3 HorFreq: 46900 Hz Clock: 49.500 MHz
  832x624@75Hz 4:3 HorFreq: 49726 Hz Clock: 57.284 MHz
  1280x768i@87Hz 5:3 HorFreq: 35522 Hz Clock: 44.900 MHz
  1024x768@60Hz 4:3 HorFreq: 48400 Hz Clock: 65.000 MHz
  1024x768@70Hz 4:3 HorFreq: 56500 Hz Clock: 75.000 MHz
  1024x768@75Hz 4:3 HorFreq: 60000 Hz Clock: 78.750 MHz
  1280x1024@75Hz 5:4 HorFreq: 80000 Hz Clock: 135.000 MHz
  1152x870@75Hz 192:145 HorFreq: 67500 Hz Clock: 108.000 MHz
Standard timings supported:
  1600x1200@60Hz 4:3 HorFreq: 75000 Hz Clock: 162.000 MHz
  1280x1024@60Hz 5:4 HorFreq: 64000 Hz Clock: 108.000 MHz
  1152x921@66Hz 5:4
  1440x900@60Hz 16:10 HorFreq: 55500 Hz Clock: 88.750 MHz
  1680x1050@60Hz 16:10 HorFreq: 64700 Hz Clock: 119.000 MHz
  1920x1080@60Hz 16:9
  1280x800@60Hz 16:10
  1920x1200@60Hz 16:10 HorFreq: 74000 Hz Clock: 154.000 MHz
Detailed mode: Clock 65.000 MHz, 518 mm x 324 mm
               1024 1048 1184 1344 hborder 0
                768  771  777  806 vborder 0
               +hsync -vsync 
               VertFreq: 60 Hz, HorFreq: 48363 Hz
Monitor ranges (GTF): 49-86Hz V, 29-94kHz H, max dotclock 210MHz
Monitor name: KVM Monitor
Serial number: --
Checksum: 0xbd (valid)
One or more of the timings is out of range of the Monitor Ranges:
  Vertical Freq: 56 - 88 Hz
  Horizontal Freq: 31469 - 80000 Hz
  Maximum Clock: 162.000 MHz
