
EDID (hex):
00ffffffffffff003064000001010101
1e0c01030e241b78e88a019a58528b28
1e5054bfcf008140814a814f00000000
000000000000000000fc005358474120
0a20202020202020000000fc00205446
54204c43440a20202020000000fd002b
4d145c0e000a202020202020000000ff
003030303030310a20202020202000fe

Extracted contents:
header:          00 ff ff ff ff ff ff 00
serial number:   30 64 00 00 01 01 01 01 1e 0c
version:         01 03
basic params:    0e 24 1b 78 e8
chroma info:     8a 01 9a 58 52 8b 28 1e 50 54
established:     bf cf 00
standard:        81 40 81 4a 81 4f 00 00 00 00 00 00 00 00 00 00
descriptor 1:    00 00 00 fc 00 53 58 47 41 20 0a 20 20 20 20 20 20 20
descriptor 2:    00 00 00 fc 00 20 54 46 54 20 4c 43 44 0a 20 20 20 20
descriptor 3:    00 00 00 fd 00 2b 4d 14 5c 0e 00 0a 20 20 20 20 20 20
descriptor 4:    00 00 00 ff 00 30 30 30 30 30 31 0a 20 20 20 20 20 20
extensions:      00
checksum:        fe

EDID version: 1.3
Manufacturer: LCD Model 0 Serial Number --
Analog display, Input voltage level: 0.7/0.3 V
Sync: Separate Composite SyncOnGreen 
Maximum image size: 36 cm x 27 cm
Gamma: 2.20
DPMS levels: Standby Suspend Off
RGB color display
Display x,y Chromaticity:
  Red:   0.6035, 0.3437
  Green: 0.3222, 0.5449
  Blue:  0.1562, 0.1171
  White: 0.3125, 0.3291
Established timings supported:
  720x400@70Hz 9:5 HorFreq: 31469 Hz Clock: 28.320 MHz
  640x480@60Hz 4:3 HorFreq: 31469 Hz Clock: 25.175 MHz
  640x480@67Hz 4:3 HorFreq: 35000 Hz Clock: 30.240 MHz
  640x480@72Hz 4:3 HorFreq: 37900 Hz Clock: 31.500 MHz
  640x480@75Hz 4:3 HorFreq: 37500 Hz Clock: 31.500 MHz
  800x600@56Hz 4:3 HorFreq: 35200 Hz Clock: 36.000 MHz
  800x600@60Hz 4:3 HorFreq: 37900 Hz Clock: 40.000 MHz
  800x600@72Hz 4:3 HorFreq: 48100 Hz Clock: 50.000 MHz
  800x600@75Hz 4:3 HorFreq: 46900 Hz Clock: 49.500 MHz
  1024x768@60Hz 4:3 HorFreq: 48400 Hz Clock: 65.000 MHz
  1024x768@70Hz 4:3 HorFreq: 56500 Hz Clock: 75.000 MHz
  1024x768@75Hz 4:3 HorFreq: 60000 Hz Clock: 78.750 MHz
  1280x1024@75Hz 5:4 HorFreq: 80000 Hz Clock: 135.000 MHz
Standard timings supported:
  1280x960@60Hz 4:3 HorFreq: 60000 Hz Clock: 108.000 MHz
  1280x960@70Hz 4:3
  1280x960@75Hz 4:3
non-conformant standard timing (0 horiz)
non-conformant standard timing (0 horiz)
non-conformant standard timing (0 horiz)
non-conformant standard timing (0 horiz)
non-conformant standard timing (0 horiz)
Monitor name: SXGA 
Monitor ranges (GTF): 43-77Hz V, 20-92kHz H, max dotclock 140MHz
Serial number: --
Checksum: 0xfe (valid)
EDID block does NOT conform to EDID 1.3!
	Missing preferred timing
EDID block does not conform at all!
	Bad year of manufacture
