
EDID (hex):
00ffffffffffff00410c5c10d1bf0000
1d070100081c157de8c2f29e574e9927
10484f25480045590000000000000000
000000000000d50980a0205e63101060
520804c31000001ad50980a020903110
1060c20004c31000001c000000000000
00000000000000000000000000000000
000000000000000000000000000000d3

Extracted contents:
header:          00 ff ff ff ff ff ff 00
serial number:   41 0c 5c 10 d1 bf 00 00 1d 07
version:         01 00
basic params:    08 1c 15 7d e8
chroma info:     c2 f2 9e 57 4e 99 27 10 48 4f
established:     25 48 00
standard:        45 59 00 00 00 00 00 00 00 00 00 00 00 00 00 00
descriptor 1:    d5 09 80 a0 20 5e 63 10 10 60 52 08 04 c3 10 00 00 1a
descriptor 2:    d5 09 80 a0 20 90 31 10 10 60 c2 00 04 c3 10 00 00 1c
descriptor 3:    00 00 00 00 00 00 00 00 00 00 00 00 00 00 00 00 00 00
descriptor 4:    00 00 00 00 00 00 00 00 00 00 00 00 00 00 00 00 00 00
extensions:      00
checksum:        d3

EDID version: 1.0
Manufacturer: PHL Model 105c Serial Number --
Analog display, Input voltage level: 0.7/0.3 V
Sync: Separate 
Maximum image size: 28 cm x 21 cm
Gamma: 2.25
DPMS levels: Standby Suspend Off
RGB color display
Display x,y Chromaticity:
  Red:   0.6201, 0.3398
  Green: 0.3046, 0.5996
  Blue:  0.1552, 0.0654
  White: 0.2812, 0.3105
Established timings supported:
  640x480@60Hz 4:3 HorFreq: 31469 Hz Clock: 25.175 MHz
  640x480@75Hz 4:3 HorFreq: 37500 Hz Clock: 31.500 MHz
  800x600@60Hz 4:3 HorFreq: 37900 Hz Clock: 40.000 MHz
  800x600@75Hz 4:3 HorFreq: 46900 Hz Clock: 49.500 MHz
  1024x768@60Hz 4:3 HorFreq: 48400 Hz Clock: 65.000 MHz
Standard timings supported:
  800x600@85Hz 4:3 HorFreq: 53700 Hz Clock: 56.250 MHz
non-conformant standard timing (0 horiz)
non-conformant standard timing (0 horiz)
non-conformant standard timing (0 horiz)
non-conformant standard timing (0 horiz)
non-conformant standard timing (0 horiz)
non-conformant standard timing (0 horiz)
non-conformant standard timing (0 horiz)
Detailed mode: Clock 25.170 MHz, 260 mm x 195 mm
                640  656  752  800 hborder 0
                350  387  389  449 vborder 0
               +hsync -vsync 
               VertFreq: 70 Hz, HorFreq: 31462 Hz
Detailed mode: Clock 25.170 MHz, 260 mm x 195 mm
                640  656  752  800 hborder 0
                400  412  414  449 vborder 0
               -hsync +vsync 
               VertFreq: 70 Hz, HorFreq: 31462 Hz
Manufacturer-specified data, tag 0
Manufacturer-specified data, tag 0
Checksum: 0xd3 (valid)
EDID block does NOT conform to EDID 1.0!
	Has descriptor blocks other than detailed timings
EDID block does not conform at all!
	Bad year of manufacture
