
EDID (hex):
00ffffffffffff000d05010030f10000
0d15010380331d78eec524a059589d27
0e5054a10800b30081c0a9c0d1c08180
01010101010118388000713814406040
8400fd1e1100001e000000fd00324b40
5312000a202020202020000000fc0041
494f204c43440a2020202020000000ff
00310a202020202020202020202000f8

Extracted contents:
header:          00 ff ff ff ff ff ff 00
serial number:   0d 05 01 00 30 f1 00 00 0d 15
version:         01 03
basic params:    80 33 1d 78 ee
chroma info:     c5 24 a0 59 58 9d 27 0e 50 54
established:     a1 08 00
standard:        b3 00 81 c0 a9 c0 d1 c0 81 80 01 01 01 01 01 01
descriptor 1:    18 38 80 00 71 38 14 40 60 40 84 00 fd 1e 11 00 00 1e
descriptor 2:    00 00 00 fd 00 32 4b 40 53 12 00 0a 20 20 20 20 20 20
descriptor 3:    00 00 00 fc 00 41 49 4f 20 4c 43 44 0a 20 20 20 20 20
descriptor 4:    00 00 00 ff 00 31 0a 20 20 20 20 20 20 20 20 20 20 20
extensions:      00
checksum:        f8

EDID version: 1.3
Manufacturer: CHE Model 1 Serial Number --
Made in week 13 of 2011
Digital display
Maximum image size: 51 cm x 29 cm
Gamma: 2.20
DPMS levels: Standby Suspend Off
RGB color display
Default (sRGB) color space is primary color space
First detailed timing is preferred timing
Display x,y Chromaticity:
  Red:   0.6279, 0.3476
  Green: 0.3447, 0.6142
  Blue:  0.1523, 0.0566
  White: 0.3134, 0.3281
Established timings supported:
  720x400@70Hz 9:5 HorFreq: 31469 Hz Clock: 28.320 MHz
  640x480@60Hz 4:3 HorFreq: 31469 Hz Clock: 25.175 MHz
  800x600@60Hz 4:3 HorFreq: 37900 Hz Clock: 40.000 MHz
  1024x768@60Hz 4:3 HorFreq: 48400 Hz Clock: 65.000 MHz
Standard timings supported:
  1680x1050@60Hz 16:10 HorFreq: 64700 Hz Clock: 119.000 MHz
  1280x720@60Hz 16:9
  1600x900@60Hz 16:9
  1920x1080@60Hz 16:9
  1280x1024@60Hz 5:4 HorFreq: 64000 Hz Clock: 108.000 MHz
Detailed mode: Clock 143.600 MHz, 509 mm x 286 mm
               1920 2016 2080 2176 hborder 0
               1080 1088 1092 1100 vborder 0
               +hsync +vsync 
               VertFreq: 59 Hz, HorFreq: 65992 Hz
Monitor ranges (GTF): 50-75Hz V, 64-83kHz H, max dotclock 180MHz
Monitor name: AIO LCD
Serial number: --
Checksum: 0xf8 (valid)
EDID block does NOT conform to EDID 1.3!
	sRGB is signaled, but the chromaticities do not match
One or more of the timings is out of range of the Monitor Ranges:
  Vertical Freq: 59 - 70 Hz
  Horizontal Freq: 31469 - 65992 Hz
  Maximum Clock: 143.600 MHz
