
EDID (hex):
00ffffffffffff00502c0117bd920100
120e010308221b78e8c5c6a3574a9c23
124f54bfef8031404540614081800101
010101010101c40980a0209032101160
c100540e1100001ebc34009851002a40
10901300540e1100001ec31e00204100
203010601300540e1100001e56132000
3158192010501300540e1100001e002a

edid-decode (hex):

00 ff ff ff ff ff ff 00 50 2c 01 17 bd 92 01 00
12 0e 01 03 08 22 1b 78 e8 c5 c6 a3 57 4a 9c 23
12 4f 54 bf ef 80 31 40 45 40 61 40 81 80 01 01
01 01 01 01 01 01 c4 09 80 a0 20 90 32 10 11 60
c1 00 54 0e 11 00 00 1e bc 34 00 98 51 00 2a 40
10 90 13 00 54 0e 11 00 00 1e c3 1e 00 20 41 00
20 30 10 60 13 00 54 0e 11 00 00 1e 56 13 20 00
31 58 19 20 10 50 13 00 54 0e 11 00 00 1e 00 2a

----------------

Block 0, Base EDID:
  EDID Structure Version & Revision: 1.3
  Vendor & Product Identification:
    Manufacturer: TAL
    Model: 5889
    Serial Number: 103101
    Made in: week 18 of 2004
  Basic Display Parameters & Features:
    Analog display
    Signal Level Standard: 0.700 : 0.300 : 1.000 V p-p
    Blank level equals black level
    Sync: Separate
    Maximum image size: 34 cm x 27 cm
    Gamma: 2.20
    DPMS levels: Standby Suspend Off
    RGB color display
  Color Characteristics:
    Red  : 0.6396, 0.3398
    Green: 0.2900, 0.6103
    Blue : 0.1396, 0.0703
    White: 0.3095, 0.3300
  Established Timings I & II:
    IBM     :   720x400    70.081663 Hz   9:5     31.467 kHz     28.320000 MHz
    DMT 0x04:   640x480    59.940476 Hz   4:3     31.469 kHz     25.175000 MHz
    Apple   :   640x480    66.666667 Hz   4:3     35.000 kHz     30.240000 MHz
    DMT 0x05:   640x480    72.808802 Hz   4:3     37.861 kHz     31.500000 MHz
    DMT 0x06:   640x480    75.000000 Hz   4:3     37.500 kHz     31.500000 MHz
    DMT 0x08:   800x600    56.250000 Hz   4:3     35.156 kHz     36.000000 MHz
    DMT 0x09:   800x600    60.316541 Hz   4:3     37.879 kHz     40.000000 MHz
    DMT 0x0a:   800x600    72.187572 Hz   4:3     48.077 kHz     50.000000 MHz
    DMT 0x0b:   800x600    75.000000 Hz   4:3     46.875 kHz     49.500000 MHz
    Apple   :   832x624    74.551266 Hz   4:3     49.726 kHz     57.284000 MHz
    DMT 0x10:  1024x768    60.003840 Hz   4:3     48.363 kHz     65.000000 MHz
    DMT 0x11:  1024x768    70.069359 Hz   4:3     56.476 kHz     75.000000 MHz
    DMT 0x12:  1024x768    75.028582 Hz   4:3     60.023 kHz     78.750000 MHz
    DMT 0x24:  1280x1024   75.024675 Hz   5:4     79.976 kHz    135.000000 MHz
    Apple   :  1152x870    75.061550 Hz 192:145   68.681 kHz    100.000000 MHz
  Standard Timings:
    DMT 0x04:   640x480    59.940476 Hz   4:3     31.469 kHz     25.175000 MHz
    DMT 0x09:   800x600    60.316541 Hz   4:3     37.879 kHz     40.000000 MHz
    DMT 0x10:  1024x768    60.003840 Hz   4:3     48.363 kHz     65.000000 MHz
    DMT 0x23:  1280x1024   60.019740 Hz   5:4     63.981 kHz    108.000000 MHz
  Detailed Timing Descriptors:
    DTD 1:   640x400    69.444444 Hz  16:10    31.250 kHz     25.000000 MHz (340 mm x 270 mm)
                 Hfront   17 Hsync  96 Hback   47 Hpol P
                 Vfront   12 Vsync   1 Vback   37 Vpol P
    DTD 2:  1280x1024   75.024675 Hz   5:4     79.976 kHz    135.000000 MHz (340 mm x 270 mm)
                 Hfront   16 Hsync 144 Hback  248 Hpol P
                 Vfront    1 Vsync   3 Vback   38 Vpol P
    DTD 3:  1024x768    75.028582 Hz   4:3     60.023 kHz     78.750000 MHz (340 mm x 270 mm)
                 Hfront   16 Hsync  96 Hback  176 Hpol P
                 Vfront    1 Vsync   3 Vback   28 Vpol P
    DTD 4:   800x600    75.000000 Hz   4:3     46.875 kHz     49.500000 MHz (340 mm x 270 mm)
                 Hfront   16 Hsync  80 Hback  160 Hpol P
                 Vfront    1 Vsync   3 Vback   21 Vpol P
Checksum: 0x2a
