edid-decode (hex):

00 ff ff ff ff ff ff 00 26 cf 3b 05 00 00 00 00
00 1c 01 04 95 1d 11 78 02 57 e0 96 5a 5b 94 27
1a 50 54 00 00 00 01 01 01 01 01 01 01 01 01 01
01 01 01 01 01 01 c4 1d 56 80 50 00 52 30 28 20
3c 00 26 a5 10 00 00 19 dd 16 56 84 50 00 2e 30
28 20 3c 00 26 a5 10 00 00 19 00 00 00 fe 00 49
6e 66 6f 56 69 73 69 6f 6e 0a 20 20 00 00 00 fe
00 4d 31 33 33 4e 57 52 39 20 52 31 20 0a 00 49

----------------

Block 0, Base EDID:
  EDID Structure Version & Revision: 1.4
  Vendor & Product Identification:
    Manufacturer: IVO
    Model: 1339
    Made in: 2018
  Basic Display Parameters & Features:
    Digital display
    Bits per primary color channel: 6
    DisplayPort interface
    Maximum image size: 29 cm x 17 cm
    Gamma: 2.20
    Supported color formats: RGB 4:4:4
    First detailed timing includes the native pixel format and preferred refresh rate
  Color Characteristics:
    Red  : 0.5869, 0.3525
    Green: 0.3564, 0.5810
    Blue : 0.1552, 0.1035
    White: 0.3125, 0.3281
  Established Timings I & II: none
  Standard Timings: none
  Detailed Timing Descriptors:
    DTD 1:  1366x768    60.005 Hz 683:384  51.004 kHz  76.200 MHz (294 mm x 165 mm)
                 Hfront   40 Hsync  32 Hback  56 Hpol N
                 Vfront    3 Vsync  12 Vback  67 Vpol N
    DTD 2:  1366x768    48.000 Hz 683:384  39.072 kHz  58.530 MHz (294 mm x 165 mm)
                 Hfront   40 Hsync  32 Hback  60 Hpol N
                 Vfront    3 Vsync  12 Vback  31 Vpol N
    Alphanumeric Data String: 'InfoVision'
    Alphanumeric Data String: 'M133NWR9 R1 '
Checksum: 0x49

----------------

Failures:

Block 0, Base EDID:
  Alphanumeric Data String: One or more trailing spaces.
  Missing Display Product Name.

EDID conformity: FAIL
