edid-decode (hex):

00 ff ff ff ff ff ff 00 26 cf 3b 05 00 00 00 00
00 1c 01 04 95 1d 11 78 0a da 10 97 58 51 97 27
1e 50 54 00 00 00 01 01 01 01 01 01 01 01 01 01
01 01 01 01 01 01 d8 1d 56 84 50 00 52 30 28 20
3c 00 26 a5 10 00 00 19 66 17 56 c2 50 00 20 30
28 20 3c 00 26 a5 10 00 00 19 00 00 00 fe 00 43
50 57 31 38 80 31 33 33 4e 57 52 39 00 00 00 00
00 00 41 31 16 00 10 00 00 09 01 0a 20 20 00 67

----------------

Block 0, Base EDID:
  EDID Structure Version & Revision: 1.4
  Vendor & Product Identification:
    Manufacturer: IVO
    Model: 1339
    Made in: 2018
  Basic Display Parameters & Features:
    Digital display
    Bits per primary color channel: 6
    DisplayPort interface
    Maximum image size: 29 cm x 17 cm
    Gamma: 2.20
    Supported color formats: RGB 4:4:4, YCrCb 4:4:4
    First detailed timing includes the native pixel format and preferred refresh rate
  Color Characteristics:
    Red  : 0.5927, 0.3447
    Green: 0.3183, 0.5917
    Blue : 0.1523, 0.1181
    White: 0.3125, 0.3281
  Established Timings I & II: none
  Standard Timings: none
  Detailed Timing Descriptors:
    DTD 1:  1366x768    60.001571 Hz 683:384   51.001 kHz     76.400000 MHz (294 mm x 165 mm)
                 Hfront   40 Hsync  32 Hback   60 Hpol N
                 Vfront    3 Vsync  12 Vback   67 Vpol N
    DTD 2:  1366x768    47.996795 Hz 683:384   38.397 kHz     59.900000 MHz (294 mm x 165 mm)
                 Hfront   40 Hsync  32 Hback  122 Hpol N
                 Vfront    3 Vsync  12 Vback   17 Vpol N
    Alphanumeric Data String: 'CPW18'
    Manufacturer-Specified Display Descriptor (0x00): 00 00 00 00 41 31 16 00 10 00 00 09 01 0a 20 20 '....A1........  '
Checksum: 0x67

----------------

Failures:

Block 0, Base EDID:
  Alphanumeric Data String: Non-printable character.
  Missing Display Product Name.

EDID conformity: FAIL
