
EDID (hex):
00ffffffffffff0040e50000cb150000
011001037e221b78eb0c55a559479b24
125054adcf008180718f314f3bcc31ca
010101010101302a009851002a403070
1300510e1100001e000000ff00303035
3537390a202020202020000000fd0037
4b1e500eea20202020202020000000fc
004d5231372d4831410a202020200084

Extracted contents:
header:          00 ff ff ff ff ff ff 00
serial number:   40 e5 00 00 cb 15 00 00 01 10
version:         01 03
basic params:    7e 22 1b 78 eb
chroma info:     0c 55 a5 59 47 9b 24 12 50 54
established:     ad cf 00
standard:        81 80 71 8f 31 4f 3b cc 31 ca 01 01 01 01 01 01
descriptor 1:    30 2a 00 98 51 00 2a 40 30 70 13 00 51 0e 11 00 00 1e
descriptor 2:    00 00 00 ff 00 30 30 35 35 37 39 0a 20 20 20 20 20 20
descriptor 3:    00 00 00 fd 00 37 4b 1e 50 0e ea 20 20 20 20 20 20 20
descriptor 4:    00 00 00 fc 00 4d 52 31 37 2d 48 31 41 0a 20 20 20 20
extensions:      00
checksum:        84

EDID version: 1.3
Manufacturer: PGE Model 0 Serial Number --
Made in week 1 of 2006
Analog display, Input voltage level: 0.7/0.7 V
Configurable signal levels
Sync: Separate Composite SyncOnGreen 
Maximum image size: 34 cm x 27 cm
Gamma: 2.20
DPMS levels: Standby Suspend Off
RGB color display
First detailed timing is preferred timing
Supports GTF timings within operating range
Display x,y Chromaticity:
  Red:   0.6445, 0.3476
  Green: 0.2802, 0.6054
  Blue:  0.1416, 0.0712
  White: 0.3134, 0.3291
Established timings supported:
  720x400@70Hz 9:5 HorFreq: 31469 Hz Clock: 28.320 MHz
  640x480@60Hz 4:3 HorFreq: 31469 Hz Clock: 25.175 MHz
  640x480@72Hz 4:3 HorFreq: 37900 Hz Clock: 31.500 MHz
  640x480@75Hz 4:3 HorFreq: 37500 Hz Clock: 31.500 MHz
  800x600@60Hz 4:3 HorFreq: 37900 Hz Clock: 40.000 MHz
  800x600@72Hz 4:3 HorFreq: 48100 Hz Clock: 50.000 MHz
  800x600@75Hz 4:3 HorFreq: 46900 Hz Clock: 49.500 MHz
  1024x768@60Hz 4:3 HorFreq: 48400 Hz Clock: 65.000 MHz
  1024x768@70Hz 4:3 HorFreq: 56500 Hz Clock: 75.000 MHz
  1024x768@75Hz 4:3 HorFreq: 60000 Hz Clock: 78.750 MHz
  1280x1024@75Hz 5:4 HorFreq: 80000 Hz Clock: 135.000 MHz
Standard timings supported:
  1280x1024@60Hz 5:4 HorFreq: 64000 Hz Clock: 108.000 MHz
  1152x921@75Hz 5:4
  640x480@75Hz 4:3 HorFreq: 37500 Hz Clock: 31.500 MHz
  720x405@72Hz 16:9
  640x360@70Hz 16:9
Detailed mode: Clock 108.000 MHz, 337 mm x 270 mm
               1280 1328 1440 1688 hborder 0
               1024 1025 1028 1066 vborder 0
               +hsync +vsync 
               VertFreq: 60 Hz, HorFreq: 63981 Hz
Serial number: --
Monitor ranges (invalid): 55-75Hz V, 30-80kHz H, max dotclock 140MHz
Monitor name: MR17-H1A
Checksum: 0x84 (valid)
EDID block does not conform at all!
	Detailed blocks filled with garbage
	Range descriptor contains garbage
