
EDID (hex):
00ffffffffffff0009e5f10900000000
341e0104a52414780322359759578e29
1e505400000001010101010101010101
0101010101018e8f8018713850406c30
aa0063c81000001ad83b801871385040
6c30aa0063c81000001a000000000000
00000000000000000000000000000002
000b40ff0a3c7d3e162b7d0000000035

Extracted contents:
header:          00 ff ff ff ff ff ff 00
serial number:   09 e5 f1 09 00 00 00 00 34 1e
version:         01 04
basic params:    a5 24 14 78 03
chroma info:     22 35 97 59 57 8e 29 1e 50 54
established:     00 00 00
standard:        01 01 01 01 01 01 01 01 01 01 01 01 01 01 01 01
descriptor 1:    8e 8f 80 18 71 38 50 40 6c 30 aa 00 63 c8 10 00 00 1a
descriptor 2:    d8 3b 80 18 71 38 50 40 6c 30 aa 00 63 c8 10 00 00 1a
descriptor 3:    00 00 00 00 00 00 00 00 00 00 00 00 00 00 00 00 00 00
descriptor 4:    00 00 00 02 00 0b 40 ff 0a 3c 7d 3e 16 2b 7d 00 00 00
extensions:      00
checksum:        35

EDID version: 1.4
Manufacturer: BOE Model 9f1 Serial Number --
Made in week 52 of 2020
Digital display
8 bits per primary color channel
DisplayPort interface
Maximum image size: 36 cm x 20 cm
Gamma: 2.20
Supported color formats: RGB 4:4:4
First detailed timing includes the native pixel format and preferred refresh rate
Display is continuous frequency
Display x,y Chromaticity:
  Red:   0.5898, 0.3496
  Green: 0.3398, 0.5566
  Blue:  0.1601, 0.1201
  White: 0.3134, 0.3291
Established timings supported:
Standard timings supported:
Detailed mode: Clock 367.500 MHz, 355 mm x 200 mm
               1920 2028 2076 2200 hborder 0
               1080 1090 1100 1160 vborder 0
               +hsync -vsync 
               VertFreq: 144 Hz, HorFreq: 167045 Hz
Detailed mode: Clock 153.200 MHz, 355 mm x 200 mm
               1920 2028 2076 2200 hborder 0
               1080 1090 1100 1160 vborder 0
               +hsync -vsync 
               VertFreq: 60 Hz, HorFreq: 69636 Hz
Manufacturer-specified data, tag 0
Manufacturer-specified data, tag 2
Checksum: 0x35 (valid)
EDID block does NOT conform to EDID 1.4!
	Missing name descriptor
	Missing monitor ranges
