
EDID (hex):
00ffffffffffff0009e5d30600000000
011a0103952213780224109759548e27
1e505400000001010101010101010101
0101010101013e1c56a0500016303020
360058c21000001a0000000000000000
0000000000000000001a000000fe0042
4f452043510a202020202020000000fe
004e5431353657484d2d4e35300a00af

Extracted contents:
header:          00 ff ff ff ff ff ff 00
serial number:   09 e5 d3 06 00 00 00 00 01 1a
version:         01 03
basic params:    95 22 13 78 02
chroma info:     24 10 97 59 54 8e 27 1e 50 54
established:     00 00 00
standard:        01 01 01 01 01 01 01 01 01 01 01 01 01 01 01 01
descriptor 1:    3e 1c 56 a0 50 00 16 30 30 20 36 00 58 c2 10 00 00 1a
descriptor 2:    00 00 00 00 00 00 00 00 00 00 00 00 00 00 00 00 00 1a
descriptor 3:    00 00 00 fe 00 42 4f 45 20 43 51 0a 20 20 20 20 20 20
descriptor 4:    00 00 00 fe 00 4e 54 31 35 36 57 48 4d 2d 4e 35 30 0a
extensions:      00
checksum:        af

EDID version: 1.3
Manufacturer: BOE Model 6d3 Serial Number --
Made in week 1 of 2016
Digital display
DFP 1.x compatible TMDS
Maximum image size: 34 cm x 19 cm
Gamma: 2.20
Monochrome or grayscale display
First detailed timing is preferred timing
Display x,y Chromaticity:
  Red:   0.5898, 0.3496
  Green: 0.3291, 0.5546
  Blue:  0.1523, 0.1181
  White: 0.3125, 0.3281
Established timings supported:
Standard timings supported:
Detailed mode: Clock 72.300 MHz, 344 mm x 194 mm
               1366 1414 1446 1526 hborder 0
                768  771  777  790 vborder 0
               +hsync -vsync 
               VertFreq: 59 Hz, HorFreq: 47378 Hz
Manufacturer-specified data, tag 0
ASCII string: BOE CQ
ASCII string: NT156WHM-N50
Checksum: 0xaf (valid)
EDID block does NOT conform to EDID 1.3!
	Digital display field contains garbage: 14
	Missing name descriptor
	Missing monitor ranges
