
EDID (hex):
00ffffffffffff004ca3483400000000
00120103802917780a7cd5a85336ae25
13505400000001010101010101010101
0101010101017a3a8020713832403020
260099e6100000190000000f00000000
000000000046d2053200000000fe0053
414d53554e470a2020202020000000fe
004c544e313834485430345430310038

Extracted contents:
header:          00 ff ff ff ff ff ff 00
serial number:   4c a3 48 34 00 00 00 00 00 12
version:         01 03
basic params:    80 29 17 78 0a
chroma info:     7c d5 a8 53 36 ae 25 13 50 54
established:     00 00 00
standard:        01 01 01 01 01 01 01 01 01 01 01 01 01 01 01 01
descriptor 1:    7a 3a 80 20 71 38 32 40 30 20 26 00 99 e6 10 00 00 19
descriptor 2:    00 00 00 0f 00 00 00 00 00 00 00 00 00 46 d2 05 32 00
descriptor 3:    00 00 00 fe 00 53 41 4d 53 55 4e 47 0a 20 20 20 20 20
descriptor 4:    00 00 00 fe 00 4c 54 4e 31 38 34 48 54 30 34 54 30 31
extensions:      00
checksum:        38

EDID version: 1.3
Manufacturer: SEC Model 3448 Serial Number --
Made in year 2008
Digital display
Maximum image size: 41 cm x 23 cm
Gamma: 2.20
RGB color display
First detailed timing is preferred timing
Display x,y Chromaticity:
  Red:   0.6572, 0.3271
  Green: 0.2138, 0.6796
  Blue:  0.1474, 0.0751
  White: 0.3134, 0.3291
Established timings supported:
Standard timings supported:
Detailed mode: Clock 149.700 MHz, 409 mm x 230 mm
               1920 1968 2000 2208 hborder 0
               1080 1082 1088 1130 vborder 0
               -hsync -vsync 
               VertFreq: 59 Hz, HorFreq: 67798 Hz
Manufacturer-specified data, tag 15
ASCII string: SAMSUNG
ASCII string: LTN184HT04T01
Checksum: 0x38 (valid)
EDID block does NOT conform to EDID 1.3!
	Missing name descriptor
	Missing monitor ranges
