
EDID (hex):
00ffffffffffff00424d332701010101
0a160103800000780a56e8a459589724
144e59bfef80457c617c81c081008180
90409500a9406c20009051201f304880
3600000000000018c83200a050d01e20
30205500000000000018000000fd0030
781f6411000a202020202020000000fc
0050524d2d33350a2020202020200118
020318714d0102031112840513141006
151f65030c0010008c0ad08a20e02d10
103e9600138e210000188c0ad0902040
31200c405500c48e21000018011d0072
51d01e206e285500c48e2100001e011d
00bc52d01e20b8285540c48e2100001e
000000ff000000000000000000000000
00000000000000000000000000000016

Extracted contents:
header:          00 ff ff ff ff ff ff 00
serial number:   42 4d 33 27 01 01 01 01 0a 16
version:         01 03
basic params:    80 00 00 78 0a
chroma info:     56 e8 a4 59 58 97 24 14 4e 59
established:     bf ef 80
standard:        45 7c 61 7c 81 c0 81 00 81 80 90 40 95 00 a9 40
descriptor 1:    6c 20 00 90 51 20 1f 30 48 80 36 00 00 00 00 00 00 18
descriptor 2:    c8 32 00 a0 50 d0 1e 20 30 20 55 00 00 00 00 00 00 18
descriptor 3:    00 00 00 fd 00 30 78 1f 64 11 00 0a 20 20 20 20 20 20
descriptor 4:    00 00 00 fc 00 50 52 4d 2d 33 35 0a 20 20 20 20 20 20
extensions:      01
checksum:        18

EDID version: 1.3
Manufacturer: PRM Model 2733 Serial Number --
Made in week 10 of 2012
Digital display
Image size is variable
Gamma: 2.20
RGB color display
First detailed timing is preferred timing
Display x,y Chromaticity:
  Red:   0.6416, 0.3486
  Green: 0.3447, 0.5917
  Blue:  0.1435, 0.0800
  White: 0.3066, 0.3476
Established timings supported:
  720x400@70Hz 9:5 HorFreq: 31469 Hz Clock: 28.320 MHz
  640x480@60Hz 4:3 HorFreq: 31469 Hz Clock: 25.175 MHz
  640x480@67Hz 4:3 HorFreq: 35000 Hz Clock: 30.240 MHz
  640x480@72Hz 4:3 HorFreq: 37900 Hz Clock: 31.500 MHz
  640x480@75Hz 4:3 HorFreq: 37500 Hz Clock: 31.500 MHz
  800x600@56Hz 4:3 HorFreq: 35200 Hz Clock: 36.000 MHz
  800x600@60Hz 4:3 HorFreq: 37900 Hz Clock: 40.000 MHz
  800x600@72Hz 4:3 HorFreq: 48100 Hz Clock: 50.000 MHz
  800x600@75Hz 4:3 HorFreq: 46900 Hz Clock: 49.500 MHz
  832x624@75Hz 4:3 HorFreq: 49726 Hz Clock: 57.284 MHz
  1024x768@60Hz 4:3 HorFreq: 48400 Hz Clock: 65.000 MHz
  1024x768@70Hz 4:3 HorFreq: 56500 Hz Clock: 75.000 MHz
  1024x768@75Hz 4:3 HorFreq: 60000 Hz Clock: 78.750 MHz
  1280x1024@75Hz 5:4 HorFreq: 80000 Hz Clock: 135.000 MHz
  1152x870@75Hz 192:145 HorFreq: 67500 Hz Clock: 108.000 MHz
Standard timings supported:
  800x600@120Hz 4:3
  1024x768@120Hz 4:3
  1280x720@60Hz 16:9
  1280x800@60Hz 16:10
  1280x1024@60Hz 5:4 HorFreq: 64000 Hz Clock: 108.000 MHz
  1400x1050@60Hz 4:3 HorFreq: 64700 Hz Clock: 101.000 MHz
  1440x900@60Hz 16:10 HorFreq: 55500 Hz Clock: 88.750 MHz
  1600x1200@60Hz 4:3 HorFreq: 75000 Hz Clock: 162.000 MHz
Detailed mode: Clock 83.000 MHz, 0 mm x 0 mm
               1280 1352 1480 1680 hborder 0
                800  803  809  831 vborder 0
               -hsync -vsync 
               VertFreq: 59 Hz, HorFreq: 49404 Hz
Detailed mode: Clock 130.000 MHz, 0 mm x 0 mm
               1280 1328 1360 1440 hborder 0
                720  725  730  750 vborder 0
               -hsync -vsync 
               VertFreq: 120 Hz, HorFreq: 90277 Hz
Monitor ranges (GTF): 48-120Hz V, 31-100kHz H, max dotclock 170MHz
Monitor name: PRM-35
Has 1 extension blocks
Checksum: 0x18 (valid)

CTA extension block
Extension version: 3
20 bytes of CTA data
  Video data block
    VIC   1 640x480@60Hz 4:3  HorFreq: 31469 Hz Clock: 25.175 MHz
    VIC   2 720x480@60Hz 4:3  HorFreq: 31469 Hz Clock: 27.000 MHz
    VIC   3 720x480@60Hz 16:9  HorFreq: 31469 Hz Clock: 27.000 MHz
    VIC  17 720x576@50Hz 4:3  HorFreq: 31250 Hz Clock: 27.000 MHz
    VIC  18 720x576@50Hz 16:9  HorFreq: 31250 Hz Clock: 27.000 MHz
    VIC   4 1280x720@60Hz 16:9 (native) HorFreq: 45000 Hz Clock: 74.250 MHz
    VIC   5 1920x1080i@60Hz 16:9  HorFreq: 33750 Hz Clock: 74.250 MHz
    VIC  19 1280x720@50Hz 16:9  HorFreq: 37500 Hz Clock: 74.250 MHz
    VIC  20 1920x1080i@50Hz 16:9  HorFreq: 28125 Hz Clock: 74.250 MHz
    VIC  16 1920x1080@60Hz 16:9  HorFreq: 67500 Hz Clock: 148.500 MHz
    VIC   6 1440x480i@60Hz 4:3  HorFreq: 15734 Hz Clock: 27.000 MHz
    VIC  21 1440x576i@50Hz 4:3  HorFreq: 15625 Hz Clock: 27.000 MHz
    VIC  31 1920x1080@50Hz 16:9  HorFreq: 56250 Hz Clock: 148.500 MHz
  Vendor-specific data block, OUI 000c03 (HDMI)
    Source physical address 1.0.0.0
Basic audio support
Supports YCbCr 4:4:4
Supports YCbCr 4:2:2
1 native detailed modes
Detailed mode: Clock 27.000 MHz, 531 mm x 398 mm
                720  736  798  858 hborder 0
                480  489  495  525 vborder 0
               -hsync -vsync 
               VertFreq: 59 Hz, HorFreq: 31468 Hz
Detailed mode: Clock 27.000 MHz, 708 mm x 398 mm
                720  732  796  864 hborder 0
                576  581  586  625 vborder 0
               -hsync -vsync 
               VertFreq: 50 Hz, HorFreq: 31250 Hz
Detailed mode: Clock 74.250 MHz, 708 mm x 398 mm
               1280 1390 1430 1650 hborder 0
                720  725  730  750 vborder 0
               +hsync +vsync 
               VertFreq: 60 Hz, HorFreq: 45000 Hz
Detailed mode: Clock 74.250 MHz, 708 mm x 398 mm
               1280 1720 1760 1980 hborder 0
                720  725  730  750 vborder 0
               +hsync +vsync 
               VertFreq: 50 Hz, HorFreq: 37500 Hz
Checksum: 0x16 (valid)

One or more of the timings is out of range of the Monitor Ranges:
  Vertical Freq: 50 - 120 Hz
  Horizontal Freq: 15625 - 90277 Hz
  Maximum Clock: 162.000 MHz
