
EDID (hex):
00ffffffffffff001ef9c40601010101
290c01030e221b782aeea69e544c9926
194f54a54b0081800101010101010101
010101010101bc34009851002a401090
1300520e1100001e000000fc00476174
65776179204650443137000000fc0033
300a20202020202020202020000000fd
00384b1e530e000a2020202020200088

Extracted contents:
header:          00 ff ff ff ff ff ff 00
serial number:   1e f9 c4 06 01 01 01 01 29 0c
version:         01 03
basic params:    0e 22 1b 78 2a
chroma info:     ee a6 9e 54 4c 99 26 19 4f 54
established:     a5 4b 00
standard:        81 80 01 01 01 01 01 01 01 01 01 01 01 01 01 01
descriptor 1:    bc 34 00 98 51 00 2a 40 10 90 13 00 52 0e 11 00 00 1e
descriptor 2:    00 00 00 fc 00 47 61 74 65 77 61 79 20 46 50 44 31 37
descriptor 3:    00 00 00 fc 00 33 30 0a 20 20 20 20 20 20 20 20 20 20
descriptor 4:    00 00 00 fd 00 38 4b 1e 53 0e 00 0a 20 20 20 20 20 20
extensions:      00
checksum:        88

EDID version: 1.3
Manufacturer: GWY Model 6c4 Serial Number --
Analog display, Input voltage level: 0.7/0.3 V
Sync: Separate Composite SyncOnGreen 
Maximum image size: 34 cm x 27 cm
Gamma: 2.20
DPMS levels: Off
RGB color display
First detailed timing is preferred timing
Display x,y Chromaticity:
  Red:   0.6201, 0.3300
  Green: 0.2998, 0.5996
  Blue:  0.1503, 0.0996
  White: 0.3095, 0.3300
Established timings supported:
  720x400@70Hz 9:5 HorFreq: 31469 Hz Clock: 28.320 MHz
  640x480@60Hz 4:3 HorFreq: 31469 Hz Clock: 25.175 MHz
  640x480@75Hz 4:3 HorFreq: 37500 Hz Clock: 31.500 MHz
  800x600@60Hz 4:3 HorFreq: 37900 Hz Clock: 40.000 MHz
  800x600@75Hz 4:3 HorFreq: 46900 Hz Clock: 49.500 MHz
  1024x768@60Hz 4:3 HorFreq: 48400 Hz Clock: 65.000 MHz
  1024x768@75Hz 4:3 HorFreq: 60000 Hz Clock: 78.750 MHz
  1280x1024@75Hz 5:4 HorFreq: 80000 Hz Clock: 135.000 MHz
Standard timings supported:
  1280x1024@60Hz 5:4 HorFreq: 64000 Hz Clock: 108.000 MHz
Detailed mode: Clock 135.000 MHz, 338 mm x 270 mm
               1280 1296 1440 1688 hborder 0
               1024 1025 1028 1066 vborder 0
               +hsync +vsync 
               VertFreq: 75 Hz, HorFreq: 79976 Hz
Monitor name: Gateway FPD1730
Monitor ranges (GTF): 56-75Hz V, 30-83kHz H, max dotclock 140MHz
Checksum: 0x88 (valid)
EDID block does not conform at all!
	Bad year of manufacture
