
EDID (hex):
00ffffffffffff0006af2d5500000000
001b0104951d117802a4159e554e9b26
0f505400000001010101010101010101
010101010101b43780a070383e403a2a
350025a510000018b43780a070387a42
3a2a350025a510000018000000000000
00000000000000000000000000000002
001036ff0f3c964e0c1f9620202000a7

Extracted contents:
header:          00 ff ff ff ff ff ff 00
serial number:   06 af 2d 55 00 00 00 00 00 1b
version:         01 04
basic params:    95 1d 11 78 02
chroma info:     a4 15 9e 55 4e 9b 26 0f 50 54
established:     00 00 00
standard:        01 01 01 01 01 01 01 01 01 01 01 01 01 01 01 01
descriptor 1:    b4 37 80 a0 70 38 3e 40 3a 2a 35 00 25 a5 10 00 00 18
descriptor 2:    b4 37 80 a0 70 38 7a 42 3a 2a 35 00 25 a5 10 00 00 18
descriptor 3:    00 00 00 00 00 00 00 00 00 00 00 00 00 00 00 00 00 00
descriptor 4:    00 00 00 02 00 10 36 ff 0f 3c 96 4e 0c 1f 96 20 20 20
extensions:      00
checksum:        a7

EDID version: 1.4
Manufacturer: AUO Model 552d Serial Number --
Made in year 2017
Digital display
6 bits per primary color channel
DisplayPort interface
Maximum image size: 29 cm x 17 cm
Gamma: 2.20
Supported color formats: RGB 4:4:4
First detailed timing includes the native pixel format and preferred refresh rate
Display x,y Chromaticity:
  Red:   0.6191, 0.3339
  Green: 0.3056, 0.6054
  Blue:  0.1484, 0.0595
  White: 0.3134, 0.3291
Established timings supported:
Standard timings supported:
Detailed mode: Clock 142.600 MHz, 293 mm x 165 mm
               1920 1978 2020 2080 hborder 0
               1080 1083 1088 1142 vborder 0
               -hsync -vsync 
               VertFreq: 60 Hz, HorFreq: 68557 Hz
Detailed mode: Clock 142.600 MHz, 293 mm x 165 mm
               1920 1978 2020 2080 hborder 0
               1080 1083 1088 1714 vborder 0
               -hsync -vsync 
               VertFreq: 39 Hz, HorFreq: 68557 Hz
Manufacturer-specified data, tag 0
Manufacturer-specified data, tag 2
Checksum: 0xa7 (valid)
EDID block does NOT conform to EDID 1.4!
	Missing name descriptor
	Missing monitor ranges
