
EDID (hex):
00ffffffffffff003669b33c00000000
241e0103803c21782acc17a3544c9926
0f4748afcf808180617c81bc9500953c
b300b33c0101023a801871382d40582c
450056502100001e000000fd0030a51e
c828000a202020202020000000fc004d
5349204d4147323730564332000000ff
004342334830323039303031343701c6
020333f14f900102030405111213141f
552f3f31230907078301000065030c00
100067d85dc40178c000681a00000101
30a5ed866f80a07038404030203500ba
892100001ef27f807870382340302035
00ba892100001e499680a07038294030
2c3500ba892100001e00000000000000
00000000000000000000000000000089

Extracted contents:
header:          00 ff ff ff ff ff ff 00
serial number:   36 69 b3 3c 00 00 00 00 24 1e
version:         01 03
basic params:    80 3c 21 78 2a
chroma info:     cc 17 a3 54 4c 99 26 0f 47 48
established:     af cf 80
standard:        81 80 61 7c 81 bc 95 00 95 3c b3 00 b3 3c 01 01
descriptor 1:    02 3a 80 18 71 38 2d 40 58 2c 45 00 56 50 21 00 00 1e
descriptor 2:    00 00 00 fd 00 30 a5 1e c8 28 00 0a 20 20 20 20 20 20
descriptor 3:    00 00 00 fc 00 4d 53 49 20 4d 41 47 32 37 30 56 43 32
descriptor 4:    00 00 00 ff 00 43 42 33 48 30 32 30 39 30 30 31 34 37
extensions:      01
checksum:        c6

EDID version: 1.3
Manufacturer: MSI Model 3cb3 Serial Number --
Made in week 36 of 2020
Digital display
Maximum image size: 60 cm x 33 cm
Gamma: 2.20
DPMS levels: Off
RGB color display
First detailed timing is preferred timing
Display x,y Chromaticity:
  Red:   0.6396, 0.3281
  Green: 0.2998, 0.5976
  Blue:  0.1484, 0.0595
  White: 0.2783, 0.2841
Established timings supported:
  720x400@70Hz 9:5 HorFreq: 31469 Hz Clock: 28.320 MHz
  640x480@60Hz 4:3 HorFreq: 31469 Hz Clock: 25.175 MHz
  640x480@72Hz 4:3 HorFreq: 37900 Hz Clock: 31.500 MHz
  640x480@75Hz 4:3 HorFreq: 37500 Hz Clock: 31.500 MHz
  800x600@56Hz 4:3 HorFreq: 35200 Hz Clock: 36.000 MHz
  800x600@60Hz 4:3 HorFreq: 37900 Hz Clock: 40.000 MHz
  800x600@72Hz 4:3 HorFreq: 48100 Hz Clock: 50.000 MHz
  800x600@75Hz 4:3 HorFreq: 46900 Hz Clock: 49.500 MHz
  1024x768@60Hz 4:3 HorFreq: 48400 Hz Clock: 65.000 MHz
  1024x768@70Hz 4:3 HorFreq: 56500 Hz Clock: 75.000 MHz
  1024x768@75Hz 4:3 HorFreq: 60000 Hz Clock: 78.750 MHz
  1280x1024@75Hz 5:4 HorFreq: 80000 Hz Clock: 135.000 MHz
  1152x870@75Hz 192:145 HorFreq: 67500 Hz Clock: 108.000 MHz
Standard timings supported:
  1280x1024@60Hz 5:4 HorFreq: 64000 Hz Clock: 108.000 MHz
  1024x768@120Hz 4:3
  1280x1024@120Hz 5:4
  1440x900@60Hz 16:10 HorFreq: 55500 Hz Clock: 88.750 MHz
  1440x900@120Hz 16:10
  1680x1050@60Hz 16:10 HorFreq: 64700 Hz Clock: 119.000 MHz
  1680x1050@120Hz 16:10
Detailed mode: Clock 148.500 MHz, 598 mm x 336 mm
               1920 2008 2052 2200 hborder 0
               1080 1084 1089 1125 vborder 0
               +hsync +vsync 
               VertFreq: 60 Hz, HorFreq: 67500 Hz
Monitor ranges (GTF): 48-165Hz V, 30-200kHz H, max dotclock 400MHz
Serial number: --
Has 1 extension blocks
Checksum: 0xc6 (valid)

CTA extension block
Extension version: 3
47 bytes of CTA data
  Video data block
    VIC  16 1920x1080@60Hz 16:9 (native) HorFreq: 67500 Hz Clock: 148.500 MHz
    VIC   1 640x480@60Hz 4:3  HorFreq: 31469 Hz Clock: 25.175 MHz
    VIC   2 720x480@60Hz 4:3  HorFreq: 31469 Hz Clock: 27.000 MHz
    VIC   3 720x480@60Hz 16:9  HorFreq: 31469 Hz Clock: 27.000 MHz
    VIC   4 1280x720@60Hz 16:9  HorFreq: 45000 Hz Clock: 74.250 MHz
    VIC   5 1920x1080i@60Hz 16:9  HorFreq: 33750 Hz Clock: 74.250 MHz
    VIC  17 720x576@50Hz 4:3  HorFreq: 31250 Hz Clock: 27.000 MHz
    VIC  18 720x576@50Hz 16:9  HorFreq: 31250 Hz Clock: 27.000 MHz
    VIC  19 1280x720@50Hz 16:9  HorFreq: 37500 Hz Clock: 74.250 MHz
    VIC  20 1920x1080i@50Hz 16:9  HorFreq: 28125 Hz Clock: 74.250 MHz
    VIC  31 1920x1080@50Hz 16:9  HorFreq: 56250 Hz Clock: 148.500 MHz
    VIC  85 1680x720@120Hz 64:27  HorFreq: 99000 Hz Clock: 198.000 MHz
    VIC  47 1280x720@120Hz 16:9  HorFreq: 90000 Hz Clock: 148.500 MHz
    VIC  63 1920x1080@120Hz 16:9  HorFreq: 135000 Hz Clock: 297.000 MHz
    VIC  49 720x480@120Hz 16:9  HorFreq: 62937 Hz Clock: 54.000 MHz
  Audio data block
    Linear PCM, max channels 2
      Supported sample rates (kHz): 48 44.1 32
      Supported sample sizes (bits): 24 20 16
  Speaker allocation data block
    Speaker map:
      FL/FR - Front Left/Right
  Vendor-specific data block, OUI 000c03 (HDMI)
    Source physical address 1.0.0.0
  Vendor-specific data block, OUI c45dd8 (HDMI Forum)
    Version: 1
    Maximum TMDS Character Rate: 600MHz
    SCDC Present
    SCDC Read Request Capable
  Vendor-specific data block, OUI 00001a
Underscans PC formats by default
Basic audio support
Supports YCbCr 4:4:4
Supports YCbCr 4:2:2
1 native detailed modes
Detailed mode: Clock 285.500 MHz, 698 mm x 393 mm
               1920 1968 2000 2080 hborder 0
               1080 1083 1088 1144 vborder 0
               +hsync +vsync 
               VertFreq: 119 Hz, HorFreq: 137259 Hz
Detailed mode: Clock 327.540 MHz, 698 mm x 393 mm
               1920 1968 2000 2040 hborder 0
               1080 1083 1088 1115 vborder 0
               +hsync +vsync 
               VertFreq: 143 Hz, HorFreq: 160558 Hz
Detailed mode: Clock 384.730 MHz, 698 mm x 393 mm
               1920 1968 2012 2080 hborder 0
               1080 1083 1088 1121 vborder 0
               +hsync +vsync 
               VertFreq: 165 Hz, HorFreq: 184966 Hz
Checksum: 0x89 (valid)

EDID block does NOT conform to EDID 1.3!
	Name descriptor not terminated with a newline
One or more of the timings is out of range of the Monitor Ranges:
  Vertical Freq: 50 - 165 Hz
  Horizontal Freq: 28125 - 184966 Hz
  Maximum Clock: 384.730 MHz


