
EDID (hex):
00ffffffffffff004d10851400000000
1a1b0104951d11780ede50a3544c9926
0f505400000001010101010101010101
0101010101011a3680a070381f403020
350026a5100000180000001000000000
00000000000000000000000000fe0032
58445846804c513133334d3100000000
000041031e011200000a010a20200035

Extracted contents:
header:          00 ff ff ff ff ff ff 00
serial number:   4d 10 85 14 00 00 00 00 1a 1b
version:         01 04
basic params:    95 1d 11 78 0e
chroma info:     de 50 a3 54 4c 99 26 0f 50 54
established:     00 00 00
standard:        01 01 01 01 01 01 01 01 01 01 01 01 01 01 01 01
descriptor 1:    1a 36 80 a0 70 38 1f 40 30 20 35 00 26 a5 10 00 00 18
descriptor 2:    00 00 00 10 00 00 00 00 00 00 00 00 00 00 00 00 00 00
descriptor 3:    00 00 00 fe 00 32 58 44 58 46 80 4c 51 31 33 33 4d 31
descriptor 4:    00 00 00 00 00 00 41 03 1e 01 12 00 00 0a 01 0a 20 20
extensions:      00
checksum:        35

EDID version: 1.4
Manufacturer: SHP Model 1485 Serial Number --
Made in week 26 of 2017
Digital display
6 bits per primary color channel
DisplayPort interface
Maximum image size: 29 cm x 17 cm
Gamma: 2.20
Supported color formats: RGB 4:4:4, YCrCb 4:4:4
Default (sRGB) color space is primary color space
First detailed timing includes the native pixel format and preferred refresh rate
Display x,y Chromaticity:
  Red:   0.6396, 0.3291
  Green: 0.2998, 0.5996
  Blue:  0.1494, 0.0595
  White: 0.3125, 0.3281
Established timings supported:
Standard timings supported:
Detailed mode: Clock 138.500 MHz, 294 mm x 165 mm
               1920 1968 2000 2080 hborder 0
               1080 1083 1088 1111 vborder 0
               -hsync -vsync 
               VertFreq: 59 Hz, HorFreq: 66586 Hz
Dummy block
ASCII string: 2XDXF
Manufacturer-specified data, tag 0
Checksum: 0x35 (valid)
EDID block does NOT conform to EDID 1.4!
	sRGB is signaled, but the chromaticities do not match
	Missing name descriptor
	Missing monitor ranges
	Detailed block string not properly terminated
