
EDID (hex):
00ffffffffffff00320c00df00000000
00120103802115780ae9d59959538e28
26505400000001010101010101010101
010101010101de21a07050841f302020
56004bcf10000018de21a07050841f30
202056004bcf10000000000000fe0057
36353747003135345750310a000000fe
0023333d486584aaff02010a2020009a

Extracted contents:
header:          00 ff ff ff ff ff ff 00
serial number:   32 0c 00 df 00 00 00 00 00 12
version:         01 03
basic params:    80 21 15 78 0a
chroma info:     e9 d5 99 59 53 8e 28 26 50 54
established:     00 00 00
standard:        01 01 01 01 01 01 01 01 01 01 01 01 01 01 01 01
descriptor 1:    de 21 a0 70 50 84 1f 30 20 20 56 00 4b cf 10 00 00 18
descriptor 2:    de 21 a0 70 50 84 1f 30 20 20 56 00 4b cf 10 00 00 00
descriptor 3:    00 00 00 fe 00 57 36 35 37 47 00 31 35 34 57 50 31 0a
descriptor 4:    00 00 00 fe 00 23 33 3d 48 65 84 aa ff 02 01 0a 20 20
extensions:      00
checksum:        9a

EDID version: 1.3
Manufacturer: LPL Model df00 Serial Number --
Made in year 2008
Digital display
Maximum image size: 33 cm x 21 cm
Gamma: 2.20
RGB color display
First detailed timing is preferred timing
Display x,y Chromaticity:
  Red:   0.6005, 0.3496
  Green: 0.3261, 0.5556
  Blue:  0.1591, 0.1494
  White: 0.3134, 0.3291
Established timings supported:
Standard timings supported:
Detailed mode: Clock 86.700 MHz, 331 mm x 207 mm
               1440 1472 1504 1552 hborder 0
                900  905  911  931 vborder 0
               -hsync -vsync 
               VertFreq: 60 Hz, HorFreq: 55863 Hz
Detailed mode: Clock 86.700 MHz, 331 mm x 207 mm
               1440 1472 1504 1552 hborder 0
                900  905  911  931 vborder 0
               -hsync -vsync analog composite 
               VertFreq: 60 Hz, HorFreq: 55863 Hz
ASCII string: W657G
ASCII string: #3=He
Checksum: 0x9a (valid)
EDID block does NOT conform to EDID 1.3!
	Missing name descriptor
	Missing monitor ranges
	Detailed block string not properly terminated
