
EDID (hex):
00ffffffffffff004293d30701010101
0711010380291f960a4595a3594a9724
13505421000001010101010101010101
010101010101742778a0501a1e40301e
340098321100001ec31e002041002030
10601300983211000000000000fd0038
4b1e510e000a202020202020000000ff
00464341433732303038363833300180
020319c1418423090707830100006703
0c000000001ee2000f00000000000000
00000000000000000000000000000000
00000000000000000000000000000000
00000000000000000000000000000000
00000000000000000000000000000000
00000000000000000000000000000000
00000000000000000000000000000019

Extracted contents:
header:          00 ff ff ff ff ff ff 00
serial number:   42 93 d3 07 01 01 01 01 07 11
version:         01 03
basic params:    80 29 1f 96 0a
chroma info:     45 95 a3 59 4a 97 24 13 50 54
established:     21 00 00
standard:        01 01 01 01 01 01 01 01 01 01 01 01 01 01 01 01
descriptor 1:    74 27 78 a0 50 1a 1e 40 30 1e 34 00 98 32 11 00 00 1e
descriptor 2:    c3 1e 00 20 41 00 20 30 10 60 13 00 98 32 11 00 00 00
descriptor 3:    00 00 00 fd 00 38 4b 1e 51 0e 00 0a 20 20 20 20 20 20
descriptor 4:    00 00 00 ff 00 46 43 41 43 37 32 30 30 38 36 38 33 30
extensions:      01
checksum:        80

EDID version: 1.3
Manufacturer: PTS Model 7d3 Serial Number --
Made in week 7 of 2007
Digital display
Maximum image size: 41 cm x 31 cm
Gamma: 2.50
RGB color display
First detailed timing is preferred timing
Display x,y Chromaticity:
  Red:   0.6376, 0.3476
  Green: 0.2900, 0.5908
  Blue:  0.1425, 0.0751
  White: 0.3134, 0.3291
Established timings supported:
  640x480@60Hz 4:3 HorFreq: 31469 Hz Clock: 25.175 MHz
  800x600@60Hz 4:3 HorFreq: 37900 Hz Clock: 40.000 MHz
Standard timings supported:
Detailed mode: Clock 101.000 MHz, 408 mm x 306 mm
               1400 1448 1478 1560 hborder 0
               1050 1053 1057 1080 vborder 0
               +hsync +vsync 
               VertFreq: 59 Hz, HorFreq: 64743 Hz
Detailed mode: Clock 78.750 MHz, 408 mm x 306 mm
               1024 1040 1136 1312 hborder 0
                768  769  772  800 vborder 0
               -hsync -vsync analog composite 
               VertFreq: 75 Hz, HorFreq: 60022 Hz
Monitor ranges (GTF): 56-75Hz V, 30-81kHz H, max dotclock 140MHz
Serial number: --
Has 1 extension blocks
Checksum: 0x80 (valid)

CTA extension block
Extension version: 3
21 bytes of CTA data
  Video data block
    VIC   4 1280x720@60Hz 16:9 (native) HorFreq: 45000 Hz Clock: 74.250 MHz
  Audio data block
    Linear PCM, max channels 2
      Supported sample rates (kHz): 48 44.1 32
      Supported sample sizes (bits): 24 20 16
  Speaker allocation data block
    Speaker map:
      FL/FR - Front Left/Right
  Vendor-specific data block, OUI 000c03 (HDMI)
    Source physical address 0.0.0.0
    Maximum TMDS clock: 150MHz
  Extended tag: Video capability data block
    YCbCr quantization: No Data (0)
    RGB quantization: No Data (0)
    PT scan behaviour: No Data (0)
    IT scan behaviour: Support both over- and underscan (3)
    CE scan behaviour: Support both over- and underscan (3)
Underscans PC formats by default
Basic audio support
1 native detailed modes
Checksum: 0x19 (valid)

EDID block does NOT conform to EDID 1.3!
	Missing name descriptor
EDID block does not conform at all!
	Both the serial number and the serial string are set


