
EDID (hex):
00ffffffffffff0009e50b0800000000
1e1c0104952213780324109759548e27
1e505400000001010101010101010101
010101010101a63780c8703828403020
360058c21000001a192580c870382840
3020360058c21000001a000000000000
00000000000000000000000000000002
000d49ff0a3c6e1915256e0000000057

Extracted contents:
header:          00 ff ff ff ff ff ff 00
serial number:   09 e5 0b 08 00 00 00 00 1e 1c
version:         01 04
basic params:    95 22 13 78 03
chroma info:     24 10 97 59 54 8e 27 1e 50 54
established:     00 00 00
standard:        01 01 01 01 01 01 01 01 01 01 01 01 01 01 01 01
descriptor 1:    a6 37 80 c8 70 38 28 40 30 20 36 00 58 c2 10 00 00 1a
descriptor 2:    19 25 80 c8 70 38 28 40 30 20 36 00 58 c2 10 00 00 1a
descriptor 3:    00 00 00 00 00 00 00 00 00 00 00 00 00 00 00 00 00 00
descriptor 4:    00 00 00 02 00 0d 49 ff 0a 3c 6e 19 15 25 6e 00 00 00
extensions:      00
checksum:        57

EDID version: 1.4
Manufacturer: BOE Model 80b Serial Number --
Made in week 30 of 2018
Digital display
6 bits per primary color channel
DisplayPort interface
Maximum image size: 34 cm x 19 cm
Gamma: 2.20
Supported color formats: RGB 4:4:4
First detailed timing includes the native pixel format and preferred refresh rate
Display is continuous frequency
Display x,y Chromaticity:
  Red:   0.5898, 0.3496
  Green: 0.3291, 0.5546
  Blue:  0.1523, 0.1181
  White: 0.3125, 0.3281
Established timings supported:
Standard timings supported:
Detailed mode: Clock 142.460 MHz, 344 mm x 194 mm
               1920 1968 2000 2120 hborder 0
               1080 1083 1089 1120 vborder 0
               +hsync -vsync 
               VertFreq: 59 Hz, HorFreq: 67198 Hz
Detailed mode: Clock 94.970 MHz, 344 mm x 194 mm
               1920 1968 2000 2120 hborder 0
               1080 1083 1089 1120 vborder 0
               +hsync -vsync 
               VertFreq: 39 Hz, HorFreq: 44797 Hz
Manufacturer-specified data, tag 0
Manufacturer-specified data, tag 2
Checksum: 0x57 (valid)
EDID block does NOT conform to EDID 1.4!
	Missing name descriptor
	Missing monitor ranges
