
EDID (hex):
00ffffffffffff0009e59a0900000000
261e0104a526157803e235a159569828
18505400000001010101010101010101
010101010101312940fa608432303020
36007ed71000001a0000000000000000
00000000000000000000000000fe0042
4f452043510a202020202020000000fe
004e5431373357444d2d4e32360a009d

Extracted contents:
header:          00 ff ff ff ff ff ff 00
serial number:   09 e5 9a 09 00 00 00 00 26 1e
version:         01 04
basic params:    a5 26 15 78 03
chroma info:     e2 35 a1 59 56 98 28 18 50 54
established:     00 00 00
standard:        01 01 01 01 01 01 01 01 01 01 01 01 01 01 01 01
descriptor 1:    31 29 40 fa 60 84 32 30 30 20 36 00 7e d7 10 00 00 1a
descriptor 2:    00 00 00 00 00 00 00 00 00 00 00 00 00 00 00 00 00 00
descriptor 3:    00 00 00 fe 00 42 4f 45 20 43 51 0a 20 20 20 20 20 20
descriptor 4:    00 00 00 fe 00 4e 54 31 37 33 57 44 4d 2d 4e 32 36 0a
extensions:      00
checksum:        9d

EDID version: 1.4
Manufacturer: BOE Model 99a Serial Number --
Made in week 38 of 2020
Digital display
8 bits per primary color channel
DisplayPort interface
Maximum image size: 38 cm x 21 cm
Gamma: 2.20
Supported color formats: RGB 4:4:4
First detailed timing includes the native pixel format and preferred refresh rate
Display is continuous frequency
Display x,y Chromaticity:
  Red:   0.6318, 0.3496
  Green: 0.3359, 0.5957
  Blue:  0.1562, 0.0966
  White: 0.3134, 0.3291
Established timings supported:
Standard timings supported:
Detailed mode: Clock 105.450 MHz, 382 mm x 215 mm
               1600 1648 1680 1850 hborder 0
                900  903  909  950 vborder 0
               +hsync -vsync 
               VertFreq: 60 Hz, HorFreq: 57000 Hz
Manufacturer-specified data, tag 0
ASCII string: BOE CQ
ASCII string: NT173WDM-N26
Checksum: 0x9d (valid)
EDID block does NOT conform to EDID 1.4!
	Missing name descriptor
	Missing monitor ranges
