
EDID (hex):
00ffffffffffff0006afc9009865f00b
01100103802b1b78ea0195a3574c9c25
125054a54f008180714fa90095008140
01010101010121399030621a274068b0
3600b20e1100001c000000ff00303530
383534340a2020202020000000fd0038
4b1e5310000a202020202020000000fc
0041554f204d323031535030310a0041

Extracted contents:
header:          00 ff ff ff ff ff ff 00
serial number:   06 af c9 00 98 65 f0 0b 01 10
version:         01 03
basic params:    80 2b 1b 78 ea
chroma info:     01 95 a3 57 4c 9c 25 12 50 54
established:     a5 4f 00
standard:        81 80 71 4f a9 00 95 00 81 40 01 01 01 01 01 01
descriptor 1:    21 39 90 30 62 1a 27 40 68 b0 36 00 b2 0e 11 00 00 1c
descriptor 2:    00 00 00 ff 00 30 35 30 38 35 34 34 0a 20 20 20 20 20
descriptor 3:    00 00 00 fd 00 38 4b 1e 53 10 00 0a 20 20 20 20 20 20
descriptor 4:    00 00 00 fc 00 41 55 4f 20 4d 32 30 31 53 50 30 31 0a
extensions:      00
checksum:        41

EDID version: 1.3
Manufacturer: AUO Model c9 Serial Number --
Made in week 1 of 2006
Digital display
Maximum image size: 43 cm x 27 cm
Gamma: 2.20
DPMS levels: Standby Suspend Off
RGB color display
First detailed timing is preferred timing
Display x,y Chromaticity:
  Red:   0.6367, 0.3398
  Green: 0.2968, 0.6103
  Blue:  0.1464, 0.0712
  White: 0.3134, 0.3291
Established timings supported:
  720x400@70Hz 9:5 HorFreq: 31469 Hz Clock: 28.320 MHz
  640x480@60Hz 4:3 HorFreq: 31469 Hz Clock: 25.175 MHz
  640x480@75Hz 4:3 HorFreq: 37500 Hz Clock: 31.500 MHz
  800x600@60Hz 4:3 HorFreq: 37900 Hz Clock: 40.000 MHz
  800x600@75Hz 4:3 HorFreq: 46900 Hz Clock: 49.500 MHz
  1024x768@60Hz 4:3 HorFreq: 48400 Hz Clock: 65.000 MHz
  1024x768@70Hz 4:3 HorFreq: 56500 Hz Clock: 75.000 MHz
  1024x768@75Hz 4:3 HorFreq: 60000 Hz Clock: 78.750 MHz
  1280x1024@75Hz 5:4 HorFreq: 80000 Hz Clock: 135.000 MHz
Standard timings supported:
  1280x1024@60Hz 5:4 HorFreq: 64000 Hz Clock: 108.000 MHz
  1152x864@75Hz 4:3 HorFreq: 67500 Hz Clock: 108.000 MHz
  1600x1000@60Hz 16:10
  1440x900@60Hz 16:10 HorFreq: 55500 Hz Clock: 88.750 MHz
  1280x960@60Hz 4:3 HorFreq: 60000 Hz Clock: 108.000 MHz
Detailed mode: Clock 146.250 MHz, 434 mm x 270 mm
               1680 1784 1960 2240 hborder 0
               1050 1053 1059 1089 vborder 0
               -hsync +vsync 
               VertFreq: 59 Hz, HorFreq: 65290 Hz
Serial number: --
Monitor ranges (GTF): 56-75Hz V, 30-83kHz H, max dotclock 160MHz
Monitor name: AUO M201SP01
Checksum: 0x41 (valid)
