
EDID (hex):
00ffffffffffff005a63306501010101
2818010308291a782ed275a358539c25
0f5054a5ce0081800101010101010101
0101010101019a29a0d0518422305098
360098ff1000001c000000ff0055365a
3134343030303939340a000000fd0032
4b1e500c000a202020202020000000fc
004331393037610a20202020202000ff

Extracted contents:
header:          00 ff ff ff ff ff ff 00
serial number:   5a 63 30 65 01 01 01 01 28 18
version:         01 03
basic params:    08 29 1a 78 2e
chroma info:     d2 75 a3 58 53 9c 25 0f 50 54
established:     a5 ce 00
standard:        81 80 01 01 01 01 01 01 01 01 01 01 01 01 01 01
descriptor 1:    9a 29 a0 d0 51 84 22 30 50 98 36 00 98 ff 10 00 00 1c
descriptor 2:    00 00 00 ff 00 55 36 5a 31 34 34 30 30 30 39 39 34 0a
descriptor 3:    00 00 00 fd 00 32 4b 1e 50 0c 00 0a 20 20 20 20 20 20
descriptor 4:    00 00 00 fc 00 43 31 39 30 37 61 0a 20 20 20 20 20 20
extensions:      00
checksum:        ff

EDID version: 1.3
Manufacturer: VSC Model 6530 Serial Number --
Made in week 40 of 2014
Analog display, Input voltage level: 0.7/0.3 V
Sync: Separate 
Maximum image size: 41 cm x 26 cm
Gamma: 2.20
DPMS levels: Off
RGB color display
Default (sRGB) color space is primary color space
First detailed timing is preferred timing
Display x,y Chromaticity:
  Red:   0.6396, 0.3447
  Green: 0.3242, 0.6113
  Blue:  0.1455, 0.0615
  White: 0.3134, 0.3291
Established timings supported:
  720x400@70Hz 9:5 HorFreq: 31469 Hz Clock: 28.320 MHz
  640x480@60Hz 4:3 HorFreq: 31469 Hz Clock: 25.175 MHz
  640x480@75Hz 4:3 HorFreq: 37500 Hz Clock: 31.500 MHz
  800x600@60Hz 4:3 HorFreq: 37900 Hz Clock: 40.000 MHz
  800x600@72Hz 4:3 HorFreq: 48100 Hz Clock: 50.000 MHz
  800x600@75Hz 4:3 HorFreq: 46900 Hz Clock: 49.500 MHz
  1024x768@60Hz 4:3 HorFreq: 48400 Hz Clock: 65.000 MHz
  1024x768@70Hz 4:3 HorFreq: 56500 Hz Clock: 75.000 MHz
  1024x768@75Hz 4:3 HorFreq: 60000 Hz Clock: 78.750 MHz
Standard timings supported:
  1280x1024@60Hz 5:4 HorFreq: 64000 Hz Clock: 108.000 MHz
Detailed mode: Clock 106.500 MHz, 408 mm x 255 mm
               1440 1520 1672 1904 hborder 0
                900  903  909  934 vborder 0
               -hsync +vsync 
               VertFreq: 59 Hz, HorFreq: 55934 Hz
Serial number: --
Monitor ranges (GTF): 50-75Hz V, 30-80kHz H, max dotclock 120MHz
Monitor name: C1907a
Checksum: 0xff (valid)
EDID block does NOT conform to EDID 1.3!
	sRGB is signaled, but the chromaticities do not match
