
EDID (hex):
00ffffffffffff0030e4010700000000
001f0104a52216780272d5985e5d8d27
1a505400000001010101010101010101
010101010101353c80a070b023403020
360059d71000001a2a3080a070b02340
3020360059d71000001a000000fe0046
4e504e35803136305755310a00000000
0001413199001000000a010a202000ae

Extracted contents:
header:          00 ff ff ff ff ff ff 00
serial number:   30 e4 01 07 00 00 00 00 00 1f
version:         01 04
basic params:    a5 22 16 78 02
chroma info:     72 d5 98 5e 5d 8d 27 1a 50 54
established:     00 00 00
standard:        01 01 01 01 01 01 01 01 01 01 01 01 01 01 01 01
descriptor 1:    35 3c 80 a0 70 b0 23 40 30 20 36 00 59 d7 10 00 00 1a
descriptor 2:    2a 30 80 a0 70 b0 23 40 30 20 36 00 59 d7 10 00 00 1a
descriptor 3:    00 00 00 fe 00 46 4e 50 4e 35 80 31 36 30 57 55 31 0a
descriptor 4:    00 00 00 00 00 01 41 31 99 00 10 00 00 0a 01 0a 20 20
extensions:      00
checksum:        ae

EDID version: 1.4
Manufacturer: LGD Model 701 Serial Number --
Made in year 2021
Digital display
8 bits per primary color channel
DisplayPort interface
Maximum image size: 34 cm x 22 cm
Gamma: 2.20
Supported color formats: RGB 4:4:4
First detailed timing includes the native pixel format and preferred refresh rate
Display x,y Chromaticity:
  Red:   0.5947, 0.3701
  Green: 0.3632, 0.5527
  Blue:  0.1552, 0.1025
  White: 0.3134, 0.3291
Established timings supported:
Standard timings supported:
Detailed mode: Clock 154.130 MHz, 345 mm x 215 mm
               1920 1968 2000 2080 hborder 0
               1200 1203 1209 1235 vborder 0
               +hsync -vsync 
               VertFreq: 60 Hz, HorFreq: 74100 Hz
Detailed mode: Clock 123.300 MHz, 345 mm x 215 mm
               1920 1968 2000 2080 hborder 0
               1200 1203 1209 1235 vborder 0
               +hsync -vsync 
               VertFreq: 47 Hz, HorFreq: 59278 Hz
ASCII string: FNPN5
Manufacturer-specified data, tag 0
Checksum: 0xae (valid)
EDID block does NOT conform to EDID 1.4!
	Missing name descriptor
	Missing monitor ranges
	Detailed block string not properly terminated
