edid-decode (hex):

00 ff ff ff ff ff ff 00 4c 2e 91 0b 01 01 01 01
00 14 01 02 0e 35 1e 78 ea e6 9d a3 54 4a 99 26
0f 47 4a 21 08 00 31 40 45 40 61 40 01 01 01 01
01 01 01 01 01 01 64 19 00 1a 41 00 2a 30 6e 28
55 00 13 2b 21 00 00 1e 00 00 00 fd 00 3b 3d 1e
3c 08 00 0a 20 20 20 20 20 20 00 00 00 fc 00 53
41 4e 59 4f 20 20 20 20 20 20 20 0a 00 00 00 fc
00 4c 43 44 2d 32 34 58 48 37 2a 0a 20 20 00 cd

00 ff ff ff ff ff ff 00 4c 2e 91 0b 01 01 01 01
00 14 01 02 0e 35 1e 78 ea e6 9d a3 54 4a 99 26
0f 47 4a 21 08 00 31 40 45 40 61 40 01 01 01 01
01 01 01 01 01 01 64 19 00 1a 41 00 2a 30 6e 28
55 00 13 2b 21 00 00 1e 00 00 00 fd 00 3b 3d 1e
3c 08 00 0a 20 20 20 20 20 20 00 00 00 fc 00 53
41 4e 59 4f 20 20 20 20 20 20 20 0a 00 00 00 fc
00 4c 43 44 2d 32 34 58 48 37 2a 0a 20 20 00 cd

----------------

Block 0, Base EDID:
  EDID Structure Version & Revision: 1.2
  Vendor & Product Identification:
    Manufacturer: SAN
    Model: 2961
    Serial Number: ...
    Made in: 2010
  Basic Display Parameters & Features:
    Analog display
    Signal Level Standard: 0.700 : 0.300 : 1.000 V p-p
    Blank level equals black level
    Sync: Separate Composite SyncOnGreen
    Maximum image size: 53 cm x 30 cm
    Gamma: 2.20
    DPMS levels: Standby Suspend Off
    RGB color display
    First detailed timing is the preferred timing
  Color Characteristics:
    Red  : 0.6396, 0.3300
    Green: 0.2900, 0.5996
    Blue : 0.1503, 0.0595
    White: 0.2802, 0.2900
  Established Timings I & II:
    DMT 0x04:   640x480    59.940476 Hz   4:3     31.469 kHz     25.175000 MHz
    DMT 0x09:   800x600    60.316541 Hz   4:3     37.879 kHz     40.000000 MHz
    DMT 0x10:  1024x768    60.003840 Hz   4:3     48.363 kHz     65.000000 MHz
  Standard Timings:
    DMT 0x04:   640x480    59.940476 Hz   4:3     31.469 kHz     25.175000 MHz
    DMT 0x09:   800x600    60.316541 Hz   4:3     37.879 kHz     40.000000 MHz
    DMT 0x10:  1024x768    60.003840 Hz   4:3     48.363 kHz     65.000000 MHz
  Detailed Timing Descriptors:
    DTD 1:  1024x768    61.444804 Hz   4:3     49.770 kHz     65.000000 MHz (531 mm x 299 mm)
                 Hfront  110 Hsync  40 Hback  132 Hpol P
                 Vfront    5 Vsync   5 Vback   32 Vpol P
    Display Range Limits:
      Monitor ranges (GTF): 59-61 Hz V, 30-60 kHz H, max dotclock 80 MHz
    Display Product Name: 'SANYO       '
    Display Product Name: 'LCD-24XH7*'
Checksum: 0xcd

----------------

Block 1, Unknown EDID Extension Block 0x00:
  00 ff ff ff ff ff ff 00 4c 2e 91 0b 01 01 01 01 '........L.......'
  00 14 01 02 0e 35 1e 78 ea e6 9d a3 54 4a 99 26 '.....5.x....TJ.&'
  0f 47 4a 21 08 00 31 40 45 40 61 40 01 01 01 01 '.GJ!..1@E@a@....'
  01 01 01 01 01 01 64 19 00 1a 41 00 2a 30 6e 28 '......d...A.*0n('
  55 00 13 2b 21 00 00 1e 00 00 00 fd 00 3b 3d 1e 'U..+!........;=.'
  3c 08 00 0a 20 20 20 20 20 20 00 00 00 fc 00 53 '<...      .....S'
  41 4e 59 4f 20 20 20 20 20 20 20 0a 00 00 00 fc 'ANYO       .....'
  00 4c 43 44 2d 32 34 58 48 37 2a 0a 20 20 00 cd '.LCD-24XH7*.  ..'
Checksum: 0xcd

----------------

Warnings:

Block 0, Base EDID:
  EDID Structure Version & Revision: EDID 1.2 is deprecated, do not use.

Failures:

Block 0, Base EDID:
  Display Product Name: One or more trailing spaces.
Block 1, Base EDID:
  Unknown Extension Block.
EDID:
  Base EDID: EDID specified 0 extension block(s), but found 1 extension block(s).

EDID conformity: FAIL
