
EDID (hex):
00ffffffffffff0009e5a20800000000
011d0104951d11780328659759548e27
1e505400000001010101010101010101
010101010101043880d4703829403020
360026a51000001a582580d470382940
3020360026a51000001a000000000000
00000000000000000000000000000002
000d40ff0a3c7d140e1c7d0000000070

Extracted contents:
header:          00 ff ff ff ff ff ff 00
serial number:   09 e5 a2 08 00 00 00 00 01 1d
version:         01 04
basic params:    95 1d 11 78 03
chroma info:     28 65 97 59 54 8e 27 1e 50 54
established:     00 00 00
standard:        01 01 01 01 01 01 01 01 01 01 01 01 01 01 01 01
descriptor 1:    04 38 80 d4 70 38 29 40 30 20 36 00 26 a5 10 00 00 1a
descriptor 2:    58 25 80 d4 70 38 29 40 30 20 36 00 26 a5 10 00 00 1a
descriptor 3:    00 00 00 00 00 00 00 00 00 00 00 00 00 00 00 00 00 00
descriptor 4:    00 00 00 02 00 0d 40 ff 0a 3c 7d 14 0e 1c 7d 00 00 00
extensions:      00
checksum:        70

EDID version: 1.4
Manufacturer: BOE Model 8a2 Serial Number --
Made in week 1 of 2019
Digital display
6 bits per primary color channel
DisplayPort interface
Maximum image size: 29 cm x 17 cm
Gamma: 2.20
Supported color formats: RGB 4:4:4
First detailed timing includes the native pixel format and preferred refresh rate
Display is continuous frequency
Display x,y Chromaticity:
  Red:   0.5898, 0.3496
  Green: 0.3300, 0.5546
  Blue:  0.1533, 0.1191
  White: 0.3134, 0.3291
Established timings supported:
Standard timings supported:
Detailed mode: Clock 143.400 MHz, 294 mm x 165 mm
               1920 1968 2000 2132 hborder 0
               1080 1083 1089 1121 vborder 0
               +hsync -vsync 
               VertFreq: 60 Hz, HorFreq: 67260 Hz
Detailed mode: Clock 95.600 MHz, 294 mm x 165 mm
               1920 1968 2000 2132 hborder 0
               1080 1083 1089 1121 vborder 0
               +hsync -vsync 
               VertFreq: 40 Hz, HorFreq: 44840 Hz
Manufacturer-specified data, tag 0
Manufacturer-specified data, tag 2
Checksum: 0x70 (valid)
EDID block does NOT conform to EDID 1.4!
	Missing name descriptor
	Missing monitor ranges


