
EDID (hex):
00ffffffffffff005a632c6201010101
11180103080000780aace9a05b569225
114f5dbfef80a9409040818081006159
457c4559317ca00f200031581c202880
140000000000001e000000ff0054424d
3134313730323934330a000000fd0030
781e6411000a202020202020000000fc
00504a44353133320a202020202000fd

Extracted contents:
header:          00 ff ff ff ff ff ff 00
serial number:   5a 63 2c 62 01 01 01 01 11 18
version:         01 03
basic params:    08 00 00 78 0a
chroma info:     ac e9 a0 5b 56 92 25 11 4f 5d
established:     bf ef 80
standard:        a9 40 90 40 81 80 81 00 61 59 45 7c 45 59 31 7c
descriptor 1:    a0 0f 20 00 31 58 1c 20 28 80 14 00 00 00 00 00 00 1e
descriptor 2:    00 00 00 ff 00 54 42 4d 31 34 31 37 30 32 39 34 33 0a
descriptor 3:    00 00 00 fd 00 30 78 1e 64 11 00 0a 20 20 20 20 20 20
descriptor 4:    00 00 00 fc 00 50 4a 44 35 31 33 32 0a 20 20 20 20 20
extensions:      00
checksum:        fd

EDID version: 1.3
Manufacturer: VSC Model 622c Serial Number --
Made in week 17 of 2014
Analog display, Input voltage level: 0.7/0.3 V
Sync: Separate 
Image size is variable
Gamma: 2.20
RGB color display
First detailed timing is preferred timing
Display x,y Chromaticity:
  Red:   0.6269, 0.3574
  Green: 0.3388, 0.5703
  Blue:  0.1474, 0.0683
  White: 0.3105, 0.3642
Established timings supported:
  720x400@70Hz 9:5 HorFreq: 31469 Hz Clock: 28.320 MHz
  640x480@60Hz 4:3 HorFreq: 31469 Hz Clock: 25.175 MHz
  640x480@67Hz 4:3 HorFreq: 35000 Hz Clock: 30.240 MHz
  640x480@72Hz 4:3 HorFreq: 37900 Hz Clock: 31.500 MHz
  640x480@75Hz 4:3 HorFreq: 37500 Hz Clock: 31.500 MHz
  800x600@56Hz 4:3 HorFreq: 35200 Hz Clock: 36.000 MHz
  800x600@60Hz 4:3 HorFreq: 37900 Hz Clock: 40.000 MHz
  800x600@72Hz 4:3 HorFreq: 48100 Hz Clock: 50.000 MHz
  800x600@75Hz 4:3 HorFreq: 46900 Hz Clock: 49.500 MHz
  832x624@75Hz 4:3 HorFreq: 49726 Hz Clock: 57.284 MHz
  1024x768@60Hz 4:3 HorFreq: 48400 Hz Clock: 65.000 MHz
  1024x768@70Hz 4:3 HorFreq: 56500 Hz Clock: 75.000 MHz
  1024x768@75Hz 4:3 HorFreq: 60000 Hz Clock: 78.750 MHz
  1280x1024@75Hz 5:4 HorFreq: 80000 Hz Clock: 135.000 MHz
  1152x870@75Hz 192:145 HorFreq: 67500 Hz Clock: 108.000 MHz
Standard timings supported:
  1600x1200@60Hz 4:3 HorFreq: 75000 Hz Clock: 162.000 MHz
  1400x1050@60Hz 4:3 HorFreq: 64700 Hz Clock: 101.000 MHz
  1280x1024@60Hz 5:4 HorFreq: 64000 Hz Clock: 108.000 MHz
  1280x800@60Hz 16:10
  1024x768@85Hz 4:3 HorFreq: 68700 Hz Clock: 94.500 MHz
  800x600@120Hz 4:3
  800x600@85Hz 4:3 HorFreq: 53700 Hz Clock: 56.250 MHz
  640x480@120Hz 4:3
Detailed mode: Clock 40.000 MHz, 0 mm x 0 mm
                800  840  968 1056 hborder 0
                600  601  605  628 vborder 0
               +hsync +vsync 
               VertFreq: 60 Hz, HorFreq: 37878 Hz
Serial number: --
Monitor ranges (GTF): 48-120Hz V, 30-100kHz H, max dotclock 170MHz
Monitor name: PJD5132
Checksum: 0xfd (valid)
