
EDID (hex):
00ffffffffffff0030ae144000000000
2b130103801a1078eae59593564f9028
28505400000001010101010101010101
010101010101f01ca0a050841a301810
360005a310000018f01ca0a050841a30
1810360005a3100000180000000f0095
0a32950a3219010030640055000000fe
004c5444313231455133420a20200091

Extracted contents:
header:          00 ff ff ff ff ff ff 00
serial number:   30 ae 14 40 00 00 00 00 2b 13
version:         01 03
basic params:    80 1a 10 78 ea
chroma info:     e5 95 93 56 4f 90 28 28 50 54
established:     00 00 00
standard:        01 01 01 01 01 01 01 01 01 01 01 01 01 01 01 01
descriptor 1:    f0 1c a0 a0 50 84 1a 30 18 10 36 00 05 a3 10 00 00 18
descriptor 2:    f0 1c a0 a0 50 84 1a 30 18 10 36 00 05 a3 10 00 00 18
descriptor 3:    00 00 00 0f 00 95 0a 32 95 0a 32 19 01 00 30 64 00 55
descriptor 4:    00 00 00 fe 00 4c 54 44 31 32 31 45 51 33 42 0a 20 20
extensions:      00
checksum:        91

EDID version: 1.3
Manufacturer: LEN Model 4014 Serial Number --
Made in week 43 of 2009
Digital display
Maximum image size: 26 cm x 16 cm
Gamma: 2.20
DPMS levels: Standby Suspend Off
RGB color display
First detailed timing is preferred timing
Display x,y Chromaticity:
  Red:   0.5771, 0.3378
  Green: 0.3095, 0.5634
  Blue:  0.1582, 0.1572
  White: 0.3134, 0.3291
Established timings supported:
Standard timings supported:
Detailed mode: Clock 74.080 MHz, 261 mm x 163 mm
               1440 1464 1480 1600 hborder 0
                900  903  909  926 vborder 0
               -hsync -vsync 
               VertFreq: 50 Hz, HorFreq: 46300 Hz
Detailed mode: Clock 74.080 MHz, 261 mm x 163 mm
               1440 1464 1480 1600 hborder 0
                900  903  909  926 vborder 0
               -hsync -vsync 
               VertFreq: 50 Hz, HorFreq: 46300 Hz
Manufacturer-specified data, tag 15
ASCII string: LTD121EQ3B
Checksum: 0x91 (valid)
EDID block does NOT conform to EDID 1.3!
	Missing name descriptor
	Missing monitor ranges
