
EDID (hex):
00ffffffffffff000daf981500000000
09130103802213780ad1f5935d599026
1d505400000001010101010101010101
010101010101f03a56c2500026301f41
4c0058c210000018063656c250002630
1f414c0058c2100000181d3156c25000
26301f414c0058c210000018781d56c2
500026301f414c0058c21000001800b7

Extracted contents:
header:          00 ff ff ff ff ff ff 00
serial number:   0d af 98 15 00 00 00 00 09 13
version:         01 03
basic params:    80 22 13 78 0a
chroma info:     d1 f5 93 5d 59 90 26 1d 50 54
established:     00 00 00
standard:        01 01 01 01 01 01 01 01 01 01 01 01 01 01 01 01
descriptor 1:    f0 3a 56 c2 50 00 26 30 1f 41 4c 00 58 c2 10 00 00 18
descriptor 2:    06 36 56 c2 50 00 26 30 1f 41 4c 00 58 c2 10 00 00 18
descriptor 3:    1d 31 56 c2 50 00 26 30 1f 41 4c 00 58 c2 10 00 00 18
descriptor 4:    78 1d 56 c2 50 00 26 30 1f 41 4c 00 58 c2 10 00 00 18
extensions:      00
checksum:        b7

EDID version: 1.3
Manufacturer: CMO Model 1598 Serial Number --
Made in week 9 of 2009
Digital display
Maximum image size: 34 cm x 19 cm
Gamma: 2.20
RGB color display
First detailed timing is preferred timing
Display x,y Chromaticity:
  Red:   0.5771, 0.3642
  Green: 0.3476, 0.5634
  Blue:  0.1513, 0.1162
  White: 0.3134, 0.3291
Established timings supported:
Standard timings supported:
Detailed mode: Clock 150.880 MHz, 344 mm x 194 mm
               1366 1397 1462 1560 hborder 0
                768  772  784  806 vborder 0
               -hsync -vsync 
               VertFreq: 119 Hz, HorFreq: 96717 Hz
Detailed mode: Clock 138.300 MHz, 344 mm x 194 mm
               1366 1397 1462 1560 hborder 0
                768  772  784  806 vborder 0
               -hsync -vsync 
               VertFreq: 109 Hz, HorFreq: 88653 Hz
Detailed mode: Clock 125.730 MHz, 344 mm x 194 mm
               1366 1397 1462 1560 hborder 0
                768  772  784  806 vborder 0
               -hsync -vsync 
               VertFreq: 99 Hz, HorFreq: 80596 Hz
Detailed mode: Clock 75.440 MHz, 344 mm x 194 mm
               1366 1397 1462 1560 hborder 0
                768  772  784  806 vborder 0
               -hsync -vsync 
               VertFreq: 59 Hz, HorFreq: 48358 Hz
Checksum: 0xb7 (valid)
EDID block does NOT conform to EDID 1.3!
	Missing name descriptor
	Missing monitor ranges
