
EDID (hex):
00ffffffffffff000e6f081600000000
001f0104a522167803ee91a3544c9926
0f505400000001010101010101010101
010101010101ffd700a0a0405e603020
360058d710000018ff6b00a0a0405e60
3020360058d710000018000000fd003c
78cccc38010a20202020202000000003
000c33ff103cc8171533c8000000016c
7020790000250109ed3704da6f083c78
80810013721a000003013c7800005958
59587800000000000000000000000000
00000000000000000000000000000000
00000000000000000000000000000000
00000000000000000000000000000000
00000000000000000000000000000000
0000000000000000000000000000d990

Extracted contents:
header:          00 ff ff ff ff ff ff 00
serial number:   0e 6f 08 16 00 00 00 00 00 1f
version:         01 04
basic params:    a5 22 16 78 03
chroma info:     ee 91 a3 54 4c 99 26 0f 50 54
established:     00 00 00
standard:        01 01 01 01 01 01 01 01 01 01 01 01 01 01 01 01
descriptor 1:    ff d7 00 a0 a0 40 5e 60 30 20 36 00 58 d7 10 00 00 18
descriptor 2:    ff 6b 00 a0 a0 40 5e 60 30 20 36 00 58 d7 10 00 00 18
descriptor 3:    00 00 00 fd 00 3c 78 cc cc 38 01 0a 20 20 20 20 20 20
descriptor 4:    00 00 00 03 00 0c 33 ff 10 3c c8 17 15 33 c8 00 00 00
extensions:      01
checksum:        6c

EDID version: 1.4
Manufacturer: CSO Model 1608 Serial Number --
Made in year 2021
Digital display
8 bits per primary color channel
DisplayPort interface
Maximum image size: 34 cm x 22 cm
Gamma: 2.20
Supported color formats: RGB 4:4:4
First detailed timing includes the native pixel format and preferred refresh rate
Display is continuous frequency
Display x,y Chromaticity:
  Red:   0.6396, 0.3300
  Green: 0.2998, 0.5996
  Blue:  0.1503, 0.0595
  White: 0.3125, 0.3291
Established timings supported:
Standard timings supported:
Detailed mode: Clock 552.950 MHz, 344 mm x 215 mm
               2560 2608 2640 2720 hborder 0
               1600 1603 1609 1694 vborder 0
               -hsync -vsync 
               VertFreq: 120 Hz, HorFreq: 203290 Hz
Detailed mode: Clock 276.470 MHz, 344 mm x 215 mm
               2560 2608 2640 2720 hborder 0
               1600 1603 1609 1694 vborder 0
               -hsync -vsync 
               VertFreq: 60 Hz, HorFreq: 101643 Hz
Monitor ranges (bare limits): 60-120Hz V, 204-204kHz H, max dotclock 560MHz
Manufacturer-specified data, tag 3
Has 1 extension blocks
Checksum: 0x6c (valid)

DisplayID extension block
Extension version: 32
Length 121, version 32, extension count 0
Checksum: 0xd9 (valid)
Unknown displayid data block 0x25
Unknown displayid data block 0x81

EDID block does NOT conform to EDID 1.4!
	Missing name descriptor
Warning: One or more of the timings is out of range of the Monitor Ranges:
  Vertical Freq: 60 - 120 Hz
  Horizontal Freq: 101643 - 203290 Hz
  Maximum Clock: 552.950 MHz
EDID block does not conform at all!
	Has -1811939328 nonconformant extension block(s)
