
EDID (hex):
00ffffffffffff005c94e41b7c030000
2b160103802b19780a81dda255489d25
0e474aa1080095006140b30001010101
0101010101017f2156aa51001e30468f
330000000000001e000000ff00373134
30593234333030383932000000fd003b
3d0f440f000a202020202020000000fc
0055573337534331570a2020202001f2

Extracted contents:
header:          00 ff ff ff ff ff ff 00
serial number:   5c 94 e4 1b 7c 03 00 00 2b 16
version:         01 03
basic params:    80 2b 19 78 0a
chroma info:     81 dd a2 55 48 9d 25 0e 47 4a
established:     a1 08 00
standard:        95 00 61 40 b3 00 01 01 01 01 01 01 01 01 01 01
descriptor 1:    7f 21 56 aa 51 00 1e 30 46 8f 33 00 00 00 00 00 00 1e
descriptor 2:    00 00 00 ff 00 37 31 34 30 59 32 34 33 30 30 38 39 32
descriptor 3:    00 00 00 fd 00 3b 3d 0f 44 0f 00 0a 20 20 20 20 20 20
descriptor 4:    00 00 00 fc 00 55 57 33 37 53 43 31 57 0a 20 20 20 20
extensions:      01
checksum:        f2

EDID version: 1.3
Manufacturer: WDT Model 1be4 Serial Number --
Made in week 43 of 2012
Digital display
Maximum image size: 43 cm x 25 cm
Gamma: 2.20
RGB color display
First detailed timing is preferred timing
Display x,y Chromaticity:
  Red:   0.6347, 0.3320
  Green: 0.2812, 0.6142
  Blue:  0.1474, 0.0556
  White: 0.2802, 0.2900
Established timings supported:
  720x400@70Hz 9:5 HorFreq: 31469 Hz Clock: 28.320 MHz
  640x480@60Hz 4:3 HorFreq: 31469 Hz Clock: 25.175 MHz
  800x600@60Hz 4:3 HorFreq: 37900 Hz Clock: 40.000 MHz
  1024x768@60Hz 4:3 HorFreq: 48400 Hz Clock: 65.000 MHz
Standard timings supported:
  1440x900@60Hz 16:10 HorFreq: 55500 Hz Clock: 88.750 MHz
  1024x768@60Hz 4:3 HorFreq: 48400 Hz Clock: 65.000 MHz
  1680x1050@60Hz 16:10 HorFreq: 64700 Hz Clock: 119.000 MHz
Detailed mode: Clock 85.750 MHz, 0 mm x 0 mm
               1366 1436 1579 1792 hborder 0
                768  771  774  798 vborder 0
               +hsync +vsync 
               VertFreq: 59 Hz, HorFreq: 47851 Hz
Serial number: --
Monitor ranges (GTF): 59-61Hz V, 15-68kHz H, max dotclock 150MHz
Monitor name: UW37SC1W
Has 1 extension blocks
Checksum: 0xf2 (valid)
One or more of the timings is out of range of the Monitor Ranges:
  Vertical Freq: 59 - 70 Hz
  Horizontal Freq: 31469 - 64700 Hz
  Maximum Clock: 119.000 MHz


