
EDID (hex):
00ffffffffffff003103209000000000
1a200104b55c26783be105ad524aa826
0e5054254a00d1c0b300a9c08180714f
81c081400101f57c70a0d0a029503020
35009e833100001a000000fd00303c5b
5b28000a202020202020000000fc0034
304331520a20202020202020000000ff
0030303030303030303030303030027c
020318f14901020304901112131f2309
070783010000001a023a801871382d40
302035009e833100001e000000000000
00000000000000000000000000000000
00000000000000000000000000000000
00000000000000000000000000000000
00000000000000000000000000000000
00000000000000000000000000000003
701279000007000a0881000804000402
10000000000000000000000000000000
00000000000000000000000000000000
00000000000000000000000000000000
00000000000000000000000000000000
00000000000000000000000000000000
00000000000000000000000000000000
0000000000000000000000000000b990

Extracted contents:
header:          00 ff ff ff ff ff ff 00
serial number:   31 03 20 90 00 00 00 00 1a 20
version:         01 04
basic params:    b5 5c 26 78 3b
chroma info:     e1 05 ad 52 4a a8 26 0e 50 54
established:     25 4a 00
standard:        d1 c0 b3 00 a9 c0 81 80 71 4f 81 c0 81 40 01 01
descriptor 1:    f5 7c 70 a0 d0 a0 29 50 30 20 35 00 9e 83 31 00 00 1a
descriptor 2:    00 00 00 fd 00 30 3c 5b 5b 28 00 0a 20 20 20 20 20 20
descriptor 3:    00 00 00 fc 00 34 30 43 31 52 0a 20 20 20 20 20 20 20
descriptor 4:    00 00 00 ff 00 30 30 30 30 30 30 30 30 30 30 30 30 30
extensions:      02
checksum:        7c

EDID version: 1.4
Manufacturer: LHC Model 9020 Serial Number --
Made in week 26 of 2022
Digital display
10 bits per primary color channel
DisplayPort interface
Maximum image size: 92 cm x 38 cm
Gamma: 2.20
DPMS levels: Off
Supported color formats: RGB 4:4:4, YCrCb 4:4:4, YCrCb 4:2:2
First detailed timing includes the native pixel format and preferred refresh rate
Display is continuous frequency
Display x,y Chromaticity:
  Red:   0.6787, 0.3222
  Green: 0.2890, 0.6572
  Blue:  0.1484, 0.0546
  White: 0.3134, 0.3291
Established timings supported:
  640x480@60Hz 4:3 HorFreq: 31469 Hz Clock: 25.175 MHz
  640x480@75Hz 4:3 HorFreq: 37500 Hz Clock: 31.500 MHz
  800x600@60Hz 4:3 HorFreq: 37900 Hz Clock: 40.000 MHz
  800x600@75Hz 4:3 HorFreq: 46900 Hz Clock: 49.500 MHz
  1024x768@60Hz 4:3 HorFreq: 48400 Hz Clock: 65.000 MHz
  1024x768@75Hz 4:3 HorFreq: 60000 Hz Clock: 78.750 MHz
Standard timings supported:
  1920x1080@60Hz 16:9
  1680x1050@60Hz 16:10 HorFreq: 64700 Hz Clock: 119.000 MHz
  1600x900@60Hz 16:9
  1280x1024@60Hz 5:4 HorFreq: 64000 Hz Clock: 108.000 MHz
  1152x864@75Hz 4:3 HorFreq: 67500 Hz Clock: 108.000 MHz
  1280x720@60Hz 16:9
  1280x960@60Hz 4:3 HorFreq: 60000 Hz Clock: 108.000 MHz
Detailed mode: Clock 319.890 MHz, 926 mm x 387 mm
               3440 3488 3520 3600 hborder 0
               1440 1443 1448 1481 vborder 0
               +hsync -vsync 
               VertFreq: 59 Hz, HorFreq: 88858 Hz
Monitor ranges (GTF): 48-60Hz V, 91-91kHz H, max dotclock 400MHz
Monitor name: 40C1R
Serial number: --
Has 2 extension blocks
Checksum: 0x7c (valid)

CTA extension block
Extension version: 3
20 bytes of CTA data
  Video data block
    VIC   1 640x480@60Hz 4:3  HorFreq: 31469 Hz Clock: 25.175 MHz
    VIC   2 720x480@60Hz 4:3  HorFreq: 31469 Hz Clock: 27.000 MHz
    VIC   3 720x480@60Hz 16:9  HorFreq: 31469 Hz Clock: 27.000 MHz
    VIC   4 1280x720@60Hz 16:9  HorFreq: 45000 Hz Clock: 74.250 MHz
    VIC  16 1920x1080@60Hz 16:9 (native) HorFreq: 67500 Hz Clock: 148.500 MHz
    VIC  17 720x576@50Hz 4:3  HorFreq: 31250 Hz Clock: 27.000 MHz
    VIC  18 720x576@50Hz 16:9  HorFreq: 31250 Hz Clock: 27.000 MHz
    VIC  19 1280x720@50Hz 16:9  HorFreq: 37500 Hz Clock: 74.250 MHz
    VIC  31 1920x1080@50Hz 16:9  HorFreq: 56250 Hz Clock: 148.500 MHz
  Audio data block
    Linear PCM, max channels 2
      Supported sample rates (kHz): 48 44.1 32
      Supported sample sizes (bits): 24 20 16
  Speaker allocation data block
    Speaker map:
      FL/FR - Front Left/Right
  Unknown tag 0, length 0 (raw 00)
  Unknown tag 0, length 26 (raw 1a)
Underscans PC formats by default
Basic audio support
Supports YCbCr 4:4:4
Supports YCbCr 4:2:2
1 native detailed modes
Detailed mode: Clock 148.500 MHz, 926 mm x 387 mm
               1920 1968 2000 2200 hborder 0
               1080 1083 1088 1125 vborder 0
               +hsync +vsync 
               VertFreq: 60 Hz, HorFreq: 67500 Hz
Checksum: 0x3 (valid)


DisplayID extension block
Extension version: 18
Length 121, version 18, extension count 0
Checksum: 0xb9 (valid)
VESA DMT timing block

Warning: One or more of the timings is out of range of the Monitor Ranges:
  Vertical Freq: 50 - 75 Hz
  Horizontal Freq: 31250 - 88858 Hz
  Maximum Clock: 319.890 MHz


