
EDID (hex):
00ffffffffffff0030aede1901010101
0b120103802f1e782ac3d0a455499a26
135054af6f00714f8180818a8190b300
0101010101017c2e90a0601a1e403020
3600d9281100001e000000ff00563148
323332340a2020202020000000fd0032
4c1e530f000a202020202020000000fc
004c454e2044323231205769646500b0

Extracted contents:
header:          00 ff ff ff ff ff ff 00
serial number:   30 ae de 19 01 01 01 01 0b 12
version:         01 03
basic params:    80 2f 1e 78 2a
chroma info:     c3 d0 a4 55 49 9a 26 13 50 54
established:     af 6f 00
standard:        71 4f 81 80 81 8a 81 90 b3 00 01 01 01 01 01 01
descriptor 1:    7c 2e 90 a0 60 1a 1e 40 30 20 36 00 d9 28 11 00 00 1e
descriptor 2:    00 00 00 ff 00 56 31 48 32 33 32 34 0a 20 20 20 20 20
descriptor 3:    00 00 00 fd 00 32 4c 1e 53 0f 00 0a 20 20 20 20 20 20
descriptor 4:    00 00 00 fc 00 4c 45 4e 20 44 32 32 31 20 57 69 64 65
extensions:      00
checksum:        b0

EDID version: 1.3
Manufacturer: LEN Model 19de Serial Number --
Made in week 11 of 2008
Digital display
Maximum image size: 47 cm x 30 cm
Gamma: 2.20
DPMS levels: Off
RGB color display
First detailed timing is preferred timing
Display x,y Chromaticity:
  Red:   0.6435, 0.3320
  Green: 0.2851, 0.6044
  Blue:  0.1513, 0.0751
  White: 0.3125, 0.3281
Established timings supported:
  720x400@70Hz 9:5 HorFreq: 31469 Hz Clock: 28.320 MHz
  640x480@60Hz 4:3 HorFreq: 31469 Hz Clock: 25.175 MHz
  640x480@72Hz 4:3 HorFreq: 37900 Hz Clock: 31.500 MHz
  640x480@75Hz 4:3 HorFreq: 37500 Hz Clock: 31.500 MHz
  800x600@56Hz 4:3 HorFreq: 35200 Hz Clock: 36.000 MHz
  800x600@60Hz 4:3 HorFreq: 37900 Hz Clock: 40.000 MHz
  800x600@75Hz 4:3 HorFreq: 46900 Hz Clock: 49.500 MHz
  832x624@75Hz 4:3 HorFreq: 49726 Hz Clock: 57.284 MHz
  1024x768@60Hz 4:3 HorFreq: 48400 Hz Clock: 65.000 MHz
  1024x768@70Hz 4:3 HorFreq: 56500 Hz Clock: 75.000 MHz
  1024x768@75Hz 4:3 HorFreq: 60000 Hz Clock: 78.750 MHz
  1280x1024@75Hz 5:4 HorFreq: 80000 Hz Clock: 135.000 MHz
Standard timings supported:
  1152x864@75Hz 4:3 HorFreq: 67500 Hz Clock: 108.000 MHz
  1280x1024@60Hz 5:4 HorFreq: 64000 Hz Clock: 108.000 MHz
  1280x1024@70Hz 5:4
  1280x1024@76Hz 5:4
  1680x1050@60Hz 16:10 HorFreq: 64700 Hz Clock: 119.000 MHz
Detailed mode: Clock 119.000 MHz, 473 mm x 296 mm
               1680 1728 1760 1840 hborder 0
               1050 1053 1059 1080 vborder 0
               +hsync +vsync 
               VertFreq: 59 Hz, HorFreq: 64673 Hz
Serial number: --
Monitor ranges (GTF): 50-76Hz V, 30-83kHz H, max dotclock 150MHz
Checksum: 0xb0 (valid)
EDID block does NOT conform to EDID 1.3!
	Name descriptor not terminated with a newline


