
EDID (hex):
00ffffffffffff0006afec3200000000
0d1601049022137802bbf59455549027
23505400000001010101010101010101
010101010101ec1d56c450003030080a
310058c11000001aec1d563c5200dc30
080a310058c11000001a000000fe004a
47503656804231353658544e00000000
00004121940111000001010a20200062

Extracted contents:
header:          00 ff ff ff ff ff ff 00
serial number:   06 af ec 32 00 00 00 00 0d 16
version:         01 04
basic params:    90 22 13 78 02
chroma info:     bb f5 94 55 54 90 27 23 50 54
established:     00 00 00
standard:        01 01 01 01 01 01 01 01 01 01 01 01 01 01 01 01
descriptor 1:    ec 1d 56 c4 50 00 30 30 08 0a 31 00 58 c1 10 00 00 1a
descriptor 2:    ec 1d 56 3c 52 00 dc 30 08 0a 31 00 58 c1 10 00 00 1a
descriptor 3:    00 00 00 fe 00 4a 47 50 36 56 80 42 31 35 36 58 54 4e
descriptor 4:    00 00 00 00 00 00 41 21 94 01 11 00 00 01 01 0a 20 20
extensions:      00
checksum:        62

EDID version: 1.4
Manufacturer: AUO Model 32ec Serial Number --
Made in week 13 of 2012
Digital display
6 bits per primary color channel
Digital interface is not defined
Maximum image size: 34 cm x 19 cm
Gamma: 2.20
Supported color formats: RGB 4:4:4
First detailed timing includes the native pixel format and preferred refresh rate
Display x,y Chromaticity:
  Red:   0.5800, 0.3349
  Green: 0.3300, 0.5654
  Blue:  0.1552, 0.1396
  White: 0.3134, 0.3291
Established timings supported:
Standard timings supported:
Detailed mode: Clock 76.600 MHz, 344 mm x 193 mm
               1366 1374 1384 1562 hborder 0
                768  771  772  816 vborder 0
               +hsync -vsync 
               VertFreq: 60 Hz, HorFreq: 49039 Hz
Detailed mode: Clock 76.600 MHz, 344 mm x 193 mm
               1366 1374 1384 1938 hborder 0
                768  771  772  988 vborder 0
               +hsync -vsync 
               VertFreq: 40 Hz, HorFreq: 39525 Hz
ASCII string: JGP6V
Manufacturer-specified data, tag 0
Checksum: 0x62 (valid)
EDID block does NOT conform to EDID 1.4!
	Missing name descriptor
	Missing monitor ranges
	Detailed block string not properly terminated
