
EDID (hex):
00ffffffffffff0051ae755834333231
200f01030e462778285f9fa955509224
0d4a4bbfce0000016159455931590001
0001000100010e1f008051001e304080
370000000000001c000000fd00384c1f
3d0b000a202020202020662150b05100
1b304070360020200000001e000000fc
0033324c4231323542350a202020002a

Extracted contents:
header:          00 ff ff ff ff ff ff 00
serial number:   51 ae 75 58 34 33 32 31 20 0f
version:         01 03
basic params:    0e 46 27 78 28
chroma info:     5f 9f a9 55 50 92 24 0d 4a 4b
established:     bf ce 00
standard:        00 01 61 59 45 59 31 59 00 01 00 01 00 01 00 01
descriptor 1:    0e 1f 00 80 51 00 1e 30 40 80 37 00 00 00 00 00 00 1c
descriptor 2:    00 00 00 fd 00 38 4c 1f 3d 0b 00 0a 20 20 20 20 20 20
descriptor 3:    66 21 50 b0 51 00 1b 30 40 70 36 00 20 20 00 00 00 1e
descriptor 4:    00 00 00 fc 00 33 32 4c 42 31 32 35 42 35 0a 20 20 20
extensions:      00
checksum:        2a

EDID version: 1.3
Manufacturer: TMN Model 5875 Serial Number --
Analog display, Input voltage level: 0.7/0.3 V
Sync: Separate Composite SyncOnGreen 
Maximum image size: 70 cm x 39 cm
Gamma: 2.20
DPMS levels: Off
RGB color display
Display x,y Chromaticity:
  Red:   0.6611, 0.3330
  Green: 0.3154, 0.5732
  Blue:  0.1425, 0.0517
  White: 0.2919, 0.2958
Established timings supported:
  720x400@70Hz 9:5 HorFreq: 31469 Hz Clock: 28.320 MHz
  640x480@60Hz 4:3 HorFreq: 31469 Hz Clock: 25.175 MHz
  640x480@67Hz 4:3 HorFreq: 35000 Hz Clock: 30.240 MHz
  640x480@72Hz 4:3 HorFreq: 37900 Hz Clock: 31.500 MHz
  640x480@75Hz 4:3 HorFreq: 37500 Hz Clock: 31.500 MHz
  800x600@56Hz 4:3 HorFreq: 35200 Hz Clock: 36.000 MHz
  800x600@60Hz 4:3 HorFreq: 37900 Hz Clock: 40.000 MHz
  800x600@72Hz 4:3 HorFreq: 48100 Hz Clock: 50.000 MHz
  800x600@75Hz 4:3 HorFreq: 46900 Hz Clock: 49.500 MHz
  1024x768@60Hz 4:3 HorFreq: 48400 Hz Clock: 65.000 MHz
  1024x768@70Hz 4:3 HorFreq: 56500 Hz Clock: 75.000 MHz
  1024x768@75Hz 4:3 HorFreq: 60000 Hz Clock: 78.750 MHz
Standard timings supported:
non-conformant standard timing (0 horiz)
  1024x768@85Hz 4:3 HorFreq: 68700 Hz Clock: 94.500 MHz
  800x600@85Hz 4:3 HorFreq: 53700 Hz Clock: 56.250 MHz
  640x480@85Hz 4:3 HorFreq: 43300 Hz Clock: 36.000 MHz
non-conformant standard timing (0 horiz)
non-conformant standard timing (0 horiz)
non-conformant standard timing (0 horiz)
non-conformant standard timing (0 horiz)
Detailed mode: Clock 79.500 MHz, 0 mm x 0 mm
               1280 1344 1472 1664 hborder 0
                768  771  778  798 vborder 0
               -hsync +vsync 
               VertFreq: 59 Hz, HorFreq: 47776 Hz
Monitor ranges (GTF): 56-76Hz V, 31-61kHz H, max dotclock 110MHz
Detailed mode: Clock 85.500 MHz, 32 mm x 32 mm
               1360 1424 1536 1792 hborder 0
                768  771  777  795 vborder 0
               +hsync +vsync 
               VertFreq: 60 Hz, HorFreq: 47712 Hz
Monitor name: 32LB125B5
Checksum: 0x2a (valid)
EDID block does NOT conform to EDID 1.3!
	Missing preferred timing
One or more of the timings is out of range of the Monitor Ranges:
  Vertical Freq: 56 - 85 Hz
  Horizontal Freq: 31469 - 68700 Hz
  Maximum Clock: 94.500 MHz
EDID block does not conform at all!
	Bad year of manufacture
	Invalid detailed timing descriptor ordering
