
EDID (hex):
00ffffffffffff0009d1767603010000
280e01036c251678eac0f5a3574a9c23
114f54bdee0001010101010101010101
010101010101d8270098510025304880
a70072de1000001e7c1f009851001b30
5a80230072de1000001e000000fd0037
4c1f530e000a202020202020000000fc
0042656e512046503731570a20200073

Extracted contents:
header:          00 ff ff ff ff ff ff 00
serial number:   09 d1 76 76 03 01 00 00 28 0e
version:         01 03
basic params:    6c 25 16 78 ea
chroma info:     c0 f5 a3 57 4a 9c 23 11 4f 54
established:     bd ee 00
standard:        01 01 01 01 01 01 01 01 01 01 01 01 01 01 01 01
descriptor 1:    d8 27 00 98 51 00 25 30 48 80 a7 00 72 de 10 00 00 1e
descriptor 2:    7c 1f 00 98 51 00 1b 30 5a 80 23 00 72 de 10 00 00 1e
descriptor 3:    00 00 00 fd 00 37 4c 1f 53 0e 00 0a 20 20 20 20 20 20
descriptor 4:    00 00 00 fc 00 42 65 6e 51 20 46 50 37 31 57 0a 20 20
extensions:      00
checksum:        73

EDID version: 1.3
Manufacturer: BNQ Model 7676 Serial Number --
Analog display, Input voltage level: 0.7/0.7 V
Sync: Separate Composite 
Maximum image size: 37 cm x 22 cm
Gamma: 2.20
DPMS levels: Standby Suspend Off
RGB color display
First detailed timing is preferred timing
Display x,y Chromaticity:
  Red:   0.6396, 0.3398
  Green: 0.2890, 0.6093
  Blue:  0.1396, 0.0693
  White: 0.3095, 0.3291
Established timings supported:
  720x400@70Hz 9:5 HorFreq: 31469 Hz Clock: 28.320 MHz
  640x480@60Hz 4:3 HorFreq: 31469 Hz Clock: 25.175 MHz
  640x480@67Hz 4:3 HorFreq: 35000 Hz Clock: 30.240 MHz
  640x480@72Hz 4:3 HorFreq: 37900 Hz Clock: 31.500 MHz
  640x480@75Hz 4:3 HorFreq: 37500 Hz Clock: 31.500 MHz
  800x600@60Hz 4:3 HorFreq: 37900 Hz Clock: 40.000 MHz
  800x600@72Hz 4:3 HorFreq: 48100 Hz Clock: 50.000 MHz
  800x600@75Hz 4:3 HorFreq: 46900 Hz Clock: 49.500 MHz
  832x624@75Hz 4:3 HorFreq: 49726 Hz Clock: 57.284 MHz
  1024x768@60Hz 4:3 HorFreq: 48400 Hz Clock: 65.000 MHz
  1024x768@70Hz 4:3 HorFreq: 56500 Hz Clock: 75.000 MHz
  1024x768@75Hz 4:3 HorFreq: 60000 Hz Clock: 78.750 MHz
Standard timings supported:
Detailed mode: Clock 102.000 MHz, 370 mm x 222 mm
               1280 1352 1480 1688 hborder 0
                768  778  785  805 vborder 0
               +hsync +vsync 
               VertFreq: 75 Hz, HorFreq: 60426 Hz
Detailed mode: Clock 80.600 MHz, 370 mm x 222 mm
               1280 1370 1498 1688 hborder 0
                768  770  773  795 vborder 0
               +hsync +vsync 
               VertFreq: 60 Hz, HorFreq: 47748 Hz
Monitor ranges (GTF): 55-76Hz V, 31-83kHz H, max dotclock 140MHz
Monitor name: BenQ FP71W
Checksum: 0x73 (valid)
EDID block does not conform at all!
	Bad year of manufacture
