
EDID (hex):
00ffffffffffff0012e5170000000000
041a010380221b782a37c5a4554c9b25
125054bfcf0081807140818f6140818a
8100614f714fbc34009851002a401090
1300520e1100001c000000ff00300a0a
0a0a0a0a0a0a0a0a0a0a000000fd0038
4d1e500e000a202020202020000000ff
003137206d6f6e69746f720a0a0a0034

Extracted contents:
header:          00 ff ff ff ff ff ff 00
serial number:   12 e5 17 00 00 00 00 00 04 1a
version:         01 03
basic params:    80 22 1b 78 2a
chroma info:     37 c5 a4 55 4c 9b 25 12 50 54
established:     bf cf 00
standard:        81 80 71 40 81 8f 61 40 81 8a 81 00 61 4f 71 4f
descriptor 1:    bc 34 00 98 51 00 2a 40 10 90 13 00 52 0e 11 00 00 1c
descriptor 2:    00 00 00 ff 00 30 0a 0a 0a 0a 0a 0a 0a 0a 0a 0a 0a 0a
descriptor 3:    00 00 00 fd 00 38 4d 1e 50 0e 00 0a 20 20 20 20 20 20
descriptor 4:    00 00 00 ff 00 31 37 20 6d 6f 6e 69 74 6f 72 0a 0a 0a
extensions:      00
checksum:        34

EDID version: 1.3
Manufacturer: DWE Model 17 Serial Number --
Made in week 4 of 2016
Digital display
Maximum image size: 34 cm x 27 cm
Gamma: 2.20
DPMS levels: Off
RGB color display
First detailed timing is preferred timing
Display x,y Chromaticity:
  Red:   0.6406, 0.3349
  Green: 0.2978, 0.6083
  Blue:  0.1474, 0.0703
  White: 0.3134, 0.3291
Established timings supported:
  720x400@70Hz 9:5 HorFreq: 31469 Hz Clock: 28.320 MHz
  640x480@60Hz 4:3 HorFreq: 31469 Hz Clock: 25.175 MHz
  640x480@67Hz 4:3 HorFreq: 35000 Hz Clock: 30.240 MHz
  640x480@72Hz 4:3 HorFreq: 37900 Hz Clock: 31.500 MHz
  640x480@75Hz 4:3 HorFreq: 37500 Hz Clock: 31.500 MHz
  800x600@56Hz 4:3 HorFreq: 35200 Hz Clock: 36.000 MHz
  800x600@60Hz 4:3 HorFreq: 37900 Hz Clock: 40.000 MHz
  800x600@72Hz 4:3 HorFreq: 48100 Hz Clock: 50.000 MHz
  800x600@75Hz 4:3 HorFreq: 46900 Hz Clock: 49.500 MHz
  1024x768@60Hz 4:3 HorFreq: 48400 Hz Clock: 65.000 MHz
  1024x768@70Hz 4:3 HorFreq: 56500 Hz Clock: 75.000 MHz
  1024x768@75Hz 4:3 HorFreq: 60000 Hz Clock: 78.750 MHz
  1280x1024@75Hz 5:4 HorFreq: 80000 Hz Clock: 135.000 MHz
Standard timings supported:
  1280x1024@60Hz 5:4 HorFreq: 64000 Hz Clock: 108.000 MHz
  1152x864@60Hz 4:3
  1280x1024@75Hz 5:4 HorFreq: 80000 Hz Clock: 135.000 MHz
  1024x768@60Hz 4:3 HorFreq: 48400 Hz Clock: 65.000 MHz
  1280x1024@70Hz 5:4
  1280x800@60Hz 16:10
  1024x768@75Hz 4:3 HorFreq: 60000 Hz Clock: 78.750 MHz
  1152x864@75Hz 4:3 HorFreq: 67500 Hz Clock: 108.000 MHz
Detailed mode: Clock 135.000 MHz, 338 mm x 270 mm
               1280 1296 1440 1688 hborder 0
               1024 1025 1028 1066 vborder 0
               -hsync +vsync 
               VertFreq: 75 Hz, HorFreq: 79976 Hz
Serial number: --
Monitor ranges (GTF): 56-77Hz V, 30-80kHz H, max dotclock 140MHz
Serial number: -- monitor
Checksum: 0x34 (valid)
EDID block does NOT conform to EDID 1.3!
	Missing name descriptor
	Detailed block string not properly terminated
