edid-decode (hex):

00 ff ff ff ff ff ff 00 22 f0 79 21 01 00 00 00
01 1a 01 04 a5 50 22 78 02 a1 95 a9 54 4d 9c 26
0f 50 54 00 00 00 01 01 01 01 01 01 01 01 01 01
01 01 01 01 01 01 2f 7a 70 50 d0 a0 29 50 08 20
b8 04 2a 63 31 00 00 1a 00 00 00 fd 00 31 55 1e
59 20 01 0a 20 20 20 20 20 20 00 00 00 fc 00 48
50 20 41 6c 6c 2d 69 6e 2d 4f 6e 65 00 00 00 ff
00 4c 4d 33 34 30 55 57 33 2d 53 53 41 31 00 3d

----------------

Block 0, Base EDID:
  EDID Structure Version & Revision: 1.4
  Vendor & Product Identification:
    Manufacturer: HWP
    Model: 8569
    Serial Number: ...
    Made in: week 1 of 2016
  Basic Display Parameters & Features:
    Digital display
    Bits per primary color channel: 8
    DisplayPort interface
    Maximum image size: 80 cm x 34 cm
    Gamma: 2.20
    Supported color formats: RGB 4:4:4
    First detailed timing includes the native pixel format and preferred refresh rate
  Color Characteristics:
    Red  : 0.6621, 0.3300
    Green: 0.3007, 0.6103
    Blue : 0.1503, 0.0595
    White: 0.3134, 0.3291
  Established Timings I & II: none
  Standard Timings: none
  Detailed Timing Descriptors:
    DTD 1:  3440x1440   60.001 Hz  43:18   88.861 kHz 312.790 MHz (810 mm x 355 mm)
                 Hfront    8 Hsync  32 Hback  40 Hpol P
                 Vfront   27 Vsync   8 Vback   6 Vpol N
  Display Range Limits:
    Monitor ranges (Bare Limits): 49-85 Hz V, 30-89 kHz H, max dotclock 320 MHz
    Display Product Name: 'HP All-in-One'
    Display Product Serial Number: ...
Checksum: 0x3d

----------------

Failures:

Block 0, Base EDID:
  Detailed Timing Descriptor #1: Mismatch of image size 810x355 mm vs display size 800x340 mm.

EDID conformity: FAIL
