edid-decode (hex):

00 ff ff ff ff ff ff 00 26 cf 05 37 00 00 00 00
00 1e 01 04 95 1f 11 78 0a f7 60 9b 62 5b 93 2e
25 50 54 00 00 00 01 01 01 01 01 01 01 01 01 01
01 01 01 01 01 01 c4 1d 56 80 50 00 52 30 28 20
3c 00 35 ae 10 00 00 19 d8 13 56 80 50 00 52 30
28 20 3c 00 35 ae 10 00 00 19 00 00 00 00 00 00
00 00 00 00 00 00 00 00 00 00 00 00 00 00 00 02
00 0f 3d ff 0f 3c 7d 11 12 21 7d 00 00 00 00 10

00 ff ff ff ff ff ff 00 26 cf 05 37 00 00 00 00
00 1e 01 04 95 1f 11 78 0a f7 60 9b 62 5b 93 2e
25 50 54 00 00 00 01 01 01 01 01 01 01 01 01 01
01 01 01 01 01 01 c4 1d 56 80 50 00 52 30 28 20
3c 00 35 ae 10 00 00 19 d8 13 56 80 50 00 52 30
28 20 3c 00 35 ae 10 00 00 19 00 00 00 00 00 00
00 00 00 00 00 00 00 00 00 00 00 00 00 00 00 02
00 0f 3d ff 0f 3c 7d 11 12 21 7d 00 00 00 00 10

----------------

Block 0, Base EDID:
  EDID Structure Version & Revision: 1.4
  Vendor & Product Identification:
    Manufacturer: IVO
    Model: 14085
    Made in: 2020
  Basic Display Parameters & Features:
    Digital display
    Bits per primary color channel: 6
    DisplayPort interface
    Maximum image size: 31 cm x 17 cm
    Gamma: 2.20
    Supported color formats: RGB 4:4:4, YCrCb 4:4:4
    First detailed timing includes the native pixel format and preferred refresh rate
  Color Characteristics:
    Red  : 0.6083, 0.3857
    Green: 0.3564, 0.5771
    Blue : 0.1806, 0.1464
    White: 0.3125, 0.3281
  Established Timings I & II: none
  Standard Timings: none
  Detailed Timing Descriptors:
    DTD 1:  1366x768    60.004725 Hz 683:384   51.004 kHz     76.200000 MHz (309 mm x 174 mm)
                 Hfront   40 Hsync  32 Hback   56 Hpol N
                 Vfront    3 Vsync  12 Vback   67 Vpol N
    DTD 2:  1366x768    40.003150 Hz 683:384   34.003 kHz     50.800000 MHz (309 mm x 174 mm)
                 Hfront   40 Hsync  32 Hback   56 Hpol N
                 Vfront    3 Vsync  12 Vback   67 Vpol N
    Empty Descriptor
    Manufacturer-Specified Display Descriptor (0x02): 00 02 00 0f 3d ff 0f 3c 7d 11 12 21 7d 00 00 00 '....=..<}..!}...'
Checksum: 0x10

----------------

Block 1, Unknown EDID Extension Block 0x00:
  00 ff ff ff ff ff ff 00 26 cf 05 37 00 00 00 00 '........&..7....'
  00 1e 01 04 95 1f 11 78 0a f7 60 9b 62 5b 93 2e '.......x..`.b[..'
  25 50 54 00 00 00 01 01 01 01 01 01 01 01 01 01 '%PT.............'
  01 01 01 01 01 01 c4 1d 56 80 50 00 52 30 28 20 '........V.P.R0( '
  3c 00 35 ae 10 00 00 19 d8 13 56 80 50 00 52 30 '<.5.......V.P.R0'
  28 20 3c 00 35 ae 10 00 00 19 00 00 00 00 00 00 '( <.5...........'
  00 00 00 00 00 00 00 00 00 00 00 00 00 00 00 02 '................'
  00 0f 3d ff 0f 3c 7d 11 12 21 7d 00 00 00 00 10 '..=..<}..!}.....'
Checksum: 0x10

----------------

Warnings:

Block 0, Base EDID:
  Missing Display Product Name.

Failures:

Block 0, Base EDID:
  Empty Descriptor: Use Dummy Descriptor instead of all zeroes.
Block 1, Base EDID:
  Unknown Extension Block.
EDID:
  Base EDID: EDID specified 0 extension block(s), but found 1 extension block(s).

EDID conformity: FAIL
