
EDID (hex):
00ffffffffffff001e6dbf4b01010101
0113010380291778ea66f5a4554d9c24
115054a56a00314f454f614f71408100
010101010101342150b051001b304070
36009ae61000001e0e1f008051001e30
408037009ae61000001c000000fd0038
4b1e530c000a202020202020000000fc
004d31393632440a20202020202000ae

Extracted contents:
header:          00 ff ff ff ff ff ff 00
serial number:   1e 6d bf 4b 01 01 01 01 01 13
version:         01 03
basic params:    80 29 17 78 ea
chroma info:     66 f5 a4 55 4d 9c 24 11 50 54
established:     a5 6a 00
standard:        31 4f 45 4f 61 4f 71 40 81 00 01 01 01 01 01 01
descriptor 1:    34 21 50 b0 51 00 1b 30 40 70 36 00 9a e6 10 00 00 1e
descriptor 2:    0e 1f 00 80 51 00 1e 30 40 80 37 00 9a e6 10 00 00 1c
descriptor 3:    00 00 00 fd 00 38 4b 1e 53 0c 00 0a 20 20 20 20 20 20
descriptor 4:    00 00 00 fc 00 4d 31 39 36 32 44 0a 20 20 20 20 20 20
extensions:      00
checksum:        ae

EDID version: 1.3
Manufacturer: GSM Model 4bbf Serial Number --
Made in week 1 of 2009
Digital display
Maximum image size: 41 cm x 23 cm
Gamma: 2.20
DPMS levels: Standby Suspend Off
RGB color display
First detailed timing is preferred timing
Display x,y Chromaticity:
  Red:   0.6416, 0.3339
  Green: 0.3017, 0.6113
  Blue:  0.1435, 0.0693
  White: 0.3134, 0.3291
Established timings supported:
  720x400@70Hz 9:5 HorFreq: 31469 Hz Clock: 28.320 MHz
  640x480@60Hz 4:3 HorFreq: 31469 Hz Clock: 25.175 MHz
  640x480@75Hz 4:3 HorFreq: 37500 Hz Clock: 31.500 MHz
  800x600@60Hz 4:3 HorFreq: 37900 Hz Clock: 40.000 MHz
  800x600@75Hz 4:3 HorFreq: 46900 Hz Clock: 49.500 MHz
  832x624@75Hz 4:3 HorFreq: 49726 Hz Clock: 57.284 MHz
  1024x768@60Hz 4:3 HorFreq: 48400 Hz Clock: 65.000 MHz
  1024x768@75Hz 4:3 HorFreq: 60000 Hz Clock: 78.750 MHz
Standard timings supported:
  640x480@75Hz 4:3 HorFreq: 37500 Hz Clock: 31.500 MHz
  800x600@75Hz 4:3 HorFreq: 46900 Hz Clock: 49.500 MHz
  1024x768@75Hz 4:3 HorFreq: 60000 Hz Clock: 78.750 MHz
  1152x864@60Hz 4:3
  1280x800@60Hz 16:10
Detailed mode: Clock 85.000 MHz, 410 mm x 230 mm
               1360 1424 1536 1792 hborder 0
                768  771  777  795 vborder 0
               +hsync +vsync 
               VertFreq: 59 Hz, HorFreq: 47433 Hz
Detailed mode: Clock 79.500 MHz, 410 mm x 230 mm
               1280 1344 1472 1664 hborder 0
                768  771  778  798 vborder 0
               -hsync +vsync 
               VertFreq: 59 Hz, HorFreq: 47776 Hz
Monitor ranges (GTF): 56-75Hz V, 30-83kHz H, max dotclock 120MHz
Monitor name: M1962D
Checksum: 0xae (valid)
