edid-decode (hex):

00 ff ff ff ff ff ff 00 0d ae 42 17 00 00 00 00
26 18 01 04 90 26 15 78 02 94 05 a0 56 51 94 28
13 50 54 00 00 00 01 01 01 01 01 01 01 01 01 01
01 01 01 01 01 01 c8 2b 40 66 61 84 36 30 6c 48
6c 00 7e d6 10 00 00 1a 30 1d 40 66 61 84 36 30
6c 48 6c 00 7e d6 10 00 00 1a 00 00 00 00 00 00
00 00 00 00 00 00 00 00 00 00 00 00 00 00 00 02
00 0c 3a dd 0d 3c 6e 17 19 2e 7e 00 00 00 00 f1

----------------

Block 0, Base EDID:
  EDID Structure Version & Revision: 1.4
  Vendor & Product Identification:
    Manufacturer: CMN
    Model: 5954
    Made in: week 38 of 2014
  Basic Display Parameters & Features:
    Digital display
    Bits per primary color channel: 6
    Digital interface is not defined
    Maximum image size: 38 cm x 21 cm
    Gamma: 2.20
    Supported color formats: RGB 4:4:4
    First detailed timing includes the native pixel format and preferred refresh rate
  Color Characteristics:
    Red  : 0.6269, 0.3369
    Green: 0.3173, 0.5781
    Blue : 0.1562, 0.0742
    White: 0.3134, 0.3291
  Established Timings I & II: none
  Standard Timings: none
  Detailed Timing Descriptors:
    DTD 1:  1600x900    60.002184 Hz  16:9     57.242 kHz    112.080000 MHz (382 mm x 214 mm)
                 Hfront  108 Hsync  72 Hback  178 Hpol P
                 Vfront    6 Vsync  12 Vback   36 Vpol N
    DTD 2:  1600x900    40.001456 Hz  16:9     38.161 kHz     74.720000 MHz (382 mm x 214 mm)
                 Hfront  108 Hsync  72 Hback  178 Hpol P
                 Vfront    6 Vsync  12 Vback   36 Vpol N
    Empty Descriptor
    Manufacturer-Specified Display Descriptor (0x02): 00 02 00 0c 3a dd 0d 3c 6e 17 19 2e 7e 00 00 00 '....:..<n...~...'
Checksum: 0xf1

----------------

Warnings:

Block 0, Base EDID:
  Missing Display Product Name.

Failures:

Block 0, Base EDID:
  Empty Descriptor: Use Dummy Descriptor instead of all zeroes.

EDID conformity: FAIL
