edid-decode (hex):

00 ff ff ff ff ff ff 00 11 8d 00 00 92 32 fe d5
2a 09 01 04 00 00 00 ff 02 00 00 00 00 00 00 00
00 00 00 20 00 00 01 01 01 01 01 01 01 01 01 01
01 01 01 01 01 01 d5 09 80 a0 20 e0 2d 10 08 60
22 00 00 00 00 08 08 18 00 00 00 fc 00 4e 6f 20
4d 6f 6e 69 74 6f 72 0a 20 20 00 00 00 ff 00 55
53 42 5f 36 30 30 36 2d 31 39 31 30 00 00 00 00
00 00 00 00 00 00 00 00 00 00 00 00 00 00 00 64

----------------

Block 0, Base EDID:
  EDID Structure Version & Revision: 1.4
  Vendor & Product Identification:
    Manufacturer: DLM
    Model: 0
    Serial Number: ...
    Made in: week 42 of 1999
  Basic Display Parameters & Features:
    Analog display
    Signal Level Standard: 0.700 : 0.300 : 1.000 V p-p
    Blank level equals black level
    Image size is variable
    Gamma is defined in an extension block
    Monochrome or grayscale display
    First detailed timing includes the native pixel format and preferred refresh rate
  Color Characteristics:
    Red  : 0.0000, 0.0000
    Green: 0.0000, 0.0000
    Blue : 0.0000, 0.0000
    White: 0.0000, 0.0000
  Established Timings I & II:
    DMT 0x04:   640x480    59.940476 Hz   4:3     31.469 kHz     25.175000 MHz
  Standard Timings: none
  Detailed Timing Descriptors:
    DTD 1:   640x480    59.928571 Hz   4:3     31.462 kHz     25.170000 MHz
                 Hfront    8 Hsync  96 Hback   40 Hpol N Hborder 8
                 Vfront    2 Vsync   2 Vback   25 Vpol N Vborder 8
    Display Product Name: 'No Monitor'
    Display Product Serial Number: ...
    Empty Descriptor
Checksum: 0x64

----------------

Warnings:

Block 0, Base EDID:
  Detailed Timing Descriptor #1: The use of non-zero borders in a DTD is not recommended.

Failures:

Block 0, Base EDID:
  Empty Descriptor: Use Dummy Descriptor instead of all zeroes.

EDID conformity: FAIL
