
EDID (hex):
00ffffffffffff00118d0000611813fd
2a090104000000ff0200000000000000
00000021c800414081c081809500a940
b300d1c0d100302a009851002a403070
130000000000001e000000fc004e6f20
4d6f6e69746f720a2020000000ff0055
53425f343330372d3030303100000000
000000000000000000000000000001d9
1001020301730ad0b020e0141018403a
0000000000001c4d2156a251001e3048
883a0000000000001c1f10106714101b
2410e1c0000000000000000000000000
00000000000000000000000000000000
00000000000000000000000000000000
00000000000000000000000000000000
00000000000000000000000000000035

Extracted contents:
header:          00 ff ff ff ff ff ff 00
serial number:   11 8d 00 00 61 18 13 fd 2a 09
version:         01 04
basic params:    00 00 00 ff 02
chroma info:     00 00 00 00 00 00 00 00 00 00
established:     21 c8 00
standard:        41 40 81 c0 81 80 95 00 a9 40 b3 00 d1 c0 d1 00
descriptor 1:    30 2a 00 98 51 00 2a 40 30 70 13 00 00 00 00 00 00 1e
descriptor 2:    00 00 00 fc 00 4e 6f 20 4d 6f 6e 69 74 6f 72 0a 20 20
descriptor 3:    00 00 00 ff 00 55 53 42 5f 34 33 30 37 2d 30 30 30 31
descriptor 4:    00 00 00 00 00 00 00 00 00 00 00 00 00 00 00 00 00 00
extensions:      01
checksum:        d9

EDID version: 1.4
Manufacturer: DLM Model 0 Serial Number --
Analog display, Input voltage level: 0.7/0.3 V
Blank level equals black level
Sync: 
Image size is variable
Gamma is defined in an extension block
Monochrome or grayscale display
First detailed timing includes the native pixel format and preferred refresh rate
Display x,y Chromaticity:
  Red:   0.0000, 0.0000
  Green: 0.0000, 0.0000
  Blue:  0.0000, 0.0000
  White: 0.0000, 0.0000
Established timings supported:
  640x480@60Hz 4:3 HorFreq: 31469 Hz Clock: 25.175 MHz
  800x600@60Hz 4:3 HorFreq: 37900 Hz Clock: 40.000 MHz
  800x600@72Hz 4:3 HorFreq: 48100 Hz Clock: 50.000 MHz
  800x600@75Hz 4:3 HorFreq: 46900 Hz Clock: 49.500 MHz
  1024x768@60Hz 4:3 HorFreq: 48400 Hz Clock: 65.000 MHz
Standard timings supported:
  768x576@60Hz 4:3
  1280x720@60Hz 16:9
  1280x1024@60Hz 5:4 HorFreq: 64000 Hz Clock: 108.000 MHz
  1440x900@60Hz 16:10 HorFreq: 55500 Hz Clock: 88.750 MHz
  1600x1200@60Hz 4:3 HorFreq: 75000 Hz Clock: 162.000 MHz
  1680x1050@60Hz 16:10 HorFreq: 64700 Hz Clock: 119.000 MHz
  1920x1080@60Hz 16:9
  1920x1200@60Hz 16:10 HorFreq: 74000 Hz Clock: 154.000 MHz
Detailed mode: Clock 108.000 MHz, 0 mm x 0 mm
               1280 1328 1440 1688 hborder 0
               1024 1025 1028 1066 vborder 0
               +hsync +vsync 
               VertFreq: 60 Hz, HorFreq: 63981 Hz
Monitor name: No Monitor
Serial number: --
Manufacturer-specified data, tag 0
Has 1 extension blocks
Checksum: 0xd9 (valid)

VTB extension block

	Missing monitor ranges
EDID block does not conform at all!
	Has 654311424 nonconformant extension block(s)
	Bad year of manufacture


