
EDID (hex):
00ffffffffffff0022f0982801010101
041501036a291778ea2335a4554d9b25
125054a56a00314f454f614f01010101
010101010101662156aa51001e30468f
330096e51000001e000000fd00384b1e
3d09000a202020202020000000fc0048
50204c313835620a20202020000000ff
00425247313034304d305a0a20200047

Extracted contents:
header:          00 ff ff ff ff ff ff 00
serial number:   22 f0 98 28 01 01 01 01 04 15
version:         01 03
basic params:    6a 29 17 78 ea
chroma info:     23 35 a4 55 4d 9b 25 12 50 54
established:     a5 6a 00
standard:        31 4f 45 4f 61 4f 01 01 01 01 01 01 01 01 01 01
descriptor 1:    66 21 56 aa 51 00 1e 30 46 8f 33 00 96 e5 10 00 00 1e
descriptor 2:    00 00 00 fd 00 38 4b 1e 3d 09 00 0a 20 20 20 20 20 20
descriptor 3:    00 00 00 fc 00 48 50 20 4c 31 38 35 62 0a 20 20 20 20
descriptor 4:    00 00 00 ff 00 42 52 47 31 30 34 30 4d 30 5a 0a 20 20
extensions:      00
checksum:        47

EDID version: 1.3
Manufacturer: HWP Model 2898 Serial Number --
Made in week 4 of 2011
Analog display, Input voltage level: 0.7/0.7 V
Sync: Separate SyncOnGreen 
Maximum image size: 41 cm x 23 cm
Gamma: 2.20
DPMS levels: Standby Suspend Off
RGB color display
First detailed timing is preferred timing
Display x,y Chromaticity:
  Red:   0.6406, 0.3339
  Green: 0.3007, 0.6083
  Blue:  0.1445, 0.0732
  White: 0.3134, 0.3291
Established timings supported:
  720x400@70Hz 9:5 HorFreq: 31469 Hz Clock: 28.320 MHz
  640x480@60Hz 4:3 HorFreq: 31469 Hz Clock: 25.175 MHz
  640x480@75Hz 4:3 HorFreq: 37500 Hz Clock: 31.500 MHz
  800x600@60Hz 4:3 HorFreq: 37900 Hz Clock: 40.000 MHz
  800x600@75Hz 4:3 HorFreq: 46900 Hz Clock: 49.500 MHz
  832x624@75Hz 4:3 HorFreq: 49726 Hz Clock: 57.284 MHz
  1024x768@60Hz 4:3 HorFreq: 48400 Hz Clock: 65.000 MHz
  1024x768@75Hz 4:3 HorFreq: 60000 Hz Clock: 78.750 MHz
Standard timings supported:
  640x480@75Hz 4:3 HorFreq: 37500 Hz Clock: 31.500 MHz
  800x600@75Hz 4:3 HorFreq: 46900 Hz Clock: 49.500 MHz
  1024x768@75Hz 4:3 HorFreq: 60000 Hz Clock: 78.750 MHz
Detailed mode: Clock 85.500 MHz, 406 mm x 229 mm
               1366 1436 1579 1792 hborder 0
                768  771  774  798 vborder 0
               +hsync +vsync 
               VertFreq: 59 Hz, HorFreq: 47712 Hz
Monitor ranges (GTF): 56-75Hz V, 30-61kHz H, max dotclock 90MHz
Monitor name: HP L185b
Serial number: --
Checksum: 0x47 (valid)
