
EDID (hex):
00ffffffffffff0009e53b0a00000000
1c1f0104b5221578038235a5534a9e26
0f505400000001010101010101010101
010101010101347000a0a040a0603020
360058d710000018000000fd0c3cf0a7
a773010a202020202020000000fe0042
4f452043510a202020202020000000fe
004e4531363051444d2d4e5a310a017d
7013790000030114cdc00185ff099f00
2f001f003f069f000200050000000000
00000000000000000000000000000000
00000000000000000000000000000000
00000000000000000000000000000000
00000000000000000000000000000000
00000000000000000000000000000000
00000000000000000000000000006990

Extracted contents:
header:          00 ff ff ff ff ff ff 00
serial number:   09 e5 3b 0a 00 00 00 00 1c 1f
version:         01 04
basic params:    b5 22 15 78 03
chroma info:     82 35 a5 53 4a 9e 26 0f 50 54
established:     00 00 00
standard:        01 01 01 01 01 01 01 01 01 01 01 01 01 01 01 01
descriptor 1:    34 70 00 a0 a0 40 a0 60 30 20 36 00 58 d7 10 00 00 18
descriptor 2:    00 00 00 fd 0c 3c f0 a7 a7 73 01 0a 20 20 20 20 20 20
descriptor 3:    00 00 00 fe 00 42 4f 45 20 43 51 0a 20 20 20 20 20 20
descriptor 4:    00 00 00 fe 00 4e 45 31 36 30 51 44 4d 2d 4e 5a 31 0a
extensions:      01
checksum:        7d

EDID version: 1.4
Manufacturer: BOE Model a3b Serial Number --
Made in week 28 of 2021
Digital display
10 bits per primary color channel
DisplayPort interface
Maximum image size: 34 cm x 21 cm
Gamma: 2.20
Supported color formats: RGB 4:4:4
First detailed timing includes the native pixel format and preferred refresh rate
Display is continuous frequency
Display x,y Chromaticity:
  Red:   0.6464, 0.3242
  Green: 0.2890, 0.6191
  Blue:  0.1484, 0.0615
  White: 0.3134, 0.3291
Established timings supported:
Standard timings supported:
Detailed mode: Clock 287.240 MHz, 344 mm x 215 mm
               2560 2608 2640 2720 hborder 0
               1600 1603 1609 1760 vborder 0
               -hsync -vsync 
               VertFreq: 60 Hz, HorFreq: 105602 Hz
Monitor ranges (bare limits): 60-240Hz V, 167-422kHz H, max dotclock 1150MHz
ASCII string: BOE CQ
ASCII string: NE160QDM-NZ1
Has 1 extension blocks
Checksum: 0x7d (valid)

DisplayID extension block
Extension version: 19
Length 121, version 19, extension count 0
Checksum: 0x69 (valid)
Type 1 detailed timing: aspect: 16:10, Preferred  
Detailed mode: Clock 1148.930 MHz, 0 mm x 0 mm
               2559 2606 2637 2718
               1599 1601 1606 1758
               -hsync -vsync

EDID block does NOT conform to EDID 1.4!
	Missing name descriptor
Warning: One or more of the timings is out of range of the Monitor Ranges:
  Vertical Freq: 60 - 60 Hz
  Horizontal Freq: 105602 - 105602 Hz
  Maximum Clock: 287.240 MHz
EDID block does not conform at all!
	Has -2097152000 nonconformant extension block(s)
