
EDID (hex):
00ffffffffffff0022f0084002000000
18130103802c1978ee6a80a5554d9d25
115054010800a9c095008bc081c08180
010101010101322640a060841a303020
3500bbf91000001e322640a060841a30
30203500bbf91000001e000000fc0048
5020546f756368536d617274000000fd
0037411a410d000a202020202020000f

Extracted contents:
header:          00 ff ff ff ff ff ff 00
serial number:   22 f0 08 40 02 00 00 00 18 13
version:         01 03
basic params:    80 2c 19 78 ee
chroma info:     6a 80 a5 55 4d 9d 25 11 50 54
established:     01 08 00
standard:        a9 c0 95 00 8b c0 81 c0 81 80 01 01 01 01 01 01
descriptor 1:    32 26 40 a0 60 84 1a 30 30 20 35 00 bb f9 10 00 00 1e
descriptor 2:    32 26 40 a0 60 84 1a 30 30 20 35 00 bb f9 10 00 00 1e
descriptor 3:    00 00 00 fc 00 48 50 20 54 6f 75 63 68 53 6d 61 72 74
descriptor 4:    00 00 00 fd 00 37 41 1a 41 0d 00 0a 20 20 20 20 20 20
extensions:      00
checksum:        0f

EDID version: 1.3
Manufacturer: HWP Model 4008 Serial Number --
Made in week 24 of 2009
Digital display
Maximum image size: 44 cm x 25 cm
Gamma: 2.20
DPMS levels: Standby Suspend Off
RGB color display
Default (sRGB) color space is primary color space
First detailed timing is preferred timing
Display x,y Chromaticity:
  Red:   0.6455, 0.3339
  Green: 0.3027, 0.6152
  Blue:  0.1464, 0.0664
  White: 0.3125, 0.3281
Established timings supported:
  800x600@60Hz 4:3 HorFreq: 37900 Hz Clock: 40.000 MHz
  1024x768@60Hz 4:3 HorFreq: 48400 Hz Clock: 65.000 MHz
Standard timings supported:
  1600x900@60Hz 16:9
  1440x900@60Hz 16:10 HorFreq: 55500 Hz Clock: 88.750 MHz
  1360x765@60Hz 16:9
  1280x720@60Hz 16:9
  1280x1024@60Hz 5:4 HorFreq: 64000 Hz Clock: 108.000 MHz
Detailed mode: Clock 97.780 MHz, 443 mm x 249 mm
               1600 1648 1680 1760 hborder 0
                900  903  908  926 vborder 0
               +hsync +vsync 
               VertFreq: 59 Hz, HorFreq: 55556 Hz
Detailed mode: Clock 97.780 MHz, 443 mm x 249 mm
               1600 1648 1680 1760 hborder 0
                900  903  908  926 vborder 0
               +hsync +vsync 
               VertFreq: 59 Hz, HorFreq: 55556 Hz
Monitor ranges (GTF): 55-65Hz V, 26-65kHz H, max dotclock 130MHz
Checksum: 0xf (valid)
EDID block does NOT conform to EDID 1.3!
	sRGB is signaled, but the chromaticities do not match
	Name descriptor not terminated with a newline
