edid-decode (hex):

00 ff ff ff ff ff ff 00 06 af 63 9c 01 01 01 01
00 13 01 04 a5 10 0c 78 0a bc 95 a8 51 33 aa 26
0f 50 54 00 08 00 01 41 01 41 01 41 01 41 01 41
01 41 01 41 01 41 ce 18 00 30 41 00 1e 30 30 68
34 00 dc 0c 11 00 00 18 00 00 00 10 00 06 10 30
11 01 00 00 00 00 00 00 0a 20 00 00 00 fe 00 0a
20 20 20 20 20 20 20 20 20 20 20 20 00 00 00 fc
00 31 30 32 34 78 37 36 38 0a 20 20 20 20 00 d5

00 ff ff ff ff ff ff 00 06 af 63 9c 01 01 01 01
00 13 01 04 a5 10 0c 78 0a bc 95 a8 51 33 aa 26
0f 50 54 00 08 00 01 41 01 41 01 41 01 41 01 41
01 41 01 41 01 41 ce 18 00 30 41 00 1e 30 30 68
34 00 dc 0c 11 00 00 18 00 00 00 10 00 06 10 30
11 01 00 00 00 00 00 00 0a 20 00 00 00 fe 00 0a
20 20 20 20 20 20 20 20 20 20 20 20 00 00 00 fc
00 31 30 32 34 78 37 36 38 0a 20 20 20 20 00 d5

----------------

Block 0, Base EDID:
  EDID Structure Version & Revision: 1.4
  Vendor & Product Identification:
    Manufacturer: AUO
    Model: 40035
    Serial Number: ...
    Made in: 2009
  Basic Display Parameters & Features:
    Digital display
    Bits per primary color channel: 8
    DisplayPort interface
    Maximum image size: 16 cm x 12 cm
    Gamma: 2.20
    Supported color formats: RGB 4:4:4, YCrCb 4:4:4
    First detailed timing includes the native pixel format and preferred refresh rate
  Color Characteristics:
    Red  : 0.6582, 0.3193
    Green: 0.2021, 0.6640
    Blue : 0.1503, 0.0595
    White: 0.3134, 0.3291
  Established Timings I & II:
    DMT 0x10:  1024x768    60.003840 Hz   4:3     48.363 kHz     65.000000 MHz
  Standard Timings:
  Detailed Timing Descriptors:
    DTD 1:  1024x768    59.920132 Hz   4:3     47.816 kHz     63.500000 MHz (476 mm x 268 mm)
                 Hfront   48 Hsync 104 Hback  152 Hpol N
                 Vfront    3 Vsync   4 Vback   23 Vpol N
    Dummy Descriptor:
    Alphanumeric Data String: ''
    Display Product Name: '1024x768'
Checksum: 0xd5

----------------

Block 1, Unknown EDID Extension Block 0x00:
  00 ff ff ff ff ff ff 00 06 af 63 9c 01 01 01 01 '..........c.....'
  00 13 01 04 a5 10 0c 78 0a bc 95 a8 51 33 aa 26 '.......x....Q3.&'
  0f 50 54 00 08 00 01 41 01 41 01 41 01 41 01 41 '.PT....A.A.A.A.A'
  01 41 01 41 01 41 ce 18 00 30 41 00 1e 30 30 68 '.A.A.A...0A..00h'
  34 00 dc 0c 11 00 00 18 00 00 00 10 00 06 10 30 '4..............0'
  11 01 00 00 00 00 00 00 0a 20 00 00 00 fe 00 0a '......... ......'
  20 20 20 20 20 20 20 20 20 20 20 20 00 00 00 fc '            ....'
  00 31 30 32 34 78 37 36 38 0a 20 20 20 20 00 d5 '.1024x768.    ..'
Checksum: 0xd5

----------------

Failures:

Block 0, Base EDID:
  Standard Timings: Use 0x0101 as the invalid Standard Timings code, not 0x0141.
  Standard Timings: Use 0x0101 as the invalid Standard Timings code, not 0x0141.
  Standard Timings: Use 0x0101 as the invalid Standard Timings code, not 0x0141.
  Standard Timings: Use 0x0101 as the invalid Standard Timings code, not 0x0141.
  Standard Timings: Use 0x0101 as the invalid Standard Timings code, not 0x0141.
  Standard Timings: Use 0x0101 as the invalid Standard Timings code, not 0x0141.
  Standard Timings: Use 0x0101 as the invalid Standard Timings code, not 0x0141.
  Standard Timings: Use 0x0101 as the invalid Standard Timings code, not 0x0141.
  Detailed Timing Descriptor #1: Mismatch of image size 476x268 mm vs display size 160x120 mm.
  Dummy Descriptor: Dummy block filled with garbage.
  Alphanumeric Data String: Empty string.
Block 1, Base EDID:
  Unknown Extension Block.
EDID:
  Base EDID: The DTD max image size is 476x268mm, which is larger than the display size 160.0x120.0mm.
  Base EDID: EDID specified 0 extension block(s), but found 1 extension block(s).

EDID conformity: FAIL
