
EDID (hex):
00ffffffffffff0030ae007001000000
01190104a52c18780a014ca755469924
12484b00000001010101010101010101
010101010101c82d400062841a30fa0c
c200b0ef1000001e00000010000a2020
20202020202020202020000000fd0039
3e1e5a14350055502100001a000000fc
004c454e2d4d3730307a2d440a200082

Extracted contents:
header:          00 ff ff ff ff ff ff 00
serial number:   30 ae 00 70 01 00 00 00 01 19
version:         01 04
basic params:    a5 2c 18 78 0a
chroma info:     01 4c a7 55 46 99 24 12 48 4b
established:     00 00 00
standard:        01 01 01 01 01 01 01 01 01 01 01 01 01 01 01 01
descriptor 1:    c8 2d 40 00 62 84 1a 30 fa 0c c2 00 b0 ef 10 00 00 1e
descriptor 2:    00 00 00 10 00 0a 20 20 20 20 20 20 20 20 20 20 20 20
descriptor 3:    00 00 00 fd 00 39 3e 1e 5a 14 35 00 55 50 21 00 00 1a
descriptor 4:    00 00 00 fc 00 4c 45 4e 2d 4d 37 30 30 7a 2d 44 0a 20
extensions:      00
checksum:        82

EDID version: 1.4
Manufacturer: LEN Model 7000 Serial Number --
Made in week 1 of 2015
Digital display
8 bits per primary color channel
DisplayPort interface
Maximum image size: 44 cm x 24 cm
Gamma: 2.20
Supported color formats: RGB 4:4:4, YCrCb 4:4:4
First detailed timing includes the native pixel format and preferred refresh rate
Display x,y Chromaticity:
  Red:   0.6523, 0.3320
  Green: 0.2734, 0.5986
  Blue:  0.1416, 0.0703
  White: 0.2841, 0.2929
Established timings supported:
Standard timings supported:
Detailed mode: Clock 117.200 MHz, 432 mm x 239 mm
               1600 1850 1862 2112 hborder 0
                900  912  914  926 vborder 0
               +hsync +vsync 
               VertFreq: 59 Hz, HorFreq: 55492 Hz
Dummy block
Monitor ranges (invalid): 57-62Hz V, 30-90kHz H, max dotclock 200MHz
Monitor name: LEN-M700z-D
Checksum: 0x82 (valid)
EDID block does not conform at all!
	Detailed blocks filled with garbage
	Dummy block filled with garbage
	Range descriptor contains garbage
