
EDID (hex):
00ffffffffffff001e6df85b5a4f0400
06200104b5431c789fe265a6544ba326
0f5054210800d1c06140010101010101
010101010101cd4600a0a0381f403020
3a00a11c2100001a023a801871382d40
582c4500a11c2100001e000000fd0028
6473731e010a202020202020000000fc
004c4720554c545241574944450a01d8
02032f7323090707830100004b59101f
04131203015d5e5f681a000001012864
00e2006ae305c000e60605014a4a5650
7800a0a038354030203a00a11c210000
1a295900a0a038274030203a00a11c21
00001a00000000000000000000000000
00000000000000000000000000000000
00000000000000000000000000000087

Extracted contents:
header:          00 ff ff ff ff ff ff 00
serial number:   1e 6d f8 5b 5a 4f 04 00 06 20
version:         01 04
basic params:    b5 43 1c 78 9f
chroma info:     e2 65 a6 54 4b a3 26 0f 50 54
established:     21 08 00
standard:        d1 c0 61 40 01 01 01 01 01 01 01 01 01 01 01 01
descriptor 1:    cd 46 00 a0 a0 38 1f 40 30 20 3a 00 a1 1c 21 00 00 1a
descriptor 2:    02 3a 80 18 71 38 2d 40 58 2c 45 00 a1 1c 21 00 00 1e
descriptor 3:    00 00 00 fd 00 28 64 73 73 1e 01 0a 20 20 20 20 20 20
descriptor 4:    00 00 00 fc 00 4c 47 20 55 4c 54 52 41 57 49 44 45 0a
extensions:      01
checksum:        d8

EDID version: 1.4
Manufacturer: GSM Model 5bf8 Serial Number --
Made in week 6 of 2022
Digital display
10 bits per primary color channel
DisplayPort interface
Maximum image size: 67 cm x 28 cm
Gamma: 2.20
DPMS levels: Standby
Supported color formats: RGB 4:4:4, YCrCb 4:4:4, YCrCb 4:2:2
Default (sRGB) color space is primary color space
First detailed timing includes the native pixel format and preferred refresh rate
Display is continuous frequency
Display x,y Chromaticity:
  Red:   0.6513, 0.3300
  Green: 0.2929, 0.6386
  Blue:  0.1494, 0.0605
  White: 0.3134, 0.3291
Established timings supported:
  640x480@60Hz 4:3 HorFreq: 31469 Hz Clock: 25.175 MHz
  800x600@60Hz 4:3 HorFreq: 37900 Hz Clock: 40.000 MHz
  1024x768@60Hz 4:3 HorFreq: 48400 Hz Clock: 65.000 MHz
Standard timings supported:
  1920x1080@60Hz 16:9
  1024x768@60Hz 4:3 HorFreq: 48400 Hz Clock: 65.000 MHz
Detailed mode: Clock 181.250 MHz, 673 mm x 284 mm
               2560 2608 2640 2720 hborder 0
               1080 1083 1093 1111 vborder 0
               +hsync -vsync 
               VertFreq: 59 Hz, HorFreq: 66636 Hz
Detailed mode: Clock 148.500 MHz, 673 mm x 284 mm
               1920 2008 2052 2200 hborder 0
               1080 1084 1089 1125 vborder 0
               +hsync +vsync 
               VertFreq: 60 Hz, HorFreq: 67500 Hz
Monitor ranges (bare limits): 40-100Hz V, 115-115kHz H, max dotclock 300MHz
Monitor name: LG ULTRAWIDE
Has 1 extension blocks
Checksum: 0xd8 (valid)

CTA extension block
Extension version: 3
43 bytes of CTA data
  Audio data block
    Linear PCM, max channels 2
      Supported sample rates (kHz): 48 44.1 32
      Supported sample sizes (bits): 24 20 16
  Speaker allocation data block
    Speaker map:
      FL/FR - Front Left/Right
  Video data block
    VIC  89 2560x1080@50Hz 64:27  HorFreq: 56250 Hz Clock: 185.625 MHz
    VIC  16 1920x1080@60Hz 16:9  HorFreq: 67500 Hz Clock: 148.500 MHz
    VIC  31 1920x1080@50Hz 16:9  HorFreq: 56250 Hz Clock: 148.500 MHz
    VIC   4 1280x720@60Hz 16:9  HorFreq: 45000 Hz Clock: 74.250 MHz
    VIC  19 1280x720@50Hz 16:9  HorFreq: 37500 Hz Clock: 74.250 MHz
    VIC  18 720x576@50Hz 16:9  HorFreq: 31250 Hz Clock: 27.000 MHz
    VIC   3 720x480@60Hz 16:9  HorFreq: 31469 Hz Clock: 27.000 MHz
    VIC   1 640x480@60Hz 4:3  HorFreq: 31469 Hz Clock: 25.175 MHz
    VIC  93 3840x2160@24Hz 16:9  HorFreq: 54000 Hz Clock: 297.000 MHz
    VIC  94 3840x2160@25Hz 16:9  HorFreq: 56250 Hz Clock: 297.000 MHz
    VIC  95 3840x2160@30Hz 16:9  HorFreq: 67500 Hz Clock: 297.000 MHz
  Vendor-specific data block, OUI 00001a
  Extended tag: Video capability data block
    YCbCr quantization: No Data (0)
    RGB quantization: Selectable (via AVI Q) (1)
    PT scan behaviour: Always Underscanned (2)
    IT scan behaviour: Always Underscanned (2)
    CE scan behaviour: Always Underscanned (2)
  Extended tag: Colorimetry data block
    BT2020YCC
    BT2020RGB
  Extended tag: HDR static metadata data block
    Electro optical transfer functions:
      Traditional gamma - SDR luminance range
      SMPTE ST2084
    Supported static metadata descriptors:
      Static metadata type 1
    Desired content max luminance: 74 (248.372 cd/m^2)
    Desired content max frame-average luminance: 74 (248.372 cd/m^2)
    Desired content min luminance: 86 (0.282 cd/m^2)
Basic audio support
Supports YCbCr 4:4:4
Supports YCbCr 4:2:2
3 native detailed modes
Detailed mode: Clock 308.000 MHz, 673 mm x 284 mm
               2560 2608 2640 2720 hborder 0
               1080 1083 1093 1133 vborder 0
               +hsync -vsync 
               VertFreq: 99 Hz, HorFreq: 113235 Hz
Detailed mode: Clock 228.250 MHz, 673 mm x 284 mm
               2560 2608 2640 2720 hborder 0
               1080 1083 1093 1119 vborder 0
               +hsync -vsync 
               VertFreq: 74 Hz, HorFreq: 83915 Hz
Checksum: 0x87 (valid)

EDID block does NOT conform to EDID 1.4!
	sRGB is signaled, but the chromaticities do not match
Warning: One or more of the timings is out of range of the Monitor Ranges:
  Vertical Freq: 24 - 99 Hz
  Horizontal Freq: 31250 - 113235 Hz
  Maximum Clock: 308.000 MHz
