
EDID (hex):
00ffffffffffff000dae821300000000
031c0104a51d117802ee95a3544c9926
0f505400000001010101010101010101
010101010101b43b804a713834403020
360025a51000001ab43b804a71384f41
3020360025a51000001a000000fe0032
4d4d4832803133334843450a00000000
000141019e001000000a010a202000c6

Extracted contents:
header:          00 ff ff ff ff ff ff 00
serial number:   0d ae 82 13 00 00 00 00 03 1c
version:         01 04
basic params:    a5 1d 11 78 02
chroma info:     ee 95 a3 54 4c 99 26 0f 50 54
established:     00 00 00
standard:        01 01 01 01 01 01 01 01 01 01 01 01 01 01 01 01
descriptor 1:    b4 3b 80 4a 71 38 34 40 30 20 36 00 25 a5 10 00 00 1a
descriptor 2:    b4 3b 80 4a 71 38 4f 41 30 20 36 00 25 a5 10 00 00 1a
descriptor 3:    00 00 00 fe 00 32 4d 4d 48 32 80 31 33 33 48 43 45 0a
descriptor 4:    00 00 00 00 00 01 41 01 9e 00 10 00 00 0a 01 0a 20 20
extensions:      00
checksum:        c6

EDID version: 1.4
Manufacturer: CMN Model 1382 Serial Number --
Made in week 3 of 2018
Digital display
8 bits per primary color channel
DisplayPort interface
Maximum image size: 29 cm x 17 cm
Gamma: 2.20
Supported color formats: RGB 4:4:4
First detailed timing includes the native pixel format and preferred refresh rate
Display x,y Chromaticity:
  Red:   0.6396, 0.3300
  Green: 0.2998, 0.5996
  Blue:  0.1503, 0.0595
  White: 0.3134, 0.3291
Established timings supported:
Standard timings supported:
Detailed mode: Clock 152.840 MHz, 293 mm x 165 mm
               1920 1968 2000 2250 hborder 0
               1080 1083 1089 1132 vborder 0
               +hsync -vsync 
               VertFreq: 60 Hz, HorFreq: 67928 Hz
Detailed mode: Clock 152.840 MHz, 293 mm x 165 mm
               1920 1968 2000 2250 hborder 0
               1080 1083 1089 1415 vborder 0
               +hsync -vsync 
               VertFreq: 48 Hz, HorFreq: 67928 Hz
ASCII string: 2MMH2
Manufacturer-specified data, tag 0
Checksum: 0xc6 (valid)
EDID block does NOT conform to EDID 1.4!
	Missing name descriptor
	Missing monitor ranges
	Detailed block string not properly terminated
