edid-decode (hex):

00 ff ff ff ff ff ff 00 36 09 02 70 01 00 00 00
01 11 01 03 80 12 0d 00 0a 00 00 00 00 00 00 00
00 00 00 00 00 00 45 c0 61 c0 71 c0 81 c0 8b c0
95 c0 a9 c0 d1 c0 24 13 00 20 41 58 16 20 05 0d
23 00 ff ff 00 00 00 1c 00 00 00 fc 00 4d 50 49
37 30 30 32 0a 20 20 20 20 20 00 00 00 10 00 00
00 00 00 00 00 00 00 00 00 00 00 00 00 00 00 10
00 00 00 00 00 00 00 00 00 00 00 00 00 00 00 79

----------------

Block 0, Base EDID:
  EDID Structure Version & Revision: 1.3
  Vendor & Product Identification:
    Manufacturer: MPI
    Model: 28674
    Serial Number: ...
    Made in: week 1 of 2007
  Basic Display Parameters & Features:
    Digital display
    Maximum image size: 18 cm x 13 cm
    Gamma: 1.00
    RGB color display
    First detailed timing is the preferred timing
  Color Characteristics:
    Red  : 0.0000, 0.0000
    Green: 0.0000, 0.0000
    Blue : 0.0000, 0.0000
    White: 0.0000, 0.0000
  Established Timings I & II: none
  Standard Timings:
    GTF     :   800x456    60.000 Hz  16:9    28.380 kHz  28.153 MHz
    GTF     :  1024x576    60.000 Hz  16:9    35.820 kHz  46.996 MHz
    GTF     :  1152x648    60.000 Hz  16:9    40.260 kHz  59.907 MHz
    DMT 0x55:  1280x720    60.000 Hz  16:9    45.000 kHz  74.250 MHz
    GTF     :  1360x768    60.000 Hz  16:9    47.700 kHz  84.715 MHz
    GTF     :  1440x816    60.000 Hz  16:9    50.700 kHz  96.533 MHz
    DMT 0x53:  1600x900    60.000 Hz  16:9    60.000 kHz 108.000 MHz (RB)
    DMT 0x52:  1920x1080   60.000 Hz  16:9    67.500 kHz 148.500 MHz
  Detailed Timing Descriptors:
    DTD 1:  1024x600    60.044 Hz 128:75   37.348 kHz  49.000 MHz (255 mm x 255 mm)
                 Hfront    5 Hsync  13 Hback 270 Hpol N
                 Vfront    2 Vsync   3 Vback  17 Vpol P
    Display Product Name: 'MPI7002'
    Dummy Descriptor:
    Dummy Descriptor:
Checksum: 0x79

----------------

Failures:

Block 0, Base EDID:
  Detailed Timing Descriptor #1: Mismatch of image size 255x255 mm vs display size 180x130 mm.
  Missing Display Range Limits Descriptor.
EDID:
  Base EDID: GTF timings are used, but the EDID does not signal GTF support.

EDID conformity: FAIL
