
EDID (hex):
00ffffffffffff0010ac09e04c523131
0e100103ee2b1b78ea0195a3574c9c25
125054a54b008180714f010101010101
0101010101017c2e90a0601a1e403020
3600b20e1100001a000000ff00543631
33303634353131524c0a000000fd0038
4b1e530e000a202020202020000000fc
0044454c4c20323030354650570a00ec

Extracted contents:
header:          00 ff ff ff ff ff ff 00
serial number:   10 ac 09 e0 4c 52 31 31 0e 10
version:         01 03
basic params:    ee 2b 1b 78 ea
chroma info:     01 95 a3 57 4c 9c 25 12 50 54
established:     a5 4b 00
standard:        81 80 71 4f 01 01 01 01 01 01 01 01 01 01 01 01
descriptor 1:    7c 2e 90 a0 60 1a 1e 40 30 20 36 00 b2 0e 11 00 00 1a
descriptor 2:    00 00 00 ff 00 54 36 31 33 30 36 34 35 31 31 52 4c 0a
descriptor 3:    00 00 00 fd 00 38 4b 1e 53 0e 00 0a 20 20 20 20 20 20
descriptor 4:    00 00 00 fc 00 44 45 4c 4c 20 32 30 30 35 46 50 57 0a
extensions:      00
checksum:        ec

EDID version: 1.3
Manufacturer: DEL Model e009 Serial Number --
Made in week 14 of 2006
Digital display
Maximum image size: 43 cm x 27 cm
Gamma: 2.20
DPMS levels: Standby Suspend Off
RGB color display
First detailed timing is preferred timing
Display x,y Chromaticity:
  Red:   0.6367, 0.3398
  Green: 0.2968, 0.6103
  Blue:  0.1464, 0.0712
  White: 0.3134, 0.3291
Established timings supported:
  720x400@70Hz 9:5 HorFreq: 31469 Hz Clock: 28.320 MHz
  640x480@60Hz 4:3 HorFreq: 31469 Hz Clock: 25.175 MHz
  640x480@75Hz 4:3 HorFreq: 37500 Hz Clock: 31.500 MHz
  800x600@60Hz 4:3 HorFreq: 37900 Hz Clock: 40.000 MHz
  800x600@75Hz 4:3 HorFreq: 46900 Hz Clock: 49.500 MHz
  1024x768@60Hz 4:3 HorFreq: 48400 Hz Clock: 65.000 MHz
  1024x768@75Hz 4:3 HorFreq: 60000 Hz Clock: 78.750 MHz
  1280x1024@75Hz 5:4 HorFreq: 80000 Hz Clock: 135.000 MHz
Standard timings supported:
  1280x1024@60Hz 5:4 HorFreq: 64000 Hz Clock: 108.000 MHz
  1152x864@75Hz 4:3 HorFreq: 67500 Hz Clock: 108.000 MHz
Detailed mode: Clock 119.000 MHz, 434 mm x 270 mm
               1680 1728 1760 1840 hborder 0
               1050 1053 1059 1080 vborder 0
               +hsync -vsync 
               VertFreq: 59 Hz, HorFreq: 64673 Hz
Serial number: --
Monitor ranges (GTF): 56-75Hz V, 30-83kHz H, max dotclock 140MHz
Monitor name: DELL 2005FPW
Checksum: 0xec (valid)
EDID block does NOT conform to EDID 1.3!
	Digital display field contains garbage: 6e
