
EDID (hex):
00ffffffffffff003438ad062c040000
180e0103a8221b00e8e73a9b57499024
164a50bfef8031404540614081800101
010101010101302a009851002a403070
1300520e1100001e000000fd00384b1e
540e000a202020202020000000fc0042
5f3130313735310a2020202000000010
20202020202020202020202020200053

Extracted contents:
header:          00 ff ff ff ff ff ff 00
serial number:   34 38 ad 06 2c 04 00 00 18 0e
version:         01 03
basic params:    a8 22 1b 00 e8
chroma info:     e7 3a 9b 57 49 90 24 16 4a 50
established:     bf ef 80
standard:        31 40 45 40 61 40 81 80 01 01 01 01 01 01 01 01
descriptor 1:    30 2a 00 98 51 00 2a 40 30 70 13 00 52 0e 11 00 00 1e
descriptor 2:    00 00 00 fd 00 38 4b 1e 54 0e 00 0a 20 20 20 20 20 20
descriptor 3:    00 00 00 fc 00 42 5f 31 30 31 37 35 31 0a 20 20 20 20
descriptor 4:    00 00 00 10 20 20 20 20 20 20 20 20 20 20 20 20 20 20
extensions:      00
checksum:        53

EDID version: 1.3
Manufacturer: MAX Model 6ad Serial Number --
Digital display
Maximum image size: 34 cm x 27 cm
Gamma: 1.00
DPMS levels: Standby Suspend Off
RGB color display
Display x,y Chromaticity:
  Red:   0.6083, 0.3417
  Green: 0.2861, 0.5654
  Blue:  0.1406, 0.0888
  White: 0.2910, 0.3144
Established timings supported:
  720x400@70Hz 9:5 HorFreq: 31469 Hz Clock: 28.320 MHz
  640x480@60Hz 4:3 HorFreq: 31469 Hz Clock: 25.175 MHz
  640x480@67Hz 4:3 HorFreq: 35000 Hz Clock: 30.240 MHz
  640x480@72Hz 4:3 HorFreq: 37900 Hz Clock: 31.500 MHz
  640x480@75Hz 4:3 HorFreq: 37500 Hz Clock: 31.500 MHz
  800x600@56Hz 4:3 HorFreq: 35200 Hz Clock: 36.000 MHz
  800x600@60Hz 4:3 HorFreq: 37900 Hz Clock: 40.000 MHz
  800x600@72Hz 4:3 HorFreq: 48100 Hz Clock: 50.000 MHz
  800x600@75Hz 4:3 HorFreq: 46900 Hz Clock: 49.500 MHz
  832x624@75Hz 4:3 HorFreq: 49726 Hz Clock: 57.284 MHz
  1024x768@60Hz 4:3 HorFreq: 48400 Hz Clock: 65.000 MHz
  1024x768@70Hz 4:3 HorFreq: 56500 Hz Clock: 75.000 MHz
  1024x768@75Hz 4:3 HorFreq: 60000 Hz Clock: 78.750 MHz
  1280x1024@75Hz 5:4 HorFreq: 80000 Hz Clock: 135.000 MHz
  1152x870@75Hz 192:145 HorFreq: 67500 Hz Clock: 108.000 MHz
Standard timings supported:
  640x480@60Hz 4:3 HorFreq: 31469 Hz Clock: 25.175 MHz
  800x600@60Hz 4:3 HorFreq: 37900 Hz Clock: 40.000 MHz
  1024x768@60Hz 4:3 HorFreq: 48400 Hz Clock: 65.000 MHz
  1280x1024@60Hz 5:4 HorFreq: 64000 Hz Clock: 108.000 MHz
Detailed mode: Clock 108.000 MHz, 338 mm x 270 mm
               1280 1328 1440 1688 hborder 0
               1024 1025 1028 1066 vborder 0
               +hsync +vsync 
               VertFreq: 60 Hz, HorFreq: 63981 Hz
Monitor ranges (GTF): 56-75Hz V, 30-84kHz H, max dotclock 140MHz
Monitor name: B_101751
Monitor descriptor block has byte 4 nonzero (0x20)
Dummy block
Checksum: 0x53 (valid)
EDID block does NOT conform to EDID 1.3!
	Digital display field contains garbage: 28
	Missing preferred timing
	Invalid descriptor block padding
EDID block does not conform at all!
	Bad year of manufacture
	Dummy block filled with garbage
