
EDID (hex):
00ffffffffffff003103404300000000
1a1d0104b56921783b64f5ad5049a322
135054a54b00d1c0b3009500818081c0
8140a9c0714ff07400c8f0b023403020
35001c494100001a49e900b4f0b02640
302035001c494100001a000000fc0044
47564945573433300a202020000000fd
00307896963f010a20202020202001cd
020323f44b010203049012131f11593f
2309070783010000e305e301e6060701
605928f27f807870382340302035001c
494100001e154700a0a0382340302035
001c494100001e083d80b470b0284032
2035001c494100001e00000000000000
00000000000000000000000000000000
0000000000000000000000000000002a

Extracted contents:
header:          00 ff ff ff ff ff ff 00
serial number:   31 03 40 43 00 00 00 00 1a 1d
version:         01 04
basic params:    b5 69 21 78 3b
chroma info:     64 f5 ad 50 49 a3 22 13 50 54
established:     a5 4b 00
standard:        d1 c0 b3 00 95 00 81 80 81 c0 81 40 a9 c0 71 4f
descriptor 1:    f0 74 00 c8 f0 b0 23 40 30 20 35 00 1c 49 41 00 00 1a
descriptor 2:    49 e9 00 b4 f0 b0 26 40 30 20 35 00 1c 49 41 00 00 1a
descriptor 3:    00 00 00 fc 00 44 47 56 49 45 57 34 33 30 0a 20 20 20
descriptor 4:    00 00 00 fd 00 30 78 96 96 3f 01 0a 20 20 20 20 20 20
extensions:      01
checksum:        cd

EDID version: 1.4
Manufacturer: LHC Model 4340 Serial Number --
Made in week 26 of 2019
Digital display
10 bits per primary color channel
DisplayPort interface
Maximum image size: 105 cm x 33 cm
Gamma: 2.20
DPMS levels: Off
Supported color formats: RGB 4:4:4, YCrCb 4:4:4, YCrCb 4:2:2
First detailed timing includes the native pixel format and preferred refresh rate
Display is continuous frequency
Display x,y Chromaticity:
  Red:   0.6767, 0.3144
  Green: 0.2861, 0.6367
  Blue:  0.1357, 0.0771
  White: 0.3134, 0.3291
Established timings supported:
  720x400@70Hz 9:5 HorFreq: 31469 Hz Clock: 28.320 MHz
  640x480@60Hz 4:3 HorFreq: 31469 Hz Clock: 25.175 MHz
  640x480@75Hz 4:3 HorFreq: 37500 Hz Clock: 31.500 MHz
  800x600@60Hz 4:3 HorFreq: 37900 Hz Clock: 40.000 MHz
  800x600@75Hz 4:3 HorFreq: 46900 Hz Clock: 49.500 MHz
  1024x768@60Hz 4:3 HorFreq: 48400 Hz Clock: 65.000 MHz
  1024x768@75Hz 4:3 HorFreq: 60000 Hz Clock: 78.750 MHz
  1280x1024@75Hz 5:4 HorFreq: 80000 Hz Clock: 135.000 MHz
Standard timings supported:
  1920x1080@60Hz 16:9
  1680x1050@60Hz 16:10 HorFreq: 64700 Hz Clock: 119.000 MHz
  1440x900@60Hz 16:10 HorFreq: 55500 Hz Clock: 88.750 MHz
  1280x1024@60Hz 5:4 HorFreq: 64000 Hz Clock: 108.000 MHz
  1280x720@60Hz 16:9
  1280x960@60Hz 4:3 HorFreq: 60000 Hz Clock: 108.000 MHz
  1600x900@60Hz 16:9
  1152x864@75Hz 4:3 HorFreq: 67500 Hz Clock: 108.000 MHz
Detailed mode: Clock 299.360 MHz, 1052 mm x 329 mm
               3840 3888 3920 4040 hborder 0
               1200 1203 1208 1235 vborder 0
               +hsync -vsync 
               VertFreq: 59 Hz, HorFreq: 74099 Hz
Detailed mode: Clock 597.210 MHz, 1052 mm x 329 mm
               3840 3888 3920 4020 hborder 0
               1200 1203 1208 1238 vborder 0
               +hsync -vsync 
               VertFreq: 119 Hz, HorFreq: 148559 Hz
Monitor name: DGVIEW430
Monitor ranges (bare limits): 48-120Hz V, 150-150kHz H, max dotclock 630MHz
Has 1 extension blocks
Checksum: 0xcd (valid)

CTA extension block
Extension version: 3
31 bytes of CTA data
  Video data block
    VIC   1 640x480@60Hz 4:3  HorFreq: 31469 Hz Clock: 25.175 MHz
    VIC   2 720x480@60Hz 4:3  HorFreq: 31469 Hz Clock: 27.000 MHz
    VIC   3 720x480@60Hz 16:9  HorFreq: 31469 Hz Clock: 27.000 MHz
    VIC   4 1280x720@60Hz 16:9  HorFreq: 45000 Hz Clock: 74.250 MHz
    VIC  16 1920x1080@60Hz 16:9 (native) HorFreq: 67500 Hz Clock: 148.500 MHz
    VIC  18 720x576@50Hz 16:9  HorFreq: 31250 Hz Clock: 27.000 MHz
    VIC  19 1280x720@50Hz 16:9  HorFreq: 37500 Hz Clock: 74.250 MHz
    VIC  31 1920x1080@50Hz 16:9  HorFreq: 56250 Hz Clock: 148.500 MHz
    VIC  17 720x576@50Hz 4:3  HorFreq: 31250 Hz Clock: 27.000 MHz
    VIC  89 2560x1080@50Hz 64:27  HorFreq: 56250 Hz Clock: 185.625 MHz
    VIC  63 1920x1080@120Hz 16:9  HorFreq: 135000 Hz Clock: 297.000 MHz
  Audio data block
    Linear PCM, max channels 2
      Supported sample rates (kHz): 48 44.1 32
      Supported sample sizes (bits): 24 20 16
  Speaker allocation data block
    Speaker map:
      FL/FR - Front Left/Right
  Extended tag: Colorimetry data block
    xvYCC601
    xvYCC709
    BT2020cYCC
    BT2020YCC
    BT2020RGB
  Extended tag: HDR static metadata data block
    Electro optical transfer functions:
      Traditional gamma - SDR luminance range
      Traditional gamma - HDR luminance range
      SMPTE ST2084
    Supported static metadata descriptors:
      Static metadata type 1
    Desired content max luminance: 96 (400.000 cd/m^2)
    Desired content max frame-average luminance: 89 (343.724 cd/m^2)
    Desired content min luminance: 40 (0.098 cd/m^2)
Underscans PC formats by default
Basic audio support
Supports YCbCr 4:4:4
Supports YCbCr 4:2:2
4 native detailed modes
Detailed mode: Clock 327.540 MHz, 1052 mm x 329 mm
               1920 1968 2000 2040 hborder 0
               1080 1083 1088 1115 vborder 0
               +hsync +vsync 
               VertFreq: 143 Hz, HorFreq: 160558 Hz
Detailed mode: Clock 181.970 MHz, 1052 mm x 329 mm
               2560 2608 2640 2720 hborder 0
               1080 1083 1088 1115 vborder 0
               +hsync +vsync 
               VertFreq: 60 Hz, HorFreq: 66900 Hz
Detailed mode: Clock 156.240 MHz, 1052 mm x 329 mm
               1920 1970 2002 2100 hborder 0
               1200 1203 1208 1240 vborder 0
               +hsync +vsync 
               VertFreq: 60 Hz, HorFreq: 74400 Hz
Checksum: 0x2a (valid)

Warning: One or more of the timings is out of range of the Monitor Ranges:
  Vertical Freq: 50 - 143 Hz
  Horizontal Freq: 31250 - 160558 Hz
  Maximum Clock: 597.210 MHz
