
EDID (hex):
00ffffffffffff0030ae400501000000
201c0104a5351d78220565a756529c27
0f505400000001010101010101010101
01010101010140388000713814403020
84000f282100001e000000fd00334c36
5a12000a202020202020000000ff004c
4d3233385746352d53534531000000fc
004c454e2d413534302d420a202000bf

Extracted contents:
header:          00 ff ff ff ff ff ff 00
serial number:   30 ae 40 05 01 00 00 00 20 1c
version:         01 04
basic params:    a5 35 1d 78 22
chroma info:     05 65 a7 56 52 9c 27 0f 50 54
established:     00 00 00
standard:        01 01 01 01 01 01 01 01 01 01 01 01 01 01 01 01
descriptor 1:    40 38 80 00 71 38 14 40 30 20 84 00 0f 28 21 00 00 1e
descriptor 2:    00 00 00 fd 00 33 4c 36 5a 12 00 0a 20 20 20 20 20 20
descriptor 3:    00 00 00 ff 00 4c 4d 32 33 38 57 46 35 2d 53 53 45 31
descriptor 4:    00 00 00 fc 00 4c 45 4e 2d 41 35 34 30 2d 42 0a 20 20
extensions:      00
checksum:        bf

EDID version: 1.4
Manufacturer: LEN Model 540 Serial Number --
Made in week 32 of 2018
Digital display
8 bits per primary color channel
DisplayPort interface
Maximum image size: 53 cm x 29 cm
Gamma: 2.20
DPMS levels: Off
Supported color formats: RGB 4:4:4
First detailed timing includes the native pixel format and preferred refresh rate
Display x,y Chromaticity:
  Red:   0.6523, 0.3359
  Green: 0.3212, 0.6103
  Blue:  0.1533, 0.0605
  White: 0.3134, 0.3291
Established timings supported:
Standard timings supported:
Detailed mode: Clock 144.000 MHz, 527 mm x 296 mm
               1920 1968 2000 2176 hborder 0
               1080 1088 1092 1100 vborder 0
               +hsync +vsync 
               VertFreq: 60 Hz, HorFreq: 66176 Hz
Monitor ranges (GTF): 51-76Hz V, 54-90kHz H, max dotclock 180MHz
Serial number: --
Monitor name: LEN-A540-B
Checksum: 0xbf (valid)
