
EDID (hex):
00ffffffffffff0009e5870500000000
0113010390160d780a22c095564e8e26
24505400000001010101010101010101
0101010101018a1600da41582a203020
3a00df7d0000001a8a1600da41582a20
30203a00df7d0000001a000000fe0048
30313854804854313031303100000000
00000000000000000001010a20200050

Extracted contents:
header:          00 ff ff ff ff ff ff 00
serial number:   09 e5 87 05 00 00 00 00 01 13
version:         01 03
basic params:    90 16 0d 78 0a
chroma info:     22 c0 95 56 4e 8e 26 24 50 54
established:     00 00 00
standard:        01 01 01 01 01 01 01 01 01 01 01 01 01 01 01 01
descriptor 1:    8a 16 00 da 41 58 2a 20 30 20 3a 00 df 7d 00 00 00 1a
descriptor 2:    8a 16 00 da 41 58 2a 20 30 20 3a 00 df 7d 00 00 00 1a
descriptor 3:    00 00 00 fe 00 48 30 31 38 54 80 48 54 31 30 31 30 31
descriptor 4:    00 00 00 00 00 00 00 00 00 00 00 00 00 01 01 0a 20 20
extensions:      00
checksum:        50

EDID version: 1.3
Manufacturer: BOE Model 587 Serial Number --
Made in week 1 of 2009
Digital display
Maximum image size: 22 cm x 13 cm
Gamma: 2.20
RGB color display
First detailed timing is preferred timing
Display x,y Chromaticity:
  Red:   0.5820, 0.3378
  Green: 0.3046, 0.5566
  Blue:  0.1513, 0.1406
  White: 0.3125, 0.3281
Established timings supported:
Standard timings supported:
Detailed mode: Clock 57.700 MHz, 223 mm x 125 mm
               1024 1072 1104 1498 hborder 0
                600  603  613  642 vborder 0
               +hsync -vsync 
               VertFreq: 59 Hz, HorFreq: 38518 Hz
Detailed mode: Clock 57.700 MHz, 223 mm x 125 mm
               1024 1072 1104 1498 hborder 0
                600  603  613  642 vborder 0
               +hsync -vsync 
               VertFreq: 59 Hz, HorFreq: 38518 Hz
ASCII string: H018T
Manufacturer-specified data, tag 0
Checksum: 0x50 (valid)
EDID block does NOT conform to EDID 1.3!
	Digital display field contains garbage: 10
	Missing name descriptor
	Missing monitor ranges
	Detailed block string not properly terminated
