
EDID (hex):
00ffffffffffff0010acc7d0554d4830
141d0104a52b18783adaf5a455529f27
0e5054a54a00714fa9c0010101010101
010101010101302a40c8608464301850
1300b2ec1000001e000000ff00575046
545739354630484d550a000000fc0044
454c4c205032303138480a20000000fd
00384c1e5311010a20202020202000eb

Extracted contents:
header:          00 ff ff ff ff ff ff 00
serial number:   10 ac c7 d0 55 4d 48 30 14 1d
version:         01 04
basic params:    a5 2b 18 78 3a
chroma info:     da f5 a4 55 52 9f 27 0e 50 54
established:     a5 4a 00
standard:        71 4f a9 c0 01 01 01 01 01 01 01 01 01 01 01 01
descriptor 1:    30 2a 40 c8 60 84 64 30 18 50 13 00 b2 ec 10 00 00 1e
descriptor 2:    00 00 00 ff 00 57 50 46 54 57 39 35 46 30 48 4d 55 0a
descriptor 3:    00 00 00 fc 00 44 45 4c 4c 20 50 32 30 31 38 48 0a 20
descriptor 4:    00 00 00 fd 00 38 4c 1e 53 11 01 0a 20 20 20 20 20 20
extensions:      00
checksum:        eb

EDID version: 1.4
Manufacturer: DEL Model d0c7 Serial Number --
Made in week 20 of 2019
Digital display
8 bits per primary color channel
DisplayPort interface
Maximum image size: 43 cm x 24 cm
Gamma: 2.20
DPMS levels: Off
Supported color formats: RGB 4:4:4, YCrCb 4:4:4, YCrCb 4:2:2
First detailed timing includes the native pixel format and preferred refresh rate
Display x,y Chromaticity:
  Red:   0.6435, 0.3330
  Green: 0.3222, 0.6230
  Blue:  0.1552, 0.0576
  White: 0.3134, 0.3291
Established timings supported:
  720x400@70Hz 9:5 HorFreq: 31469 Hz Clock: 28.320 MHz
  640x480@60Hz 4:3 HorFreq: 31469 Hz Clock: 25.175 MHz
  640x480@75Hz 4:3 HorFreq: 37500 Hz Clock: 31.500 MHz
  800x600@60Hz 4:3 HorFreq: 37900 Hz Clock: 40.000 MHz
  800x600@75Hz 4:3 HorFreq: 46900 Hz Clock: 49.500 MHz
  1024x768@60Hz 4:3 HorFreq: 48400 Hz Clock: 65.000 MHz
  1024x768@75Hz 4:3 HorFreq: 60000 Hz Clock: 78.750 MHz
Standard timings supported:
  1152x864@75Hz 4:3 HorFreq: 67500 Hz Clock: 108.000 MHz
  1600x900@60Hz 16:9
Detailed mode: Clock 108.000 MHz, 434 mm x 236 mm
               1600 1624 1704 1800 hborder 0
                900  901  904 1000 vborder 0
               +hsync +vsync 
               VertFreq: 60 Hz, HorFreq: 60000 Hz
Serial number: --
Monitor name: DELL P2018H
Monitor ranges (bare limits): 56-76Hz V, 30-83kHz H, max dotclock 170MHz
Checksum: 0xeb (valid)
