edid-decode (hex):

00 ff ff ff ff ff ff 00 04 89 30 2e 26 79 06 03
0f 09 01 01 08 1a 14 7d 68 06 92 a0 57 4f 97 26
10 48 4f af ce 00 61 40 01 01 01 01 01 01 01 01
01 01 01 01 01 01 30 2a 00 98 51 00 2a 40 30 70
13 00 04 c8 10 00 00 1e 00 00 00 fd 00 32 64 1e
45 ff 00 0a 20 20 20 20 20 20 00 00 00 fc 00 4d
69 6e 69 63 6f 6d 20 4c 54 44 20 0a 00 00 00 fc
00 53 6d 61 72 74 20 50 6c 75 73 20 0a 20 00 b0

00 ff ff ff ff ff ff 00 04 89 30 2e 26 79 06 03
0f 09 01 01 08 1a 14 7d 68 06 92 a0 57 4f 97 26
10 48 4f af ce 00 61 40 01 01 01 01 01 01 01 01
01 01 01 01 01 01 30 2a 00 98 51 00 2a 40 30 70
13 00 04 c8 10 00 00 1e 00 00 00 fd 00 32 64 1e
45 ff 00 0a 20 20 20 20 20 20 00 00 00 fc 00 4d
69 6e 69 63 6f 6d 20 4c 54 44 20 0a 00 00 00 fc
00 53 6d 61 72 74 20 50 6c 75 73 20 0a 20 00 b0

----------------

Block 0, Base EDID:
  EDID Structure Version & Revision: 1.1
  Vendor & Product Identification:
    Manufacturer: ADI
    Model: 11824
    Serial Number: ...
    Made in: week 15 of 1999
  Basic Display Parameters & Features:
    Analog display
    Signal Level Standard: 0.700 : 0.300 : 1.000 V p-p
    Blank level equals black level
    Sync: Separate
    Maximum image size: 26 cm x 20 cm
    Gamma: 2.25
    DPMS levels: Suspend Off
    RGB color display
  Color Characteristics:
    Red  : 0.6250, 0.3398
    Green: 0.3095, 0.5917
    Blue : 0.1503, 0.0634
    White: 0.2812, 0.3105
  Established Timings I & II:
    IBM     :   720x400    70.081663 Hz   9:5     31.467 kHz     28.320000 MHz
    DMT 0x04:   640x480    59.940476 Hz   4:3     31.469 kHz     25.175000 MHz
    DMT 0x05:   640x480    72.808802 Hz   4:3     37.861 kHz     31.500000 MHz
    DMT 0x06:   640x480    75.000000 Hz   4:3     37.500 kHz     31.500000 MHz
    DMT 0x08:   800x600    56.250000 Hz   4:3     35.156 kHz     36.000000 MHz
    DMT 0x09:   800x600    60.316541 Hz   4:3     37.879 kHz     40.000000 MHz
    DMT 0x0a:   800x600    72.187572 Hz   4:3     48.077 kHz     50.000000 MHz
    DMT 0x0b:   800x600    75.000000 Hz   4:3     46.875 kHz     49.500000 MHz
    DMT 0x10:  1024x768    60.003840 Hz   4:3     48.363 kHz     65.000000 MHz
    DMT 0x11:  1024x768    70.069359 Hz   4:3     56.476 kHz     75.000000 MHz
    DMT 0x12:  1024x768    75.028582 Hz   4:3     60.023 kHz     78.750000 MHz
  Standard Timings:
    DMT 0x10:  1024x768    60.003840 Hz   4:3     48.363 kHz     65.000000 MHz
  Detailed Timing Descriptors:
    DTD 1:  1280x1024   60.019740 Hz   5:4     63.981 kHz    108.000000 MHz (260 mm x 200 mm)
                 Hfront   48 Hsync 112 Hback  248 Hpol P
                 Vfront    1 Vsync   3 Vback   38 Vpol P
    Display Range Limits:
      Monitor ranges (GTF): 50-100 Hz V, 30-69 kHz H, max dotclock 2550 MHz
    Display Product Name: 'Minicom LTD '
    Display Product Name: 'Smart Plus '
Checksum: 0xb0

----------------

Block 1, Unknown EDID Extension Block 0x00:
  00 ff ff ff ff ff ff 00 04 89 30 2e 26 79 06 03 '..........0.&y..'
  0f 09 01 01 08 1a 14 7d 68 06 92 a0 57 4f 97 26 '.......}h...WO.&'
  10 48 4f af ce 00 61 40 01 01 01 01 01 01 01 01 '.HO...a@........'
  01 01 01 01 01 01 30 2a 00 98 51 00 2a 40 30 70 '......0*..Q.*@0p'
  13 00 04 c8 10 00 00 1e 00 00 00 fd 00 32 64 1e '.............2d.'
  45 ff 00 0a 20 20 20 20 20 20 00 00 00 fc 00 4d 'E...      .....M'
  69 6e 69 63 6f 6d 20 4c 54 44 20 0a 00 00 00 fc 'inicom LTD .....'
  00 53 6d 61 72 74 20 50 6c 75 73 20 0a 20 00 b0 '.Smart Plus . ..'
Checksum: 0xb0

----------------

Warnings:

Block 0, Base EDID:
  EDID Structure Version & Revision: EDID 1.1 is deprecated, do not use.

Failures:

Block 0, Base EDID:
  Display Product Name: One or more trailing spaces.
  Display Product Name: One or more trailing spaces.
Block 1, Base EDID:
  Unknown Extension Block.
EDID:
  Base EDID: EDID specified 0 extension block(s), but found 1 extension block(s).

EDID conformity: FAIL
