
EDID (hex):
00ffffffffffff001e6d7a77dfe10400
071f0104b5502278fba225ae4f45ab27
0e5054210800d1c06140010101010101
0101010101017d7d70b0d0a029503820
3a00204e3100001a000000fd00304b70
7029010a202020202020000000fc004c
4720554c545241574944450a000000ff
003130374e544e4839443936370a010c
02032873230907078301000044100403
01e2006ae305c000e606050153535d68
1a00000101304b00029e70b0d0a03450
38203a00204e3100001a016870b0d0a0
225038203a00204e3100001a00000000
00000000000000000000000000000000
00000000000000000000000000000000
000000000000000000000000000000a9

Extracted contents:
header:          00 ff ff ff ff ff ff 00
serial number:   1e 6d 7a 77 df e1 04 00 07 1f
version:         01 04
basic params:    b5 50 22 78 fb
chroma info:     a2 25 ae 4f 45 ab 27 0e 50 54
established:     21 08 00
standard:        d1 c0 61 40 01 01 01 01 01 01 01 01 01 01 01 01
descriptor 1:    7d 7d 70 b0 d0 a0 29 50 38 20 3a 00 20 4e 31 00 00 1a
descriptor 2:    00 00 00 fd 00 30 4b 70 70 29 01 0a 20 20 20 20 20 20
descriptor 3:    00 00 00 fc 00 4c 47 20 55 4c 54 52 41 57 49 44 45 0a
descriptor 4:    00 00 00 ff 00 31 30 37 4e 54 4e 48 39 44 39 36 37 0a
extensions:      01
checksum:        0c

EDID version: 1.4
Manufacturer: GSM Model 777a Serial Number --
Made in week 7 of 2021
Digital display
10 bits per primary color channel
DisplayPort interface
Maximum image size: 80 cm x 34 cm
Gamma: 2.20
DPMS levels: Standby Suspend Off
Supported color formats: RGB 4:4:4, YCrCb 4:4:4, YCrCb 4:2:2
First detailed timing includes the native pixel format and preferred refresh rate
Display is continuous frequency
Display x,y Chromaticity:
  Red:   0.6816, 0.3105
  Green: 0.2695, 0.6699
  Blue:  0.1523, 0.0566
  White: 0.3134, 0.3291
Established timings supported:
  640x480@60Hz 4:3 HorFreq: 31469 Hz Clock: 25.175 MHz
  800x600@60Hz 4:3 HorFreq: 37900 Hz Clock: 40.000 MHz
  1024x768@60Hz 4:3 HorFreq: 48400 Hz Clock: 65.000 MHz
Standard timings supported:
  1920x1080@60Hz 16:9
  1024x768@60Hz 4:3 HorFreq: 48400 Hz Clock: 65.000 MHz
Detailed mode: Clock 321.250 MHz, 800 mm x 334 mm
               3440 3496 3528 3616 hborder 0
               1440 1443 1453 1481 vborder 0
               +hsync -vsync 
               VertFreq: 59 Hz, HorFreq: 88841 Hz
Monitor ranges (bare limits): 48-75Hz V, 112-112kHz H, max dotclock 410MHz
Monitor name: LG ULTRAWIDE
Serial number: --
Has 1 extension blocks
Checksum: 0xc (valid)

CTA extension block
Extension version: 3
36 bytes of CTA data
  Audio data block
    Linear PCM, max channels 2
      Supported sample rates (kHz): 48 44.1 32
      Supported sample sizes (bits): 24 20 16
  Speaker allocation data block
    Speaker map:
      FL/FR - Front Left/Right
  Video data block
    VIC  16 1920x1080@60Hz 16:9  HorFreq: 67500 Hz Clock: 148.500 MHz
    VIC   4 1280x720@60Hz 16:9  HorFreq: 45000 Hz Clock: 74.250 MHz
    VIC   3 720x480@60Hz 16:9  HorFreq: 31469 Hz Clock: 27.000 MHz
    VIC   1 640x480@60Hz 4:3  HorFreq: 31469 Hz Clock: 25.175 MHz
  Extended tag: Video capability data block
    YCbCr quantization: No Data (0)
    RGB quantization: Selectable (via AVI Q) (1)
    PT scan behaviour: Always Underscanned (2)
    IT scan behaviour: Always Underscanned (2)
    CE scan behaviour: Always Underscanned (2)
  Extended tag: Colorimetry data block
    BT2020YCC
    BT2020RGB
  Extended tag: HDR static metadata data block
    Electro optical transfer functions:
      Traditional gamma - SDR luminance range
      SMPTE ST2084
    Supported static metadata descriptors:
      Static metadata type 1
    Desired content max luminance: 83 (301.833 cd/m^2)
    Desired content max frame-average luminance: 83 (301.833 cd/m^2)
    Desired content min luminance: 93 (0.401 cd/m^2)
  Vendor-specific data block, OUI 00001a
Basic audio support
Supports YCbCr 4:4:4
Supports YCbCr 4:2:2
3 native detailed modes
Detailed mode: Clock 404.500 MHz, 800 mm x 334 mm
               3440 3496 3528 3616 hborder 0
               1440 1443 1453 1492 vborder 0
               +hsync -vsync 
               VertFreq: 74 Hz, HorFreq: 111863 Hz
Detailed mode: Clock 266.250 MHz, 800 mm x 334 mm
               3440 3496 3528 3616 hborder 0
               1440 1443 1453 1474 vborder 0
               +hsync -vsync 
               VertFreq: 49 Hz, HorFreq: 73631 Hz
Checksum: 0xa9 (valid)

Warning: One or more of the timings is out of range of the Monitor Ranges:
  Vertical Freq: 49 - 74 Hz
  Horizontal Freq: 31469 - 111863 Hz
  Maximum Clock: 404.500 MHz
EDID block does not conform at all!
	Both the serial number and the serial string are set


