
EDID (hex):
00ffffffffffff0009e5e90500000000
0c16010380190e780a2160995a5b9928
21505400000001010101010101010101
0101010101013e1c56a0500016303020
360000901000001a0000000000000000
0000000000000000001a000000fe0042
4f452048460a202020202020000000fe
00484e3131365758412d3130300a0006

Extracted contents:
header:          00 ff ff ff ff ff ff 00
serial number:   09 e5 e9 05 00 00 00 00 0c 16
version:         01 03
basic params:    80 19 0e 78 0a
chroma info:     21 60 99 5a 5b 99 28 21 50 54
established:     00 00 00
standard:        01 01 01 01 01 01 01 01 01 01 01 01 01 01 01 01
descriptor 1:    3e 1c 56 a0 50 00 16 30 30 20 36 00 00 90 10 00 00 1a
descriptor 2:    00 00 00 00 00 00 00 00 00 00 00 00 00 00 00 00 00 1a
descriptor 3:    00 00 00 fe 00 42 4f 45 20 48 46 0a 20 20 20 20 20 20
descriptor 4:    00 00 00 fe 00 48 4e 31 31 36 57 58 41 2d 31 30 30 0a
extensions:      00
checksum:        06

EDID version: 1.3
Manufacturer: BOE Model 5e9 Serial Number --
Made in week 12 of 2012
Digital display
Maximum image size: 25 cm x 14 cm
Gamma: 2.20
RGB color display
First detailed timing is preferred timing
Display x,y Chromaticity:
  Red:   0.5976, 0.3535
  Green: 0.3554, 0.5986
  Blue:  0.1572, 0.1308
  White: 0.3125, 0.3281
Established timings supported:
Standard timings supported:
Detailed mode: Clock 72.300 MHz, 256 mm x 144 mm
               1366 1414 1446 1526 hborder 0
                768  771  777  790 vborder 0
               +hsync -vsync 
               VertFreq: 59 Hz, HorFreq: 47378 Hz
Manufacturer-specified data, tag 0
ASCII string: BOE HF
ASCII string: HN116WXA-100
Checksum: 0x6 (valid)
EDID block does NOT conform to EDID 1.3!
	Missing name descriptor
	Missing monitor ranges


