
EDID (hex):
00ffffffffffff009636801000000000
0114010380301b78ea20e59255549228
25505400000001010101010101010101
010101010101023a801871382d40582c
4500dd0c1100001e0000001000006430
30203600159c1000001800000010008c
09328c092814090006af563000000010
00d01e204e285300dd0c1100001800de

edid-decode (hex):

00 ff ff ff ff ff ff 00 96 36 80 10 00 00 00 00
01 14 01 03 80 30 1b 78 ea 20 e5 92 55 54 92 28
25 50 54 00 00 00 01 01 01 01 01 01 01 01 01 01
01 01 01 01 01 01 02 3a 80 18 71 38 2d 40 58 2c
45 00 dd 0c 11 00 00 1e 00 00 00 10 00 00 64 30
30 20 36 00 15 9c 10 00 00 18 00 00 00 10 00 8c
09 32 8c 09 28 14 09 00 06 af 56 30 00 00 00 10
00 d0 1e 20 4e 28 53 00 dd 0c 11 00 00 18 00 de

----------------

Block 0, Base EDID:
  EDID Structure Version & Revision: 1.3
  Vendor & Product Identification:
    Manufacturer: EQV
    Model: 4224
    Made in: week 1 of 2010
  Basic Display Parameters & Features:
    Digital display
    Maximum image size: 48 cm x 27 cm
    Gamma: 2.20
    DPMS levels: Standby Suspend Off
    RGB color display
    First detailed timing is the preferred timing
  Color Characteristics:
    Red  : 0.5703, 0.3339
    Green: 0.3281, 0.5703
    Blue : 0.1591, 0.1464
    White: 0.3134, 0.3291
  Established Timings I & II: none
  Standard Timings: none
  Detailed Timing Descriptors:
    DTD 1:  1920x1080   60.000000 Hz  16:9     67.500 kHz    148.500000 MHz (477 mm x 268 mm)
                 Hfront   88 Hsync  44 Hback  148 Hpol P
                 Vfront    4 Vsync   5 Vback   36 Vpol P
    Dummy Descriptor:
    Dummy Descriptor:
    Dummy Descriptor:
Checksum: 0xde


