
EDID (hex):
00ffffffffffff000472af0841565014
2d1f0104b55023783b52f5b04f42ab25
0f5054bfef80714f8140818081c08100
9500b300d1c0f57c70a0d0a029503020
3a00204f3100001a58d470a0d0a04650
3020880c204f3100001a000000fd0c37
b4101060010a202020202020000000fc
005833342047530a202020202020024e
02033bf15201020304101112131f2021
22595a5d5e5f612309070783010000e3
05c301e60605016e6000e200d56d1a00
00020130b400040000000058d470a0d0
a046503020880c204f3100001a2db370
a0d0a03b503020d808204f3100001a5c
9d70a0d0a0345030206808204f310000
1a0000000000000000000000000000fe
7012790000030114343101866f0d4f00
07801f009f056600580007000301147e
7301866f0d4f0007801f009f053c0002
00090000000000000000000000000000
00000000000000000000000000000000
00000000000000000000000000000000
00000000000000000000000000000000
0000000000000000000000000000ab90

Extracted contents:
header:          00 ff ff ff ff ff ff 00
serial number:   04 72 af 08 41 56 50 14 2d 1f
version:         01 04
basic params:    b5 50 23 78 3b
chroma info:     52 f5 b0 4f 42 ab 25 0f 50 54
established:     bf ef 80
standard:        71 4f 81 40 81 80 81 c0 81 00 95 00 b3 00 d1 c0
descriptor 1:    f5 7c 70 a0 d0 a0 29 50 30 20 3a 00 20 4f 31 00 00 1a
descriptor 2:    58 d4 70 a0 d0 a0 46 50 30 20 88 0c 20 4f 31 00 00 1a
descriptor 3:    00 00 00 fd 0c 37 b4 10 10 60 01 0a 20 20 20 20 20 20
descriptor 4:    00 00 00 fc 00 58 33 34 20 47 53 0a 20 20 20 20 20 20
extensions:      02
checksum:        4e

EDID version: 1.4
Manufacturer: ACR Model 8af Serial Number --
Made in week 45 of 2021
Digital display
10 bits per primary color channel
DisplayPort interface
Maximum image size: 80 cm x 35 cm
Gamma: 2.20
DPMS levels: Off
Supported color formats: RGB 4:4:4, YCrCb 4:4:4, YCrCb 4:2:2
First detailed timing includes the native pixel format and preferred refresh rate
Display is continuous frequency
Display x,y Chromaticity:
  Red:   0.6884, 0.3095
  Green: 0.2578, 0.6699
  Blue:  0.1474, 0.0615
  White: 0.3134, 0.3291
Established timings supported:
  720x400@70Hz 9:5 HorFreq: 31469 Hz Clock: 28.320 MHz
  640x480@60Hz 4:3 HorFreq: 31469 Hz Clock: 25.175 MHz
  640x480@67Hz 4:3 HorFreq: 35000 Hz Clock: 30.240 MHz
  640x480@72Hz 4:3 HorFreq: 37900 Hz Clock: 31.500 MHz
  640x480@75Hz 4:3 HorFreq: 37500 Hz Clock: 31.500 MHz
  800x600@56Hz 4:3 HorFreq: 35200 Hz Clock: 36.000 MHz
  800x600@60Hz 4:3 HorFreq: 37900 Hz Clock: 40.000 MHz
  800x600@72Hz 4:3 HorFreq: 48100 Hz Clock: 50.000 MHz
  800x600@75Hz 4:3 HorFreq: 46900 Hz Clock: 49.500 MHz
  832x624@75Hz 4:3 HorFreq: 49726 Hz Clock: 57.284 MHz
  1024x768@60Hz 4:3 HorFreq: 48400 Hz Clock: 65.000 MHz
  1024x768@70Hz 4:3 HorFreq: 56500 Hz Clock: 75.000 MHz
  1024x768@75Hz 4:3 HorFreq: 60000 Hz Clock: 78.750 MHz
  1280x1024@75Hz 5:4 HorFreq: 80000 Hz Clock: 135.000 MHz
  1152x870@75Hz 192:145 HorFreq: 67500 Hz Clock: 108.000 MHz
Standard timings supported:
  1152x864@75Hz 4:3 HorFreq: 67500 Hz Clock: 108.000 MHz
  1280x960@60Hz 4:3 HorFreq: 60000 Hz Clock: 108.000 MHz
  1280x1024@60Hz 5:4 HorFreq: 64000 Hz Clock: 108.000 MHz
  1280x720@60Hz 16:9
  1280x800@60Hz 16:10
  1440x900@60Hz 16:10 HorFreq: 55500 Hz Clock: 88.750 MHz
  1680x1050@60Hz 16:10 HorFreq: 64700 Hz Clock: 119.000 MHz
  1920x1080@60Hz 16:9
Detailed mode: Clock 319.890 MHz, 800 mm x 335 mm
               3440 3488 3520 3600 hborder 0
               1440 1443 1453 1481 vborder 0
               +hsync -vsync 
               VertFreq: 59 Hz, HorFreq: 88858 Hz
Detailed mode: Clock 543.600 MHz, 800 mm x 335 mm
               3440 3488 3520 3600 hborder 0
               1440 1496 1504 1510 vborder 0
               +hsync -vsync 
               VertFreq: 100 Hz, HorFreq: 151000 Hz
Monitor ranges (bare limits): 55-180Hz V, 16-271kHz H, max dotclock 960MHz
Monitor name: X34 GS
Has 2 extension blocks
Checksum: 0x4e (valid)

CTA extension block
Extension version: 3
55 bytes of CTA data
  Video data block
    VIC   1 640x480@60Hz 4:3  HorFreq: 31469 Hz Clock: 25.175 MHz
    VIC   2 720x480@60Hz 4:3  HorFreq: 31469 Hz Clock: 27.000 MHz
    VIC   3 720x480@60Hz 16:9  HorFreq: 31469 Hz Clock: 27.000 MHz
    VIC   4 1280x720@60Hz 16:9  HorFreq: 45000 Hz Clock: 74.250 MHz
    VIC  16 1920x1080@60Hz 16:9  HorFreq: 67500 Hz Clock: 148.500 MHz
    VIC  17 720x576@50Hz 4:3  HorFreq: 31250 Hz Clock: 27.000 MHz
    VIC  18 720x576@50Hz 16:9  HorFreq: 31250 Hz Clock: 27.000 MHz
    VIC  19 1280x720@50Hz 16:9  HorFreq: 37500 Hz Clock: 74.250 MHz
    VIC  31 1920x1080@50Hz 16:9  HorFreq: 56250 Hz Clock: 148.500 MHz
    VIC  32 1920x1080@24Hz 16:9  HorFreq: 27000 Hz Clock: 74.250 MHz
    VIC  33 1920x1080@25Hz 16:9  HorFreq: 28125 Hz Clock: 74.250 MHz
    VIC  34 1920x1080@30Hz 16:9  HorFreq: 33750 Hz Clock: 74.250 MHz
    VIC  89 2560x1080@50Hz 64:27  HorFreq: 56250 Hz Clock: 185.625 MHz
    VIC  90 2560x1080@60Hz 64:27  HorFreq: 66000 Hz Clock: 198.000 MHz
    VIC  93 3840x2160@24Hz 16:9  HorFreq: 54000 Hz Clock: 297.000 MHz
    VIC  94 3840x2160@25Hz 16:9  HorFreq: 56250 Hz Clock: 297.000 MHz
    VIC  95 3840x2160@30Hz 16:9  HorFreq: 67500 Hz Clock: 297.000 MHz
    VIC  97 3840x2160@60Hz 16:9  HorFreq: 135000 Hz Clock: 594.000 MHz
  Audio data block
    Linear PCM, max channels 2
      Supported sample rates (kHz): 48 44.1 32
      Supported sample sizes (bits): 24 20 16
  Speaker allocation data block
    Speaker map:
      FL/FR - Front Left/Right
  Extended tag: Colorimetry data block
    xvYCC601
    xvYCC709
    BT2020YCC
    BT2020RGB
  Extended tag: HDR static metadata data block
    Electro optical transfer functions:
      Traditional gamma - SDR luminance range
      SMPTE ST2084
    Supported static metadata descriptors:
      Static metadata type 1
    Desired content max luminance: 110 (541.702 cd/m^2)
    Desired content max frame-average luminance: 96 (400.000 cd/m^2)
    Desired content min luminance: 0 (0.000 cd/m^2)
  Extended tag: Video capability data block
    YCbCr quantization: Selectable (via AVI YQ) (1)
    RGB quantization: Selectable (via AVI Q) (1)
    PT scan behaviour: Always Overscannned (1)
    IT scan behaviour: Always Overscannned (1)
    CE scan behaviour: Always Overscannned (1)
  Vendor-specific data block, OUI 00001a
Underscans PC formats by default
Basic audio support
Supports YCbCr 4:4:4
Supports YCbCr 4:2:2
1 native detailed modes
Detailed mode: Clock 543.600 MHz, 800 mm x 335 mm
               3440 3488 3520 3600 hborder 0
               1440 1496 1504 1510 vborder 0
               +hsync -vsync 
               VertFreq: 100 Hz, HorFreq: 151000 Hz
Detailed mode: Clock 458.690 MHz, 800 mm x 335 mm
               3440 3488 3520 3600 hborder 0
               1440 1485 1493 1499 vborder 0
               +hsync -vsync 
               VertFreq: 84 Hz, HorFreq: 127413 Hz
Detailed mode: Clock 402.840 MHz, 800 mm x 335 mm
               3440 3488 3520 3600 hborder 0
               1440 1478 1486 1492 vborder 0
               +hsync -vsync 
               VertFreq: 75 Hz, HorFreq: 111900 Hz
Checksum: 0xfe (valid)


DisplayID extension block
Extension version: 18
Length 121, version 18, extension count 0
Checksum: 0xab (valid)
Type 1 detailed timing: aspect: 64:27, Preferred  
Detailed mode: Clock 781.320 MHz, 0 mm x 0 mm
               3439 3446 3477 3518
               1439 1527 1534 1541
               +hsync -vsync
Type 1 detailed timing: aspect: 64:27, Preferred  
Detailed mode: Clock 951.020 MHz, 0 mm x 0 mm
               3439 3446 3477 3518
               1439 1441 1450 1499
               +hsync -vsync

Warning: One or more of the timings is out of range of the Monitor Ranges:
  Vertical Freq: 24 - 100 Hz
  Horizontal Freq: 27000 - 151000 Hz
  Maximum Clock: 594.000 MHz
