
EDID (hex):
00ffffffffffff0030aea26600000000
171e0103804627783a3125a6554e9c26
0e5054afef00b300a9c0d1fcd1c0714f
818081c0818a565e00a0a0a029503020
3500ba882100001e000000ff00554757
30323956570a20202020000000fd0030
901ef03c000a202020202020000000fc
004c454e2047333271632d31300a0154
020330f3470103130412901f23090707
830100006a030c001000387820000067
d85dc40178c000681a000001013090ed
f5bd00a0a0a032502040450055502100
001e9ce00078a0a03250104035005550
2100001e662156aa51001e30468f3300
c4fe1000001e349e008ca0a03c502040
350056502100001a000000000000005a

Extracted contents:
header:          00 ff ff ff ff ff ff 00
serial number:   30 ae a2 66 00 00 00 00 17 1e
version:         01 03
basic params:    80 46 27 78 3a
chroma info:     31 25 a6 55 4e 9c 26 0e 50 54
established:     af ef 00
standard:        b3 00 a9 c0 d1 fc d1 c0 71 4f 81 80 81 c0 81 8a
descriptor 1:    56 5e 00 a0 a0 a0 29 50 30 20 35 00 ba 88 21 00 00 1e
descriptor 2:    00 00 00 ff 00 55 47 57 30 32 39 56 57 0a 20 20 20 20
descriptor 3:    00 00 00 fd 00 30 90 1e f0 3c 00 0a 20 20 20 20 20 20
descriptor 4:    00 00 00 fc 00 4c 45 4e 20 47 33 32 71 63 2d 31 30 0a
extensions:      01
checksum:        54

EDID version: 1.3
Manufacturer: LEN Model 66a2 Serial Number --
Made in week 23 of 2020
Digital display
Maximum image size: 70 cm x 39 cm
Gamma: 2.20
DPMS levels: Off
Undefined display color type
First detailed timing is preferred timing
Display x,y Chromaticity:
  Red:   0.6484, 0.3349
  Green: 0.3046, 0.6103
  Blue:  0.1484, 0.0566
  White: 0.3134, 0.3291
Established timings supported:
  720x400@70Hz 9:5 HorFreq: 31469 Hz Clock: 28.320 MHz
  640x480@60Hz 4:3 HorFreq: 31469 Hz Clock: 25.175 MHz
  640x480@72Hz 4:3 HorFreq: 37900 Hz Clock: 31.500 MHz
  640x480@75Hz 4:3 HorFreq: 37500 Hz Clock: 31.500 MHz
  800x600@56Hz 4:3 HorFreq: 35200 Hz Clock: 36.000 MHz
  800x600@60Hz 4:3 HorFreq: 37900 Hz Clock: 40.000 MHz
  800x600@72Hz 4:3 HorFreq: 48100 Hz Clock: 50.000 MHz
  800x600@75Hz 4:3 HorFreq: 46900 Hz Clock: 49.500 MHz
  832x624@75Hz 4:3 HorFreq: 49726 Hz Clock: 57.284 MHz
  1024x768@60Hz 4:3 HorFreq: 48400 Hz Clock: 65.000 MHz
  1024x768@70Hz 4:3 HorFreq: 56500 Hz Clock: 75.000 MHz
  1024x768@75Hz 4:3 HorFreq: 60000 Hz Clock: 78.750 MHz
  1280x1024@75Hz 5:4 HorFreq: 80000 Hz Clock: 135.000 MHz
Standard timings supported:
  1680x1050@60Hz 16:10 HorFreq: 64700 Hz Clock: 119.000 MHz
  1600x900@60Hz 16:9
  1920x1080@120Hz 16:9
  1920x1080@60Hz 16:9
  1152x864@75Hz 4:3 HorFreq: 67500 Hz Clock: 108.000 MHz
  1280x1024@60Hz 5:4 HorFreq: 64000 Hz Clock: 108.000 MHz
  1280x720@60Hz 16:9
  1280x1024@70Hz 5:4
Detailed mode: Clock 241.500 MHz, 698 mm x 392 mm
               2560 2608 2640 2720 hborder 0
               1440 1443 1448 1481 vborder 0
               +hsync +vsync 
               VertFreq: 59 Hz, HorFreq: 88786 Hz
Serial number: --
Monitor ranges (GTF): 48-144Hz V, 30-240kHz H, max dotclock 600MHz
Monitor name: LEN G32qc-10
Has 1 extension blocks
Checksum: 0x54 (valid)

CTA extension block
Extension version: 3
44 bytes of CTA data
  Video data block
    VIC   1 640x480@60Hz 4:3  HorFreq: 31469 Hz Clock: 25.175 MHz
    VIC   3 720x480@60Hz 16:9  HorFreq: 31469 Hz Clock: 27.000 MHz
    VIC  19 1280x720@50Hz 16:9  HorFreq: 37500 Hz Clock: 74.250 MHz
    VIC   4 1280x720@60Hz 16:9  HorFreq: 45000 Hz Clock: 74.250 MHz
    VIC  18 720x576@50Hz 16:9  HorFreq: 31250 Hz Clock: 27.000 MHz
    VIC  16 1920x1080@60Hz 16:9 (native) HorFreq: 67500 Hz Clock: 148.500 MHz
    VIC  31 1920x1080@50Hz 16:9  HorFreq: 56250 Hz Clock: 148.500 MHz
  Audio data block
    Linear PCM, max channels 2
      Supported sample rates (kHz): 48 44.1 32
      Supported sample sizes (bits): 24 20 16
  Speaker allocation data block
    Speaker map:
      FL/FR - Front Left/Right
  Vendor-specific data block, OUI 000c03 (HDMI)
    Source physical address 1.0.0.0
    DC_36bit
    DC_30bit
    DC_Y444
    Maximum TMDS clock: 600MHz
    Extended HDMI video details:
  Vendor-specific data block, OUI c45dd8 (HDMI Forum)
    Version: 1
    Maximum TMDS Character Rate: 600MHz
    SCDC Present
    SCDC Read Request Capable
  Vendor-specific data block, OUI 00001a
Underscans PC formats by default
Basic audio support
Supports YCbCr 4:4:4
Supports YCbCr 4:2:2
3 native detailed modes
Detailed mode: Clock 486.290 MHz, 597 mm x 336 mm
               2560 2592 2656 2720 hborder 0
               1440 1444 1449 1490 vborder 0
               +hsync +vsync 
               VertFreq: 119 Hz, HorFreq: 178783 Hz
Detailed mode: Clock 575.000 MHz, 597 mm x 336 mm
               2560 2576 2640 2680 hborder 0
               1440 1443 1448 1490 vborder 0
               +hsync +vsync 
               VertFreq: 143 Hz, HorFreq: 214552 Hz
Detailed mode: Clock 85.500 MHz, 452 mm x 254 mm
               1366 1436 1579 1792 hborder 0
                768  771  774  798 vborder 0
               +hsync +vsync 
               VertFreq: 59 Hz, HorFreq: 47712 Hz
Detailed mode: Clock 405.000 MHz, 598 mm x 336 mm
               2560 2592 2656 2700 hborder 0
               1440 1443 1448 1500 vborder 0
               +hsync -vsync 
               VertFreq: 100 Hz, HorFreq: 150000 Hz
Checksum: 0x5a (valid)

EDID block does NOT conform to EDID 1.3!
	HDMI VSDB Max TMDS rate is > 340
