
EDID (hex):
00ffffffffffff004ca3504700000000
00100103802517780a87f594574f8c27
27505400000001010101010101010101
0101010101017c2e90a0601a32403020
46006de4100000190000000f00000000
0000000000415f051901000000fe0053
414d53554e470a2020202020000000fe
004c544e31373050312d4c30320a0096

Extracted contents:
header:          00 ff ff ff ff ff ff 00
serial number:   4c a3 50 47 00 00 00 00 00 10
version:         01 03
basic params:    80 25 17 78 0a
chroma info:     87 f5 94 57 4f 8c 27 27 50 54
established:     00 00 00
standard:        01 01 01 01 01 01 01 01 01 01 01 01 01 01 01 01
descriptor 1:    7c 2e 90 a0 60 1a 32 40 30 20 46 00 6d e4 10 00 00 19
descriptor 2:    00 00 00 0f 00 00 00 00 00 00 00 00 00 41 5f 05 19 01
descriptor 3:    00 00 00 fe 00 53 41 4d 53 55 4e 47 0a 20 20 20 20 20
descriptor 4:    00 00 00 fe 00 4c 54 4e 31 37 30 50 31 2d 4c 30 32 0a
extensions:      00
checksum:        96

EDID version: 1.3
Manufacturer: SEC Model 4750 Serial Number --
Made in year 2006
Digital display
Maximum image size: 37 cm x 23 cm
Gamma: 2.20
RGB color display
First detailed timing is preferred timing
Display x,y Chromaticity:
  Red:   0.5800, 0.3398
  Green: 0.3095, 0.5498
  Blue:  0.1552, 0.1552
  White: 0.3134, 0.3291
Established timings supported:
Standard timings supported:
Detailed mode: Clock 119.000 MHz, 365 mm x 228 mm
               1680 1728 1760 1840 hborder 0
               1050 1054 1060 1100 vborder 0
               -hsync -vsync 
               VertFreq: 58 Hz, HorFreq: 64673 Hz
Manufacturer-specified data, tag 15
ASCII string: SAMSUNG
ASCII string: LTN170P1-L02
Checksum: 0x96 (valid)
EDID block does NOT conform to EDID 1.3!
	Missing name descriptor
	Missing monitor ranges
