
EDID (hex):
00ffffffffffff0030e4b30600000000
001f0104a522157806a205a65449a225
0e505400000001010101010101010101
010101010101283c80a070b023403020
360050d21000001a203080a070b02340
3020360050d21000001a000000fe0034
4457564a813135365755310a00000000
00024131b2001100000a010a202000ad

Extracted contents:
header:          00 ff ff ff ff ff ff 00
serial number:   30 e4 b3 06 00 00 00 00 00 1f
version:         01 04
basic params:    a5 22 15 78 06
chroma info:     a2 05 a6 54 49 a2 25 0e 50 54
established:     00 00 00
standard:        01 01 01 01 01 01 01 01 01 01 01 01 01 01 01 01
descriptor 1:    28 3c 80 a0 70 b0 23 40 30 20 36 00 50 d2 10 00 00 1a
descriptor 2:    20 30 80 a0 70 b0 23 40 30 20 36 00 50 d2 10 00 00 1a
descriptor 3:    00 00 00 fe 00 34 44 57 56 4a 81 31 35 36 57 55 31 0a
descriptor 4:    00 00 00 00 00 02 41 31 b2 00 11 00 00 0a 01 0a 20 20
extensions:      00
checksum:        ad

EDID version: 1.4
Manufacturer: LGD Model 6b3 Serial Number --
Made in year 2021
Digital display
8 bits per primary color channel
DisplayPort interface
Maximum image size: 34 cm x 21 cm
Gamma: 2.20
Supported color formats: RGB 4:4:4
Default (sRGB) color space is primary color space
First detailed timing includes the native pixel format and preferred refresh rate
Display x,y Chromaticity:
  Red:   0.6503, 0.3300
  Green: 0.2851, 0.6347
  Blue:  0.1445, 0.0546
  White: 0.3134, 0.3291
Established timings supported:
Standard timings supported:
Detailed mode: Clock 154.000 MHz, 336 mm x 210 mm
               1920 1968 2000 2080 hborder 0
               1200 1203 1209 1235 vborder 0
               +hsync -vsync 
               VertFreq: 59 Hz, HorFreq: 74038 Hz
Detailed mode: Clock 123.200 MHz, 336 mm x 210 mm
               1920 1968 2000 2080 hborder 0
               1200 1203 1209 1235 vborder 0
               +hsync -vsync 
               VertFreq: 47 Hz, HorFreq: 59230 Hz
ASCII string: 4DWVJ
Manufacturer-specified data, tag 0
Checksum: 0xad (valid)
EDID block does NOT conform to EDID 1.4!
	sRGB is signaled, but the chromaticities do not match
	Missing name descriptor
	Missing monitor ranges
	Detailed block string not properly terminated
