edid-decode (hex):

00 ff ff ff ff ff ff 00 4c 49 10 00 00 00 00 00
14 17 01 03 80 2b 19 78 2a cd fb 9e 58 53 a0 27
0a 47 4a af af 00 71 4f 81 c0 81 00 81 40 81 59
81 80 81 99 90 40 20 1c 50 a0 50 00 16 30 30 20
25 00 ae fe 10 00 00 1a 00 00 00 fd 00 32 55 1e
4b 11 00 0a 20 20 20 20 20 20 00 00 00 fc 00 50
6f 64 69 75 6d 20 53 50 35 31 38 0a 00 00 00 ff
00 4b 30 31 32 46 57 32 32 41 30 31 32 31 01 65

02 01 04 00 02 3a 80 18 71 38 2d 40 58 2c 45 00
ae fe 10 00 00 1e 02 3a 80 d0 72 38 2d 40 10 2c
45 80 ae fe 10 00 00 1e da 3e 40 30 62 b0 2a 40
68 b0 14 00 ae fe 10 08 00 1c fc 1c 00 bc 52 d0
1e 20 b8 28 55 40 ae fe 10 00 00 1c 00 00 00 00
00 00 00 00 00 00 00 00 00 00 00 00 00 00 00 00
00 00 00 00 00 00 00 00 00 00 00 00 00 00 00 00
00 00 00 00 00 00 00 00 00 00 00 00 00 00 00 5d

00 ff ff ff ff ff ff 00 4c 49 10 00 00 00 00 00
14 17 01 03 80 2b 19 78 2a cd fb 9e 58 53 a0 27
0a 47 4a af af 00 71 4f 81 c0 81 00 81 40 81 59
81 80 81 99 90 40 20 1c 50 a0 50 00 16 30 30 20
25 00 ae fe 10 00 00 1a 00 00 00 fd 00 32 55 1e
4b 11 00 0a 20 20 20 20 20 20 00 00 00 fc 00 50
6f 64 69 75 6d 20 53 50 35 31 38 0a 00 00 00 ff
00 4b 30 31 32 46 57 32 32 41 30 31 32 31 01 65

02 01 04 00 02 3a 80 18 71 38 2d 40 58 2c 45 00
ae fe 10 00 00 1e 02 3a 80 d0 72 38 2d 40 10 2c
45 80 ae fe 10 00 00 1e da 3e 40 30 62 b0 2a 40
68 b0 14 00 ae fe 10 08 00 1c fc 1c 00 bc 52 d0
1e 20 b8 28 55 40 ae fe 10 00 00 1c 00 00 00 00
00 00 00 00 00 00 00 00 00 00 00 00 00 00 00 00
00 00 00 00 00 00 00 00 00 00 00 00 00 00 00 00
00 00 00 00 00 00 00 00 00 00 00 00 00 00 00 5d

----------------

Block 0, Base EDID:
  EDID Structure Version & Revision: 1.3
  Vendor & Product Identification:
    Manufacturer: SBI
    Model: 16
    Made in: week 20 of 2013
  Basic Display Parameters & Features:
    Digital display
    Maximum image size: 43 cm x 25 cm
    Gamma: 2.20
    DPMS levels: Off
    RGB color display
    First detailed timing is the preferred timing
  Color Characteristics:
    Red  : 0.6201, 0.3437
    Green: 0.3271, 0.6259
    Blue : 0.1552, 0.0419
    White: 0.2792, 0.2919
  Established Timings I & II:
    IBM     :   720x400    70.081663 Hz   9:5     31.467 kHz     28.320000 MHz
    DMT 0x04:   640x480    59.940476 Hz   4:3     31.469 kHz     25.175000 MHz
    DMT 0x05:   640x480    72.808802 Hz   4:3     37.861 kHz     31.500000 MHz
    DMT 0x06:   640x480    75.000000 Hz   4:3     37.500 kHz     31.500000 MHz
    DMT 0x08:   800x600    56.250000 Hz   4:3     35.156 kHz     36.000000 MHz
    DMT 0x09:   800x600    60.316541 Hz   4:3     37.879 kHz     40.000000 MHz
    DMT 0x0a:   800x600    72.187572 Hz   4:3     48.077 kHz     50.000000 MHz
    Apple   :   832x624    74.551266 Hz   4:3     49.726 kHz     57.284000 MHz
    DMT 0x10:  1024x768    60.003840 Hz   4:3     48.363 kHz     65.000000 MHz
    DMT 0x11:  1024x768    70.069359 Hz   4:3     56.476 kHz     75.000000 MHz
    DMT 0x12:  1024x768    75.028582 Hz   4:3     60.023 kHz     78.750000 MHz
    DMT 0x24:  1280x1024   75.024675 Hz   5:4     79.976 kHz    135.000000 MHz
  Standard Timings:
    DMT 0x15:  1152x864    75.000000 Hz   4:3     67.500 kHz    108.000000 MHz
    DMT 0x55:  1280x720    60.000000 Hz  16:9     45.000 kHz     74.250000 MHz
    DMT 0x1c:  1280x800    59.810326 Hz  16:10    49.702 kHz     83.500000 MHz
    DMT 0x20:  1280x960    60.000000 Hz   4:3     60.000 kHz    108.000000 MHz
    DMT 0x21:  1280x960    85.002473 Hz   4:3     85.938 kHz    148.500000 MHz
    DMT 0x23:  1280x1024   60.019740 Hz   5:4     63.981 kHz    108.000000 MHz
    DMT 0x25:  1280x1024   85.024098 Hz   5:4     91.146 kHz    157.500000 MHz
    DMT 0x2a:  1400x1050   59.978442 Hz   4:3     65.317 kHz    121.750000 MHz
  Detailed Timing Descriptors:
    DTD 1:  1360x768    59.960027 Hz  85:48    47.368 kHz     72.000000 MHz (430 mm x 254 mm)
                 Hfront   48 Hsync  32 Hback   80 Hpol P
                 Vfront    2 Vsync   5 Vback   15 Vpol N
    Display Range Limits:
      Monitor ranges (GTF): 50-85 Hz V, 30-75 kHz H, max dotclock 170 MHz
    Display Product Name: 'Podium SP518'
    Display Product Serial Number: ...
  Extension blocks: 1
Checksum: 0x65

----------------

Block 1, CTA-861 Extension Block:
  Revision: 1
  Detailed Timing Descriptors:
    DTD 2:  1920x1080   60.000000 Hz  16:9     67.500 kHz    148.500000 MHz (430 mm x 254 mm)
                 Hfront   88 Hsync  44 Hback  148 Hpol P
                 Vfront    4 Vsync   5 Vback   36 Vpol P
    DTD 3:  1920x1080   50.000000 Hz  16:9     56.250 kHz    148.500000 MHz (430 mm x 254 mm)
                 Hfront  528 Hsync  44 Hback  148 Hpol P
                 Vfront    4 Vsync   5 Vback   36 Vpol P
    DTD 4:  1600x1200   59.976442 Hz   4:3     74.491 kHz    160.900000 MHz (430 mm x 254 mm)
                 Hfront  104 Hsync 176 Hback  264 Hpol N Hborder 8
                 Vfront    1 Vsync   4 Vback   37 Vpol P
    DTD 5:  1280x720    49.966330 Hz  16:9     37.475 kHz     74.200000 MHz (430 mm x 254 mm)
                 Hfront  440 Hsync  40 Hback  220 Hpol N
                 Vfront    5 Vsync   5 Vback   20 Vpol P
Checksum: 0x5d  Unused space in Extension Block: 51 bytes

----------------

Block 2, Unknown EDID Extension Block 0x00:
  00 ff ff ff ff ff ff 00 4c 49 10 00 00 00 00 00 '........LI......'
  14 17 01 03 80 2b 19 78 2a cd fb 9e 58 53 a0 27 '.....+.x*...XS.''
  0a 47 4a af af 00 71 4f 81 c0 81 00 81 40 81 59 '.GJ...qO.....@.Y'
  81 80 81 99 90 40 20 1c 50 a0 50 00 16 30 30 20 '.....@ .P.P..00 '
  25 00 ae fe 10 00 00 1a 00 00 00 fd 00 32 55 1e '%............2U.'
  4b 11 00 0a 20 20 20 20 20 20 00 00 00 fc 00 50 'K...      .....P'
  6f 64 69 75 6d 20 53 50 35 31 38 0a 00 00 00 ff 'odium SP518.....'
  00 4b 30 31 32 46 57 32 32 41 30 31 32 31 01 65 '.K012FW22A0121.e'
Checksum: 0x65

----------------

Block 3, CTA-861 Extension Block:
  Revision: 1
  Detailed Timing Descriptors:
    DTD 6:  1920x1080   60.000000 Hz  16:9     67.500 kHz    148.500000 MHz (430 mm x 254 mm)
                 Hfront   88 Hsync  44 Hback  148 Hpol P
                 Vfront    4 Vsync   5 Vback   36 Vpol P
    DTD 7:  1920x1080   50.000000 Hz  16:9     56.250 kHz    148.500000 MHz (430 mm x 254 mm)
                 Hfront  528 Hsync  44 Hback  148 Hpol P
                 Vfront    4 Vsync   5 Vback   36 Vpol P
    DTD 8:  1600x1200   59.976442 Hz   4:3     74.491 kHz    160.900000 MHz (430 mm x 254 mm)
                 Hfront  104 Hsync 176 Hback  264 Hpol N Hborder 8
                 Vfront    1 Vsync   4 Vback   37 Vpol P
    DTD 9:  1280x720    49.966330 Hz  16:9     37.475 kHz     74.200000 MHz (430 mm x 254 mm)
                 Hfront  440 Hsync  40 Hback  220 Hpol N
                 Vfront    5 Vsync   5 Vback   20 Vpol P
Checksum: 0x5d  Unused space in Extension Block: 51 bytes

----------------

Warnings:

Block 1, CTA-861 Extension Block:
  Detailed Timing Descriptor #4: The use of non-zero borders in a DTD is not recommended.
  Add a Colorimetry Data Block with the sRGB colorimetry bit set to avoid interop issues.
Block 3, CTA-861 Extension Block:
  Detailed Timing Descriptor #8: The use of non-zero borders in a DTD is not recommended.
  Add a Colorimetry Data Block with the sRGB colorimetry bit set to avoid interop issues.

Failures:

Block 1, CTA-861 Extension Block:
  Missing VCDB, needed for Set Selectable RGB Quantization to avoid interop issues.
Block 2, Base EDID:
  Unknown Extension Block.
Block 3, CTA-861 Extension Block:
  Missing VCDB, needed for Set Selectable RGB Quantization to avoid interop issues.
EDID:
  Base EDID: Some timings are out of range of the Monitor Ranges:
    Horizontal Freq: 31.466 - 91.145 kHz (Monitor: 30.000 - 75.000 kHz)
  Base EDID: EDID specified 1 extension block(s), but found 3 extension block(s).
  Base EDID: EDID 1.3 requires a Block Map Extension in Block 1 if there are more than 2 blocks in the EDID.

EDID conformity: FAIL
