
EDID (hex):
00ffffffffffff001e6dfb5789610800
0c140103802f1d78ea4535a257589c27
0e5054a54b80714f818f81806140614f
0101010101017c2e90a0601a1e403020
3600da281100001a000000fd00384b1e
530f000a202020202020000000fc0045
3232313020202020200a2020000000ff
003031324e44574547353235370a000a

Extracted contents:
header:          00 ff ff ff ff ff ff 00
serial number:   1e 6d fb 57 89 61 08 00 0c 14
version:         01 03
basic params:    80 2f 1d 78 ea
chroma info:     45 35 a2 57 58 9c 27 0e 50 54
established:     a5 4b 80
standard:        71 4f 81 8f 81 80 61 40 61 4f 01 01 01 01 01 01
descriptor 1:    7c 2e 90 a0 60 1a 1e 40 30 20 36 00 da 28 11 00 00 1a
descriptor 2:    00 00 00 fd 00 38 4b 1e 53 0f 00 0a 20 20 20 20 20 20
descriptor 3:    00 00 00 fc 00 45 32 32 31 30 20 20 20 20 20 0a 20 20
descriptor 4:    00 00 00 ff 00 30 31 32 4e 44 57 45 47 35 32 35 37 0a
extensions:      00
checksum:        0a

EDID version: 1.3
Manufacturer: GSM Model 57fb Serial Number --
Made in week 12 of 2010
Digital display
Maximum image size: 47 cm x 29 cm
Gamma: 2.20
DPMS levels: Standby Suspend Off
RGB color display
First detailed timing is preferred timing
Display x,y Chromaticity:
  Red:   0.6337, 0.3398
  Green: 0.3447, 0.6103
  Blue:  0.1523, 0.0576
  White: 0.3134, 0.3291
Established timings supported:
  720x400@70Hz 9:5 HorFreq: 31469 Hz Clock: 28.320 MHz
  640x480@60Hz 4:3 HorFreq: 31469 Hz Clock: 25.175 MHz
  640x480@75Hz 4:3 HorFreq: 37500 Hz Clock: 31.500 MHz
  800x600@60Hz 4:3 HorFreq: 37900 Hz Clock: 40.000 MHz
  800x600@75Hz 4:3 HorFreq: 46900 Hz Clock: 49.500 MHz
  1024x768@60Hz 4:3 HorFreq: 48400 Hz Clock: 65.000 MHz
  1024x768@75Hz 4:3 HorFreq: 60000 Hz Clock: 78.750 MHz
  1280x1024@75Hz 5:4 HorFreq: 80000 Hz Clock: 135.000 MHz
  1152x870@75Hz 192:145 HorFreq: 67500 Hz Clock: 108.000 MHz
Standard timings supported:
  1152x864@75Hz 4:3 HorFreq: 67500 Hz Clock: 108.000 MHz
  1280x1024@75Hz 5:4 HorFreq: 80000 Hz Clock: 135.000 MHz
  1280x1024@60Hz 5:4 HorFreq: 64000 Hz Clock: 108.000 MHz
  1024x768@60Hz 4:3 HorFreq: 48400 Hz Clock: 65.000 MHz
  1024x768@75Hz 4:3 HorFreq: 60000 Hz Clock: 78.750 MHz
Detailed mode: Clock 119.000 MHz, 474 mm x 296 mm
               1680 1728 1760 1840 hborder 0
               1050 1053 1059 1080 vborder 0
               +hsync -vsync 
               VertFreq: 59 Hz, HorFreq: 64673 Hz
Monitor ranges (GTF): 56-75Hz V, 30-83kHz H, max dotclock 150MHz
Monitor name: E2210     
Serial number: --
Checksum: 0xa (valid)
