edid-decode (hex):

00 ff ff ff ff ff ff 00 4a 8b 54 4c 01 00 00 00
0c 11 01 03 81 46 27 78 8a a5 8e a6 54 4a 9c 26
12 45 46 af cf 00 95 00 95 0f 95 19 01 01 01 01
01 01 01 01 01 01 01 1d 00 72 51 d0 1e 20 6e 28
55 00 b9 88 21 00 00 1e 8c 0a d0 8a 20 e0 2d 10
10 3e 96 00 b9 88 21 00 00 18 00 00 00 fd 00 32
4b 18 3c 0b 00 0a 20 20 20 20 20 20 00 00 00 fc
00 33 32 56 33 48 2d 48 36 41 0a 20 20 20 01 29

00 ff ff ff ff ff ff 00 4a 8b 54 4c 01 00 00 00
0c 11 01 03 81 46 27 78 8a a5 8e a6 54 4a 9c 26
12 45 46 af cf 00 95 00 95 0f 95 19 01 01 01 01
01 01 01 01 01 01 01 1d 00 72 51 d0 1e 20 6e 28
55 00 b9 88 21 00 00 1e 8c 0a d0 8a 20 e0 2d 10
10 3e 96 00 b9 88 21 00 00 18 00 00 00 fd 00 32
4b 18 3c 0b 00 0a 20 20 20 20 20 20 00 00 00 fc
00 33 32 56 33 48 2d 48 36 41 0a 20 20 20 01 29

----------------

Block 0, Base EDID:
  EDID Structure Version & Revision: 1.3
  Vendor & Product Identification:
    Manufacturer: RTK
    Model: 19540
    Serial Number: ...
    Made in: week 12 of 2007
  Basic Display Parameters & Features:
    Digital display
    DFP 1.x compatible TMDS
    Maximum image size: 70 cm x 39 cm
    Gamma: 2.20
    DPMS levels: Standby
    RGB color display
    First detailed timing is the preferred timing
  Color Characteristics:
    Red  : 0.6503, 0.3300
    Green: 0.2900, 0.6103
    Blue : 0.1503, 0.0703
    White: 0.2724, 0.2753
  Established Timings I & II:
    IBM     :   720x400    70.081663 Hz   9:5     31.467 kHz     28.320000 MHz
    DMT 0x04:   640x480    59.940476 Hz   4:3     31.469 kHz     25.175000 MHz
    DMT 0x05:   640x480    72.808802 Hz   4:3     37.861 kHz     31.500000 MHz
    DMT 0x06:   640x480    75.000000 Hz   4:3     37.500 kHz     31.500000 MHz
    DMT 0x08:   800x600    56.250000 Hz   4:3     35.156 kHz     36.000000 MHz
    DMT 0x09:   800x600    60.316541 Hz   4:3     37.879 kHz     40.000000 MHz
    DMT 0x0a:   800x600    72.187572 Hz   4:3     48.077 kHz     50.000000 MHz
    DMT 0x0b:   800x600    75.000000 Hz   4:3     46.875 kHz     49.500000 MHz
    DMT 0x10:  1024x768    60.003840 Hz   4:3     48.363 kHz     65.000000 MHz
    DMT 0x11:  1024x768    70.069359 Hz   4:3     56.476 kHz     75.000000 MHz
    DMT 0x12:  1024x768    75.028582 Hz   4:3     60.023 kHz     78.750000 MHz
    DMT 0x24:  1280x1024   75.024675 Hz   5:4     79.976 kHz    135.000000 MHz
  Standard Timings:
    DMT 0x2f:  1440x900    59.887445 Hz  16:10    55.935 kHz    106.500000 MHz
    DMT 0x30:  1440x900    74.984427 Hz  16:10    70.635 kHz    136.750000 MHz
    DMT 0x31:  1440x900    84.842118 Hz  16:10    80.430 kHz    157.000000 MHz
  Detailed Timing Descriptors:
    DTD 1:  1280x720    60.000000 Hz  16:9     45.000 kHz     74.250000 MHz (697 mm x 392 mm)
                 Hfront  110 Hsync  40 Hback  220 Hpol P
                 Vfront    5 Vsync   5 Vback   20 Vpol P
    DTD 2:   720x480    59.940060 Hz   3:2     31.469 kHz     27.000000 MHz (697 mm x 392 mm)
                 Hfront   16 Hsync  62 Hback   60 Hpol N
                 Vfront    9 Vsync   6 Vback   30 Vpol N
    Display Range Limits:
      Monitor ranges (GTF): 50-75 Hz V, 24-60 kHz H, max dotclock 110 MHz
    Display Product Name: '32V3H-H6A'
  Extension blocks: 1
Checksum: 0x29

----------------

Block 1, Unknown EDID Extension Block 0x00:
  00 ff ff ff ff ff ff 00 4a 8b 54 4c 01 00 00 00 '........J.TL....'
  0c 11 01 03 81 46 27 78 8a a5 8e a6 54 4a 9c 26 '.....F'x....TJ.&'
  12 45 46 af cf 00 95 00 95 0f 95 19 01 01 01 01 '.EF.............'
  01 01 01 01 01 01 01 1d 00 72 51 d0 1e 20 6e 28 '.........rQ.. n('
  55 00 b9 88 21 00 00 1e 8c 0a d0 8a 20 e0 2d 10 'U...!....... .-.'
  10 3e 96 00 b9 88 21 00 00 18 00 00 00 fd 00 32 '.>....!........2'
  4b 18 3c 0b 00 0a 20 20 20 20 20 20 00 00 00 fc 'K.<...      ....'
  00 33 32 56 33 48 2d 48 36 41 0a 20 20 20 01 29 '.32V3H-H6A.   .)'
Checksum: 0x29

----------------

Failures:

Block 1, Base EDID:
  Unknown Extension Block.
EDID:
  Base EDID: Some timings are out of range of the Monitor Ranges:
    Vertical Freq: 56.250 - 84.842 Hz (Monitor: 50.000 - 75.000 Hz)
    Horizontal Freq: 31.466 - 80.430 kHz (Monitor: 24.000 - 60.000 kHz)
    Maximum Clock: 157.000 MHz (Monitor: 110.000 MHz)

EDID conformity: FAIL
