
EDID (hex):
00ffffffffffff000daf031800000000
28120103802917780accb5a754459726
16505400000001010101010101010101
010101010101293680a070381f403020
350098e610000018000000fe004e3138
3448342d4c30340a2020000000fe0043
4d4f0a202020202020202020000000fe
004e31383448342d4c30340a20200097

Extracted contents:
header:          00 ff ff ff ff ff ff 00
serial number:   0d af 03 18 00 00 00 00 28 12
version:         01 03
basic params:    80 29 17 78 0a
chroma info:     cc b5 a7 54 45 97 26 16 50 54
established:     00 00 00
standard:        01 01 01 01 01 01 01 01 01 01 01 01 01 01 01 01
descriptor 1:    29 36 80 a0 70 38 1f 40 30 20 35 00 98 e6 10 00 00 18
descriptor 2:    00 00 00 fe 00 4e 31 38 34 48 34 2d 4c 30 34 0a 20 20
descriptor 3:    00 00 00 fe 00 43 4d 4f 0a 20 20 20 20 20 20 20 20 20
descriptor 4:    00 00 00 fe 00 4e 31 38 34 48 34 2d 4c 30 34 0a 20 20
extensions:      00
checksum:        97

EDID version: 1.3
Manufacturer: CMO Model 1803 Serial Number --
Made in week 40 of 2008
Digital display
Maximum image size: 41 cm x 23 cm
Gamma: 2.20
RGB color display
First detailed timing is preferred timing
Display x,y Chromaticity:
  Red:   0.6552, 0.3281
  Green: 0.2724, 0.5898
  Blue:  0.1503, 0.0888
  White: 0.3134, 0.3291
Established timings supported:
Standard timings supported:
Detailed mode: Clock 138.650 MHz, 408 mm x 230 mm
               1920 1968 2000 2080 hborder 0
               1080 1083 1088 1111 vborder 0
               -hsync -vsync 
               VertFreq: 59 Hz, HorFreq: 66658 Hz
ASCII string: N184H4-L04
ASCII string: CMO
ASCII string: N184H4-L04
Checksum: 0x97 (valid)
EDID block does NOT conform to EDID 1.3!
	Missing name descriptor
	Missing monitor ranges
