edid-decode (hex):

00 ff ff ff ff ff ff 00 09 e5 d9 0c 00 00 00 00
0f 22 01 04 a5 22 16 78 03 9c 35 b0 4f 41 b2 25
0b 50 54 00 00 00 01 01 01 01 01 01 01 01 01 01
01 01 01 01 01 01 03 3e 80 a0 70 b0 48 40 30 20
a8 04 59 d7 10 00 00 1a 00 00 00 fd 00 1e 78 99
99 20 01 0a 20 20 20 20 20 20 00 00 00 fe 00 4e
32 30 57 50 80 4e 45 31 36 4e 36 37 00 00 00 00
00 02 41 3c b2 00 03 00 00 0a 41 0a 20 20 01 9b

70 20 79 02 00 20 00 13 9a 0e 00 d9 0c 00 00 00
00 0f 18 07 4e 45 31 36 4e 36 37 21 01 1d 77 0d
6a 08 80 07 b0 04 88 06 5b 4f 1c e4 b1 51 c2 0b
02 35 54 d0 5f d0 5f 54 35 12 78 22 00 14 33 d8
04 85 7f 07 9f 00 2f 00 1f 00 af 04 47 00 19 00
07 00 2b 00 06 27 00 1e 77 00 00 2e 00 06 40 4e
d0 5f d0 5f 00 00 00 00 00 00 00 00 00 00 00 00
00 00 00 00 00 00 00 00 00 00 00 00 00 00 eb 90

00 ff ff ff ff ff ff 00 09 e5 d9 0c 00 00 00 00
0f 22 01 04 a5 22 16 78 03 9c 35 b0 4f 41 b2 25
0b 50 54 00 00 00 01 01 01 01 01 01 01 01 01 01
01 01 01 01 01 01 03 3e 80 a0 70 b0 48 40 30 20
a8 04 59 d7 10 00 00 1a 00 00 00 fd 00 1e 78 99
99 20 01 0a 20 20 20 20 20 20 00 00 00 fe 00 4e
32 30 57 50 80 4e 45 31 36 4e 36 37 00 00 00 00
00 02 41 3c b2 00 03 00 00 0a 41 0a 20 20 01 9b

70 20 79 02 00 20 00 13 9a 0e 00 d9 0c 00 00 00
00 0f 18 07 4e 45 31 36 4e 36 37 21 01 1d 77 0d
6a 08 80 07 b0 04 88 06 5b 4f 1c e4 b1 51 c2 0b
02 35 54 d0 5f d0 5f 54 35 12 78 22 00 14 33 d8
04 85 7f 07 9f 00 2f 00 1f 00 af 04 47 00 19 00
07 00 2b 00 06 27 00 1e 77 00 00 2e 00 06 40 4e
d0 5f d0 5f 00 00 00 00 00 00 00 00 00 00 00 00
00 00 00 00 00 00 00 00 00 00 00 00 00 00 eb 90

----------------

Block 0, Base EDID:
  EDID Structure Version & Revision: 1.4
  Vendor & Product Identification:
    Manufacturer: BOE
    Model: 3289
    Made in: week 15 of 2024
  Basic Display Parameters & Features:
    Digital display
    Bits per primary color channel: 8
    DisplayPort interface
    Maximum image size: 34 cm x 22 cm
    Gamma: 2.20
    Supported color formats: RGB 4:4:4
    First detailed timing includes the native pixel format and preferred refresh rate
    Display is continuous frequency
  Color Characteristics:
    Red  : 0.6894, 0.3095
    Green: 0.2568, 0.6953
    Blue : 0.1445, 0.0458
    White: 0.3134, 0.3291
  Established Timings I & II: none
  Standard Timings: none
  Detailed Timing Descriptors:
    DTD 1:  1920x1200   60.001663 Hz  16:10    76.322 kHz    158.750000 MHz (345 mm x 215 mm)
                 Hfront   48 Hsync  32 Hback   80 Hpol P
                 Vfront   26 Vsync   8 Vback   38 Vpol N
    Display Range Limits:
      Monitor ranges (Bare Limits): 30-120 Hz V, 153-153 kHz H, max dotclock 320 MHz
    Alphanumeric Data String: 'N20WP'
    Manufacturer-Specified Display Descriptor (0x00): 00 00 00 02 41 3c b2 00 03 00 00 0a 41 0a 20 20 '....A<......A.  '
  Extension blocks: 1
Checksum: 0x9b

----------------

Block 1, DisplayID Extension Block:
  Version: 2.0
  Extension Count: 0
  Display Product Primary Use Case: None of the listed primary use cases; generic display
  Product Identification Data Block (0x20), OUI 9A-0E-00:
    Product Code: 3289
    Year of Manufacture: 2024, Week 15
    Product ID: NE16N67
  Display Parameters Data Block (0x21):
    Image size: 344.7 mm x 215.4 mm
    Display native pixel format: 1920x1200
    Scan Orientation: Left to Right, Top to Bottom
    Luminance Information: Guidance for the Source device
    Color Information: CIE 1931
    Audio Speaker Information: not integrated
    Native Color Chromaticity:
      Primary #1:  (0.688965, 0.309814)
      Primary #2:  (0.256836, 0.694824)
      Primary #3:  (0.144775, 0.045898)
      White Point: (0.312988, 0.328857)
    Native Maximum Luminance (Full Coverage): 500.000000 cd/m^2
    Native Maximum Luminance (10% Rectangular Coverage): 500.000000 cd/m^2
    Native Minimum Luminance: 0.333008 cd/m^2
    Native Color Depth: 10 bpc
    Display Device Technology: Active Matrix LCD
    Display Device Theme Preference: No Preference
    Native Gamma EOTF: 2.20
  Video Timing Modes Type 7 - Detailed Timings Data Block:
    DTD:  1920x1200  120.000302 Hz  16:10   152.640 kHz    317.492000 MHz (aspect 16:10, no 3D stereo, preferred)
               Hfront   48 Hsync  32 Hback   80 Hpol N
               Vfront   26 Vsync   8 Vback   38 Vpol N
  Adaptive Sync Data Block:
    Descriptor #1:
      Native Panel Range
      Fixed Average V-Total and Adaptive V-Total
      'Max Single Frame Duration Increase' field value without jitter impact
      'Max Single Frame Duration Decrease' field value without jitter impact
      Max Duration Increase: 0.00 ms
      Max Duration Decrease: 0.00 ms
      Min Refresh Rate: 30 Hz
      Max Refresh Rate: 120 Hz
  Unknown DisplayID Data Block (0x2e, length 6):
    40 4e d0 5f d0 5f                               '@N._._'
  Checksum: 0xeb
Checksum: 0x90

----------------

Block 2, Unknown EDID Extension Block 0x00:
  00 ff ff ff ff ff ff 00 09 e5 d9 0c 00 00 00 00 '................'
  0f 22 01 04 a5 22 16 78 03 9c 35 b0 4f 41 b2 25 '."...".x..5.OA.%'
  0b 50 54 00 00 00 01 01 01 01 01 01 01 01 01 01 '.PT.............'
  01 01 01 01 01 01 03 3e 80 a0 70 b0 48 40 30 20 '.......>..p.H@0 '
  a8 04 59 d7 10 00 00 1a 00 00 00 fd 00 1e 78 99 '..Y...........x.'
  99 20 01 0a 20 20 20 20 20 20 00 00 00 fe 00 4e '. ..      .....N'
  32 30 57 50 80 4e 45 31 36 4e 36 37 00 00 00 00 '20WP.NE16N67....'
  00 02 41 3c b2 00 03 00 00 0a 41 0a 20 20 01 9b '..A<......A.  ..'
Checksum: 0x9b

----------------

Block 3, DisplayID Extension Block:
  Version: 2.0
  Extension Count: 0
  Product Identification Data Block (0x20), OUI 9A-0E-00:
    Product Code: 3289
    Year of Manufacture: 2024, Week 15
    Product ID: NE16N67
  Display Parameters Data Block (0x21):
    Image size: 344.7 mm x 215.4 mm
    Display native pixel format: 1920x1200
    Scan Orientation: Left to Right, Top to Bottom
    Luminance Information: Guidance for the Source device
    Color Information: CIE 1931
    Audio Speaker Information: not integrated
    Native Color Chromaticity:
      Primary #1:  (0.688965, 0.309814)
      Primary #2:  (0.256836, 0.694824)
      Primary #3:  (0.144775, 0.045898)
      White Point: (0.312988, 0.328857)
    Native Maximum Luminance (Full Coverage): 500.000000 cd/m^2
    Native Maximum Luminance (10% Rectangular Coverage): 500.000000 cd/m^2
    Native Minimum Luminance: 0.333008 cd/m^2
    Native Color Depth: 10 bpc
    Display Device Technology: Active Matrix LCD
    Display Device Theme Preference: No Preference
    Native Gamma EOTF: 2.20
  Video Timing Modes Type 7 - Detailed Timings Data Block:
    DTD:  1920x1200  120.000302 Hz  16:10   152.640 kHz    317.492000 MHz (aspect 16:10, no 3D stereo, preferred)
               Hfront   48 Hsync  32 Hback   80 Hpol N
               Vfront   26 Vsync   8 Vback   38 Vpol N
  Adaptive Sync Data Block:
    Descriptor #1:
      Native Panel Range
      Fixed Average V-Total and Adaptive V-Total
      'Max Single Frame Duration Increase' field value without jitter impact
      'Max Single Frame Duration Decrease' field value without jitter impact
      Max Duration Increase: 0.00 ms
      Max Duration Decrease: 0.00 ms
      Min Refresh Rate: 30 Hz
      Max Refresh Rate: 120 Hz
  Unknown DisplayID Data Block (0x2e, length 6):
    40 4e d0 5f d0 5f                               '@N._._'
  Checksum: 0xeb
Checksum: 0x90

----------------

Warnings:

Block 0, Base EDID:
  Missing Display Product Name.
Block 1, DisplayID Extension Block:
  Product Identification Data Block (0x20), OUI 9A-0E-00: Unknown OUI 9A-0E-00.
Block 3, DisplayID Extension Block:
  Product Identification Data Block (0x20), OUI 9A-0E-00: Unknown OUI 9A-0E-00.
EDID:
  Base EDID: Some timings are out of range of the Monitor Ranges:
    Horizontal Freq: 76.322 - 152.640 kHz (Monitor: 153.000 - 153.000 kHz)

Failures:

Block 0, Base EDID:
  Alphanumeric Data String: Non-printable character.
Block 1, DisplayID Extension Block:
  Expected 0 DisplayID Extension Block, but got 1.
Block 2, Base EDID:
  Unknown Extension Block.
Block 3, DisplayID Extension Block:
  Product Type should be 0 in extension block.
  Product Identification Data Block (0x20), OUI 9A-0E-00: Product Identification Data Block (0x20), OUI 9A-0E-00 is required to be the first DisplayID Data Block.
  Display Parameters Data Block (0x21): Duplicate Display Parameters Data Block.
EDID:
  Base EDID: EDID specified 1 extension block(s), but found 3 extension block(s).
  DisplayID: Missing DisplayID Display Interface Features Data Block.

EDID conformity: FAIL
