
EDID (hex):
00ffffffffffff0015c3952301010101
3119010368331d78ea01f5a257529f27
0a505421080081808140b30081c00101
010101010101023a801871382d40582c
4500fe1f1100001e000000ff00353638
33373131350a20202020000000fd0037
3d1f440f000a202020202020000000fc
00455632333136570a20202020200031

Extracted contents:
header:          00 ff ff ff ff ff ff 00
serial number:   15 c3 95 23 01 01 01 01 31 19
version:         01 03
basic params:    68 33 1d 78 ea
chroma info:     01 f5 a2 57 52 9f 27 0a 50 54
established:     21 08 00
standard:        81 80 81 40 b3 00 81 c0 01 01 01 01 01 01 01 01
descriptor 1:    02 3a 80 18 71 38 2d 40 58 2c 45 00 fe 1f 11 00 00 1e
descriptor 2:    00 00 00 ff 00 35 36 38 33 37 31 31 35 0a 20 20 20 20
descriptor 3:    00 00 00 fd 00 37 3d 1f 44 0f 00 0a 20 20 20 20 20 20
descriptor 4:    00 00 00 fc 00 45 56 32 33 31 36 57 0a 20 20 20 20 20
extensions:      00
checksum:        31

EDID version: 1.3
Manufacturer: ENC Model 2395 Serial Number --
Made in week 49 of 2015
Analog display, Input voltage level: 0.7/0.7 V
Sync: Separate 
Maximum image size: 51 cm x 29 cm
Gamma: 2.20
DPMS levels: Standby Suspend Off
RGB color display
First detailed timing is preferred timing
Display x,y Chromaticity:
  Red:   0.6328, 0.3398
  Green: 0.3203, 0.6220
  Blue:  0.1552, 0.0419
  White: 0.3134, 0.3291
Established timings supported:
  640x480@60Hz 4:3 HorFreq: 31469 Hz Clock: 25.175 MHz
  800x600@60Hz 4:3 HorFreq: 37900 Hz Clock: 40.000 MHz
  1024x768@60Hz 4:3 HorFreq: 48400 Hz Clock: 65.000 MHz
Standard timings supported:
  1280x1024@60Hz 5:4 HorFreq: 64000 Hz Clock: 108.000 MHz
  1280x960@60Hz 4:3 HorFreq: 60000 Hz Clock: 108.000 MHz
  1680x1050@60Hz 16:10 HorFreq: 64700 Hz Clock: 119.000 MHz
  1280x720@60Hz 16:9
Detailed mode: Clock 148.500 MHz, 510 mm x 287 mm
               1920 2008 2052 2200 hborder 0
               1080 1084 1089 1125 vborder 0
               +hsync +vsync 
               VertFreq: 60 Hz, HorFreq: 67500 Hz
Serial number: --
Monitor ranges (GTF): 55-61Hz V, 31-68kHz H, max dotclock 150MHz
Monitor name: EV2316W
Checksum: 0x31 (valid)
