
EDID (hex):
00ffffffffffff000daf141500000000
00000103802115780a1ca59956528626
20505400000001010101010101010101
010101010101bc1b00a0502017303020
36004bcf10000018000000fe004e3135
3449312d4c30420a2020000000fe0043
4d4f0a202020202020202020000000fe
004e31353449312d4c30420a2020003c

Extracted contents:
header:          00 ff ff ff ff ff ff 00
serial number:   0d af 14 15 00 00 00 00 00 00
version:         01 03
basic params:    80 21 15 78 0a
chroma info:     1c a5 99 56 52 86 26 20 50 54
established:     00 00 00
standard:        01 01 01 01 01 01 01 01 01 01 01 01 01 01 01 01
descriptor 1:    bc 1b 00 a0 50 20 17 30 30 20 36 00 4b cf 10 00 00 18
descriptor 2:    00 00 00 fe 00 4e 31 35 34 49 31 2d 4c 30 42 0a 20 20
descriptor 3:    00 00 00 fe 00 43 4d 4f 0a 20 20 20 20 20 20 20 20 20
descriptor 4:    00 00 00 fe 00 4e 31 35 34 49 31 2d 4c 30 42 0a 20 20
extensions:      00
checksum:        3c

EDID version: 1.3
Manufacturer: CMO Model 1514 Serial Number --
Digital display
Maximum image size: 33 cm x 21 cm
Gamma: 2.20
RGB color display
First detailed timing is preferred timing
Display x,y Chromaticity:
  Red:   0.5976, 0.3369
  Green: 0.3232, 0.5234
  Blue:  0.1503, 0.1269
  White: 0.3134, 0.3291
Established timings supported:
Standard timings supported:
Detailed mode: Clock 71.000 MHz, 331 mm x 207 mm
               1280 1328 1360 1440 hborder 0
                800  803  809  823 vborder 0
               -hsync -vsync 
               VertFreq: 59 Hz, HorFreq: 49305 Hz
ASCII string: N154I1-L0B
ASCII string: CMO
ASCII string: N154I1-L0B
Checksum: 0x3c (valid)
EDID block does NOT conform to EDID 1.3!
	Missing name descriptor
	Missing monitor ranges
EDID block does not conform at all!
	Bad year of manufacture
