
EDID (hex):
00ffffffffffff00358b899100020000
26100103683b21780bd57ca357499c25
11484ba108008bc0814081c061400101
010101010101011d007251d01e206e28
5500c48e2100001e011d8018711c1620
582c2500c48e2100009e000000fc004d
494c4b595741593530504450000000fd
0030500e5b10000a20202020202000f7

Extracted contents:
header:          00 ff ff ff ff ff ff 00
serial number:   35 8b 89 91 00 02 00 00 26 10
version:         01 03
basic params:    68 3b 21 78 0b
chroma info:     d5 7c a3 57 49 9c 25 11 48 4b
established:     a1 08 00
standard:        8b c0 81 40 81 c0 61 40 01 01 01 01 01 01 01 01
descriptor 1:    01 1d 00 72 51 d0 1e 20 6e 28 55 00 c4 8e 21 00 00 1e
descriptor 2:    01 1d 80 18 71 1c 16 20 58 2c 25 00 c4 8e 21 00 00 9e
descriptor 3:    00 00 00 fc 00 4d 49 4c 4b 59 57 41 59 35 30 50 44 50
descriptor 4:    00 00 00 fd 00 30 50 0e 5b 10 00 0a 20 20 20 20 20 20
extensions:      00
checksum:        f7

EDID version: 1.3
Manufacturer: MLK Model 9189 Serial Number --
Made in week 38 of 2006
Analog display, Input voltage level: 0.7/0.7 V
Sync: Separate 
Maximum image size: 59 cm x 33 cm
Gamma: 2.20
RGB color display
First detailed timing is preferred timing
Supports GTF timings within operating range
Display x,y Chromaticity:
  Red:   0.6396, 0.3408
  Green: 0.2861, 0.6103
  Blue:  0.1455, 0.0693
  White: 0.2841, 0.2929
Established timings supported:
  720x400@70Hz 9:5 HorFreq: 31469 Hz Clock: 28.320 MHz
  640x480@60Hz 4:3 HorFreq: 31469 Hz Clock: 25.175 MHz
  800x600@60Hz 4:3 HorFreq: 37900 Hz Clock: 40.000 MHz
  1024x768@60Hz 4:3 HorFreq: 48400 Hz Clock: 65.000 MHz
Standard timings supported:
  1360x765@60Hz 16:9
  1280x960@60Hz 4:3 HorFreq: 60000 Hz Clock: 108.000 MHz
  1280x720@60Hz 16:9
  1024x768@60Hz 4:3 HorFreq: 48400 Hz Clock: 65.000 MHz
Detailed mode: Clock 74.250 MHz, 708 mm x 398 mm
               1280 1390 1430 1650 hborder 0
                720  725  730  750 vborder 0
               +hsync +vsync 
               VertFreq: 60 Hz, HorFreq: 45000 Hz
Detailed mode: Clock 74.250 MHz, 708 mm x 398 mm
               1920 2008 2052 2200 hborder 0
                540  542  547  562 vborder 0
               +hsync +vsync interlaced 
               VertFreq: 60 Hz, HorFreq: 33750 Hz
Monitor ranges (GTF): 48-80Hz V, 14-91kHz H, max dotclock 160MHz
Checksum: 0xf7 (valid)
EDID block does NOT conform to EDID 1.3!
	Name descriptor not terminated with a newline
