edid-decode (hex):

00 ff ff ff ff ff ff 00 30 ae 36 02 78 56 34 12
01 1d 01 03 81 34 1e 78 ea 64 b5 ab 52 38 ab 25
13 50 54 00 00 00 01 01 01 01 01 01 01 01 01 01
01 01 01 01 01 01 02 3a 80 18 71 38 2d 40 58 2c
45 00 09 25 21 00 00 1c 00 00 00 fc 00 4c 45 4e
2d 4d 39 30 61 2d 42 0a 20 20 00 00 00 10 00 48
4d 32 33 36 57 55 31 5f 31 30 30 0a 00 00 00 fd
00 38 4c 1e 53 10 00 0a 20 20 20 20 20 20 00 c7

00 ff ff ff ff ff ff 00 30 ae 36 02 78 56 34 12
01 1d 01 03 81 34 1e 78 ea 64 b5 ab 52 38 ab 25
13 50 54 00 00 00 01 01 01 01 01 01 01 01 01 01
01 01 01 01 01 01 02 3a 80 18 71 38 2d 40 58 2c
45 00 09 25 21 00 00 1c 00 00 00 fc 00 4c 45 4e
2d 4d 39 30 61 2d 42 0a 20 20 00 00 00 10 00 48
4d 32 33 36 57 55 31 5f 31 30 30 0a 00 00 00 fd
00 38 4c 1e 53 10 00 0a 20 20 20 20 20 20 00 c7

----------------

Block 0, Base EDID:
  EDID Structure Version & Revision: 1.3
  Vendor & Product Identification:
    Manufacturer: LEN
    Model: 566
    Serial Number: ...
    Made in: week 1 of 2019
  Basic Display Parameters & Features:
    Digital display
    DFP 1.x compatible TMDS
    Maximum image size: 52 cm x 30 cm
    Gamma: 2.20
    DPMS levels: Standby Suspend Off
    RGB color display
    First detailed timing is the preferred timing
  Color Characteristics:
    Red  : 0.6689, 0.3222
    Green: 0.2197, 0.6679
    Blue : 0.1464, 0.0771
    White: 0.3134, 0.3291
  Established Timings I & II: none
  Standard Timings: none
  Detailed Timing Descriptors:
    DTD 1:  1920x1080   60.000000 Hz  16:9     67.500 kHz    148.500000 MHz (521 mm x 293 mm)
                 Hfront   88 Hsync  44 Hback  148 Hpol N
                 Vfront    4 Vsync   5 Vback   36 Vpol P
    Display Product Name: 'LEN-M90a-B'
    Dummy Descriptor:
    Display Range Limits:
      Monitor ranges (GTF): 56-76 Hz V, 30-83 kHz H, max dotclock 160 MHz
Checksum: 0xc7

----------------

Block 1, Unknown EDID Extension Block 0x00:
  00 ff ff ff ff ff ff 00 30 ae 36 02 78 56 34 12 '........0.6.xV4.'
  01 1d 01 03 81 34 1e 78 ea 64 b5 ab 52 38 ab 25 '.....4.x.d..R8.%'
  13 50 54 00 00 00 01 01 01 01 01 01 01 01 01 01 '.PT.............'
  01 01 01 01 01 01 02 3a 80 18 71 38 2d 40 58 2c '.......:..q8-@X,'
  45 00 09 25 21 00 00 1c 00 00 00 fc 00 4c 45 4e 'E..%!........LEN'
  2d 4d 39 30 61 2d 42 0a 20 20 00 00 00 10 00 48 '-M90a-B.  .....H'
  4d 32 33 36 57 55 31 5f 31 30 30 0a 00 00 00 fd 'M236WU1_100.....'
  00 38 4c 1e 53 10 00 0a 20 20 20 20 20 20 00 c7 '.8L.S...      ..'
Checksum: 0xc7

----------------

Warnings:

Block 0, Base EDID:
  Detailed Timing Descriptor #1: DTD is similar but not identical to VIC 16.

Failures:

Block 0, Base EDID:
  Dummy Descriptor: Dummy block filled with garbage.
Block 1, Base EDID:
  Unknown Extension Block.
EDID:
  Base EDID: EDID specified 0 extension block(s), but found 1 extension block(s).

EDID conformity: FAIL
