
EDID (hex):
00ffffffffffff00244d162501010101
100d01038e241d78ea0920a2574b9724
185054a56a8031594559615981800101
010101010101302a009851002a403070
1300671f1100001e000000fc0049424d
20543836300a00000000000000fe0039
3439340a0000000000000000000000ff
0036362d50383536330a202020200077

Extracted contents:
header:          00 ff ff ff ff ff ff 00
serial number:   24 4d 16 25 01 01 01 01 10 0d
version:         01 03
basic params:    8e 24 1d 78 ea
chroma info:     09 20 a2 57 4b 97 24 18 50 54
established:     a5 6a 80
standard:        31 59 45 59 61 59 81 80 01 01 01 01 01 01 01 01
descriptor 1:    30 2a 00 98 51 00 2a 40 30 70 13 00 67 1f 11 00 00 1e
descriptor 2:    00 00 00 fc 00 49 42 4d 20 54 38 36 30 0a 00 00 00 00
descriptor 3:    00 00 00 fe 00 39 34 39 34 0a 00 00 00 00 00 00 00 00
descriptor 4:    00 00 00 ff 00 36 36 2d 50 38 35 36 33 0a 20 20 20 20
extensions:      00
checksum:        77

EDID version: 1.3
Manufacturer: IBM Model 2516 Serial Number --
Digital display
Maximum image size: 36 cm x 29 cm
Gamma: 2.20
DPMS levels: Standby Suspend Off
RGB color display
First detailed timing is preferred timing
Display x,y Chromaticity:
  Red:   0.6328, 0.3398
  Green: 0.2949, 0.5908
  Blue:  0.1406, 0.0957
  White: 0.3125, 0.3281
Established timings supported:
  720x400@70Hz 9:5 HorFreq: 31469 Hz Clock: 28.320 MHz
  640x480@60Hz 4:3 HorFreq: 31469 Hz Clock: 25.175 MHz
  640x480@75Hz 4:3 HorFreq: 37500 Hz Clock: 31.500 MHz
  800x600@60Hz 4:3 HorFreq: 37900 Hz Clock: 40.000 MHz
  800x600@75Hz 4:3 HorFreq: 46900 Hz Clock: 49.500 MHz
  832x624@75Hz 4:3 HorFreq: 49726 Hz Clock: 57.284 MHz
  1024x768@60Hz 4:3 HorFreq: 48400 Hz Clock: 65.000 MHz
  1024x768@75Hz 4:3 HorFreq: 60000 Hz Clock: 78.750 MHz
  1152x870@75Hz 192:145 HorFreq: 67500 Hz Clock: 108.000 MHz
Standard timings supported:
  640x480@85Hz 4:3 HorFreq: 43300 Hz Clock: 36.000 MHz
  800x600@85Hz 4:3 HorFreq: 53700 Hz Clock: 56.250 MHz
  1024x768@85Hz 4:3 HorFreq: 68700 Hz Clock: 94.500 MHz
  1280x1024@60Hz 5:4 HorFreq: 64000 Hz Clock: 108.000 MHz
Detailed mode: Clock 108.000 MHz, 359 mm x 287 mm
               1280 1328 1440 1688 hborder 0
               1024 1025 1028 1066 vborder 0
               +hsync +vsync 
               VertFreq: 60 Hz, HorFreq: 63981 Hz
Monitor name: IBM T860
ASCII string: 9494
Serial number: --
Checksum: 0x77 (valid)
EDID block does NOT conform to EDID 1.3!
	Digital display field contains garbage: e
	Missing monitor ranges
	Detailed block string not properly terminated
EDID block does not conform at all!
	Bad year of manufacture
