
EDID (hex):
00ffffffffffff000dc4610500000000
051901036e000078ea40949c57529226
1c5054adcf1081000101010101010101
0101010101019a29a0d0518422305098
3600f8c221000020000000fc00434e44
4c43442e434f4d0a0a0a000000fc0043
4e444c43442e434f4d0a0a0a000000ff
00434e444c43442e434f4d0a0a0a004e

Extracted contents:
header:          00 ff ff ff ff ff ff 00
serial number:   0d c4 61 05 00 00 00 00 05 19
version:         01 03
basic params:    6e 00 00 78 ea
chroma info:     40 94 9c 57 52 92 26 1c 50 54
established:     ad cf 10
standard:        81 00 01 01 01 01 01 01 01 01 01 01 01 01 01 01
descriptor 1:    9a 29 a0 d0 51 84 22 30 50 98 36 00 f8 c2 21 00 00 20
descriptor 2:    00 00 00 fc 00 43 4e 44 4c 43 44 2e 43 4f 4d 0a 0a 0a
descriptor 3:    00 00 00 fc 00 43 4e 44 4c 43 44 2e 43 4f 4d 0a 0a 0a
descriptor 4:    00 00 00 ff 00 43 4e 44 4c 43 44 2e 43 4f 4d 0a 0a 0a
extensions:      00
checksum:        4e

EDID version: 1.3
Manufacturer: CND Model 561 Serial Number --
Made in week 5 of 2015
Analog display, Input voltage level: 0.7/0.7 V
Sync: Separate Composite SyncOnGreen 
Image size is variable
Gamma: 2.20
DPMS levels: Standby Suspend Off
RGB color display
First detailed timing is preferred timing
Display x,y Chromaticity:
  Red:   0.6103, 0.3398
  Green: 0.3203, 0.5703
  Blue:  0.1503, 0.1103
  White: 0.3134, 0.3281
Established timings supported:
  720x400@70Hz 9:5 HorFreq: 31469 Hz Clock: 28.320 MHz
  640x480@60Hz 4:3 HorFreq: 31469 Hz Clock: 25.175 MHz
  640x480@72Hz 4:3 HorFreq: 37900 Hz Clock: 31.500 MHz
  640x480@75Hz 4:3 HorFreq: 37500 Hz Clock: 31.500 MHz
  800x600@60Hz 4:3 HorFreq: 37900 Hz Clock: 40.000 MHz
  800x600@72Hz 4:3 HorFreq: 48100 Hz Clock: 50.000 MHz
  800x600@75Hz 4:3 HorFreq: 46900 Hz Clock: 49.500 MHz
  1024x768@60Hz 4:3 HorFreq: 48400 Hz Clock: 65.000 MHz
  1024x768@70Hz 4:3 HorFreq: 56500 Hz Clock: 75.000 MHz
  1024x768@75Hz 4:3 HorFreq: 60000 Hz Clock: 78.750 MHz
  1280x1024@75Hz 5:4 HorFreq: 80000 Hz Clock: 135.000 MHz
Standard timings supported:
  1280x800@60Hz 16:10
Detailed mode: Clock 106.500 MHz, 760 mm x 450 mm
               1440 1520 1672 1904 hborder 0
                900  903  909  934 vborder 0
               -hsync -vsync analog composite field sequential L/R
               VertFreq: 59 Hz, HorFreq: 55934 Hz
Monitor name: CNDLCD.COM
Serial number: --
Checksum: 0x4e (valid)
EDID block does NOT conform to EDID 1.3!
	Missing monitor ranges
	Detailed block string not properly terminated
