
EDID (hex):
00ffffffffffff004493550000000000
000f0103802115780a479994574f8c27
27505400000001010101010101010101
010101010101cb1b00a0502017303020
26004bcf100000180000000f0008002a
0001000400324a041400000000fe0048
463038360000000000000000000000fe
003048586080b0d8ff01010a2020006d

Extracted contents:
header:          00 ff ff ff ff ff ff 00
serial number:   44 93 55 00 00 00 00 00 00 0f
version:         01 03
basic params:    80 21 15 78 0a
chroma info:     47 99 94 57 4f 8c 27 27 50 54
established:     00 00 00
standard:        01 01 01 01 01 01 01 01 01 01 01 01 01 01 01 01
descriptor 1:    cb 1b 00 a0 50 20 17 30 30 20 26 00 4b cf 10 00 00 18
descriptor 2:    00 00 00 0f 00 08 00 2a 00 01 00 04 00 32 4a 04 14 00
descriptor 3:    00 00 00 fe 00 48 46 30 38 36 00 00 00 00 00 00 00 00
descriptor 4:    00 00 00 fe 00 30 48 58 60 80 b0 d8 ff 01 01 0a 20 20
extensions:      00
checksum:        6d

EDID version: 1.3
Manufacturer: QDS Model 55 Serial Number --
Digital display
Maximum image size: 33 cm x 21 cm
Gamma: 2.20
RGB color display
First detailed timing is preferred timing
Display x,y Chromaticity:
  Red:   0.5791, 0.3398
  Green: 0.3095, 0.5498
  Blue:  0.1542, 0.1533
  White: 0.3144, 0.3291
Established timings supported:
Standard timings supported:
Detailed mode: Clock 71.150 MHz, 331 mm x 207 mm
               1280 1328 1360 1440 hborder 0
                800  802  808  823 vborder 0
               -hsync -vsync 
               VertFreq: 60 Hz, HorFreq: 49409 Hz
Manufacturer-specified data, tag 15
ASCII string: HF086
ASCII string: 0HX`
Checksum: 0x6d (valid)
EDID block does NOT conform to EDID 1.3!
	Missing name descriptor
	Missing monitor ranges
	Detailed block string not properly terminated
EDID block does not conform at all!
	Bad year of manufacture
