
EDID (hex):
00ffffffffffff001ab35405d50c0000
1313010380291f782a2945a459499824
125054a54b00a9408180010101010101
010101010101483f403062b0324040c0
130098321100001e000000fd00334b1e
5211000a202020202020000000fc0050
32302d32530a202020202020000000ff
005956314d3030333238350a20200040

Extracted contents:
header:          00 ff ff ff ff ff ff 00
serial number:   1a b3 54 05 d5 0c 00 00 13 13
version:         01 03
basic params:    80 29 1f 78 2a
chroma info:     29 45 a4 59 49 98 24 12 50 54
established:     a5 4b 00
standard:        a9 40 81 80 01 01 01 01 01 01 01 01 01 01 01 01
descriptor 1:    48 3f 40 30 62 b0 32 40 40 c0 13 00 98 32 11 00 00 1e
descriptor 2:    00 00 00 fd 00 33 4b 1e 52 11 00 0a 20 20 20 20 20 20
descriptor 3:    00 00 00 fc 00 50 32 30 2d 32 53 0a 20 20 20 20 20 20
descriptor 4:    00 00 00 ff 00 59 56 31 4d 30 30 33 32 38 35 0a 20 20
extensions:      00
checksum:        40

EDID version: 1.3
Manufacturer: FUS Model 554 Serial Number --
Made in week 19 of 2009
Digital display
Maximum image size: 41 cm x 31 cm
Gamma: 2.20
DPMS levels: Off
RGB color display
First detailed timing is preferred timing
Display x,y Chromaticity:
  Red:   0.6406, 0.3496
  Green: 0.2871, 0.5947
  Blue:  0.1416, 0.0703
  White: 0.3134, 0.3291
Established timings supported:
  720x400@70Hz 9:5 HorFreq: 31469 Hz Clock: 28.320 MHz
  640x480@60Hz 4:3 HorFreq: 31469 Hz Clock: 25.175 MHz
  640x480@75Hz 4:3 HorFreq: 37500 Hz Clock: 31.500 MHz
  800x600@60Hz 4:3 HorFreq: 37900 Hz Clock: 40.000 MHz
  800x600@75Hz 4:3 HorFreq: 46900 Hz Clock: 49.500 MHz
  1024x768@60Hz 4:3 HorFreq: 48400 Hz Clock: 65.000 MHz
  1024x768@75Hz 4:3 HorFreq: 60000 Hz Clock: 78.750 MHz
  1280x1024@75Hz 5:4 HorFreq: 80000 Hz Clock: 135.000 MHz
Standard timings supported:
  1600x1200@60Hz 4:3 HorFreq: 75000 Hz Clock: 162.000 MHz
  1280x1024@60Hz 5:4 HorFreq: 64000 Hz Clock: 108.000 MHz
Detailed mode: Clock 162.000 MHz, 408 mm x 306 mm
               1600 1664 1856 2160 hborder 0
               1200 1201 1204 1250 vborder 0
               +hsync +vsync 
               VertFreq: 60 Hz, HorFreq: 75000 Hz
Monitor ranges (GTF): 51-75Hz V, 30-82kHz H, max dotclock 170MHz
Monitor name: P20-2S
Serial number: --
Checksum: 0x40 (valid)
