edid-decode (hex):

00 ff ff ff ff ff ff 00 0d ae 2e 15 00 00 00 00
18 1e 01 04 95 22 13 78 02 28 65 97 59 54 8e 27
1e 50 54 00 00 00 01 01 01 01 01 01 01 01 01 01
01 01 01 01 01 01 a4 38 80 e6 70 38 2c 40 50 36
68 00 58 c1 10 00 00 1a 50 2d 80 e6 70 38 2c 40
50 36 68 00 58 c1 10 00 00 1a 00 00 00 fe 00 43
4e 43 39 4a 81 31 35 36 48 43 41 0a 00 00 00 00
00 00 41 31 99 00 10 00 00 0a 01 0a 20 20 00 ca

----------------

Block 0, Base EDID:
  EDID Structure Version & Revision: 1.4
  Vendor & Product Identification:
    Manufacturer: CMN
    Model: 5422
    Made in: week 24 of 2020
  Basic Display Parameters & Features:
    Digital display
    Bits per primary color channel: 6
    DisplayPort interface
    Maximum image size: 34 cm x 19 cm
    Gamma: 2.20
    Supported color formats: RGB 4:4:4
    First detailed timing includes the native pixel format and preferred refresh rate
  Color Characteristics:
    Red  : 0.5898, 0.3496
    Green: 0.3300, 0.5546
    Blue : 0.1533, 0.1191
    White: 0.3134, 0.3291
  Established Timings I & II: none
  Standard Timings: none
  Detailed Timing Descriptors:
    DTD 1:  1920x1080   60.001655 Hz  16:9     67.442 kHz    145.000000 MHz (344 mm x 193 mm)
                 Hfront   80 Hsync  54 Hback   96 Hpol P
                 Vfront    6 Vsync   8 Vback   30 Vpol N
    DTD 2:  1920x1080   48.001324 Hz  16:9     53.953 kHz    116.000000 MHz (344 mm x 193 mm)
                 Hfront   80 Hsync  54 Hback   96 Hpol P
                 Vfront    6 Vsync   8 Vback   30 Vpol N
    Alphanumeric Data String: 'CNC9J'
    Manufacturer-Specified Display Descriptor (0x00): 00 00 00 00 41 31 99 00 10 00 00 0a 01 0a 20 20 '....A1........  '
Checksum: 0xca

----------------

Warnings:

Block 0, Base EDID:
  Missing Display Product Name.

Failures:

Block 0, Base EDID:
  Alphanumeric Data String: Non-printable character.

EDID conformity: FAIL
