
EDID (hex):
00ffffffffffff0006af9d1000000000
301801049526157802ec05a3554e9b26
0f505400000001010101010101010101
010101010101fa3780dc703824401010
3e007dd6100000180000000f00000000
00000000000000000020000000fe0041
554f0a202020202020202020000000fe
004231373348414e30312e30200a0009

Extracted contents:
header:          00 ff ff ff ff ff ff 00
serial number:   06 af 9d 10 00 00 00 00 30 18
version:         01 04
basic params:    95 26 15 78 02
chroma info:     ec 05 a3 55 4e 9b 26 0f 50 54
established:     00 00 00
standard:        01 01 01 01 01 01 01 01 01 01 01 01 01 01 01 01
descriptor 1:    fa 37 80 dc 70 38 24 40 10 10 3e 00 7d d6 10 00 00 18
descriptor 2:    00 00 00 0f 00 00 00 00 00 00 00 00 00 00 00 00 00 20
descriptor 3:    00 00 00 fe 00 41 55 4f 0a 20 20 20 20 20 20 20 20 20
descriptor 4:    00 00 00 fe 00 42 31 37 33 48 41 4e 30 31 2e 30 20 0a
extensions:      00
checksum:        09

EDID version: 1.4
Manufacturer: AUO Model 109d Serial Number --
Made in week 48 of 2014
Digital display
6 bits per primary color channel
DisplayPort interface
Maximum image size: 38 cm x 21 cm
Gamma: 2.20
Supported color formats: RGB 4:4:4
First detailed timing includes the native pixel format and preferred refresh rate
Display x,y Chromaticity:
  Red:   0.6396, 0.3339
  Green: 0.3076, 0.6054
  Blue:  0.1484, 0.0585
  White: 0.3134, 0.3291
Established timings supported:
Standard timings supported:
Detailed mode: Clock 143.300 MHz, 381 mm x 214 mm
               1920 1936 1952 2140 hborder 0
               1080 1083 1097 1116 vborder 0
               -hsync -vsync 
               VertFreq: 60 Hz, HorFreq: 66962 Hz
Manufacturer-specified data, tag 15
ASCII string: AUO
ASCII string: B173HAN01.0 
Checksum: 0x9 (valid)
EDID block does NOT conform to EDID 1.4!
	Missing name descriptor
	Missing monitor ranges
