
EDID (hex):
00ffffffffffff000e6f161400000000
00200104b51e1378032115a853499c25
0f505400000001010101010101010101
010101010101ce8740a0b0086a703020
36002dbc10000018000000fd002878e5
e546010a202020202020000000fe0043
534f542054330a2020202020000000fe
004d4e453030375a41312d350a2001af
70137900000301149a0f01053f0b9f00
2f001f00070769000200050000000000
00000000000000000000000000000000
00000000000000000000000000000000
00000000000000000000000000000000
00000000000000000000000000000000
00000000000000000000000000000000
0000000000000000000000000000f098

edid-decode (hex):

00 ff ff ff ff ff ff 00 0e 6f 16 14 00 00 00 00
00 20 01 04 b5 1e 13 78 03 21 15 a8 53 49 9c 25
0f 50 54 00 00 00 01 01 01 01 01 01 01 01 01 01
01 01 01 01 01 01 ce 87 40 a0 b0 08 6a 70 30 20
36 00 2d bc 10 00 00 18 00 00 00 fd 00 28 78 e5
e5 46 01 0a 20 20 20 20 20 20 00 00 00 fe 00 43
53 4f 54 20 54 33 0a 20 20 20 20 20 00 00 00 fe
00 4d 4e 45 30 30 37 5a 41 31 2d 35 0a 20 01 af

70 13 79 00 00 03 01 14 9a 0f 01 05 3f 0b 9f 00
2f 00 1f 00 07 07 69 00 02 00 05 00 00 00 00 00
00 00 00 00 00 00 00 00 00 00 00 00 00 00 00 00
00 00 00 00 00 00 00 00 00 00 00 00 00 00 00 00
00 00 00 00 00 00 00 00 00 00 00 00 00 00 00 00
00 00 00 00 00 00 00 00 00 00 00 00 00 00 00 00
00 00 00 00 00 00 00 00 00 00 00 00 00 00 00 00
00 00 00 00 00 00 00 00 00 00 00 00 00 00 f0 98

----------------

Block 0, Base EDID:
  EDID Structure Version & Revision: 1.4
  Vendor & Product Identification:
    Manufacturer: CSO
    Model: 5142
    Made in: 2022
  Basic Display Parameters & Features:
    Digital display
    Bits per primary color channel: 10
    DisplayPort interface
    Maximum image size: 30 cm x 19 cm
    Gamma: 2.20
    Supported color formats: RGB 4:4:4
    First detailed timing includes the native pixel format and preferred refresh rate
    Display is continuous frequency
  Color Characteristics:
    Red  : 0.6562, 0.3261
    Green: 0.2851, 0.6103
    Blue : 0.1445, 0.0595
    White: 0.3134, 0.3291
  Established Timings I & II: none
  Standard Timings: none
  Detailed Timing Descriptors:
    DTD 1:  2880x1800   60.000966 Hz  16:10   114.362 kHz    347.660000 MHz (301 mm x 188 mm)
                 Hfront   48 Hsync  32 Hback   80 Hpol N
                 Vfront    3 Vsync   6 Vback   97 Vpol N
    Display Range Limits:
      Monitor ranges (Bare Limits): 40-120 Hz V, 229-229 kHz H, max dotclock 700 MHz
    Alphanumeric Data String: 'CSOT T3'
    Alphanumeric Data String: 'MNE007ZA1-5'
  Extension blocks: 1
Checksum: 0xaf

----------------

Block 1, DisplayID Extension Block:
  Version: 1.3
  Extension Count: 0
  Display Product Type: Extension Section
  Video Timing Modes Type 1 - Detailed Timings Data Block:
    DTD:  2880x1800  120.000207 Hz  16:10   228.720 kHz    695.310000 MHz (aspect 16:10, no 3D stereo)
               Hfront   48 Hsync  32 Hback   80 Hpol N
               Vfront    3 Vsync   6 Vback   97 Vpol N
  Checksum: 0xf0 (should be 0xf8)
Checksum: 0x98
