
EDID (hex):
00ffffffffffff0022f0423101010101
111a010368221b782a11a5a55552a01f
0e5054a1080081c08100814081800101
010101010101302a009851002a403070
1300520e1100001e000000fd00324c18
530e000a202020202020000000fc0048
5020503137410a2020202020000000ff
00334351363137333459590a20200094

Extracted contents:
header:          00 ff ff ff ff ff ff 00
serial number:   22 f0 42 31 01 01 01 01 11 1a
version:         01 03
basic params:    68 22 1b 78 2a
chroma info:     11 a5 a5 55 52 a0 1f 0e 50 54
established:     a1 08 00
standard:        81 c0 81 00 81 40 81 80 01 01 01 01 01 01 01 01
descriptor 1:    30 2a 00 98 51 00 2a 40 30 70 13 00 52 0e 11 00 00 1e
descriptor 2:    00 00 00 fd 00 32 4c 18 53 0e 00 0a 20 20 20 20 20 20
descriptor 3:    00 00 00 fc 00 48 50 20 50 31 37 41 0a 20 20 20 20 20
descriptor 4:    00 00 00 ff 00 33 43 51 36 31 37 33 34 59 59 0a 20 20
extensions:      00
checksum:        94

EDID version: 1.3
Manufacturer: HWP Model 3142 Serial Number --
Made in week 17 of 2016
Analog display, Input voltage level: 0.7/0.7 V
Sync: Separate 
Maximum image size: 34 cm x 27 cm
Gamma: 2.20
DPMS levels: Off
RGB color display
First detailed timing is preferred timing
Display x,y Chromaticity:
  Red:   0.6445, 0.3330
  Green: 0.3203, 0.6259
  Blue:  0.1230, 0.0566
  White: 0.3134, 0.3291
Established timings supported:
  720x400@70Hz 9:5 HorFreq: 31469 Hz Clock: 28.320 MHz
  640x480@60Hz 4:3 HorFreq: 31469 Hz Clock: 25.175 MHz
  800x600@60Hz 4:3 HorFreq: 37900 Hz Clock: 40.000 MHz
  1024x768@60Hz 4:3 HorFreq: 48400 Hz Clock: 65.000 MHz
Standard timings supported:
  1280x720@60Hz 16:9
  1280x800@60Hz 16:10
  1280x960@60Hz 4:3 HorFreq: 60000 Hz Clock: 108.000 MHz
  1280x1024@60Hz 5:4 HorFreq: 64000 Hz Clock: 108.000 MHz
Detailed mode: Clock 108.000 MHz, 338 mm x 270 mm
               1280 1328 1440 1688 hborder 0
               1024 1025 1028 1066 vborder 0
               +hsync +vsync 
               VertFreq: 60 Hz, HorFreq: 63981 Hz
Monitor ranges (GTF): 50-76Hz V, 24-83kHz H, max dotclock 140MHz
Monitor name: HP P17A
Serial number: --
Checksum: 0x94 (valid)
