edid-decode (hex):

00 ff ff ff ff ff ff 00 06 af 87 32 00 00 00 00
01 0f 01 03 80 25 17 78 0a 6d f2 9c 59 4c 8f 23
23 52 54 00 00 00 01 01 01 01 01 01 01 01 01 01
01 01 01 01 01 01 9e 25 a0 40 51 84 0c 30 40 20
33 00 6f e6 10 00 00 19 5a 1f a0 40 51 84 0c 30
40 20 33 00 6f e6 10 00 00 00 00 00 00 fe 00 58
44 35 34 39 05 42 31 37 30 50 57 33 00 00 00 fe
00 2e 41 4f 58 7c a6 c6 ff 02 01 0a 20 20 00 b7

----------------

Block 0, Base EDID:
  EDID Structure Version & Revision: 1.3
  Vendor & Product Identification:
    Manufacturer: AUO
    Model: 12935
    Made in: week 1 of 2005
  Basic Display Parameters & Features:
    Digital display
    Maximum image size: 37 cm x 23 cm
    Gamma: 2.20
    RGB color display
    First detailed timing is the preferred timing
  Color Characteristics:
    Red  : 0.6103, 0.3496
    Green: 0.2998, 0.5595
    Blue : 0.1396, 0.1396
    White: 0.3203, 0.3300
  Established Timings I & II: none
  Standard Timings: none
  Detailed Timing Descriptors:
    DTD 1:  1440x900    59.995514 Hz  16:10    54.716 kHz     96.300000 MHz (DE timing only, 367 mm x 230 mm)
                 Hfront   64 Hsync  32 Hback  224 Hpol N
                 Vfront    3 Vsync   3 Vback    6 Vpol N
    DTD 2:  1440x900    50.002492 Hz  16:10    45.602 kHz     80.260000 MHz (DE timing only, 367 mm x 230 mm)
                 Hfront   64 Hsync  32 Hback  224 Hpol N
                 Vfront    3 Vsync   3 Vback    6 Vpol N
    SPWG Module Revision: 0
    SPWG Descriptor #3:
      SPWG PC Maker P/N: 'XD549'
      SPWG LCD Supplier EEDID Revision: 5
      SPWG Manufacturer P/N: 'B170PW3'
    SPWG Descriptor #4:
      SMBUS Values: 0x2e 0x41 0x4f 0x58 0x7c 0xa6 0xc6 0xff
      LVDS Channels: 2
      Panel Self Test Present
Checksum: 0xb7

----------------

Failures:

Block 0, Base EDID:
  Missing Display Product Name.
  Missing Display Range Limits Descriptor.

EDID conformity: FAIL
