
EDID (hex):
00ffffffffffff005262090101010101
ff14010380a05a780a0dc9a057479827
12484c2fcf0081800101010101010101
010101010101023a80d072382d40102c
458040846300001e662150b051001b30
407036003a846300001e000000fc0054
4f53484942412d54560a2020000000fd
00174c0f510f000a20202020202001b9

Extracted contents:
header:          00 ff ff ff ff ff ff 00
serial number:   52 62 09 01 01 01 01 01 ff 14
version:         01 03
basic params:    80 a0 5a 78 0a
chroma info:     0d c9 a0 57 47 98 27 12 48 4c
established:     2f cf 00
standard:        81 80 01 01 01 01 01 01 01 01 01 01 01 01 01 01
descriptor 1:    02 3a 80 d0 72 38 2d 40 10 2c 45 80 40 84 63 00 00 1e
descriptor 2:    66 21 50 b0 51 00 1b 30 40 70 36 00 3a 84 63 00 00 1e
descriptor 3:    00 00 00 fc 00 54 4f 53 48 49 42 41 2d 54 56 0a 20 20
descriptor 4:    00 00 00 fd 00 17 4c 0f 51 0f 00 0a 20 20 20 20 20 20
extensions:      01
checksum:        b9

EDID version: 1.3
Manufacturer: TSB Model 109 Serial Number --
Digital display
Maximum image size: 160 cm x 90 cm
Gamma: 2.20
RGB color display
First detailed timing is preferred timing
Display x,y Chromaticity:
  Red:   0.6250, 0.3398
  Green: 0.2802, 0.5947
  Blue:  0.1552, 0.0703
  White: 0.2832, 0.2978
Established timings supported:
  640x480@60Hz 4:3 HorFreq: 31469 Hz Clock: 25.175 MHz
  640x480@72Hz 4:3 HorFreq: 37900 Hz Clock: 31.500 MHz
  640x480@75Hz 4:3 HorFreq: 37500 Hz Clock: 31.500 MHz
  800x600@56Hz 4:3 HorFreq: 35200 Hz Clock: 36.000 MHz
  800x600@60Hz 4:3 HorFreq: 37900 Hz Clock: 40.000 MHz
  800x600@72Hz 4:3 HorFreq: 48100 Hz Clock: 50.000 MHz
  800x600@75Hz 4:3 HorFreq: 46900 Hz Clock: 49.500 MHz
  1024x768@60Hz 4:3 HorFreq: 48400 Hz Clock: 65.000 MHz
  1024x768@70Hz 4:3 HorFreq: 56500 Hz Clock: 75.000 MHz
  1024x768@75Hz 4:3 HorFreq: 60000 Hz Clock: 78.750 MHz
  1280x1024@75Hz 5:4 HorFreq: 80000 Hz Clock: 135.000 MHz
Standard timings supported:
  1280x1024@60Hz 5:4 HorFreq: 64000 Hz Clock: 108.000 MHz
Detailed mode: Clock 148.500 MHz, 1600 mm x 900 mm
               1920 2448 2492 2640 hborder 0
               1080 1084 1089 1125 vborder 0
               +hsync +vsync 
               VertFreq: 50 Hz, HorFreq: 56250 Hz
Detailed mode: Clock 85.500 MHz, 1594 mm x 900 mm
               1360 1424 1536 1792 hborder 0
                768  771  777  795 vborder 0
               +hsync +vsync 
               VertFreq: 60 Hz, HorFreq: 47712 Hz
Monitor name: TOSHIBA-TV
Monitor ranges (GTF): 23-76Hz V, 15-81kHz H, max dotclock 150MHz
Has 1 extension blocks
Checksum: 0xb9 (valid)
EDID block does not conform at all!
	Bad year of manufacture
	Bad week of manufacture
