
EDID (hex):
00ffffffffffff00593a190001010101
25120103682917782a3d85a6564a9a24
12505423080001010101010101010101
010101010101662150b051001b304070
36009ae61000001c000000ff000a2020
20202020202020202020000000fc0056
4131394c2048445456313054000000fd
00383e1e380b000a20202020202000ea

Extracted contents:
header:          00 ff ff ff ff ff ff 00
serial number:   59 3a 19 00 01 01 01 01 25 12
version:         01 03
basic params:    68 29 17 78 2a
chroma info:     3d 85 a6 56 4a 9a 24 12 50 54
established:     23 08 00
standard:        01 01 01 01 01 01 01 01 01 01 01 01 01 01 01 01
descriptor 1:    66 21 50 b0 51 00 1b 30 40 70 36 00 9a e6 10 00 00 1c
descriptor 2:    00 00 00 ff 00 0a 20 20 20 20 20 20 20 20 20 20 20 20
descriptor 3:    00 00 00 fc 00 56 41 31 39 4c 20 48 44 54 56 31 30 54
descriptor 4:    00 00 00 fd 00 38 3e 1e 38 0b 00 0a 20 20 20 20 20 20
extensions:      00
checksum:        ea

EDID version: 1.3
Manufacturer: VIZ Model 19 Serial Number --
Made in week 37 of 2008
Analog display, Input voltage level: 0.7/0.7 V
Sync: Separate 
Maximum image size: 41 cm x 23 cm
Gamma: 2.20
DPMS levels: Off
RGB color display
First detailed timing is preferred timing
Display x,y Chromaticity:
  Red:   0.6484, 0.3388
  Green: 0.2919, 0.6025
  Blue:  0.1425, 0.0703
  White: 0.3134, 0.3291
Established timings supported:
  640x480@60Hz 4:3 HorFreq: 31469 Hz Clock: 25.175 MHz
  800x600@56Hz 4:3 HorFreq: 35200 Hz Clock: 36.000 MHz
  800x600@60Hz 4:3 HorFreq: 37900 Hz Clock: 40.000 MHz
  1024x768@60Hz 4:3 HorFreq: 48400 Hz Clock: 65.000 MHz
Standard timings supported:
Detailed mode: Clock 85.500 MHz, 410 mm x 230 mm
               1360 1424 1536 1792 hborder 0
                768  771  777  795 vborder 0
               -hsync +vsync 
               VertFreq: 60 Hz, HorFreq: 47712 Hz
Serial number: 
-- ranges (GTF): 56-62Hz V, 30-56kHz H, max dotclock 110MHz
Checksum: 0xea (valid)
EDID block does NOT conform to EDID 1.3!
	Name descriptor not terminated with a newline
