edid-decode (hex):

00 ff ff ff ff ff ff 00 36 8b 40 06 00 00 00 00
10 1d 01 04 a5 1f 11 78 0a aa 70 95 62 5c 92 29
1e 50 54 00 00 00 01 01 01 01 01 01 01 01 01 01
01 01 01 01 01 01 6e 5e 00 a0 a0 a0 29 50 30 20
35 00 35 ad 10 00 00 1a 8b 4b 00 90 a0 a0 32 50
30 20 35 00 35 ad 10 00 00 1a 00 00 00 fe 00 41
67 65 72 61 0a 20 20 20 20 20 20 20 00 00 00 fe
00 41 67 65 72 61 0a 20 20 20 20 20 20 20 00 7d

00 ff ff ff ff ff ff 00 36 8b 40 06 00 00 00 00
10 1d 01 04 a5 1f 11 78 0a aa 70 95 62 5c 92 29
1e 50 54 00 00 00 01 01 01 01 01 01 01 01 01 01
01 01 01 01 01 01 6e 5e 00 a0 a0 a0 29 50 30 20
35 00 35 ad 10 00 00 1a 8b 4b 00 90 a0 a0 32 50
30 20 35 00 35 ad 10 00 00 1a 00 00 00 fe 00 41
67 65 72 61 0a 20 20 20 20 20 20 20 00 00 00 fe
00 41 67 65 72 61 0a 20 20 20 20 20 20 20 00 7d

----------------

Block 0, Base EDID:
  EDID Structure Version & Revision: 1.4
  Vendor & Product Identification:
    Manufacturer: MTK
    Model: 1600
    Made in: week 16 of 2019
  Basic Display Parameters & Features:
    Digital display
    Bits per primary color channel: 8
    DisplayPort interface
    Maximum image size: 31 cm x 17 cm
    Gamma: 2.20
    Supported color formats: RGB 4:4:4, YCrCb 4:4:4
    First detailed timing includes the native pixel format and preferred refresh rate
  Color Characteristics:
    Red  : 0.5839, 0.3847
    Green: 0.3613, 0.5722
    Blue : 0.1611, 0.1201
    White: 0.3125, 0.3281
  Established Timings I & II: none
  Standard Timings: none
  Detailed Timing Descriptors:
    DTD 1:  2560x1440   60.010128 Hz  16:9     88.875 kHz    241.740000 MHz (309 mm x 173 mm)
                 Hfront   48 Hsync  32 Hback   80 Hpol P
                 Vfront    3 Vsync   5 Vback   33 Vpol N
    DTD 2:  2560x1440   47.999980 Hz  16:9     71.520 kHz    193.390000 MHz (309 mm x 173 mm)
                 Hfront   48 Hsync  32 Hback   64 Hpol P
                 Vfront    3 Vsync   5 Vback   42 Vpol N
    Alphanumeric Data String: 'Agera'
    Alphanumeric Data String: 'Agera'
Checksum: 0x7d

----------------

Block 1, Unknown EDID Extension Block 0x00:
  00 ff ff ff ff ff ff 00 36 8b 40 06 00 00 00 00 '........6.@.....'
  10 1d 01 04 a5 1f 11 78 0a aa 70 95 62 5c 92 29 '.......x..p.b\.)'
  1e 50 54 00 00 00 01 01 01 01 01 01 01 01 01 01 '.PT.............'
  01 01 01 01 01 01 6e 5e 00 a0 a0 a0 29 50 30 20 '......n^....)P0 '
  35 00 35 ad 10 00 00 1a 8b 4b 00 90 a0 a0 32 50 '5.5......K....2P'
  30 20 35 00 35 ad 10 00 00 1a 00 00 00 fe 00 41 '0 5.5..........A'
  67 65 72 61 0a 20 20 20 20 20 20 20 00 00 00 fe 'gera.       ....'
  00 41 67 65 72 61 0a 20 20 20 20 20 20 20 00 7d '.Agera.       .}'
Checksum: 0x7d

----------------

Warnings:

Block 0, Base EDID:
  Missing Display Product Name.

Failures:

Block 1, Base EDID:
  Unknown Extension Block.
EDID:
  Base EDID: EDID specified 0 extension block(s), but found 1 extension block(s).

EDID conformity: FAIL
