
EDID (hex):
00ffffffffffff0022f00c2644484a42
160e0103681e1778eab3a5a1584f8926
165054adee0061400101010101010101
01010101010164190040410026301888
360030e410000018000000fd00384c1e
3f08000a202020202020000000fc0068
70204c313533300a20202020000000ff
00434e50343232424a48440a202000ad

Extracted contents:
header:          00 ff ff ff ff ff ff 00
serial number:   22 f0 0c 26 44 48 4a 42 16 0e
version:         01 03
basic params:    68 1e 17 78 ea
chroma info:     b3 a5 a1 58 4f 89 26 16 50 54
established:     ad ee 00
standard:        61 40 01 01 01 01 01 01 01 01 01 01 01 01 01 01
descriptor 1:    64 19 00 40 41 00 26 30 18 88 36 00 30 e4 10 00 00 18
descriptor 2:    00 00 00 fd 00 38 4c 1e 3f 08 00 0a 20 20 20 20 20 20
descriptor 3:    00 00 00 fc 00 68 70 20 4c 31 35 33 30 0a 20 20 20 20
descriptor 4:    00 00 00 ff 00 43 4e 50 34 32 32 42 4a 48 44 0a 20 20
extensions:      00
checksum:        ad

EDID version: 1.3
Manufacturer: HWP Model 260c Serial Number --
Analog display, Input voltage level: 0.7/0.7 V
Sync: Separate 
Maximum image size: 30 cm x 23 cm
Gamma: 2.20
DPMS levels: Standby Suspend Off
RGB color display
First detailed timing is preferred timing
Display x,y Chromaticity:
  Red:   0.6308, 0.3466
  Green: 0.3085, 0.5380
  Blue:  0.1503, 0.0878
  White: 0.3134, 0.3291
Established timings supported:
  720x400@70Hz 9:5 HorFreq: 31469 Hz Clock: 28.320 MHz
  640x480@60Hz 4:3 HorFreq: 31469 Hz Clock: 25.175 MHz
  640x480@72Hz 4:3 HorFreq: 37900 Hz Clock: 31.500 MHz
  640x480@75Hz 4:3 HorFreq: 37500 Hz Clock: 31.500 MHz
  800x600@60Hz 4:3 HorFreq: 37900 Hz Clock: 40.000 MHz
  800x600@72Hz 4:3 HorFreq: 48100 Hz Clock: 50.000 MHz
  800x600@75Hz 4:3 HorFreq: 46900 Hz Clock: 49.500 MHz
  832x624@75Hz 4:3 HorFreq: 49726 Hz Clock: 57.284 MHz
  1024x768@60Hz 4:3 HorFreq: 48400 Hz Clock: 65.000 MHz
  1024x768@70Hz 4:3 HorFreq: 56500 Hz Clock: 75.000 MHz
  1024x768@75Hz 4:3 HorFreq: 60000 Hz Clock: 78.750 MHz
Standard timings supported:
  1024x768@60Hz 4:3 HorFreq: 48400 Hz Clock: 65.000 MHz
Detailed mode: Clock 65.000 MHz, 304 mm x 228 mm
               1024 1048 1184 1344 hborder 0
                768  771  777  806 vborder 0
               -hsync -vsync 
               VertFreq: 60 Hz, HorFreq: 48363 Hz
Monitor ranges (GTF): 56-76Hz V, 30-63kHz H, max dotclock 80MHz
Monitor name: hp L1530
Serial number: --
Checksum: 0xad (valid)
EDID block does not conform at all!
	Bad year of manufacture
