
EDID (hex):
00ffffffffffff004ca3414900000000
00120103801a10780a87f594574f8c27
27505400000001010101010101010101
010101010101121b0087502010301030
130005a3100000190000000f00000000
00000000002387026400000000fe0053
414d53554e470a2020202020000000fe
00313231415430322d4130310a200018

edid-decode (hex):

00 ff ff ff ff ff ff 00 4c a3 41 49 00 00 00 00
00 12 01 03 80 1a 10 78 0a 87 f5 94 57 4f 8c 27
27 50 54 00 00 00 01 01 01 01 01 01 01 01 01 01
01 01 01 01 01 01 12 1b 00 87 50 20 10 30 10 30
13 00 05 a3 10 00 00 19 00 00 00 0f 00 00 00 00
00 00 00 00 00 23 87 02 64 00 00 00 00 fe 00 53
41 4d 53 55 4e 47 0a 20 20 20 20 20 00 00 00 fe
00 31 32 31 41 54 30 32 2d 41 30 31 0a 20 00 18

----------------

Block 0, Base EDID:
  EDID Structure Version & Revision: 1.3
  Vendor & Product Identification:
    Manufacturer: SEC
    Model: 18753
    Made in: 2008
  Basic Display Parameters & Features:
    Digital display
    Maximum image size: 26 cm x 16 cm
    Gamma: 2.20
    RGB color display
    First detailed timing is the preferred timing
  Color Characteristics:
    Red  : 0.5800, 0.3398
    Green: 0.3095, 0.5498
    Blue : 0.1552, 0.1552
    White: 0.3134, 0.3291
  Established Timings I & II: none
  Standard Timings: none
  Detailed Timing Descriptors:
    DTD 1:  1280x800    60.018707 Hz  16:10    48.975 kHz     69.300000 MHz (261 mm x 163 mm)
                 Hfront   16 Hsync  48 Hback   71 Hpol N
                 Vfront    1 Vsync   3 Vback   12 Vpol N
    Manufacturer-Specified Display Descriptor (0x0f): 00 0f 00 00 00 00 00 00 00 00 00 23 87 02 64 00 '...........#..d.'
    Alphanumeric Data String: 'SAMSUNG'
    Alphanumeric Data String: '121AT02-A01'
Checksum: 0x18
