edid-decode (hex):

00 ff ff ff ff ff ff 00 46 e1 02 36 41 87 03 00
0d 14 01 03 68 30 1b 78 2a e6 15 a6 55 49 99 27
13 50 54 ad 08 00 01 01 01 01 01 01 01 01 01 01
01 01 01 01 01 01 02 3a 80 18 71 38 2d 40 58 2c
45 00 de 0d 11 00 00 1e 00 00 00 fd 00 38 4c 18
53 11 00 0a 20 20 20 20 20 20 00 00 00 fc 00 4c
45 4e 4f 56 4f 20 42 33 31 30 0a 20 00 00 00 ff
00 31 33 32 32 31 33 31 32 33 31 32 33 33 00 da

00 ff ff ff ff ff ff 00 46 e1 02 36 41 87 03 00
0d 14 01 03 68 30 1b 78 2a e6 15 a6 55 49 99 27
13 50 54 ad 08 00 01 01 01 01 01 01 01 01 01 01
01 01 01 01 01 01 02 3a 80 18 71 38 2d 40 58 2c
45 00 de 0d 11 00 00 1e 00 00 00 fd 00 38 4c 18
53 11 00 0a 20 20 20 20 20 20 00 00 00 fc 00 4c
45 4e 4f 56 4f 20 42 33 31 30 0a 20 00 00 00 ff
00 31 33 32 32 31 33 31 32 33 31 32 33 33 00 da

----------------

Block 0, Base EDID:
  EDID Structure Version & Revision: 1.3
  Vendor & Product Identification:
    Manufacturer: QWA
    Model: 13826
    Serial Number: ...
    Made in: week 13 of 2010
  Basic Display Parameters & Features:
    Analog display
    Signal Level Standard: 0.700 : 0.000 : 0.700 V p-p
    Blank level equals black level
    Sync: Separate
    Maximum image size: 48 cm x 27 cm
    Gamma: 2.20
    DPMS levels: Off
    RGB color display
    First detailed timing is the preferred timing
  Color Characteristics:
    Red  : 0.6513, 0.3339
    Green: 0.2861, 0.5996
    Blue : 0.1523, 0.0751
    White: 0.3134, 0.3291
  Established Timings I & II:
    IBM     :   720x400    70.081663 Hz   9:5     31.467 kHz     28.320000 MHz
    DMT 0x04:   640x480    59.940476 Hz   4:3     31.469 kHz     25.175000 MHz
    DMT 0x05:   640x480    72.808802 Hz   4:3     37.861 kHz     31.500000 MHz
    DMT 0x06:   640x480    75.000000 Hz   4:3     37.500 kHz     31.500000 MHz
    DMT 0x09:   800x600    60.316541 Hz   4:3     37.879 kHz     40.000000 MHz
    DMT 0x10:  1024x768    60.003840 Hz   4:3     48.363 kHz     65.000000 MHz
  Standard Timings: none
  Detailed Timing Descriptors:
    DTD 1:  1920x1080   60.000000 Hz  16:9     67.500 kHz    148.500000 MHz (478 mm x 269 mm)
                 Hfront   88 Hsync  44 Hback  148 Hpol P
                 Vfront    4 Vsync   5 Vback   36 Vpol P
    Display Range Limits:
      Monitor ranges (GTF): 56-76 Hz V, 24-83 kHz H, max dotclock 170 MHz
    Display Product Name: 'LENOVO B310'
    Display Product Serial Number: ...
Checksum: 0xda

----------------

Block 1, Unknown EDID Extension Block 0x00:
  00 ff ff ff ff ff ff 00 46 e1 02 36 41 87 03 00 '........F..6A...'
  0d 14 01 03 68 30 1b 78 2a e6 15 a6 55 49 99 27 '....h0.x*...UI.''
  13 50 54 ad 08 00 01 01 01 01 01 01 01 01 01 01 '.PT.............'
  01 01 01 01 01 01 02 3a 80 18 71 38 2d 40 58 2c '.......:..q8-@X,'
  45 00 de 0d 11 00 00 1e 00 00 00 fd 00 38 4c 18 'E............8L.'
  53 11 00 0a 20 20 20 20 20 20 00 00 00 fc 00 4c 'S...      .....L'
  45 4e 4f 56 4f 20 42 33 31 30 0a 20 00 00 00 ff 'ENOVO B310. ....'
  00 31 33 32 32 31 33 31 32 33 31 32 33 33 00 da '.1322131231233..'
Checksum: 0xda

----------------

Failures:

Block 1, Base EDID:
  Unknown Extension Block.
EDID:
  Base EDID: EDID specified 0 extension block(s), but found 1 extension block(s).

EDID conformity: FAIL
