
EDID (hex):
00ffffffffffff0009e5a60600000000
01190104951d10780a92809759559128
1e505400000001010101010101010101
010101010101041c5693500016303020
360025a51000001ad61256a050001630
3020360025a51000001a000000fe0033
4e314e30154e54313357484d00000000
00004111191110000009010a2020000b

Extracted contents:
header:          00 ff ff ff ff ff ff 00
serial number:   09 e5 a6 06 00 00 00 00 01 19
version:         01 04
basic params:    95 1d 10 78 0a
chroma info:     92 80 97 59 55 91 28 1e 50 54
established:     00 00 00
standard:        01 01 01 01 01 01 01 01 01 01 01 01 01 01 01 01
descriptor 1:    04 1c 56 93 50 00 16 30 30 20 36 00 25 a5 10 00 00 1a
descriptor 2:    d6 12 56 a0 50 00 16 30 30 20 36 00 25 a5 10 00 00 1a
descriptor 3:    00 00 00 fe 00 33 4e 31 4e 30 15 4e 54 31 33 57 48 4d
descriptor 4:    00 00 00 00 00 00 41 11 19 11 10 00 00 09 01 0a 20 20
extensions:      00
checksum:        0b

EDID version: 1.4
Manufacturer: BOE Model 6a6 Serial Number --
Made in week 1 of 2015
Digital display
6 bits per primary color channel
DisplayPort interface
Maximum image size: 29 cm x 16 cm
Gamma: 2.20
Supported color formats: RGB 4:4:4, YCrCb 4:4:4
First detailed timing includes the native pixel format and preferred refresh rate
Display x,y Chromaticity:
  Red:   0.5917, 0.3486
  Green: 0.3320, 0.5683
  Blue:  0.1582, 0.1171
  White: 0.3125, 0.3281
Established timings supported:
Standard timings supported:
Detailed mode: Clock 71.720 MHz, 293 mm x 165 mm
               1366 1414 1446 1513 hborder 0
                768  771  777  790 vborder 0
               +hsync -vsync 
               VertFreq: 60 Hz, HorFreq: 47402 Hz
Detailed mode: Clock 48.220 MHz, 293 mm x 165 mm
               1366 1414 1446 1526 hborder 0
                768  771  777  790 vborder 0
               +hsync -vsync 
               VertFreq: 39 Hz, HorFreq: 31598 Hz
ASCII string: 3N1N0
Manufacturer-specified data, tag 0
Checksum: 0xb (valid)
EDID block does NOT conform to EDID 1.4!
	Missing name descriptor
	Missing monitor ranges
	Detailed block string not properly terminated
