edid-decode (hex):

00 ff ff ff ff ff ff 00 30 e4 58 02 00 00 00 00
00 15 01 04 80 23 13 78 0a 1b e5 9e 59 50 98 26
0e 50 54 00 00 00 01 01 01 01 01 01 01 01 01 01
01 01 01 01 01 01 64 32 40 b8 62 84 24 30 40 60
35 40 59 c2 10 00 00 19 98 21 40 b8 62 84 24 30
40 60 35 40 59 c2 10 00 00 19 00 00 00 00 00 00
00 00 00 00 00 00 00 00 00 00 00 00 00 00 00 02
00 0c 49 ff 0a 3c 64 29 2d 41 64 00 00 00 00 1f

----------------

Block 0, Base EDID:
  EDID Structure Version & Revision: 1.4
  Vendor & Product Identification:
    Manufacturer: LGD
    Model: 600
    Made in: 2011
  Basic Display Parameters & Features:
    Digital display
    Color depth is undefined
    Digital interface is not defined
    Maximum image size: 35 cm x 19 cm
    Gamma: 2.20
    Supported color formats: RGB 4:4:4, YCrCb 4:4:4
    First detailed timing includes the native pixel format and preferred refresh rate
  Color Characteristics:
    Red  : 0.6171, 0.3486
    Green: 0.3144, 0.5966
    Blue : 0.1513, 0.0566
    White: 0.3134, 0.3291
  Established Timings I & II: none
  Standard Timings: none
  Detailed Timing Descriptors:
    DTD 1:  1600x900    60.026 Hz  16:9    56.185 kHz 129.000 MHz (345 mm x 194 mm)
                 Hfront  320 Hsync  96 Hback 280 Hpol N
                 Vfront    3 Vsync   5 Vback  28 Vpol N
    DTD 2:  1600x900    40.018 Hz  16:9    37.456 kHz  86.000 MHz (345 mm x 194 mm)
                 Hfront  320 Hsync  96 Hback 280 Hpol N
                 Vfront    3 Vsync   5 Vback  28 Vpol N
    Empty Descriptor
    Manufacturer-Specified Display Descriptor (0x02): 00 02 00 0c 49 ff 0a 3c 64 29 2d 41 64 00 00 00 '....I..<d)-Ad...'
Checksum: 0x1f

----------------

Failures:

Block 0, Base EDID:
  Empty Descriptor: Use Dummy Descriptor instead of all zeroes.
  Missing Display Product Name.

EDID conformity: FAIL
