edid-decode (hex):

00 ff ff ff ff ff ff 00 22 f0 0d 41 01 01 00 00
01 15 01 03 80 29 17 78 0a fe 40 a4 55 4d 9c 25
12 50 54 00 00 00 01 01 01 01 01 01 01 01 01 01
01 01 01 01 01 01 b0 1d 56 c2 50 00 26 30 18 8c
23 00 9a e6 10 00 00 18 00 00 00 fe 00 43 43 46
4c 4c 4d 31 38 35 54 4c 48 33 00 00 00 fc 00 43
6f 6d 70 61 71 20 43 51 2d 31 0a 20 00 00 00 fe
00 4c 4d 31 38 35 57 48 31 2d 54 4c 48 33 00 f5

----------------

Block 0, Base EDID:
  EDID Structure Version & Revision: 1.3
  Vendor & Product Identification:
    Manufacturer: HWP
    Model: 16653
    Serial Number: ...
    Made in: week 1 of 2011
  Basic Display Parameters & Features:
    Digital display
    Maximum image size: 41 cm x 23 cm
    Gamma: 2.20
    RGB color display
    First detailed timing is the preferred timing
  Color Characteristics:
    Red  : 0.6435, 0.3349
    Green: 0.3037, 0.6113
    Blue : 0.1455, 0.0703
    White: 0.3125, 0.3281
  Established Timings I & II: none
  Standard Timings: none
  Detailed Timing Descriptors:
    DTD 1:  1366x768    60.444 Hz 683:384  48.718 kHz  76.000 MHz (410 mm x 230 mm)
                 Hfront   24 Hsync 140 Hback  30 Hpol N
                 Vfront    2 Vsync   3 Vback  33 Vpol N
    Alphanumeric Data String: 'CCFLLM185TLH3'
    Display Product Name: 'Compaq CQ-1'
    Alphanumeric Data String: 'LM185WH1-TLH3'
Checksum: 0xf5

----------------

Failures:

Block 0, Base EDID:
  Missing Display Range Limits Descriptor.

EDID conformity: FAIL
