
EDID (hex):
00ffffffffffff0009e5ef0600000000
011a0104951f11780a24109759548e27
1e505400000001010101010101010101
010101010101bc398018713828403020
360035ad1000001a362e801871382840
3020360035ad1000001a000000fe0048
32524e4e004e5431344e343100000000
0000412196001000000a010a20200071

Extracted contents:
header:          00 ff ff ff ff ff ff 00
serial number:   09 e5 ef 06 00 00 00 00 01 1a
version:         01 04
basic params:    95 1f 11 78 0a
chroma info:     24 10 97 59 54 8e 27 1e 50 54
established:     00 00 00
standard:        01 01 01 01 01 01 01 01 01 01 01 01 01 01 01 01
descriptor 1:    bc 39 80 18 71 38 28 40 30 20 36 00 35 ad 10 00 00 1a
descriptor 2:    36 2e 80 18 71 38 28 40 30 20 36 00 35 ad 10 00 00 1a
descriptor 3:    00 00 00 fe 00 48 32 52 4e 4e 00 4e 54 31 34 4e 34 31
descriptor 4:    00 00 00 00 00 00 41 21 96 00 10 00 00 0a 01 0a 20 20
extensions:      00
checksum:        71

EDID version: 1.4
Manufacturer: BOE Model 6ef Serial Number --
Made in week 1 of 2016
Digital display
6 bits per primary color channel
DisplayPort interface
Maximum image size: 31 cm x 17 cm
Gamma: 2.20
Supported color formats: RGB 4:4:4, YCrCb 4:4:4
First detailed timing includes the native pixel format and preferred refresh rate
Display x,y Chromaticity:
  Red:   0.5898, 0.3496
  Green: 0.3291, 0.5546
  Blue:  0.1523, 0.1181
  White: 0.3125, 0.3281
Established timings supported:
Standard timings supported:
Detailed mode: Clock 147.800 MHz, 309 mm x 173 mm
               1920 1968 2000 2200 hborder 0
               1080 1083 1089 1120 vborder 0
               +hsync -vsync 
               VertFreq: 59 Hz, HorFreq: 67181 Hz
Detailed mode: Clock 118.300 MHz, 309 mm x 173 mm
               1920 1968 2000 2200 hborder 0
               1080 1083 1089 1120 vborder 0
               +hsync -vsync 
               VertFreq: 48 Hz, HorFreq: 53772 Hz
ASCII string: H2RNN
Manufacturer-specified data, tag 0
Checksum: 0x71 (valid)
EDID block does NOT conform to EDID 1.4!
	Missing name descriptor
	Missing monitor ranges
	Detailed block string not properly terminated
