
EDID (hex):
00ffffffffffff002462003500000000
281b0104b55223783f7690a8544d9f25
0e5054bfef80d1c081c081008180a9c0
b300b32821e83ed070a0d0a029503020
3a00c48f2100001ae77c70a0d0a02950
30203a00c48f2100001a000000fd0031
7da0a041010a202020202020000000fc
0044500a202020202020202020200176
02031df24a0584030201129314160723
0f7f078301000065030c0010008c0ad0
8a20e02d10103e9600c48e2100001888
5e00a0a0a0295030203600c48e210000
1e599d00a0a0a02950582c4500c48e21
00001e023a801871382d40582c4500c4
8e2100001eae60801871382d40582c45
00c48e210000000000000000000000a6

Extracted contents:
header:          00 ff ff ff ff ff ff 00
serial number:   24 62 00 35 00 00 00 00 28 1b
version:         01 04
basic params:    b5 52 23 78 3f
chroma info:     76 90 a8 54 4d 9f 25 0e 50 54
established:     bf ef 80
standard:        d1 c0 81 c0 81 00 81 80 a9 c0 b3 00 b3 28 21 e8
descriptor 1:    3e d0 70 a0 d0 a0 29 50 30 20 3a 00 c4 8f 21 00 00 1a
descriptor 2:    e7 7c 70 a0 d0 a0 29 50 30 20 3a 00 c4 8f 21 00 00 1a
descriptor 3:    00 00 00 fd 00 31 7d a0 a0 41 01 0a 20 20 20 20 20 20
descriptor 4:    00 00 00 fc 00 44 50 0a 20 20 20 20 20 20 20 20 20 20
extensions:      01
checksum:        76

EDID version: 1.4
Manufacturer: ICB Model 3500 Serial Number --
Made in week 40 of 2017
Digital display
10 bits per primary color channel
DisplayPort interface
Maximum image size: 82 cm x 35 cm
Gamma: 2.20
DPMS levels: Off
Supported color formats: RGB 4:4:4, YCrCb 4:4:4, YCrCb 4:2:2
Default (sRGB) color space is primary color space
First detailed timing includes the native pixel format and preferred refresh rate
Display is continuous frequency
Display x,y Chromaticity:
  Red:   0.6572, 0.3310
  Green: 0.3017, 0.6230
  Blue:  0.1464, 0.0556
  White: 0.3125, 0.3281
Established timings supported:
  720x400@70Hz 9:5 HorFreq: 31469 Hz Clock: 28.320 MHz
  640x480@60Hz 4:3 HorFreq: 31469 Hz Clock: 25.175 MHz
  640x480@67Hz 4:3 HorFreq: 35000 Hz Clock: 30.240 MHz
  640x480@72Hz 4:3 HorFreq: 37900 Hz Clock: 31.500 MHz
  640x480@75Hz 4:3 HorFreq: 37500 Hz Clock: 31.500 MHz
  800x600@56Hz 4:3 HorFreq: 35200 Hz Clock: 36.000 MHz
  800x600@60Hz 4:3 HorFreq: 37900 Hz Clock: 40.000 MHz
  800x600@72Hz 4:3 HorFreq: 48100 Hz Clock: 50.000 MHz
  800x600@75Hz 4:3 HorFreq: 46900 Hz Clock: 49.500 MHz
  832x624@75Hz 4:3 HorFreq: 49726 Hz Clock: 57.284 MHz
  1024x768@60Hz 4:3 HorFreq: 48400 Hz Clock: 65.000 MHz
  1024x768@70Hz 4:3 HorFreq: 56500 Hz Clock: 75.000 MHz
  1024x768@75Hz 4:3 HorFreq: 60000 Hz Clock: 78.750 MHz
  1280x1024@75Hz 5:4 HorFreq: 80000 Hz Clock: 135.000 MHz
  1152x870@75Hz 192:145 HorFreq: 67500 Hz Clock: 108.000 MHz
Standard timings supported:
  1920x1080@60Hz 16:9
  1280x720@60Hz 16:9
  1280x800@60Hz 16:10
  1280x1024@60Hz 5:4 HorFreq: 64000 Hz Clock: 108.000 MHz
  1600x900@60Hz 16:9
  1680x1050@60Hz 16:10 HorFreq: 64700 Hz Clock: 119.000 MHz
  1680x1050@100Hz 16:10
  512x288@100Hz 16:9
Detailed mode: Clock 533.100 MHz, 708 mm x 399 mm
               3440 3488 3520 3600 hborder 0
               1440 1443 1453 1481 vborder 0
               +hsync -vsync 
               VertFreq: 99 Hz, HorFreq: 148083 Hz
Detailed mode: Clock 319.750 MHz, 708 mm x 399 mm
               3440 3488 3520 3600 hborder 0
               1440 1443 1453 1481 vborder 0
               +hsync -vsync 
               VertFreq: 59 Hz, HorFreq: 88819 Hz
Monitor ranges (bare limits): 49-125Hz V, 160-160kHz H, max dotclock 650MHz
Monitor name: DP
Has 1 extension blocks
Checksum: 0x76 (valid)

CTA extension block
Extension version: 3
25 bytes of CTA data
  Video data block
    VIC   5 1920x1080i@60Hz 16:9  HorFreq: 33750 Hz Clock: 74.250 MHz
    VIC   4 1280x720@60Hz 16:9 (native) HorFreq: 45000 Hz Clock: 74.250 MHz
    VIC   3 720x480@60Hz 16:9  HorFreq: 31469 Hz Clock: 27.000 MHz
    VIC   2 720x480@60Hz 4:3  HorFreq: 31469 Hz Clock: 27.000 MHz
    VIC   1 640x480@60Hz 4:3  HorFreq: 31469 Hz Clock: 25.175 MHz
    VIC  18 720x576@50Hz 16:9  HorFreq: 31250 Hz Clock: 27.000 MHz
    VIC  19 1280x720@50Hz 16:9 (native) HorFreq: 37500 Hz Clock: 74.250 MHz
    VIC  20 1920x1080i@50Hz 16:9  HorFreq: 28125 Hz Clock: 74.250 MHz
    VIC  22 1440x576i@50Hz 16:9  HorFreq: 15625 Hz Clock: 27.000 MHz
    VIC   7 1440x480i@60Hz 16:9  HorFreq: 15734 Hz Clock: 27.000 MHz
  Audio data block
    Linear PCM, max channels 8
      Supported sample rates (kHz): 192 176.4 96 88.2 48 44.1 32
      Supported sample sizes (bits): 24 20 16
  Speaker allocation data block
    Speaker map:
      FL/FR - Front Left/Right
  Vendor-specific data block, OUI 000c03 (HDMI)
    Source physical address 1.0.0.0
Underscans PC formats by default
Basic audio support
Supports YCbCr 4:4:4
Supports YCbCr 4:2:2
2 native detailed modes
Detailed mode: Clock 27.000 MHz, 708 mm x 398 mm
                720  736  798  858 hborder 0
                480  489  495  525 vborder 0
               -hsync -vsync 
               VertFreq: 59 Hz, HorFreq: 31468 Hz
Detailed mode: Clock 242.000 MHz, 708 mm x 398 mm
               2560 2608 2640 2720 hborder 0
               1440 1443 1449 1481 vborder 0
               +hsync +vsync 
               VertFreq: 60 Hz, HorFreq: 88970 Hz
Detailed mode: Clock 402.810 MHz, 708 mm x 398 mm
               2560 2648 2692 2720 hborder 0
               1440 1444 1449 1481 vborder 0
               +hsync +vsync 
               VertFreq: 99 Hz, HorFreq: 148091 Hz
Detailed mode: Clock 148.500 MHz, 708 mm x 398 mm
               1920 2008 2052 2200 hborder 0
               1080 1084 1089 1125 vborder 0
               +hsync +vsync 
               VertFreq: 60 Hz, HorFreq: 67500 Hz
Detailed mode: Clock 247.500 MHz, 708 mm x 398 mm
               1920 2008 2052 2200 hborder 0
               1080 1084 1089 1125 vborder 0
               -hsync -vsync analog composite 
               VertFreq: 100 Hz, HorFreq: 112500 Hz
Checksum: 0xa6 (valid)

EDID block does NOT conform to EDID 1.4!
	sRGB is signaled, but the chromaticities do not match
Warning: One or more of the timings is out of range of the Monitor Ranges:
  Vertical Freq: 50 - 100 Hz
  Horizontal Freq: 15625 - 148091 Hz
  Maximum Clock: 533.100 MHz
