edid-decode (hex):

00 ff ff ff ff ff ff 00 2c 82 15 11 00 00 00 00
2e 22 01 04 a5 22 13 78 02 4b 3d 8f 5c 59 91 25
15 4f 54 00 00 00 01 01 01 01 01 01 01 01 01 01
01 01 01 01 01 01 b4 3b 80 4a 71 38 34 40 50 36
68 00 58 c1 10 00 00 18 00 00 00 fe 00 4b 44 31
35 36 4e 32 39 33 30 41 31 35 00 00 00 fe 00 4b
44 0a 20 20 20 20 20 20 20 20 20 20 00 00 00 fe
00 4b 44 31 35 36 4e 32 39 33 30 41 31 35 00 8b

00 ff ff ff ff ff ff 00 2c 82 15 11 00 00 00 00
2e 22 01 04 a5 22 13 78 02 4b 3d 8f 5c 59 91 25
15 4f 54 00 00 00 01 01 01 01 01 01 01 01 01 01
01 01 01 01 01 01 b4 3b 80 4a 71 38 34 40 50 36
68 00 58 c1 10 00 00 18 00 00 00 fe 00 4b 44 31
35 36 4e 32 39 33 30 41 31 35 00 00 00 fe 00 4b
44 0a 20 20 20 20 20 20 20 20 20 20 00 00 00 fe
00 4b 44 31 35 36 4e 32 39 33 30 41 31 35 00 8b

----------------

Block 0, Base EDID:
  EDID Structure Version & Revision: 1.4
  Vendor & Product Identification:
    Manufacturer: KDB
    Model: 4373
    Made in: week 46 of 2024
  Basic Display Parameters & Features:
    Digital display
    Bits per primary color channel: 8
    DisplayPort interface
    Maximum image size: 34 cm x 19 cm
    Gamma: 2.20
    Supported color formats: RGB 4:4:4
    First detailed timing includes the native pixel format and preferred refresh rate
  Color Characteristics:
    Red  : 0.5595, 0.3593
    Green: 0.3496, 0.5693
    Blue : 0.1445, 0.0849
    White: 0.3115, 0.3291
  Established Timings I & II: none
  Standard Timings: none
  Detailed Timing Descriptors:
    DTD 1:  1920x1080   60.007852 Hz  16:9     67.929 kHz    152.840000 MHz (344 mm x 193 mm)
                 Hfront   80 Hsync  54 Hback  196 Hpol N
                 Vfront    6 Vsync   8 Vback   38 Vpol N
    Alphanumeric Data String: 'KD156N2930A15'
    Alphanumeric Data String: 'KD'
    Alphanumeric Data String: 'KD156N2930A15'
Checksum: 0x8b

----------------

Block 1, Unknown EDID Extension Block 0x00:
  00 ff ff ff ff ff ff 00 2c 82 15 11 00 00 00 00 '........,.......'
  2e 22 01 04 a5 22 13 78 02 4b 3d 8f 5c 59 91 25 '."...".x.K=.\Y.%'
  15 4f 54 00 00 00 01 01 01 01 01 01 01 01 01 01 '.OT.............'
  01 01 01 01 01 01 b4 3b 80 4a 71 38 34 40 50 36 '.......;.Jq84@P6'
  68 00 58 c1 10 00 00 18 00 00 00 fe 00 4b 44 31 'h.X..........KD1'
  35 36 4e 32 39 33 30 41 31 35 00 00 00 fe 00 4b '56N2930A15.....K'
  44 0a 20 20 20 20 20 20 20 20 20 20 00 00 00 fe 'D.          ....'
  00 4b 44 31 35 36 4e 32 39 33 30 41 31 35 00 8b '.KD156N2930A15..'
Checksum: 0x8b

----------------

Warnings:

Block 0, Base EDID:
  Missing Display Product Name.

Failures:

Block 1, Base EDID:
  Unknown Extension Block.
EDID:
  Base EDID: EDID specified 0 extension block(s), but found 1 extension block(s).

EDID conformity: FAIL
