
EDID (hex):
00ffffffffffff0021340c7001010101
0212010308342078ea5ad5a7564b9b24
13505421080081809500b300d1000101
010101010101283c80a070b023403020
360006442100001e000000fc004e3234
305720445f7375620a20000000fd002f
401e4b11000a202020202020000000ff
003057415341453831303037393200e4

Extracted contents:
header:          00 ff ff ff ff ff ff 00
serial number:   21 34 0c 70 01 01 01 01 02 12
version:         01 03
basic params:    08 34 20 78 ea
chroma info:     5a d5 a7 56 4b 9b 24 13 50 54
established:     21 08 00
standard:        81 80 95 00 b3 00 d1 00 01 01 01 01 01 01 01 01
descriptor 1:    28 3c 80 a0 70 b0 23 40 30 20 36 00 06 44 21 00 00 1e
descriptor 2:    00 00 00 fc 00 4e 32 34 30 57 20 44 5f 73 75 62 0a 20
descriptor 3:    00 00 00 fd 00 2f 40 1e 4b 11 00 0a 20 20 20 20 20 20
descriptor 4:    00 00 00 ff 00 30 57 41 53 41 45 38 31 30 30 37 39 32
extensions:      00
checksum:        e4

EDID version: 1.3
Manufacturer: HIT Model 700c Serial Number --
Made in week 2 of 2008
Analog display, Input voltage level: 0.7/0.3 V
Sync: Separate 
Maximum image size: 52 cm x 32 cm
Gamma: 2.20
DPMS levels: Standby Suspend Off
RGB color display
First detailed timing is preferred timing
Display x,y Chromaticity:
  Red:   0.6533, 0.3369
  Green: 0.2949, 0.6074
  Blue:  0.1435, 0.0751
  White: 0.3134, 0.3291
Established timings supported:
  640x480@60Hz 4:3 HorFreq: 31469 Hz Clock: 25.175 MHz
  800x600@60Hz 4:3 HorFreq: 37900 Hz Clock: 40.000 MHz
  1024x768@60Hz 4:3 HorFreq: 48400 Hz Clock: 65.000 MHz
Standard timings supported:
  1280x1024@60Hz 5:4 HorFreq: 64000 Hz Clock: 108.000 MHz
  1440x900@60Hz 16:10 HorFreq: 55500 Hz Clock: 88.750 MHz
  1680x1050@60Hz 16:10 HorFreq: 64700 Hz Clock: 119.000 MHz
  1920x1200@60Hz 16:10 HorFreq: 74000 Hz Clock: 154.000 MHz
Detailed mode: Clock 154.000 MHz, 518 mm x 324 mm
               1920 1968 2000 2080 hborder 0
               1200 1203 1209 1235 vborder 0
               +hsync +vsync 
               VertFreq: 59 Hz, HorFreq: 74038 Hz
Monitor name: N240W D_sub
Monitor ranges (GTF): 47-64Hz V, 30-75kHz H, max dotclock 170MHz
Serial number: --
Checksum: 0xe4 (valid)
