edid-decode (hex):

00 ff ff ff ff ff ff 00 09 e5 db 06 00 00 00 00
01 1a 01 04 95 1d 10 78 02 f8 90 9e 59 55 9c 26
1a 50 54 00 00 00 01 01 01 01 01 01 01 01 01 01
01 01 01 01 01 01 c6 1d 56 e2 50 00 1e 30 26 16
44 00 15 9c 10 00 00 1a d1 17 56 e2 50 00 1e 30
26 16 44 00 15 9c 10 00 00 1a 00 00 00 fe 00 39
52 30 54 52 80 4e 54 31 33 4e 32 32 00 00 00 00
00 00 41 11 94 00 10 00 00 09 01 0a 20 20 00 69

----------------

Block 0, Base EDID:
  EDID Structure Version & Revision: 1.4
  Vendor & Product Identification:
    Manufacturer: BOE
    Model: 1755
    Made in: week 1 of 2016
  Basic Display Parameters & Features:
    Digital display
    Bits per primary color channel: 6
    DisplayPort interface
    Maximum image size: 29 cm x 16 cm
    Gamma: 2.20
    Supported color formats: RGB 4:4:4
    First detailed timing includes the native pixel format and preferred refresh rate
  Color Characteristics:
    Red  : 0.6201, 0.3505
    Green: 0.3339, 0.6093
    Blue : 0.1503, 0.1025
    White: 0.3125, 0.3281
  Established Timings I & II: none
  Standard Timings: none
  Detailed Timing Descriptors:
    DTD 1:  1366x768    59.996096 Hz 683:384   47.877 kHz     76.220000 MHz (277 mm x 156 mm)
                 Hfront   38 Hsync  22 Hback  166 Hpol P
                 Vfront    4 Vsync   4 Vback   22 Vpol N
    DTD 2:  1366x768    47.992154 Hz 683:384   38.298 kHz     60.970000 MHz (277 mm x 156 mm)
                 Hfront   38 Hsync  22 Hback  166 Hpol P
                 Vfront    4 Vsync   4 Vback   22 Vpol N
    Alphanumeric Data String: '9R0TR'
    Manufacturer-Specified Display Descriptor (0x00): 00 00 00 00 41 11 94 00 10 00 00 09 01 0a 20 20 '....A.........  '
Checksum: 0x69

----------------

Failures:

Block 0, Base EDID:
  Alphanumeric Data String: Non-printable character.
  Missing Display Product Name.

EDID conformity: FAIL
