
EDID (hex):
00ffffffffffff000469a11901010101
0c1001031e291a78ead2b5a2594a9524
145054afcf008180714f950001010101
0101010101016829a0d0518422305098
36009a0411000004000000fd00374b1e
500e000a202020202020000000ff0036
334c393030303832310a2020000000fc
0050573139310a202020202020200095

Extracted contents:
header:          00 ff ff ff ff ff ff 00
serial number:   04 69 a1 19 01 01 01 01 0c 10
version:         01 03
basic params:    1e 29 1a 78 ea
chroma info:     d2 b5 a2 59 4a 95 24 14 50 54
established:     af cf 00
standard:        81 80 71 4f 95 00 01 01 01 01 01 01 01 01 01 01
descriptor 1:    68 29 a0 d0 51 84 22 30 50 98 36 00 9a 04 11 00 00 04
descriptor 2:    00 00 00 fd 00 37 4b 1e 50 0e 00 0a 20 20 20 20 20 20
descriptor 3:    00 00 00 ff 00 36 33 4c 39 30 30 30 38 32 31 0a 20 20
descriptor 4:    00 00 00 fc 00 50 57 31 39 31 0a 20 20 20 20 20 20 20
extensions:      00
checksum:        95

EDID version: 1.3
Manufacturer: ACI Model 19a1 Serial Number --
Made in week 12 of 2006
Analog display, Input voltage level: 0.7/0.3 V
Configurable signal levels
Sync: Separate Composite SyncOnGreen 
Maximum image size: 41 cm x 26 cm
Gamma: 2.20
DPMS levels: Standby Suspend Off
RGB color display
First detailed timing is preferred timing
Display x,y Chromaticity:
  Red:   0.6357, 0.3486
  Green: 0.2890, 0.5839
  Blue:  0.1425, 0.0810
  White: 0.3134, 0.3291
Established timings supported:
  720x400@70Hz 9:5 HorFreq: 31469 Hz Clock: 28.320 MHz
  640x480@60Hz 4:3 HorFreq: 31469 Hz Clock: 25.175 MHz
  640x480@72Hz 4:3 HorFreq: 37900 Hz Clock: 31.500 MHz
  640x480@75Hz 4:3 HorFreq: 37500 Hz Clock: 31.500 MHz
  800x600@56Hz 4:3 HorFreq: 35200 Hz Clock: 36.000 MHz
  800x600@60Hz 4:3 HorFreq: 37900 Hz Clock: 40.000 MHz
  800x600@72Hz 4:3 HorFreq: 48100 Hz Clock: 50.000 MHz
  800x600@75Hz 4:3 HorFreq: 46900 Hz Clock: 49.500 MHz
  1024x768@60Hz 4:3 HorFreq: 48400 Hz Clock: 65.000 MHz
  1024x768@70Hz 4:3 HorFreq: 56500 Hz Clock: 75.000 MHz
  1024x768@75Hz 4:3 HorFreq: 60000 Hz Clock: 78.750 MHz
  1280x1024@75Hz 5:4 HorFreq: 80000 Hz Clock: 135.000 MHz
Standard timings supported:
  1280x1024@60Hz 5:4 HorFreq: 64000 Hz Clock: 108.000 MHz
  1152x864@75Hz 4:3 HorFreq: 67500 Hz Clock: 108.000 MHz
  1440x900@60Hz 16:10 HorFreq: 55500 Hz Clock: 88.750 MHz
Detailed mode: Clock 106.000 MHz, 410 mm x 260 mm
               1440 1520 1672 1904 hborder 0
                900  903  909  934 vborder 0
               -hsync +vsync analog composite 
               VertFreq: 59 Hz, HorFreq: 55672 Hz
Monitor ranges (GTF): 55-75Hz V, 30-80kHz H, max dotclock 140MHz
Serial number: --
Monitor name: PW191
Checksum: 0x95 (valid)
