
EDID (hex):
00ffffffffffff0026cd0866ff030000
04170103803c22782a3cc5a55554a127
0c5054230800d1c081809500b3008140
010101010101023a801871382d40582c
450056502100001e000000fd00374c1e
5311000a202020202020000000ff0031
313138384133313031303233000000fc
00504c5832373830480a2020202000dd

Extracted contents:
header:          00 ff ff ff ff ff ff 00
serial number:   26 cd 08 66 ff 03 00 00 04 17
version:         01 03
basic params:    80 3c 22 78 2a
chroma info:     3c c5 a5 55 54 a1 27 0c 50 54
established:     23 08 00
standard:        d1 c0 81 80 95 00 b3 00 81 40 01 01 01 01 01 01
descriptor 1:    02 3a 80 18 71 38 2d 40 58 2c 45 00 56 50 21 00 00 1e
descriptor 2:    00 00 00 fd 00 37 4c 1e 53 11 00 0a 20 20 20 20 20 20
descriptor 3:    00 00 00 ff 00 31 31 31 38 38 41 33 31 30 31 30 32 33
descriptor 4:    00 00 00 fc 00 50 4c 58 32 37 38 30 48 0a 20 20 20 20
extensions:      00
checksum:        dd

EDID version: 1.3
Manufacturer: IVM Model 6608 Serial Number --
Made in week 4 of 2013
Digital display
Maximum image size: 60 cm x 34 cm
Gamma: 2.20
DPMS levels: Off
RGB color display
First detailed timing is preferred timing
Display x,y Chromaticity:
  Red:   0.6445, 0.3349
  Green: 0.3310, 0.6289
  Blue:  0.1552, 0.0468
  White: 0.3134, 0.3291
Established timings supported:
  640x480@60Hz 4:3 HorFreq: 31469 Hz Clock: 25.175 MHz
  800x600@56Hz 4:3 HorFreq: 35200 Hz Clock: 36.000 MHz
  800x600@60Hz 4:3 HorFreq: 37900 Hz Clock: 40.000 MHz
  1024x768@60Hz 4:3 HorFreq: 48400 Hz Clock: 65.000 MHz
Standard timings supported:
  1920x1080@60Hz 16:9
  1280x1024@60Hz 5:4 HorFreq: 64000 Hz Clock: 108.000 MHz
  1440x900@60Hz 16:10 HorFreq: 55500 Hz Clock: 88.750 MHz
  1680x1050@60Hz 16:10 HorFreq: 64700 Hz Clock: 119.000 MHz
  1280x960@60Hz 4:3 HorFreq: 60000 Hz Clock: 108.000 MHz
Detailed mode: Clock 148.500 MHz, 598 mm x 336 mm
               1920 2008 2052 2200 hborder 0
               1080 1084 1089 1125 vborder 0
               +hsync +vsync 
               VertFreq: 60 Hz, HorFreq: 67500 Hz
Monitor ranges (GTF): 55-76Hz V, 30-83kHz H, max dotclock 170MHz
Serial number: --
Monitor name: PLX2780H
Checksum: 0xdd (valid)
