
EDID (hex):
00ffffffffffff000e14b51400000000
19140103802213780a1bdda1554a9428
18505400000001010101010101010101
010101010101781d56c2500026303b27
5a0058c1100000180000000f00202020
202020202018a7043300000000fe0043
50540a202020202020202020000000fe
00434c4141313536574130314120008a

Extracted contents:
header:          00 ff ff ff ff ff ff 00
serial number:   0e 14 b5 14 00 00 00 00 19 14
version:         01 03
basic params:    80 22 13 78 0a
chroma info:     1b dd a1 55 4a 94 28 18 50 54
established:     00 00 00
standard:        01 01 01 01 01 01 01 01 01 01 01 01 01 01 01 01
descriptor 1:    78 1d 56 c2 50 00 26 30 3b 27 5a 00 58 c1 10 00 00 18
descriptor 2:    00 00 00 0f 00 20 20 20 20 20 20 20 20 18 a7 04 33 00
descriptor 3:    00 00 00 fe 00 43 50 54 0a 20 20 20 20 20 20 20 20 20
descriptor 4:    00 00 00 fe 00 43 4c 41 41 31 35 36 57 41 30 31 41 20
extensions:      00
checksum:        8a

EDID version: 1.3
Manufacturer: CPT Model 14b5 Serial Number --
Made in week 25 of 2010
Digital display
Maximum image size: 34 cm x 19 cm
Gamma: 2.20
RGB color display
First detailed timing is preferred timing
Display x,y Chromaticity:
  Red:   0.6289, 0.3330
  Green: 0.2910, 0.5810
  Blue:  0.1591, 0.0947
  White: 0.3154, 0.3291
Established timings supported:
Standard timings supported:
Detailed mode: Clock 75.440 MHz, 344 mm x 193 mm
               1366 1425 1464 1560 hborder 0
                768  773  783  806 vborder 0
               -hsync -vsync 
               VertFreq: 59 Hz, HorFreq: 48358 Hz
Manufacturer-specified data, tag 15
ASCII string: CPT
ASCII string: CLAA156WA01A 
Checksum: 0x8a (valid)
EDID block does NOT conform to EDID 1.3!
	Missing name descriptor
	Missing monitor ranges
