
EDID (hex):
00ffffffffffff0009e56c0700000000
011a0104a522137802f100945c589229
21505400000001010101010101010101
010101010101ce1d56e250001e303020
3600149b1000001adf1356e250001e30
30203600149b1000001a000000fe0042
4f452043510a202020202020000000fe
004e5431323557484d2d4e34350a00bd

Extracted contents:
header:          00 ff ff ff ff ff ff 00
serial number:   09 e5 6c 07 00 00 00 00 01 1a
version:         01 04
basic params:    a5 22 13 78 02
chroma info:     f1 00 94 5c 58 92 29 21 50 54
established:     00 00 00
standard:        01 01 01 01 01 01 01 01 01 01 01 01 01 01 01 01
descriptor 1:    ce 1d 56 e2 50 00 1e 30 30 20 36 00 14 9b 10 00 00 1a
descriptor 2:    df 13 56 e2 50 00 1e 30 30 20 36 00 14 9b 10 00 00 1a
descriptor 3:    00 00 00 fe 00 42 4f 45 20 43 51 0a 20 20 20 20 20 20
descriptor 4:    00 00 00 fe 00 4e 54 31 32 35 57 48 4d 2d 4e 34 35 0a
extensions:      00
checksum:        bd

EDID version: 1.4
Manufacturer: BOE Model 76c Serial Number --
Made in week 1 of 2016
Digital display
8 bits per primary color channel
DisplayPort interface
Maximum image size: 34 cm x 19 cm
Gamma: 2.20
Supported color formats: RGB 4:4:4
First detailed timing includes the native pixel format and preferred refresh rate
Display x,y Chromaticity:
  Red:   0.5810, 0.3623
  Green: 0.3437, 0.5712
  Blue:  0.1601, 0.1289
  White: 0.3125, 0.3281
Established timings supported:
Standard timings supported:
Detailed mode: Clock 76.300 MHz, 276 mm x 155 mm
               1366 1414 1446 1592 hborder 0
                768  771  777  798 vborder 0
               +hsync -vsync 
               VertFreq: 60 Hz, HorFreq: 47927 Hz
Detailed mode: Clock 50.870 MHz, 276 mm x 155 mm
               1366 1414 1446 1592 hborder 0
                768  771  777  798 vborder 0
               +hsync -vsync 
               VertFreq: 40 Hz, HorFreq: 31953 Hz
ASCII string: BOE CQ
ASCII string: NT125WHM-N45
Checksum: 0xbd (valid)
EDID block does NOT conform to EDID 1.4!
	Missing name descriptor
	Missing monitor ranges
