
EDID (hex):
00ffffffffffff0006af3d1b00000000
00180104951f117802bbf59455549027
23505400000001010101010101010101
010101010101143780b4703826403064
310035ad10000018b82480b470382640
3064310035ad10000018000000000000
00000000000000000000000000000002
001048ff0f3c6e11101d6e20202000bb

Extracted contents:
header:          00 ff ff ff ff ff ff 00
serial number:   06 af 3d 1b 00 00 00 00 00 18
version:         01 04
basic params:    95 1f 11 78 02
chroma info:     bb f5 94 55 54 90 27 23 50 54
established:     00 00 00
standard:        01 01 01 01 01 01 01 01 01 01 01 01 01 01 01 01
descriptor 1:    14 37 80 b4 70 38 26 40 30 64 31 00 35 ad 10 00 00 18
descriptor 2:    b8 24 80 b4 70 38 26 40 30 64 31 00 35 ad 10 00 00 18
descriptor 3:    00 00 00 00 00 00 00 00 00 00 00 00 00 00 00 00 00 00
descriptor 4:    00 00 00 02 00 10 48 ff 0f 3c 6e 11 10 1d 6e 20 20 20
extensions:      00
checksum:        bb

EDID version: 1.4
Manufacturer: AUO Model 1b3d Serial Number --
Made in year 2014
Digital display
6 bits per primary color channel
DisplayPort interface
Maximum image size: 31 cm x 17 cm
Gamma: 2.20
Supported color formats: RGB 4:4:4
First detailed timing includes the native pixel format and preferred refresh rate
Display x,y Chromaticity:
  Red:   0.5800, 0.3349
  Green: 0.3300, 0.5654
  Blue:  0.1552, 0.1396
  White: 0.3134, 0.3291
Established timings supported:
Standard timings supported:
Detailed mode: Clock 141.000 MHz, 309 mm x 173 mm
               1920 1968 2068 2100 hborder 0
               1080 1083 1084 1118 vborder 0
               -hsync -vsync 
               VertFreq: 60 Hz, HorFreq: 67142 Hz
Detailed mode: Clock 94.000 MHz, 309 mm x 173 mm
               1920 1968 2068 2100 hborder 0
               1080 1083 1084 1118 vborder 0
               -hsync -vsync 
               VertFreq: 40 Hz, HorFreq: 44761 Hz
Manufacturer-specified data, tag 0
Manufacturer-specified data, tag 2
Checksum: 0xbb (valid)
EDID block does NOT conform to EDID 1.4!
	Missing name descriptor
	Missing monitor ranges
