
EDID (hex):
00ffffffffffff0006af3d1b00000000
00190104951f11780267759357588e29
21505400000001010101010101010101
010101010101143780b8703824401010
3e0035ad1000001a102c80b870382440
10103e00149b1000001a000000fe0059
37353357814231343048544e00000000
0000410196001100000a010a20200075

Extracted contents:
header:          00 ff ff ff ff ff ff 00
serial number:   06 af 3d 1b 00 00 00 00 00 19
version:         01 04
basic params:    95 1f 11 78 02
chroma info:     67 75 93 57 58 8e 29 21 50 54
established:     00 00 00
standard:        01 01 01 01 01 01 01 01 01 01 01 01 01 01 01 01
descriptor 1:    14 37 80 b8 70 38 24 40 10 10 3e 00 35 ad 10 00 00 1a
descriptor 2:    10 2c 80 b8 70 38 24 40 10 10 3e 00 14 9b 10 00 00 1a
descriptor 3:    00 00 00 fe 00 59 37 35 33 57 81 42 31 34 30 48 54 4e
descriptor 4:    00 00 00 00 00 00 41 01 96 00 11 00 00 0a 01 0a 20 20
extensions:      00
checksum:        75

EDID version: 1.4
Manufacturer: AUO Model 1b3d Serial Number --
Made in year 2015
Digital display
6 bits per primary color channel
DisplayPort interface
Maximum image size: 31 cm x 17 cm
Gamma: 2.20
Supported color formats: RGB 4:4:4
First detailed timing includes the native pixel format and preferred refresh rate
Display x,y Chromaticity:
  Red:   0.5751, 0.3417
  Green: 0.3447, 0.5576
  Blue:  0.1611, 0.1318
  White: 0.3134, 0.3291
Established timings supported:
Standard timings supported:
Detailed mode: Clock 141.000 MHz, 309 mm x 173 mm
               1920 1936 1952 2104 hborder 0
               1080 1083 1097 1116 vborder 0
               +hsync -vsync 
               VertFreq: 60 Hz, HorFreq: 67015 Hz
Detailed mode: Clock 112.800 MHz, 276 mm x 155 mm
               1920 1936 1952 2104 hborder 0
               1080 1083 1097 1116 vborder 0
               +hsync -vsync 
               VertFreq: 48 Hz, HorFreq: 53612 Hz
ASCII string: Y753W
Manufacturer-specified data, tag 0
Checksum: 0x75 (valid)
EDID block does NOT conform to EDID 1.4!
	Missing name descriptor
	Missing monitor ranges
	Detailed block string not properly terminated
