
EDID (hex):
00ffffffffffff0022f0011001000000
3014010380301b78ee2880a45650a128
0f505400000001010101010101010101
010101010101023a801871382d40582c
4500dd0c11000000000000fc000a2020
20202020202020202020000000fc000a
202020202020202020202020000000fc
000a20202020202020202020202000ac

Extracted contents:
header:          00 ff ff ff ff ff ff 00
serial number:   22 f0 01 10 01 00 00 00 30 14
version:         01 03
basic params:    80 30 1b 78 ee
chroma info:     28 80 a4 56 50 a1 28 0f 50 54
established:     00 00 00
standard:        01 01 01 01 01 01 01 01 01 01 01 01 01 01 01 01
descriptor 1:    02 3a 80 18 71 38 2d 40 58 2c 45 00 dd 0c 11 00 00 00
descriptor 2:    00 00 00 fc 00 0a 20 20 20 20 20 20 20 20 20 20 20 20
descriptor 3:    00 00 00 fc 00 0a 20 20 20 20 20 20 20 20 20 20 20 20
descriptor 4:    00 00 00 fc 00 0a 20 20 20 20 20 20 20 20 20 20 20 20
extensions:      00
checksum:        ac

EDID version: 1.3
Manufacturer: HWP Model 1001 Serial Number --
Made in week 48 of 2010
Digital display
Maximum image size: 48 cm x 27 cm
Gamma: 2.20
DPMS levels: Standby Suspend Off
RGB color display
Default (sRGB) color space is primary color space
First detailed timing is preferred timing
Display x,y Chromaticity:
  Red:   0.6406, 0.3378
  Green: 0.3144, 0.6289
  Blue:  0.1582, 0.0585
  White: 0.3125, 0.3281
Established timings supported:
Standard timings supported:
Detailed mode: Clock 148.500 MHz, 477 mm x 268 mm
               1920 2008 2052 2200 hborder 0
               1080 1084 1089 1125 vborder 0
               -hsync -vsync analog composite 
               VertFreq: 60 Hz, HorFreq: 67500 Hz
Monitor name: 
Checksum: 0xac (valid)
EDID block does NOT conform to EDID 1.3!
	sRGB is signaled, but the chromaticities do not match
	Missing monitor ranges
