edid-decode (hex):

00 ff ff ff ff ff ff 00 22 f0 01 10 01 00 00 00
27 14 01 03 80 33 1d 78 ee c5 20 a0 59 58 9d 27
0e 50 54 00 00 00 01 01 01 01 01 01 01 01 01 01
01 01 01 01 01 01 18 38 80 00 71 38 14 40 60 40
84 00 fd 1e 11 00 00 1e 18 38 80 00 71 38 14 40
60 40 84 00 fd 1e 11 00 00 1e 00 00 00 fc 00 48
50 20 4f 6d 6e 69 0a 20 20 20 20 20 00 00 00 fd
00 32 4b 40 53 08 00 0a 20 20 20 20 20 20 00 6b

----------------

Block 0, Base EDID:
  EDID Structure Version & Revision: 1.3
  Vendor & Product Identification:
    Manufacturer: HWP
    Model: 4097
    Serial Number: ...
    Made in: week 39 of 2010
  Basic Display Parameters & Features:
    Digital display
    Maximum image size: 51 cm x 29 cm
    Gamma: 2.20
    DPMS levels: Standby Suspend Off
    RGB color display
    Default (sRGB) color space is primary color space
    First detailed timing is the preferred timing
  Color Characteristics:
    Red  : 0.6279, 0.3476
    Green: 0.3447, 0.6142
    Blue : 0.1523, 0.0566
    White: 0.3125, 0.3281
  Established Timings I & II: none
  Standard Timings: none
  Detailed Timing Descriptors:
    DTD 1:  1920x1080   59.993 Hz  16:9    65.993 kHz 143.600 MHz (509 mm x 286 mm)
                 Hfront   96 Hsync  64 Hback  96 Hpol P
                 Vfront    8 Vsync   4 Vback   8 Vpol P
    DTD 2:  1920x1080   59.993 Hz  16:9    65.993 kHz 143.600 MHz (509 mm x 286 mm)
                 Hfront   96 Hsync  64 Hback  96 Hpol P
                 Vfront    8 Vsync   4 Vback   8 Vpol P
    Display Product Name: 'HP Omni'
  Display Range Limits:
    Monitor ranges (GTF): 50-75 Hz V, 64-83 kHz H, max dotclock 80 MHz
Checksum: 0x6b

----------------

Failures:

Block 0, Base EDID:
  Basic Display Parameters & Features: sRGB is signaled, but the chromaticities do not match.
EDID:
  Base EDID: Some timings are out of range of the Monitor Ranges:
    Maximum Clock: 143.600 MHz (Monitor: 80.000 MHz)

EDID conformity: FAIL
