
EDID (hex):
00ffffffffffff0030ae6a4000000000
0013010380251778ea87f594574f8c27
27505400000001010101010101010101
010101010101233f802071b014403020
26006fe6100000199c34802071b01440
302026006fe6100000190000000f00d1
0a32d10a281e21004ca34354000000fe
004c544e313730435430384c303100ad

Extracted contents:
header:          00 ff ff ff ff ff ff 00
serial number:   30 ae 6a 40 00 00 00 00 00 13
version:         01 03
basic params:    80 25 17 78 ea
chroma info:     87 f5 94 57 4f 8c 27 27 50 54
established:     00 00 00
standard:        01 01 01 01 01 01 01 01 01 01 01 01 01 01 01 01
descriptor 1:    23 3f 80 20 71 b0 14 40 30 20 26 00 6f e6 10 00 00 19
descriptor 2:    9c 34 80 20 71 b0 14 40 30 20 26 00 6f e6 10 00 00 19
descriptor 3:    00 00 00 0f 00 d1 0a 32 d1 0a 28 1e 21 00 4c a3 43 54
descriptor 4:    00 00 00 fe 00 4c 54 4e 31 37 30 43 54 30 38 4c 30 31
extensions:      00
checksum:        ad

EDID version: 1.3
Manufacturer: LEN Model 406a Serial Number --
Made in year 2009
Digital display
Maximum image size: 37 cm x 23 cm
Gamma: 2.20
DPMS levels: Standby Suspend Off
RGB color display
First detailed timing is preferred timing
Display x,y Chromaticity:
  Red:   0.5800, 0.3398
  Green: 0.3095, 0.5498
  Blue:  0.1552, 0.1552
  White: 0.3134, 0.3291
Established timings supported:
Standard timings supported:
Detailed mode: Clock 161.630 MHz, 367 mm x 230 mm
               1920 1968 2000 2208 hborder 0
               1200 1202 1208 1220 vborder 0
               -hsync -vsync 
               VertFreq: 60 Hz, HorFreq: 73201 Hz
Detailed mode: Clock 134.680 MHz, 367 mm x 230 mm
               1920 1968 2000 2208 hborder 0
               1200 1202 1208 1220 vborder 0
               -hsync -vsync 
               VertFreq: 49 Hz, HorFreq: 60996 Hz
Manufacturer-specified data, tag 15
ASCII string: LTN170CT08L01
Checksum: 0xad (valid)
EDID block does NOT conform to EDID 1.3!
	Missing name descriptor
	Missing monitor ranges
