
EDID (hex):
00ffffffffffff0006af9b1000000000
00190104a5261578022425a85036b626
0e505400000001010101010101010101
01010101010166d000a0f0703e803020
35007ed61000001ab8a600a0f0703e80
302035007ed61000001a000000fe0032
444b344b80423137335a414e00000000
00028101a8001100000b010a202000ec

Extracted contents:
header:          00 ff ff ff ff ff ff 00
serial number:   06 af 9b 10 00 00 00 00 00 19
version:         01 04
basic params:    a5 26 15 78 02
chroma info:     24 25 a8 50 36 b6 26 0e 50 54
established:     00 00 00
standard:        01 01 01 01 01 01 01 01 01 01 01 01 01 01 01 01
descriptor 1:    66 d0 00 a0 f0 70 3e 80 30 20 35 00 7e d6 10 00 00 1a
descriptor 2:    b8 a6 00 a0 f0 70 3e 80 30 20 35 00 7e d6 10 00 00 1a
descriptor 3:    00 00 00 fe 00 32 44 4b 34 4b 80 42 31 37 33 5a 41 4e
descriptor 4:    00 00 00 00 00 02 81 01 a8 00 11 00 00 0b 01 0a 20 20
extensions:      00
checksum:        ec

EDID version: 1.4
Manufacturer: AUO Model 109b Serial Number --
Made in year 2015
Digital display
8 bits per primary color channel
DisplayPort interface
Maximum image size: 38 cm x 21 cm
Gamma: 2.20
Supported color formats: RGB 4:4:4
First detailed timing includes the native pixel format and preferred refresh rate
Display x,y Chromaticity:
  Red:   0.6562, 0.3144
  Green: 0.2119, 0.7109
  Blue:  0.1484, 0.0566
  White: 0.3134, 0.3291
Established timings supported:
Standard timings supported:
Detailed mode: Clock 533.500 MHz, 382 mm x 214 mm
               3840 3888 3920 4000 hborder 0
               2160 2163 2168 2222 vborder 0
               +hsync -vsync 
               VertFreq: 60 Hz, HorFreq: 133375 Hz
Detailed mode: Clock 426.800 MHz, 382 mm x 214 mm
               3840 3888 3920 4000 hborder 0
               2160 2163 2168 2222 vborder 0
               +hsync -vsync 
               VertFreq: 48 Hz, HorFreq: 106700 Hz
ASCII string: 2DK4K
Manufacturer-specified data, tag 0
Checksum: 0xec (valid)
EDID block does NOT conform to EDID 1.4!
	Missing name descriptor
	Missing monitor ranges
	Detailed block string not properly terminated
