
EDID (hex):
00ffffffffffff004ca3573200000000
00120103801e13780a87f594574f8c27
27505400000001010101010101010101
0101010101018a1b00a0502010300c40
33002fbe100000190000000f00000000
00000000002387026400000000fe0055
383032470031343157320a20000000fe
00222f446288b3d0ff01010a20200090

Extracted contents:
header:          00 ff ff ff ff ff ff 00
serial number:   4c a3 57 32 00 00 00 00 00 12
version:         01 03
basic params:    80 1e 13 78 0a
chroma info:     87 f5 94 57 4f 8c 27 27 50 54
established:     00 00 00
standard:        01 01 01 01 01 01 01 01 01 01 01 01 01 01 01 01
descriptor 1:    8a 1b 00 a0 50 20 10 30 0c 40 33 00 2f be 10 00 00 19
descriptor 2:    00 00 00 0f 00 00 00 00 00 00 00 00 00 23 87 02 64 00
descriptor 3:    00 00 00 fe 00 55 38 30 32 47 00 31 34 31 57 32 0a 20
descriptor 4:    00 00 00 fe 00 22 2f 44 62 88 b3 d0 ff 01 01 0a 20 20
extensions:      00
checksum:        90

EDID version: 1.3
Manufacturer: SEC Model 3257 Serial Number --
Made in year 2008
Digital display
Maximum image size: 30 cm x 19 cm
Gamma: 2.20
RGB color display
First detailed timing is preferred timing
Display x,y Chromaticity:
  Red:   0.5800, 0.3398
  Green: 0.3095, 0.5498
  Blue:  0.1552, 0.1552
  White: 0.3134, 0.3291
Established timings supported:
Standard timings supported:
Detailed mode: Clock 70.500 MHz, 303 mm x 190 mm
               1280 1292 1356 1440 hborder 0
                800  803  806  816 vborder 0
               -hsync -vsync 
               VertFreq: 59 Hz, HorFreq: 48958 Hz
Manufacturer-specified data, tag 15
ASCII string: U802G
ASCII string: "/Db
Checksum: 0x90 (valid)
EDID block does NOT conform to EDID 1.3!
	Missing name descriptor
	Missing monitor ranges
	Detailed block string not properly terminated
