
EDID (hex):
00ffffffffffff0030ae00a701000000
0e14010381331d78ebc520a059589d27
0e5054254e0081cfa9c09500d1c08100
818a814090409434806470383e403020
2500fd1e11000018023a801871382d40
582c4500fd1e1100001e000000fd0032
4b405310000a202020202020000000fc
004c656e6f766f20413730300a20000b

Extracted contents:
header:          00 ff ff ff ff ff ff 00
serial number:   30 ae 00 a7 01 00 00 00 0e 14
version:         01 03
basic params:    81 33 1d 78 eb
chroma info:     c5 20 a0 59 58 9d 27 0e 50 54
established:     25 4e 00
standard:        81 cf a9 c0 95 00 d1 c0 81 00 81 8a 81 40 90 40
descriptor 1:    94 34 80 64 70 38 3e 40 30 20 25 00 fd 1e 11 00 00 18
descriptor 2:    02 3a 80 18 71 38 2d 40 58 2c 45 00 fd 1e 11 00 00 1e
descriptor 3:    00 00 00 fd 00 32 4b 40 53 10 00 0a 20 20 20 20 20 20
descriptor 4:    00 00 00 fc 00 4c 65 6e 6f 76 6f 20 41 37 30 30 0a 20
extensions:      00
checksum:        0b

EDID version: 1.3
Manufacturer: LEN Model a700 Serial Number --
Made in week 14 of 2010
Digital display
DFP 1.x compatible TMDS
Maximum image size: 51 cm x 29 cm
Gamma: 2.20
DPMS levels: Standby Suspend Off
RGB color display
First detailed timing is preferred timing
Supports GTF timings within operating range
Display x,y Chromaticity:
  Red:   0.6279, 0.3476
  Green: 0.3447, 0.6142
  Blue:  0.1523, 0.0566
  White: 0.3125, 0.3281
Established timings supported:
  640x480@60Hz 4:3 HorFreq: 31469 Hz Clock: 25.175 MHz
  640x480@75Hz 4:3 HorFreq: 37500 Hz Clock: 31.500 MHz
  800x600@60Hz 4:3 HorFreq: 37900 Hz Clock: 40.000 MHz
  800x600@75Hz 4:3 HorFreq: 46900 Hz Clock: 49.500 MHz
  1024x768@60Hz 4:3 HorFreq: 48400 Hz Clock: 65.000 MHz
  1024x768@70Hz 4:3 HorFreq: 56500 Hz Clock: 75.000 MHz
  1024x768@75Hz 4:3 HorFreq: 60000 Hz Clock: 78.750 MHz
Standard timings supported:
  1280x720@75Hz 16:9
  1600x900@60Hz 16:9
  1440x900@60Hz 16:10 HorFreq: 55500 Hz Clock: 88.750 MHz
  1920x1080@60Hz 16:9
  1280x800@60Hz 16:10
  1280x1024@70Hz 5:4
  1280x960@60Hz 4:3 HorFreq: 60000 Hz Clock: 108.000 MHz
  1400x1050@60Hz 4:3 HorFreq: 64700 Hz Clock: 101.000 MHz
Detailed mode: Clock 134.600 MHz, 509 mm x 286 mm
               1920 1968 2000 2020 hborder 0
               1080 1082 1087 1142 vborder 0
               -hsync -vsync 
               VertFreq: 58 Hz, HorFreq: 66633 Hz
Detailed mode: Clock 148.500 MHz, 509 mm x 286 mm
               1920 2008 2052 2200 hborder 0
               1080 1084 1089 1125 vborder 0
               +hsync +vsync 
               VertFreq: 60 Hz, HorFreq: 67500 Hz
Monitor ranges (GTF): 50-75Hz V, 64-83kHz H, max dotclock 160MHz
Monitor name: Lenovo A700
Checksum: 0xb (valid)
One or more of the timings is out of range of the Monitor Ranges:
  Vertical Freq: 58 - 75 Hz
  Horizontal Freq: 31469 - 67500 Hz
  Maximum Clock: 148.500 MHz
