
EDID (hex):
00ffffffffffff0009d101a4a5020000
1e110103800000780a54aca15a5a8923
185058adce000101314f315945596159
8180010101019a20009051201f304880
3600000000000018000000fe0042454e
510a2020202020202020000000fc004d
50363230630a202020202020a91a00a0
500016303020370000000000000000da

Extracted contents:
header:          00 ff ff ff ff ff ff 00
serial number:   09 d1 01 a4 a5 02 00 00 1e 11
version:         01 03
basic params:    80 00 00 78 0a
chroma info:     54 ac a1 5a 5a 89 23 18 50 58
established:     ad ce 00
standard:        01 01 31 4f 31 59 45 59 61 59 81 80 01 01 01 01
descriptor 1:    9a 20 00 90 51 20 1f 30 48 80 36 00 00 00 00 00 00 18
descriptor 2:    00 00 00 fe 00 42 45 4e 51 0a 20 20 20 20 20 20 20 20
descriptor 3:    00 00 00 fc 00 4d 50 36 32 30 63 0a 20 20 20 20 20 20
descriptor 4:    a9 1a 00 a0 50 00 16 30 30 20 37 00 00 00 00 00 00 00
extensions:      00
checksum:        da

EDID version: 1.3
Manufacturer: BNQ Model a401 Serial Number --
Made in week 30 of 2007
Digital display
Image size is variable
Gamma: 2.20
RGB color display
First detailed timing is preferred timing
Display x,y Chromaticity:
  Red:   0.6298, 0.3525
  Green: 0.3525, 0.5351
  Blue:  0.1386, 0.0957
  White: 0.3154, 0.3437
Established timings supported:
  720x400@70Hz 9:5 HorFreq: 31469 Hz Clock: 28.320 MHz
  640x480@60Hz 4:3 HorFreq: 31469 Hz Clock: 25.175 MHz
  640x480@72Hz 4:3 HorFreq: 37900 Hz Clock: 31.500 MHz
  640x480@75Hz 4:3 HorFreq: 37500 Hz Clock: 31.500 MHz
  800x600@60Hz 4:3 HorFreq: 37900 Hz Clock: 40.000 MHz
  800x600@72Hz 4:3 HorFreq: 48100 Hz Clock: 50.000 MHz
  800x600@75Hz 4:3 HorFreq: 46900 Hz Clock: 49.500 MHz
  1024x768@60Hz 4:3 HorFreq: 48400 Hz Clock: 65.000 MHz
  1024x768@70Hz 4:3 HorFreq: 56500 Hz Clock: 75.000 MHz
  1024x768@75Hz 4:3 HorFreq: 60000 Hz Clock: 78.750 MHz
Standard timings supported:
  640x480@75Hz 4:3 HorFreq: 37500 Hz Clock: 31.500 MHz
  640x480@85Hz 4:3 HorFreq: 43300 Hz Clock: 36.000 MHz
  800x600@85Hz 4:3 HorFreq: 53700 Hz Clock: 56.250 MHz
  1024x768@85Hz 4:3 HorFreq: 68700 Hz Clock: 94.500 MHz
  1280x1024@60Hz 5:4 HorFreq: 64000 Hz Clock: 108.000 MHz
Detailed mode: Clock 83.460 MHz, 0 mm x 0 mm
               1280 1352 1480 1680 hborder 0
                800  803  809  831 vborder 0
               -hsync -vsync 
               VertFreq: 59 Hz, HorFreq: 49678 Hz
ASCII string: BENQ
Monitor name: MP620c
Detailed mode: Clock 68.250 MHz, 0 mm x 0 mm
               1280 1328 1360 1440 hborder 0
                768  771  778  790 vborder 0
               -hsync -vsync analog composite 
               VertFreq: 59 Hz, HorFreq: 47395 Hz
Checksum: 0xda (valid)
EDID block does NOT conform to EDID 1.3!
	Missing monitor ranges
EDID block does not conform at all!
	Invalid detailed timing descriptor ordering
