
EDID (hex):
00ffffffffffff004cad240300000000
0016010380341d780a78f1a655489b26
12505400000001010101010101010101
010101010110023a801871382d40582c
4500a05a0000001e011d007251d01e20
6e285500a05a0000001e000000fd0038
4b1e5111000a202020202020000000fc
0053414d53554e472d41494f0a200066

Extracted contents:
header:          00 ff ff ff ff ff ff 00
serial number:   4c ad 24 03 00 00 00 00 00 16
version:         01 03
basic params:    80 34 1d 78 0a
chroma info:     78 f1 a6 55 48 9b 26 12 50 54
established:     00 00 00
standard:        01 01 01 01 01 01 01 01 01 01 01 01 01 01 01 10
descriptor 1:    02 3a 80 18 71 38 2d 40 58 2c 45 00 a0 5a 00 00 00 1e
descriptor 2:    01 1d 00 72 51 d0 1e 20 6e 28 55 00 a0 5a 00 00 00 1e
descriptor 3:    00 00 00 fd 00 38 4b 1e 51 11 00 0a 20 20 20 20 20 20
descriptor 4:    00 00 00 fc 00 53 41 4d 53 55 4e 47 2d 41 49 4f 0a 20
extensions:      00
checksum:        66

EDID version: 1.3
Manufacturer: SEM Model 324 Serial Number --
Made in year 2012
Digital display
Maximum image size: 52 cm x 29 cm
Gamma: 2.20
RGB color display
First detailed timing is preferred timing
Display x,y Chromaticity:
  Red:   0.6494, 0.3349
  Green: 0.2832, 0.6054
  Blue:  0.1513, 0.0732
  White: 0.3125, 0.3291
Established timings supported:
Standard timings supported:
  256x160@76Hz 16:10
Detailed mode: Clock 148.500 MHz, 160 mm x 90 mm
               1920 2008 2052 2200 hborder 0
               1080 1084 1089 1125 vborder 0
               +hsync +vsync 
               VertFreq: 60 Hz, HorFreq: 67500 Hz
Detailed mode: Clock 74.250 MHz, 160 mm x 90 mm
               1280 1390 1430 1650 hborder 0
                720  725  730  750 vborder 0
               +hsync +vsync 
               VertFreq: 60 Hz, HorFreq: 45000 Hz
Monitor ranges (GTF): 56-75Hz V, 30-81kHz H, max dotclock 170MHz
Monitor name: SAMSUNG-AIO
Checksum: 0x66 (valid)
One or more of the timings is out of range of the Monitor Ranges:
  Vertical Freq: 60 - 76 Hz
  Horizontal Freq: 45000 - 67500 Hz
  Maximum Clock: 148.500 MHz
