
EDID (hex):
00ffffffffffff004cad240300000000
0019010380301b780a78f1a655489b26
12505400000001010101010101010101
010101010110023a801871382d40582c
4500dd0c1100001e000000fd00383d1e
5111000a202020202020000000ff0030
300a20202020202020202020000000fc
005345432d35303041324c490a20013e
00ffffffffffff004cad240300000000
0019010380301b780a78f1a655489b26
12505400000001010101010101010101
010101010110023a801871382d40582c
4500dd0c1100001e000000fd00383d1e
5111000a202020202020000000ff0030
300a20202020202020202020000000fc
005345432d35303041324c490a20013e

Extracted contents:
header:          00 ff ff ff ff ff ff 00
serial number:   4c ad 24 03 00 00 00 00 00 19
version:         01 03
basic params:    80 30 1b 78 0a
chroma info:     78 f1 a6 55 48 9b 26 12 50 54
established:     00 00 00
standard:        01 01 01 01 01 01 01 01 01 01 01 01 01 01 01 10
descriptor 1:    02 3a 80 18 71 38 2d 40 58 2c 45 00 dd 0c 11 00 00 1e
descriptor 2:    00 00 00 fd 00 38 3d 1e 51 11 00 0a 20 20 20 20 20 20
descriptor 3:    00 00 00 ff 00 30 30 0a 20 20 20 20 20 20 20 20 20 20
descriptor 4:    00 00 00 fc 00 53 45 43 2d 35 30 30 41 32 4c 49 0a 20
extensions:      01
checksum:        3e

EDID version: 1.3
Manufacturer: SEM Model 324 Serial Number --
Made in year 2015
Digital display
Maximum image size: 48 cm x 27 cm
Gamma: 2.20
RGB color display
First detailed timing is preferred timing
Display x,y Chromaticity:
  Red:   0.6494, 0.3349
  Green: 0.2832, 0.6054
  Blue:  0.1513, 0.0732
  White: 0.3125, 0.3291
Established timings supported:
Standard timings supported:
  256x160@76Hz 16:10
Detailed mode: Clock 148.500 MHz, 477 mm x 268 mm
               1920 2008 2052 2200 hborder 0
               1080 1084 1089 1125 vborder 0
               +hsync +vsync 
               VertFreq: 60 Hz, HorFreq: 67500 Hz
Monitor ranges (GTF): 56-61Hz V, 30-81kHz H, max dotclock 170MHz
Serial number: --
Monitor name: SEC-500A2LI
Has 1 extension blocks
Checksum: 0x3e (valid)

Unknown extension block

One or more of the timings is out of range of the Monitor Ranges:
  Vertical Freq: 60 - 76 Hz
  Horizontal Freq: 67500 - 67500 Hz
  Maximum Clock: 148.500 MHz
EDID block does not conform at all!
	Has -1040187392 nonconformant extension block(s)
