edid-decode (hex):

00 ff ff ff ff ff ff 00 06 af 47 30 00 00 00 00
01 11 01 03 80 1e 13 78 0a 24 e5 97 54 4f 92 27
22 50 54 00 00 00 01 01 01 01 01 01 01 01 01 01
01 01 01 01 01 01 d8 27 a0 a8 51 84 0c 30 40 20
33 00 2f bd 10 00 00 19 d8 27 a0 a8 51 84 0c 30
40 20 33 00 2f bd 10 00 00 00 00 00 00 fe 00 52
37 37 37 47 80 42 31 34 31 50 57 33 00 00 00 fe
00 23 32 3d 46 64 7f a1 ff 02 01 0a 20 20 00 c4

----------------

Block 0, Base EDID:
  EDID Structure Version & Revision: 1.3
  Vendor & Product Identification:
    Manufacturer: AUO
    Model: 12359
    Made in: week 1 of 2007
  Basic Display Parameters & Features:
    Digital display
    Maximum image size: 30 cm x 19 cm
    Gamma: 2.20
    RGB color display
    First detailed timing is the preferred timing
  Color Characteristics:
    Red  : 0.5898, 0.3300
    Green: 0.3095, 0.5703
    Blue : 0.1552, 0.1347
    White: 0.3134, 0.3291
  Established Timings I & II: none
  Standard Timings: none
  Detailed Timing Descriptors:
    DTD 1:  1440x900    60.001129 Hz   8:5     54.721 kHz    102.000000 MHz (DE timing only, 303 mm x 189 mm)
                 Hfront   64 Hsync  32 Hback  328 Hpol N
                 Vfront    3 Vsync   3 Vback    6 Vpol N
    DTD 2:  1440x900    60.001129 Hz   8:5     54.721 kHz    102.000000 MHz (DE timing only, 303 mm x 189 mm)
                 Hfront   64 Hsync  32 Hback  328 Hpol N
                 Vfront    3 Vsync   3 Vback    6 Vpol N
    SPWG Module Revision: 0
    SPWG Descriptor #3:
      SPWG PC Maker P/N: 'R777G'
      SPWG LCD Supplier EEDID Revision: 128
      SPWG Manufacturer P/N: 'B141PW3'
    SPWG Descriptor #4:
      SMBUS Values: 0x23 0x32 0x3d 0x46 0x64 0x7f 0xa1 0xff
      LVDS Channels: 2
      Panel Self Test Present
Checksum: 0xc4

----------------

Failures:

Block 0, Base EDID:
  Missing Display Product Name.
  Missing Display Range Limits Descriptor.

EDID conformity: FAIL
