
EDID (hex):
00ffffffffffff0006af473000000000
01110103801e13780a24e597544f9227
22505400000001010101010101010101
010101010101d827a0a851840c304020
33002fbd10000019d827a0a851840c30
402033002fbd10000000000000fe0052
373737478042313431505733000000fe
0023323d46647fa1ff02010a202000c4

Extracted contents:
header:          00 ff ff ff ff ff ff 00
serial number:   06 af 47 30 00 00 00 00 01 11
version:         01 03
basic params:    80 1e 13 78 0a
chroma info:     24 e5 97 54 4f 92 27 22 50 54
established:     00 00 00
standard:        01 01 01 01 01 01 01 01 01 01 01 01 01 01 01 01
descriptor 1:    d8 27 a0 a8 51 84 0c 30 40 20 33 00 2f bd 10 00 00 19
descriptor 2:    d8 27 a0 a8 51 84 0c 30 40 20 33 00 2f bd 10 00 00 00
descriptor 3:    00 00 00 fe 00 52 37 37 37 47 80 42 31 34 31 50 57 33
descriptor 4:    00 00 00 fe 00 23 32 3d 46 64 7f a1 ff 02 01 0a 20 20
extensions:      00
checksum:        c4

EDID version: 1.3
Manufacturer: AUO Model 3047 Serial Number --
Made in week 1 of 2007
Digital display
Maximum image size: 30 cm x 19 cm
Gamma: 2.20
RGB color display
First detailed timing is preferred timing
Display x,y Chromaticity:
  Red:   0.5898, 0.3300
  Green: 0.3095, 0.5703
  Blue:  0.1552, 0.1347
  White: 0.3134, 0.3291
Established timings supported:
Standard timings supported:
Detailed mode: Clock 102.000 MHz, 303 mm x 189 mm
               1440 1504 1536 1864 hborder 0
                900  903  906  912 vborder 0
               -hsync -vsync 
               VertFreq: 60 Hz, HorFreq: 54721 Hz
Detailed mode: Clock 102.000 MHz, 303 mm x 189 mm
               1440 1504 1536 1864 hborder 0
                900  903  906  912 vborder 0
               -hsync -vsync analog composite 
               VertFreq: 60 Hz, HorFreq: 54721 Hz
ASCII string: R777G
ASCII string: #2=Fd
Checksum: 0xc4 (valid)
EDID block does NOT conform to EDID 1.3!
	Missing name descriptor
	Missing monitor ranges
	Detailed block string not properly terminated
