
EDID (hex):
00ffffffffffff0006af966f00000000
321e0104a51e1378030025a855499f25
0e505400000001010101010101010101
010101010101fa3c80b870b024401010
3e002dbc10000018c83080b870b02440
10103e002dbc10000018000000fe0041
554f0a202020202020202020000000fe
004231343055414e30322e32200a007f

Extracted contents:
header:          00 ff ff ff ff ff ff 00
serial number:   06 af 96 6f 00 00 00 00 32 1e
version:         01 04
basic params:    a5 1e 13 78 03
chroma info:     00 25 a8 55 49 9f 25 0e 50 54
established:     00 00 00
standard:        01 01 01 01 01 01 01 01 01 01 01 01 01 01 01 01
descriptor 1:    fa 3c 80 b8 70 b0 24 40 10 10 3e 00 2d bc 10 00 00 18
descriptor 2:    c8 30 80 b8 70 b0 24 40 10 10 3e 00 2d bc 10 00 00 18
descriptor 3:    00 00 00 fe 00 41 55 4f 0a 20 20 20 20 20 20 20 20 20
descriptor 4:    00 00 00 fe 00 42 31 34 30 55 41 4e 30 32 2e 32 20 0a
extensions:      00
checksum:        7f

EDID version: 1.4
Manufacturer: AUO Model 6f96 Serial Number --
Made in week 50 of 2020
Digital display
8 bits per primary color channel
DisplayPort interface
Maximum image size: 30 cm x 19 cm
Gamma: 2.20
Supported color formats: RGB 4:4:4
First detailed timing includes the native pixel format and preferred refresh rate
Display is continuous frequency
Display x,y Chromaticity:
  Red:   0.6562, 0.3320
  Green: 0.2851, 0.6210
  Blue:  0.1445, 0.0566
  White: 0.3134, 0.3291
Established timings supported:
Standard timings supported:
Detailed mode: Clock 156.100 MHz, 301 mm x 188 mm
               1920 1936 1952 2104 hborder 0
               1200 1203 1217 1236 vborder 0
               -hsync -vsync 
               VertFreq: 60 Hz, HorFreq: 74192 Hz
Detailed mode: Clock 124.880 MHz, 301 mm x 188 mm
               1920 1936 1952 2104 hborder 0
               1200 1203 1217 1236 vborder 0
               -hsync -vsync 
               VertFreq: 48 Hz, HorFreq: 59353 Hz
ASCII string: AUO
ASCII string: B140UAN02.2 
Checksum: 0x7f (valid)
EDID block does NOT conform to EDID 1.4!
	Missing name descriptor
	Missing monitor ranges
