
EDID (hex):
00ffffffffffff0009e5690800000000
011d01049522137802c9a0955d599129
1f505400000001010101010101010101
010101010101423680c870380c403020
360058c21000001a682b80c870380c40
3020360058c21000001a000000fe004d
544e3347804e5631354e344800000000
0000412196001000000a010a202000d0

Extracted contents:
header:          00 ff ff ff ff ff ff 00
serial number:   09 e5 69 08 00 00 00 00 01 1d
version:         01 04
basic params:    95 22 13 78 02
chroma info:     c9 a0 95 5d 59 91 29 1f 50 54
established:     00 00 00
standard:        01 01 01 01 01 01 01 01 01 01 01 01 01 01 01 01
descriptor 1:    42 36 80 c8 70 38 0c 40 30 20 36 00 58 c2 10 00 00 1a
descriptor 2:    68 2b 80 c8 70 38 0c 40 30 20 36 00 58 c2 10 00 00 1a
descriptor 3:    00 00 00 fe 00 4d 54 4e 33 47 80 4e 56 31 35 4e 34 48
descriptor 4:    00 00 00 00 00 00 41 21 96 00 10 00 00 0a 01 0a 20 20
extensions:      00
checksum:        d0

EDID version: 1.4
Manufacturer: BOE Model 869 Serial Number --
Made in week 1 of 2019
Digital display
6 bits per primary color channel
DisplayPort interface
Maximum image size: 34 cm x 19 cm
Gamma: 2.20
Supported color formats: RGB 4:4:4
First detailed timing includes the native pixel format and preferred refresh rate
Display x,y Chromaticity:
  Red:   0.5849, 0.3632
  Green: 0.3496, 0.5673
  Blue:  0.1621, 0.1230
  White: 0.3125, 0.3281
Established timings supported:
Standard timings supported:
Detailed mode: Clock 138.900 MHz, 344 mm x 194 mm
               1920 1968 2000 2120 hborder 0
               1080 1083 1089 1092 vborder 0
               +hsync -vsync 
               VertFreq: 59 Hz, HorFreq: 65518 Hz
Detailed mode: Clock 111.120 MHz, 344 mm x 194 mm
               1920 1968 2000 2120 hborder 0
               1080 1083 1089 1092 vborder 0
               +hsync -vsync 
               VertFreq: 47 Hz, HorFreq: 52415 Hz
ASCII string: MTN3G
Manufacturer-specified data, tag 0
Checksum: 0xd0 (valid)
EDID block does NOT conform to EDID 1.4!
	Missing name descriptor
	Missing monitor ranges
	Detailed block string not properly terminated
