
EDID (hex):
00ffffffffffff006a4e940201000000
000f010380321e000a9203a256489925
144a4d21080001010101010101010101
010101010101662150b051001b304070
3600566c4200001f011d007251d01e20
6e285500f4191100001e000000fc005a
4f52414e2048444d49205456000000fd
003b3d0f3c0c000a20202020202001e8
02031b71488504030201141312260907
0715075066030c001000808c0ad08a20
e02d10103e9600f419110000188c0ad0
8a20e02d10103e9600902d1100001801
1d80d0721c1620102c2580f419110000
9e011d00bc52d01e20b8285540f41911
00001e8c0ad090204031200c405500f4
1911000018000000000000000000003b

Extracted contents:
header:          00 ff ff ff ff ff ff 00
serial number:   6a 4e 94 02 01 00 00 00 00 0f
version:         01 03
basic params:    80 32 1e 00 0a
chroma info:     92 03 a2 56 48 99 25 14 4a 4d
established:     21 08 00
standard:        01 01 01 01 01 01 01 01 01 01 01 01 01 01 01 01
descriptor 1:    66 21 50 b0 51 00 1b 30 40 70 36 00 56 6c 42 00 00 1f
descriptor 2:    01 1d 00 72 51 d0 1e 20 6e 28 55 00 f4 19 11 00 00 1e
descriptor 3:    00 00 00 fc 00 5a 4f 52 41 4e 20 48 44 4d 49 20 54 56
descriptor 4:    00 00 00 fd 00 3b 3d 0f 3c 0c 00 0a 20 20 20 20 20 20
extensions:      01
checksum:        e8

EDID version: 1.3
Manufacturer: ZRN Model 294 Serial Number --
Digital display
Maximum image size: 50 cm x 30 cm
Gamma: 1.00
RGB color display
First detailed timing is preferred timing
Display x,y Chromaticity:
  Red:   0.6347, 0.3369
  Green: 0.2812, 0.5996
  Blue:  0.1445, 0.0781
  White: 0.2890, 0.3037
Established timings supported:
  640x480@60Hz 4:3 HorFreq: 31469 Hz Clock: 25.175 MHz
  800x600@60Hz 4:3 HorFreq: 37900 Hz Clock: 40.000 MHz
  1024x768@60Hz 4:3 HorFreq: 48400 Hz Clock: 65.000 MHz
Standard timings supported:
Detailed mode: Clock 85.500 MHz, 1110 mm x 620 mm
               1360 1424 1536 1792 hborder 0
                768  771  777  795 vborder 0
               +hsync +vsync 
               VertFreq: 60 Hz, HorFreq: 47712 Hz
Detailed mode: Clock 74.250 MHz, 500 mm x 281 mm
               1280 1390 1430 1650 hborder 0
                720  725  730  750 vborder 0
               +hsync +vsync 
               VertFreq: 60 Hz, HorFreq: 45000 Hz
Monitor ranges (GTF): 59-61Hz V, 15-60kHz H, max dotclock 120MHz
Has 1 extension blocks
Checksum: 0xe8 (valid)

CTA extension block
Extension version: 3
23 bytes of CTA data
  Video data block
    VIC   5 1920x1080i@60Hz 16:9 (native) HorFreq: 33750 Hz Clock: 74.250 MHz
    VIC   4 1280x720@60Hz 16:9  HorFreq: 45000 Hz Clock: 74.250 MHz
    VIC   3 720x480@60Hz 16:9  HorFreq: 31469 Hz Clock: 27.000 MHz
    VIC   2 720x480@60Hz 4:3  HorFreq: 31469 Hz Clock: 27.000 MHz
    VIC   1 640x480@60Hz 4:3  HorFreq: 31469 Hz Clock: 25.175 MHz
    VIC  20 1920x1080i@50Hz 16:9  HorFreq: 28125 Hz Clock: 74.250 MHz
    VIC  19 1280x720@50Hz 16:9  HorFreq: 37500 Hz Clock: 74.250 MHz
    VIC  18 720x576@50Hz 16:9  HorFreq: 31250 Hz Clock: 27.000 MHz
  Audio data block
    Linear PCM, max channels 2
      Supported sample rates (kHz): 48 44.1 32
      Supported sample sizes (bits): 24 20 16
    AC-3, max channels 6
      Supported sample rates (kHz): 48 44.1 32
      Maximum bit rate: 640 kHz
  Vendor-specific data block, OUI 000c03 (HDMI)
    Source physical address 1.0.0.0
    Supports_AI
Basic audio support
Supports YCbCr 4:4:4
Supports YCbCr 4:2:2
1 native detailed modes
Detailed mode: Clock 27.000 MHz, 500 mm x 281 mm
                720  736  798  858 hborder 0
                480  489  495  525 vborder 0
               -hsync -vsync 
               VertFreq: 59 Hz, HorFreq: 31468 Hz
Detailed mode: Clock 27.000 MHz, 400 mm x 301 mm
                720  736  798  858 hborder 0
                480  489  495  525 vborder 0
               -hsync -vsync 
               VertFreq: 59 Hz, HorFreq: 31468 Hz
Detailed mode: Clock 74.250 MHz, 500 mm x 281 mm
               1920 2448 2492 2640 hborder 0
                540  542  547  562 vborder 0
               +hsync +vsync interlaced 
               VertFreq: 50 Hz, HorFreq: 28125 Hz
Detailed mode: Clock 74.250 MHz, 500 mm x 281 mm
               1280 1720 1760 1980 hborder 0
                720  725  730  750 vborder 0
               +hsync +vsync 
               VertFreq: 50 Hz, HorFreq: 37500 Hz
Detailed mode: Clock 27.000 MHz, 500 mm x 281 mm
                720  732  796  864 hborder 0
                576  581  586  625 vborder 0
               -hsync -vsync 
               VertFreq: 50 Hz, HorFreq: 31250 Hz
Checksum: 0x3b (valid)

EDID block does NOT conform to EDID 1.3!
	Name descriptor not terminated with a newline
One or more of the timings is out of range of the Monitor Ranges:
  Vertical Freq: 50 - 60 Hz
  Horizontal Freq: 28125 - 48400 Hz
  Maximum Clock: 85.500 MHz
EDID block does not conform at all!
	Bad year of manufacture
