
EDID (hex):
00ffffffffffff0030e4510700000000
00200104a51e13780710e5a8544c9a25
10505400000001010101010101010101
010101010101353c80a070b023403020
36002ebc1000001a2a3080a070b02340
302036002ebc1000001a000000fe0056
3837314e803134305755310a00000000
00024111a8001100000a410a2020003b

edid-decode (hex):

00 ff ff ff ff ff ff 00 30 e4 51 07 00 00 00 00
00 20 01 04 a5 1e 13 78 07 10 e5 a8 54 4c 9a 25
10 50 54 00 00 00 01 01 01 01 01 01 01 01 01 01
01 01 01 01 01 01 35 3c 80 a0 70 b0 23 40 30 20
36 00 2e bc 10 00 00 1a 2a 30 80 a0 70 b0 23 40
30 20 36 00 2e bc 10 00 00 1a 00 00 00 fe 00 56
38 37 31 4e 80 31 34 30 57 55 31 0a 00 00 00 00
00 02 41 11 a8 00 11 00 00 0a 41 0a 20 20 00 3b

----------------

Block 0, Base EDID:
  EDID Structure Version & Revision: 1.4
  Vendor & Product Identification:
    Manufacturer: LGD
    Model: 1873
    Made in: 2022
  Basic Display Parameters & Features:
    Digital display
    Bits per primary color channel: 8
    DisplayPort interface
    Maximum image size: 30 cm x 19 cm
    Gamma: 2.20
    Supported color formats: RGB 4:4:4
    Default (sRGB) color space is primary color space
    First detailed timing includes the native pixel format and preferred refresh rate
    Display is continuous frequency
  Color Characteristics:
    Red  : 0.6562, 0.3291
    Green: 0.2968, 0.6015
    Blue : 0.1474, 0.0644
    White: 0.3134, 0.3291
  Established Timings I & II: none
  Standard Timings: none
  Detailed Timing Descriptors:
    DTD 1:  1920x1200   60.000779 Hz  16:10    74.101 kHz    154.130000 MHz (302 mm x 188 mm)
                 Hfront   48 Hsync  32 Hback   80 Hpol P
                 Vfront    3 Vsync   6 Vback   26 Vpol N
    DTD 2:  1920x1200   47.999066 Hz  16:10    59.279 kHz    123.300000 MHz (302 mm x 188 mm)
                 Hfront   48 Hsync  32 Hback   80 Hpol P
                 Vfront    3 Vsync   6 Vback   26 Vpol N
    Alphanumeric Data String: 'V871N'
    Manufacturer-Specified Display Descriptor (0x00): 00 00 00 02 41 11 a8 00 11 00 00 0a 41 0a 20 20 '....A.......A.  '
Checksum: 0x3b
