
EDID (hex):
00ffffffffffff0021635c2d00000000
001f0104951a0e78e30590955b5a9329
1e505400000001010101010101010101
010101010101c01d5691500048303920
3c00009010000019cd17569150004830
39203c00009010000019000000fe0048
4b43204d59202020200a2020000000fe
004d42313136414e3031273220200083

Extracted contents:
header:          00 ff ff ff ff ff ff 00
serial number:   21 63 5c 2d 00 00 00 00 00 1f
version:         01 04
basic params:    95 1a 0e 78 e3
chroma info:     05 90 95 5b 5a 93 29 1e 50 54
established:     00 00 00
standard:        01 01 01 01 01 01 01 01 01 01 01 01 01 01 01 01
descriptor 1:    c0 1d 56 91 50 00 48 30 39 20 3c 00 00 90 10 00 00 19
descriptor 2:    cd 17 56 91 50 00 48 30 39 20 3c 00 00 90 10 00 00 19
descriptor 3:    00 00 00 fe 00 48 4b 43 20 4d 59 20 20 20 20 0a 20 20
descriptor 4:    00 00 00 fe 00 4d 42 31 31 36 41 4e 30 31 27 32 20 20
extensions:      00
checksum:        83

EDID version: 1.4
Manufacturer: HKC Model 2d5c Serial Number --
Made in year 2021
Digital display
6 bits per primary color channel
DisplayPort interface
Maximum image size: 26 cm x 14 cm
Gamma: 2.20
DPMS levels: Standby Suspend Off
Supported color formats: RGB 4:4:4
First detailed timing includes the native pixel format and preferred refresh rate
Display is continuous frequency
Display x,y Chromaticity:
  Red:   0.5820, 0.3554
  Green: 0.3525, 0.5751
  Blue:  0.1621, 0.1181
  White: 0.3125, 0.3281
Established timings supported:
Standard timings supported:
Detailed mode: Clock 76.160 MHz, 256 mm x 144 mm
               1366 1423 1455 1511 hborder 0
                768  771  783  840 vborder 0
               -hsync -vsync 
               VertFreq: 60 Hz, HorFreq: 50403 Hz
Detailed mode: Clock 60.930 MHz, 256 mm x 144 mm
               1366 1423 1455 1511 hborder 0
                768  771  783  840 vborder 0
               -hsync -vsync 
               VertFreq: 48 Hz, HorFreq: 40324 Hz
ASCII string: HKC MY    
ASCII string: MB116AN01'2  
Checksum: 0x83 (valid)
EDID block does NOT conform to EDID 1.4!
	Missing name descriptor
	Missing monitor ranges
