edid-decode (hex):

00 ff ff ff ff ff ff 00 38 a3 02 69 00 00 00 00
12 1c 01 04 b5 34 20 78 e2 c4 c5 a8 55 4d 9c 25
10 50 54 bf ef 80 81 c0 81 40 81 80 8b c0 95 00
90 40 b3 00 a9 40 28 3c 80 a0 70 b0 23 40 30 20
36 00 06 44 21 00 00 1c 00 00 00 fd 00 31 55 1f
78 11 00 0a 20 20 20 20 20 20 00 00 00 fc 00 50
32 34 32 57 0a 20 20 20 20 20 20 20 00 00 00 ff
00 38 35 33 30 38 34 33 35 54 57 0a 20 20 01 9e

10 01 05 00 00 e4 3e b0 a0 40 80 37 70 30 20 3a
00 44 06 12 00 00 1a 53 20 c0 a0 30 b0 25 40 30
20 5a 00 03 44 11 00 00 1a 72 1f b0 a0 40 c0 1c
30 30 20 37 00 44 03 11 00 00 1a 02 3a 80 18 71
38 2d 40 94 2c 45 00 06 24 21 00 00 1e 02 3a 80
d0 72 38 2d 40 10 2c 45 80 06 23 21 00 00 1e 00
00 00 00 00 00 00 00 00 00 00 00 00 00 00 00 00
00 00 00 00 00 00 00 00 00 00 00 00 00 00 00 53

----------------

Block 0, Base EDID:
  EDID Structure Version & Revision: 1.4
  Vendor & Product Identification:
    Manufacturer: NEC
    Model: 26882
    Made in: week 18 of 2018
  Basic Display Parameters & Features:
    Digital display
    Bits per primary color channel: 10
    DisplayPort interface
    Maximum image size: 52 cm x 32 cm
    Gamma: 2.20
    DPMS levels: Standby Suspend Off
    Supported color formats: RGB 4:4:4
    First detailed timing includes the native pixel format and preferred refresh rate
  Color Characteristics:
    Red  : 0.6591, 0.3320
    Green: 0.3017, 0.6093
    Blue : 0.1474, 0.0625
    White: 0.3134, 0.3291
  Established Timings I & II:
    IBM     :   720x400    70.082 Hz   9:5    31.467 kHz  28.320 MHz
    DMT 0x04:   640x480    59.940 Hz   4:3    31.469 kHz  25.175 MHz
    Apple   :   640x480    66.667 Hz   4:3    35.000 kHz  30.240 MHz
    DMT 0x05:   640x480    72.809 Hz   4:3    37.861 kHz  31.500 MHz
    DMT 0x06:   640x480    75.000 Hz   4:3    37.500 kHz  31.500 MHz
    DMT 0x08:   800x600    56.250 Hz   4:3    35.156 kHz  36.000 MHz
    DMT 0x09:   800x600    60.317 Hz   4:3    37.879 kHz  40.000 MHz
    DMT 0x0a:   800x600    72.188 Hz   4:3    48.077 kHz  50.000 MHz
    DMT 0x0b:   800x600    75.000 Hz   4:3    46.875 kHz  49.500 MHz
    Apple   :   832x624    74.551 Hz   4:3    49.726 kHz  57.284 MHz
    DMT 0x10:  1024x768    60.004 Hz   4:3    48.363 kHz  65.000 MHz
    DMT 0x11:  1024x768    70.069 Hz   4:3    56.476 kHz  75.000 MHz
    DMT 0x12:  1024x768    75.029 Hz   4:3    60.023 kHz  78.750 MHz
    DMT 0x24:  1280x1024   75.025 Hz   5:4    79.976 kHz 135.000 MHz
    Apple   :  1152x870    75.062 Hz 192:145  68.681 kHz 100.000 MHz
  Standard Timings:
    DMT 0x55:  1280x720    60.000 Hz  16:9    45.000 kHz  74.250 MHz
    DMT 0x20:  1280x960    60.000 Hz   4:3    60.000 kHz 108.000 MHz
    DMT 0x23:  1280x1024   60.020 Hz   5:4    63.981 kHz 108.000 MHz
    CVT     :  1360x768    59.799 Hz  16:9    47.720 kHz  84.750 MHz (EDID 1.4 source)
    GTF     :  1360x768    60.000 Hz  16:9    47.700 kHz  84.715 MHz (EDID 1.3 source)
    DMT 0x2f:  1440x900    59.887 Hz  16:10   55.935 kHz 106.500 MHz
    DMT 0x2a:  1400x1050   59.978 Hz   4:3    65.317 kHz 121.750 MHz
    DMT 0x3a:  1680x1050   59.954 Hz  16:10   65.290 kHz 146.250 MHz
    DMT 0x33:  1600x1200   60.000 Hz   4:3    75.000 kHz 162.000 MHz
  Detailed Timing Descriptors:
    DTD 1:  1920x1200   59.950 Hz   8:5    74.038 kHz 154.000 MHz (518 mm x 324 mm)
                 Hfront   48 Hsync  32 Hback  80 Hpol N
                 Vfront    3 Vsync   6 Vback  26 Vpol P
  Display Range Limits:
    Monitor ranges (GTF): 49-85 Hz V, 31-120 kHz H, max dotclock 170 MHz
    Display Product Name: 'P242W'
    Display Product Serial Number: ...
  Extension blocks: 1
Checksum: 0x9e

----------------

Block 1, Video Timing Extension Block:
  Version: 1
  Detailed Timing Descriptors:
    DTD:  1200x1920   59.940 Hz   5:8   118.382 kHz 161.000 MHz (324 mm x 518 mm)
               Hfront   48 Hsync  32 Hback  80 Hpol P
               Vfront    3 Vsync  10 Vback  42 Vpol N
    DTD:   960x1200   59.728 Hz   4:5    73.884 kHz  82.750 MHz (259 mm x 324 mm)
               Hfront   48 Hsync  32 Hback  80 Hpol P
               Vfront    5 Vsync  10 Vback  22 Vpol N
    DTD:  1200x960    59.910 Hz   5:4    59.191 kHz  80.500 MHz (324 mm x 259 mm)
               Hfront   48 Hsync  32 Hback  80 Hpol P
               Vfront    3 Vsync   7 Vback  18 Vpol N
    DTD:  1920x1080   60.000 Hz  16:9    67.500 kHz 148.500 MHz (518 mm x 292 mm)
               Hfront  148 Hsync  44 Hback  88 Hpol P
               Vfront    4 Vsync   5 Vback  36 Vpol P
    DTD:  1920x1080   50.000 Hz  16:9    56.250 kHz 148.500 MHz (518 mm x 291 mm)
               Hfront  528 Hsync  44 Hback 148 Hpol P
               Vfront    4 Vsync   5 Vback  36 Vpol P
Checksum: 0x53

----------------

Failures:

Block 0, Base EDID:
  Display Range Limits: GTF can't be combined with non-continuous frequencies.
Block 1, Video Timing Extension Block:
  Detailed Timing Descriptor #1: Mismatch of image size 324x518 mm vs display size 520x320 mm.
  Detailed Timing Descriptor #1: Mismatch of image size 324x259 mm vs display size 520x320 mm.
EDID:
  Base EDID: CVT timings are used, but the EDID does not signal CVT support.

EDID conformity: FAIL
