edid-decode (hex):

00 ff ff ff ff ff ff 00 24 ed 50 21 01 01 01 01
07 1d 01 03 18 30 1b 78 2e 0b a5 a7 56 52 9d 26
10 50 54 bf ef 80 81 80 81 40 b3 00 95 00 81 8f
90 40 a9 40 01 01 02 3a 80 18 71 38 2d 40 58 2c
45 00 dd 0d 11 00 00 1e 00 00 00 fd 00 37 4c 1f
53 12 00 0a 20 20 20 20 20 20 00 00 00 ff 00 56
42 30 33 31 45 39 30 37 32 31 39 37 00 00 00 fc
00 4c 32 31 35 45 0a 20 20 20 20 20 20 20 00 4a

00 ff ff ff ff ff ff 00 24 ed 50 21 01 01 01 01
07 1d 01 03 18 30 1b 78 2e 0b a5 a7 56 52 9d 26
10 50 54 bf ef 80 81 80 81 40 b3 00 95 00 81 8f
90 40 a9 40 01 01 02 3a 80 18 71 38 2d 40 58 2c
45 00 dd 0d 11 00 00 1e 00 00 00 fd 00 37 4c 1f
53 12 00 0a 20 20 20 20 20 20 00 00 00 ff 00 56
42 30 33 31 45 39 30 37 32 31 39 37 00 00 00 fc
00 4c 32 31 35 45 0a 20 20 20 20 20 20 20 00 4a

----------------

Block 0, Base EDID:
  EDID Structure Version & Revision: 1.3
  Vendor & Product Identification:
    Manufacturer: IGM
    Model: 8528
    Serial Number: ...
    Made in: week 7 of 2019
  Basic Display Parameters & Features:
    Analog display
    Signal Level Standard: 0.700 : 0.300 : 1.000 V p-p
    Blank-to-black setup/pedestal
    Sync: Separate
    Maximum image size: 48 cm x 27 cm
    Gamma: 2.20
    DPMS levels: Off
    RGB color display
    Default (sRGB) color space is primary color space
    First detailed timing is the preferred timing
  Color Characteristics:
    Red  : 0.6523, 0.3359
    Green: 0.3222, 0.6162
    Blue : 0.1503, 0.0644
    White: 0.3134, 0.3291
  Established Timings I & II:
    IBM     :   720x400    70.081663 Hz   9:5     31.467 kHz     28.320000 MHz
    DMT 0x04:   640x480    59.940476 Hz   4:3     31.469 kHz     25.175000 MHz
    Apple   :   640x480    66.666667 Hz   4:3     35.000 kHz     30.240000 MHz
    DMT 0x05:   640x480    72.808802 Hz   4:3     37.861 kHz     31.500000 MHz
    DMT 0x06:   640x480    75.000000 Hz   4:3     37.500 kHz     31.500000 MHz
    DMT 0x08:   800x600    56.250000 Hz   4:3     35.156 kHz     36.000000 MHz
    DMT 0x09:   800x600    60.316541 Hz   4:3     37.879 kHz     40.000000 MHz
    DMT 0x0a:   800x600    72.187572 Hz   4:3     48.077 kHz     50.000000 MHz
    DMT 0x0b:   800x600    75.000000 Hz   4:3     46.875 kHz     49.500000 MHz
    Apple   :   832x624    74.551266 Hz   4:3     49.726 kHz     57.284000 MHz
    DMT 0x10:  1024x768    60.003840 Hz   4:3     48.363 kHz     65.000000 MHz
    DMT 0x11:  1024x768    70.069359 Hz   4:3     56.476 kHz     75.000000 MHz
    DMT 0x12:  1024x768    75.028582 Hz   4:3     60.023 kHz     78.750000 MHz
    DMT 0x24:  1280x1024   75.024675 Hz   5:4     79.976 kHz    135.000000 MHz
    Apple   :  1152x870    75.061550 Hz 192:145   68.681 kHz    100.000000 MHz
  Standard Timings:
    DMT 0x23:  1280x1024   60.019740 Hz   5:4     63.981 kHz    108.000000 MHz
    DMT 0x20:  1280x960    60.000000 Hz   4:3     60.000 kHz    108.000000 MHz
    DMT 0x3a:  1680x1050   59.954250 Hz  16:10    65.290 kHz    146.250000 MHz
    DMT 0x2f:  1440x900    59.887445 Hz  16:10    55.935 kHz    106.500000 MHz
    DMT 0x24:  1280x1024   75.024675 Hz   5:4     79.976 kHz    135.000000 MHz
    DMT 0x2a:  1400x1050   59.978442 Hz   4:3     65.317 kHz    121.750000 MHz
    DMT 0x33:  1600x1200   60.000000 Hz   4:3     75.000 kHz    162.000000 MHz
  Detailed Timing Descriptors:
    DTD 1:  1920x1080   60.000000 Hz  16:9     67.500 kHz    148.500000 MHz (477 mm x 269 mm)
                 Hfront   88 Hsync  44 Hback  148 Hpol P
                 Vfront    4 Vsync   5 Vback   36 Vpol P
    Display Range Limits:
      Monitor ranges (GTF): 55-76 Hz V, 31-83 kHz H, max dotclock 180 MHz
    Display Product Serial Number: ...
    Display Product Name: 'L215E'
Checksum: 0x4a

----------------

Block 1, Unknown EDID Extension Block 0x00:
  00 ff ff ff ff ff ff 00 24 ed 50 21 01 01 01 01 '........$.P!....'
  07 1d 01 03 18 30 1b 78 2e 0b a5 a7 56 52 9d 26 '.....0.x....VR.&'
  10 50 54 bf ef 80 81 80 81 40 b3 00 95 00 81 8f '.PT......@......'
  90 40 a9 40 01 01 02 3a 80 18 71 38 2d 40 58 2c '.@.@...:..q8-@X,'
  45 00 dd 0d 11 00 00 1e 00 00 00 fd 00 37 4c 1f 'E............7L.'
  53 12 00 0a 20 20 20 20 20 20 00 00 00 ff 00 56 'S...      .....V'
  42 30 33 31 45 39 30 37 32 31 39 37 00 00 00 fc 'B031E9072197....'
  00 4c 32 31 35 45 0a 20 20 20 20 20 20 20 00 4a '.L215E.       .J'
Checksum: 0x4a

----------------

Failures:

Block 0, Base EDID:
  Basic Display Parameters & Features: sRGB is signaled, but the chromaticities do not match.
Block 1, Base EDID:
  Unknown Extension Block.
EDID:
  Base EDID: EDID specified 0 extension block(s), but found 1 extension block(s).

EDID conformity: FAIL
