edid-decode (hex):

00 ff ff ff ff ff ff 00 0d af 18 13 00 00 00 00
08 13 01 03 80 1d 10 78 0a a9 e5 95 59 56 90 27
21 50 54 00 00 00 01 01 01 01 01 01 01 01 01 01
01 01 01 01 01 01 12 1b 56 6e 50 00 0f 30 20 15
24 00 28 a6 10 00 00 18 00 00 00 fe 00 4e 31 33
34 42 36 2d 4c 30 32 0a 20 20 00 00 00 fe 00 43
4d 4f 0a 20 20 20 20 20 20 20 20 20 00 00 00 fe
00 4e 31 33 34 42 36 2d 4c 30 32 0a 20 20 00 9b

----------------

Block 0, Base EDID:
  EDID Structure Version & Revision: 1.3
  Vendor & Product Identification:
    Manufacturer: CMO
    Model: 4888
    Made in: week 8 of 2009
  Basic Display Parameters & Features:
    Digital display
    Maximum image size: 29 cm x 16 cm
    Gamma: 2.20
    RGB color display
    First detailed timing is the preferred timing
  Color Characteristics:
    Red  : 0.5839, 0.3496
    Green: 0.3378, 0.5634
    Blue : 0.1552, 0.1308
    White: 0.3134, 0.3291
  Established Timings I & II: none
  Standard Timings: none
  Detailed Timing Descriptors:
    DTD 1:  1366x768    59.963243 Hz 683:384   46.951 kHz     69.300000 MHz (296 mm x 166 mm)
                 Hfront   32 Hsync  21 Hback   57 Hpol N
                 Vfront    2 Vsync   4 Vback    9 Vpol N
    Alphanumeric Data String: 'N134B6-L02'
    Alphanumeric Data String: 'CMO'
    Alphanumeric Data String: 'N134B6-L02'
Checksum: 0x9b

----------------

Failures:

Block 0, Base EDID:
  Missing Display Product Name.
  Missing Display Range Limits Descriptor.

EDID conformity: FAIL
