
EDID (hex):
00ffffffffffff001ab36405ed130000
140f0103681f17782ada05a0574d9626
195054a54a00314f454f614f01010101
01010101010164190040410026301888
360030e410000018000000fc00413135
2d310a20202020202020000000fd0038
4c1e3f08000a202020202020000000ff
00594545513030353130310a2020006b

Extracted contents:
header:          00 ff ff ff ff ff ff 00
serial number:   1a b3 64 05 ed 13 00 00 14 0f
version:         01 03
basic params:    68 1f 17 78 2a
chroma info:     da 05 a0 57 4d 96 26 19 50 54
established:     a5 4a 00
standard:        31 4f 45 4f 61 4f 01 01 01 01 01 01 01 01 01 01
descriptor 1:    64 19 00 40 41 00 26 30 18 88 36 00 30 e4 10 00 00 18
descriptor 2:    00 00 00 fc 00 41 31 35 2d 31 0a 20 20 20 20 20 20 20
descriptor 3:    00 00 00 fd 00 38 4c 1e 3f 08 00 0a 20 20 20 20 20 20
descriptor 4:    00 00 00 ff 00 59 45 45 51 30 30 35 31 30 31 0a 20 20
extensions:      00
checksum:        6b

EDID version: 1.3
Manufacturer: FUS Model 564 Serial Number --
Analog display, Input voltage level: 0.7/0.7 V
Sync: Separate 
Maximum image size: 31 cm x 23 cm
Gamma: 2.20
DPMS levels: Off
RGB color display
First detailed timing is preferred timing
Display x,y Chromaticity:
  Red:   0.6279, 0.3408
  Green: 0.3027, 0.5878
  Blue:  0.1484, 0.0976
  White: 0.3134, 0.3291
Established timings supported:
  720x400@70Hz 9:5 HorFreq: 31469 Hz Clock: 28.320 MHz
  640x480@60Hz 4:3 HorFreq: 31469 Hz Clock: 25.175 MHz
  640x480@75Hz 4:3 HorFreq: 37500 Hz Clock: 31.500 MHz
  800x600@60Hz 4:3 HorFreq: 37900 Hz Clock: 40.000 MHz
  800x600@75Hz 4:3 HorFreq: 46900 Hz Clock: 49.500 MHz
  1024x768@60Hz 4:3 HorFreq: 48400 Hz Clock: 65.000 MHz
  1024x768@75Hz 4:3 HorFreq: 60000 Hz Clock: 78.750 MHz
Standard timings supported:
  640x480@75Hz 4:3 HorFreq: 37500 Hz Clock: 31.500 MHz
  800x600@75Hz 4:3 HorFreq: 46900 Hz Clock: 49.500 MHz
  1024x768@75Hz 4:3 HorFreq: 60000 Hz Clock: 78.750 MHz
Detailed mode: Clock 65.000 MHz, 304 mm x 228 mm
               1024 1048 1184 1344 hborder 0
                768  771  777  806 vborder 0
               -hsync -vsync 
               VertFreq: 60 Hz, HorFreq: 48363 Hz
Monitor name: A15-1
Monitor ranges (GTF): 56-76Hz V, 30-63kHz H, max dotclock 80MHz
Serial number: --
Checksum: 0x6b (valid)
EDID block does not conform at all!
	Bad year of manufacture


