
EDID (hex):
00ffffffffffff002e8342156b000000
1312010368211578eaf0659857519127
215054a1080001010101010101010101
0101010101019a20009051201c304088
13004bcf1000001c0e1f008051001e30
408037004bcf1000001c000000fd0038
3f1f3209000a202020202020000000fc
0057353030364c0a2020202020200022

Extracted contents:
header:          00 ff ff ff ff ff ff 00
serial number:   2e 83 42 15 6b 00 00 00 13 12
version:         01 03
basic params:    68 21 15 78 ea
chroma info:     f0 65 98 57 51 91 27 21 50 54
established:     a1 08 00
standard:        01 01 01 01 01 01 01 01 01 01 01 01 01 01 01 01
descriptor 1:    9a 20 00 90 51 20 1c 30 40 88 13 00 4b cf 10 00 00 1c
descriptor 2:    0e 1f 00 80 51 00 1e 30 40 80 37 00 4b cf 10 00 00 1c
descriptor 3:    00 00 00 fd 00 38 3f 1f 32 09 00 0a 20 20 20 20 20 20
descriptor 4:    00 00 00 fc 00 57 35 30 30 36 4c 0a 20 20 20 20 20 20
extensions:      00
checksum:        22

EDID version: 1.3
Manufacturer: KTC Model 1542 Serial Number --
Made in week 19 of 2008
Analog display, Input voltage level: 0.7/0.7 V
Sync: Separate 
Maximum image size: 33 cm x 21 cm
Gamma: 2.20
DPMS levels: Standby Suspend Off
RGB color display
First detailed timing is preferred timing
Display x,y Chromaticity:
  Red:   0.5966, 0.3427
  Green: 0.3164, 0.5664
  Blue:  0.1533, 0.1308
  White: 0.3134, 0.3291
Established timings supported:
  720x400@70Hz 9:5 HorFreq: 31469 Hz Clock: 28.320 MHz
  640x480@60Hz 4:3 HorFreq: 31469 Hz Clock: 25.175 MHz
  800x600@60Hz 4:3 HorFreq: 37900 Hz Clock: 40.000 MHz
  1024x768@60Hz 4:3 HorFreq: 48400 Hz Clock: 65.000 MHz
Standard timings supported:
Detailed mode: Clock 83.460 MHz, 331 mm x 207 mm
               1280 1344 1480 1680 hborder 0
                800  801  804  828 vborder 0
               -hsync +vsync 
               VertFreq: 59 Hz, HorFreq: 49678 Hz
Detailed mode: Clock 79.500 MHz, 331 mm x 207 mm
               1280 1344 1472 1664 hborder 0
                768  771  778  798 vborder 0
               -hsync +vsync 
               VertFreq: 59 Hz, HorFreq: 47776 Hz
Monitor ranges (GTF): 56-63Hz V, 31-50kHz H, max dotclock 90MHz
Monitor name: W5006L
Checksum: 0x22 (valid)
One or more of the timings is out of range of the Monitor Ranges:
  Vertical Freq: 59 - 70 Hz
  Horizontal Freq: 31469 - 49678 Hz
  Maximum Clock: 83.460 MHz
