
EDID (hex):
00ffffffffffff0010ac22a053524e30
12120104a51e1778265d40a1544c9426
175054a54a0001010101010101010101
01010101010164190040410026301888
360030e410000018000000ff00464a30
3636383531304e52530a000000fd0038
4c1e3f08000a202020202020000000fc
0044454c4c204531353746500a200087

Extracted contents:
header:          00 ff ff ff ff ff ff 00
serial number:   10 ac 22 a0 53 52 4e 30 12 12
version:         01 04
basic params:    a5 1e 17 78 26
chroma info:     5d 40 a1 54 4c 94 26 17 50 54
established:     a5 4a 00
standard:        01 01 01 01 01 01 01 01 01 01 01 01 01 01 01 01
descriptor 1:    64 19 00 40 41 00 26 30 18 88 36 00 30 e4 10 00 00 18
descriptor 2:    00 00 00 ff 00 46 4a 30 36 36 38 35 31 30 4e 52 53 0a
descriptor 3:    00 00 00 fd 00 38 4c 1e 3f 08 00 0a 20 20 20 20 20 20
descriptor 4:    00 00 00 fc 00 44 45 4c 4c 20 45 31 35 37 46 50 0a 20
extensions:      00
checksum:        87

EDID version: 1.4
Manufacturer: DEL Model a022 Serial Number --
Made in week 18 of 2008
Digital display
8 bits per primary color channel
DisplayPort interface
Maximum image size: 30 cm x 23 cm
Gamma: 2.20
DPMS levels: Off
Supported color formats: RGB 4:4:4
Default (sRGB) color space is primary color space
First detailed timing includes the native pixel format and preferred refresh rate
Display x,y Chromaticity:
  Red:   0.6298, 0.3291
  Green: 0.2998, 0.5791
  Blue:  0.1494, 0.0898
  White: 0.3125, 0.3281
Established timings supported:
  720x400@70Hz 9:5 HorFreq: 31469 Hz Clock: 28.320 MHz
  640x480@60Hz 4:3 HorFreq: 31469 Hz Clock: 25.175 MHz
  640x480@75Hz 4:3 HorFreq: 37500 Hz Clock: 31.500 MHz
  800x600@60Hz 4:3 HorFreq: 37900 Hz Clock: 40.000 MHz
  800x600@75Hz 4:3 HorFreq: 46900 Hz Clock: 49.500 MHz
  1024x768@60Hz 4:3 HorFreq: 48400 Hz Clock: 65.000 MHz
  1024x768@75Hz 4:3 HorFreq: 60000 Hz Clock: 78.750 MHz
Standard timings supported:
Detailed mode: Clock 65.000 MHz, 304 mm x 228 mm
               1024 1048 1184 1344 hborder 0
                768  771  777  806 vborder 0
               -hsync -vsync 
               VertFreq: 60 Hz, HorFreq: 48363 Hz
Serial number: --
Monitor ranges (GTF): 56-76Hz V, 30-63kHz H, max dotclock 80MHz
Monitor name: DELL E157FP
Checksum: 0x87 (valid)
EDID block does NOT conform to EDID 1.4!
	sRGB is signaled, but the chromaticities do not match
