
EDID (hex):
00ffffffffffff004ca3583300000000
00120103802115780a87f594574f8c27
27505400000001010101010101010101
010101010101d61b0090502022301030
13004bcf100000190000000f00000000
00000000002387026400000000fe0058
313639470031353458330a20000000fe
00263640476a8fc6ff01010a2020008b

Extracted contents:
header:          00 ff ff ff ff ff ff 00
serial number:   4c a3 58 33 00 00 00 00 00 12
version:         01 03
basic params:    80 21 15 78 0a
chroma info:     87 f5 94 57 4f 8c 27 27 50 54
established:     00 00 00
standard:        01 01 01 01 01 01 01 01 01 01 01 01 01 01 01 01
descriptor 1:    d6 1b 00 90 50 20 22 30 10 30 13 00 4b cf 10 00 00 19
descriptor 2:    00 00 00 0f 00 00 00 00 00 00 00 00 00 23 87 02 64 00
descriptor 3:    00 00 00 fe 00 58 31 36 39 47 00 31 35 34 58 33 0a 20
descriptor 4:    00 00 00 fe 00 26 36 40 47 6a 8f c6 ff 01 01 0a 20 20
extensions:      00
checksum:        8b

EDID version: 1.3
Manufacturer: SEC Model 3358 Serial Number --
Made in year 2008
Digital display
Maximum image size: 33 cm x 21 cm
Gamma: 2.20
RGB color display
First detailed timing is preferred timing
Display x,y Chromaticity:
  Red:   0.5800, 0.3398
  Green: 0.3095, 0.5498
  Blue:  0.1552, 0.1552
  White: 0.3134, 0.3291
Established timings supported:
Standard timings supported:
Detailed mode: Clock 71.260 MHz, 331 mm x 207 mm
               1280 1296 1344 1424 hborder 0
                800  801  804  834 vborder 0
               -hsync -vsync 
               VertFreq: 60 Hz, HorFreq: 50042 Hz
Manufacturer-specified data, tag 15
ASCII string: X169G
ASCII string: &6@Gj
Checksum: 0x8b (valid)
EDID block does NOT conform to EDID 1.3!
	Missing name descriptor
	Missing monitor ranges
	Detailed block string not properly terminated
