edid-decode (hex):

00 ff ff ff ff ff ff 00 4c 2d 30 e0 00 0e 00 01
01 22 01 04 00 46 27 ff 02 00 00 00 00 00 00 00
00 00 00 25 cf 00 71 4f 81 c0 81 00 81 80 95 00
a9 c0 b3 00 d1 c0 53 84 00 10 f5 70 28 80 f0 98
35 10 00 00 00 00 00 1c 00 00 00 fc 00 4f 64 79
73 73 65 79 20 47 38 30 53 44 00 00 00 ff 00 48
31 41 4b 35 30 30 30 30 30 00 00 00 00 00 00 00
00 00 00 00 00 00 00 00 00 00 00 00 00 00 03 c4

f0 10 70 00 00 00 00 00 00 00 00 00 00 00 00 00
00 00 00 00 00 00 00 00 00 00 00 00 00 00 00 00
00 00 00 00 00 00 00 00 00 00 00 00 00 00 00 00
00 00 00 00 00 00 00 00 00 00 00 00 00 00 00 00
00 00 00 00 00 00 00 00 00 00 00 00 00 00 00 00
00 00 00 00 00 00 00 00 00 00 00 00 00 00 00 00
00 00 00 00 00 00 00 00 00 00 00 00 00 00 00 00
00 00 00 00 00 00 00 00 00 00 00 00 00 00 00 90

10 01 01 01 03 73 0a d0 b0 20 e0 14 10 18 40 3a
00 00 00 00 00 00 1c cf 24 38 e1 c0 d1 40 d1 fc
00 00 00 00 00 00 00 00 00 00 00 00 00 00 00 00
00 00 00 00 00 00 00 00 00 00 00 00 00 00 00 00
00 00 00 00 00 00 00 00 00 00 00 00 00 00 00 00
00 00 00 00 00 00 00 00 00 00 00 00 00 00 00 00
00 00 00 00 00 00 00 00 00 00 00 00 00 00 00 00
00 00 00 00 00 00 00 00 00 00 00 00 00 00 00 71

70 10 79 00 00 03 01 28 6b 16 01 08 ff 0e bf 05
37 01 a7 01 6f 08 4c 00 02 80 04 00 4d 02 01 08
ff 09 ef 03 df 00 17 01 9f 05 68 00 02 80 04 00
00 00 00 00 00 00 00 00 00 00 00 00 00 00 00 00
00 00 00 00 00 00 00 00 00 00 00 00 00 00 00 00
00 00 00 00 00 00 00 00 00 00 00 00 00 00 00 00
00 00 00 00 00 00 00 00 00 00 00 00 00 00 00 00
00 00 00 00 00 00 00 00 00 00 00 00 00 00 ec 90

00 ff ff ff ff ff ff 00 4c 2d 30 e0 00 0e 00 01
01 22 01 04 00 46 27 ff 02 00 00 00 00 00 00 00
00 00 00 25 cf 00 71 4f 81 c0 81 00 81 80 95 00
a9 c0 b3 00 d1 c0 53 84 00 10 f5 70 28 80 f0 98
35 10 00 00 00 00 00 1c 00 00 00 fc 00 4f 64 79
73 73 65 79 20 47 38 30 53 44 00 00 00 ff 00 48
31 41 4b 35 30 30 30 30 30 00 00 00 00 00 00 00
00 00 00 00 00 00 00 00 00 00 00 00 00 00 03 c4

f0 10 70 00 00 00 00 00 00 00 00 00 00 00 00 00
00 00 00 00 00 00 00 00 00 00 00 00 00 00 00 00
00 00 00 00 00 00 00 00 00 00 00 00 00 00 00 00
00 00 00 00 00 00 00 00 00 00 00 00 00 00 00 00
00 00 00 00 00 00 00 00 00 00 00 00 00 00 00 00
00 00 00 00 00 00 00 00 00 00 00 00 00 00 00 00
00 00 00 00 00 00 00 00 00 00 00 00 00 00 00 00
00 00 00 00 00 00 00 00 00 00 00 00 00 00 00 90

10 01 01 01 03 73 0a d0 b0 20 e0 14 10 18 40 3a
00 00 00 00 00 00 1c cf 24 38 e1 c0 d1 40 d1 fc
00 00 00 00 00 00 00 00 00 00 00 00 00 00 00 00
00 00 00 00 00 00 00 00 00 00 00 00 00 00 00 00
00 00 00 00 00 00 00 00 00 00 00 00 00 00 00 00
00 00 00 00 00 00 00 00 00 00 00 00 00 00 00 00
00 00 00 00 00 00 00 00 00 00 00 00 00 00 00 00
00 00 00 00 00 00 00 00 00 00 00 00 00 00 00 71

70 10 79 00 00 03 01 28 6b 16 01 08 ff 0e bf 05
37 01 a7 01 6f 08 4c 00 02 80 04 00 4d 02 01 08
ff 09 ef 03 df 00 17 01 9f 05 68 00 02 80 04 00
00 00 00 00 00 00 00 00 00 00 00 00 00 00 00 00
00 00 00 00 00 00 00 00 00 00 00 00 00 00 00 00
00 00 00 00 00 00 00 00 00 00 00 00 00 00 00 00
00 00 00 00 00 00 00 00 00 00 00 00 00 00 00 00
00 00 00 00 00 00 00 00 00 00 00 00 00 00 ec 90

----------------

Block 0, Base EDID:
  EDID Structure Version & Revision: 1.4
  Vendor & Product Identification:
    Manufacturer: SAM
    Model: 57392
    Serial Number: ...
    Made in: week 1 of 2024
  Basic Display Parameters & Features:
    Analog display
    Signal Level Standard: 0.700 : 0.300 : 1.000 V p-p
    Blank level equals black level
    Maximum image size: 70 cm x 39 cm
    Gamma is defined in an extension block
    Monochrome or grayscale display
    First detailed timing includes the native pixel format and preferred refresh rate
  Color Characteristics:
    Red  : 0.0000, 0.0000
    Green: 0.0000, 0.0000
    Blue : 0.0000, 0.0000
    White: 0.0000, 0.0000
  Established Timings I & II:
    DMT 0x04:   640x480    59.940476 Hz   4:3     31.469 kHz     25.175000 MHz
    DMT 0x06:   640x480    75.000000 Hz   4:3     37.500 kHz     31.500000 MHz
    DMT 0x09:   800x600    60.316541 Hz   4:3     37.879 kHz     40.000000 MHz
    DMT 0x0a:   800x600    72.187572 Hz   4:3     48.077 kHz     50.000000 MHz
    DMT 0x0b:   800x600    75.000000 Hz   4:3     46.875 kHz     49.500000 MHz
    DMT 0x10:  1024x768    60.003840 Hz   4:3     48.363 kHz     65.000000 MHz
    DMT 0x11:  1024x768    70.069359 Hz   4:3     56.476 kHz     75.000000 MHz
    DMT 0x12:  1024x768    75.028582 Hz   4:3     60.023 kHz     78.750000 MHz
    DMT 0x24:  1280x1024   75.024675 Hz   5:4     79.976 kHz    135.000000 MHz
  Standard Timings:
    DMT 0x15:  1152x864    75.000000 Hz   4:3     67.500 kHz    108.000000 MHz
    DMT 0x55:  1280x720    60.000000 Hz  16:9     45.000 kHz     74.250000 MHz
    DMT 0x1c:  1280x800    59.810326 Hz  16:10    49.702 kHz     83.500000 MHz
    DMT 0x23:  1280x1024   60.019740 Hz   5:4     63.981 kHz    108.000000 MHz
    DMT 0x2f:  1440x900    59.887445 Hz  16:10    55.935 kHz    106.500000 MHz
    DMT 0x53:  1600x900    60.000000 Hz  16:9     60.000 kHz    108.000000 MHz (RB)
    DMT 0x3a:  1680x1050   59.954250 Hz  16:10    65.290 kHz    146.250000 MHz
    DMT 0x52:  1920x1080   60.000000 Hz  16:9     67.500 kHz    148.500000 MHz
  Detailed Timing Descriptors:
    DTD 1:  3840x2160   29.979999 Hz  16:9     65.956 kHz    338.750000 MHz
                 Hfront  240 Hsync 408 Hback  648 Hpol N
                 Vfront    3 Vsync   5 Vback   32 Vpol P
    Display Product Name: 'Odyssey G80SD'
    Display Product Serial Number: ...
    Empty Descriptor
  Extension blocks: 3
Checksum: 0xc4

----------------

Block 1, Block Map Extension Block:
  Block   2: Video Timing Extension Block
  Block   3: DisplayID Extension Block
Checksum: 0x90

----------------

Block 2, Video Timing Extension Block:
  Version: 1
  Detailed Timing Descriptors:
    DTD:   720x480    59.709821 Hz   3:2     29.855 kHz     26.750000 MHz
               Hfront   24 Hsync  64 Hback   88 Hpol N
               Vfront    3 Vsync  10 Vback    7 Vpol P
  Coordinated Video Timings:
    CVT:  2560x1440   49.963890 Hz  16:9     74.146 kHz    256.250000 MHz
    CVT:  2560x1440   59.960627 Hz  16:9     89.521 kHz    312.250000 MHz (preferred vertical rate)
  Standard Timings:
    DMT 0x54:  2048x1152   60.000000 Hz  16:9     72.000 kHz    162.000000 MHz (RB)
    DMT 0x49:  1920x1440   60.000000 Hz   4:3     90.000 kHz    234.000000 MHz
    GTF     :  1920x1080  119.999987 Hz  16:9    138.840 kHz    368.759000 MHz
Checksum: 0x71  Unused space in Extension Block: 95 bytes

----------------

Block 3, DisplayID Extension Block:
  Version: 1.0
  Extension Count: 0
  Display Product Type: Extension Section
  Video Timing Modes Type 1 - Detailed Timings Data Block:
    DTD:  3840x2160   59.981769 Hz   0:0    134.179 kHz    712.760000 MHz (aspect undefined, no 3D stereo)
               Hfront  312 Hsync 424 Hback  736 Hpol N
               Vfront    3 Vsync   5 Vback   69 Vpol P
    DTD:  2560x1440  119.955157 Hz   0:0    185.331 kHz    661.260000 MHz (aspect undefined, no 3D stereo)
               Hfront  224 Hsync 280 Hback  504 Hpol N
               Vfront    3 Vsync   5 Vback   97 Vpol P
  Checksum: 0xec
Checksum: 0x90

----------------

Block 4, Unknown EDID Extension Block 0x00:
  00 ff ff ff ff ff ff 00 4c 2d 30 e0 00 0e 00 01 '........L-0.....'
  01 22 01 04 00 46 27 ff 02 00 00 00 00 00 00 00 '."...F'.........'
  00 00 00 25 cf 00 71 4f 81 c0 81 00 81 80 95 00 '...%..qO........'
  a9 c0 b3 00 d1 c0 53 84 00 10 f5 70 28 80 f0 98 '......S....p(...'
  35 10 00 00 00 00 00 1c 00 00 00 fc 00 4f 64 79 '5............Ody'
  73 73 65 79 20 47 38 30 53 44 00 00 00 ff 00 48 'ssey G80SD.....H'
  31 41 4b 35 30 30 30 30 30 00 00 00 00 00 00 00 '1AK500000.......'
  00 00 00 00 00 00 00 00 00 00 00 00 00 00 03 c4 '................'
Checksum: 0xc4

----------------

Block 5, Block Map Extension Block:
  Block 129: Video Timing Extension Block
  Block 130: DisplayID Extension Block
Checksum: 0x90

----------------

Block 6, Video Timing Extension Block:
  Version: 1
  Detailed Timing Descriptors:
    DTD:   720x480    59.709821 Hz   3:2     29.855 kHz     26.750000 MHz
               Hfront   24 Hsync  64 Hback   88 Hpol N
               Vfront    3 Vsync  10 Vback    7 Vpol P
  Coordinated Video Timings:
    CVT:  2560x1440   49.963890 Hz  16:9     74.146 kHz    256.250000 MHz
    CVT:  2560x1440   59.960627 Hz  16:9     89.521 kHz    312.250000 MHz (preferred vertical rate)
  Standard Timings:
    DMT 0x54:  2048x1152   60.000000 Hz  16:9     72.000 kHz    162.000000 MHz (RB)
    DMT 0x49:  1920x1440   60.000000 Hz   4:3     90.000 kHz    234.000000 MHz
    GTF     :  1920x1080  119.999987 Hz  16:9    138.840 kHz    368.759000 MHz
Checksum: 0x71  Unused space in Extension Block: 95 bytes

----------------

Block 7, DisplayID Extension Block:
  Version: 1.0
  Extension Count: 0
  Video Timing Modes Type 1 - Detailed Timings Data Block:
    DTD:  3840x2160   59.981769 Hz   0:0    134.179 kHz    712.760000 MHz (aspect undefined, no 3D stereo)
               Hfront  312 Hsync 424 Hback  736 Hpol N
               Vfront    3 Vsync   5 Vback   69 Vpol P
    DTD:  2560x1440  119.955157 Hz   0:0    185.331 kHz    661.260000 MHz (aspect undefined, no 3D stereo)
               Hfront  224 Hsync 280 Hback  504 Hpol N
               Vfront    3 Vsync   5 Vback   97 Vpol P
  Checksum: 0xec
Checksum: 0x90

----------------

Failures:

Block 0, Base EDID:
  Detailed Timing Descriptor #1: Mismatch of image size vs display size: image size is not set, but display size is.
  Display Product Serial Number: ...
  Empty Descriptor: Use Dummy Descriptor instead of all zeroes.
Block 1, Block Map Extension Block:
  Block 4 tag mismatch: expected 0x00, but got 0x00.
  Block 5 tag mismatch: expected 0xf0, but got 0x00.
  Block 6 tag mismatch: expected 0x10, but got 0x00.
  Block 7 tag mismatch: expected 0x70, but got 0x00.
Block 2, Video Timing Extension Block:
  Detailed Timing Descriptor #1: Mismatch of image size vs display size: image size is not set, but display size is.
Block 3, DisplayID Extension Block:
  DisplayID Base Block has no product type.
  Expected 0 DisplayID Extension Block, but got 1.
Block 4, Base EDID:
  Unknown Extension Block.
Block 5, Block Map Extension Block:
  Invalid block number 129.
  Must be used in block 1 and 128.
Block 6, Video Timing Extension Block:
  Detailed Timing Descriptor #1: Mismatch of image size vs display size: image size is not set, but display size is.
EDID:
  Base EDID: EDID specified 3 extension block(s), but found 7 extension block(s).
  DisplayID: Missing DisplayID Product Identification Data Block.
  DisplayID: DisplayID expects at least one preferred timing.

EDID conformity: FAIL
