
EDID (hex):
00ffffffffffff0030ae434000000000
000f0103801e1778eaaf009958538c2a
25505421080081800101010101010101
010101010101302a7820511a10403070
130031e41000001828237820511a1040
3070130031e4100000180000000f0090
4332904328140600320c0000000000fe
004c503135304530352d41320a20009b

Extracted contents:
header:          00 ff ff ff ff ff ff 00
serial number:   30 ae 43 40 00 00 00 00 00 0f
version:         01 03
basic params:    80 1e 17 78 ea
chroma info:     af 00 99 58 53 8c 2a 25 50 54
established:     21 08 00
standard:        81 80 01 01 01 01 01 01 01 01 01 01 01 01 01 01
descriptor 1:    30 2a 78 20 51 1a 10 40 30 70 13 00 31 e4 10 00 00 18
descriptor 2:    28 23 78 20 51 1a 10 40 30 70 13 00 31 e4 10 00 00 18
descriptor 3:    00 00 00 0f 00 90 43 32 90 43 28 14 06 00 32 0c 00 00
descriptor 4:    00 00 00 fe 00 4c 50 31 35 30 45 30 35 2d 41 32 0a 20
extensions:      00
checksum:        9b

EDID version: 1.3
Manufacturer: LEN Model 4043 Serial Number --
Digital display
Maximum image size: 30 cm x 23 cm
Gamma: 2.20
DPMS levels: Standby Suspend Off
RGB color display
First detailed timing is preferred timing
Display x,y Chromaticity:
  Red:   0.5996, 0.3457
  Green: 0.3271, 0.5498
  Blue:  0.1640, 0.1445
  White: 0.3125, 0.3281
Established timings supported:
  640x480@60Hz 4:3 HorFreq: 31469 Hz Clock: 25.175 MHz
  800x600@60Hz 4:3 HorFreq: 37900 Hz Clock: 40.000 MHz
  1024x768@60Hz 4:3 HorFreq: 48400 Hz Clock: 65.000 MHz
Standard timings supported:
  1280x1024@60Hz 5:4 HorFreq: 64000 Hz Clock: 108.000 MHz
Detailed mode: Clock 108.000 MHz, 305 mm x 228 mm
               1400 1448 1560 1688 hborder 0
               1050 1051 1054 1066 vborder 0
               -hsync -vsync 
               VertFreq: 60 Hz, HorFreq: 63981 Hz
Detailed mode: Clock 90.000 MHz, 305 mm x 228 mm
               1400 1448 1560 1688 hborder 0
               1050 1051 1054 1066 vborder 0
               -hsync -vsync 
               VertFreq: 50 Hz, HorFreq: 53317 Hz
Manufacturer-specified data, tag 15
ASCII string: LP150E05-A2
Checksum: 0x9b (valid)
EDID block does NOT conform to EDID 1.3!
	Missing name descriptor
	Missing monitor ranges
EDID block does not conform at all!
	Bad year of manufacture


