
EDID (hex):
00ffffffffffff000e145a1b00000000
07110103801a10780aeecd9453508a26
21505400000001010101010101010101
010101010101bc1b00a050200d301520
360005a3100000190000000f00202020
202020202050a0023200000000fe0043
50540a202020202020202020000000fe
00434c41413132315741303141200011

Extracted contents:
header:          00 ff ff ff ff ff ff 00
serial number:   0e 14 5a 1b 00 00 00 00 07 11
version:         01 03
basic params:    80 1a 10 78 0a
chroma info:     ee cd 94 53 50 8a 26 21 50 54
established:     00 00 00
standard:        01 01 01 01 01 01 01 01 01 01 01 01 01 01 01 01
descriptor 1:    bc 1b 00 a0 50 20 0d 30 15 20 36 00 05 a3 10 00 00 19
descriptor 2:    00 00 00 0f 00 20 20 20 20 20 20 20 20 50 a0 02 32 00
descriptor 3:    00 00 00 fe 00 43 50 54 0a 20 20 20 20 20 20 20 20 20
descriptor 4:    00 00 00 fe 00 43 4c 41 41 31 32 31 57 41 30 31 41 20
extensions:      00
checksum:        11

EDID version: 1.3
Manufacturer: CPT Model 1b5a Serial Number --
Made in week 7 of 2007
Digital display
Maximum image size: 26 cm x 16 cm
Gamma: 2.20
RGB color display
First detailed timing is preferred timing
Display x,y Chromaticity:
  Red:   0.5810, 0.3261
  Green: 0.3154, 0.5410
  Blue:  0.1513, 0.1289
  White: 0.3154, 0.3291
Established timings supported:
Standard timings supported:
Detailed mode: Clock 71.000 MHz, 261 mm x 163 mm
               1280 1301 1333 1440 hborder 0
                800  803  809  813 vborder 0
               -hsync -vsync 
               VertFreq: 60 Hz, HorFreq: 49305 Hz
Manufacturer-specified data, tag 15
ASCII string: CPT
ASCII string: CLAA121WA01A 
Checksum: 0x11 (valid)
EDID block does NOT conform to EDID 1.3!
	Missing name descriptor
	Missing monitor ranges
