
EDID (hex):
00ffffffffffff0009e52f0800000000
011c0104a522137802c9a0955d599429
24505400000001010101010101010101
0101010101013a3880de703828403020
360058c11000001a0000000000000000
0000000000000000001a000000fe0042
4f452043510a202020202020000000fe
004e5631353646484d2d5430330a0006

Extracted contents:
header:          00 ff ff ff ff ff ff 00
serial number:   09 e5 2f 08 00 00 00 00 01 1c
version:         01 04
basic params:    a5 22 13 78 02
chroma info:     c9 a0 95 5d 59 94 29 24 50 54
established:     00 00 00
standard:        01 01 01 01 01 01 01 01 01 01 01 01 01 01 01 01
descriptor 1:    3a 38 80 de 70 38 28 40 30 20 36 00 58 c1 10 00 00 1a
descriptor 2:    00 00 00 00 00 00 00 00 00 00 00 00 00 00 00 00 00 1a
descriptor 3:    00 00 00 fe 00 42 4f 45 20 43 51 0a 20 20 20 20 20 20
descriptor 4:    00 00 00 fe 00 4e 56 31 35 36 46 48 4d 2d 54 30 33 0a
extensions:      00
checksum:        06

EDID version: 1.4
Manufacturer: BOE Model 82f Serial Number --
Made in week 1 of 2018
Digital display
8 bits per primary color channel
DisplayPort interface
Maximum image size: 34 cm x 19 cm
Gamma: 2.20
Supported color formats: RGB 4:4:4
First detailed timing includes the native pixel format and preferred refresh rate
Display x,y Chromaticity:
  Red:   0.5849, 0.3632
  Green: 0.3496, 0.5791
  Blue:  0.1621, 0.1425
  White: 0.3125, 0.3281
Established timings supported:
Standard timings supported:
Detailed mode: Clock 143.940 MHz, 344 mm x 193 mm
               1920 1968 2000 2142 hborder 0
               1080 1083 1089 1120 vborder 0
               +hsync -vsync 
               VertFreq: 59 Hz, HorFreq: 67198 Hz
Manufacturer-specified data, tag 0
ASCII string: BOE CQ
ASCII string: NV156FHM-T03
Checksum: 0x6 (valid)
EDID block does NOT conform to EDID 1.4!
	Missing name descriptor
	Missing monitor ranges
