
EDID (hex):
00ffffffffffff000daf090200000000
1f12010390150c780ab985955c599527
1b505400000001010101010101010101
0101010101011c13000241582420462f
4600c37100000018000000fe004e3038
394c362d4c30320a2020000000fe0043
4d4f0a202020202020202020000000fe
004e3038394c362d4c30320a20200080

Extracted contents:
header:          00 ff ff ff ff ff ff 00
serial number:   0d af 09 02 00 00 00 00 1f 12
version:         01 03
basic params:    90 15 0c 78 0a
chroma info:     b9 85 95 5c 59 95 27 1b 50 54
established:     00 00 00
standard:        01 01 01 01 01 01 01 01 01 01 01 01 01 01 01 01
descriptor 1:    1c 13 00 02 41 58 24 20 46 2f 46 00 c3 71 00 00 00 18
descriptor 2:    00 00 00 fe 00 4e 30 38 39 4c 36 2d 4c 30 32 0a 20 20
descriptor 3:    00 00 00 fe 00 43 4d 4f 0a 20 20 20 20 20 20 20 20 20
descriptor 4:    00 00 00 fe 00 4e 30 38 39 4c 36 2d 4c 30 32 0a 20 20
extensions:      00
checksum:        80

EDID version: 1.3
Manufacturer: CMO Model 209 Serial Number --
Made in week 31 of 2008
Digital display
Maximum image size: 21 cm x 12 cm
Gamma: 2.20
RGB color display
First detailed timing is preferred timing
Display x,y Chromaticity:
  Red:   0.5839, 0.3623
  Green: 0.3496, 0.5830
  Blue:  0.1542, 0.1054
  White: 0.3134, 0.3291
Established timings supported:
Standard timings supported:
Detailed mode: Clock 48.920 MHz, 195 mm x 113 mm
               1024 1094 1141 1282 hborder 0
                600  604  610  636 vborder 0
               -hsync -vsync 
               VertFreq: 59 Hz, HorFreq: 38159 Hz
ASCII string: N089L6-L02
ASCII string: CMO
ASCII string: N089L6-L02
Checksum: 0x80 (valid)
EDID block does NOT conform to EDID 1.3!
	Digital display field contains garbage: 10
	Missing name descriptor
	Missing monitor ranges
