edid-decode (hex):

00 ff ff ff ff ff ff 00 0d af 09 02 00 00 00 00
1f 12 01 03 90 15 0c 78 0a b9 85 95 5c 59 95 27
1b 50 54 00 00 00 01 01 01 01 01 01 01 01 01 01
01 01 01 01 01 01 2c 15 00 6a 41 58 34 20 6d 48
7d 00 c3 71 00 00 00 18 00 00 00 fe 00 4e 30 38
39 4c 36 2d 4c 30 32 0a 20 20 00 00 00 fe 00 43
4d 4f 0a 20 20 20 20 20 20 20 20 20 00 00 00 fe
00 4e 30 38 39 4c 36 2d 4c 30 32 0a 20 20 00 7f

----------------

Block 0, Base EDID:
  EDID Structure Version & Revision: 1.3
  Vendor & Product Identification:
    Manufacturer: CMO
    Model: 521
    Made in: week 31 of 2008
  Basic Display Parameters & Features:
    Digital display
    Maximum image size: 21 cm x 12 cm
    Gamma: 2.20
    RGB color display
    First detailed timing is the preferred timing
  Color Characteristics:
    Red  : 0.5839, 0.3623
    Green: 0.3496, 0.5830
    Blue : 0.1542, 0.1054
    White: 0.3134, 0.3291
  Established Timings I & II: none
  Standard Timings: none
  Detailed Timing Descriptors:
    DTD 1:  1024x600    59.977514 Hz 128:75    39.105 kHz     54.200000 MHz (195 mm x 113 mm)
                 Hfront  109 Hsync  72 Hback  181 Hpol N
                 Vfront    7 Vsync  13 Vback   32 Vpol N
    Alphanumeric Data String: 'N089L6-L02'
    Alphanumeric Data String: 'CMO'
    Alphanumeric Data String: 'N089L6-L02'
Checksum: 0x7f

----------------

Failures:

Block 0, Base EDID:
  Basic Display Parameters & Features: Digital Video Interface Standard set to reserved value 0x10.
  Missing Display Product Name.
  Missing Display Range Limits Descriptor.

EDID conformity: FAIL
