
EDID (hex):
00ffffffffffff000daf091400000000
150f0103801e13780a04859757518926
1f505400000001010101010101010101
010101010101bc1b00a0502017303020
36002fbe10000018000000fe004e3134
3149312d4c30330a2020000000fe0043
4d4f0a202020202020202020000000fe
004e31343149312d4c30330a202000b4

Extracted contents:
header:          00 ff ff ff ff ff ff 00
serial number:   0d af 09 14 00 00 00 00 15 0f
version:         01 03
basic params:    80 1e 13 78 0a
chroma info:     04 85 97 57 51 89 26 1f 50 54
established:     00 00 00
standard:        01 01 01 01 01 01 01 01 01 01 01 01 01 01 01 01
descriptor 1:    bc 1b 00 a0 50 20 17 30 30 20 36 00 2f be 10 00 00 18
descriptor 2:    00 00 00 fe 00 4e 31 34 31 49 31 2d 4c 30 33 0a 20 20
descriptor 3:    00 00 00 fe 00 43 4d 4f 0a 20 20 20 20 20 20 20 20 20
descriptor 4:    00 00 00 fe 00 4e 31 34 31 49 31 2d 4c 30 33 0a 20 20
extensions:      00
checksum:        b4

EDID version: 1.3
Manufacturer: CMO Model 1409 Serial Number --
Digital display
Maximum image size: 30 cm x 19 cm
Gamma: 2.20
RGB color display
First detailed timing is preferred timing
Display x,y Chromaticity:
  Red:   0.5898, 0.3398
  Green: 0.3173, 0.5351
  Blue:  0.1503, 0.1210
  White: 0.3134, 0.3291
Established timings supported:
Standard timings supported:
Detailed mode: Clock 71.000 MHz, 303 mm x 190 mm
               1280 1328 1360 1440 hborder 0
                800  803  809  823 vborder 0
               -hsync -vsync 
               VertFreq: 59 Hz, HorFreq: 49305 Hz
ASCII string: N141I1-L03
ASCII string: CMO
ASCII string: N141I1-L03
Checksum: 0xb4 (valid)
EDID block does NOT conform to EDID 1.3!
	Missing name descriptor
	Missing monitor ranges
EDID block does not conform at all!
	Bad year of manufacture
