
EDID (hex):
00ffffffffffff0030e4cf0200000000
00140104902213780ac1259d5f5b9b27
19505400000001010101010101010101
0101010101013e1c56a0500016303020
350058c21000001ac01256a050001630
3020350058c21000001a000000fe0043
46394658803135365748320a00000000
00004131960100000001010a20200075

Extracted contents:
header:          00 ff ff ff ff ff ff 00
serial number:   30 e4 cf 02 00 00 00 00 00 14
version:         01 04
basic params:    90 22 13 78 0a
chroma info:     c1 25 9d 5f 5b 9b 27 19 50 54
established:     00 00 00
standard:        01 01 01 01 01 01 01 01 01 01 01 01 01 01 01 01
descriptor 1:    3e 1c 56 a0 50 00 16 30 30 20 35 00 58 c2 10 00 00 1a
descriptor 2:    c0 12 56 a0 50 00 16 30 30 20 35 00 58 c2 10 00 00 1a
descriptor 3:    00 00 00 fe 00 43 46 39 46 58 80 31 35 36 57 48 32 0a
descriptor 4:    00 00 00 00 00 00 41 31 96 01 00 00 00 01 01 0a 20 20
extensions:      00
checksum:        75

EDID version: 1.4
Manufacturer: LGD Model 2cf Serial Number --
Made in year 2010
Digital display
6 bits per primary color channel
Digital interface is not defined
Maximum image size: 34 cm x 19 cm
Gamma: 2.20
Supported color formats: RGB 4:4:4, YCrCb 4:4:4
First detailed timing includes the native pixel format and preferred refresh rate
Display x,y Chromaticity:
  Red:   0.6162, 0.3710
  Green: 0.3554, 0.6064
  Blue:  0.1523, 0.0996
  White: 0.3134, 0.3291
Established timings supported:
Standard timings supported:
Detailed mode: Clock 72.300 MHz, 344 mm x 194 mm
               1366 1414 1446 1526 hborder 0
                768  771  776  790 vborder 0
               +hsync -vsync 
               VertFreq: 59 Hz, HorFreq: 47378 Hz
Detailed mode: Clock 48.000 MHz, 344 mm x 194 mm
               1366 1414 1446 1526 hborder 0
                768  771  776  790 vborder 0
               +hsync -vsync 
               VertFreq: 39 Hz, HorFreq: 31454 Hz
ASCII string: CF9FX
Manufacturer-specified data, tag 0
Checksum: 0x75 (valid)
EDID block does NOT conform to EDID 1.4!
	Missing name descriptor
	Missing monitor ranges
	Detailed block string not properly terminated
