
EDID (hex):
00ffffffffffff003ad43a5600000000
1c0e01030e261e78e82c9da6584a9a26
215256bfef808180818a818c714f454a
010101010101bc34009851002a403070
13007c2c11000006d60980a0205e6310
106052087c2c11000002000000fd0032
4b1e500e000a202020202020000000fc
004e6f766174656b2020353633410075

Extracted contents:
header:          00 ff ff ff ff ff ff 00
serial number:   3a d4 3a 56 00 00 00 00 1c 0e
version:         01 03
basic params:    0e 26 1e 78 e8
chroma info:     2c 9d a6 58 4a 9a 26 21 52 56
established:     bf ef 80
standard:        81 80 81 8a 81 8c 71 4f 45 4a 01 01 01 01 01 01
descriptor 1:    bc 34 00 98 51 00 2a 40 30 70 13 00 7c 2c 11 00 00 06
descriptor 2:    d6 09 80 a0 20 5e 63 10 10 60 52 08 7c 2c 11 00 00 02
descriptor 3:    00 00 00 fd 00 32 4b 1e 50 0e 00 0a 20 20 20 20 20 20
descriptor 4:    00 00 00 fc 00 4e 6f 76 61 74 65 6b 20 20 35 36 33 41
extensions:      00
checksum:        75

EDID version: 1.3
Manufacturer: NVT Model 563a Serial Number --
Analog display, Input voltage level: 0.7/0.3 V
Sync: Separate Composite SyncOnGreen 
Maximum image size: 38 cm x 30 cm
Gamma: 2.20
DPMS levels: Standby Suspend Off
RGB color display
Display x,y Chromaticity:
  Red:   0.6484, 0.3457
  Green: 0.2919, 0.6015
  Blue:  0.1503, 0.1298
  White: 0.3232, 0.3369
Established timings supported:
  720x400@70Hz 9:5 HorFreq: 31469 Hz Clock: 28.320 MHz
  640x480@60Hz 4:3 HorFreq: 31469 Hz Clock: 25.175 MHz
  640x480@67Hz 4:3 HorFreq: 35000 Hz Clock: 30.240 MHz
  640x480@72Hz 4:3 HorFreq: 37900 Hz Clock: 31.500 MHz
  640x480@75Hz 4:3 HorFreq: 37500 Hz Clock: 31.500 MHz
  800x600@56Hz 4:3 HorFreq: 35200 Hz Clock: 36.000 MHz
  800x600@60Hz 4:3 HorFreq: 37900 Hz Clock: 40.000 MHz
  800x600@72Hz 4:3 HorFreq: 48100 Hz Clock: 50.000 MHz
  800x600@75Hz 4:3 HorFreq: 46900 Hz Clock: 49.500 MHz
  832x624@75Hz 4:3 HorFreq: 49726 Hz Clock: 57.284 MHz
  1024x768@60Hz 4:3 HorFreq: 48400 Hz Clock: 65.000 MHz
  1024x768@70Hz 4:3 HorFreq: 56500 Hz Clock: 75.000 MHz
  1024x768@75Hz 4:3 HorFreq: 60000 Hz Clock: 78.750 MHz
  1280x1024@75Hz 5:4 HorFreq: 80000 Hz Clock: 135.000 MHz
  1152x870@75Hz 192:145 HorFreq: 67500 Hz Clock: 108.000 MHz
Standard timings supported:
  1280x1024@60Hz 5:4 HorFreq: 64000 Hz Clock: 108.000 MHz
  1280x1024@70Hz 5:4
  1280x1024@72Hz 5:4
  1152x864@75Hz 4:3 HorFreq: 67500 Hz Clock: 108.000 MHz
  800x600@70Hz 4:3
Detailed mode: Clock 135.000 MHz, 380 mm x 300 mm
               1280 1328 1440 1688 hborder 0
               1024 1025 1028 1066 vborder 0
               +hsync +vsync analog composite 
               VertFreq: 75 Hz, HorFreq: 79976 Hz
Detailed mode: Clock 25.180 MHz, 380 mm x 300 mm
                640  656  752  800 hborder 0
                350  387  389  449 vborder 0
               +hsync -vsync analog composite 
               VertFreq: 70 Hz, HorFreq: 31475 Hz
Monitor ranges (GTF): 50-75Hz V, 30-80kHz H, max dotclock 140MHz
Checksum: 0x75 (valid)
EDID block does NOT conform to EDID 1.3!
	Name descriptor not terminated with a newline
	Missing preferred timing
EDID block does not conform at all!
	Bad year of manufacture
