
EDID (hex):
00ffffffffffff0054e4021130062019
191d0103801a0f78aa2d8fa656539b25
0c4f5321080071c0818081c08bc09500
0140b3010101023a80d270381e405a3c
aa0000901000001e000000fc00417274
6973742031322070726f000000100034
4743483030303036330a2020000000fd
003c3c1f460f000a2020202020200026

Extracted contents:
header:          00 ff ff ff ff ff ff 00
serial number:   54 e4 02 11 30 06 20 19 19 1d
version:         01 03
basic params:    80 1a 0f 78 aa
chroma info:     2d 8f a6 56 53 9b 25 0c 4f 53
established:     21 08 00
standard:        71 c0 81 80 81 c0 8b c0 95 00 01 40 b3 01 01 01
descriptor 1:    02 3a 80 d2 70 38 1e 40 5a 3c aa 00 00 90 10 00 00 1e
descriptor 2:    00 00 00 fc 00 41 72 74 69 73 74 20 31 32 20 70 72 6f
descriptor 3:    00 00 00 10 00 34 47 43 48 30 30 30 30 36 33 0a 20 20
descriptor 4:    00 00 00 fd 00 3c 3c 1f 46 0f 00 0a 20 20 20 20 20 20
extensions:      00
checksum:        26

EDID version: 1.3
Manufacturer: UGD Model 1102 Serial Number --
Made in week 25 of 2019
Digital display
Maximum image size: 26 cm x 15 cm
Gamma: 2.20
DPMS levels: Standby Off
RGB color display
First detailed timing is preferred timing
Display x,y Chromaticity:
  Red:   0.6484, 0.3378
  Green: 0.3271, 0.6064
  Blue:  0.1464, 0.0468
  White: 0.3115, 0.3271
Established timings supported:
  640x480@60Hz 4:3 HorFreq: 31469 Hz Clock: 25.175 MHz
  800x600@60Hz 4:3 HorFreq: 37900 Hz Clock: 40.000 MHz
  1024x768@60Hz 4:3 HorFreq: 48400 Hz Clock: 65.000 MHz
Standard timings supported:
  1152x648@60Hz 16:9
  1280x1024@60Hz 5:4 HorFreq: 64000 Hz Clock: 108.000 MHz
  1280x720@60Hz 16:9
  1360x765@60Hz 16:9
  1440x900@60Hz 16:10 HorFreq: 55500 Hz Clock: 88.750 MHz
  256x192@60Hz 4:3
  1680x1050@61Hz 16:10
Detailed mode: Clock 148.500 MHz, 256 mm x 144 mm
               1920 2010 2070 2130 hborder 0
               1080 1090 1100 1110 vborder 0
               +hsync +vsync 
               VertFreq: 62 Hz, HorFreq: 69718 Hz
Dummy block
Monitor ranges (GTF): 60-60Hz V, 31-70kHz H, max dotclock 150MHz
Checksum: 0x26 (valid)
EDID block does NOT conform to EDID 1.3!
	Name descriptor not terminated with a newline
One or more of the timings is out of range of the Monitor Ranges:
  Vertical Freq: 60 - 62 Hz
  Horizontal Freq: 31469 - 69718 Hz
  Maximum Clock: 148.500 MHz
EDID block does not conform at all!
	Dummy block filled with garbage
