edid-decode (hex):

00 ff ff ff ff ff ff 00 06 af 95 58 00 00 00 00
24 1e 01 04 b5 22 13 78 03 ee 95 a3 54 4c 99 26
0f 50 54 00 00 00 01 01 01 01 01 01 01 01 01 01
01 01 01 01 01 01 34 9e 80 a0 70 38 64 40 10 10
3e 00 58 c1 10 00 00 18 34 9e 80 a0 70 38 70 48
30 20 a5 00 58 c1 10 00 00 18 00 00 00 fd 00 3c
a5 c3 c3 29 01 0a 20 20 20 20 20 20 00 00 00 fe
00 42 31 35 36 48 41 4e 31 32 2e 48 20 0a 00 fd

00 ff ff ff ff ff ff 00 06 af 95 58 00 00 00 00
24 1e 01 04 b5 22 13 78 03 ee 95 a3 54 4c 99 26
0f 50 54 00 00 00 01 01 01 01 01 01 01 01 01 01
01 01 01 01 01 01 34 9e 80 a0 70 38 64 40 10 10
3e 00 58 c1 10 00 00 18 34 9e 80 a0 70 38 70 48
30 20 a5 00 58 c1 10 00 00 18 00 00 00 fd 00 3c
a5 c3 c3 29 01 0a 20 20 20 20 20 20 00 00 00 fe
00 42 31 35 36 48 41 4e 31 32 2e 48 20 0a 00 fd

----------------

Block 0, Base EDID:
  EDID Structure Version & Revision: 1.4
  Vendor & Product Identification:
    Manufacturer: AUO
    Model: 22677
    Made in: week 36 of 2020
  Basic Display Parameters & Features:
    Digital display
    Bits per primary color channel: 10
    DisplayPort interface
    Maximum image size: 34 cm x 19 cm
    Gamma: 2.20
    Supported color formats: RGB 4:4:4
    First detailed timing includes the native pixel format and preferred refresh rate
    Display is continuous frequency
  Color Characteristics:
    Red  : 0.6396, 0.3300
    Green: 0.2998, 0.5996
    Blue : 0.1503, 0.0595
    White: 0.3134, 0.3291
  Established Timings I & II: none
  Standard Timings: none
  Detailed Timing Descriptors:
    DTD 1:  1920x1080  165.009778 Hz  16:9    194.712 kHz    405.000000 MHz (344 mm x 193 mm)
                 Hfront   16 Hsync  16 Hback  128 Hpol N
                 Vfront    3 Vsync  14 Vback   83 Vpol N
    DTD 2:  1920x1080   60.096154 Hz  16:9    194.712 kHz    405.000000 MHz (344 mm x 193 mm)
                 Hfront   48 Hsync  32 Hback   80 Hpol N
                 Vfront   10 Vsync   5 Vback 2145 Vpol N
    Display Range Limits:
      Monitor ranges (Bare Limits): 60-165 Hz V, 195-195 kHz H, max dotclock 410 MHz
    Alphanumeric Data String: 'B156HAN12.H '
Checksum: 0xfd

----------------

Block 1, Unknown EDID Extension Block 0x00:
  00 ff ff ff ff ff ff 00 06 af 95 58 00 00 00 00 '...........X....'
  24 1e 01 04 b5 22 13 78 03 ee 95 a3 54 4c 99 26 '$....".x....TL.&'
  0f 50 54 00 00 00 01 01 01 01 01 01 01 01 01 01 '.PT.............'
  01 01 01 01 01 01 34 9e 80 a0 70 38 64 40 10 10 '......4...p8d@..'
  3e 00 58 c1 10 00 00 18 34 9e 80 a0 70 38 70 48 '>.X.....4...p8pH'
  30 20 a5 00 58 c1 10 00 00 18 00 00 00 fd 00 3c '0 ..X..........<'
  a5 c3 c3 29 01 0a 20 20 20 20 20 20 00 00 00 fe '...)..      ....'
  00 42 31 35 36 48 41 4e 31 32 2e 48 20 0a 00 fd '.B156HAN12.H ...'
Checksum: 0xfd

----------------

Warnings:

Block 0, Base EDID:
  Missing Display Product Name.

Failures:

Block 0, Base EDID:
  Alphanumeric Data String: One or more trailing spaces.
Block 1, Base EDID:
  Unknown Extension Block.
EDID:
  Base EDID: EDID specified 0 extension block(s), but found 1 extension block(s).

EDID conformity: FAIL
