
EDID (hex):
00ffffffffffff0030e4020300000000
00140104901d1078022f159759558c27
23505400000001010101010101010101
010101010101121b5664500012302020
350025a51000001a0c12566450001230
2020350025a51000001a000000fe0034
48444443803133335748310a00000000
00004101a20000000001010a2020006f

Extracted contents:
header:          00 ff ff ff ff ff ff 00
serial number:   30 e4 02 03 00 00 00 00 00 14
version:         01 04
basic params:    90 1d 10 78 02
chroma info:     2f 15 97 59 55 8c 27 23 50 54
established:     00 00 00
standard:        01 01 01 01 01 01 01 01 01 01 01 01 01 01 01 01
descriptor 1:    12 1b 56 64 50 00 12 30 20 20 35 00 25 a5 10 00 00 1a
descriptor 2:    0c 12 56 64 50 00 12 30 20 20 35 00 25 a5 10 00 00 1a
descriptor 3:    00 00 00 fe 00 34 48 44 44 43 80 31 33 33 57 48 31 0a
descriptor 4:    00 00 00 00 00 00 41 01 a2 00 00 00 00 01 01 0a 20 20
extensions:      00
checksum:        6f

EDID version: 1.4
Manufacturer: LGD Model 302 Serial Number --
Made in year 2010
Digital display
6 bits per primary color channel
Digital interface is not defined
Maximum image size: 29 cm x 16 cm
Gamma: 2.20
Supported color formats: RGB 4:4:4
First detailed timing includes the native pixel format and preferred refresh rate
Display x,y Chromaticity:
  Red:   0.5898, 0.3496
  Green: 0.3349, 0.5498
  Blue:  0.1523, 0.1376
  White: 0.3134, 0.3291
Established timings supported:
Standard timings supported:
Detailed mode: Clock 69.300 MHz, 293 mm x 165 mm
               1366 1398 1430 1466 hborder 0
                768  771  776  786 vborder 0
               +hsync -vsync 
               VertFreq: 60 Hz, HorFreq: 47271 Hz
Detailed mode: Clock 46.200 MHz, 293 mm x 165 mm
               1366 1398 1430 1466 hborder 0
                768  771  776  786 vborder 0
               +hsync -vsync 
               VertFreq: 40 Hz, HorFreq: 31514 Hz
ASCII string: 4HDDC
Manufacturer-specified data, tag 0
Checksum: 0x6f (valid)
EDID block does NOT conform to EDID 1.4!
	Missing name descriptor
	Missing monitor ranges
	Detailed block string not properly terminated
