edid-decode (hex):

00 ff ff ff ff ff ff 00 59 3a 23 00 01 01 01 01
26 11 01 03 08 6e 40 78 0a 4a 7d a3 57 47 9c 25
0f 45 47 a5 4a 00 81 80 01 c0 01 01 01 01 01 01
01 01 01 01 01 c1 66 21 50 b0 51 00 1b 30 40 70
36 00 48 80 42 00 00 1e 00 00 00 fd 00 32 55 1f
46 0b 00 0a 20 20 20 20 20 20 00 00 00 ff 00 48
50 41 45 41 48 33 38 32 35 38 37 38 00 00 00 fc
00 56 49 5a 49 4f 20 47 56 34 37 4c 0a 20 00 bf

00 ff ff ff ff ff ff 00 59 3a 23 00 01 01 01 01
26 11 01 03 08 6e 40 78 0a 4a 7d a3 57 47 9c 25
0f 45 47 a5 4a 00 81 80 01 c0 01 01 01 01 01 01
01 01 01 01 01 c1 66 21 50 b0 51 00 1b 30 40 70
36 00 48 80 42 00 00 1e 00 00 00 fd 00 32 55 1f
46 0b 00 0a 20 20 20 20 20 20 00 00 00 ff 00 48
50 41 45 41 48 33 38 32 35 38 37 38 00 00 00 fc
00 56 49 5a 49 4f 20 47 56 34 37 4c 0a 20 00 bf

----------------

Block 0, Base EDID:
  EDID Structure Version & Revision: 1.3
  Vendor & Product Identification:
    Manufacturer: VIZ
    Model: 35
    Serial Number: ...
    Made in: week 38 of 2007
  Basic Display Parameters & Features:
    Analog display
    Signal Level Standard: 0.700 : 0.300 : 1.000 V p-p
    Blank level equals black level
    Sync: Separate
    Maximum image size: 110 cm x 64 cm
    Gamma: 2.20
    RGB color display
    First detailed timing is the preferred timing
  Color Characteristics:
    Red  : 0.6376, 0.3398
    Green: 0.2792, 0.6113
    Blue : 0.1455, 0.0615
    White: 0.2724, 0.2783
  Established Timings I & II:
    IBM     :   720x400    70.081663 Hz   9:5     31.467 kHz     28.320000 MHz
    DMT 0x04:   640x480    59.940476 Hz   4:3     31.469 kHz     25.175000 MHz
    DMT 0x06:   640x480    75.000000 Hz   4:3     37.500 kHz     31.500000 MHz
    DMT 0x09:   800x600    60.316541 Hz   4:3     37.879 kHz     40.000000 MHz
    DMT 0x0b:   800x600    75.000000 Hz   4:3     46.875 kHz     49.500000 MHz
    DMT 0x10:  1024x768    60.003840 Hz   4:3     48.363 kHz     65.000000 MHz
    DMT 0x12:  1024x768    75.028582 Hz   4:3     60.023 kHz     78.750000 MHz
  Standard Timings:
    DMT 0x23:  1280x1024   60.019740 Hz   5:4     63.981 kHz    108.000000 MHz
  Detailed Timing Descriptors:
    DTD 1:  1360x768    60.015162 Hz  85:48    47.712 kHz     85.500000 MHz (1096 mm x 640 mm)
                 Hfront   64 Hsync 112 Hback  256 Hpol P
                 Vfront    3 Vsync   6 Vback   18 Vpol P
    Display Range Limits:
      Monitor ranges (GTF): 50-85 Hz V, 31-70 kHz H, max dotclock 110 MHz
    Display Product Serial Number: ...
    Display Product Name: 'VIZIO GV47L'
Checksum: 0xbf

----------------

Block 1, Unknown EDID Extension Block 0x00:
  00 ff ff ff ff ff ff 00 59 3a 23 00 01 01 01 01 '........Y:#.....'
  26 11 01 03 08 6e 40 78 0a 4a 7d a3 57 47 9c 25 '&....n@x.J}.WG.%'
  0f 45 47 a5 4a 00 81 80 01 c0 01 01 01 01 01 01 '.EG.J...........'
  01 01 01 01 01 c1 66 21 50 b0 51 00 1b 30 40 70 '......f!P.Q..0@p'
  36 00 48 80 42 00 00 1e 00 00 00 fd 00 32 55 1f '6.H.B........2U.'
  46 0b 00 0a 20 20 20 20 20 20 00 00 00 ff 00 48 'F...      .....H'
  50 41 45 41 48 33 38 32 35 38 37 38 00 00 00 fc 'PAEAH3825878....'
  00 56 49 5a 49 4f 20 47 56 34 37 4c 0a 20 00 bf '.VIZIO GV47L. ..'
Checksum: 0xbf

----------------

Failures:

Block 0, Base EDID:
  Standard Timings: Use 0x0101 as the invalid Standard Timings code, not 0x01c0.
  Standard Timings: Use 0x0101 as the invalid Standard Timings code, not 0x01c1.
Block 1, Base EDID:
  Unknown Extension Block.
EDID:
  Base EDID: EDID specified 0 extension block(s), but found 1 extension block(s).

EDID conformity: FAIL
