edid-decode (hex):

00 ff ff ff ff ff ff 00 1e 6d be 75 01 01 01 01
08 11 01 03 01 46 27 78 ea d9 b0 a3 57 49 9c 25
11 49 4b a5 6e 00 31 40 45 40 61 40 d1 c0 01 01
01 01 01 01 01 01 1b 21 50 a0 51 00 1e 30 48 88
35 00 bc 86 21 00 00 1c 26 36 80 a0 70 38 1f 40
50 20 85 00 bc 86 21 00 00 18 00 00 00 fc 00 33
32 4c 43 35 36 0a 20 20 20 20 20 20 00 00 00 fd
00 3c 4b 1d 43 0e 00 0a 20 20 20 20 20 20 00 bf

00 ff ff ff ff ff ff 00 1e 6d be 75 01 01 01 01
08 11 01 03 01 46 27 78 ea d9 b0 a3 57 49 9c 25
11 49 4b a5 6e 00 31 40 45 40 61 40 d1 c0 01 01
01 01 01 01 01 01 1b 21 50 a0 51 00 1e 30 48 88
35 00 bc 86 21 00 00 1c 26 36 80 a0 70 38 1f 40
50 20 85 00 bc 86 21 00 00 18 00 00 00 fc 00 33
32 4c 43 35 36 0a 20 20 20 20 20 20 00 00 00 fd
00 3c 4b 1d 43 0e 00 0a 20 20 20 20 20 20 00 bf

----------------

Block 0, Base EDID:
  EDID Structure Version & Revision: 1.3
  Vendor & Product Identification:
    Manufacturer: GSM
    Model: 30142
    Serial Number: ...
    Made in: week 8 of 2007
  Basic Display Parameters & Features:
    Analog display
    Signal Level Standard: 0.700 : 0.300 : 1.000 V p-p
    Blank level equals black level
    Sync: Serration
    Maximum image size: 70 cm x 39 cm
    Gamma: 2.20
    DPMS levels: Standby Suspend Off
    RGB color display
    First detailed timing is the preferred timing
  Color Characteristics:
    Red  : 0.6396, 0.3408
    Green: 0.2871, 0.6103
    Blue : 0.1464, 0.0693
    White: 0.2851, 0.2929
  Established Timings I & II:
    IBM     :   720x400    70.081663 Hz   9:5     31.467 kHz     28.320000 MHz
    DMT 0x04:   640x480    59.940476 Hz   4:3     31.469 kHz     25.175000 MHz
    DMT 0x06:   640x480    75.000000 Hz   4:3     37.500 kHz     31.500000 MHz
    DMT 0x09:   800x600    60.316541 Hz   4:3     37.879 kHz     40.000000 MHz
    DMT 0x0b:   800x600    75.000000 Hz   4:3     46.875 kHz     49.500000 MHz
    Apple   :   832x624    74.551266 Hz   4:3     49.726 kHz     57.284000 MHz
    DMT 0x10:  1024x768    60.003840 Hz   4:3     48.363 kHz     65.000000 MHz
    DMT 0x11:  1024x768    70.069359 Hz   4:3     56.476 kHz     75.000000 MHz
    DMT 0x12:  1024x768    75.028582 Hz   4:3     60.023 kHz     78.750000 MHz
  Standard Timings:
    DMT 0x04:   640x480    59.940476 Hz   4:3     31.469 kHz     25.175000 MHz
    DMT 0x09:   800x600    60.316541 Hz   4:3     37.879 kHz     40.000000 MHz
    DMT 0x10:  1024x768    60.003840 Hz   4:3     48.363 kHz     65.000000 MHz
    DMT 0x52:  1920x1080   60.000000 Hz  16:9     67.500 kHz    148.500000 MHz
  Detailed Timing Descriptors:
    DTD 1:  1360x768    59.798991 Hz  85:48    47.720 kHz     84.750000 MHz (700 mm x 390 mm)
                 Hfront   72 Hsync 136 Hback  208 Hpol N
                 Vfront    3 Vsync   5 Vback   22 Vpol P
    DTD 2:  1920x1080   59.985806 Hz  16:9     66.644 kHz    138.620000 MHz (700 mm x 390 mm)
                 Hfront   80 Hsync  32 Hback   48 Hpol N
                 Vfront    8 Vsync   5 Vback   18 Vpol N
    Display Product Name: '32LC56'
    Display Range Limits:
      Monitor ranges (GTF): 60-75 Hz V, 29-67 kHz H, max dotclock 140 MHz
Checksum: 0xbf

----------------

Block 1, Unknown EDID Extension Block 0x00:
  00 ff ff ff ff ff ff 00 1e 6d be 75 01 01 01 01 '.........m.u....'
  08 11 01 03 01 46 27 78 ea d9 b0 a3 57 49 9c 25 '.....F'x....WI.%'
  11 49 4b a5 6e 00 31 40 45 40 61 40 d1 c0 01 01 '.IK.n.1@E@a@....'
  01 01 01 01 01 01 1b 21 50 a0 51 00 1e 30 48 88 '.......!P.Q..0H.'
  35 00 bc 86 21 00 00 1c 26 36 80 a0 70 38 1f 40 '5...!...&6..p8.@'
  50 20 85 00 bc 86 21 00 00 18 00 00 00 fc 00 33 'P ....!........3'
  32 4c 43 35 36 0a 20 20 20 20 20 20 00 00 00 fd '2LC56.      ....'
  00 3c 4b 1d 43 0e 00 0a 20 20 20 20 20 20 00 bf '.<K.C...      ..'
Checksum: 0xbf

----------------

Warnings:

EDID:
  Base EDID: Some timings are out of range of the Monitor Ranges:
    Horizontal Freq: 31.466 - 67.500 kHz (Monitor: 29.000 - 67.000 kHz)
    Maximum Clock: 148.500 MHz (Monitor: 140.000 MHz)
    Could be due to a Monitor Range off-by-one rounding issue

Failures:

Block 1, Base EDID:
  Unknown Extension Block.
EDID:
  Base EDID: EDID specified 0 extension block(s), but found 1 extension block(s).

EDID conformity: FAIL
