
EDID (hex):
00ffffffffffff0009e5620a00000000
011f0104a51f1178034a55975e599229
21505400000001010101010101010101
010101010101c83a801871383c403020
360035ae1000001a000000fd00283c44
440f010a202020202020000000fe0042
4f452043510a202020202020000000fe
004e5631343046484d2d5430430a0043

Extracted contents:
header:          00 ff ff ff ff ff ff 00
serial number:   09 e5 62 0a 00 00 00 00 01 1f
version:         01 04
basic params:    a5 1f 11 78 03
chroma info:     4a 55 97 5e 59 92 29 21 50 54
established:     00 00 00
standard:        01 01 01 01 01 01 01 01 01 01 01 01 01 01 01 01
descriptor 1:    c8 3a 80 18 71 38 3c 40 30 20 36 00 35 ae 10 00 00 1a
descriptor 2:    00 00 00 fd 00 28 3c 44 44 0f 01 0a 20 20 20 20 20 20
descriptor 3:    00 00 00 fe 00 42 4f 45 20 43 51 0a 20 20 20 20 20 20
descriptor 4:    00 00 00 fe 00 4e 56 31 34 30 46 48 4d 2d 54 30 43 0a
extensions:      00
checksum:        43

EDID version: 1.4
Manufacturer: BOE Model a62 Serial Number --
Made in week 1 of 2021
Digital display
8 bits per primary color channel
DisplayPort interface
Maximum image size: 31 cm x 17 cm
Gamma: 2.20
Supported color formats: RGB 4:4:4
First detailed timing includes the native pixel format and preferred refresh rate
Display is continuous frequency
Display x,y Chromaticity:
  Red:   0.5908, 0.3671
  Green: 0.3496, 0.5722
  Blue:  0.1611, 0.1298
  White: 0.3134, 0.3291
Established timings supported:
Standard timings supported:
Detailed mode: Clock 150.480 MHz, 309 mm x 174 mm
               1920 1968 2000 2200 hborder 0
               1080 1083 1089 1140 vborder 0
               +hsync -vsync 
               VertFreq: 60 Hz, HorFreq: 68400 Hz
Monitor ranges (bare limits): 40-60Hz V, 68-68kHz H, max dotclock 150MHz
ASCII string: BOE CQ
ASCII string: NV140FHM-T0C
Checksum: 0x43 (valid)
EDID block does NOT conform to EDID 1.4!
	Missing name descriptor
Warning: One or more of the timings is out of range of the Monitor Ranges:
  Vertical Freq: 60 - 60 Hz
  Horizontal Freq: 68400 - 68400 Hz
  Maximum Clock: 150.480 MHz


