
EDID (hex):
00ffffffffffff0015cdd20f01010101
0010010368522e782a4aeaa456479b24
12484a2fce0031594559010101010101
0101010101011b2150a051001e304888
350000000000001e0e1f008051001e30
4080370000000000001c000000fd0037
561f3d09000a202020202020000000fc
00454e4d4152204c434454560a0a0072

Extracted contents:
header:          00 ff ff ff ff ff ff 00
serial number:   15 cd d2 0f 01 01 01 01 00 10
version:         01 03
basic params:    68 52 2e 78 2a
chroma info:     4a ea a4 56 47 9b 24 12 48 4a
established:     2f ce 00
standard:        31 59 45 59 01 01 01 01 01 01 01 01 01 01 01 01
descriptor 1:    1b 21 50 a0 51 00 1e 30 48 88 35 00 00 00 00 00 00 1e
descriptor 2:    0e 1f 00 80 51 00 1e 30 40 80 37 00 00 00 00 00 00 1c
descriptor 3:    00 00 00 fd 00 37 56 1f 3d 09 00 0a 20 20 20 20 20 20
descriptor 4:    00 00 00 fc 00 45 4e 4d 41 52 20 4c 43 44 54 56 0a 0a
extensions:      00
checksum:        72

EDID version: 1.3
Manufacturer: ENM Model fd2 Serial Number --
Made in year 2006
Analog display, Input voltage level: 0.7/0.7 V
Sync: Separate 
Maximum image size: 82 cm x 46 cm
Gamma: 2.20
DPMS levels: Off
RGB color display
First detailed timing is preferred timing
Display x,y Chromaticity:
  Red:   0.6416, 0.3359
  Green: 0.2792, 0.6074
  Blue:  0.1435, 0.0722
  White: 0.2832, 0.2910
Established timings supported:
  640x480@60Hz 4:3 HorFreq: 31469 Hz Clock: 25.175 MHz
  640x480@72Hz 4:3 HorFreq: 37900 Hz Clock: 31.500 MHz
  640x480@75Hz 4:3 HorFreq: 37500 Hz Clock: 31.500 MHz
  800x600@56Hz 4:3 HorFreq: 35200 Hz Clock: 36.000 MHz
  800x600@60Hz 4:3 HorFreq: 37900 Hz Clock: 40.000 MHz
  800x600@72Hz 4:3 HorFreq: 48100 Hz Clock: 50.000 MHz
  800x600@75Hz 4:3 HorFreq: 46900 Hz Clock: 49.500 MHz
  1024x768@60Hz 4:3 HorFreq: 48400 Hz Clock: 65.000 MHz
  1024x768@70Hz 4:3 HorFreq: 56500 Hz Clock: 75.000 MHz
  1024x768@75Hz 4:3 HorFreq: 60000 Hz Clock: 78.750 MHz
Standard timings supported:
  640x480@85Hz 4:3 HorFreq: 43300 Hz Clock: 36.000 MHz
  800x600@85Hz 4:3 HorFreq: 53700 Hz Clock: 56.250 MHz
Detailed mode: Clock 84.750 MHz, 0 mm x 0 mm
               1360 1432 1568 1776 hborder 0
                768  771  776  798 vborder 0
               +hsync +vsync 
               VertFreq: 59 Hz, HorFreq: 47719 Hz
Detailed mode: Clock 79.500 MHz, 0 mm x 0 mm
               1280 1344 1472 1664 hborder 0
                768  771  778  798 vborder 0
               -hsync +vsync 
               VertFreq: 59 Hz, HorFreq: 47776 Hz
Monitor ranges (GTF): 55-86Hz V, 31-61kHz H, max dotclock 90MHz
Monitor name: ENMAR LCDTV
Checksum: 0x72 (valid)
EDID block does NOT conform to EDID 1.3!
	Detailed block string not properly terminated
