
EDID (hex):
00ffffffffffff0030e49d0600000000
001d0104b5221378eb0f95ae5243b026
0f505400000001010101010101010101
01010101010150d000a0f0703e803020
350058c21000001ae08a00a0f0703e80
3020350058c21000001a000000000000
00000000000000000000000000000003
000c19ff1e3c2c26176e2c0101000141
02030f00e3058000e606050173732100
00000000000000000000000000000000
00000000000000000000000000000000
00000000000000000000000000000000
00000000000000000000000000000000
00000000000000000000000000000000
00000000000000000000000000000000
0000000000000000000000000000008b

Extracted contents:
header:          00 ff ff ff ff ff ff 00
serial number:   30 e4 9d 06 00 00 00 00 00 1d
version:         01 04
basic params:    b5 22 13 78 eb
chroma info:     0f 95 ae 52 43 b0 26 0f 50 54
established:     00 00 00
standard:        01 01 01 01 01 01 01 01 01 01 01 01 01 01 01 01
descriptor 1:    50 d0 00 a0 f0 70 3e 80 30 20 35 00 58 c2 10 00 00 1a
descriptor 2:    e0 8a 00 a0 f0 70 3e 80 30 20 35 00 58 c2 10 00 00 1a
descriptor 3:    00 00 00 00 00 00 00 00 00 00 00 00 00 00 00 00 00 00
descriptor 4:    00 00 00 03 00 0c 19 ff 1e 3c 2c 26 17 6e 2c 01 01 00
extensions:      01
checksum:        41

EDID version: 1.4
Manufacturer: LGD Model 69d Serial Number --
Made in year 2019
Digital display
10 bits per primary color channel
DisplayPort interface
Maximum image size: 34 cm x 19 cm
Gamma: 2.20
DPMS levels: Standby Suspend Off
Supported color formats: RGB 4:4:4, YCrCb 4:4:4
First detailed timing includes the native pixel format and preferred refresh rate
Display is continuous frequency
Display x,y Chromaticity:
  Red:   0.6796, 0.3203
  Green: 0.2646, 0.6904
  Blue:  0.1503, 0.0595
  White: 0.3134, 0.3291
Established timings supported:
Standard timings supported:
Detailed mode: Clock 533.280 MHz, 344 mm x 194 mm
               3840 3888 3920 4000 hborder 0
               2160 2163 2168 2222 vborder 0
               +hsync -vsync 
               VertFreq: 60 Hz, HorFreq: 133320 Hz
Detailed mode: Clock 355.520 MHz, 344 mm x 194 mm
               3840 3888 3920 4000 hborder 0
               2160 2163 2168 2222 vborder 0
               +hsync -vsync 
               VertFreq: 40 Hz, HorFreq: 88880 Hz
Manufacturer-specified data, tag 0
Manufacturer-specified data, tag 3
Has 1 extension blocks
Checksum: 0x41 (valid)

CTA extension block
Extension version: 3
11 bytes of CTA data
  Extended tag: Colorimetry data block
    BT2020RGB
  Extended tag: HDR static metadata data block
    Electro optical transfer functions:
      Traditional gamma - SDR luminance range
      SMPTE ST2084
    Supported static metadata descriptors:
      Static metadata type 1
    Desired content max luminance: 115 (603.666 cd/m^2)
    Desired content max frame-average luminance: 115 (603.666 cd/m^2)
    Desired content min luminance: 33 (0.101 cd/m^2)
0 native detailed modes
Checksum: 0x8b (valid)

EDID block does NOT conform to EDID 1.4!
	Required 640x480p60 timings are missing in the established timings
	and/or in the SVD list (VIC 1)
	Missing name descriptor
	Missing monitor ranges
