
EDID (hex):
00ffffffffffff0030e4917b00000000
00130103802517780a00059559569029
1f505400000001010101010101010101
010101010101622aa0f851841e305050
33006fe6100000190000000000000000
00000000000000000000000000fe004c
4720446973706c61790a2020000000fe
004c503137315750392d544c42310000

edid-decode (hex):

00 ff ff ff ff ff ff 00 30 e4 91 7b 00 00 00 00
00 13 01 03 80 25 17 78 0a 00 05 95 59 56 90 29
1f 50 54 00 00 00 01 01 01 01 01 01 01 01 01 01
01 01 01 01 01 01 62 2a a0 f8 51 84 1e 30 50 50
33 00 6f e6 10 00 00 19 00 00 00 00 00 00 00 00
00 00 00 00 00 00 00 00 00 00 00 00 00 fe 00 4c
47 20 44 69 73 70 6c 61 79 0a 20 20 00 00 00 fe
00 4c 50 31 37 31 57 50 39 2d 54 4c 42 31 00 00

----------------

Block 0, Base EDID:
  EDID Structure Version & Revision: 1.3
  Vendor & Product Identification:
    Manufacturer: LGD
    Model: 31633
    Made in: 2009
  Basic Display Parameters & Features:
    Digital display
    Maximum image size: 37 cm x 23 cm
    Gamma: 2.20
    RGB color display
    First detailed timing is the preferred timing
  Color Characteristics:
    Red  : 0.5820, 0.3476
    Green: 0.3359, 0.5625
    Blue : 0.1601, 0.1210
    White: 0.3134, 0.3291
  Established Timings I & II: none
  Standard Timings: none
  Detailed Timing Descriptors:
    DTD 1:  1440x900    60.013717 Hz  16:10    55.813 kHz    108.500000 MHz (367 mm x 230 mm)
                 Hfront   80 Hsync  80 Hback  344 Hpol N
                 Vfront    3 Vsync   3 Vback   24 Vpol N
    Empty Descriptor
    Alphanumeric Data String: 'LG Display'
    Alphanumeric Data String: 'LP171WP9-TLB1'
Checksum: 0x00
