
EDID (hex):
00ffffffffffff0006af5c3000000000
00160104901a0e780299859555569228
22505400000001010101010101010101
0101010101013e1c56a0500016302820
3600009010000018d41256a050001630
28203600009010000018000000000000
00000000000000000000000000000002
000c26e50a3cc80f091ee12020200028

Extracted contents:
header:          00 ff ff ff ff ff ff 00
serial number:   06 af 5c 30 00 00 00 00 00 16
version:         01 04
basic params:    90 1a 0e 78 02
chroma info:     99 85 95 55 56 92 28 22 50 54
established:     00 00 00
standard:        01 01 01 01 01 01 01 01 01 01 01 01 01 01 01 01
descriptor 1:    3e 1c 56 a0 50 00 16 30 28 20 36 00 00 90 10 00 00 18
descriptor 2:    d4 12 56 a0 50 00 16 30 28 20 36 00 00 90 10 00 00 18
descriptor 3:    00 00 00 00 00 00 00 00 00 00 00 00 00 00 00 00 00 00
descriptor 4:    00 00 00 02 00 0c 26 e5 0a 3c c8 0f 09 1e e1 20 20 20
extensions:      00
checksum:        28

EDID version: 1.4
Manufacturer: AUO Model 305c Serial Number --
Made in year 2012
Digital display
6 bits per primary color channel
Digital interface is not defined
Maximum image size: 26 cm x 14 cm
Gamma: 2.20
Supported color formats: RGB 4:4:4
First detailed timing includes the native pixel format and preferred refresh rate
Display x,y Chromaticity:
  Red:   0.5839, 0.3330
  Green: 0.3378, 0.5712
  Blue:  0.1582, 0.1328
  White: 0.3134, 0.3291
Established timings supported:
Standard timings supported:
Detailed mode: Clock 72.300 MHz, 256 mm x 144 mm
               1366 1406 1438 1526 hborder 0
                768  771  777  790 vborder 0
               -hsync -vsync 
               VertFreq: 59 Hz, HorFreq: 47378 Hz
Detailed mode: Clock 48.200 MHz, 256 mm x 144 mm
               1366 1406 1438 1526 hborder 0
                768  771  777  790 vborder 0
               -hsync -vsync 
               VertFreq: 39 Hz, HorFreq: 31585 Hz
Manufacturer-specified data, tag 0
Manufacturer-specified data, tag 2
Checksum: 0x28 (valid)
EDID block does NOT conform to EDID 1.4!
	Missing name descriptor
	Missing monitor ranges
