
EDID (hex):
00ffffffffffff0015c3881801010101
1a1101036c342178eaef95a3544c9b26
0f5054bfef80a940a94fb30081808199
8140814f714f7d4b80a072b02d4088c8
360007442100001c000000ff00323630
38363036370a20202020000000fd0031
56185e15000a202020202020000000fc
005332343331570a202020202020000b

Extracted contents:
header:          00 ff ff ff ff ff ff 00
serial number:   15 c3 88 18 01 01 01 01 1a 11
version:         01 03
basic params:    6c 34 21 78 ea
chroma info:     ef 95 a3 54 4c 9b 26 0f 50 54
established:     bf ef 80
standard:        a9 40 a9 4f b3 00 81 80 81 99 81 40 81 4f 71 4f
descriptor 1:    7d 4b 80 a0 72 b0 2d 40 88 c8 36 00 07 44 21 00 00 1c
descriptor 2:    00 00 00 ff 00 32 36 30 38 36 30 36 37 0a 20 20 20 20
descriptor 3:    00 00 00 fd 00 31 56 18 5e 15 00 0a 20 20 20 20 20 20
descriptor 4:    00 00 00 fc 00 53 32 34 33 31 57 0a 20 20 20 20 20 20
extensions:      00
checksum:        0b

EDID version: 1.3
Manufacturer: ENC Model 1888 Serial Number --
Made in week 26 of 2007
Analog display, Input voltage level: 0.7/0.7 V
Sync: Separate Composite 
Maximum image size: 52 cm x 33 cm
Gamma: 2.20
DPMS levels: Standby Suspend Off
RGB color display
First detailed timing is preferred timing
Display x,y Chromaticity:
  Red:   0.6396, 0.3300
  Green: 0.2998, 0.6083
  Blue:  0.1503, 0.0595
  White: 0.3134, 0.3291
Established timings supported:
  720x400@70Hz 9:5 HorFreq: 31469 Hz Clock: 28.320 MHz
  640x480@60Hz 4:3 HorFreq: 31469 Hz Clock: 25.175 MHz
  640x480@67Hz 4:3 HorFreq: 35000 Hz Clock: 30.240 MHz
  640x480@72Hz 4:3 HorFreq: 37900 Hz Clock: 31.500 MHz
  640x480@75Hz 4:3 HorFreq: 37500 Hz Clock: 31.500 MHz
  800x600@56Hz 4:3 HorFreq: 35200 Hz Clock: 36.000 MHz
  800x600@60Hz 4:3 HorFreq: 37900 Hz Clock: 40.000 MHz
  800x600@72Hz 4:3 HorFreq: 48100 Hz Clock: 50.000 MHz
  800x600@75Hz 4:3 HorFreq: 46900 Hz Clock: 49.500 MHz
  832x624@75Hz 4:3 HorFreq: 49726 Hz Clock: 57.284 MHz
  1024x768@60Hz 4:3 HorFreq: 48400 Hz Clock: 65.000 MHz
  1024x768@70Hz 4:3 HorFreq: 56500 Hz Clock: 75.000 MHz
  1024x768@75Hz 4:3 HorFreq: 60000 Hz Clock: 78.750 MHz
  1280x1024@75Hz 5:4 HorFreq: 80000 Hz Clock: 135.000 MHz
  1152x870@75Hz 192:145 HorFreq: 67500 Hz Clock: 108.000 MHz
Standard timings supported:
  1600x1200@60Hz 4:3 HorFreq: 75000 Hz Clock: 162.000 MHz
  1600x1200@75Hz 4:3 HorFreq: 93800 Hz Clock: 202.500 MHz
  1680x1050@60Hz 16:10 HorFreq: 64700 Hz Clock: 119.000 MHz
  1280x1024@60Hz 5:4 HorFreq: 64000 Hz Clock: 108.000 MHz
  1280x1024@85Hz 5:4 HorFreq: 91100 Hz Clock: 157.500 MHz
  1280x960@60Hz 4:3 HorFreq: 60000 Hz Clock: 108.000 MHz
  1280x960@75Hz 4:3
  1152x864@75Hz 4:3 HorFreq: 67500 Hz Clock: 108.000 MHz
Detailed mode: Clock 193.250 MHz, 519 mm x 324 mm
               1920 2056 2256 2592 hborder 0
               1200 1203 1209 1245 vborder 0
               -hsync +vsync 
               VertFreq: 59 Hz, HorFreq: 74556 Hz
Serial number: --
Monitor ranges (GTF): 49-86Hz V, 24-94kHz H, max dotclock 210MHz
Monitor name: S2431W
Checksum: 0xb (valid)
