edid-decode (hex):

00 ff ff ff ff ff ff 00 09 e5 40 07 00 00 00 00
01 1b 01 04 95 1d 11 78 02 d5 00 a6 58 54 9f 27
0f 50 54 00 00 00 01 01 01 01 01 01 01 01 01 01
01 01 01 01 01 01 b4 3b 80 3b 71 38 3c 40 30 20
36 00 26 a5 10 00 00 1a c6 2f 80 3b 71 38 3c 40
30 20 36 00 26 a5 10 00 00 1a 00 00 00 fe 00 42
4f 45 20 43 51 0a 20 20 20 20 20 20 00 00 00 fe
00 4e 56 31 33 33 46 48 4d 2d 4e 36 36 0a 00 d2

----------------

Block 0, Base EDID:
  EDID Structure Version & Revision: 1.4
  Vendor & Product Identification:
    Manufacturer: BOE
    Model: 1856
    Made in: week 1 of 2017
  Basic Display Parameters & Features:
    Digital display
    Bits per primary color channel: 6
    DisplayPort interface
    Maximum image size: 29 cm x 17 cm
    Gamma: 2.20
    Supported color formats: RGB 4:4:4
    First detailed timing includes the native pixel format and preferred refresh rate
  Color Characteristics:
    Red  : 0.6513, 0.3447
    Green: 0.3291, 0.6220
    Blue : 0.1523, 0.0585
    White: 0.3125, 0.3281
  Established Timings I & II: none
  Standard Timings: none
  Detailed Timing Descriptors:
    DTD 1:  1920x1080   59.986656 Hz  16:9     68.385 kHz    152.840000 MHz (294 mm x 165 mm)
                 Hfront   48 Hsync  32 Hback  235 Hpol P
                 Vfront    3 Vsync   6 Vback   51 Vpol N
    DTD 2:  1920x1080   48.000314 Hz  16:9     54.720 kHz    122.300000 MHz (294 mm x 165 mm)
                 Hfront   48 Hsync  32 Hback  235 Hpol P
                 Vfront    3 Vsync   6 Vback   51 Vpol N
    Alphanumeric Data String: 'BOE CQ'
    Alphanumeric Data String: 'NV133FHM-N66'
Checksum: 0xd2

----------------

Failures:

Block 0, Base EDID:
  Missing Display Product Name.

EDID conformity: FAIL
