
EDID (hex):
00ffffffffffff002134028026903201
26130103082f1e78eade95a4554c9926
0f5054adcf0095008180010101010101
0101010101017c2e90a0601a1e403020
3600da281100001a662150b051001b30
40703600da281100001e000000fc0048
4449543232410a2020202020000000fd
00384c1f500f000a202020202020002e

Extracted contents:
header:          00 ff ff ff ff ff ff 00
serial number:   21 34 02 80 26 90 32 01 26 13
version:         01 03
basic params:    08 2f 1e 78 ea
chroma info:     de 95 a4 55 4c 99 26 0f 50 54
established:     ad cf 00
standard:        95 00 81 80 01 01 01 01 01 01 01 01 01 01 01 01
descriptor 1:    7c 2e 90 a0 60 1a 1e 40 30 20 36 00 da 28 11 00 00 1a
descriptor 2:    66 21 50 b0 51 00 1b 30 40 70 36 00 da 28 11 00 00 1e
descriptor 3:    00 00 00 fc 00 48 44 49 54 32 32 41 0a 20 20 20 20 20
descriptor 4:    00 00 00 fd 00 38 4c 1f 50 0f 00 0a 20 20 20 20 20 20
extensions:      00
checksum:        2e

EDID version: 1.3
Manufacturer: HIT Model 8002 Serial Number --
Made in week 38 of 2009
Analog display, Input voltage level: 0.7/0.3 V
Sync: Separate 
Maximum image size: 47 cm x 30 cm
Gamma: 2.20
DPMS levels: Standby Suspend Off
RGB color display
First detailed timing is preferred timing
Display x,y Chromaticity:
  Red:   0.6435, 0.3330
  Green: 0.2998, 0.5996
  Blue:  0.1503, 0.0595
  White: 0.3134, 0.3291
Established timings supported:
  720x400@70Hz 9:5 HorFreq: 31469 Hz Clock: 28.320 MHz
  640x480@60Hz 4:3 HorFreq: 31469 Hz Clock: 25.175 MHz
  640x480@72Hz 4:3 HorFreq: 37900 Hz Clock: 31.500 MHz
  640x480@75Hz 4:3 HorFreq: 37500 Hz Clock: 31.500 MHz
  800x600@60Hz 4:3 HorFreq: 37900 Hz Clock: 40.000 MHz
  800x600@72Hz 4:3 HorFreq: 48100 Hz Clock: 50.000 MHz
  800x600@75Hz 4:3 HorFreq: 46900 Hz Clock: 49.500 MHz
  1024x768@60Hz 4:3 HorFreq: 48400 Hz Clock: 65.000 MHz
  1024x768@70Hz 4:3 HorFreq: 56500 Hz Clock: 75.000 MHz
  1024x768@75Hz 4:3 HorFreq: 60000 Hz Clock: 78.750 MHz
  1280x1024@75Hz 5:4 HorFreq: 80000 Hz Clock: 135.000 MHz
Standard timings supported:
  1440x900@60Hz 16:10 HorFreq: 55500 Hz Clock: 88.750 MHz
  1280x1024@60Hz 5:4 HorFreq: 64000 Hz Clock: 108.000 MHz
Detailed mode: Clock 119.000 MHz, 474 mm x 296 mm
               1680 1728 1760 1840 hborder 0
               1050 1053 1059 1080 vborder 0
               +hsync -vsync 
               VertFreq: 59 Hz, HorFreq: 64673 Hz
Detailed mode: Clock 85.500 MHz, 474 mm x 296 mm
               1360 1424 1536 1792 hborder 0
                768  771  777  795 vborder 0
               +hsync +vsync 
               VertFreq: 60 Hz, HorFreq: 47712 Hz
Monitor name: HDIT22A
Monitor ranges (GTF): 56-76Hz V, 31-80kHz H, max dotclock 150MHz
Checksum: 0x2e (valid)
