
EDID (hex):
00ffffffffffff006178900101000000
141f010380291a78cad7a5a2594a9624
145054a54b0095008100814071408180
01c1014101419a29a0d0518422305098
360055001100001c0e1f008051001e30
3020370070cf1000001a662156aa5100
1e30468f3300aaef1000001e000000fc
0048444d490a2020202020202020001a

Extracted contents:
header:          00 ff ff ff ff ff ff 00
serial number:   61 78 90 01 01 00 00 00 14 1f
version:         01 03
basic params:    80 29 1a 78 ca
chroma info:     d7 a5 a2 59 4a 96 24 14 50 54
established:     a5 4b 00
standard:        95 00 81 00 81 40 71 40 81 80 01 c1 01 41 01 41
descriptor 1:    9a 29 a0 d0 51 84 22 30 50 98 36 00 55 00 11 00 00 1c
descriptor 2:    0e 1f 00 80 51 00 1e 30 30 20 37 00 70 cf 10 00 00 1a
descriptor 3:    66 21 56 aa 51 00 1e 30 46 8f 33 00 aa ef 10 00 00 1e
descriptor 4:    00 00 00 fc 00 48 44 4d 49 0a 20 20 20 20 20 20 20 20
extensions:      00
checksum:        1a

EDID version: 1.3
Manufacturer: XKX Model 190 Serial Number --
Made in week 20 of 2021
Digital display
Maximum image size: 41 cm x 26 cm
Gamma: 2.20
DPMS levels: Standby Suspend
RGB color display
First detailed timing is preferred timing
Display x,y Chromaticity:
  Red:   0.6357, 0.3486
  Green: 0.2900, 0.5888
  Blue:  0.1425, 0.0800
  White: 0.3134, 0.3291
Established timings supported:
  720x400@70Hz 9:5 HorFreq: 31469 Hz Clock: 28.320 MHz
  640x480@60Hz 4:3 HorFreq: 31469 Hz Clock: 25.175 MHz
  640x480@75Hz 4:3 HorFreq: 37500 Hz Clock: 31.500 MHz
  800x600@60Hz 4:3 HorFreq: 37900 Hz Clock: 40.000 MHz
  800x600@75Hz 4:3 HorFreq: 46900 Hz Clock: 49.500 MHz
  1024x768@60Hz 4:3 HorFreq: 48400 Hz Clock: 65.000 MHz
  1024x768@75Hz 4:3 HorFreq: 60000 Hz Clock: 78.750 MHz
  1280x1024@75Hz 5:4 HorFreq: 80000 Hz Clock: 135.000 MHz
Standard timings supported:
  1440x900@60Hz 16:10 HorFreq: 55500 Hz Clock: 88.750 MHz
  1280x800@60Hz 16:10
  1280x960@60Hz 4:3 HorFreq: 60000 Hz Clock: 108.000 MHz
  1152x864@60Hz 4:3
  1280x1024@60Hz 5:4 HorFreq: 64000 Hz Clock: 108.000 MHz
  256x144@61Hz 16:9
  256x192@61Hz 4:3
  256x192@61Hz 4:3
Detailed mode: Clock 106.500 MHz, 341 mm x 256 mm
               1440 1520 1672 1904 hborder 0
                900  903  909  934 vborder 0
               -hsync +vsync 
               VertFreq: 59 Hz, HorFreq: 55934 Hz
Detailed mode: Clock 79.500 MHz, 368 mm x 207 mm
               1280 1328 1360 1664 hborder 0
                768  771  778  798 vborder 0
               +hsync -vsync 
               VertFreq: 59 Hz, HorFreq: 47776 Hz
Detailed mode: Clock 85.500 MHz, 426 mm x 239 mm
               1366 1436 1579 1792 hborder 0
                768  771  774  798 vborder 0
               +hsync +vsync 
               VertFreq: 59 Hz, HorFreq: 47712 Hz
Monitor name: HDMI
Checksum: 0x1a (valid)
EDID block does NOT conform to EDID 1.3!
	Missing monitor ranges
