
EDID (hex):
00ffffffffffff001e6da83a00000000
00060101181c1570e8d2839d57479624
10484ffffe003b4a3140314f454f614a
814001010101d60980a020e02d101060
a20004be100000185613200031581920
1050130004be1000001e4c1d00304100
26301888360004be10000018302a0098
51002a403070130004be1000001e0062

Extracted contents:
header:          00 ff ff ff ff ff ff 00
serial number:   1e 6d a8 3a 00 00 00 00 00 06
version:         01 01
basic params:    18 1c 15 70 e8
chroma info:     d2 83 9d 57 47 96 24 10 48 4f
established:     ff fe 00
standard:        3b 4a 31 40 31 4f 45 4f 61 4a 81 40 01 01 01 01
descriptor 1:    d6 09 80 a0 20 e0 2d 10 10 60 a2 00 04 be 10 00 00 18
descriptor 2:    56 13 20 00 31 58 19 20 10 50 13 00 04 be 10 00 00 1e
descriptor 3:    4c 1d 00 30 41 00 26 30 18 88 36 00 04 be 10 00 00 18
descriptor 4:    30 2a 00 98 51 00 2a 40 30 70 13 00 04 be 10 00 00 1e
extensions:      00
checksum:        62

EDID version: 1.1
Manufacturer: GSM Model 3aa8 Serial Number --
Analog display, Input voltage level: 0.7/0.3 V
Configurable signal levels
Sync: Separate 
Maximum image size: 28 cm x 21 cm
Gamma: 2.12
DPMS levels: Standby Suspend Off
RGB color display
Display x,y Chromaticity:
  Red:   0.6162, 0.3408
  Green: 0.2773, 0.5878
  Blue:  0.1425, 0.0625
  White: 0.2812, 0.3115
Established timings supported:
  720x400@70Hz 9:5 HorFreq: 31469 Hz Clock: 28.320 MHz
  720x400@88Hz 9:5 HorFreq: 39500 Hz Clock: 35.500 MHz
  640x480@60Hz 4:3 HorFreq: 31469 Hz Clock: 25.175 MHz
  640x480@67Hz 4:3 HorFreq: 35000 Hz Clock: 30.240 MHz
  640x480@72Hz 4:3 HorFreq: 37900 Hz Clock: 31.500 MHz
  640x480@75Hz 4:3 HorFreq: 37500 Hz Clock: 31.500 MHz
  800x600@56Hz 4:3 HorFreq: 35200 Hz Clock: 36.000 MHz
  800x600@60Hz 4:3 HorFreq: 37900 Hz Clock: 40.000 MHz
  800x600@72Hz 4:3 HorFreq: 48100 Hz Clock: 50.000 MHz
  800x600@75Hz 4:3 HorFreq: 46900 Hz Clock: 49.500 MHz
  832x624@75Hz 4:3 HorFreq: 49726 Hz Clock: 57.284 MHz
  1280x768i@87Hz 5:3 HorFreq: 35522 Hz Clock: 44.900 MHz
  1024x768@60Hz 4:3 HorFreq: 48400 Hz Clock: 65.000 MHz
  1024x768@70Hz 4:3 HorFreq: 56500 Hz Clock: 75.000 MHz
  1024x768@75Hz 4:3 HorFreq: 60000 Hz Clock: 78.750 MHz
Standard timings supported:
  720x540@70Hz 4:3
  640x480@60Hz 4:3 HorFreq: 31469 Hz Clock: 25.175 MHz
  640x480@75Hz 4:3 HorFreq: 37500 Hz Clock: 31.500 MHz
  800x600@75Hz 4:3 HorFreq: 46900 Hz Clock: 49.500 MHz
  1024x768@70Hz 4:3 HorFreq: 56500 Hz Clock: 75.000 MHz
  1280x960@60Hz 4:3 HorFreq: 60000 Hz Clock: 108.000 MHz
Detailed mode: Clock 25.180 MHz, 260 mm x 190 mm
                640  656  752  800 hborder 0
                480  490  492  525 vborder 0
               -hsync -vsync 
               VertFreq: 59 Hz, HorFreq: 31475 Hz
Detailed mode: Clock 49.500 MHz, 260 mm x 190 mm
                800  816  896 1056 hborder 0
                600  601  604  625 vborder 0
               +hsync +vsync 
               VertFreq: 75 Hz, HorFreq: 46875 Hz
Detailed mode: Clock 75.000 MHz, 260 mm x 190 mm
               1024 1048 1184 1328 hborder 0
                768  771  777  806 vborder 0
               -hsync -vsync 
               VertFreq: 70 Hz, HorFreq: 56475 Hz
Detailed mode: Clock 108.000 MHz, 260 mm x 190 mm
               1280 1328 1440 1688 hborder 0
               1024 1025 1028 1066 vborder 0
               +hsync +vsync 
               VertFreq: 60 Hz, HorFreq: 63981 Hz
Checksum: 0x62 (valid)
EDID block does not conform at all!
	Bad year of manufacture
