
EDID (hex):
00ffffffffffff001d582c6000000000
1a1f0104951d10780af100945c589229
21505400000001010101010101010101
010101010101ce1d56e250001e303020
360025a51000001adf1356e250001e30
3020360025a51000001a000000fe0047
31333345413036200a202020000000fe
0047313333454130360a202020200099

edid-decode (hex):

00 ff ff ff ff ff ff 00 1d 58 2c 60 00 00 00 00
1a 1f 01 04 95 1d 10 78 0a f1 00 94 5c 58 92 29
21 50 54 00 00 00 01 01 01 01 01 01 01 01 01 01
01 01 01 01 01 01 ce 1d 56 e2 50 00 1e 30 30 20
36 00 25 a5 10 00 00 1a df 13 56 e2 50 00 1e 30
30 20 36 00 25 a5 10 00 00 1a 00 00 00 fe 00 47
31 33 33 45 41 30 36 20 0a 20 20 20 00 00 00 fe
00 47 31 33 33 45 41 30 36 0a 20 20 20 20 00 99

----------------

Block 0, Base EDID:
  EDID Structure Version & Revision: 1.4
  Vendor & Product Identification:
    Manufacturer: GJX
    Model: 24620
    Made in: week 26 of 2021
  Basic Display Parameters & Features:
    Digital display
    Bits per primary color channel: 6
    DisplayPort interface
    Maximum image size: 29 cm x 16 cm
    Gamma: 2.20
    Supported color formats: RGB 4:4:4, YCrCb 4:4:4
    First detailed timing includes the native pixel format and preferred refresh rate
  Color Characteristics:
    Red  : 0.5810, 0.3623
    Green: 0.3437, 0.5712
    Blue : 0.1601, 0.1289
    White: 0.3125, 0.3281
  Established Timings I & II: none
  Standard Timings: none
  Detailed Timing Descriptors:
    DTD 1:  1366x768    60.059067 Hz 683:384   47.927 kHz     76.300000 MHz (293 mm x 165 mm)
                 Hfront   48 Hsync  32 Hback  146 Hpol P
                 Vfront    3 Vsync   6 Vback   21 Vpol N
    DTD 2:  1366x768    40.042002 Hz 683:384   31.954 kHz     50.870000 MHz (293 mm x 165 mm)
                 Hfront   48 Hsync  32 Hback  146 Hpol P
                 Vfront    3 Vsync   6 Vback   21 Vpol N
    Alphanumeric Data String: 'G133EA06 '
    Alphanumeric Data String: 'G133EA06'
Checksum: 0x99
