
EDID (hex):
00ffffffffffff000daf171300000000
08130103801d10780aa9e59559569027
21505400000001010101010101010101
010101010101121b566c500010302016
240028a610000018000000fe004e3133
3442362d4c30310a2020000000fe0043
4d4f0a202020202020202020000000fe
004e31333442362d4c30310a2020009e

Extracted contents:
header:          00 ff ff ff ff ff ff 00
serial number:   0d af 17 13 00 00 00 00 08 13
version:         01 03
basic params:    80 1d 10 78 0a
chroma info:     a9 e5 95 59 56 90 27 21 50 54
established:     00 00 00
standard:        01 01 01 01 01 01 01 01 01 01 01 01 01 01 01 01
descriptor 1:    12 1b 56 6c 50 00 10 30 20 16 24 00 28 a6 10 00 00 18
descriptor 2:    00 00 00 fe 00 4e 31 33 34 42 36 2d 4c 30 31 0a 20 20
descriptor 3:    00 00 00 fe 00 43 4d 4f 0a 20 20 20 20 20 20 20 20 20
descriptor 4:    00 00 00 fe 00 4e 31 33 34 42 36 2d 4c 30 31 0a 20 20
extensions:      00
checksum:        9e

EDID version: 1.3
Manufacturer: CMO Model 1317 Serial Number --
Made in week 8 of 2009
Digital display
Maximum image size: 29 cm x 16 cm
Gamma: 2.20
RGB color display
First detailed timing is preferred timing
Display x,y Chromaticity:
  Red:   0.5839, 0.3496
  Green: 0.3378, 0.5634
  Blue:  0.1552, 0.1308
  White: 0.3134, 0.3291
Established timings supported:
Standard timings supported:
Detailed mode: Clock 69.300 MHz, 296 mm x 166 mm
               1366 1398 1420 1474 hborder 0
                768  770  774  784 vborder 0
               -hsync -vsync 
               VertFreq: 59 Hz, HorFreq: 47014 Hz
ASCII string: N134B6-L01
ASCII string: CMO
ASCII string: N134B6-L01
Checksum: 0x9e (valid)
EDID block does NOT conform to EDID 1.3!
	Missing name descriptor
	Missing monitor ranges
