
EDID (hex):
00ffffffffffff004d10251500000000
1f1e01049522137802f285975c588f28
1d505400000001010101010101010101
0101010101012e3680a070381f403020
350058c210000018182480a070381f40
3020350058c21000001a000000100000
000000000000000000000000000000fe
004c513135364d314a5839330a200024

Extracted contents:
header:          00 ff ff ff ff ff ff 00
serial number:   4d 10 25 15 00 00 00 00 1f 1e
version:         01 04
basic params:    95 22 13 78 02
chroma info:     f2 85 97 5c 58 8f 28 1d 50 54
established:     00 00 00
standard:        01 01 01 01 01 01 01 01 01 01 01 01 01 01 01 01
descriptor 1:    2e 36 80 a0 70 38 1f 40 30 20 35 00 58 c2 10 00 00 18
descriptor 2:    18 24 80 a0 70 38 1f 40 30 20 35 00 58 c2 10 00 00 1a
descriptor 3:    00 00 00 10 00 00 00 00 00 00 00 00 00 00 00 00 00 00
descriptor 4:    00 00 00 fe 00 4c 51 31 35 36 4d 31 4a 58 39 33 0a 20
extensions:      00
checksum:        24

EDID version: 1.4
Manufacturer: SHP Model 1525 Serial Number --
Made in week 31 of 2020
Digital display
6 bits per primary color channel
DisplayPort interface
Maximum image size: 34 cm x 19 cm
Gamma: 2.20
Supported color formats: RGB 4:4:4
First detailed timing includes the native pixel format and preferred refresh rate
Display x,y Chromaticity:
  Red:   0.5927, 0.3623
  Green: 0.3437, 0.5605
  Blue:  0.1582, 0.1132
  White: 0.3134, 0.3291
Established timings supported:
Standard timings supported:
Detailed mode: Clock 138.700 MHz, 344 mm x 194 mm
               1920 1968 2000 2080 hborder 0
               1080 1083 1088 1111 vborder 0
               -hsync -vsync 
               VertFreq: 60 Hz, HorFreq: 66682 Hz
Detailed mode: Clock 92.400 MHz, 344 mm x 194 mm
               1920 1968 2000 2080 hborder 0
               1080 1083 1088 1111 vborder 0
               +hsync -vsync 
               VertFreq: 39 Hz, HorFreq: 44423 Hz
Dummy block
ASCII string: LQ156M1JX93
Checksum: 0x24 (valid)
EDID block does NOT conform to EDID 1.4!
	Missing name descriptor
	Missing monitor ranges
