
EDID (hex):
00ffffffffffff0009e5b90600000000
011a010495221378023d78995b549127
224e5300000001010101010101010101
0101010101013c3780de703814403020
360058c21000001a0000000000000000
00000000000000000000000000fe0042
4f452048460a202020202020000000fe
004e5631353646484d2d4e34360a0082

Extracted contents:
header:          00 ff ff ff ff ff ff 00
serial number:   09 e5 b9 06 00 00 00 00 01 1a
version:         01 04
basic params:    95 22 13 78 02
chroma info:     3d 78 99 5b 54 91 27 22 4e 53
established:     00 00 00
standard:        01 01 01 01 01 01 01 01 01 01 01 01 01 01 01 01
descriptor 1:    3c 37 80 de 70 38 14 40 30 20 36 00 58 c2 10 00 00 1a
descriptor 2:    00 00 00 00 00 00 00 00 00 00 00 00 00 00 00 00 00 00
descriptor 3:    00 00 00 fe 00 42 4f 45 20 48 46 0a 20 20 20 20 20 20
descriptor 4:    00 00 00 fe 00 4e 56 31 35 36 46 48 4d 2d 4e 34 36 0a
extensions:      00
checksum:        82

EDID version: 1.4
Manufacturer: BOE Model 6b9 Serial Number --
Made in week 1 of 2016
Digital display
6 bits per primary color channel
DisplayPort interface
Maximum image size: 34 cm x 19 cm
Gamma: 2.20
Supported color formats: RGB 4:4:4
First detailed timing includes the native pixel format and preferred refresh rate
Display x,y Chromaticity:
  Red:   0.5976, 0.3583
  Green: 0.3310, 0.5673
  Blue:  0.1533, 0.1357
  White: 0.3066, 0.3242
Established timings supported:
Standard timings supported:
Detailed mode: Clock 141.400 MHz, 344 mm x 194 mm
               1920 1968 2000 2142 hborder 0
               1080 1083 1089 1100 vborder 0
               +hsync -vsync 
               VertFreq: 60 Hz, HorFreq: 66013 Hz
Manufacturer-specified data, tag 0
ASCII string: BOE HF
ASCII string: NV156FHM-N46
Checksum: 0x82 (valid)
EDID block does NOT conform to EDID 1.4!
	Missing name descriptor
	Missing monitor ranges


