
EDID (hex):
00ffffffffffff0009e5d00700000000
11200104a52213780a1db0a658549e26
0f505400000001010101010101010101
010101010101c0398018713828403020
360058c11000001a000000fc00000000
0000000000000000001a000000fe0042
4f452043510a202020202020000000fc
004e5631353646484d2d4e36310a0033

Extracted contents:
header:          00 ff ff ff ff ff ff 00
serial number:   09 e5 d0 07 00 00 00 00 11 20
version:         01 04
basic params:    a5 22 13 78 0a
chroma info:     1d b0 a6 58 54 9e 26 0f 50 54
established:     00 00 00
standard:        01 01 01 01 01 01 01 01 01 01 01 01 01 01 01 01
descriptor 1:    c0 39 80 18 71 38 28 40 30 20 36 00 58 c1 10 00 00 1a
descriptor 2:    00 00 00 fc 00 00 00 00 00 00 00 00 00 00 00 00 00 1a
descriptor 3:    00 00 00 fe 00 42 4f 45 20 43 51 0a 20 20 20 20 20 20
descriptor 4:    00 00 00 fc 00 4e 56 31 35 36 46 48 4d 2d 4e 36 31 0a
extensions:      00
checksum:        33

EDID version: 1.4
Manufacturer: BOE Model 7d0 Serial Number --
Made in week 17 of 2022
Digital display
8 bits per primary color channel
DisplayPort interface
Maximum image size: 34 cm x 19 cm
Gamma: 2.20
Supported color formats: RGB 4:4:4, YCrCb 4:4:4
First detailed timing includes the native pixel format and preferred refresh rate
Display x,y Chromaticity:
  Red:   0.6484, 0.3447
  Green: 0.3310, 0.6181
  Blue:  0.1503, 0.0615
  White: 0.3125, 0.3281
Established timings supported:
Standard timings supported:
Detailed mode: Clock 147.840 MHz, 344 mm x 193 mm
               1920 1968 2000 2200 hborder 0
               1080 1083 1089 1120 vborder 0
               +hsync -vsync 
               VertFreq: 60 Hz, HorFreq: 67200 Hz
ASCII string: BOE CQ
Monitor name: NV156FHM-N61
Checksum: 0x33 (valid)
	Missing monitor ranges
