edid-decode (hex):

00 ff ff ff ff ff ff 00 4e 81 ec 05 00 00 00 00
14 1c 01 04 95 1f 11 78 0a f0 10 92 5c 56 94 28
1b 50 54 00 00 00 01 01 01 01 01 01 01 01 01 01
01 01 01 01 01 01 3e 1c 56 a0 50 00 16 30 30 20
36 00 35 ad 10 00 00 19 3e 1c 56 a0 50 00 16 30
30 20 36 00 35 ad 10 00 00 01 00 00 00 fe 00 53
54 41 52 52 59 0a 20 20 20 20 20 20 00 00 00 fe
00 53 54 41 00 00 00 00 00 00 00 00 00 00 00 92

00 ff ff ff ff ff ff 00 4e 81 ec 05 00 00 00 00
14 1c 01 04 95 1f 11 78 0a f0 10 92 5c 56 94 28
1b 50 54 00 00 00 01 01 01 01 01 01 01 01 01 01
01 01 01 01 01 01 3e 1c 56 a0 50 00 16 30 30 20
36 00 35 ad 10 00 00 19 3e 1c 56 a0 50 00 16 30
30 20 36 00 35 ad 10 00 00 01 00 00 00 fe 00 53
54 41 52 52 59 0a 20 20 20 20 20 20 00 00 00 fe
00 53 54 41 00 00 00 00 00 00 00 00 00 00 00 92

----------------

Block 0, Base EDID:
  EDID Structure Version & Revision: 1.4
  Vendor & Product Identification:
    Manufacturer: STA
    Model: 1516
    Made in: week 20 of 2018
  Basic Display Parameters & Features:
    Digital display
    Bits per primary color channel: 6
    DisplayPort interface
    Maximum image size: 31 cm x 17 cm
    Gamma: 2.20
    Supported color formats: RGB 4:4:4, YCrCb 4:4:4
    First detailed timing includes the native pixel format and preferred refresh rate
  Color Characteristics:
    Red  : 0.5732, 0.3623
    Green: 0.3359, 0.5781
    Blue : 0.1562, 0.1064
    White: 0.3125, 0.3281
  Established Timings I & II: none
  Standard Timings: none
  Detailed Timing Descriptors:
    DTD 1:  1366x768    59.973124 Hz 683:384   47.379 kHz     72.300000 MHz (309 mm x 173 mm)
                 Hfront   48 Hsync  32 Hback   80 Hpol N
                 Vfront    3 Vsync   6 Vback   13 Vpol N
    DTD 2:  1366x768    59.973124 Hz 683:384   47.379 kHz     72.300000 MHz (analog composite, sync-on-green, 309 mm x 173 mm)
                 Hfront   48 Hsync  32 Hback   80 Hpol N
                 Vfront    3 Vsync   6 Vback   13 Vpol N
    Alphanumeric Data String: 'STARRY'
    Alphanumeric Data String: 'STA'
Checksum: 0x92

----------------

Block 1, Unknown EDID Extension Block 0x00:
  00 ff ff ff ff ff ff 00 4e 81 ec 05 00 00 00 00 '........N.......'
  14 1c 01 04 95 1f 11 78 0a f0 10 92 5c 56 94 28 '.......x....\V.('
  1b 50 54 00 00 00 01 01 01 01 01 01 01 01 01 01 '.PT.............'
  01 01 01 01 01 01 3e 1c 56 a0 50 00 16 30 30 20 '......>.V.P..00 '
  36 00 35 ad 10 00 00 19 3e 1c 56 a0 50 00 16 30 '6.5.....>.V.P..0'
  30 20 36 00 35 ad 10 00 00 01 00 00 00 fe 00 53 '0 6.5..........S'
  54 41 52 52 59 0a 20 20 20 20 20 20 00 00 00 fe 'TARRY.      ....'
  00 53 54 41 00 00 00 00 00 00 00 00 00 00 00 92 '.STA............'
Checksum: 0x92

----------------

Warnings:

Block 0, Base EDID:
  Missing Display Product Name.

Failures:

Block 0, Base EDID:
  Alphanumeric Data String: Non-printable character.
Block 1, Base EDID:
  Unknown Extension Block.
EDID:
  Base EDID: EDID specified 0 extension block(s), but found 1 extension block(s).

EDID conformity: FAIL
