
EDID (hex):
00ffffffffffff005c94641e3f0d0000
3418010308351e780a01c1a057479827
124c4cadce0081c08100010101010101
010101010101023a801871382d40582c
450040846300001e000000ff00373738
30563435323031303835000000fd0039
4e1e500f000a202020202020000000fc
0045554d3234463147310a2020200040

Extracted contents:
header:          00 ff ff ff ff ff ff 00
serial number:   5c 94 64 1e 3f 0d 00 00 34 18
version:         01 03
basic params:    08 35 1e 78 0a
chroma info:     01 c1 a0 57 47 98 27 12 4c 4c
established:     ad ce 00
standard:        81 c0 81 00 01 01 01 01 01 01 01 01 01 01 01 01
descriptor 1:    02 3a 80 18 71 38 2d 40 58 2c 45 00 40 84 63 00 00 1e
descriptor 2:    00 00 00 ff 00 37 37 38 30 56 34 35 32 30 31 30 38 35
descriptor 3:    00 00 00 fd 00 39 4e 1e 50 0f 00 0a 20 20 20 20 20 20
descriptor 4:    00 00 00 fc 00 45 55 4d 32 34 46 31 47 31 0a 20 20 20
extensions:      00
checksum:        40

EDID version: 1.3
Manufacturer: WDT Model 1e64 Serial Number --
Made in week 52 of 2014
Analog display, Input voltage level: 0.7/0.3 V
Sync: Separate 
Maximum image size: 53 cm x 30 cm
Gamma: 2.20
RGB color display
First detailed timing is preferred timing
Display x,y Chromaticity:
  Red:   0.6250, 0.3398
  Green: 0.2773, 0.5947
  Blue:  0.1552, 0.0703
  White: 0.2968, 0.2978
Established timings supported:
  720x400@70Hz 9:5 HorFreq: 31469 Hz Clock: 28.320 MHz
  640x480@60Hz 4:3 HorFreq: 31469 Hz Clock: 25.175 MHz
  640x480@72Hz 4:3 HorFreq: 37900 Hz Clock: 31.500 MHz
  640x480@75Hz 4:3 HorFreq: 37500 Hz Clock: 31.500 MHz
  800x600@60Hz 4:3 HorFreq: 37900 Hz Clock: 40.000 MHz
  800x600@72Hz 4:3 HorFreq: 48100 Hz Clock: 50.000 MHz
  800x600@75Hz 4:3 HorFreq: 46900 Hz Clock: 49.500 MHz
  1024x768@60Hz 4:3 HorFreq: 48400 Hz Clock: 65.000 MHz
  1024x768@70Hz 4:3 HorFreq: 56500 Hz Clock: 75.000 MHz
  1024x768@75Hz 4:3 HorFreq: 60000 Hz Clock: 78.750 MHz
Standard timings supported:
  1280x720@60Hz 16:9
  1280x800@60Hz 16:10
Detailed mode: Clock 148.500 MHz, 1600 mm x 900 mm
               1920 2008 2052 2200 hborder 0
               1080 1084 1089 1125 vborder 0
               +hsync +vsync 
               VertFreq: 60 Hz, HorFreq: 67500 Hz
Serial number: --
Monitor ranges (GTF): 57-78Hz V, 30-80kHz H, max dotclock 150MHz
Monitor name: EUM24F1G1
Checksum: 0x40 (valid)
