
EDID (hex):
00ffffffffffff002032062201010101
001401031c301b782e1815a45d53a427
135054a7ce0095008180010101010101
0101010101015235808070381f402020
1300dc0c1100001e662150b051001b30
40703600dc0c11000018000000fc004c
4532325a360a202020202020000000fd
00384c1e530f000a2020202020200021

Extracted contents:
header:          00 ff ff ff ff ff ff 00
serial number:   20 32 06 22 01 01 01 01 00 14
version:         01 03
basic params:    1c 30 1b 78 2e
chroma info:     18 15 a4 5d 53 a4 27 13 50 54
established:     a7 ce 00
standard:        95 00 81 80 01 01 01 01 01 01 01 01 01 01 01 01
descriptor 1:    52 35 80 80 70 38 1f 40 20 20 13 00 dc 0c 11 00 00 1e
descriptor 2:    66 21 50 b0 51 00 1b 30 40 70 36 00 dc 0c 11 00 00 18
descriptor 3:    00 00 00 fc 00 4c 45 32 32 5a 36 0a 20 20 20 20 20 20
descriptor 4:    00 00 00 fd 00 38 4c 1e 53 0f 00 0a 20 20 20 20 20 20
extensions:      00
checksum:        21

EDID version: 1.3
Manufacturer: HAR Model 2206 Serial Number --
Made in year 2010
Analog display, Input voltage level: 0.7/0.3 V
Configurable signal levels
Sync: Separate Composite 
Maximum image size: 48 cm x 27 cm
Gamma: 2.20
DPMS levels: Off
RGB color display
Default (sRGB) color space is primary color space
First detailed timing is preferred timing
Display x,y Chromaticity:
  Red:   0.6406, 0.3642
  Green: 0.3261, 0.6406
  Blue:  0.1523, 0.0751
  White: 0.3134, 0.3291
Established timings supported:
  720x400@70Hz 9:5 HorFreq: 31469 Hz Clock: 28.320 MHz
  640x480@60Hz 4:3 HorFreq: 31469 Hz Clock: 25.175 MHz
  640x480@75Hz 4:3 HorFreq: 37500 Hz Clock: 31.500 MHz
  800x600@56Hz 4:3 HorFreq: 35200 Hz Clock: 36.000 MHz
  800x600@60Hz 4:3 HorFreq: 37900 Hz Clock: 40.000 MHz
  800x600@72Hz 4:3 HorFreq: 48100 Hz Clock: 50.000 MHz
  800x600@75Hz 4:3 HorFreq: 46900 Hz Clock: 49.500 MHz
  1024x768@60Hz 4:3 HorFreq: 48400 Hz Clock: 65.000 MHz
  1024x768@70Hz 4:3 HorFreq: 56500 Hz Clock: 75.000 MHz
  1024x768@75Hz 4:3 HorFreq: 60000 Hz Clock: 78.750 MHz
Standard timings supported:
  1440x900@60Hz 16:10 HorFreq: 55500 Hz Clock: 88.750 MHz
  1280x1024@60Hz 5:4 HorFreq: 64000 Hz Clock: 108.000 MHz
Detailed mode: Clock 136.500 MHz, 476 mm x 268 mm
               1920 1952 1984 2048 hborder 0
               1080 1081 1084 1111 vborder 0
               +hsync +vsync 
               VertFreq: 59 Hz, HorFreq: 66650 Hz
Detailed mode: Clock 85.500 MHz, 476 mm x 268 mm
               1360 1424 1536 1792 hborder 0
                768  771  777  795 vborder 0
               -hsync -vsync 
               VertFreq: 60 Hz, HorFreq: 47712 Hz
Monitor name: LE22Z6
Monitor ranges (GTF): 56-76Hz V, 30-83kHz H, max dotclock 150MHz
Checksum: 0x21 (valid)
EDID block does NOT conform to EDID 1.3!
	sRGB is signaled, but the chromaticities do not match
