edid-decode (hex):

00 ff ff ff ff ff ff 00 12 e5 00 21 50 2d 31 01
1c 13 01 03 81 2f 1a 78 2e 35 85 a6 56 48 9a 24
12 50 54 af ef 00 01 01 01 01 01 01 01 01 01 01
01 01 01 01 01 01 a1 13 00 40 41 58 19 20 2c 58
36 00 dc 0c 11 00 00 1a 00 00 00 ff 00 30 0a 0a
0a 0a 0a 0a 0a 0a 0a 0a 0a 0a 00 00 00 fd 00 38
4b 1e 53 15 00 0a 20 20 20 20 20 20 00 00 00 fc
00 48 44 4d 49 0a 0a 0a 0a 0a 0a 0a 0a 0a 01 f9

00 ff ff ff ff ff ff 00 12 e5 00 21 50 2d 31 01
1c 13 01 03 81 2f 1a 78 2e 35 85 a6 56 48 9a 24
12 50 54 af ee 00 01 01 01 01 01 01 01 01 01 01
01 01 01 01 01 01 64 19 00 40 41 00 26 30 18 88
36 00 dc 2e 11 00 00 18 00 00 00 ff 00 30 0a 0a
0a 0a 0a 0a 0a 0a 0a 0a 0a 0a 00 00 00 fd 00 38
4b 1e 53 15 00 0a 20 20 20 20 20 20 00 00 00 fc
00 56 47 41 0a 0a 0a 0a 0a 0a 0a 0a 0a 0a 01 6a

----------------

Block 0, Base EDID:
  EDID Structure Version & Revision: 1.3
  Vendor & Product Identification:
    Manufacturer: DWE
    Model: 8448
    Serial Number: ...
    Made in: week 28 of 2009
  Basic Display Parameters & Features:
    Digital display
    DFP 1.x compatible TMDS
    Maximum image size: 47 cm x 26 cm
    Gamma: 2.20
    DPMS levels: Off
    RGB color display
    Default (sRGB) color space is primary color space
    First detailed timing is the preferred timing
  Color Characteristics:
    Red  : 0.6484, 0.3388
    Green: 0.2822, 0.6025
    Blue : 0.1425, 0.0703
    White: 0.3134, 0.3291
  Established Timings I & II:
    IBM     :   720x400    70.081663 Hz   9:5     31.467 kHz     28.320000 MHz
    DMT 0x04:   640x480    59.940476 Hz   4:3     31.469 kHz     25.175000 MHz
    DMT 0x05:   640x480    72.808802 Hz   4:3     37.861 kHz     31.500000 MHz
    DMT 0x06:   640x480    75.000000 Hz   4:3     37.500 kHz     31.500000 MHz
    DMT 0x08:   800x600    56.250000 Hz   4:3     35.156 kHz     36.000000 MHz
    DMT 0x09:   800x600    60.316541 Hz   4:3     37.879 kHz     40.000000 MHz
    DMT 0x0a:   800x600    72.187572 Hz   4:3     48.077 kHz     50.000000 MHz
    DMT 0x0b:   800x600    75.000000 Hz   4:3     46.875 kHz     49.500000 MHz
    Apple   :   832x624    74.551266 Hz   4:3     49.726 kHz     57.284000 MHz
    DMT 0x10:  1024x768    60.003840 Hz   4:3     48.363 kHz     65.000000 MHz
    DMT 0x11:  1024x768    70.069359 Hz   4:3     56.476 kHz     75.000000 MHz
    DMT 0x12:  1024x768    75.028582 Hz   4:3     60.023 kHz     78.750000 MHz
    DMT 0x24:  1280x1024   75.024675 Hz   5:4     79.976 kHz    135.000000 MHz
  Standard Timings: none
  Detailed Timing Descriptors:
    DTD 1:  1024x600    59.821429 Hz 128:75    37.388 kHz     50.250000 MHz (476 mm x 268 mm)
                 Hfront   44 Hsync  88 Hback  188 Hpol P
                 Vfront    3 Vsync   6 Vback   16 Vpol N
    Display Product Serial Number: ...
    Display Range Limits:
      Monitor ranges (GTF): 56-75 Hz V, 30-83 kHz H, max dotclock 210 MHz
    Display Product Name: 'HDMI'
  Extension blocks: 1
Checksum: 0xf9

----------------

Block 1, Unknown EDID Extension Block 0x00:
  00 ff ff ff ff ff ff 00 12 e5 00 21 50 2d 31 01 '...........!P-1.'
  1c 13 01 03 81 2f 1a 78 2e 35 85 a6 56 48 9a 24 '...../.x.5..VH.$'
  12 50 54 af ee 00 01 01 01 01 01 01 01 01 01 01 '.PT.............'
  01 01 01 01 01 01 64 19 00 40 41 00 26 30 18 88 '......d..@A.&0..'
  36 00 dc 2e 11 00 00 18 00 00 00 ff 00 30 0a 0a '6............0..'
  0a 0a 0a 0a 0a 0a 0a 0a 0a 0a 00 00 00 fd 00 38 '...............8'
  4b 1e 53 15 00 0a 20 20 20 20 20 20 00 00 00 fc 'K.S...      ....'
  00 56 47 41 0a 0a 0a 0a 0a 0a 0a 0a 0a 0a 01 6a '.VGA...........j'
Checksum: 0x6a

----------------

Failures:

Block 0, Base EDID:
  Basic Display Parameters & Features: sRGB is signaled, but the chromaticities do not match.
  Display Product Serial Number: ...
  Display Product Name: Non-space after newline.
Block 1, Base EDID:
  Unknown Extension Block.

EDID conformity: FAIL
