edid-decode (hex):

00 ff ff ff ff ff ff 00 30 ae b7 41 00 00 00 00
00 20 01 04 a5 22 16 78 e7 ce 2a a8 55 48 a0 23
0d 50 56 00 00 00 01 01 01 01 01 01 01 01 01 01
01 01 01 01 01 01 8c 3c 80 a0 70 b0 28 40 30 20
a5 00 58 d7 10 00 00 18 00 00 00 fd 00 28 3c 4b
4b 10 01 0a 20 20 20 20 20 20 00 00 00 0f 00 d1
0a 3c d1 0a 28 28 0a 04 06 af 9b 8b 00 00 00 fe
00 42 31 36 30 55 41 4e 30 31 2e 4b 20 0a 00 85

00 ff ff ff ff ff ff 00 30 ae b7 41 00 00 00 00
00 20 01 04 a5 22 16 78 e7 ce 2a a8 55 48 a0 23
0d 50 56 00 00 00 01 01 01 01 01 01 01 01 01 01
01 01 01 01 01 01 8c 3c 80 a0 70 b0 28 40 30 20
a5 00 58 d7 10 00 00 18 00 00 00 fd 00 28 3c 4b
4b 10 01 0a 20 20 20 20 20 20 00 00 00 0f 00 d1
0a 3c d1 0a 28 28 0a 04 06 af 9b 8b 00 00 00 fe
00 42 31 36 30 55 41 4e 30 31 2e 4b 20 0a 00 85

----------------

Block 0, Base EDID:
  EDID Structure Version & Revision: 1.4
  Vendor & Product Identification:
    Manufacturer: LEN
    Model: 16823
    Made in: 2022
  Basic Display Parameters & Features:
    Digital display
    Bits per primary color channel: 8
    DisplayPort interface
    Maximum image size: 34 cm x 22 cm
    Gamma: 2.20
    DPMS levels: Standby Suspend Off
    Supported color formats: RGB 4:4:4
    Default (sRGB) color space is primary color space
    First detailed timing includes the native pixel format and preferred refresh rate
    Display is continuous frequency
  Color Characteristics:
    Red  : 0.6591, 0.3320
    Green: 0.2841, 0.6269
    Blue : 0.1367, 0.0527
    White: 0.3144, 0.3378
  Established Timings I & II: none
  Standard Timings: none
  Detailed Timing Descriptors:
    DTD 1:  1920x1200   60.096154 Hz  16:10    74.519 kHz    155.000000 MHz (344 mm x 215 mm)
                 Hfront   48 Hsync  32 Hback   80 Hpol N
                 Vfront   10 Vsync   5 Vback   25 Vpol N
    Display Range Limits:
      Monitor ranges (Bare Limits): 40-60 Hz V, 75-75 kHz H, max dotclock 160 MHz
    Manufacturer-Specified Display Descriptor (0x0f): 00 0f 00 d1 0a 3c d1 0a 28 28 0a 04 06 af 9b 8b '.....<..((......'
    Alphanumeric Data String: 'B160UAN01.K '
Checksum: 0x85

----------------

Block 1, Unknown EDID Extension Block 0x00:
  00 ff ff ff ff ff ff 00 30 ae b7 41 00 00 00 00 '........0..A....'
  00 20 01 04 a5 22 16 78 e7 ce 2a a8 55 48 a0 23 '. ...".x..*.UH.#'
  0d 50 56 00 00 00 01 01 01 01 01 01 01 01 01 01 '.PV.............'
  01 01 01 01 01 01 8c 3c 80 a0 70 b0 28 40 30 20 '.......<..p.(@0 '
  a5 00 58 d7 10 00 00 18 00 00 00 fd 00 28 3c 4b '..X..........(<K'
  4b 10 01 0a 20 20 20 20 20 20 00 00 00 0f 00 d1 'K...      ......'
  0a 3c d1 0a 28 28 0a 04 06 af 9b 8b 00 00 00 fe '.<..((..........'
  00 42 31 36 30 55 41 4e 30 31 2e 4b 20 0a 00 85 '.B160UAN01.K ...'
Checksum: 0x85

----------------

Warnings:

Block 0, Base EDID:
  Missing Display Product Name.

Failures:

Block 0, Base EDID:
  Basic Display Parameters & Features: sRGB is signaled, but the chromaticities do not match.
  Alphanumeric Data String: One or more trailing spaces.
Block 1, Base EDID:
  Unknown Extension Block.
EDID:
  Base EDID: EDID specified 0 extension block(s), but found 1 extension block(s).

EDID conformity: FAIL
