
EDID (hex):
00ffffffffffff0030e4880200000000
00130103902615780a4c959e594f9926
1c505400000001010101010101010101
0101010101012f2640b860840c303030
23007ed71000001a2f2640b860840c30
303023007ed71000001a000000fe0038
34464750803137335744310a00000000
000059012d0100000002010a20200063

Extracted contents:
header:          00 ff ff ff ff ff ff 00
serial number:   30 e4 88 02 00 00 00 00 00 13
version:         01 03
basic params:    90 26 15 78 0a
chroma info:     4c 95 9e 59 4f 99 26 1c 50 54
established:     00 00 00
standard:        01 01 01 01 01 01 01 01 01 01 01 01 01 01 01 01
descriptor 1:    2f 26 40 b8 60 84 0c 30 30 30 23 00 7e d7 10 00 00 1a
descriptor 2:    2f 26 40 b8 60 84 0c 30 30 30 23 00 7e d7 10 00 00 1a
descriptor 3:    00 00 00 fe 00 38 34 46 47 50 80 31 37 33 57 44 31 0a
descriptor 4:    00 00 00 00 00 00 59 01 2d 01 00 00 00 02 01 0a 20 20
extensions:      00
checksum:        63

EDID version: 1.3
Manufacturer: LGD Model 288 Serial Number --
Made in year 2009
Digital display
Maximum image size: 38 cm x 21 cm
Gamma: 2.20
RGB color display
First detailed timing is preferred timing
Display x,y Chromaticity:
  Red:   0.6181, 0.3476
  Green: 0.3115, 0.5976
  Blue:  0.1503, 0.1103
  White: 0.3134, 0.3291
Established timings supported:
Standard timings supported:
Detailed mode: Clock 97.750 MHz, 382 mm x 215 mm
               1600 1648 1696 1784 hborder 0
                900  902  905  912 vborder 0
               +hsync -vsync 
               VertFreq: 60 Hz, HorFreq: 54792 Hz
Detailed mode: Clock 97.750 MHz, 382 mm x 215 mm
               1600 1648 1696 1784 hborder 0
                900  902  905  912 vborder 0
               +hsync -vsync 
               VertFreq: 60 Hz, HorFreq: 54792 Hz
ASCII string: 84FGP
Manufacturer-specified data, tag 0
Checksum: 0x63 (valid)
EDID block does NOT conform to EDID 1.3!
	Digital display field contains garbage: 10
	Missing name descriptor
	Missing monitor ranges
	Detailed block string not properly terminated
