
EDID (hex):
00ffffffffffff0030e4400300000000
00150103802616780a6c159c59559927
18505400000001010101010101010101
0101010101012f2640b860840c303030
23007fd7100000190000000000000000
00000000000000000000000000fe004c
4720446973706c61790a2020000000fe
004c503137335744312d544c4134007e

Extracted contents:
header:          00 ff ff ff ff ff ff 00
serial number:   30 e4 40 03 00 00 00 00 00 15
version:         01 03
basic params:    80 26 16 78 0a
chroma info:     6c 15 9c 59 55 99 27 18 50 54
established:     00 00 00
standard:        01 01 01 01 01 01 01 01 01 01 01 01 01 01 01 01
descriptor 1:    2f 26 40 b8 60 84 0c 30 30 30 23 00 7f d7 10 00 00 19
descriptor 2:    00 00 00 00 00 00 00 00 00 00 00 00 00 00 00 00 00 00
descriptor 3:    00 00 00 fe 00 4c 47 20 44 69 73 70 6c 61 79 0a 20 20
descriptor 4:    00 00 00 fe 00 4c 50 31 37 33 57 44 31 2d 54 4c 41 34
extensions:      00
checksum:        7e

EDID version: 1.3
Manufacturer: LGD Model 340 Serial Number --
Made in year 2011
Digital display
Maximum image size: 38 cm x 22 cm
Gamma: 2.20
RGB color display
First detailed timing is preferred timing
Display x,y Chromaticity:
  Red:   0.6103, 0.3496
  Green: 0.3349, 0.5976
  Blue:  0.1523, 0.0947
  White: 0.3134, 0.3291
Established timings supported:
Standard timings supported:
Detailed mode: Clock 97.750 MHz, 383 mm x 215 mm
               1600 1648 1696 1784 hborder 0
                900  902  905  912 vborder 0
               -hsync -vsync 
               VertFreq: 60 Hz, HorFreq: 54792 Hz
Manufacturer-specified data, tag 0
ASCII string: LG Display
ASCII string: LP173WD1-TLA4
Checksum: 0x7e (valid)
EDID block does NOT conform to EDID 1.3!
	Missing name descriptor
	Missing monitor ranges
