
EDID (hex):
00ffffffffffff0048f4115201040000
05170104a5351e78228042ac5130b425
10505300000001010101010101010101
010101010101283680a070381f403020
350007442100001a222d80a070381f40
3020350007442100001a000000fe000a
202020202020202020202020000000fe
003139323078313038300a2020200016

edid-decode (hex):

00 ff ff ff ff ff ff 00 48 f4 11 52 01 04 00 00
05 17 01 04 a5 35 1e 78 22 80 42 ac 51 30 b4 25
10 50 53 00 00 00 01 01 01 01 01 01 01 01 01 01
01 01 01 01 01 01 28 36 80 a0 70 38 1f 40 30 20
35 00 07 44 21 00 00 1a 22 2d 80 a0 70 38 1f 40
30 20 35 00 07 44 21 00 00 1a 00 00 00 fe 00 0a
20 20 20 20 20 20 20 20 20 20 20 20 00 00 00 fe
00 31 39 32 30 78 31 30 38 30 0a 20 20 20 00 16

----------------

Block 0, Base EDID:
  EDID Structure Version & Revision: 1.4
  Vendor & Product Identification:
    Manufacturer: RGT
    Model: 21009
    Serial Number: 1025
    Made in: week 5 of 2013
  Basic Display Parameters & Features:
    Digital display
    Bits per primary color channel: 8
    DisplayPort interface
    Maximum image size: 53 cm x 30 cm
    Gamma: 2.20
    DPMS levels: Off
    Supported color formats: RGB 4:4:4
    First detailed timing includes the native pixel format and preferred refresh rate
  Color Characteristics:
    Red  : 0.6738, 0.3164
    Green: 0.1875, 0.7031
    Blue : 0.1455, 0.0625
    White: 0.3125, 0.3261
  Established Timings I & II: none
  Standard Timings: none
  Detailed Timing Descriptors:
    DTD 1:  1920x1080   59.994461 Hz  16:9     66.654 kHz    138.640000 MHz (519 mm x 324 mm)
                 Hfront   48 Hsync  32 Hback   80 Hpol P
                 Vfront    3 Vsync   5 Vback   23 Vpol N
    DTD 2:  1920x1080   49.998269 Hz  16:9     55.548 kHz    115.540000 MHz (519 mm x 324 mm)
                 Hfront   48 Hsync  32 Hback   80 Hpol P
                 Vfront    3 Vsync   5 Vback   23 Vpol N
    Alphanumeric Data String: ''
    Alphanumeric Data String: '1920x1080'
Checksum: 0x16
