edid-decode (hex):

00 ff ff ff ff ff ff 00 48 f4 11 52 01 04 00 00
05 17 01 04 a5 35 1e 78 02 80 42 ac 51 30 b4 25
10 50 53 00 00 00 01 01 01 01 01 01 01 01 01 01
01 01 01 01 01 01 28 36 80 a0 70 38 1f 40 30 20
35 00 07 44 21 00 00 1a 22 2d 80 a0 70 38 1f 40
30 20 35 00 07 44 21 00 00 1a 00 00 00 fe 00 0a
20 20 20 20 20 20 20 20 20 20 20 20 00 00 00 fe
00 31 39 32 30 78 31 30 38 30 0a 20 20 20 00 36

00 ff ff ff ff ff ff 00 48 f4 11 52 01 04 00 00
05 17 01 04 a5 35 1e 78 02 80 42 ac 51 30 b4 25
10 50 53 00 00 00 01 01 01 01 01 01 01 01 01 01
01 01 01 01 01 01 28 36 80 a0 70 38 1f 40 30 20
35 00 07 44 21 00 00 1a 22 2d 80 a0 70 38 1f 40
30 20 35 00 07 44 21 00 00 1a 00 00 00 fe 00 0a
20 20 20 20 20 20 20 20 20 20 20 20 00 00 00 fe
00 31 39 32 30 78 31 30 38 30 0a 20 20 20 00 36

----------------

Block 0, Base EDID:
  EDID Structure Version & Revision: 1.4
  Vendor & Product Identification:
    Manufacturer: RGT
    Model: 21009
    Serial Number: ...
    Made in: week 5 of 2013
  Basic Display Parameters & Features:
    Digital display
    Bits per primary color channel: 8
    DisplayPort interface
    Maximum image size: 53 cm x 30 cm
    Gamma: 2.20
    Supported color formats: RGB 4:4:4
    First detailed timing includes the native pixel format and preferred refresh rate
  Color Characteristics:
    Red  : 0.6738, 0.3164
    Green: 0.1875, 0.7031
    Blue : 0.1455, 0.0625
    White: 0.3125, 0.3261
  Established Timings I & II: none
  Standard Timings: none
  Detailed Timing Descriptors:
    DTD 1:  1920x1080   59.994461 Hz  16:9     66.654 kHz    138.640000 MHz (519 mm x 324 mm)
                 Hfront   48 Hsync  32 Hback   80 Hpol P
                 Vfront    3 Vsync   5 Vback   23 Vpol N
    DTD 2:  1920x1080   49.998269 Hz  16:9     55.548 kHz    115.540000 MHz (519 mm x 324 mm)
                 Hfront   48 Hsync  32 Hback   80 Hpol P
                 Vfront    3 Vsync   5 Vback   23 Vpol N
    Alphanumeric Data String: ''
    Alphanumeric Data String: '1920x1080'
Checksum: 0x36

----------------

Block 1, Unknown EDID Extension Block 0x00:
  00 ff ff ff ff ff ff 00 48 f4 11 52 01 04 00 00 '........H..R....'
  05 17 01 04 a5 35 1e 78 02 80 42 ac 51 30 b4 25 '.....5.x..B.Q0.%'
  10 50 53 00 00 00 01 01 01 01 01 01 01 01 01 01 '.PS.............'
  01 01 01 01 01 01 28 36 80 a0 70 38 1f 40 30 20 '......(6..p8.@0 '
  35 00 07 44 21 00 00 1a 22 2d 80 a0 70 38 1f 40 '5..D!..."-..p8.@'
  30 20 35 00 07 44 21 00 00 1a 00 00 00 fe 00 0a '0 5..D!.........'
  20 20 20 20 20 20 20 20 20 20 20 20 00 00 00 fe '            ....'
  00 31 39 32 30 78 31 30 38 30 0a 20 20 20 00 36 '.1920x1080.   .6'
Checksum: 0x36

----------------

Warnings:

Block 0, Base EDID:
  Missing Display Product Name.

Failures:

Block 0, Base EDID:
  Detailed Timing Descriptor #1: Mismatch of image size 519x324 mm vs display size 530x300 mm.
  Detailed Timing Descriptor #2: Mismatch of image size 519x324 mm vs display size 530x300 mm.
  Alphanumeric Data String: Empty string.
Block 1, Base EDID:
  Unknown Extension Block.
EDID:
  Base EDID: The DTD max image size is 519x324mm, which is larger than the display size 530.0x300.0mm.
  Base EDID: EDID specified 0 extension block(s), but found 1 extension block(s).

EDID conformity: FAIL
