
EDID (hex):
00ffffffffffff0015c3061610006031
050a01010e241d78e8eece9e544c9923
174d50bfef80455961597186714f7190
71598180814f000000ff003331363030
3031300a20202020000000fd00324b1b
500d000a202020202020000000fc004c
3636310a2020202020202020000000fe
000a2020202020202020202020200027

Extracted contents:
header:          00 ff ff ff ff ff ff 00
serial number:   15 c3 06 16 10 00 60 31 05 0a
version:         01 01
basic params:    0e 24 1d 78 e8
chroma info:     ee ce 9e 54 4c 99 23 17 4d 50
established:     bf ef 80
standard:        45 59 61 59 71 86 71 4f 71 90 71 59 81 80 81 4f
descriptor 1:    00 00 00 ff 00 33 31 36 30 30 30 31 30 0a 20 20 20 20
descriptor 2:    00 00 00 fd 00 32 4b 1b 50 0d 00 0a 20 20 20 20 20 20
descriptor 3:    00 00 00 fc 00 4c 36 36 31 0a 20 20 20 20 20 20 20 20
descriptor 4:    00 00 00 fe 00 0a 20 20 20 20 20 20 20 20 20 20 20 20
extensions:      00
checksum:        27

EDID version: 1.1
Manufacturer: ENC Model 1606 Serial Number --
Analog display, Input voltage level: 0.7/0.3 V
Sync: Separate Composite SyncOnGreen 
Maximum image size: 36 cm x 29 cm
Gamma: 2.20
DPMS levels: Standby Suspend Off
RGB color display
Display x,y Chromaticity:
  Red:   0.6201, 0.3300
  Green: 0.2998, 0.5996
  Blue:  0.1396, 0.0898
  White: 0.3037, 0.3144
Established timings supported:
  720x400@70Hz 9:5 HorFreq: 31469 Hz Clock: 28.320 MHz
  640x480@60Hz 4:3 HorFreq: 31469 Hz Clock: 25.175 MHz
  640x480@67Hz 4:3 HorFreq: 35000 Hz Clock: 30.240 MHz
  640x480@72Hz 4:3 HorFreq: 37900 Hz Clock: 31.500 MHz
  640x480@75Hz 4:3 HorFreq: 37500 Hz Clock: 31.500 MHz
  800x600@56Hz 4:3 HorFreq: 35200 Hz Clock: 36.000 MHz
  800x600@60Hz 4:3 HorFreq: 37900 Hz Clock: 40.000 MHz
  800x600@72Hz 4:3 HorFreq: 48100 Hz Clock: 50.000 MHz
  800x600@75Hz 4:3 HorFreq: 46900 Hz Clock: 49.500 MHz
  832x624@75Hz 4:3 HorFreq: 49726 Hz Clock: 57.284 MHz
  1024x768@60Hz 4:3 HorFreq: 48400 Hz Clock: 65.000 MHz
  1024x768@70Hz 4:3 HorFreq: 56500 Hz Clock: 75.000 MHz
  1024x768@75Hz 4:3 HorFreq: 60000 Hz Clock: 78.750 MHz
  1280x1024@75Hz 5:4 HorFreq: 80000 Hz Clock: 135.000 MHz
  1152x870@75Hz 192:145 HorFreq: 67500 Hz Clock: 108.000 MHz
Standard timings supported:
  800x600@85Hz 4:3 HorFreq: 53700 Hz Clock: 56.250 MHz
  1024x768@85Hz 4:3 HorFreq: 68700 Hz Clock: 94.500 MHz
  1152x921@66Hz 5:4
  1152x864@75Hz 4:3 HorFreq: 67500 Hz Clock: 108.000 MHz
  1152x921@76Hz 5:4
  1152x864@85Hz 4:3
  1280x1024@60Hz 5:4 HorFreq: 64000 Hz Clock: 108.000 MHz
  1280x960@75Hz 4:3
Serial number: --
Monitor ranges (GTF): 50-75Hz V, 27-80kHz H, max dotclock 130MHz
Monitor name: L661
ASCII string: 
Checksum: 0x27 (valid)
EDID block does NOT conform to EDID 1.0!
	Has descriptor blocks other than detailed timings
One or more of the timings is out of range of the Monitor Ranges:
  Vertical Freq: 56 - 85 Hz
  Horizontal Freq: 31469 - 80000 Hz
  Maximum Clock: 135.000 MHz
EDID block does not conform at all!
	Bad year of manufacture
