
EDID (hex):
00ffffffffffff0015c3971901010101
221301036c342178ea9ef5a6564b9a25
125054afcf00a940a94fb30081808140
714f010101017d4b80a072b02d4088c8
360007442100001c000000ff00333239
30303038390a20202020000000fd0037
4c1f5e15000a202020202020000000fc
005332343032570a2020202020200076

Extracted contents:
header:          00 ff ff ff ff ff ff 00
serial number:   15 c3 97 19 01 01 01 01 22 13
version:         01 03
basic params:    6c 34 21 78 ea
chroma info:     9e f5 a6 56 4b 9a 25 12 50 54
established:     af cf 00
standard:        a9 40 a9 4f b3 00 81 80 81 40 71 4f 01 01 01 01
descriptor 1:    7d 4b 80 a0 72 b0 2d 40 88 c8 36 00 07 44 21 00 00 1c
descriptor 2:    00 00 00 ff 00 33 32 39 30 30 30 38 39 0a 20 20 20 20
descriptor 3:    00 00 00 fd 00 37 4c 1f 5e 15 00 0a 20 20 20 20 20 20
descriptor 4:    00 00 00 fc 00 53 32 34 30 32 57 0a 20 20 20 20 20 20
extensions:      00
checksum:        76

EDID version: 1.3
Manufacturer: ENC Model 1997 Serial Number --
Made in week 34 of 2009
Analog display, Input voltage level: 0.7/0.7 V
Sync: Separate Composite 
Maximum image size: 52 cm x 33 cm
Gamma: 2.20
DPMS levels: Standby Suspend Off
RGB color display
First detailed timing is preferred timing
Display x,y Chromaticity:
  Red:   0.6503, 0.3369
  Green: 0.2958, 0.6035
  Blue:  0.1474, 0.0732
  White: 0.3134, 0.3291
Established timings supported:
  720x400@70Hz 9:5 HorFreq: 31469 Hz Clock: 28.320 MHz
  640x480@60Hz 4:3 HorFreq: 31469 Hz Clock: 25.175 MHz
  640x480@72Hz 4:3 HorFreq: 37900 Hz Clock: 31.500 MHz
  640x480@75Hz 4:3 HorFreq: 37500 Hz Clock: 31.500 MHz
  800x600@56Hz 4:3 HorFreq: 35200 Hz Clock: 36.000 MHz
  800x600@60Hz 4:3 HorFreq: 37900 Hz Clock: 40.000 MHz
  800x600@72Hz 4:3 HorFreq: 48100 Hz Clock: 50.000 MHz
  800x600@75Hz 4:3 HorFreq: 46900 Hz Clock: 49.500 MHz
  1024x768@60Hz 4:3 HorFreq: 48400 Hz Clock: 65.000 MHz
  1024x768@70Hz 4:3 HorFreq: 56500 Hz Clock: 75.000 MHz
  1024x768@75Hz 4:3 HorFreq: 60000 Hz Clock: 78.750 MHz
  1280x1024@75Hz 5:4 HorFreq: 80000 Hz Clock: 135.000 MHz
Standard timings supported:
  1600x1200@60Hz 4:3 HorFreq: 75000 Hz Clock: 162.000 MHz
  1600x1200@75Hz 4:3 HorFreq: 93800 Hz Clock: 202.500 MHz
  1680x1050@60Hz 16:10 HorFreq: 64700 Hz Clock: 119.000 MHz
  1280x1024@60Hz 5:4 HorFreq: 64000 Hz Clock: 108.000 MHz
  1280x960@60Hz 4:3 HorFreq: 60000 Hz Clock: 108.000 MHz
  1152x864@75Hz 4:3 HorFreq: 67500 Hz Clock: 108.000 MHz
Detailed mode: Clock 193.250 MHz, 519 mm x 324 mm
               1920 2056 2256 2592 hborder 0
               1200 1203 1209 1245 vborder 0
               -hsync +vsync 
               VertFreq: 59 Hz, HorFreq: 74556 Hz
Serial number: --
Monitor ranges (GTF): 55-76Hz V, 31-94kHz H, max dotclock 210MHz
Monitor name: S2402W
Checksum: 0x76 (valid)
