
EDID (hex):
00ffffffffffff004c2d9d0700000000
29150103803c22782a6041a6564a9c25
12505400000001010101010101010101
010101010101023a801871382d40582c
450056502100001e866f80a070384040
3020350056502100005a000000fd0018
781a8c1e000a202020202020000000fc
0053323741393530440a2020202001bd
02010400fe5b80a07038354030203500
56502100005a00000000000000000000
00000000000000000000000000000000
00000000000000000000000000000000
00000000000000000000000000000000
00000000000000000000000000000000
00000000000000000000000000000000
000000000000000000000000000000bd

Extracted contents:
header:          00 ff ff ff ff ff ff 00
serial number:   4c 2d 9d 07 00 00 00 00 29 15
version:         01 03
basic params:    80 3c 22 78 2a
chroma info:     60 41 a6 56 4a 9c 25 12 50 54
established:     00 00 00
standard:        01 01 01 01 01 01 01 01 01 01 01 01 01 01 01 01
descriptor 1:    02 3a 80 18 71 38 2d 40 58 2c 45 00 56 50 21 00 00 1e
descriptor 2:    86 6f 80 a0 70 38 40 40 30 20 35 00 56 50 21 00 00 5a
descriptor 3:    00 00 00 fd 00 18 78 1a 8c 1e 00 0a 20 20 20 20 20 20
descriptor 4:    00 00 00 fc 00 53 32 37 41 39 35 30 44 0a 20 20 20 20
extensions:      01
checksum:        bd

EDID version: 1.3
Manufacturer: SAM Model 79d Serial Number --
Made in week 41 of 2011
Digital display
Maximum image size: 60 cm x 34 cm
Gamma: 2.20
DPMS levels: Off
RGB color display
First detailed timing is preferred timing
Display x,y Chromaticity:
  Red:   0.6494, 0.3378
  Green: 0.2890, 0.6093
  Blue:  0.1455, 0.0703
  White: 0.3125, 0.3291
Established timings supported:
Standard timings supported:
Detailed mode: Clock 148.500 MHz, 598 mm x 336 mm
               1920 2008 2052 2200 hborder 0
               1080 1084 1089 1125 vborder 0
               +hsync +vsync 
               VertFreq: 60 Hz, HorFreq: 67500 Hz
Detailed mode: Clock 285.500 MHz, 598 mm x 336 mm
               1920 1968 2000 2080 hborder 0
               1080 1083 1088 1144 vborder 0
               +hsync -vsync field sequential R/L
               VertFreq: 119 Hz, HorFreq: 137259 Hz
Monitor ranges (GTF): 24-120Hz V, 26-140kHz H, max dotclock 300MHz
Monitor name: S27A950D
Has 1 extension blocks
Checksum: 0xbd (valid)

CTA extension block
Extension version: 1
0 8-byte timing descriptors
Detailed mode: Clock 235.500 MHz, 598 mm x 336 mm
               1920 1968 2000 2080 hborder 0
               1080 1083 1088 1133 vborder 0
               +hsync -vsync field sequential R/L
               VertFreq: 99 Hz, HorFreq: 113221 Hz
Checksum: 0xbd (valid)

EDID block does NOT conform to EDID 1.3!
	Required 640x480p60 timings are missing in the established timings
	and/or in the SVD list (VIC 1)
