
EDID (hex):
00ffffffffffff0030e46e0200000000
0013010380160d780acfc59559548c27
1e505400000001010101010101010101
0101010101012c15009a41581e203020
3600e07e0000001b0000000000000000
00000000000000000000000000fe004c
4720446973706c61790a2020000000fc
004c503130315753422d544c4e310007

Extracted contents:
header:          00 ff ff ff ff ff ff 00
serial number:   30 e4 6e 02 00 00 00 00 00 13
version:         01 03
basic params:    80 16 0d 78 0a
chroma info:     cf c5 95 59 54 8c 27 1e 50 54
established:     00 00 00
standard:        01 01 01 01 01 01 01 01 01 01 01 01 01 01 01 01
descriptor 1:    2c 15 00 9a 41 58 1e 20 30 20 36 00 e0 7e 00 00 00 1b
descriptor 2:    00 00 00 00 00 00 00 00 00 00 00 00 00 00 00 00 00 00
descriptor 3:    00 00 00 fe 00 4c 47 20 44 69 73 70 6c 61 79 0a 20 20
descriptor 4:    00 00 00 fc 00 4c 50 31 30 31 57 53 42 2d 54 4c 4e 31
extensions:      00
checksum:        07

EDID version: 1.3
Manufacturer: LGD Model 26e Serial Number --
Made in year 2009
Digital display
Maximum image size: 22 cm x 13 cm
Gamma: 2.20
RGB color display
First detailed timing is preferred timing
Display x,y Chromaticity:
  Red:   0.5849, 0.3476
  Green: 0.3310, 0.5498
  Blue:  0.1552, 0.1171
  White: 0.3134, 0.3291
Established timings supported:
Standard timings supported:
Detailed mode: Clock 54.200 MHz, 224 mm x 126 mm
               1024 1072 1104 1434 hborder 0
                600  603  609  630 vborder 0
               +hsync -vsync 
               VertFreq: 59 Hz, HorFreq: 37796 Hz
Manufacturer-specified data, tag 0
ASCII string: LG Display
Checksum: 0x7 (valid)
EDID block does NOT conform to EDID 1.3!
	Name descriptor not terminated with a newline
	Missing monitor ranges
