edid-decode (hex):

00 ff ff ff ff ff ff 00 3d d8 01 00 11 11 00 00
0c 1f 01 03 80 1b 14 78 2a 08 a1 a2 57 4f a2 28
0f 50 54 00 00 00 01 01 01 01 01 01 01 01 01 01
01 01 01 01 01 01 1a 3b 98 a0 80 72 25 60 30 20
36 00 0f cb 10 00 00 1e 00 00 00 ff 00 32 30 32
31 30 35 0a 20 20 20 20 20 20 00 00 00 fc 00 4d
69 72 61 31 33 33 0a 20 20 20 20 20 00 00 00 fd
00 14 56 0d 71 1e 00 0a 20 20 20 20 20 20 01 b7

02 03 17 01 40 23 09 07 07 83 01 00 00 65 03 0c
00 10 00 e3 05 00 00 b8 24 80 18 71 38 2d 40 58
2c 25 00 0f cb 10 00 00 1e 34 21 40 a0 60 b0 47
40 30 20 34 00 0f cb 10 00 00 9e c2 15 00 a0 50
c0 39 30 30 20 34 00 0f cb 10 00 00 1e 4c 0e 00
a0 40 00 2d 30 30 20 34 00 0f cb 10 00 00 18 00
00 00 00 00 00 00 00 00 00 00 00 00 00 00 00 00
00 00 00 00 00 00 00 00 00 00 00 00 00 00 00 cd

00 ff ff ff ff ff ff 00 3d d8 01 00 11 11 00 00
0c 1f 01 03 80 1b 14 78 2a 08 a1 a2 57 4f a2 28
0f 50 54 00 00 00 01 01 01 01 01 01 01 01 01 01
01 01 01 01 01 01 1a 3b 98 a0 80 72 25 60 30 20
36 00 0f cb 10 00 00 1e 00 00 00 ff 00 32 30 32
31 30 35 0a 20 20 20 20 20 20 00 00 00 fc 00 4d
69 72 61 31 33 33 0a 20 20 20 20 20 00 00 00 fd
00 14 56 0d 71 1e 00 0a 20 20 20 20 20 20 01 b7

02 03 17 01 40 23 09 07 07 83 01 00 00 65 03 0c
00 10 00 e3 05 00 00 b8 24 80 18 71 38 2d 40 58
2c 25 00 0f cb 10 00 00 1e 34 21 40 a0 60 b0 47
40 30 20 34 00 0f cb 10 00 00 9e c2 15 00 a0 50
c0 39 30 30 20 34 00 0f cb 10 00 00 1e 4c 0e 00
a0 40 00 2d 30 30 20 34 00 0f cb 10 00 00 18 00
00 00 00 00 00 00 00 00 00 00 00 00 00 00 00 00
00 00 00 00 00 00 00 00 00 00 00 00 00 00 00 cd

----------------

Block 0, Base EDID:
  EDID Structure Version & Revision: 1.3
  Vendor & Product Identification:
    Manufacturer: ONX
    Model: 1
    Serial Number: ...
    Made in: week 12 of 2021
  Basic Display Parameters & Features:
    Digital display
    Maximum image size: 27 cm x 20 cm
    Gamma: 2.20
    DPMS levels: Off
    RGB color display
    First detailed timing is the preferred timing
  Color Characteristics:
    Red  : 0.6328, 0.3398
    Green: 0.3105, 0.6328
    Blue : 0.1582, 0.0605
    White: 0.3125, 0.3291
  Established Timings I & II: none
  Standard Timings: none
  Detailed Timing Descriptors:
    DTD 1:  2200x1650   38.002472 Hz   4:3     64.110 kHz    151.300000 MHz (271 mm x 203 mm)
                 Hfront   48 Hsync  32 Hback   80 Hpol P
                 Vfront    3 Vsync   6 Vback   28 Vpol P
    Display Product Serial Number: ...
    Display Product Name: 'Mira133'
    Display Range Limits:
      Monitor ranges (GTF): 20-86 Hz V, 13-113 kHz H, max dotclock 300 MHz
  Extension blocks: 1
Checksum: 0xb7

----------------

Block 1, CTA-861 Extension Block:
  Revision: 3
  Native detailed modes: 1
  Video Data Block:
  Audio Data Block:
    Linear PCM:
      Max channels: 2
      Supported sample rates (kHz): 48 44.1 32
      Supported sample sizes (bits): 24 20 16
  Speaker Allocation Data Block:
    FL/FR - Front Left/Right
  Vendor-Specific Data Block (HDMI), OUI 00-0C-03:
    Source physical address: 1.0.0.0
  Colorimetry Data Block:
  Detailed Timing Descriptors:
    DTD 2:  1920x1080   37.979798 Hz  16:9     42.727 kHz     94.000000 MHz (271 mm x 203 mm)
                 Hfront   88 Hsync  44 Hback  148 Hpol P
                 Vfront    2 Vsync   5 Vback   38 Vpol P
    DTD 3:  1600x2400i  37.983055 Hz   2:3     48.295 kHz     85.000000 MHz (271 mm x 203 mm)
                 Hfront   48 Hsync  32 Hback   80 Hpol P
                 Vfront    3 Vsync   4 Vback   64 Vpol P Vfront +0.5 Odd Field
                 Vfront    3 Vsync   4 Vback   64 Vpol P Vback  +0.5 Even Field
    DTD 4:  1280x960    38.033978 Hz   4:3     38.681 kHz     55.700000 MHz (271 mm x 203 mm)
                 Hfront   48 Hsync  32 Hback   80 Hpol P
                 Vfront    3 Vsync   4 Vback   50 Vpol P
    DTD 5:  1024x768    38.022340 Hz   4:3     30.912 kHz     36.600000 MHz (271 mm x 203 mm)
                 Hfront   48 Hsync  32 Hback   80 Hpol N
                 Vfront    3 Vsync   4 Vback   38 Vpol N
Checksum: 0xcd  Unused space in Extension Block: 32 bytes

----------------

Block 2, Unknown EDID Extension Block 0x00:
  00 ff ff ff ff ff ff 00 3d d8 01 00 11 11 00 00 '........=.......'
  0c 1f 01 03 80 1b 14 78 2a 08 a1 a2 57 4f a2 28 '.......x*...WO.('
  0f 50 54 00 00 00 01 01 01 01 01 01 01 01 01 01 '.PT.............'
  01 01 01 01 01 01 1a 3b 98 a0 80 72 25 60 30 20 '.......;...r%`0 '
  36 00 0f cb 10 00 00 1e 00 00 00 ff 00 32 30 32 '6............202'
  31 30 35 0a 20 20 20 20 20 20 00 00 00 fc 00 4d '105.      .....M'
  69 72 61 31 33 33 0a 20 20 20 20 20 00 00 00 fd 'ira133.     ....'
  00 14 56 0d 71 1e 00 0a 20 20 20 20 20 20 01 b7 '..V.q...      ..'
Checksum: 0xb7

----------------

Block 3, CTA-861 Extension Block:
  Revision: 3
  Native detailed modes: 1
  Video Data Block:
  Audio Data Block:
    Linear PCM:
      Max channels: 2
      Supported sample rates (kHz): 48 44.1 32
      Supported sample sizes (bits): 24 20 16
  Speaker Allocation Data Block:
    FL/FR - Front Left/Right
  Vendor-Specific Data Block (HDMI), OUI 00-0C-03:
    Source physical address: 1.0.0.0
  Colorimetry Data Block:
  Detailed Timing Descriptors:
    DTD 6:  1920x1080   37.979798 Hz  16:9     42.727 kHz     94.000000 MHz (271 mm x 203 mm)
                 Hfront   88 Hsync  44 Hback  148 Hpol P
                 Vfront    2 Vsync   5 Vback   38 Vpol P
    DTD 7:  1600x2400i  37.983055 Hz   2:3     48.295 kHz     85.000000 MHz (271 mm x 203 mm)
                 Hfront   48 Hsync  32 Hback   80 Hpol P
                 Vfront    3 Vsync   4 Vback   64 Vpol P Vfront +0.5 Odd Field
                 Vfront    3 Vsync   4 Vback   64 Vpol P Vback  +0.5 Even Field
    DTD 8:  1280x960    38.033978 Hz   4:3     38.681 kHz     55.700000 MHz (271 mm x 203 mm)
                 Hfront   48 Hsync  32 Hback   80 Hpol P
                 Vfront    3 Vsync   4 Vback   50 Vpol P
    DTD 9:  1024x768    38.022340 Hz   4:3     30.912 kHz     36.600000 MHz (271 mm x 203 mm)
                 Hfront   48 Hsync  32 Hback   80 Hpol N
                 Vfront    3 Vsync   4 Vback   38 Vpol N
Checksum: 0xcd  Unused space in Extension Block: 32 bytes

----------------

Warnings:

Block 1, CTA-861 Extension Block:
  IT Video Formats are overscanned by default, but normally this should be underscanned.
  Colorimetry Data Block: Set the sRGB colorimetry bit to avoid interop issues.
  Display Product Serial Number is set, so the Serial Number in the Base EDID should be 0.
Block 3, CTA-861 Extension Block:
  IT Video Formats are overscanned by default, but normally this should be underscanned.
  Colorimetry Data Block: Set the sRGB colorimetry bit to avoid interop issues.
  Display Product Serial Number is set, so the Serial Number in the Base EDID should be 0.

Failures:

Block 1, CTA-861 Extension Block:
  Audio Data Block: Audio information is present, but bit 6 of Byte 3 of the CTA-861 Extension header indicates no Basic Audio support.
  Speaker Allocation Data Block: Audio information is present, but bit 6 of Byte 3 of the CTA-861 Extension header indicates no Basic Audio support.
  Required 640x480p60 timings are missing in the established timings and the SVD list (VIC 1).
  Missing VCDB, needed for Set Selectable RGB Quantization to avoid interop issues.
Block 2, Base EDID:
  Unknown Extension Block.
Block 3, CTA-861 Extension Block:
  Audio Data Block: Audio information is present, but bit 6 of Byte 3 of the CTA-861 Extension header indicates no Basic Audio support.
  Speaker Allocation Data Block: Only one instance of this Data Block is allowed.
  Speaker Allocation Data Block: Audio information is present, but bit 6 of Byte 3 of the CTA-861 Extension header indicates no Basic Audio support.
  Colorimetry Data Block: Only one instance of this Data Block is allowed.
  Required 640x480p60 timings are missing in the established timings and the SVD list (VIC 1).
  Missing VCDB, needed for Set Selectable RGB Quantization to avoid interop issues.
EDID:
  Base EDID: EDID specified 1 extension block(s), but found 3 extension block(s).
  Base EDID: EDID 1.3 requires a Block Map Extension in Block 1 if there are more than 2 blocks in the EDID.

EDID conformity: FAIL
