
EDID (hex):
00ffffffffffff0030e4590600000000
001d0104b51f1478eaaec5a4544a9c25
0e505400000001010101010101010101
010101010101ec6800a0a0402e603020
360038c31000001afc5300a0a0402e60
3020360038c31000001a000000fe0046
44473544803134355751310a00000000
000341319e001000000a010a2020001d

Extracted contents:
header:          00 ff ff ff ff ff ff 00
serial number:   30 e4 59 06 00 00 00 00 00 1d
version:         01 04
basic params:    b5 1f 14 78 ea
chroma info:     ae c5 a4 54 4a 9c 25 0e 50 54
established:     00 00 00
standard:        01 01 01 01 01 01 01 01 01 01 01 01 01 01 01 01
descriptor 1:    ec 68 00 a0 a0 40 2e 60 30 20 36 00 38 c3 10 00 00 1a
descriptor 2:    fc 53 00 a0 a0 40 2e 60 30 20 36 00 38 c3 10 00 00 1a
descriptor 3:    00 00 00 fe 00 46 44 47 35 44 80 31 34 35 57 51 31 0a
descriptor 4:    00 00 00 00 00 03 41 31 9e 00 10 00 00 0a 01 0a 20 20
extensions:      00
checksum:        1d

EDID version: 1.4
Manufacturer: LGD Model 659 Serial Number --
Made in year 2019
Digital display
10 bits per primary color channel
DisplayPort interface
Maximum image size: 31 cm x 20 cm
Gamma: 2.20
DPMS levels: Standby Suspend Off
Supported color formats: RGB 4:4:4, YCrCb 4:4:4
First detailed timing includes the native pixel format and preferred refresh rate
Display x,y Chromaticity:
  Red:   0.6425, 0.3300
  Green: 0.2919, 0.6113
  Blue:  0.1474, 0.0546
  White: 0.3134, 0.3291
Established timings supported:
Standard timings supported:
Detailed mode: Clock 268.600 MHz, 312 mm x 195 mm
               2560 2608 2640 2720 hborder 0
               1600 1603 1609 1646 vborder 0
               +hsync -vsync 
               VertFreq: 59 Hz, HorFreq: 98750 Hz
Detailed mode: Clock 215.000 MHz, 312 mm x 195 mm
               2560 2608 2640 2720 hborder 0
               1600 1603 1609 1646 vborder 0
               +hsync -vsync 
               VertFreq: 48 Hz, HorFreq: 79044 Hz
ASCII string: FDG5D
Manufacturer-specified data, tag 0
Checksum: 0x1d (valid)
EDID block does NOT conform to EDID 1.4!
	Missing name descriptor
	Missing monitor ranges
	Detailed block string not properly terminated
