edid-decode (hex):

00 ff ff ff ff ff ff 00 30 e4 59 06 00 00 00 00
00 1d 01 04 b5 1f 14 78 ea ae c5 a4 54 4a 9c 25
0e 50 54 00 00 00 01 01 01 01 01 01 01 01 01 01
01 01 01 01 01 01 ec 68 00 a0 a0 40 2e 60 30 20
36 00 38 c3 10 00 00 1a fc 53 00 a0 a0 40 2e 60
30 20 36 00 38 c3 10 00 00 1a 00 00 00 fe 00 46
44 47 35 44 80 31 34 35 57 51 31 0a 00 00 00 00
00 03 41 31 9e 00 10 00 00 0a 01 0a 20 20 00 1d

----------------

Block 0, Base EDID:
  EDID Structure Version & Revision: 1.4
  Vendor & Product Identification:
    Manufacturer: LGD
    Model: 1625
    Made in: 2019
  Basic Display Parameters & Features:
    Digital display
    Bits per primary color channel: 10
    DisplayPort interface
    Maximum image size: 31 cm x 20 cm
    Gamma: 2.20
    DPMS levels: Standby Suspend Off
    Supported color formats: RGB 4:4:4, YCrCb 4:4:4
    First detailed timing includes the native pixel format and preferred refresh rate
  Color Characteristics:
    Red  : 0.6425, 0.3300
    Green: 0.2919, 0.6113
    Blue : 0.1474, 0.0546
    White: 0.3134, 0.3291
  Established Timings I & II: none
  Standard Timings: none
  Detailed Timing Descriptors:
    DTD 1:  2560x1600   59.993925 Hz   8:5     98.750 kHz    268.600000 MHz (312 mm x 195 mm)
                 Hfront   48 Hsync  32 Hback   80 Hpol P
                 Vfront    3 Vsync   6 Vback   37 Vpol N
    DTD 2:  2560x1600   48.021943 Hz   8:5     79.044 kHz    215.000000 MHz (312 mm x 195 mm)
                 Hfront   48 Hsync  32 Hback   80 Hpol P
                 Vfront    3 Vsync   6 Vback   37 Vpol N
    Alphanumeric Data String: 'FDG5D'
    Manufacturer-Specified Display Descriptor (0x00): 00 00 00 03 41 31 9e 00 10 00 00 0a 01 0a 20 20 '....A1........  '
Checksum: 0x1d

----------------

Failures:

Block 0, Base EDID:
  Alphanumeric Data String: Non-printable character.
  Missing Display Product Name.

EDID conformity: FAIL
