
EDID (hex):
00ffffffffffff0015c3572401010101
3017010380351e78ea219da35a52a026
144b54a54b00317c457c617c818081bc
d1c081c00101023a801871382d40582c
45000a262100001e000000ff00333030
37303131330a20202020000000fd003b
7a1f8a1d000a202020202020000000fc
004647323432310a20202020202001c3
02010400fe5b80a07038354030203500
0a262100001a866f80a0703840403020
35000a262100001a0000000000000000
00000000000000000000000000000000
00000000000000000000000000000000
00000000000000000000000000000000
00000000000000000000000000000000
00000000000000000000000000000046

Extracted contents:
header:          00 ff ff ff ff ff ff 00
serial number:   15 c3 57 24 01 01 01 01 30 17
version:         01 03
basic params:    80 35 1e 78 ea
chroma info:     21 9d a3 5a 52 a0 26 14 4b 54
established:     a5 4b 00
standard:        31 7c 45 7c 61 7c 81 80 81 bc d1 c0 81 c0 01 01
descriptor 1:    02 3a 80 18 71 38 2d 40 58 2c 45 00 0a 26 21 00 00 1e
descriptor 2:    00 00 00 ff 00 33 30 30 37 30 31 31 33 0a 20 20 20 20
descriptor 3:    00 00 00 fd 00 3b 7a 1f 8a 1d 00 0a 20 20 20 20 20 20
descriptor 4:    00 00 00 fc 00 46 47 32 34 32 31 0a 20 20 20 20 20 20
extensions:      01
checksum:        c3

EDID version: 1.3
Manufacturer: ENC Model 2457 Serial Number --
Made in week 48 of 2013
Digital display
Maximum image size: 53 cm x 30 cm
Gamma: 2.20
DPMS levels: Standby Suspend Off
RGB color display
First detailed timing is preferred timing
Display x,y Chromaticity:
  Red:   0.6367, 0.3535
  Green: 0.3203, 0.6259
  Blue:  0.1503, 0.0791
  White: 0.2958, 0.3291
Established timings supported:
  720x400@70Hz 9:5 HorFreq: 31469 Hz Clock: 28.320 MHz
  640x480@60Hz 4:3 HorFreq: 31469 Hz Clock: 25.175 MHz
  640x480@75Hz 4:3 HorFreq: 37500 Hz Clock: 31.500 MHz
  800x600@60Hz 4:3 HorFreq: 37900 Hz Clock: 40.000 MHz
  800x600@75Hz 4:3 HorFreq: 46900 Hz Clock: 49.500 MHz
  1024x768@60Hz 4:3 HorFreq: 48400 Hz Clock: 65.000 MHz
  1024x768@75Hz 4:3 HorFreq: 60000 Hz Clock: 78.750 MHz
  1280x1024@75Hz 5:4 HorFreq: 80000 Hz Clock: 135.000 MHz
Standard timings supported:
  640x480@120Hz 4:3
  800x600@120Hz 4:3
  1024x768@120Hz 4:3
  1280x1024@60Hz 5:4 HorFreq: 64000 Hz Clock: 108.000 MHz
  1280x1024@120Hz 5:4
  1920x1080@60Hz 16:9
  1280x720@60Hz 16:9
Detailed mode: Clock 148.500 MHz, 522 mm x 294 mm
               1920 2008 2052 2200 hborder 0
               1080 1084 1089 1125 vborder 0
               +hsync +vsync 
               VertFreq: 60 Hz, HorFreq: 67500 Hz
Serial number: --
Monitor ranges (GTF): 59-122Hz V, 31-138kHz H, max dotclock 290MHz
Monitor name: FG2421
Has 1 extension blocks
Checksum: 0xc3 (valid)

CTA extension block
Extension version: 1
0 8-byte timing descriptors
Detailed mode: Clock 235.500 MHz, 522 mm x 294 mm
               1920 1968 2000 2080 hborder 0
               1080 1083 1088 1133 vborder 0
               +hsync -vsync 
               VertFreq: 99 Hz, HorFreq: 113221 Hz
Detailed mode: Clock 285.500 MHz, 522 mm x 294 mm
               1920 1968 2000 2080 hborder 0
               1080 1083 1088 1144 vborder 0
               +hsync -vsync 
               VertFreq: 119 Hz, HorFreq: 137259 Hz
Checksum: 0x46 (valid)

EDID block does not conform at all!
	Both the serial number and the serial string are set
