
EDID (hex):
00ffffffffffff00244d931901010101
17090104a52018c8e29022a255499b27
11484fefce0031594559615981800101
0101010101019014c02c31111c200c6c
1a0032e61000001a000000fc0049424d
204737340a2020202020000000fd0032
781e450b000a202020202020000000ff
0032342d50483733370a2020202000cf

Extracted contents:
header:          00 ff ff ff ff ff ff 00
serial number:   24 4d 93 19 01 01 01 01 17 09
version:         01 04
basic params:    a5 20 18 c8 e2
chroma info:     90 22 a2 55 49 9b 27 11 48 4f
established:     ef ce 00
standard:        31 59 45 59 61 59 81 80 01 01 01 01 01 01 01 01
descriptor 1:    90 14 c0 2c 31 11 1c 20 0c 6c 1a 00 32 e6 10 00 00 1a
descriptor 2:    00 00 00 fc 00 49 42 4d 20 47 37 34 0a 20 20 20 20 20
descriptor 3:    00 00 00 fd 00 32 78 1e 45 0b 00 0a 20 20 20 20 20 20
descriptor 4:    00 00 00 ff 00 32 34 2d 50 48 37 33 37 0a 20 20 20 20
extensions:      00
checksum:        cf

EDID version: 1.4
Manufacturer: IBM Model 1993 Serial Number --
Digital display
8 bits per primary color channel
DisplayPort interface
Maximum image size: 32 cm x 24 cm
Gamma: 3.00
DPMS levels: Standby Suspend Off
Supported color formats: RGB 4:4:4
First detailed timing includes the native pixel format and preferred refresh rate
Display x,y Chromaticity:
  Red:   0.6347, 0.3330
  Green: 0.2851, 0.6054
  Blue:  0.1523, 0.0683
  White: 0.2812, 0.3105
Established timings supported:
  720x400@70Hz 9:5 HorFreq: 31469 Hz Clock: 28.320 MHz
  720x400@88Hz 9:5 HorFreq: 39500 Hz Clock: 35.500 MHz
  640x480@60Hz 4:3 HorFreq: 31469 Hz Clock: 25.175 MHz
  640x480@72Hz 4:3 HorFreq: 37900 Hz Clock: 31.500 MHz
  640x480@75Hz 4:3 HorFreq: 37500 Hz Clock: 31.500 MHz
  800x600@56Hz 4:3 HorFreq: 35200 Hz Clock: 36.000 MHz
  800x600@60Hz 4:3 HorFreq: 37900 Hz Clock: 40.000 MHz
  800x600@72Hz 4:3 HorFreq: 48100 Hz Clock: 50.000 MHz
  800x600@75Hz 4:3 HorFreq: 46900 Hz Clock: 49.500 MHz
  1024x768@60Hz 4:3 HorFreq: 48400 Hz Clock: 65.000 MHz
  1024x768@70Hz 4:3 HorFreq: 56500 Hz Clock: 75.000 MHz
  1024x768@75Hz 4:3 HorFreq: 60000 Hz Clock: 78.750 MHz
Standard timings supported:
  640x480@85Hz 4:3 HorFreq: 43300 Hz Clock: 36.000 MHz
  800x600@85Hz 4:3 HorFreq: 53700 Hz Clock: 56.250 MHz
  1024x768@85Hz 4:3 HorFreq: 68700 Hz Clock: 94.500 MHz
  1280x1024@60Hz 5:4 HorFreq: 64000 Hz Clock: 108.000 MHz
Detailed mode: Clock 52.640 MHz, 306 mm x 230 mm
                960  972 1080 1260 hborder 0
                529  530  540  557 vborder 0
               +hsync -vsync 
               VertFreq: 75 Hz, HorFreq: 41777 Hz
Monitor name: IBM G74
Monitor ranges (GTF): 50-120Hz V, 30-69kHz H, max dotclock 110MHz
Serial number: --
Checksum: 0xcf (valid)
EDID block does not conform at all!
	Bad year of manufacture
