edid-decode (hex):

00 ff ff ff ff ff ff 00 09 e5 61 09 00 00 00 00
01 1e 01 04 a5 1e 13 78 03 da 25 a7 54 4b 99 25
10 50 54 00 00 00 01 01 01 01 01 01 01 01 01 01
01 01 01 01 01 01 9c 3e 80 c8 70 b0 3c 40 30 20
36 00 2e bc 10 00 00 1a bc 29 80 c8 70 b0 3c 40
30 20 36 00 2d bc 10 00 00 00 00 00 00 fe 00 42
4f 45 20 42 38 0a 20 20 20 20 20 20 00 00 00 fe
00 4e 45 31 34 30 57 55 4d 2d 4e 36 33 0a 00 8d

00 ff ff ff ff ff ff 00 09 e5 61 09 00 00 00 00
01 1e 01 04 a5 1e 13 78 03 da 25 a7 54 4b 99 25
10 50 54 00 00 00 01 01 01 01 01 01 01 01 01 01
01 01 01 01 01 01 9c 3e 80 c8 70 b0 3c 40 30 20
36 00 2e bc 10 00 00 1a bc 29 80 c8 70 b0 3c 40
30 20 36 00 2d bc 10 00 00 00 00 00 00 fe 00 42
4f 45 20 42 38 0a 20 20 20 20 20 20 00 00 00 fe
00 4e 45 31 34 30 57 55 4d 2d 4e 36 33 0a 00 8d

----------------

Block 0, Base EDID:
  EDID Structure Version & Revision: 1.4
  Vendor & Product Identification:
    Manufacturer: BOE
    Model: 2401
    Made in: week 1 of 2020
  Basic Display Parameters & Features:
    Digital display
    Bits per primary color channel: 8
    DisplayPort interface
    Maximum image size: 30 cm x 19 cm
    Gamma: 2.20
    Supported color formats: RGB 4:4:4
    First detailed timing includes the native pixel format and preferred refresh rate
    Display is continuous frequency
  Color Characteristics:
    Red  : 0.6552, 0.3291
    Green: 0.2949, 0.5996
    Blue : 0.1445, 0.0644
    White: 0.3134, 0.3291
  Established Timings I & II: none
  Standard Timings: none
  Detailed Timing Descriptors:
    DTD 1:  1920x1200   60.002995 Hz  16:10    75.604 kHz    160.280000 MHz (302 mm x 188 mm)
                 Hfront   48 Hsync  32 Hback  120 Hpol P
                 Vfront    3 Vsync   6 Vback   51 Vpol N
    DTD 2:  1920x1200   39.997005 Hz  16:10    50.396 kHz    106.840000 MHz (analog composite, sync-on-green, 301 mm x 188 mm)
                 Hfront   48 Hsync  32 Hback  120 Hpol N
                 Vfront    3 Vsync   6 Vback   51 Vpol N
    Alphanumeric Data String: 'BOE B8'
    Alphanumeric Data String: 'NE140WUM-N63'
Checksum: 0x8d

----------------

Block 1, Unknown EDID Extension Block 0x00:
  00 ff ff ff ff ff ff 00 09 e5 61 09 00 00 00 00 '..........a.....'
  01 1e 01 04 a5 1e 13 78 03 da 25 a7 54 4b 99 25 '.......x..%.TK.%'
  10 50 54 00 00 00 01 01 01 01 01 01 01 01 01 01 '.PT.............'
  01 01 01 01 01 01 9c 3e 80 c8 70 b0 3c 40 30 20 '.......>..p.<@0 '
  36 00 2e bc 10 00 00 1a bc 29 80 c8 70 b0 3c 40 '6........)..p.<@'
  30 20 36 00 2d bc 10 00 00 00 00 00 00 fe 00 42 '0 6.-..........B'
  4f 45 20 42 38 0a 20 20 20 20 20 20 00 00 00 fe 'OE B8.      ....'
  00 4e 45 31 34 30 57 55 4d 2d 4e 36 33 0a 00 8d '.NE140WUM-N63...'
Checksum: 0x8d

----------------

Warnings:

Block 0, Base EDID:
  Missing Display Product Name.

Failures:

Block 0, Base EDID:
  Missing Display Range Limits Descriptor.
Block 1, Base EDID:
  Unknown Extension Block.
EDID:
  Base EDID: EDID specified 0 extension block(s), but found 1 extension block(s).

EDID conformity: FAIL
