
EDID (hex):
00ffffffffffff0030ae630001000000
05180103802b1878ee2565a3544fa027
ab505400000001010101010101010101
010101010101492f4030628422306040
8400b2ec1000001a000000fc004c656e
6f766f2041494f205043000000fd003b
3d1e470f000a202020202020000000ff
004c454e2d4536337a2d450a202000bb

Extracted contents:
header:          00 ff ff ff ff ff ff 00
serial number:   30 ae 63 00 01 00 00 00 05 18
version:         01 03
basic params:    80 2b 18 78 ee
chroma info:     25 65 a3 54 4f a0 27 ab 50 54
established:     00 00 00
standard:        01 01 01 01 01 01 01 01 01 01 01 01 01 01 01 01
descriptor 1:    49 2f 40 30 62 84 22 30 60 40 84 00 b2 ec 10 00 00 1a
descriptor 2:    00 00 00 fc 00 4c 65 6e 6f 76 6f 20 41 49 4f 20 50 43
descriptor 3:    00 00 00 fd 00 3b 3d 1e 47 0f 00 0a 20 20 20 20 20 20
descriptor 4:    00 00 00 ff 00 4c 45 4e 2d 45 36 33 7a 2d 45 0a 20 20
extensions:      00
checksum:        bb

EDID version: 1.3
Manufacturer: LEN Model 63 Serial Number --
Made in week 5 of 2014
Digital display
Maximum image size: 43 cm x 24 cm
Gamma: 2.20
DPMS levels: Standby Suspend Off
RGB color display
Default (sRGB) color space is primary color space
First detailed timing is preferred timing
Display x,y Chromaticity:
  Red:   0.6367, 0.3300
  Green: 0.3095, 0.6259
  Blue:  0.1533, 0.6699
  White: 0.3134, 0.3291
Established timings supported:
Standard timings supported:
Detailed mode: Clock 121.050 MHz, 434 mm x 236 mm
               1600 1696 1760 2160 hborder 0
                900  908  912  934 vborder 0
               +hsync -vsync 
               VertFreq: 60 Hz, HorFreq: 56041 Hz
Monitor ranges (GTF): 59-61Hz V, 30-71kHz H, max dotclock 150MHz
Serial number: --
Checksum: 0xbb (valid)
EDID block does NOT conform to EDID 1.3!
	sRGB is signaled, but the chromaticities do not match
	Name descriptor not terminated with a newline
