
EDID (hex):
00ffffffffffff0015c3042653bbff02
181b010380462878eaa305a45848a324
0d5054a108008180a940d100b3008100
a9c081c00101a36600a0f0701f803020
3500b9882100001a023a801871382d40
582c4500b9882100001e000000fd001d
3d1f861c000a202020202020000000fc
004556333233370a20202020202001d7
020104004d6c80a070703e8030203a00
b9882100001a523580a070701f803020
3a00b9882100001a1a6800a0f0381f40
30203a00b9882100001a565e00a0a0a0
295030203500b9882100001a21390000
a3a01c5078083510b9882100001ce268
00a0a0402e6030203a00b9882100001a
000000000000000000000000000000e9

Extracted contents:
header:          00 ff ff ff ff ff ff 00
serial number:   15 c3 04 26 53 bb ff 02 18 1b
version:         01 03
basic params:    80 46 28 78 ea
chroma info:     a3 05 a4 58 48 a3 24 0d 50 54
established:     a1 08 00
standard:        81 80 a9 40 d1 00 b3 00 81 00 a9 c0 81 c0 01 01
descriptor 1:    a3 66 00 a0 f0 70 1f 80 30 20 35 00 b9 88 21 00 00 1a
descriptor 2:    02 3a 80 18 71 38 2d 40 58 2c 45 00 b9 88 21 00 00 1e
descriptor 3:    00 00 00 fd 00 1d 3d 1f 86 1c 00 0a 20 20 20 20 20 20
descriptor 4:    00 00 00 fc 00 45 56 33 32 33 37 0a 20 20 20 20 20 20
extensions:      01
checksum:        d7

EDID version: 1.3
Manufacturer: ENC Model 2604 Serial Number --
Made in week 24 of 2017
Digital display
Maximum image size: 70 cm x 40 cm
Gamma: 2.20
DPMS levels: Standby Suspend Off
RGB color display
First detailed timing is preferred timing
Display x,y Chromaticity:
  Red:   0.6425, 0.3457
  Green: 0.2812, 0.6396
  Blue:  0.1406, 0.0507
  White: 0.3134, 0.3291
Established timings supported:
  720x400@70Hz 9:5 HorFreq: 31469 Hz Clock: 28.320 MHz
  640x480@60Hz 4:3 HorFreq: 31469 Hz Clock: 25.175 MHz
  800x600@60Hz 4:3 HorFreq: 37900 Hz Clock: 40.000 MHz
  1024x768@60Hz 4:3 HorFreq: 48400 Hz Clock: 65.000 MHz
Standard timings supported:
  1280x1024@60Hz 5:4 HorFreq: 64000 Hz Clock: 108.000 MHz
  1600x1200@60Hz 4:3 HorFreq: 75000 Hz Clock: 162.000 MHz
  1920x1200@60Hz 16:10 HorFreq: 74000 Hz Clock: 154.000 MHz
  1680x1050@60Hz 16:10 HorFreq: 64700 Hz Clock: 119.000 MHz
  1280x800@60Hz 16:10
  1600x900@60Hz 16:9
  1280x720@60Hz 16:9
Detailed mode: Clock 262.750 MHz, 697 mm x 392 mm
               3840 3888 3920 4000 hborder 0
               2160 2163 2168 2191 vborder 0
               +hsync -vsync 
               VertFreq: 29 Hz, HorFreq: 65687 Hz
Detailed mode: Clock 148.500 MHz, 697 mm x 392 mm
               1920 2008 2052 2200 hborder 0
               1080 1084 1089 1125 vborder 0
               +hsync +vsync 
               VertFreq: 60 Hz, HorFreq: 67500 Hz
Monitor ranges (GTF): 29-61Hz V, 31-134kHz H, max dotclock 280MHz
Monitor name: EV3237
Has 1 extension blocks
Checksum: 0xd7 (valid)

CTA extension block
Extension version: 1
0 8-byte timing descriptors
Detailed mode: Clock 277.250 MHz, 697 mm x 392 mm
               1920 1968 2000 2080 hborder 0
               2160 2163 2173 2222 vborder 0
               +hsync -vsync 
               VertFreq: 59 Hz, HorFreq: 133293 Hz
Detailed mode: Clock 136.500 MHz, 697 mm x 392 mm
               1920 1968 2000 2080 hborder 0
               2160 2163 2173 2191 vborder 0
               +hsync -vsync 
               VertFreq: 29 Hz, HorFreq: 65625 Hz
Detailed mode: Clock 266.500 MHz, 697 mm x 392 mm
               3840 3888 3920 4000 hborder 0
               1080 1083 1093 1111 vborder 0
               +hsync -vsync 
               VertFreq: 59 Hz, HorFreq: 66625 Hz
Detailed mode: Clock 241.500 MHz, 697 mm x 392 mm
               2560 2608 2640 2720 hborder 0
               1440 1443 1448 1481 vborder 0
               +hsync -vsync 
               VertFreq: 59 Hz, HorFreq: 88786 Hz
Detailed mode: Clock 146.250 MHz, 697 mm x 392 mm
               2560 2680 2944 3328 hborder 0
               1440 1443 1448 1468 vborder 0
               -hsync +vsync 
               VertFreq: 29 Hz, HorFreq: 43945 Hz
Detailed mode: Clock 268.500 MHz, 697 mm x 392 mm
               2560 2608 2640 2720 hborder 0
               1600 1603 1613 1646 vborder 0
               +hsync -vsync 
               VertFreq: 59 Hz, HorFreq: 98713 Hz
Checksum: 0xe9 (valid)

One or more of the timings is out of range of the Monitor Ranges:
  Vertical Freq: 29 - 70 Hz
  Horizontal Freq: 31469 - 133293 Hz
  Maximum Clock: 277.250 MHz
