
EDID (hex):
00ffffffffffff0026cdac46c89d0000
180e0104a5221b78222d90a4574a9c25
115054bfef008180714f010101010101
010101010101bc34009851002a401090
1300540e1100001e000000ff00303531
39384734363430333932000000fd0037
4b18530e000a202020202020000000fc
00504c453433310a20202020202000e1

Extracted contents:
header:          00 ff ff ff ff ff ff 00
serial number:   26 cd ac 46 c8 9d 00 00 18 0e
version:         01 04
basic params:    a5 22 1b 78 22
chroma info:     2d 90 a4 57 4a 9c 25 11 50 54
established:     bf ef 00
standard:        81 80 71 4f 01 01 01 01 01 01 01 01 01 01 01 01
descriptor 1:    bc 34 00 98 51 00 2a 40 10 90 13 00 54 0e 11 00 00 1e
descriptor 2:    00 00 00 ff 00 30 35 31 39 38 47 34 36 34 30 33 39 32
descriptor 3:    00 00 00 fd 00 37 4b 18 53 0e 00 0a 20 20 20 20 20 20
descriptor 4:    00 00 00 fc 00 50 4c 45 34 33 31 0a 20 20 20 20 20 20
extensions:      00
checksum:        e1

EDID version: 1.4
Manufacturer: IVM Model 46ac Serial Number --
Digital display
8 bits per primary color channel
DisplayPort interface
Maximum image size: 34 cm x 27 cm
Gamma: 2.20
DPMS levels: Off
Supported color formats: RGB 4:4:4
First detailed timing includes the native pixel format and preferred refresh rate
Display x,y Chromaticity:
  Red:   0.6406, 0.3417
  Green: 0.2919, 0.6103
  Blue:  0.1464, 0.0673
  White: 0.3125, 0.3281
Established timings supported:
  720x400@70Hz 9:5 HorFreq: 31469 Hz Clock: 28.320 MHz
  640x480@60Hz 4:3 HorFreq: 31469 Hz Clock: 25.175 MHz
  640x480@67Hz 4:3 HorFreq: 35000 Hz Clock: 30.240 MHz
  640x480@72Hz 4:3 HorFreq: 37900 Hz Clock: 31.500 MHz
  640x480@75Hz 4:3 HorFreq: 37500 Hz Clock: 31.500 MHz
  800x600@56Hz 4:3 HorFreq: 35200 Hz Clock: 36.000 MHz
  800x600@60Hz 4:3 HorFreq: 37900 Hz Clock: 40.000 MHz
  800x600@72Hz 4:3 HorFreq: 48100 Hz Clock: 50.000 MHz
  800x600@75Hz 4:3 HorFreq: 46900 Hz Clock: 49.500 MHz
  832x624@75Hz 4:3 HorFreq: 49726 Hz Clock: 57.284 MHz
  1024x768@60Hz 4:3 HorFreq: 48400 Hz Clock: 65.000 MHz
  1024x768@70Hz 4:3 HorFreq: 56500 Hz Clock: 75.000 MHz
  1024x768@75Hz 4:3 HorFreq: 60000 Hz Clock: 78.750 MHz
  1280x1024@75Hz 5:4 HorFreq: 80000 Hz Clock: 135.000 MHz
Standard timings supported:
  1280x1024@60Hz 5:4 HorFreq: 64000 Hz Clock: 108.000 MHz
  1152x864@75Hz 4:3 HorFreq: 67500 Hz Clock: 108.000 MHz
Detailed mode: Clock 135.000 MHz, 340 mm x 270 mm
               1280 1296 1440 1688 hborder 0
               1024 1025 1028 1066 vborder 0
               +hsync +vsync 
               VertFreq: 75 Hz, HorFreq: 79976 Hz
Serial number: --
Monitor ranges (GTF): 55-75Hz V, 24-83kHz H, max dotclock 140MHz
Monitor name: PLE431
Checksum: 0xe1 (valid)
EDID block does not conform at all!
	Bad year of manufacture
