
EDID (hex):
00ffffffffffff000dae2a1500000000
101e0104a5221378030f95ae5243b026
0f505400000001010101010101010101
010101010101636300a0a0a077503020
6a0058c110000018000000fd0c30a502
0246010a202020202020000000fe0043
4d4e0a202020202020202020000000fe
004e3135364b4d452d474e410a2001b0
701379000003011450110184ff099f00
2f001f009f0576000500090000000000
00000000000000000000000000000000
00000000000000000000000000000000
00000000000000000000000000000000
00000000000000000000000000000000
00005435313553353737415431330000
00000000000000000000000000007b90

Extracted contents:
header:          00 ff ff ff ff ff ff 00
serial number:   0d ae 2a 15 00 00 00 00 10 1e
version:         01 04
basic params:    a5 22 13 78 03
chroma info:     0f 95 ae 52 43 b0 26 0f 50 54
established:     00 00 00
standard:        01 01 01 01 01 01 01 01 01 01 01 01 01 01 01 01
descriptor 1:    63 63 00 a0 a0 a0 77 50 30 20 6a 00 58 c1 10 00 00 18
descriptor 2:    00 00 00 fd 0c 30 a5 02 02 46 01 0a 20 20 20 20 20 20
descriptor 3:    00 00 00 fe 00 43 4d 4e 0a 20 20 20 20 20 20 20 20 20
descriptor 4:    00 00 00 fe 00 4e 31 35 36 4b 4d 45 2d 47 4e 41 0a 20
extensions:      01
checksum:        b0

EDID version: 1.4
Manufacturer: CMN Model 152a Serial Number --
Made in week 16 of 2020
Digital display
8 bits per primary color channel
DisplayPort interface
Maximum image size: 34 cm x 19 cm
Gamma: 2.20
Supported color formats: RGB 4:4:4
First detailed timing includes the native pixel format and preferred refresh rate
Display is continuous frequency
Display x,y Chromaticity:
  Red:   0.6796, 0.3203
  Green: 0.2646, 0.6904
  Blue:  0.1503, 0.0595
  White: 0.3134, 0.3291
Established timings supported:
Standard timings supported:
Detailed mode: Clock 254.430 MHz, 344 mm x 193 mm
               2560 2608 2640 2720 hborder 0
               1440 1446 1456 1559 vborder 0
               -hsync -vsync 
               VertFreq: 60 Hz, HorFreq: 93540 Hz
Monitor ranges (bare limits): 48-165Hz V, 2-257kHz H, max dotclock 700MHz
ASCII string: CMN
ASCII string: N156KME-GNA
Has 1 extension blocks
Checksum: 0xb0 (valid)

DisplayID extension block
Extension version: 19
Length 121, version 19, extension count 0
Checksum: 0x7b (valid)
Type 1 detailed timing: aspect: 16:9, Preferred  
Detailed mode: Clock 699.680 MHz, 0 mm x 0 mm
               2559 2606 2637 2718
               1439 1444 1453 1557
               -hsync -vsync

EDID block does NOT conform to EDID 1.4!
	Missing name descriptor
EDID block does not conform at all!
	Has 1342177280 nonconformant extension block(s)


