edid-decode (hex):

00 ff ff ff ff ff ff 00 0d ae 01 82 00 00 00 00
2f 1a 01 04 a5 1c 12 78 02 53 d0 ac 52 49 a3 26
0f 4c 51 00 00 00 01 01 01 01 01 01 01 01 01 01
01 01 01 01 01 01 7a 50 70 a0 80 a0 28 50 30 20
3a 00 13 b7 10 00 00 18 00 00 00 00 00 00 00 00
00 00 00 00 00 00 00 00 00 00 00 00 00 00 00 00
00 00 00 00 00 00 00 00 00 00 00 00 00 00 00 fc
00 50 31 33 30 5a 44 5a 2d 45 46 31 0a 0a 00 7b

----------------

Block 0, Base EDID:
  EDID Structure Version & Revision: 1.4
  Vendor & Product Identification:
    Manufacturer: CMN
    Model: 33281
    Made in: week 47 of 2016
  Basic Display Parameters & Features:
    Digital display
    Bits per primary color channel: 8
    DisplayPort interface
    Maximum image size: 28 cm x 18 cm
    Gamma: 2.20
    Supported color formats: RGB 4:4:4
    First detailed timing includes the native pixel format and preferred refresh rate
  Color Characteristics:
    Red  : 0.6728, 0.3212
    Green: 0.2851, 0.6396
    Blue : 0.1513, 0.0595
    White: 0.2968, 0.3164
  Established Timings I & II: none
  Standard Timings: none
  Detailed Timing Descriptors:
    DTD 1:  2160x1440   60.001 Hz   3:2    88.802 kHz 206.020 MHz (275 mm x 183 mm)
                 Hfront   48 Hsync  32 Hback  80 Hpol N
                 Vfront    3 Vsync  10 Vback  27 Vpol N
    Empty Descriptor
    Empty Descriptor
    Display Product Name: 'P130ZDZ-EF1'
Checksum: 0x7b

----------------

Failures:

Block 0, Base EDID:
  Empty Descriptor: Use Dummy Descriptor instead of all zeroes.
  Empty Descriptor: Use Dummy Descriptor instead of all zeroes.
  Display Product Name: Non-space after newline.

EDID conformity: FAIL
