edid-decode (hex):

00 ff ff ff ff ff ff 00 34 ac 44 43 cd 00 00 00
1f 0c 01 03 0e 24 1d 78 ee 09 25 a2 57 4b 9a 24
18 50 54 bf ef 80 31 59 45 59 61 59 01 01 01 01
01 01 01 01 01 01 bc 34 00 98 51 00 2a 40 10 90
13 00 67 1f 11 00 00 1e 00 00 00 fd 00 37 55 1f
52 0e 00 0a 20 20 20 20 20 20 00 00 00 fc 00 45
38 35 4c 43 44 0a 20 20 20 20 20 20 00 00 00 ff
00 32 30 38 38 30 30 32 30 35 0a 20 20 20 00 ee

00 ff ff ff ff ff ff 00 34 ac 44 43 cd 00 00 00
1f 0c 01 03 0e 24 1d 78 ee 09 25 a2 57 4b 9a 24
18 50 54 bf ef 80 31 59 45 59 61 59 01 01 01 01
01 01 01 01 01 01 bc 34 00 98 51 00 2a 40 10 90
13 00 67 1f 11 00 00 1e 00 00 00 fd 00 37 55 1f
52 0e 00 0a 20 20 20 20 20 20 00 00 00 fc 00 45
38 35 4c 43 44 0a 20 20 20 20 20 20 00 00 00 ff
00 32 30 38 38 30 30 32 30 35 0a 20 20 20 00 ee

----------------

Block 0, Base EDID:
  EDID Structure Version & Revision: 1.3
  Vendor & Product Identification:
    Manufacturer: MEL
    Model: 17220
    Serial Number: ...
    Made in: week 31 of 2002
  Basic Display Parameters & Features:
    Analog display
    Signal Level Standard: 0.700 : 0.300 : 1.000 V p-p
    Blank level equals black level
    Sync: Separate Composite SyncOnGreen
    Maximum image size: 36 cm x 29 cm
    Gamma: 2.20
    DPMS levels: Standby Suspend Off
    RGB color display
    Default (sRGB) color space is primary color space
    First detailed timing is the preferred timing
  Color Characteristics:
    Red  : 0.6328, 0.3398
    Green: 0.2949, 0.6025
    Blue : 0.1406, 0.0957
    White: 0.3134, 0.3291
  Established Timings I & II:
    IBM     :   720x400    70.081663 Hz   9:5     31.467 kHz     28.320000 MHz
    DMT 0x04:   640x480    59.940476 Hz   4:3     31.469 kHz     25.175000 MHz
    Apple   :   640x480    66.666667 Hz   4:3     35.000 kHz     30.240000 MHz
    DMT 0x05:   640x480    72.808802 Hz   4:3     37.861 kHz     31.500000 MHz
    DMT 0x06:   640x480    75.000000 Hz   4:3     37.500 kHz     31.500000 MHz
    DMT 0x08:   800x600    56.250000 Hz   4:3     35.156 kHz     36.000000 MHz
    DMT 0x09:   800x600    60.316541 Hz   4:3     37.879 kHz     40.000000 MHz
    DMT 0x0a:   800x600    72.187572 Hz   4:3     48.077 kHz     50.000000 MHz
    DMT 0x0b:   800x600    75.000000 Hz   4:3     46.875 kHz     49.500000 MHz
    Apple   :   832x624    74.551266 Hz   4:3     49.726 kHz     57.284000 MHz
    DMT 0x10:  1024x768    60.003840 Hz   4:3     48.363 kHz     65.000000 MHz
    DMT 0x11:  1024x768    70.069359 Hz   4:3     56.476 kHz     75.000000 MHz
    DMT 0x12:  1024x768    75.028582 Hz   4:3     60.023 kHz     78.750000 MHz
    DMT 0x24:  1280x1024   75.024675 Hz   5:4     79.976 kHz    135.000000 MHz
    Apple   :  1152x870    75.061550 Hz 192:145   68.681 kHz    100.000000 MHz
  Standard Timings:
    DMT 0x07:   640x480    85.008312 Hz   4:3     43.269 kHz     36.000000 MHz
    DMT 0x0c:   800x600    85.061274 Hz   4:3     53.674 kHz     56.250000 MHz
    DMT 0x13:  1024x768    84.996690 Hz   4:3     68.677 kHz     94.500000 MHz
  Detailed Timing Descriptors:
    DTD 1:  1280x1024   75.024675 Hz   5:4     79.976 kHz    135.000000 MHz (359 mm x 287 mm)
                 Hfront   16 Hsync 144 Hback  248 Hpol P
                 Vfront    1 Vsync   3 Vback   38 Vpol P
    Display Range Limits:
      Monitor ranges (GTF): 55-85 Hz V, 31-82 kHz H, max dotclock 140 MHz
    Display Product Name: 'E85LCD'
    Display Product Serial Number: ...
Checksum: 0xee

----------------

Block 1, Unknown EDID Extension Block 0x00:
  00 ff ff ff ff ff ff 00 34 ac 44 43 cd 00 00 00 '........4.DC....'
  1f 0c 01 03 0e 24 1d 78 ee 09 25 a2 57 4b 9a 24 '.....$.x..%.WK.$'
  18 50 54 bf ef 80 31 59 45 59 61 59 01 01 01 01 '.PT...1YEYaY....'
  01 01 01 01 01 01 bc 34 00 98 51 00 2a 40 10 90 '.......4..Q.*@..'
  13 00 67 1f 11 00 00 1e 00 00 00 fd 00 37 55 1f '..g..........7U.'
  52 0e 00 0a 20 20 20 20 20 20 00 00 00 fc 00 45 'R...      .....E'
  38 35 4c 43 44 0a 20 20 20 20 20 20 00 00 00 ff '85LCD.      ....'
  00 32 30 38 38 30 30 32 30 35 0a 20 20 20 00 ee '.208800205.   ..'
Checksum: 0xee

----------------

Failures:

Block 0, Base EDID:
  Basic Display Parameters & Features: sRGB is signaled, but the chromaticities do not match.
Block 1, Base EDID:
  Unknown Extension Block.
EDID:
  Base EDID: EDID specified 0 extension block(s), but found 1 extension block(s).

EDID conformity: FAIL
