edid-decode (hex):

00 ff ff ff ff ff ff 00 09 e5 4a 07 00 00 00 00
01 1b 01 04 95 1d 11 78 02 de 50 a3 54 4c 99 26
0f 50 54 00 00 00 01 01 01 01 01 01 01 01 01 01
01 01 01 01 01 01 b4 3b 80 3b 71 38 3c 40 30 20
36 00 26 a5 10 00 00 1a b4 3b 80 3b 71 38 76 42
30 20 36 00 26 a5 10 00 00 1a 00 00 00 00 00 00
00 00 00 00 00 00 00 00 00 00 00 00 00 00 00 02
00 07 26 f2 0b 3c c8 14 10 2d c8 00 00 00 00 5d

----------------

Block 0, Base EDID:
  EDID Structure Version & Revision: 1.4
  Vendor & Product Identification:
    Manufacturer: BOE
    Model: 1866
    Made in: week 1 of 2017
  Basic Display Parameters & Features:
    Digital display
    Bits per primary color channel: 6
    DisplayPort interface
    Maximum image size: 29 cm x 17 cm
    Gamma: 2.20
    Supported color formats: RGB 4:4:4
    First detailed timing includes the native pixel format and preferred refresh rate
  Color Characteristics:
    Red  : 0.6396, 0.3291
    Green: 0.2998, 0.5996
    Blue : 0.1494, 0.0595
    White: 0.3125, 0.3281
  Established Timings I & II: none
  Standard Timings: none
  Detailed Timing Descriptors:
    DTD 1:  1920x1080   59.986656 Hz  16:9     68.385 kHz    152.840000 MHz (294 mm x 165 mm)
                 Hfront   48 Hsync  32 Hback  235 Hpol P
                 Vfront    3 Vsync   6 Vback   51 Vpol N
    DTD 2:  1920x1080   39.991104 Hz  16:9     68.385 kHz    152.840000 MHz (294 mm x 165 mm)
                 Hfront   48 Hsync  32 Hback  235 Hpol P
                 Vfront    3 Vsync   6 Vback  621 Vpol N
    Empty Descriptor
    Manufacturer-Specified Display Descriptor (0x02): 00 02 00 07 26 f2 0b 3c c8 14 10 2d c8 00 00 00 '....&..<...-....'
Checksum: 0x5d

----------------

Warnings:

Block 0, Base EDID:
  Missing Display Product Name.

Failures:

Block 0, Base EDID:
  Empty Descriptor: Use Dummy Descriptor instead of all zeroes.

EDID conformity: FAIL
