
EDID (hex):
00ffffffffffff0030e4f50100000000
00130103801e13780a1f359359558a28
22505400000001010101010101010101
0101010101011c1b007e502016303020
360030be1000001b1c1b007e50201630
3020360030be1000001b000000fe0047
30323248813134315758350a00000000
003c587490acc8e4ff01010a20200020

Extracted contents:
header:          00 ff ff ff ff ff ff 00
serial number:   30 e4 f5 01 00 00 00 00 00 13
version:         01 03
basic params:    80 1e 13 78 0a
chroma info:     1f 35 93 59 55 8a 28 22 50 54
established:     00 00 00
standard:        01 01 01 01 01 01 01 01 01 01 01 01 01 01 01 01
descriptor 1:    1c 1b 00 7e 50 20 16 30 30 20 36 00 30 be 10 00 00 1b
descriptor 2:    1c 1b 00 7e 50 20 16 30 30 20 36 00 30 be 10 00 00 1b
descriptor 3:    00 00 00 fe 00 47 30 32 32 48 81 31 34 31 57 58 35 0a
descriptor 4:    00 00 00 00 00 3c 58 74 90 ac c8 e4 ff 01 01 0a 20 20
extensions:      00
checksum:        20

EDID version: 1.3
Manufacturer: LGD Model 1f5 Serial Number --
Made in year 2009
Digital display
Maximum image size: 30 cm x 19 cm
Gamma: 2.20
RGB color display
First detailed timing is preferred timing
Display x,y Chromaticity:
  Red:   0.5742, 0.3486
  Green: 0.3349, 0.5419
  Blue:  0.1562, 0.1357
  White: 0.3134, 0.3291
Established timings supported:
Standard timings supported:
Detailed mode: Clock 69.400 MHz, 304 mm x 190 mm
               1280 1328 1360 1406 hborder 0
                800  803  809  822 vborder 0
               +hsync -vsync 
               VertFreq: 60 Hz, HorFreq: 49359 Hz
Detailed mode: Clock 69.400 MHz, 304 mm x 190 mm
               1280 1328 1360 1406 hborder 0
                800  803  809  822 vborder 0
               +hsync -vsync 
               VertFreq: 60 Hz, HorFreq: 49359 Hz
ASCII string: G022H
Manufacturer-specified data, tag 0
Checksum: 0x20 (valid)
EDID block does NOT conform to EDID 1.3!
	Missing name descriptor
	Missing monitor ranges
	Detailed block string not properly terminated
