edid-decode (hex):

00 ff ff ff ff ff ff 00 42 93 80 0c d5 2e 00 00
06 11 01 03 01 46 27 8c ea f3 10 a6 54 45 96 24
11 49 4b 2f ce 00 31 59 81 80 45 59 01 01 01 01
01 01 01 01 01 01 30 2a 00 98 51 00 2c 40 30 70
13 00 c4 8e 21 00 00 1e 00 00 00 fd 00 38 55 1f
50 0e 00 0a 20 20 20 20 20 20 00 00 00 fc 00 4a
4c 2d 33 32 38 0a 20 20 20 20 20 20 00 00 00 ff
00 46 31 49 33 37 32 30 30 31 31 39 38 39 00 21

----------------

Block 0, Base EDID:
  EDID Structure Version & Revision: 1.3
  Vendor & Product Identification:
    Manufacturer: PTS
    Model: 3200
    Serial Number: ...
    Made in: week 6 of 2007
  Basic Display Parameters & Features:
    Analog display
    Input voltage level: 0.7/0.3 V
    Blank level equals black level
    Sync: Serration
    Maximum image size: 70 cm x 39 cm
    Gamma: 2.40
    DPMS levels: Standby Suspend Off
    RGB color display
    First detailed timing is the preferred timing
  Color Characteristics:
    Red  : 0.6513, 0.3310
    Green: 0.2695, 0.5888
    Blue : 0.1406, 0.0673
    White: 0.2851, 0.2929
  Established Timings I & II:
    DMT 0x04:   640x480    59.940 Hz   4:3    31.469 kHz  25.175 MHz
    DMT 0x05:   640x480    72.809 Hz   4:3    37.861 kHz  31.500 MHz
    DMT 0x06:   640x480    75.000 Hz   4:3    37.500 kHz  31.500 MHz
    DMT 0x08:   800x600    56.250 Hz   4:3    35.156 kHz  36.000 MHz
    DMT 0x09:   800x600    60.317 Hz   4:3    37.879 kHz  40.000 MHz
    DMT 0x0a:   800x600    72.188 Hz   4:3    48.077 kHz  50.000 MHz
    DMT 0x0b:   800x600    75.000 Hz   4:3    46.875 kHz  49.500 MHz
    DMT 0x10:  1024x768    60.004 Hz   4:3    48.363 kHz  65.000 MHz
    DMT 0x11:  1024x768    70.069 Hz   4:3    56.476 kHz  75.000 MHz
    DMT 0x12:  1024x768    75.029 Hz   4:3    60.023 kHz  78.750 MHz
  Standard Timings:
    DMT 0x07:   640x480    85.008 Hz   4:3    43.269 kHz  36.000 MHz
    DMT 0x23:  1280x1024   60.020 Hz   5:4    63.981 kHz 108.000 MHz
    DMT 0x0c:   800x600    85.061 Hz   4:3    53.674 kHz  56.250 MHz
  Detailed Timing Descriptors:
    DTD 1:  1280x1024   59.907 Hz   5:4    63.981 kHz 108.000 MHz (708 mm x 398 mm)
                 Hfront   48 Hsync 112 Hback 248 Hpol P
                 Vfront    1 Vsync   3 Vback  40 Vpol P
  Display Range Limits:
    Monitor ranges (GTF): 56-85 Hz V, 31-80 kHz H, max dotclock 140 MHz
    Display Product Name: 'JL-328'
    Display Product Serial Number: ...
Checksum: 0x21

----------------

EDID conformity: PASS
