edid-decode (hex):

00 ff ff ff ff ff ff 00 10 ac b0 40 78 56 34 12
28 19 01 03 81 34 1d 78 ea 64 b5 ab 52 38 ab 25
13 50 54 00 00 00 01 01 01 01 01 01 01 01 01 01
01 01 01 01 01 01 0f 3a 80 18 71 38 2e 40 30 30
88 00 0f 28 21 00 00 1e 00 00 00 10 00 49 6e 73
70 69 72 6f 6e 20 33 34 35 35 00 00 00 fc 00 41
49 4f 20 4c 43 44 0a 20 20 20 20 20 00 00 00 10
00 41 49 4f 20 4c 43 44 0a 20 20 20 20 20 00 47

00 ff ff ff ff ff ff 00 10 ac b0 40 78 56 34 12
28 19 01 03 81 34 1d 78 ea 64 b5 ab 52 38 ab 25
13 50 54 00 00 00 01 01 01 01 01 01 01 01 01 01
01 01 01 01 01 01 0f 3a 80 18 71 38 2e 40 30 30
88 00 0f 28 21 00 00 1e 00 00 00 10 00 49 6e 73
70 69 72 6f 6e 20 33 34 35 35 00 00 00 fc 00 41
49 4f 20 4c 43 44 0a 20 20 20 20 20 00 00 00 10
00 41 49 4f 20 4c 43 44 0a 20 20 20 20 20 00 47

----------------

Block 0, Base EDID:
  EDID Structure Version & Revision: 1.3
  Vendor & Product Identification:
    Manufacturer: DEL
    Model: 16560
    Serial Number: ...
    Made in: week 40 of 2015
  Basic Display Parameters & Features:
    Digital display
    DFP 1.x compatible TMDS
    Maximum image size: 52 cm x 29 cm
    Gamma: 2.20
    DPMS levels: Standby Suspend Off
    RGB color display
    First detailed timing is the preferred timing
  Color Characteristics:
    Red  : 0.6689, 0.3222
    Green: 0.2197, 0.6679
    Blue : 0.1464, 0.0771
    White: 0.3134, 0.3291
  Established Timings I & II: none
  Standard Timings: none
  Detailed Timing Descriptors:
    DTD 1:  1920x1080   59.999193 Hz  16:9     67.559 kHz    148.630000 MHz (527 mm x 296 mm)
                 Hfront   48 Hsync  48 Hback  184 Hpol P
                 Vfront    8 Vsync   8 Vback   30 Vpol P
    Dummy Descriptor:
    Display Product Name: 'AIO LCD'
    Dummy Descriptor:
Checksum: 0x47

----------------

Block 1, Unknown EDID Extension Block 0x00:
  00 ff ff ff ff ff ff 00 10 ac b0 40 78 56 34 12 '...........@xV4.'
  28 19 01 03 81 34 1d 78 ea 64 b5 ab 52 38 ab 25 '(....4.x.d..R8.%'
  13 50 54 00 00 00 01 01 01 01 01 01 01 01 01 01 '.PT.............'
  01 01 01 01 01 01 0f 3a 80 18 71 38 2e 40 30 30 '.......:..q8.@00'
  88 00 0f 28 21 00 00 1e 00 00 00 10 00 49 6e 73 '...(!........Ins'
  70 69 72 6f 6e 20 33 34 35 35 00 00 00 fc 00 41 'piron 3455.....A'
  49 4f 20 4c 43 44 0a 20 20 20 20 20 00 00 00 10 'IO LCD.     ....'
  00 41 49 4f 20 4c 43 44 0a 20 20 20 20 20 00 47 '.AIO LCD.     .G'
Checksum: 0x47

----------------

Failures:

Block 0, Base EDID:
  Dummy Descriptor: Dummy block filled with garbage.
  Dummy Descriptor: Dummy block filled with garbage.
  Missing Display Range Limits Descriptor.
Block 1, Base EDID:
  Unknown Extension Block.
EDID:
  Base EDID: EDID specified 0 extension block(s), but found 1 extension block(s).

EDID conformity: FAIL
