
EDID (hex):
00ffffffffffff0006afd23000000000
0113010390160d780ab9a59659579128
1f505400000001010101010101010101
010101010101e213004041581c201888
3100df7d0000001ae213004041581c20
18883100df7d0000001a000000fe0043
30353054804231303141573300000000
00000000000000000001010a2020009b

Extracted contents:
header:          00 ff ff ff ff ff ff 00
serial number:   06 af d2 30 00 00 00 00 01 13
version:         01 03
basic params:    90 16 0d 78 0a
chroma info:     b9 a5 96 59 57 91 28 1f 50 54
established:     00 00 00
standard:        01 01 01 01 01 01 01 01 01 01 01 01 01 01 01 01
descriptor 1:    e2 13 00 40 41 58 1c 20 18 88 31 00 df 7d 00 00 00 1a
descriptor 2:    e2 13 00 40 41 58 1c 20 18 88 31 00 df 7d 00 00 00 1a
descriptor 3:    00 00 00 fe 00 43 30 35 30 54 80 42 31 30 31 41 57 33
descriptor 4:    00 00 00 00 00 00 00 00 00 00 00 00 00 01 01 0a 20 20
extensions:      00
checksum:        9b

EDID version: 1.3
Manufacturer: AUO Model 30d2 Serial Number --
Made in week 1 of 2009
Digital display
Maximum image size: 22 cm x 13 cm
Gamma: 2.20
RGB color display
First detailed timing is preferred timing
Display x,y Chromaticity:
  Red:   0.5878, 0.3505
  Green: 0.3417, 0.5673
  Blue:  0.1582, 0.1230
  White: 0.3134, 0.3291
Established timings supported:
Standard timings supported:
Detailed mode: Clock 50.900 MHz, 223 mm x 125 mm
               1024 1048 1184 1344 hborder 0
                600  603  604  628 vborder 0
               +hsync -vsync 
               VertFreq: 60 Hz, HorFreq: 37872 Hz
Detailed mode: Clock 50.900 MHz, 223 mm x 125 mm
               1024 1048 1184 1344 hborder 0
                600  603  604  628 vborder 0
               +hsync -vsync 
               VertFreq: 60 Hz, HorFreq: 37872 Hz
ASCII string: C050T
Manufacturer-specified data, tag 0
Checksum: 0x9b (valid)
EDID block does NOT conform to EDID 1.3!
	Digital display field contains garbage: 10
	Missing name descriptor
	Missing monitor ranges
	Detailed block string not properly terminated
