
EDID (hex):
00ffffffffffff0038c3351500000000
000d01030c1e1761ead61a94554e8b26
214f54b76e003140314c314f4540454c
454f6140614f64190040410026301888
360030e410000018000000fd0038501e
4608000a202020202020000000fe000a
202020202020202020202020000000fc
004e462d313530304d41450a202000b1

Extracted contents:
header:          00 ff ff ff ff ff ff 00
serial number:   38 c3 35 15 00 00 00 00 00 0d
version:         01 03
basic params:    0c 1e 17 61 ea
chroma info:     d6 1a 94 55 4e 8b 26 21 4f 54
established:     b7 6e 00
standard:        31 40 31 4c 31 4f 45 40 45 4c 45 4f 61 40 61 4f
descriptor 1:    64 19 00 40 41 00 26 30 18 88 36 00 30 e4 10 00 00 18
descriptor 2:    00 00 00 fd 00 38 50 1e 46 08 00 0a 20 20 20 20 20 20
descriptor 3:    00 00 00 fe 00 0a 20 20 20 20 20 20 20 20 20 20 20 20
descriptor 4:    00 00 00 fc 00 4e 46 2d 31 35 30 30 4d 41 45 0a 20 20
extensions:      00
checksum:        b1

EDID version: 1.3
Manufacturer: NFC Model 1535 Serial Number --
Analog display, Input voltage level: 0.7/0.3 V
Sync: Separate Composite 
Maximum image size: 30 cm x 23 cm
Gamma: 1.97
DPMS levels: Standby Suspend Off
RGB color display
First detailed timing is preferred timing
Display x,y Chromaticity:
  Red:   0.5810, 0.3330
  Green: 0.3056, 0.5449
  Blue:  0.1484, 0.1298
  White: 0.3105, 0.3300
Established timings supported:
  720x400@70Hz 9:5 HorFreq: 31469 Hz Clock: 28.320 MHz
  640x480@60Hz 4:3 HorFreq: 31469 Hz Clock: 25.175 MHz
  640x480@67Hz 4:3 HorFreq: 35000 Hz Clock: 30.240 MHz
  640x480@75Hz 4:3 HorFreq: 37500 Hz Clock: 31.500 MHz
  800x600@56Hz 4:3 HorFreq: 35200 Hz Clock: 36.000 MHz
  800x600@60Hz 4:3 HorFreq: 37900 Hz Clock: 40.000 MHz
  800x600@75Hz 4:3 HorFreq: 46900 Hz Clock: 49.500 MHz
  832x624@75Hz 4:3 HorFreq: 49726 Hz Clock: 57.284 MHz
  1024x768@60Hz 4:3 HorFreq: 48400 Hz Clock: 65.000 MHz
  1024x768@70Hz 4:3 HorFreq: 56500 Hz Clock: 75.000 MHz
  1024x768@75Hz 4:3 HorFreq: 60000 Hz Clock: 78.750 MHz
Standard timings supported:
  640x480@60Hz 4:3 HorFreq: 31469 Hz Clock: 25.175 MHz
  640x480@72Hz 4:3 HorFreq: 37900 Hz Clock: 31.500 MHz
  640x480@75Hz 4:3 HorFreq: 37500 Hz Clock: 31.500 MHz
  800x600@60Hz 4:3 HorFreq: 37900 Hz Clock: 40.000 MHz
  800x600@72Hz 4:3 HorFreq: 48100 Hz Clock: 50.000 MHz
  800x600@75Hz 4:3 HorFreq: 46900 Hz Clock: 49.500 MHz
  1024x768@60Hz 4:3 HorFreq: 48400 Hz Clock: 65.000 MHz
  1024x768@75Hz 4:3 HorFreq: 60000 Hz Clock: 78.750 MHz
Detailed mode: Clock 65.000 MHz, 304 mm x 228 mm
               1024 1048 1184 1344 hborder 0
                768  771  777  806 vborder 0
               -hsync -vsync 
               VertFreq: 60 Hz, HorFreq: 48363 Hz
Monitor ranges (GTF): 56-80Hz V, 30-70kHz H, max dotclock 80MHz
ASCII string: 
Monitor name: NF-1500MAE
Checksum: 0xb1 (valid)
EDID block does not conform at all!
	Bad year of manufacture
