
EDID (hex):
00ffffffffffff005c85553294000000
23100103084728782a2691a754469724
104849bfe80081c00101010101010101
010101010101201c50a0500016303020
2500c58f2100001a000000fe00576573
74696e67686f7573650a000000fd0032
4b1e3008000a202020202020000000fc
004c54562d33327736204844200a00fc

Extracted contents:
header:          00 ff ff ff ff ff ff 00
serial number:   5c 85 55 32 94 00 00 00 23 10
version:         01 03
basic params:    08 47 28 78 2a
chroma info:     26 91 a7 54 46 97 24 10 48 49
established:     bf e8 00
standard:        81 c0 01 01 01 01 01 01 01 01 01 01 01 01 01 01
descriptor 1:    20 1c 50 a0 50 00 16 30 30 20 25 00 c5 8f 21 00 00 1a
descriptor 2:    00 00 00 fe 00 57 65 73 74 69 6e 67 68 6f 75 73 65 0a
descriptor 3:    00 00 00 fd 00 32 4b 1e 30 08 00 0a 20 20 20 20 20 20
descriptor 4:    00 00 00 fc 00 4c 54 56 2d 33 32 77 36 20 48 44 20 0a
extensions:      00
checksum:        fc

EDID version: 1.3
Manufacturer: WDE Model 3255 Serial Number --
Made in week 35 of 2006
Analog display, Input voltage level: 0.7/0.3 V
Sync: Separate 
Maximum image size: 71 cm x 40 cm
Gamma: 2.20
DPMS levels: Off
RGB color display
First detailed timing is preferred timing
Display x,y Chromaticity:
  Red:   0.6523, 0.3300
  Green: 0.2744, 0.5917
  Blue:  0.1425, 0.0634
  White: 0.2812, 0.2861
Established timings supported:
  720x400@70Hz 9:5 HorFreq: 31469 Hz Clock: 28.320 MHz
  640x480@60Hz 4:3 HorFreq: 31469 Hz Clock: 25.175 MHz
  640x480@67Hz 4:3 HorFreq: 35000 Hz Clock: 30.240 MHz
  640x480@72Hz 4:3 HorFreq: 37900 Hz Clock: 31.500 MHz
  640x480@75Hz 4:3 HorFreq: 37500 Hz Clock: 31.500 MHz
  800x600@56Hz 4:3 HorFreq: 35200 Hz Clock: 36.000 MHz
  800x600@60Hz 4:3 HorFreq: 37900 Hz Clock: 40.000 MHz
  800x600@72Hz 4:3 HorFreq: 48100 Hz Clock: 50.000 MHz
  800x600@75Hz 4:3 HorFreq: 46900 Hz Clock: 49.500 MHz
  832x624@75Hz 4:3 HorFreq: 49726 Hz Clock: 57.284 MHz
  1024x768@60Hz 4:3 HorFreq: 48400 Hz Clock: 65.000 MHz
Standard timings supported:
  1280x720@60Hz 16:9
Detailed mode: Clock 72.000 MHz, 709 mm x 399 mm
               1360 1408 1440 1520 hborder 0
                768  770  775  790 vborder 0
               +hsync -vsync 
               VertFreq: 59 Hz, HorFreq: 47368 Hz
ASCII string: Westinghouse
Monitor ranges (GTF): 50-75Hz V, 30-48kHz H, max dotclock 80MHz
Monitor name: LTV-32w6 HD 
Checksum: 0xfc (valid)
One or more of the timings is out of range of the Monitor Ranges:
  Vertical Freq: 56 - 75 Hz
  Horizontal Freq: 31469 - 49726 Hz
  Maximum Clock: 72.000 MHz
