
EDID (hex):
00ffffffffffff0010accc0601000000
28180103812c1878ea64b5ab5238ab25
13505400000001010101010101010101
010101010101482f4030628422301850
1300b2ed1000001e0000001000000000
00000000000000000000000000fc0049
6e737069726f6e203330353200000000
00034102990000000002010a2020004c

Extracted contents:
header:          00 ff ff ff ff ff ff 00
serial number:   10 ac cc 06 01 00 00 00 28 18
version:         01 03
basic params:    81 2c 18 78 ea
chroma info:     64 b5 ab 52 38 ab 25 13 50 54
established:     00 00 00
standard:        01 01 01 01 01 01 01 01 01 01 01 01 01 01 01 01
descriptor 1:    48 2f 40 30 62 84 22 30 18 50 13 00 b2 ed 10 00 00 1e
descriptor 2:    00 00 00 10 00 00 00 00 00 00 00 00 00 00 00 00 00 00
descriptor 3:    00 00 00 fc 00 49 6e 73 70 69 72 6f 6e 20 33 30 35 32
descriptor 4:    00 00 00 00 00 03 41 02 99 00 00 00 00 02 01 0a 20 20
extensions:      00
checksum:        4c

EDID version: 1.3
Manufacturer: DEL Model 6cc Serial Number --
Made in week 40 of 2014
Digital display
DFP 1.x compatible TMDS
Maximum image size: 44 cm x 24 cm
Gamma: 2.20
DPMS levels: Standby Suspend Off
RGB color display
First detailed timing is preferred timing
Display x,y Chromaticity:
  Red:   0.6689, 0.3222
  Green: 0.2197, 0.6679
  Blue:  0.1464, 0.0771
  White: 0.3134, 0.3291
Established timings supported:
Standard timings supported:
Detailed mode: Clock 121.040 MHz, 434 mm x 237 mm
               1600 1624 1704 2160 hborder 0
                900  901  904  934 vborder 0
               +hsync +vsync 
               VertFreq: 59 Hz, HorFreq: 56037 Hz
Dummy block
Manufacturer-specified data, tag 0
Checksum: 0x4c (valid)
EDID block does NOT conform to EDID 1.3!
	Name descriptor not terminated with a newline
	Missing monitor ranges
