
EDID (hex):
00ffffffffffff0030e40e0400000000
0017010495231378ea9e95a258559f26
0d505400000001010101010101010101
0101010101012e3680a070381f403020
350059c21000001a0000000000000000
00000000000000000000000000fe0038
39304e35803135365746340a00000000
000041319e001000000a010a202000ac

Extracted contents:
header:          00 ff ff ff ff ff ff 00
serial number:   30 e4 0e 04 00 00 00 00 00 17
version:         01 04
basic params:    95 23 13 78 ea
chroma info:     9e 95 a2 58 55 9f 26 0d 50 54
established:     00 00 00
standard:        01 01 01 01 01 01 01 01 01 01 01 01 01 01 01 01
descriptor 1:    2e 36 80 a0 70 38 1f 40 30 20 35 00 59 c2 10 00 00 1a
descriptor 2:    00 00 00 00 00 00 00 00 00 00 00 00 00 00 00 00 00 00
descriptor 3:    00 00 00 fe 00 38 39 30 4e 35 80 31 35 36 57 46 34 0a
descriptor 4:    00 00 00 00 00 00 41 31 9e 00 10 00 00 0a 01 0a 20 20
extensions:      00
checksum:        ac

EDID version: 1.4
Manufacturer: LGD Model 40e Serial Number --
Made in year 2013
Digital display
6 bits per primary color channel
DisplayPort interface
Maximum image size: 35 cm x 19 cm
Gamma: 2.20
DPMS levels: Standby Suspend Off
Supported color formats: RGB 4:4:4, YCrCb 4:4:4
First detailed timing includes the native pixel format and preferred refresh rate
Display x,y Chromaticity:
  Red:   0.6347, 0.3447
  Green: 0.3349, 0.6230
  Blue:  0.1503, 0.0517
  White: 0.3134, 0.3291
Established timings supported:
Standard timings supported:
Detailed mode: Clock 138.700 MHz, 345 mm x 194 mm
               1920 1968 2000 2080 hborder 0
               1080 1083 1088 1111 vborder 0
               +hsync -vsync 
               VertFreq: 60 Hz, HorFreq: 66682 Hz
Manufacturer-specified data, tag 0
ASCII string: 890N5
Manufacturer-specified data, tag 0
Checksum: 0xac (valid)
EDID block does NOT conform to EDID 1.4!
	Missing name descriptor
	Missing monitor ranges
	Detailed block string not properly terminated
