edid-decode (hex):

00 ff ff ff ff ff ff 00 0d a9 63 9c 01 01 01 01
00 1a 01 04 95 16 0d 78 0a bc 95 a8 51 33 aa 26
0f 50 54 00 00 00 01 01 01 01 01 01 01 01 01 01
01 01 01 01 01 01 24 13 00 20 41 58 18 20 28 68
3a 00 06 44 21 00 00 18 00 00 00 10 00 06 10 30
11 01 00 00 00 00 00 00 0a 20 00 00 00 fe 00 5a
4a 30 38 30 4e 41 0a 20 20 20 20 20 00 00 00 fc
00 4d 44 4a 31 30 32 34 78 36 30 30 0a 20 00 94

----------------

Block 0, Base EDID:
  EDID Structure Version & Revision: 1.4
  Vendor & Product Identification:
    Manufacturer: CMI
    Model: 40035
    Serial Number: ...
    Made in: 2016
  Basic Display Parameters & Features:
    Digital display
    Bits per primary color channel: 6
    DisplayPort interface
    Maximum image size: 22 cm x 13 cm
    Gamma: 2.20
    Supported color formats: RGB 4:4:4, YCrCb 4:4:4
    First detailed timing includes the native pixel format and preferred refresh rate
  Color Characteristics:
    Red  : 0.6582, 0.3193
    Green: 0.2021, 0.6640
    Blue : 0.1503, 0.0595
    White: 0.3134, 0.3291
  Established Timings I & II: none
  Standard Timings: none
  Detailed Timing Descriptors:
    DTD 1:  1024x600    59.851861 Hz 128:75    37.348 kHz     49.000000 MHz (518 mm x 324 mm)
                 Hfront   40 Hsync 104 Hback  144 Hpol N
                 Vfront    3 Vsync  10 Vback   11 Vpol N
    Dummy Descriptor:
    Alphanumeric Data String: 'ZJ080NA'
    Display Product Name: 'MDJ1024x600'
Checksum: 0x94

----------------

Failures:

Block 0, Base EDID:
  Detailed Timing Descriptor #1: Mismatch of image size 518x324 mm vs display size 220x130 mm.
  Dummy Descriptor: Dummy block filled with garbage.

EDID conformity: FAIL
