
EDID (hex):
00ffffffffffff0006af873700000000
01110103802517780a052597574f8f25
19505400000001010101010101010101
010101010101b225a03c518410304121
44006fe610000019b225a03c51841030
412144006fe610000000000000fe0057
523534320142313730505733000000fe
00293a4851729cc0f702010a20200095

Extracted contents:
header:          00 ff ff ff ff ff ff 00
serial number:   06 af 87 37 00 00 00 00 01 11
version:         01 03
basic params:    80 25 17 78 0a
chroma info:     05 25 97 57 4f 8f 25 19 50 54
established:     00 00 00
standard:        01 01 01 01 01 01 01 01 01 01 01 01 01 01 01 01
descriptor 1:    b2 25 a0 3c 51 84 10 30 41 21 44 00 6f e6 10 00 00 19
descriptor 2:    b2 25 a0 3c 51 84 10 30 41 21 44 00 6f e6 10 00 00 00
descriptor 3:    00 00 00 fe 00 57 52 35 34 32 01 42 31 37 30 50 57 33
descriptor 4:    00 00 00 fe 00 29 3a 48 51 72 9c c0 f7 02 01 0a 20 20
extensions:      00
checksum:        95

EDID version: 1.3
Manufacturer: AUO Model 3787 Serial Number --
Made in week 1 of 2007
Digital display
Maximum image size: 37 cm x 23 cm
Gamma: 2.20
RGB color display
First detailed timing is preferred timing
Display x,y Chromaticity:
  Red:   0.5898, 0.3398
  Green: 0.3095, 0.5595
  Blue:  0.1445, 0.0996
  White: 0.3134, 0.3291
Established timings supported:
Standard timings supported:
Detailed mode: Clock 96.500 MHz, 367 mm x 230 mm
               1440 1505 1538 1756 hborder 0
                900  904  908  916 vborder 0
               -hsync -vsync 
               VertFreq: 59 Hz, HorFreq: 54954 Hz
Detailed mode: Clock 96.500 MHz, 367 mm x 230 mm
               1440 1505 1538 1756 hborder 0
                900  904  908  916 vborder 0
               -hsync -vsync analog composite 
               VertFreq: 59 Hz, HorFreq: 54954 Hz
ASCII string: WR542
ASCII string: ):HQr
Checksum: 0x95 (valid)
EDID block does NOT conform to EDID 1.3!
	Missing name descriptor
	Missing monitor ranges
	Detailed block string not properly terminated
