
EDID (hex):
00ffffffffffff004493200000000000
000f0103801f12780ad7e091544f8c28
22505400000001010101010101010101
010101010101a91a00a0500016303020
270031b7100000180000000f000a1210
620206031c3282082401000000fe0051
55414e5441444953504c4159000000fe
0051443134574c3031320a20202000b9

Extracted contents:
header:          00 ff ff ff ff ff ff 00
serial number:   44 93 20 00 00 00 00 00 00 0f
version:         01 03
basic params:    80 1f 12 78 0a
chroma info:     d7 e0 91 54 4f 8c 28 22 50 54
established:     00 00 00
standard:        01 01 01 01 01 01 01 01 01 01 01 01 01 01 01 01
descriptor 1:    a9 1a 00 a0 50 00 16 30 30 20 27 00 31 b7 10 00 00 18
descriptor 2:    00 00 00 0f 00 0a 12 10 62 02 06 03 1c 32 82 08 24 01
descriptor 3:    00 00 00 fe 00 51 55 41 4e 54 41 44 49 53 50 4c 41 59
descriptor 4:    00 00 00 fe 00 51 44 31 34 57 4c 30 31 32 0a 20 20 20
extensions:      00
checksum:        b9

EDID version: 1.3
Manufacturer: QDS Model 20 Serial Number --
Digital display
Maximum image size: 31 cm x 18 cm
Gamma: 2.20
RGB color display
First detailed timing is preferred timing
Display x,y Chromaticity:
  Red:   0.5693, 0.3291
  Green: 0.3095, 0.5498
  Blue:  0.1591, 0.1347
  White: 0.3125, 0.3281
Established timings supported:
Standard timings supported:
Detailed mode: Clock 68.250 MHz, 305 mm x 183 mm
               1280 1328 1360 1440 hborder 0
                768  770  777  790 vborder 0
               -hsync -vsync 
               VertFreq: 59 Hz, HorFreq: 47395 Hz
Manufacturer-specified data, tag 15
ASCII string: QUANTADISPLAY
ASCII string: QD14WL012
Checksum: 0xb9 (valid)
EDID block does NOT conform to EDID 1.3!
	Missing name descriptor
	Missing monitor ranges
EDID block does not conform at all!
	Bad year of manufacture
