
EDID (hex):
00ffffffffffff004493150000000000
000e0103801d15780a47a994574f8c27
27505400000001010101010101010101
01010101010164190040410026301888
36001dd6100000184a15004041002630
188836001dd610000000000000fe004b
343135360100000000000000000000fe
00f8e6d9cead8a5f0001010a20200049

Extracted contents:
header:          00 ff ff ff ff ff ff 00
serial number:   44 93 15 00 00 00 00 00 00 0e
version:         01 03
basic params:    80 1d 15 78 0a
chroma info:     47 a9 94 57 4f 8c 27 27 50 54
established:     00 00 00
standard:        01 01 01 01 01 01 01 01 01 01 01 01 01 01 01 01
descriptor 1:    64 19 00 40 41 00 26 30 18 88 36 00 1d d6 10 00 00 18
descriptor 2:    4a 15 00 40 41 00 26 30 18 88 36 00 1d d6 10 00 00 00
descriptor 3:    00 00 00 fe 00 4b 34 31 35 36 01 00 00 00 00 00 00 00
descriptor 4:    00 00 00 fe 00 f8 e6 d9 ce ad 8a 5f 00 01 01 0a 20 20
extensions:      00
checksum:        49

EDID version: 1.3
Manufacturer: QDS Model 15 Serial Number --
Digital display
Maximum image size: 29 cm x 21 cm
Gamma: 2.20
RGB color display
First detailed timing is preferred timing
Display x,y Chromaticity:
  Red:   0.5791, 0.3398
  Green: 0.3095, 0.5498
  Blue:  0.1542, 0.1542
  White: 0.3144, 0.3291
Established timings supported:
Standard timings supported:
Detailed mode: Clock 65.000 MHz, 285 mm x 214 mm
               1024 1048 1184 1344 hborder 0
                768  771  777  806 vborder 0
               -hsync -vsync 
               VertFreq: 60 Hz, HorFreq: 48363 Hz
Detailed mode: Clock 54.500 MHz, 285 mm x 214 mm
               1024 1048 1184 1344 hborder 0
                768  771  777  806 vborder 0
               -hsync -vsync analog composite 
               VertFreq: 50 Hz, HorFreq: 40550 Hz
ASCII string: K4156
ASCII string: 
Checksum: 0x49 (valid)
EDID block does NOT conform to EDID 1.3!
	Missing name descriptor
	Missing monitor ranges
	Detailed block string not properly terminated
EDID block does not conform at all!
	Bad year of manufacture
