
EDID (hex):
00ffffffffffff0015c3511600000000
010d010268221b78eae5e6a3594a9c23
144f54bfef8081808140814f714f0101
010101010101302a009851002a403070
1300510e1100001e000000ff00443832
30343031330a20202020000000fd0031
4c18510e000a202020202020000000fc
004c3536350a202020202020202000d6

Extracted contents:
header:          00 ff ff ff ff ff ff 00
serial number:   15 c3 51 16 00 00 00 00 01 0d
version:         01 02
basic params:    68 22 1b 78 ea
chroma info:     e5 e6 a3 59 4a 9c 23 14 4f 54
established:     bf ef 80
standard:        81 80 81 40 81 4f 71 4f 01 01 01 01 01 01 01 01
descriptor 1:    30 2a 00 98 51 00 2a 40 30 70 13 00 51 0e 11 00 00 1e
descriptor 2:    00 00 00 ff 00 44 38 32 30 34 30 31 33 0a 20 20 20 20
descriptor 3:    00 00 00 fd 00 31 4c 18 51 0e 00 0a 20 20 20 20 20 20
descriptor 4:    00 00 00 fc 00 4c 35 36 35 0a 20 20 20 20 20 20 20 20
extensions:      00
checksum:        d6

EDID version: 1.2
Manufacturer: ENC Model 1651 Serial Number --
Analog display, Input voltage level: 0.7/0.7 V
Sync: Separate 
Maximum image size: 34 cm x 27 cm
Gamma: 2.20
DPMS levels: Standby Suspend Off
RGB color display
First detailed timing is preferred timing
Display x,y Chromaticity:
  Red:   0.6396, 0.3496
  Green: 0.2900, 0.6103
  Blue:  0.1396, 0.0800
  White: 0.3095, 0.3300
Established timings supported:
  720x400@70Hz 9:5 HorFreq: 31469 Hz Clock: 28.320 MHz
  640x480@60Hz 4:3 HorFreq: 31469 Hz Clock: 25.175 MHz
  640x480@67Hz 4:3 HorFreq: 35000 Hz Clock: 30.240 MHz
  640x480@72Hz 4:3 HorFreq: 37900 Hz Clock: 31.500 MHz
  640x480@75Hz 4:3 HorFreq: 37500 Hz Clock: 31.500 MHz
  800x600@56Hz 4:3 HorFreq: 35200 Hz Clock: 36.000 MHz
  800x600@60Hz 4:3 HorFreq: 37900 Hz Clock: 40.000 MHz
  800x600@72Hz 4:3 HorFreq: 48100 Hz Clock: 50.000 MHz
  800x600@75Hz 4:3 HorFreq: 46900 Hz Clock: 49.500 MHz
  832x624@75Hz 4:3 HorFreq: 49726 Hz Clock: 57.284 MHz
  1024x768@60Hz 4:3 HorFreq: 48400 Hz Clock: 65.000 MHz
  1024x768@70Hz 4:3 HorFreq: 56500 Hz Clock: 75.000 MHz
  1024x768@75Hz 4:3 HorFreq: 60000 Hz Clock: 78.750 MHz
  1280x1024@75Hz 5:4 HorFreq: 80000 Hz Clock: 135.000 MHz
  1152x870@75Hz 192:145 HorFreq: 67500 Hz Clock: 108.000 MHz
Standard timings supported:
  1280x1024@60Hz 5:4 HorFreq: 64000 Hz Clock: 108.000 MHz
  1280x960@60Hz 4:3 HorFreq: 60000 Hz Clock: 108.000 MHz
  1280x960@75Hz 4:3
  1152x864@75Hz 4:3 HorFreq: 67500 Hz Clock: 108.000 MHz
Detailed mode: Clock 108.000 MHz, 337 mm x 270 mm
               1280 1328 1440 1688 hborder 0
               1024 1025 1028 1066 vborder 0
               +hsync +vsync 
               VertFreq: 60 Hz, HorFreq: 63981 Hz
Serial number: --
Monitor ranges (GTF): 49-76Hz V, 24-81kHz H, max dotclock 140MHz
Monitor name: L565
Checksum: 0xd6 (valid)
EDID block does not conform at all!
	Bad year of manufacture
