
EDID (hex):
00ffffffffffff0030e41907a1210323
001f0104a51b127803ef70a7514ca826
0e4f5300000001010101010101010101
010101010101de8a4078b08037703020
550012b71000001a000000fd001e78f0
f048010a202020202020000000fe004c
47445f4d50322e335f0a2020000000fe
004c503132395754323532313636010e
70137900000301145f1701083f0b6300
07801f007f074f004100070000000000
00000000000000000000000000000000
00000000000000000000000000000000
00000000000000000000000000000000
00000000000000000000000000000000
00000000000000000000000000000000
00000000000000000000000000006d90

edid-decode (hex):

00 ff ff ff ff ff ff 00 30 e4 19 07 a1 21 03 23
00 1f 01 04 a5 1b 12 78 03 ef 70 a7 51 4c a8 26
0e 4f 53 00 00 00 01 01 01 01 01 01 01 01 01 01
01 01 01 01 01 01 de 8a 40 78 b0 80 37 70 30 20
55 00 12 b7 10 00 00 1a 00 00 00 fd 00 1e 78 f0
f0 48 01 0a 20 20 20 20 20 20 00 00 00 fe 00 4c
47 44 5f 4d 50 32 2e 33 5f 0a 20 20 00 00 00 fe
00 4c 50 31 32 39 57 54 32 35 32 31 36 36 01 0e

70 13 79 00 00 03 01 14 5f 17 01 08 3f 0b 63 00
07 80 1f 00 7f 07 4f 00 41 00 07 00 00 00 00 00
00 00 00 00 00 00 00 00 00 00 00 00 00 00 00 00
00 00 00 00 00 00 00 00 00 00 00 00 00 00 00 00
00 00 00 00 00 00 00 00 00 00 00 00 00 00 00 00
00 00 00 00 00 00 00 00 00 00 00 00 00 00 00 00
00 00 00 00 00 00 00 00 00 00 00 00 00 00 00 00
00 00 00 00 00 00 00 00 00 00 00 00 00 00 6d 90

----------------

Block 0, Base EDID:
  EDID Structure Version & Revision: 1.4
  Vendor & Product Identification:
    Manufacturer: LGD
    Model: 1817
    Serial Number: 587407777
    Made in: 2021
  Basic Display Parameters & Features:
    Digital display
    Bits per primary color channel: 8
    DisplayPort interface
    Maximum image size: 27 cm x 18 cm
    Gamma: 2.20
    Supported color formats: RGB 4:4:4
    First detailed timing includes the native pixel format and preferred refresh rate
    Display is continuous frequency
  Color Characteristics:
    Red  : 0.6552, 0.3183
    Green: 0.2998, 0.6591
    Blue : 0.1494, 0.0576
    White: 0.3085, 0.3242
  Established Timings I & II: none
  Standard Timings: none
  Detailed Timing Descriptors:
    DTD 1:  2880x1920   60.000000 Hz   3:2    118.500 kHz    355.500000 MHz (274 mm x 183 mm)
                 Hfront   48 Hsync  32 Hback   40 Hpol P
                 Vfront    5 Vsync   5 Vback   45 Vpol N
    Display Range Limits:
      Monitor ranges (Bare Limits): 30-120 Hz V, 240-240 kHz H, max dotclock 720 MHz
    Alphanumeric Data String: 'LGD_MP2.3_'
    Alphanumeric Data String: 'LP129WT252166'
  Extension blocks: 1
Checksum: 0x0e

----------------

Block 1, DisplayID Extension Block:
  Version: 1.3
  Extension Count: 0
  Display Product Type: Extension Section
  Video Timing Modes Type 1 - Detailed Timings Data Block:
    DTD:  2880x1920  120.000000 Hz   0:0    240.000 kHz    715.200000 MHz (aspect undefined, no 3D stereo)
               Hfront    8 Hsync  32 Hback   60 Hpol P
               Vfront   66 Vsync   8 Vback    6 Vpol N
  Checksum: 0x6d
Checksum: 0x90
