
EDID (hex):
00ffffffffffff003674010be9030000
00110104a5462778001990a755469824
10494ba1090081800101010101010101
010101010101023a801871382d40582c
45004bba1000001e662150b051001b30
007026444bba1000001e000000fc004d
53542044656d6f2a2a0a2020000000fd
0038460e5b0d000a20202020202000bc

Extracted contents:
header:          00 ff ff ff ff ff ff 00
serial number:   36 74 01 0b e9 03 00 00 00 11
version:         01 04
basic params:    a5 46 27 78 00
chroma info:     19 90 a7 55 46 98 24 10 49 4b
established:     a1 09 00
standard:        81 80 01 01 01 01 01 01 01 01 01 01 01 01 01 01
descriptor 1:    02 3a 80 18 71 38 2d 40 58 2c 45 00 4b ba 10 00 00 1e
descriptor 2:    66 21 50 b0 51 00 1b 30 00 70 26 44 4b ba 10 00 00 1e
descriptor 3:    00 00 00 fc 00 4d 53 54 20 44 65 6d 6f 2a 2a 0a 20 20
descriptor 4:    00 00 00 fd 00 38 46 0e 5b 0d 00 0a 20 20 20 20 20 20
extensions:      00
checksum:        bc

EDID version: 1.4
Manufacturer: MST Model b01 Serial Number --
Made in year 2007
Digital display
8 bits per primary color channel
DisplayPort interface
Maximum image size: 70 cm x 39 cm
Gamma: 2.20
Supported color formats: RGB 4:4:4
Display x,y Chromaticity:
  Red:   0.6523, 0.3330
  Green: 0.2753, 0.5947
  Blue:  0.1425, 0.0634
  White: 0.2851, 0.2929
Established timings supported:
  720x400@70Hz 9:5 HorFreq: 31469 Hz Clock: 28.320 MHz
  640x480@60Hz 4:3 HorFreq: 31469 Hz Clock: 25.175 MHz
  800x600@60Hz 4:3 HorFreq: 37900 Hz Clock: 40.000 MHz
  1024x768@60Hz 4:3 HorFreq: 48400 Hz Clock: 65.000 MHz
  1280x1024@75Hz 5:4 HorFreq: 80000 Hz Clock: 135.000 MHz
Standard timings supported:
  1280x1024@60Hz 5:4 HorFreq: 64000 Hz Clock: 108.000 MHz
Detailed mode: Clock 148.500 MHz, 331 mm x 186 mm
               1920 2008 2052 2200 hborder 0
               1080 1084 1089 1125 vborder 0
               +hsync +vsync 
               VertFreq: 60 Hz, HorFreq: 67500 Hz
Detailed mode: Clock 85.500 MHz, 331 mm x 186 mm
               1360 1616 1728 1792 hborder 0
                768  786  792  795 vborder 0
               +hsync +vsync 
               VertFreq: 60 Hz, HorFreq: 47712 Hz
Monitor name: MST Demo**
Monitor ranges (GTF): 56-70Hz V, 14-91kHz H, max dotclock 130MHz
Checksum: 0xbc (valid)
Warning: One or more of the timings is out of range of the Monitor Ranges:
  Vertical Freq: 60 - 75 Hz
  Horizontal Freq: 31469 - 80000 Hz
  Maximum Clock: 148.500 MHz
