
EDID (hex):
00ffffffffffff002264021700000000
271c0104a5251778029da1aa5544a223
144e5100000001010101010101010101
0101010101015a3c808c70b032402828
26046de4100000180000001000000000
00000000000000000000000000fe0048
616e6e537461720a20202020000000fe
00313730505557312d4130300a200022

Extracted contents:
header:          00 ff ff ff ff ff ff 00
serial number:   22 64 02 17 00 00 00 00 27 1c
version:         01 04
basic params:    a5 25 17 78 02
chroma info:     9d a1 aa 55 44 a2 23 14 4e 51
established:     00 00 00
standard:        01 01 01 01 01 01 01 01 01 01 01 01 01 01 01 01
descriptor 1:    5a 3c 80 8c 70 b0 32 40 28 28 26 04 6d e4 10 00 00 18
descriptor 2:    00 00 00 10 00 00 00 00 00 00 00 00 00 00 00 00 00 00
descriptor 3:    00 00 00 fe 00 48 61 6e 6e 53 74 61 72 0a 20 20 20 20
descriptor 4:    00 00 00 fe 00 31 37 30 50 55 57 31 2d 41 30 30 0a 20
extensions:      00
checksum:        22

EDID version: 1.4
Manufacturer: HSD Model 1702 Serial Number --
Made in week 39 of 2018
Digital display
8 bits per primary color channel
DisplayPort interface
Maximum image size: 37 cm x 23 cm
Gamma: 2.20
Supported color formats: RGB 4:4:4
First detailed timing includes the native pixel format and preferred refresh rate
Display x,y Chromaticity:
  Red:   0.6660, 0.3330
  Green: 0.2685, 0.6337
  Blue:  0.1386, 0.0800
  White: 0.3046, 0.3173
Established timings supported:
Standard timings supported:
Detailed mode: Clock 154.500 MHz, 365 mm x 228 mm
               1920 1960 2000 2060 hborder 0
               1200 1218 1224 1250 vborder 0
               -hsync -vsync 
               VertFreq: 60 Hz, HorFreq: 75000 Hz
Dummy block
ASCII string: HannStar
ASCII string: 170PUW1-A00
Checksum: 0x22 (valid)
EDID block does NOT conform to EDID 1.4!
	Missing name descriptor
	Missing monitor ranges
