
EDID (hex):
00ffffffffffff00316dfb18d0c10200
121b0104a5351e78226b35a455559f27
0c505421080071408100814081809500
a940b3008bc0023a801871382d40582c
4500132b2100001e000000fd003c4c1e
5314000a202020202020000000fc004c
4e4b47205632484130310a20000000fa
00d100d14001000100010001000a002f

Extracted contents:
header:          00 ff ff ff ff ff ff 00
serial number:   31 6d fb 18 d0 c1 02 00 12 1b
version:         01 04
basic params:    a5 35 1e 78 22
chroma info:     6b 35 a4 55 55 9f 27 0c 50 54
established:     21 08 00
standard:        71 40 81 00 81 40 81 80 95 00 a9 40 b3 00 8b c0
descriptor 1:    02 3a 80 18 71 38 2d 40 58 2c 45 00 13 2b 21 00 00 1e
descriptor 2:    00 00 00 fd 00 3c 4c 1e 53 14 00 0a 20 20 20 20 20 20
descriptor 3:    00 00 00 fc 00 4c 4e 4b 47 20 56 32 48 41 30 31 0a 20
descriptor 4:    00 00 00 fa 00 d1 00 d1 40 01 00 01 00 01 00 01 00 0a
extensions:      00
checksum:        2f

EDID version: 1.4
Manufacturer: LKM Model 18fb Serial Number --
Made in week 18 of 2017
Digital display
8 bits per primary color channel
DisplayPort interface
Maximum image size: 53 cm x 30 cm
Gamma: 2.20
DPMS levels: Off
Supported color formats: RGB 4:4:4
First detailed timing includes the native pixel format and preferred refresh rate
Display x,y Chromaticity:
  Red:   0.6416, 0.3339
  Green: 0.3339, 0.6240
  Blue:  0.1523, 0.0498
  White: 0.3134, 0.3291
Established timings supported:
  640x480@60Hz 4:3 HorFreq: 31469 Hz Clock: 25.175 MHz
  800x600@60Hz 4:3 HorFreq: 37900 Hz Clock: 40.000 MHz
  1024x768@60Hz 4:3 HorFreq: 48400 Hz Clock: 65.000 MHz
Standard timings supported:
  1152x864@60Hz 4:3
  1280x800@60Hz 16:10
  1280x960@60Hz 4:3 HorFreq: 60000 Hz Clock: 108.000 MHz
  1280x1024@60Hz 5:4 HorFreq: 64000 Hz Clock: 108.000 MHz
  1440x900@60Hz 16:10 HorFreq: 55500 Hz Clock: 88.750 MHz
  1600x1200@60Hz 4:3 HorFreq: 75000 Hz Clock: 162.000 MHz
  1680x1050@60Hz 16:10 HorFreq: 64700 Hz Clock: 119.000 MHz
  1360x765@60Hz 16:9
Detailed mode: Clock 148.500 MHz, 531 mm x 299 mm
               1920 2008 2052 2200 hborder 0
               1080 1084 1089 1125 vborder 0
               +hsync +vsync 
               VertFreq: 60 Hz, HorFreq: 67500 Hz
Monitor ranges (GTF): 60-76Hz V, 30-83kHz H, max dotclock 200MHz
Monitor name: LNKG V2HA01
More standard timings:
  1920x1200@60Hz 16:10 HorFreq: 74000 Hz Clock: 154.000 MHz
  1920x1440@60Hz 4:3 HorFreq: 90000 Hz Clock: 234.000 MHz
  256x160@60Hz 16:10
  256x160@60Hz 16:10
  256x160@60Hz 16:10
  256x160@60Hz 16:10
Checksum: 0x2f (valid)
Warning: One or more of the timings is out of range of the Monitor Ranges:
  Vertical Freq: 60 - 60 Hz
  Horizontal Freq: 31469 - 90000 Hz
  Maximum Clock: 234.000 MHz
