edid-decode (hex):

00 ff ff ff ff ff ff 00 30 ae 02 40 00 00 00 00
00 10 01 03 80 19 12 78 ea 8d 51 92 55 4e 89 26
28 4e 54 21 08 00 01 01 01 01 01 01 01 01 01 01
01 01 01 01 01 01 1b 1a 00 66 41 00 26 30 18 88
36 00 f5 b8 00 00 00 18 00 00 00 10 00 00 00 00
00 00 00 00 00 00 00 00 00 00 00 00 00 0f 00 61
43 3c 00 00 00 13 02 00 09 e5 00 00 00 00 00 fe
00 48 56 31 32 31 58 30 33 2d 31 30 30 0a 00 7e

----------------

Block 0, Base EDID:
  EDID Structure Version & Revision: 1.3
  Vendor & Product Identification:
    Manufacturer: LEN
    Model: 16386
    Made in: 2006
  Basic Display Parameters & Features:
    Digital display
    Maximum image size: 25 cm x 18 cm
    Gamma: 2.20
    DPMS levels: Standby Suspend Off
    RGB color display
    First detailed timing is the preferred timing
  Color Characteristics:
    Red  : 0.5722, 0.3320
    Green: 0.3076, 0.5361
    Blue : 0.1494, 0.1572
    White: 0.3046, 0.3291
  Established Timings I & II:
    DMT 0x04:   640x480    59.940476 Hz   4:3     31.469 kHz     25.175000 MHz
    DMT 0x09:   800x600    60.316541 Hz   4:3     37.879 kHz     40.000000 MHz
    DMT 0x10:  1024x768    60.003840 Hz   4:3     48.363 kHz     65.000000 MHz
  Standard Timings: none
  Detailed Timing Descriptors:
    DTD 1:  1024x768    59.996840 Hz   4:3     48.357 kHz     66.830000 MHz (245 mm x 184 mm)
                 Hfront   24 Hsync 136 Hback  198 Hpol N
                 Vfront    3 Vsync   6 Vback   29 Vpol N
    Dummy Descriptor:
    Manufacturer-Specified Display Descriptor (0x0f): 00 0f 00 61 43 3c 00 00 00 13 02 00 09 e5 00 00 '...aC<..........'
    Alphanumeric Data String: 'HV121X03-100'
Checksum: 0x7e

----------------

Failures:

Block 0, Base EDID:
  Missing Display Product Name.
  Missing Display Range Limits Descriptor.

EDID conformity: FAIL
