
EDID (hex):
00ffffffffffff0030ae024000000000
0011010380191278ea87f594574f8c27
27505421080001010101010101010101
01010101010164190040410026301888
3600f5b8000000180000001000000000
000000000000000000000000000f0061
433c0000001302004ca35850000000fe
004c544e3132315850303130303100a3

Extracted contents:
header:          00 ff ff ff ff ff ff 00
serial number:   30 ae 02 40 00 00 00 00 00 11
version:         01 03
basic params:    80 19 12 78 ea
chroma info:     87 f5 94 57 4f 8c 27 27 50 54
established:     21 08 00
standard:        01 01 01 01 01 01 01 01 01 01 01 01 01 01 01 01
descriptor 1:    64 19 00 40 41 00 26 30 18 88 36 00 f5 b8 00 00 00 18
descriptor 2:    00 00 00 10 00 00 00 00 00 00 00 00 00 00 00 00 00 00
descriptor 3:    00 00 00 0f 00 61 43 3c 00 00 00 13 02 00 4c a3 58 50
descriptor 4:    00 00 00 fe 00 4c 54 4e 31 32 31 58 50 30 31 30 30 31
extensions:      00
checksum:        a3

EDID version: 1.3
Manufacturer: LEN Model 4002 Serial Number --
Made in year 2007
Digital display
Maximum image size: 25 cm x 18 cm
Gamma: 2.20
DPMS levels: Standby Suspend Off
RGB color display
First detailed timing is preferred timing
Display x,y Chromaticity:
  Red:   0.5800, 0.3398
  Green: 0.3095, 0.5498
  Blue:  0.1552, 0.1552
  White: 0.3134, 0.3291
Established timings supported:
  640x480@60Hz 4:3 HorFreq: 31469 Hz Clock: 25.175 MHz
  800x600@60Hz 4:3 HorFreq: 37900 Hz Clock: 40.000 MHz
  1024x768@60Hz 4:3 HorFreq: 48400 Hz Clock: 65.000 MHz
Standard timings supported:
Detailed mode: Clock 65.000 MHz, 245 mm x 184 mm
               1024 1048 1184 1344 hborder 0
                768  771  777  806 vborder 0
               -hsync -vsync 
               VertFreq: 60 Hz, HorFreq: 48363 Hz
Dummy block
Manufacturer-specified data, tag 15
ASCII string: LTN121XP01001
Checksum: 0xa3 (valid)
EDID block does NOT conform to EDID 1.3!
	Missing name descriptor
	Missing monitor ranges
