edid-decode (hex):

00 ff ff ff ff ff ff 00 30 ae 02 40 00 00 00 00
00 11 01 03 80 19 12 78 ea 87 f5 94 57 4f 8c 27
27 50 54 21 08 00 01 01 01 01 01 01 01 01 01 01
01 01 01 01 01 01 64 19 00 40 41 00 26 30 18 88
36 00 f5 b8 00 00 00 18 00 00 00 10 00 00 00 00
00 00 00 00 00 00 00 00 00 00 00 00 00 0f 00 61
43 3c 00 00 00 13 02 00 4c a3 58 50 00 00 00 fe
00 4c 54 4e 31 32 31 58 50 30 31 30 30 31 00 a3

----------------

Block 0, Base EDID:
  EDID Structure Version & Revision: 1.3
  Vendor & Product Identification:
    Manufacturer: LEN
    Model: 16386
    Made in: 2007
  Basic Display Parameters & Features:
    Digital display
    Maximum image size: 25 cm x 18 cm
    Gamma: 2.20
    DPMS levels: Standby Suspend Off
    RGB color display
    First detailed timing is preferred timing
  Color Characteristics:
    Red  : 0.5800, 0.3398
    Green: 0.3095, 0.5498
    Blue : 0.1552, 0.1552
    White: 0.3134, 0.3291
  Established Timings I & II:
    DMT 0x04:   640x480    59.940 Hz   4:3    31.469 kHz  25.175 MHz
    DMT 0x09:   800x600    60.317 Hz   4:3    37.879 kHz  40.000 MHz
    DMT 0x10:  1024x768    60.004 Hz   4:3    48.363 kHz  65.000 MHz
  Standard Timings: none
  Detailed Timing Descriptors:
    DTD 1:  1024x768    60.004 Hz   4:3    48.363 kHz  65.000 MHz (245 mm x 184 mm)
                 Hfront   24 Hsync 136 Hback 160 Hpol N
                 Vfront    3 Vsync   6 Vback  29 Vpol N
    Dummy Descriptor:
    Manufacturer-Specified Display Descriptor (0x0f): 00 0f 00 61 43 3c 00 00 00 13 02 00 4c a3 58 50 '...aC<......L.XP'
    Alphanumeric Data String: 'LTN121XP01001'
Checksum: 0xa3
