
EDID (hex):
00ffffffffffff00226440194d080000
0e10010380261e78ea71d6a256499624
134f54afcf808180310a31ca614c0000
000000000000302a009851002a403070
1300782d1100001e000000fd00384b1f
510e000a202020202020000000ff0020
202020202020202020202020000000fc
004843313934440a20202020202000e2

Extracted contents:
header:          00 ff ff ff ff ff ff 00
serial number:   22 64 40 19 4d 08 00 00 0e 10
version:         01 03
basic params:    80 26 1e 78 ea
chroma info:     71 d6 a2 56 49 96 24 13 4f 54
established:     af cf 80
standard:        81 80 31 0a 31 ca 61 4c 00 00 00 00 00 00 00 00
descriptor 1:    30 2a 00 98 51 00 2a 40 30 70 13 00 78 2d 11 00 00 1e
descriptor 2:    00 00 00 fd 00 38 4b 1f 51 0e 00 0a 20 20 20 20 20 20
descriptor 3:    00 00 00 ff 00 20 20 20 20 20 20 20 20 20 20 20 20 20
descriptor 4:    00 00 00 fc 00 48 43 31 39 34 44 0a 20 20 20 20 20 20
extensions:      00
checksum:        e2

EDID version: 1.3
Manufacturer: HSD Model 1940 Serial Number --
Made in week 14 of 2006
Digital display
Maximum image size: 38 cm x 30 cm
Gamma: 2.20
DPMS levels: Standby Suspend Off
RGB color display
First detailed timing is preferred timing
Display x,y Chromaticity:
  Red:   0.6337, 0.3388
  Green: 0.2851, 0.5869
  Blue:  0.1435, 0.0751
  White: 0.3095, 0.3300
Established timings supported:
  720x400@70Hz 9:5 HorFreq: 31469 Hz Clock: 28.320 MHz
  640x480@60Hz 4:3 HorFreq: 31469 Hz Clock: 25.175 MHz
  640x480@72Hz 4:3 HorFreq: 37900 Hz Clock: 31.500 MHz
  640x480@75Hz 4:3 HorFreq: 37500 Hz Clock: 31.500 MHz
  800x600@56Hz 4:3 HorFreq: 35200 Hz Clock: 36.000 MHz
  800x600@60Hz 4:3 HorFreq: 37900 Hz Clock: 40.000 MHz
  800x600@72Hz 4:3 HorFreq: 48100 Hz Clock: 50.000 MHz
  800x600@75Hz 4:3 HorFreq: 46900 Hz Clock: 49.500 MHz
  1024x768@60Hz 4:3 HorFreq: 48400 Hz Clock: 65.000 MHz
  1024x768@70Hz 4:3 HorFreq: 56500 Hz Clock: 75.000 MHz
  1024x768@75Hz 4:3 HorFreq: 60000 Hz Clock: 78.750 MHz
  1280x1024@75Hz 5:4 HorFreq: 80000 Hz Clock: 135.000 MHz
  1152x870@75Hz 192:145 HorFreq: 67500 Hz Clock: 108.000 MHz
Standard timings supported:
  1280x1024@60Hz 5:4 HorFreq: 64000 Hz Clock: 108.000 MHz
  640x400@70Hz 16:10
  640x360@70Hz 16:9
  1024x768@72Hz 4:3
non-conformant standard timing (0 horiz)
non-conformant standard timing (0 horiz)
non-conformant standard timing (0 horiz)
non-conformant standard timing (0 horiz)
Detailed mode: Clock 108.000 MHz, 376 mm x 301 mm
               1280 1328 1440 1688 hborder 0
               1024 1025 1028 1066 vborder 0
               +hsync +vsync 
               VertFreq: 60 Hz, HorFreq: 63981 Hz
Monitor ranges (GTF): 56-75Hz V, 31-81kHz H, max dotclock 140MHz
Serial number:              
-- name: HC194D
Checksum: 0xe2 (valid)
