
EDID (hex):
00ffffffffffff0009e5340700000000
011b0104951d11780224109759548e27
1e505400000001010101010101010101
010101010101113780d8703814403020
360026a51000001ab62480d870381440
3020360026a51000001a000000000000
00000000000000000000000000000002
000c49ff0a3c6e16101c6e0000000006

Extracted contents:
header:          00 ff ff ff ff ff ff 00
serial number:   09 e5 34 07 00 00 00 00 01 1b
version:         01 04
basic params:    95 1d 11 78 02
chroma info:     24 10 97 59 54 8e 27 1e 50 54
established:     00 00 00
standard:        01 01 01 01 01 01 01 01 01 01 01 01 01 01 01 01
descriptor 1:    11 37 80 d8 70 38 14 40 30 20 36 00 26 a5 10 00 00 1a
descriptor 2:    b6 24 80 d8 70 38 14 40 30 20 36 00 26 a5 10 00 00 1a
descriptor 3:    00 00 00 00 00 00 00 00 00 00 00 00 00 00 00 00 00 00
descriptor 4:    00 00 00 02 00 0c 49 ff 0a 3c 6e 16 10 1c 6e 00 00 00
extensions:      00
checksum:        06

EDID version: 1.4
Manufacturer: BOE Model 734 Serial Number --
Made in week 1 of 2017
Digital display
6 bits per primary color channel
DisplayPort interface
Maximum image size: 29 cm x 17 cm
Gamma: 2.20
Supported color formats: RGB 4:4:4
First detailed timing includes the native pixel format and preferred refresh rate
Display x,y Chromaticity:
  Red:   0.5898, 0.3496
  Green: 0.3291, 0.5546
  Blue:  0.1523, 0.1181
  White: 0.3125, 0.3281
Established timings supported:
Standard timings supported:
Detailed mode: Clock 140.970 MHz, 294 mm x 165 mm
               1920 1968 2000 2136 hborder 0
               1080 1083 1089 1100 vborder 0
               +hsync -vsync 
               VertFreq: 59 Hz, HorFreq: 65997 Hz
Detailed mode: Clock 93.980 MHz, 294 mm x 165 mm
               1920 1968 2000 2136 hborder 0
               1080 1083 1089 1100 vborder 0
               +hsync -vsync 
               VertFreq: 39 Hz, HorFreq: 43998 Hz
Manufacturer-specified data, tag 0
Manufacturer-specified data, tag 2
Checksum: 0x6 (valid)
EDID block does NOT conform to EDID 1.4!
	Missing name descriptor
	Missing monitor ranges
