edid-decode (hex):

00 ff ff ff ff ff ff 00 22 f0 03 41 01 01 00 00
13 13 01 03 80 29 17 78 0a 3d 85 a6 56 4a 9a 24
12 50 54 00 00 00 01 01 01 01 01 01 01 01 01 01
01 01 01 01 01 01 08 20 56 f0 50 00 28 30 18 8c
23 00 99 e6 10 00 00 18 00 00 00 fe 00 41 6d 61
7a 6f 6e 0a 20 20 20 20 20 20 00 00 00 fe 00 48
50 0a 20 20 20 20 20 20 20 20 20 20 00 00 00 fe
00 4d 31 38 35 58 57 30 31 0a 20 20 20 20 00 a1

----------------

Block 0, Base EDID:
  EDID Structure Version & Revision: 1.3
  Vendor & Product Identification:
    Manufacturer: HWP
    Model: 16643
    Serial Number: ...
    Made in: week 19 of 2009
  Basic Display Parameters & Features:
    Digital display
    Maximum image size: 41 cm x 23 cm
    Gamma: 2.20
    RGB color display
    First detailed timing is the preferred timing
  Color Characteristics:
    Red  : 0.6484, 0.3388
    Green: 0.2919, 0.6025
    Blue : 0.1425, 0.0703
    White: 0.3134, 0.3291
  Established Timings I & II: none
  Standard Timings: none
  Detailed Timing Descriptors:
    DTD 1:  1366x768    63.191251 Hz 683:384   51.059 kHz     82.000000 MHz (409 mm x 230 mm)
                 Hfront   24 Hsync 140 Hback   76 Hpol N
                 Vfront    2 Vsync   3 Vback   35 Vpol N
    Alphanumeric Data String: 'Amazon'
    Alphanumeric Data String: 'HP'
    Alphanumeric Data String: 'M185XW01'
Checksum: 0xa1

----------------

Failures:

Block 0, Base EDID:
  Missing Display Product Name.
  Missing Display Range Limits Descriptor.

EDID conformity: FAIL
