edid-decode (hex):

00 ff ff ff ff ff ff 00 30 e4 fd 02 00 00 00 00
00 14 01 04 80 23 13 78 0a 28 65 97 59 54 8e 27
1e 50 54 00 00 00 01 01 01 01 01 01 01 01 01 01
01 01 01 01 01 01 12 1b 56 68 50 00 12 30 20 20
53 00 59 c2 10 00 00 19 0c 12 56 68 50 00 12 30
20 20 53 00 59 c2 10 00 00 19 00 00 00 fe 00 34
48 48 4d 4a 80 31 35 36 57 48 33 0a 00 00 00 00
00 00 41 31 94 01 10 00 00 01 01 0a 20 20 00 fd

----------------

Block 0, Base EDID:
  EDID Structure Version & Revision: 1.4
  Vendor & Product Identification:
    Manufacturer: LGD
    Model: 765
    Made in: 2010
  Basic Display Parameters & Features:
    Digital display
    Color depth is undefined
    Digital interface is not defined
    Maximum image size: 35 cm x 19 cm
    Gamma: 2.20
    Supported color formats: RGB 4:4:4, YCrCb 4:4:4
    First detailed timing includes the native pixel format and preferred refresh rate
  Color Characteristics:
    Red  : 0.5898, 0.3496
    Green: 0.3300, 0.5546
    Blue : 0.1533, 0.1191
    White: 0.3134, 0.3291
  Established Timings I & II: none
  Standard Timings: none
  Detailed Timing Descriptors:
    DTD 1:  1366x768    59.978 Hz 683:384  47.143 kHz  69.300 MHz (345 mm x 194 mm)
                 Hfront   32 Hsync  32 Hback  40 Hpol N
                 Vfront    5 Vsync   3 Vback  10 Vpol N
    DTD 2:  1366x768    39.985 Hz 683:384  31.429 kHz  46.200 MHz (345 mm x 194 mm)
                 Hfront   32 Hsync  32 Hback  40 Hpol N
                 Vfront    5 Vsync   3 Vback  10 Vpol N
    Alphanumeric Data String: '4HHMJ'
    Manufacturer-Specified Display Descriptor (0x00): 00 00 00 00 41 31 94 01 10 00 00 01 01 0a 20 20 '....A1........  '
Checksum: 0xfd

----------------

Failures:

Block 0, Base EDID:
  Alphanumeric Data String: Non-printable character.
  Missing Display Product Name.

EDID conformity: FAIL
