
EDID (hex):
00ffffffffffff000dae1d1400000000
021f0104a51f117803ee95a3544c9926
0f505400000001010101010101010101
010101010101a43880e670382c403020
a60035ad1000001ac32580e670382c40
3020a60035ad1000001a000000000000
00000000000000000000000000000002
000c26ff143cc8090614c8000000006a

Extracted contents:
header:          00 ff ff ff ff ff ff 00
serial number:   0d ae 1d 14 00 00 00 00 02 1f
version:         01 04
basic params:    a5 1f 11 78 03
chroma info:     ee 95 a3 54 4c 99 26 0f 50 54
established:     00 00 00
standard:        01 01 01 01 01 01 01 01 01 01 01 01 01 01 01 01
descriptor 1:    a4 38 80 e6 70 38 2c 40 30 20 a6 00 35 ad 10 00 00 1a
descriptor 2:    c3 25 80 e6 70 38 2c 40 30 20 a6 00 35 ad 10 00 00 1a
descriptor 3:    00 00 00 00 00 00 00 00 00 00 00 00 00 00 00 00 00 00
descriptor 4:    00 00 00 02 00 0c 26 ff 14 3c c8 09 06 14 c8 00 00 00
extensions:      00
checksum:        6a

EDID version: 1.4
Manufacturer: CMN Model 141d Serial Number --
Made in week 2 of 2021
Digital display
8 bits per primary color channel
DisplayPort interface
Maximum image size: 31 cm x 17 cm
Gamma: 2.20
Supported color formats: RGB 4:4:4
First detailed timing includes the native pixel format and preferred refresh rate
Display is continuous frequency
Display x,y Chromaticity:
  Red:   0.6396, 0.3300
  Green: 0.2998, 0.5996
  Blue:  0.1503, 0.0595
  White: 0.3134, 0.3291
Established timings supported:
Standard timings supported:
Detailed mode: Clock 145.000 MHz, 309 mm x 173 mm
               1920 1968 2000 2150 hborder 0
               1080 1090 1096 1124 vborder 0
               +hsync -vsync 
               VertFreq: 60 Hz, HorFreq: 67441 Hz
Detailed mode: Clock 96.670 MHz, 309 mm x 173 mm
               1920 1968 2000 2150 hborder 0
               1080 1090 1096 1124 vborder 0
               +hsync -vsync 
               VertFreq: 40 Hz, HorFreq: 44962 Hz
Manufacturer-specified data, tag 0
Manufacturer-specified data, tag 2
Checksum: 0x6a (valid)
EDID block does NOT conform to EDID 1.4!
	Missing name descriptor
	Missing monitor ranges
