edid-decode (hex):

00 ff ff ff ff ff ff 00 22 0e 60 40 11 99 45 00
01 20 01 04 a5 35 1e 78 22 e0 f5 a5 55 52 a0 27
0c 50 54 00 00 00 01 01 01 01 01 01 01 01 01 01
01 01 01 01 01 01 02 3a 80 18 71 38 2d 40 58 2c
45 00 0f 28 21 00 00 1e 00 00 00 fc 00 48 50 20
34 34 30 20 47 39 20 41 69 4f 00 00 00 03 00 0c
33 f9 0a 3c c4 1f 12 22 c4 09 09 00 00 00 00 03
00 33 54 fe 4d 64 a2 42 50 90 a2 00 00 00 00 ac

00 ff ff ff ff ff ff 00 22 0e 60 40 11 99 45 00
01 20 01 04 a5 35 1e 78 22 e0 f5 a5 55 52 a0 27
0c 50 54 00 00 00 01 01 01 01 01 01 01 01 01 01
01 01 01 01 01 01 02 3a 80 18 71 38 2d 40 58 2c
45 00 0f 28 21 00 00 1e 00 00 00 fc 00 48 50 20
34 34 30 20 47 39 20 41 69 4f 00 00 00 03 00 0c
33 f9 0a 3c c4 1f 12 22 c4 09 09 00 00 00 00 03
00 33 54 fe 4d 64 a2 42 50 90 a2 00 00 00 00 ac

----------------

Block 0, Base EDID:
  EDID Structure Version & Revision: 1.4
  Vendor & Product Identification:
    Manufacturer: HPN
    Model: 16480
    Serial Number: ...
    Made in: week 1 of 2022
  Basic Display Parameters & Features:
    Digital display
    Bits per primary color channel: 8
    DisplayPort interface
    Maximum image size: 53 cm x 30 cm
    Gamma: 2.20
    DPMS levels: Off
    Supported color formats: RGB 4:4:4
    First detailed timing includes the native pixel format and preferred refresh rate
  Color Characteristics:
    Red  : 0.6474, 0.3339
    Green: 0.3203, 0.6250
    Blue : 0.1552, 0.0498
    White: 0.3134, 0.3291
  Established Timings I & II: none
  Standard Timings: none
  Detailed Timing Descriptors:
    DTD 1:  1920x1080   60.000000 Hz  16:9     67.500 kHz    148.500000 MHz (527 mm x 296 mm)
                 Hfront   88 Hsync  44 Hback  148 Hpol P
                 Vfront    4 Vsync   5 Vback   36 Vpol P
    Display Product Name: 'HP 440 G9 AiO'
    Manufacturer-Specified Display Descriptor (0x03): 00 03 00 0c 33 f9 0a 3c c4 1f 12 22 c4 09 09 00 '....3..<..."....'
    Manufacturer-Specified Display Descriptor (0x03): 00 03 00 33 54 fe 4d 64 a2 42 50 90 a2 00 00 00 '...3T.Md.BP.....'
Checksum: 0xac

----------------

Block 1, Unknown EDID Extension Block 0x00:
  00 ff ff ff ff ff ff 00 22 0e 60 40 11 99 45 00 '........".`@..E.'
  01 20 01 04 a5 35 1e 78 22 e0 f5 a5 55 52 a0 27 '. ...5.x"...UR.''
  0c 50 54 00 00 00 01 01 01 01 01 01 01 01 01 01 '.PT.............'
  01 01 01 01 01 01 02 3a 80 18 71 38 2d 40 58 2c '.......:..q8-@X,'
  45 00 0f 28 21 00 00 1e 00 00 00 fc 00 48 50 20 'E..(!........HP '
  34 34 30 20 47 39 20 41 69 4f 00 00 00 03 00 0c '440 G9 AiO......'
  33 f9 0a 3c c4 1f 12 22 c4 09 09 00 00 00 00 03 '3..<..."........'
  00 33 54 fe 4d 64 a2 42 50 90 a2 00 00 00 00 ac '.3T.Md.BP.......'
Checksum: 0xac

----------------

Failures:

Block 1, Base EDID:
  Unknown Extension Block.
EDID:
  Base EDID: EDID specified 0 extension block(s), but found 1 extension block(s).

EDID conformity: FAIL
