edid-decode (hex):

00 ff ff ff ff ff ff 00 56 16 01 00 01 00 00 00
01 0f 01 01 80 50 2d 78 2a ee 91 a3 54 4c 99 26
0f 50 54 00 00 00 01 01 01 01 01 01 01 01 01 01
01 01 01 01 01 01 bc 1b 00 a0 50 20 17 30 30 20
26 00 81 91 21 00 00 18 e2 68 00 a0 a0 40 2e 60
30 20 26 00 81 91 21 00 00 18 00 00 00 fd 00 3b
3d 1e 50 0e 00 0a 20 20 20 20 20 20 00 00 00 fc
00 55 50 2d 4d 33 30 57 31 0a 20 20 20 20 00 50

00 ff ff ff ff ff ff 00 56 16 01 00 01 00 00 00
01 0f 01 01 80 50 2d 78 2a ee 91 a3 54 4c 99 26
0f 50 54 00 00 00 01 01 01 01 01 01 01 01 01 01
01 01 01 01 01 01 bc 1b 00 a0 50 20 17 30 30 20
26 00 81 91 21 00 00 18 e2 68 00 a0 a0 40 2e 60
30 20 26 00 81 91 21 00 00 18 00 00 00 fd 00 3b
3d 1e 50 0e 00 0a 20 20 20 20 20 20 00 00 00 fc
00 55 50 2d 4d 33 30 57 31 0a 20 20 20 20 00 50

----------------

Block 0, Base EDID:
  EDID Structure Version & Revision: 1.1
  Vendor & Product Identification:
    Manufacturer: UPV
    Model: 1
    Serial Number: ...
    Made in: week 1 of 2005
  Basic Display Parameters & Features:
    Digital display
    Maximum image size: 80 cm x 45 cm
    Gamma: 2.20
    DPMS levels: Off
    RGB color display
    First detailed timing is the preferred timing
  Color Characteristics:
    Red  : 0.6396, 0.3300
    Green: 0.2998, 0.5996
    Blue : 0.1503, 0.0595
    White: 0.3125, 0.3291
  Established Timings I & II: none
  Standard Timings: none
  Detailed Timing Descriptors:
    DTD 1:  1280x800    59.909545 Hz  16:10    49.306 kHz     71.000000 MHz (641 mm x 401 mm)
                 Hfront   48 Hsync  32 Hback   80 Hpol N
                 Vfront    2 Vsync   6 Vback   15 Vpol N
    DTD 2:  2560x1600   59.971589 Hz  16:10    98.713 kHz    268.500000 MHz (641 mm x 401 mm)
                 Hfront   48 Hsync  32 Hback   80 Hpol N
                 Vfront    2 Vsync   6 Vback   38 Vpol N
    Display Range Limits:
      Monitor ranges (GTF): 59-61 Hz V, 30-80 kHz H, max dotclock 140 MHz
    Display Product Name: 'UP-M30W1'
Checksum: 0x50

----------------

Block 1, Unknown EDID Extension Block 0x00:
  00 ff ff ff ff ff ff 00 56 16 01 00 01 00 00 00 '........V.......'
  01 0f 01 01 80 50 2d 78 2a ee 91 a3 54 4c 99 26 '.....P-x*...TL.&'
  0f 50 54 00 00 00 01 01 01 01 01 01 01 01 01 01 '.PT.............'
  01 01 01 01 01 01 bc 1b 00 a0 50 20 17 30 30 20 '..........P .00 '
  26 00 81 91 21 00 00 18 e2 68 00 a0 a0 40 2e 60 '&...!....h...@.`'
  30 20 26 00 81 91 21 00 00 18 00 00 00 fd 00 3b '0 &...!........;'
  3d 1e 50 0e 00 0a 20 20 20 20 20 20 00 00 00 fc '=.P...      ....'
  00 55 50 2d 4d 33 30 57 31 0a 20 20 20 20 00 50 '.UP-M30W1.    .P'
Checksum: 0x50

----------------

Warnings:

Block 0, Base EDID:
  EDID Structure Version & Revision: EDID 1.1 is deprecated, do not use.
  Detailed Timing Descriptor #1: DTD is similar but not identical to DMT 0x1b.
  Detailed Timing Descriptor #2: DTD is similar but not identical to DMT 0x4c.

Failures:

Block 0, Base EDID:
  Basic Display Parameters & Features: The chromaticities match sRGB, but sRGB is not signaled.
  Detailed Timing Descriptor #1: Mismatch of image size 641x401 mm vs display size 800x450 mm.
  Detailed Timing Descriptor #2: Mismatch of image size 641x401 mm vs display size 800x450 mm.
Block 1, Base EDID:
  Unknown Extension Block.
EDID:
  Base EDID: Some timings are out of range of the Monitor Ranges:
    Horizontal Freq: 49.305 - 98.713 kHz (Monitor: 30.000 - 80.000 kHz)
    Maximum Clock: 268.500 MHz (Monitor: 140.000 MHz)
  Base EDID: EDID specified 0 extension block(s), but found 1 extension block(s).

EDID conformity: FAIL
