edid-decode (hex):

00 ff ff ff ff ff ff 00 3a d4 01 00 05 00 00 00
2a 1d 01 03 80 34 1e 78 2e ee 95 a3 54 4c 99 26
0f 50 54 a5 6b 80 61 c0 81 c0 81 40 81 80 95 00
a9 40 b3 00 d1 c0 1a 36 80 a0 70 38 1f 40 30 20
35 00 fe 1f 11 00 00 1a 00 00 00 fd 00 32 4c 1e
5e 15 00 0a 20 20 20 20 20 20 00 00 00 fc 00 4e
54 36 38 38 32 32 0a 20 20 20 20 20 00 00 00 ff
00 30 30 30 30 30 30 30 30 30 30 30 0a 20 01 db

00 ff ff ff ff ff ff 00 3a d4 01 00 05 00 00 00
2a 1d 01 03 80 34 1e 78 2e ee 95 a3 54 4c 99 26
0f 50 54 a5 6b 80 61 c0 81 c0 81 40 81 80 95 00
a9 40 b3 00 d1 c0 1a 36 80 a0 70 38 1f 40 30 20
35 00 fe 1f 11 00 00 1a 00 00 00 fd 00 32 4c 1e
5e 15 00 0a 20 20 20 20 20 20 00 00 00 fc 00 4e
54 36 38 38 32 32 0a 20 20 20 20 20 00 00 00 ff
00 30 30 30 30 30 30 30 30 30 30 30 0a 20 01 db

00 ff ff ff ff ff ff 00 3a d4 01 00 05 00 00 00
2a 1d 01 03 80 34 1e 78 2e ee 95 a3 54 4c 99 26
0f 50 54 a5 6b 80 61 c0 81 c0 81 40 81 80 95 00
a9 40 b3 00 d1 c0 1a 36 80 a0 70 38 1f 40 30 20
35 00 fe 1f 11 00 00 1a 00 00 00 fd 00 32 4c 1e
5e 15 00 0a 20 20 20 20 20 20 00 00 00 fc 00 4e
54 36 38 38 32 32 0a 20 20 20 20 20 00 00 00 ff
00 30 30 30 30 30 30 30 30 30 30 30 0a 20 01 db

00 ff ff ff ff ff ff 00 3a d4 01 00 05 00 00 00
2a 1d 01 03 80 34 1e 78 2e ee 95 a3 54 4c 99 26
0f 50 54 a5 6b 80 61 c0 81 c0 81 40 81 80 95 00
a9 40 b3 00 d1 c0 1a 36 80 a0 70 38 1f 40 30 20
35 00 fe 1f 11 00 00 1a 00 00 00 fd 00 32 4c 1e
5e 15 00 0a 20 20 20 20 20 20 00 00 00 fc 00 4e
54 36 38 38 32 32 0a 20 20 20 20 20 00 00 00 ff
00 30 30 30 30 30 30 30 30 30 30 30 0a 20 01 db

----------------

Block 0, Base EDID:
  EDID Structure Version & Revision: 1.3
  Vendor & Product Identification:
    Manufacturer: NVT
    Model: 1
    Serial Number: ...
    Made in: week 42 of 2019
  Basic Display Parameters & Features:
    Digital display
    Maximum image size: 52 cm x 30 cm
    Gamma: 2.20
    DPMS levels: Off
    RGB color display
    Default (sRGB) color space is primary color space
    First detailed timing is the preferred timing
  Color Characteristics:
    Red  : 0.6396, 0.3300
    Green: 0.2998, 0.5996
    Blue : 0.1503, 0.0595
    White: 0.3134, 0.3291
  Established Timings I & II:
    IBM     :   720x400    70.081663 Hz   9:5     31.467 kHz     28.320000 MHz
    DMT 0x04:   640x480    59.940476 Hz   4:3     31.469 kHz     25.175000 MHz
    DMT 0x06:   640x480    75.000000 Hz   4:3     37.500 kHz     31.500000 MHz
    DMT 0x09:   800x600    60.316541 Hz   4:3     37.879 kHz     40.000000 MHz
    DMT 0x0b:   800x600    75.000000 Hz   4:3     46.875 kHz     49.500000 MHz
    Apple   :   832x624    74.551266 Hz   4:3     49.726 kHz     57.284000 MHz
    DMT 0x10:  1024x768    60.003840 Hz   4:3     48.363 kHz     65.000000 MHz
    DMT 0x12:  1024x768    75.028582 Hz   4:3     60.023 kHz     78.750000 MHz
    DMT 0x24:  1280x1024   75.024675 Hz   5:4     79.976 kHz    135.000000 MHz
    Apple   :  1152x870    75.061550 Hz 192:145   68.681 kHz    100.000000 MHz
  Standard Timings:
    GTF     :  1024x576    60.000204 Hz  16:9     35.820 kHz     46.996000 MHz
    DMT 0x55:  1280x720    60.000000 Hz  16:9     45.000 kHz     74.250000 MHz
    DMT 0x20:  1280x960    60.000000 Hz   4:3     60.000 kHz    108.000000 MHz
    DMT 0x23:  1280x1024   60.019740 Hz   5:4     63.981 kHz    108.000000 MHz
    DMT 0x2f:  1440x900    59.887445 Hz  16:10    55.935 kHz    106.500000 MHz
    DMT 0x33:  1600x1200   60.000000 Hz   4:3     75.000 kHz    162.000000 MHz
    DMT 0x3a:  1680x1050   59.954250 Hz  16:10    65.290 kHz    146.250000 MHz
    DMT 0x52:  1920x1080   60.000000 Hz  16:9     67.500 kHz    148.500000 MHz
  Detailed Timing Descriptors:
    DTD 1:  1920x1080   59.933878 Hz  16:9     66.587 kHz    138.500000 MHz (510 mm x 287 mm)
                 Hfront   48 Hsync  32 Hback   80 Hpol P
                 Vfront    3 Vsync   5 Vback   23 Vpol N
    Display Range Limits:
      Monitor ranges (GTF): 50-76 Hz V, 30-94 kHz H, max dotclock 210 MHz
    Display Product Name: 'NT68822'
    Display Product Serial Number: ...
  Extension blocks: 1
Checksum: 0xdb

----------------

Block 1, Unknown EDID Extension Block 0x00:
  00 ff ff ff ff ff ff 00 3a d4 01 00 05 00 00 00 '........:.......'
  2a 1d 01 03 80 34 1e 78 2e ee 95 a3 54 4c 99 26 '*....4.x....TL.&'
  0f 50 54 a5 6b 80 61 c0 81 c0 81 40 81 80 95 00 '.PT.k.a....@....'
  a9 40 b3 00 d1 c0 1a 36 80 a0 70 38 1f 40 30 20 '.@.....6..p8.@0 '
  35 00 fe 1f 11 00 00 1a 00 00 00 fd 00 32 4c 1e '5............2L.'
  5e 15 00 0a 20 20 20 20 20 20 00 00 00 fc 00 4e '^...      .....N'
  54 36 38 38 32 32 0a 20 20 20 20 20 00 00 00 ff 'T68822.     ....'
  00 30 30 30 30 30 30 30 30 30 30 30 0a 20 01 db '.00000000000. ..'
Checksum: 0xdb

----------------

Block 2, Unknown EDID Extension Block 0x00:
  00 ff ff ff ff ff ff 00 3a d4 01 00 05 00 00 00 '........:.......'
  2a 1d 01 03 80 34 1e 78 2e ee 95 a3 54 4c 99 26 '*....4.x....TL.&'
  0f 50 54 a5 6b 80 61 c0 81 c0 81 40 81 80 95 00 '.PT.k.a....@....'
  a9 40 b3 00 d1 c0 1a 36 80 a0 70 38 1f 40 30 20 '.@.....6..p8.@0 '
  35 00 fe 1f 11 00 00 1a 00 00 00 fd 00 32 4c 1e '5............2L.'
  5e 15 00 0a 20 20 20 20 20 20 00 00 00 fc 00 4e '^...      .....N'
  54 36 38 38 32 32 0a 20 20 20 20 20 00 00 00 ff 'T68822.     ....'
  00 30 30 30 30 30 30 30 30 30 30 30 0a 20 01 db '.00000000000. ..'
Checksum: 0xdb

----------------

Block 3, Unknown EDID Extension Block 0x00:
  00 ff ff ff ff ff ff 00 3a d4 01 00 05 00 00 00 '........:.......'
  2a 1d 01 03 80 34 1e 78 2e ee 95 a3 54 4c 99 26 '*....4.x....TL.&'
  0f 50 54 a5 6b 80 61 c0 81 c0 81 40 81 80 95 00 '.PT.k.a....@....'
  a9 40 b3 00 d1 c0 1a 36 80 a0 70 38 1f 40 30 20 '.@.....6..p8.@0 '
  35 00 fe 1f 11 00 00 1a 00 00 00 fd 00 32 4c 1e '5............2L.'
  5e 15 00 0a 20 20 20 20 20 20 00 00 00 fc 00 4e '^...      .....N'
  54 36 38 38 32 32 0a 20 20 20 20 20 00 00 00 ff 'T68822.     ....'
  00 30 30 30 30 30 30 30 30 30 30 30 0a 20 01 db '.00000000000. ..'
Checksum: 0xdb

----------------

Failures:

Block 0, Base EDID:
  Basic Display Parameters & Features: sRGB is signaled, but the chromaticities do not match.
  Detailed Timing Descriptor #1: Mismatch of image size 510x287 mm vs display size 520x300 mm.
Block 1, Base EDID:
  Unknown Extension Block.
Block 2, Base EDID:
  Unknown Extension Block.
Block 3, Base EDID:
  Unknown Extension Block.
EDID:
  Base EDID: EDID specified 1 extension block(s), but found 3 extension block(s).
  Base EDID: EDID 1.3 requires a Block Map Extension in Block 1 if there are more than 2 blocks in the EDID.

EDID conformity: FAIL
