edid-decode (hex):

00 ff ff ff ff ff ff 00 30 64 09 13 30 30 30 30
03 14 01 04 90 1d 11 78 0a 11 a5 97 5a 52 8d 24
23 4e 57 00 00 00 01 01 01 01 01 01 01 01 01 01
01 01 01 01 01 01 26 2a 40 78 61 84 0a 30 48 80
33 00 27 a6 10 00 00 1a 94 1b 40 54 61 84 0a 30
48 80 33 00 27 a6 10 00 00 1a 00 00 00 fe 00 59
59 36 33 36 0b 31 33 33 45 31 34 0a 00 00 00 00
00 00 41 31 1e 00 00 00 00 09 01 0a 20 20 00 c2

----------------

Block 0, Base EDID:
  EDID Structure Version & Revision: 1.4
  Vendor & Product Identification:
    Manufacturer: LCD
    Model: 4873
    Serial Number: ...
    Made in: week 3 of 2010
  Basic Display Parameters & Features:
    Digital display
    Bits per primary color channel: 6
    Digital interface is not defined
    Maximum image size: 29 cm x 17 cm
    Gamma: 2.20
    Supported color formats: RGB 4:4:4, YCrCb 4:4:4
    First detailed timing includes the native pixel format and preferred refresh rate
  Color Characteristics:
    Red  : 0.5898, 0.3525
    Green: 0.3203, 0.5517
    Blue : 0.1425, 0.1386
    White: 0.3056, 0.3408
  Established Timings I & II: none
  Standard Timings: none
  Detailed Timing Descriptors:
    DTD 1:  1600x900    60.005784 Hz  16:9     54.605 kHz    107.900000 MHz (295 mm x 166 mm)
                 Hfront   72 Hsync 128 Hback  176 Hpol P
                 Vfront    3 Vsync   3 Vback    4 Vpol N
    DTD 2:  1600x900    39.990937 Hz  16:9     36.392 kHz     70.600000 MHz (295 mm x 166 mm)
                 Hfront   72 Hsync 128 Hback  140 Hpol P
                 Vfront    3 Vsync   3 Vback    4 Vpol N
    Alphanumeric Data String: 'YY636'
    Manufacturer-Specified Display Descriptor (0x00): 00 00 00 00 41 31 1e 00 00 00 00 09 01 0a 20 20 '....A1........  '
Checksum: 0xc2

----------------

Warnings:

Block 0, Base EDID:
  Missing Display Product Name.

Failures:

Block 0, Base EDID:
  Alphanumeric Data String: Non-printable character.

EDID conformity: FAIL
