
EDID (hex):
00ffffffffffff003064091330303030
03140104901d11780a11a5975a528d24
234e5700000001010101010101010101
010101010101262a407861840a304880
330027a61000001a941b405461840a30
4880330027a61000001a000000fe0059
593633360b3133334531340a00000000
000041311e0000000009010a202000c2

Extracted contents:
header:          00 ff ff ff ff ff ff 00
serial number:   30 64 09 13 30 30 30 30 03 14
version:         01 04
basic params:    90 1d 11 78 0a
chroma info:     11 a5 97 5a 52 8d 24 23 4e 57
established:     00 00 00
standard:        01 01 01 01 01 01 01 01 01 01 01 01 01 01 01 01
descriptor 1:    26 2a 40 78 61 84 0a 30 48 80 33 00 27 a6 10 00 00 1a
descriptor 2:    94 1b 40 54 61 84 0a 30 48 80 33 00 27 a6 10 00 00 1a
descriptor 3:    00 00 00 fe 00 59 59 36 33 36 0b 31 33 33 45 31 34 0a
descriptor 4:    00 00 00 00 00 00 41 31 1e 00 00 00 00 09 01 0a 20 20
extensions:      00
checksum:        c2

EDID version: 1.4
Manufacturer: LCD Model 1309 Serial Number --
Made in week 3 of 2010
Digital display
6 bits per primary color channel
Digital interface is not defined
Maximum image size: 29 cm x 17 cm
Gamma: 2.20
Supported color formats: RGB 4:4:4, YCrCb 4:4:4
First detailed timing includes the native pixel format and preferred refresh rate
Display x,y Chromaticity:
  Red:   0.5898, 0.3525
  Green: 0.3203, 0.5517
  Blue:  0.1425, 0.1386
  White: 0.3056, 0.3408
Established timings supported:
Standard timings supported:
Detailed mode: Clock 107.900 MHz, 295 mm x 166 mm
               1600 1672 1800 1976 hborder 0
                900  903  906  910 vborder 0
               +hsync -vsync 
               VertFreq: 60 Hz, HorFreq: 54605 Hz
Detailed mode: Clock 70.600 MHz, 295 mm x 166 mm
               1600 1672 1800 1940 hborder 0
                900  903  906  910 vborder 0
               +hsync -vsync 
               VertFreq: 39 Hz, HorFreq: 36391 Hz
ASCII string: YY636
Manufacturer-specified data, tag 0
Checksum: 0xc2 (valid)
EDID block does NOT conform to EDID 1.4!
	Missing name descriptor
	Missing monitor ranges
	Detailed block string not properly terminated
