
EDID (hex):
00ffffffffffff001ab3cb0701000000
2c130103683722782afe25a85337ae24
115054a54b00a940b3009500950f8100
810f81c08180283c80a070b023403020
360026582100001a000000fd003b4c1f
5211000a202020202020000000fc0053
4c33323630570a2020202020000000ff
00595631583031313030370a202000a5

Extracted contents:
header:          00 ff ff ff ff ff ff 00
serial number:   1a b3 cb 07 01 00 00 00 2c 13
version:         01 03
basic params:    68 37 22 78 2a
chroma info:     fe 25 a8 53 37 ae 24 11 50 54
established:     a5 4b 00
standard:        a9 40 b3 00 95 00 95 0f 81 00 81 0f 81 c0 81 80
descriptor 1:    28 3c 80 a0 70 b0 23 40 30 20 36 00 26 58 21 00 00 1a
descriptor 2:    00 00 00 fd 00 3b 4c 1f 52 11 00 0a 20 20 20 20 20 20
descriptor 3:    00 00 00 fc 00 53 4c 33 32 36 30 57 0a 20 20 20 20 20
descriptor 4:    00 00 00 ff 00 59 56 31 58 30 31 31 30 30 37 0a 20 20
extensions:      00
checksum:        a5

EDID version: 1.3
Manufacturer: FUS Model 7cb Serial Number --
Made in week 44 of 2009
Analog display, Input voltage level: 0.7/0.7 V
Sync: Separate 
Maximum image size: 55 cm x 34 cm
Gamma: 2.20
DPMS levels: Off
RGB color display
First detailed timing is preferred timing
Display x,y Chromaticity:
  Red:   0.6591, 0.3271
  Green: 0.2177, 0.6816
  Blue:  0.1406, 0.0683
  White: 0.3134, 0.3291
Established timings supported:
  720x400@70Hz 9:5 HorFreq: 31469 Hz Clock: 28.320 MHz
  640x480@60Hz 4:3 HorFreq: 31469 Hz Clock: 25.175 MHz
  640x480@75Hz 4:3 HorFreq: 37500 Hz Clock: 31.500 MHz
  800x600@60Hz 4:3 HorFreq: 37900 Hz Clock: 40.000 MHz
  800x600@75Hz 4:3 HorFreq: 46900 Hz Clock: 49.500 MHz
  1024x768@60Hz 4:3 HorFreq: 48400 Hz Clock: 65.000 MHz
  1024x768@75Hz 4:3 HorFreq: 60000 Hz Clock: 78.750 MHz
  1280x1024@75Hz 5:4 HorFreq: 80000 Hz Clock: 135.000 MHz
Standard timings supported:
  1600x1200@60Hz 4:3 HorFreq: 75000 Hz Clock: 162.000 MHz
  1680x1050@60Hz 16:10 HorFreq: 64700 Hz Clock: 119.000 MHz
  1440x900@60Hz 16:10 HorFreq: 55500 Hz Clock: 88.750 MHz
  1440x900@75Hz 16:10 HorFreq: 82300 Hz Clock: 156.000 MHz
  1280x800@60Hz 16:10
  1280x800@75Hz 16:10
  1280x720@60Hz 16:9
  1280x1024@60Hz 5:4 HorFreq: 64000 Hz Clock: 108.000 MHz
Detailed mode: Clock 154.000 MHz, 550 mm x 344 mm
               1920 1968 2000 2080 hborder 0
               1200 1203 1209 1235 vborder 0
               +hsync -vsync 
               VertFreq: 59 Hz, HorFreq: 74038 Hz
Monitor ranges (GTF): 59-76Hz V, 31-82kHz H, max dotclock 170MHz
Monitor name: SL3260W
Serial number: --
Checksum: 0xa5 (valid)
One or more of the timings is out of range of the Monitor Ranges:
  Vertical Freq: 59 - 75 Hz
  Horizontal Freq: 31469 - 82300 Hz
  Maximum Clock: 162.000 MHz
