
EDID (hex):
00ffffffffffff000469ae1901010101
1c1201030e291a782e6865a7554c9b24
1050542fcf00950081808140810081c0
714f010101012035a0f051842a306098
360098ff1000001c000000ff0038374c
4d56443031323138350a000000fd0038
4b1f5010000a202020202020000000fc
004143492056573139320a20202000fc

Extracted contents:
header:          00 ff ff ff ff ff ff 00
serial number:   04 69 ae 19 01 01 01 01 1c 12
version:         01 03
basic params:    0e 29 1a 78 2e
chroma info:     68 65 a7 55 4c 9b 24 10 50 54
established:     2f cf 00
standard:        95 00 81 80 81 40 81 00 81 c0 71 4f 01 01 01 01
descriptor 1:    20 35 a0 f0 51 84 2a 30 60 98 36 00 98 ff 10 00 00 1c
descriptor 2:    00 00 00 ff 00 38 37 4c 4d 56 44 30 31 32 31 38 35 0a
descriptor 3:    00 00 00 fd 00 38 4b 1f 50 10 00 0a 20 20 20 20 20 20
descriptor 4:    00 00 00 fc 00 41 43 49 20 56 57 31 39 32 0a 20 20 20
extensions:      00
checksum:        fc

EDID version: 1.3
Manufacturer: ACI Model 19ae Serial Number --
Made in week 28 of 2008
Analog display, Input voltage level: 0.7/0.3 V
Sync: Separate Composite SyncOnGreen 
Maximum image size: 41 cm x 26 cm
Gamma: 2.20
DPMS levels: Off
RGB color display
Default (sRGB) color space is primary color space
First detailed timing is preferred timing
Display x,y Chromaticity:
  Red:   0.6533, 0.3339
  Green: 0.2988, 0.6054
  Blue:  0.1416, 0.0644
  White: 0.3134, 0.3291
Established timings supported:
  640x480@60Hz 4:3 HorFreq: 31469 Hz Clock: 25.175 MHz
  640x480@72Hz 4:3 HorFreq: 37900 Hz Clock: 31.500 MHz
  640x480@75Hz 4:3 HorFreq: 37500 Hz Clock: 31.500 MHz
  800x600@56Hz 4:3 HorFreq: 35200 Hz Clock: 36.000 MHz
  800x600@60Hz 4:3 HorFreq: 37900 Hz Clock: 40.000 MHz
  800x600@72Hz 4:3 HorFreq: 48100 Hz Clock: 50.000 MHz
  800x600@75Hz 4:3 HorFreq: 46900 Hz Clock: 49.500 MHz
  1024x768@60Hz 4:3 HorFreq: 48400 Hz Clock: 65.000 MHz
  1024x768@70Hz 4:3 HorFreq: 56500 Hz Clock: 75.000 MHz
  1024x768@75Hz 4:3 HorFreq: 60000 Hz Clock: 78.750 MHz
  1280x1024@75Hz 5:4 HorFreq: 80000 Hz Clock: 135.000 MHz
Standard timings supported:
  1440x900@60Hz 16:10 HorFreq: 55500 Hz Clock: 88.750 MHz
  1280x1024@60Hz 5:4 HorFreq: 64000 Hz Clock: 108.000 MHz
  1280x960@60Hz 4:3 HorFreq: 60000 Hz Clock: 108.000 MHz
  1280x800@60Hz 16:10
  1280x720@60Hz 16:9
  1152x864@75Hz 4:3 HorFreq: 67500 Hz Clock: 108.000 MHz
Detailed mode: Clock 136.000 MHz, 408 mm x 255 mm
               1440 1536 1688 1936 hborder 0
                900  903  909  942 vborder 0
               -hsync +vsync 
               VertFreq: 74 Hz, HorFreq: 70247 Hz
Serial number: --
Monitor ranges (GTF): 56-75Hz V, 31-80kHz H, max dotclock 160MHz
Monitor name: ACI VW192
Checksum: 0xfc (valid)
EDID block does NOT conform to EDID 1.3!
	sRGB is signaled, but the chromaticities do not match
