edid-decode (hex):

00 ff ff ff ff ff ff 00 31 d8 00 00 00 00 00 00
05 16 01 03 6d 23 14 78 ea 5e c0 a4 59 4a 98 25
20 50 54 00 00 00 8b c0 01 01 01 01 01 01 01 01
01 01 01 01 01 01 66 21 50 b0 51 00 1b 30 40 70
36 00 62 c8 10 00 00 1e 00 00 00 ff 00 4c 69 6e
75 78 20 23 30 0a 20 20 20 20 00 00 00 fd 00 3b
3d 2e 30 09 00 0a 20 20 20 20 20 20 00 00 00 fc
00 31 33 36 30 78 37 36 38 69 0a 20 20 20 00 d0

00 ff ff ff ff ff ff 00 31 d8 00 00 00 00 00 00
05 16 01 03 6d 23 14 78 ea 5e c0 a4 59 4a 98 25
20 50 54 00 00 00 8b c0 01 01 01 01 01 01 01 01
01 01 01 01 01 01 66 21 50 b0 51 00 1b 30 40 70
36 00 62 c8 10 00 00 1e 00 00 00 ff 00 4c 69 6e
75 78 20 23 30 0a 20 20 20 20 00 00 00 fd 00 3b
3d 2e 30 09 00 0a 20 20 20 20 20 20 00 00 00 fc
00 31 33 36 30 78 37 36 38 69 0a 20 20 20 00 d0

----------------

Block 0, Base EDID:
  EDID Structure Version & Revision: 1.3
  Vendor & Product Identification:
    Manufacturer: LNX
    Model: 0
    Made in: week 5 of 2012
  Basic Display Parameters & Features:
    Analog display
    Signal Level Standard: 0.700 : 0.000 : 0.700 V p-p
    Blank level equals black level
    Sync: Separate Composite Serration
    Maximum image size: 35 cm x 20 cm
    Gamma: 2.20
    DPMS levels: Standby Suspend Off
    RGB color display
    First detailed timing is the preferred timing
  Color Characteristics:
    Red  : 0.6416, 0.3486
    Green: 0.2919, 0.5957
    Blue : 0.1474, 0.1250
    White: 0.3125, 0.3281
  Established Timings I & II: none
  Standard Timings:
    GTF     :  1360x765    60.000341 Hz  16:9     47.520 kHz     84.396000 MHz
  Detailed Timing Descriptors:
    DTD 1:  1360x768    60.015162 Hz  85:48    47.712 kHz     85.500000 MHz (354 mm x 200 mm)
                 Hfront   64 Hsync 112 Hback  256 Hpol P
                 Vfront    3 Vsync   6 Vback   18 Vpol P
    Display Product Serial Number: ...
    Display Range Limits:
      Monitor ranges (GTF): 59-61 Hz V, 46-48 kHz H, max dotclock 90 MHz
    Display Product Name: '1360x768i'
Checksum: 0xd0

----------------

Block 1, Unknown EDID Extension Block 0x00:
  00 ff ff ff ff ff ff 00 31 d8 00 00 00 00 00 00 '........1.......'
  05 16 01 03 6d 23 14 78 ea 5e c0 a4 59 4a 98 25 '....m#.x.^..YJ.%'
  20 50 54 00 00 00 8b c0 01 01 01 01 01 01 01 01 ' PT.............'
  01 01 01 01 01 01 66 21 50 b0 51 00 1b 30 40 70 '......f!P.Q..0@p'
  36 00 62 c8 10 00 00 1e 00 00 00 ff 00 4c 69 6e '6.b..........Lin'
  75 78 20 23 30 0a 20 20 20 20 00 00 00 fd 00 3b 'ux #0.    .....;'
  3d 2e 30 09 00 0a 20 20 20 20 20 20 00 00 00 fc '=.0...      ....'
  00 31 33 36 30 78 37 36 38 69 0a 20 20 20 00 d0 '.1360x768i.   ..'
Checksum: 0xd0

----------------

Warnings:

Block 0, Base EDID:
  Standard Timings: Standard Timing 1360x765 has a dubious odd vertical resolution.

Failures:

Block 1, Base EDID:
  Unknown Extension Block.
EDID:
  Base EDID: EDID specified 0 extension block(s), but found 1 extension block(s).

EDID conformity: FAIL
