edid-decode (hex):

00 ff ff ff ff ff ff 00 31 d8 00 00 00 00 00 00
05 16 01 03 6d 42 25 78 ea 5e c0 a4 59 4a 98 25
20 50 54 00 00 00 21 c0 01 01 01 01 01 01 01 01
01 01 01 01 01 01 56 5e 00 a0 a0 a0 29 50 30 20
35 00 9a 77 21 00 00 1e 00 00 00 ff 00 4c 69 6e
75 78 20 23 30 0a 20 20 20 20 00 00 00 fd 00 3b
3d 57 59 19 00 0a 20 20 20 20 20 20 00 00 00 fc
00 32 35 36 30 78 31 34 34 30 0a 20 20 20 00 69

----------------

Block 0, Base EDID:
  EDID Structure Version & Revision: 1.3
  Vendor & Product Identification:
    Manufacturer: LNX
    Model: 0
    Made in: week 5 of 2012
  Basic Display Parameters & Features:
    Analog display
    Input voltage level: 0.7/0.7 V
    Blank level equals black level
    Sync: Separate Composite Serration
    Maximum image size: 66 cm x 37 cm
    Gamma: 2.20
    DPMS levels: Standby Suspend Off
    RGB color display
    First detailed timing is the preferred timing
  Color Characteristics:
    Red  : 0.6416, 0.3486
    Green: 0.2919, 0.5957
    Blue : 0.1474, 0.1250
    White: 0.3125, 0.3281
  Established Timings I & II: none
  Standard Timings:
    GTF     :   512x288    59.997288 Hz  16:9     17.939 kHz     10.620000 MHz
  Detailed Timing Descriptors:
    DTD 1:  2560x1440   59.950550 Hz  16:9     88.787 kHz    241.500000 MHz (666 mm x 375 mm)
                 Hfront   48 Hsync  32 Hback   80 Hpol P
                 Vfront    3 Vsync   5 Vback   33 Vpol P
    Display Product Serial Number: ...
    Display Range Limits:
      Monitor ranges (GTF): 59-61 Hz V, 87-89 kHz H, max dotclock 250 MHz
    Display Product Name: '2560x1440'
Checksum: 0x69

----------------

Failures:

Block 0, Base EDID:
  Standard Timings: 0 or negative horizontal front porch.
EDID:
  Base EDID: Some timings are out of range of the Monitor Ranges:
    Horizontal Freq: 17.939 - 88.786 kHz (Monitor: 87.000 - 89.000 kHz)

EDID conformity: FAIL
