
EDID (hex):
00ffffffffffff0031d8000000000000
051601036d231478ea5ec0a4594a9825
2050540000008bc00101010101010101
0101010101011b2150a051001e304888
3a0062c81000001e000000ff004c696e
75782023300a20202020000000fd003b
3d2e3009000a202020202020000000fc
0031333630783736380a20202020004d

Extracted contents:
header:          00 ff ff ff ff ff ff 00
serial number:   31 d8 00 00 00 00 00 00 05 16
version:         01 03
basic params:    6d 23 14 78 ea
chroma info:     5e c0 a4 59 4a 98 25 20 50 54
established:     00 00 00
standard:        8b c0 01 01 01 01 01 01 01 01 01 01 01 01 01 01
descriptor 1:    1b 21 50 a0 51 00 1e 30 48 88 3a 00 62 c8 10 00 00 1e
descriptor 2:    00 00 00 ff 00 4c 69 6e 75 78 20 23 30 0a 20 20 20 20
descriptor 3:    00 00 00 fd 00 3b 3d 2e 30 09 00 0a 20 20 20 20 20 20
descriptor 4:    00 00 00 fc 00 31 33 36 30 78 37 36 38 0a 20 20 20 20
extensions:      00
checksum:        4d

EDID version: 1.3
Manufacturer: LNX Model 0 Serial Number --
Made in week 5 of 2012
Analog display, Input voltage level: 0.7/0.7 V
Sync: Separate Composite Serration 
Maximum image size: 35 cm x 20 cm
Gamma: 2.20
DPMS levels: Standby Suspend Off
RGB color display
First detailed timing is preferred timing
Display x,y Chromaticity:
  Red:   0.6416, 0.3486
  Green: 0.2919, 0.5957
  Blue:  0.1474, 0.1250
  White: 0.3125, 0.3281
Established timings supported:
Standard timings supported:
  1360x765@60Hz 16:9
Detailed mode: Clock 84.750 MHz, 354 mm x 200 mm
               1360 1432 1568 1776 hborder 0
                768  771  781  798 vborder 0
               +hsync +vsync 
               VertFreq: 59 Hz, HorFreq: 47719 Hz
Serial number: -- #0
Monitor ranges (GTF): 59-61Hz V, 46-48kHz H, max dotclock 90MHz
Monitor name: 1360x768
Checksum: 0x4d (valid)
