
EDID (hex):
00ffffffffffff0022f0434201000000
01190103812b1878ea64b5ab5238ab25
13505400000001010101010101010101
010101010101302a40c8608464301850
1300b2ec1000001c0000001000000000
00000000000000000000000000fc0048
5020414c4c2d696e2d4f6e65000000ff
004c4d3139355744310a2020202000a9

Extracted contents:
header:          00 ff ff ff ff ff ff 00
serial number:   22 f0 43 42 01 00 00 00 01 19
version:         01 03
basic params:    81 2b 18 78 ea
chroma info:     64 b5 ab 52 38 ab 25 13 50 54
established:     00 00 00
standard:        01 01 01 01 01 01 01 01 01 01 01 01 01 01 01 01
descriptor 1:    30 2a 40 c8 60 84 64 30 18 50 13 00 b2 ec 10 00 00 1c
descriptor 2:    00 00 00 10 00 00 00 00 00 00 00 00 00 00 00 00 00 00
descriptor 3:    00 00 00 fc 00 48 50 20 41 4c 4c 2d 69 6e 2d 4f 6e 65
descriptor 4:    00 00 00 ff 00 4c 4d 31 39 35 57 44 31 0a 20 20 20 20
extensions:      00
checksum:        a9

EDID version: 1.3
Manufacturer: HWP Model 4243 Serial Number --
Made in week 1 of 2015
Digital display
DFP 1.x compatible TMDS
Maximum image size: 43 cm x 24 cm
Gamma: 2.20
DPMS levels: Standby Suspend Off
RGB color display
First detailed timing is preferred timing
Display x,y Chromaticity:
  Red:   0.6689, 0.3222
  Green: 0.2197, 0.6679
  Blue:  0.1464, 0.0771
  White: 0.3134, 0.3291
Established timings supported:
Standard timings supported:
Detailed mode: Clock 108.000 MHz, 434 mm x 236 mm
               1600 1624 1704 1800 hborder 0
                900  901  904 1000 vborder 0
               -hsync +vsync 
               VertFreq: 60 Hz, HorFreq: 60000 Hz
Dummy block
Serial number: --
Checksum: 0xa9 (valid)
EDID block does NOT conform to EDID 1.3!
	Name descriptor not terminated with a newline
	Missing monitor ranges
