
EDID (hex):
00ffffffffffff0022f0434201000000
10170103802b1878ee5950a5554e9d25
11505400000001010101010101010101
010101010101302a40c8608464301850
1300b2ec10000000000000fc00485020
416c6c2d696e2d4f6e65000000fc000a
202020202020202020202020000000fc
000a2020202020202020202020200073

Extracted contents:
header:          00 ff ff ff ff ff ff 00
serial number:   22 f0 43 42 01 00 00 00 10 17
version:         01 03
basic params:    80 2b 18 78 ee
chroma info:     59 50 a5 55 4e 9d 25 11 50 54
established:     00 00 00
standard:        01 01 01 01 01 01 01 01 01 01 01 01 01 01 01 01
descriptor 1:    30 2a 40 c8 60 84 64 30 18 50 13 00 b2 ec 10 00 00 00
descriptor 2:    00 00 00 fc 00 48 50 20 41 6c 6c 2d 69 6e 2d 4f 6e 65
descriptor 3:    00 00 00 fc 00 0a 20 20 20 20 20 20 20 20 20 20 20 20
descriptor 4:    00 00 00 fc 00 0a 20 20 20 20 20 20 20 20 20 20 20 20
extensions:      00
checksum:        73

EDID version: 1.3
Manufacturer: HWP Model 4243 Serial Number --
Made in week 16 of 2013
Digital display
Maximum image size: 43 cm x 24 cm
Gamma: 2.20
DPMS levels: Standby Suspend Off
RGB color display
Default (sRGB) color space is primary color space
First detailed timing is preferred timing
Display x,y Chromaticity:
  Red:   0.6455, 0.3330
  Green: 0.3066, 0.6142
  Blue:  0.1455, 0.0673
  White: 0.3125, 0.3281
Established timings supported:
Standard timings supported:
Detailed mode: Clock 108.000 MHz, 434 mm x 236 mm
               1600 1624 1704 1800 hborder 0
                900  901  904 1000 vborder 0
               -hsync -vsync analog composite 
               VertFreq: 60 Hz, HorFreq: 60000 Hz
Monitor name: HP All-in-One
Checksum: 0x73 (valid)
EDID block does NOT conform to EDID 1.3!
	sRGB is signaled, but the chromaticities do not match
	Missing monitor ranges
