edid-decode (hex):

00 ff ff ff ff ff ff 00 10 ac 4a 07 01 00 00 00
28 19 01 03 81 35 1e 78 ea 64 b5 ab 52 38 ab 25
13 50 54 00 00 00 01 01 01 01 01 01 01 01 01 01
01 01 01 01 01 01 27 36 80 96 70 38 1f 40 18 50
ae 00 0f 28 21 00 00 1e 00 00 00 10 00 49 6e 73
70 69 72 6f 6e 20 33 34 35 35 00 00 00 fc 00 49
6e 73 70 69 72 6f 6e 20 33 32 36 35 00 00 00 00
00 03 41 02 99 00 00 00 00 02 01 0a 20 20 00 d5

----------------

Block 0, Base EDID:
  EDID Structure Version & Revision: 1.3
  Vendor & Product Identification:
    Manufacturer: DEL
    Model: 1866
    Serial Number: ...
    Made in: week 40 of 2015
  Basic Display Parameters & Features:
    Digital display
    DFP 1.x compatible TMDS
    Maximum image size: 53 cm x 30 cm
    Gamma: 2.20
    DPMS levels: Standby Suspend Off
    RGB color display
    First detailed timing is preferred timing
  Color Characteristics:
    Red  : 0.6689, 0.3222
    Green: 0.2197, 0.6679
    Blue : 0.1464, 0.0771
    White: 0.3134, 0.3291
  Established Timings I & II: none
  Standard Timings: none
  Detailed Timing Descriptors:
    DTD 1:  1920x1080   60.280 Hz  16:9    66.971 kHz 138.630 MHz (527 mm x 296 mm)
                 Hfront   24 Hsync  80 Hback  46 Hpol P
                 Vfront   10 Vsync  14 Vback   7 Vpol P
    Dummy Descriptor:
    Display Product Name: 'Inspiron 3265'
    Manufacturer-Specified Display Descriptor (0x00): 00 00 00 03 41 02 99 00 00 00 00 02 01 0a 20 20 '....A.........  '
Checksum: 0xd5

----------------

Failures:

Block 0, Base EDID:
  Dummy Descriptor: Dummy block filled with garbage.
  Missing Display Range Limits Descriptor.

EDID conformity: FAIL
