
EDID (hex):
00ffffffffffff0026cd0f6101010101
02170103813420782a7115a3544fa027
125054adcf0031468180818c9500950f
b300a940d1c0283c80a070b023403020
360006442100001a000000ff00313131
39393330323030393331000000fd0032
4b1e4b11000a202020202020000000fc
0058323438350a2020202020202000e4

Extracted contents:
header:          00 ff ff ff ff ff ff 00
serial number:   26 cd 0f 61 01 01 01 01 02 17
version:         01 03
basic params:    81 34 20 78 2a
chroma info:     71 15 a3 54 4f a0 27 12 50 54
established:     ad cf 00
standard:        31 46 81 80 81 8c 95 00 95 0f b3 00 a9 40 d1 c0
descriptor 1:    28 3c 80 a0 70 b0 23 40 30 20 36 00 06 44 21 00 00 1a
descriptor 2:    00 00 00 ff 00 31 31 31 39 39 33 30 32 30 30 39 33 31
descriptor 3:    00 00 00 fd 00 32 4b 1e 4b 11 00 0a 20 20 20 20 20 20
descriptor 4:    00 00 00 fc 00 58 32 34 38 35 0a 20 20 20 20 20 20 20
extensions:      00
checksum:        e4

EDID version: 1.3
Manufacturer: IVM Model 610f Serial Number --
Made in week 2 of 2013
Digital display
DFP 1.x compatible TMDS
Maximum image size: 52 cm x 32 cm
Gamma: 2.20
DPMS levels: Off
RGB color display
First detailed timing is preferred timing
Display x,y Chromaticity:
  Red:   0.6376, 0.3310
  Green: 0.3085, 0.6259
  Blue:  0.1523, 0.0712
  White: 0.3134, 0.3291
Established timings supported:
  720x400@70Hz 9:5 HorFreq: 31469 Hz Clock: 28.320 MHz
  640x480@60Hz 4:3 HorFreq: 31469 Hz Clock: 25.175 MHz
  640x480@72Hz 4:3 HorFreq: 37900 Hz Clock: 31.500 MHz
  640x480@75Hz 4:3 HorFreq: 37500 Hz Clock: 31.500 MHz
  800x600@60Hz 4:3 HorFreq: 37900 Hz Clock: 40.000 MHz
  800x600@72Hz 4:3 HorFreq: 48100 Hz Clock: 50.000 MHz
  800x600@75Hz 4:3 HorFreq: 46900 Hz Clock: 49.500 MHz
  1024x768@60Hz 4:3 HorFreq: 48400 Hz Clock: 65.000 MHz
  1024x768@70Hz 4:3 HorFreq: 56500 Hz Clock: 75.000 MHz
  1024x768@75Hz 4:3 HorFreq: 60000 Hz Clock: 78.750 MHz
  1280x1024@75Hz 5:4 HorFreq: 80000 Hz Clock: 135.000 MHz
Standard timings supported:
  640x480@66Hz 4:3
  1280x1024@60Hz 5:4 HorFreq: 64000 Hz Clock: 108.000 MHz
  1280x1024@72Hz 5:4
  1440x900@60Hz 16:10 HorFreq: 55500 Hz Clock: 88.750 MHz
  1440x900@75Hz 16:10 HorFreq: 82300 Hz Clock: 156.000 MHz
  1680x1050@60Hz 16:10 HorFreq: 64700 Hz Clock: 119.000 MHz
  1600x1200@60Hz 4:3 HorFreq: 75000 Hz Clock: 162.000 MHz
  1920x1080@60Hz 16:9
Detailed mode: Clock 154.000 MHz, 518 mm x 324 mm
               1920 1968 2000 2080 hborder 0
               1200 1203 1209 1235 vborder 0
               +hsync -vsync 
               VertFreq: 59 Hz, HorFreq: 74038 Hz
Serial number: --
Monitor ranges (GTF): 50-75Hz V, 30-75kHz H, max dotclock 170MHz
Monitor name: X2485
Checksum: 0xe4 (valid)
One or more of the timings is out of range of the Monitor Ranges:
  Vertical Freq: 59 - 75 Hz
  Horizontal Freq: 31469 - 82300 Hz
  Maximum Clock: 162.000 MHz
