edid-decode (hex):

00 ff ff ff ff ff ff 00 04 72 08 ac 80 01 00 00
0a 10 01 03 e8 52 2e 96 2a e6 9d a3 54 4a 99 26
0f 47 4a af ee 00 71 4f 81 c0 81 40 81 80 90 40
01 01 01 01 01 01 66 21 50 b0 51 00 1b 30 40 70
36 00 34 cc 31 00 00 1e 01 1d 80 18 71 1c 16 20
58 2c 25 00 34 cc 31 00 00 9e 00 00 00 fd 00 32
55 1e 50 0b 00 0a 20 20 20 20 20 20 00 00 00 fc
00 41 63 65 72 20 41 54 33 37 30 35 0a 20 00 87

00 ff ff ff ff ff ff 00 04 72 08 ac 80 01 00 00
0a 10 01 03 e8 52 2e 96 2a e6 9d a3 54 4a 99 26
0f 47 4a af ee 00 71 4f 81 c0 81 40 81 80 90 40
01 01 01 01 01 01 66 21 50 b0 51 00 1b 30 40 70
36 00 34 cc 31 00 00 1e 01 1d 80 18 71 1c 16 20
58 2c 25 00 34 cc 31 00 00 9e 00 00 00 fd 00 32
55 1e 50 0b 00 0a 20 20 20 20 20 20 00 00 00 fc
00 41 63 65 72 20 41 54 33 37 30 35 0a 20 00 87

----------------

Block 0, Base EDID:
  EDID Structure Version & Revision: 1.3
  Vendor & Product Identification:
    Manufacturer: ACR
    Model: 44040
    Serial Number: ...
    Made in: week 10 of 2006
  Basic Display Parameters & Features:
    Digital display
    Maximum image size: 82 cm x 46 cm
    Gamma: 2.50
    DPMS levels: Off
    RGB color display
    First detailed timing is the preferred timing
  Color Characteristics:
    Red  : 0.6396, 0.3300
    Green: 0.2900, 0.5996
    Blue : 0.1503, 0.0595
    White: 0.2802, 0.2900
  Established Timings I & II:
    IBM     :   720x400    70.081663 Hz   9:5     31.467 kHz     28.320000 MHz
    DMT 0x04:   640x480    59.940476 Hz   4:3     31.469 kHz     25.175000 MHz
    DMT 0x05:   640x480    72.808802 Hz   4:3     37.861 kHz     31.500000 MHz
    DMT 0x06:   640x480    75.000000 Hz   4:3     37.500 kHz     31.500000 MHz
    DMT 0x08:   800x600    56.250000 Hz   4:3     35.156 kHz     36.000000 MHz
    DMT 0x09:   800x600    60.316541 Hz   4:3     37.879 kHz     40.000000 MHz
    DMT 0x0a:   800x600    72.187572 Hz   4:3     48.077 kHz     50.000000 MHz
    DMT 0x0b:   800x600    75.000000 Hz   4:3     46.875 kHz     49.500000 MHz
    Apple   :   832x624    74.551266 Hz   4:3     49.726 kHz     57.284000 MHz
    DMT 0x10:  1024x768    60.003840 Hz   4:3     48.363 kHz     65.000000 MHz
    DMT 0x11:  1024x768    70.069359 Hz   4:3     56.476 kHz     75.000000 MHz
    DMT 0x12:  1024x768    75.028582 Hz   4:3     60.023 kHz     78.750000 MHz
  Standard Timings:
    DMT 0x15:  1152x864    75.000000 Hz   4:3     67.500 kHz    108.000000 MHz
    DMT 0x55:  1280x720    60.000000 Hz  16:9     45.000 kHz     74.250000 MHz
    DMT 0x20:  1280x960    60.000000 Hz   4:3     60.000 kHz    108.000000 MHz
    DMT 0x23:  1280x1024   60.019740 Hz   5:4     63.981 kHz    108.000000 MHz
    DMT 0x2a:  1400x1050   59.978442 Hz   4:3     65.317 kHz    121.750000 MHz
  Detailed Timing Descriptors:
    DTD 1:  1360x768    60.015162 Hz  85:48    47.712 kHz     85.500000 MHz (820 mm x 460 mm)
                 Hfront   64 Hsync 112 Hback  256 Hpol P
                 Vfront    3 Vsync   6 Vback   18 Vpol P
    DTD 2:  1920x1080i  60.000000 Hz  16:9     33.750 kHz     74.250000 MHz (820 mm x 460 mm)
                 Hfront   88 Hsync  44 Hback  148 Hpol P
                 Vfront    2 Vsync   5 Vback   15 Vpol P Vfront +0.5 Odd Field
                 Vfront    2 Vsync   5 Vback   15 Vpol P Vback  +0.5 Even Field
    Display Range Limits:
      Monitor ranges (GTF): 50-85 Hz V, 30-80 kHz H, max dotclock 110 MHz
    Display Product Name: 'Acer AT3705'
Checksum: 0x87

----------------

Block 1, Unknown EDID Extension Block 0x00:
  00 ff ff ff ff ff ff 00 04 72 08 ac 80 01 00 00 '.........r......'
  0a 10 01 03 e8 52 2e 96 2a e6 9d a3 54 4a 99 26 '.....R..*...TJ.&'
  0f 47 4a af ee 00 71 4f 81 c0 81 40 81 80 90 40 '.GJ...qO...@...@'
  01 01 01 01 01 01 66 21 50 b0 51 00 1b 30 40 70 '......f!P.Q..0@p'
  36 00 34 cc 31 00 00 1e 01 1d 80 18 71 1c 16 20 '6.4.1.......q.. '
  58 2c 25 00 34 cc 31 00 00 9e 00 00 00 fd 00 32 'X,%.4.1........2'
  55 1e 50 0b 00 0a 20 20 20 20 20 20 00 00 00 fc 'U.P...      ....'
  00 41 63 65 72 20 41 54 33 37 30 35 0a 20 00 87 '.Acer AT3705. ..'
Checksum: 0x87

----------------

Failures:

Block 0, Base EDID:
  Basic Display Parameters & Features: Digital Video Interface Standard set to reserved value 0x68.
Block 1, Base EDID:
  Unknown Extension Block.
EDID:
  Base EDID: Some timings are out of range of the Monitor Ranges:
    Maximum Clock: 121.750 MHz (Monitor: 110.000 MHz)
  Base EDID: EDID specified 0 extension block(s), but found 1 extension block(s).

EDID conformity: FAIL
