edid-decode (hex):

00 ff ff ff ff ff ff 00 5a 74 01 00 01 01 01 01
32 12 01 04 0f 59 32 78 ee 01 c1 a0 57 47 98 27
12 4c 4c ff df 00 71 40 71 4a 71 4f 81 80 81 8c
45 4a 81 c0 81 ca 80 25 00 a0 51 d0 23 20 50 80
35 00 da 29 11 00 00 1e 64 32 00 c0 51 00 2d 40
58 88 37 00 da 29 11 00 00 1e 00 00 00 fd 00 38
4c 1f 52 0f 00 0a 20 20 20 20 20 20 00 00 00 fc
00 4c 43 44 31 39 0a 20 20 20 20 20 20 20 00 23

----------------

Block 0, Base EDID:
  EDID Structure Version & Revision: 1.4
  Vendor & Product Identification:
    Manufacturer: VST
    Model: 1
    Serial Number: ...
    Made in: week 50 of 2008
  Basic Display Parameters & Features:
    Analog display
    Input voltage level: 0.7/0.3 V
    Blank level equals black level
    Sync: Separate Composite SyncOnGreen Serration
    Maximum image size: 89 cm x 50 cm
    Gamma: 2.20
    DPMS levels: Standby Suspend Off
    RGB color display
    Default (sRGB) color space is primary color space
    First detailed timing includes the native pixel format and preferred refresh rate
  Color Characteristics:
    Red  : 0.6250, 0.3398
    Green: 0.2773, 0.5947
    Blue : 0.1552, 0.0703
    White: 0.2968, 0.2978
  Established Timings I & II:
    IBM     :   720x400    70.082 Hz   9:5    31.467 kHz  28.320 MHz
    IBM     :   720x400    87.850 Hz   9:5    39.444 kHz  35.500 MHz
    DMT 0x04:   640x480    59.940 Hz   4:3    31.469 kHz  25.175 MHz
    Apple   :   640x480    66.667 Hz   4:3    35.000 kHz  30.240 MHz
    DMT 0x05:   640x480    72.809 Hz   4:3    37.861 kHz  31.500 MHz
    DMT 0x06:   640x480    75.000 Hz   4:3    37.500 kHz  31.500 MHz
    DMT 0x08:   800x600    56.250 Hz   4:3    35.156 kHz  36.000 MHz
    DMT 0x09:   800x600    60.317 Hz   4:3    37.879 kHz  40.000 MHz
    DMT 0x0a:   800x600    72.188 Hz   4:3    48.077 kHz  50.000 MHz
    DMT 0x0b:   800x600    75.000 Hz   4:3    46.875 kHz  49.500 MHz
    DMT 0x0f:  1024x768i   86.958 Hz   4:3    35.522 kHz  44.900 MHz
    DMT 0x10:  1024x768    60.004 Hz   4:3    48.363 kHz  65.000 MHz
    DMT 0x11:  1024x768    70.069 Hz   4:3    56.476 kHz  75.000 MHz
    DMT 0x12:  1024x768    75.029 Hz   4:3    60.023 kHz  78.750 MHz
    DMT 0x24:  1280x1024   75.025 Hz   5:4    79.976 kHz 135.000 MHz
  Standard Timings:
    CVT     :  1152x864    59.959 Hz   4:3    53.783 kHz  81.750 MHz (EDID 1.4 source)
    GTF     :  1152x864    60.000 Hz   4:3    53.700 kHz  81.624 MHz (EDID 1.3 source)
    CVT     :  1152x864    69.832 Hz   4:3    62.988 kHz  96.750 MHz (EDID 1.4 source)
    GTF     :  1152x864    70.000 Hz   4:3    63.000 kHz  96.768 MHz (EDID 1.3 source)
    DMT 0x15:  1152x864    75.000 Hz   4:3    67.500 kHz 108.000 MHz
    DMT 0x23:  1280x1024   60.020 Hz   5:4    63.981 kHz 108.000 MHz
    CVT     :  1280x1024   71.932 Hz   5:4    76.968 kHz 133.000 MHz (EDID 1.4 source)
    GTF     :  1280x1024   72.000 Hz   5:4    76.824 kHz 132.752 MHz (EDID 1.3 source)
    CVT     :   800x600    69.666 Hz   4:3    43.750 kHz  45.500 MHz (EDID 1.4 source)
    GTF     :   800x600    70.000 Hz   4:3    43.750 kHz  45.500 MHz (EDID 1.3 source)
    DMT 0x55:  1280x720    60.000 Hz  16:9    45.000 kHz  74.250 MHz
    CVT     :  1280x720    69.853 Hz  16:9    52.530 kHz  88.250 MHz (EDID 1.4 source)
    GTF     :  1280x720    70.000 Hz  16:9    52.500 kHz  89.040 MHz (EDID 1.3 source)
  Detailed Timing Descriptors:
    DTD 1:  1280x720    74.972 Hz  16:9    56.604 kHz  96.000 MHz (474 mm x 297 mm)
                 Hfront   80 Hsync 128 Hback 208 Hpol P
                 Vfront    3 Vsync   5 Vback  27 Vpol P
    DTD 2:  1280x1024   69.834 Hz   5:4    74.653 kHz 129.000 MHz (474 mm x 297 mm)
                 Hfront   88 Hsync 136 Hback 224 Hpol P
                 Vfront    3 Vsync   7 Vback  35 Vpol P
  Display Range Limits:
    Monitor ranges (GTF): 56-76 Hz V, 31-82 kHz H, max dotclock 150 MHz
    Display Product Name: 'LCD19'
Checksum: 0x23

----------------

Warnings:

EDID:
  Base EDID: Some timings are out of range of the Monitor Ranges:
    Vertical Freq: 56.250 - 87.850 Hz (Monitor: 56.000 - 76.000 Hz)

Failures:

Block 0, Base EDID:
  Basic Display Parameters & Features: sRGB is signaled, but the chromaticities do not match.
  Detailed Timing Descriptor #1: Mismatch of image size 474x297 mm vs display size 890x500 mm.
  Detailed Timing Descriptor #2: Mismatch of image size 474x297 mm vs display size 890x500 mm.
  Display Range Limits: GTF can't be combined with non-continuous frequencies.
EDID:
  Base EDID: CVT timings are used, but the EDID does not signal CVT support.

EDID conformity: FAIL
