edid-decode (hex):

00 ff ff ff ff ff ff 00 4c a3 4b 54 00 00 00 00
00 14 01 04 90 26 15 78 0a 56 25 9d 5b 53 9a 28
17 50 54 00 00 00 01 01 01 01 01 01 01 01 01 01
01 01 01 01 01 01 a5 25 40 88 60 84 16 30 30 20
15 00 7e d7 10 00 00 1a 19 19 40 88 60 84 16 30
30 20 15 00 7e d7 10 00 00 1a 00 00 00 fe 00 47
46 4b 46 33 80 31 37 33 4b 54 0a 20 00 00 00 00
00 00 41 01 99 00 00 00 00 02 01 0a 20 20 00 bc

----------------

Block 0, Base EDID:
  EDID Structure Version & Revision: 1.4
  Vendor & Product Identification:
    Manufacturer: SEC
    Model: 21579
    Made in: 2010
  Basic Display Parameters & Features:
    Digital display
    Bits per primary color channel: 6
    Digital interface is not defined
    Maximum image size: 38 cm x 21 cm
    Gamma: 2.20
    Supported color formats: RGB 4:4:4, YCrCb 4:4:4
    First detailed timing includes the native pixel format and preferred refresh rate
  Color Characteristics:
    Red  : 0.6142, 0.3564
    Green: 0.3251, 0.6035
    Blue : 0.1562, 0.0917
    White: 0.3134, 0.3291
  Established Timings I & II: none
  Standard Timings: none
  Detailed Timing Descriptors:
    DTD 1:  1600x900    60.208973 Hz  16:9     55.513 kHz     96.370000 MHz (382 mm x 215 mm)
                 Hfront   48 Hsync  32 Hback   56 Hpol P
                 Vfront    1 Vsync   5 Vback   16 Vpol N
    DTD 2:  1600x900    40.141398 Hz  16:9     37.010 kHz     64.250000 MHz (382 mm x 215 mm)
                 Hfront   48 Hsync  32 Hback   56 Hpol P
                 Vfront    1 Vsync   5 Vback   16 Vpol N
    Alphanumeric Data String: 'GFKF3'
    Manufacturer-Specified Display Descriptor (0x00): 00 00 00 00 41 01 99 00 00 00 00 02 01 0a 20 20 '....A.........  '
Checksum: 0xbc

----------------

Warnings:

Block 0, Base EDID:
  Missing Display Product Name.

Failures:

Block 0, Base EDID:
  Alphanumeric Data String: Non-printable character.

EDID conformity: FAIL
