
EDID (hex):
00ffffffffffff004ca34b5400000000
00140104901f11780a4bc59c57548c27
17505400000001010101010101010101
0101010101018e2c40bc61841e303020
250036ae1000001af11c408861841e30
3020250036ae1000001a000000fe004d
4a313534803134304b540a2000000000
00004101980000000002010a2020001d

Extracted contents:
header:          00 ff ff ff ff ff ff 00
serial number:   4c a3 4b 54 00 00 00 00 00 14
version:         01 04
basic params:    90 1f 11 78 0a
chroma info:     4b c5 9c 57 54 8c 27 17 50 54
established:     00 00 00
standard:        01 01 01 01 01 01 01 01 01 01 01 01 01 01 01 01
descriptor 1:    8e 2c 40 bc 61 84 1e 30 30 20 25 00 36 ae 10 00 00 1a
descriptor 2:    f1 1c 40 88 61 84 1e 30 30 20 25 00 36 ae 10 00 00 1a
descriptor 3:    00 00 00 fe 00 4d 4a 31 35 34 80 31 34 30 4b 54 0a 20
descriptor 4:    00 00 00 00 00 00 41 01 98 00 00 00 00 02 01 0a 20 20
extensions:      00
checksum:        1d

EDID version: 1.4
Manufacturer: SEC Model 544b Serial Number --
Made in year 2010
Digital display
6 bits per primary color channel
Digital interface is not defined
Maximum image size: 31 cm x 17 cm
Gamma: 2.20
Supported color formats: RGB 4:4:4, YCrCb 4:4:4
First detailed timing includes the native pixel format and preferred refresh rate
Display x,y Chromaticity:
  Red:   0.6103, 0.3398
  Green: 0.3300, 0.5498
  Blue:  0.1552, 0.0898
  White: 0.3134, 0.3291
Established timings supported:
Standard timings supported:
Detailed mode: Clock 114.060 MHz, 310 mm x 174 mm
               1600 1648 1680 2044 hborder 0
                900  902  907  930 vborder 0
               +hsync -vsync 
               VertFreq: 60 Hz, HorFreq: 55802 Hz
Detailed mode: Clock 74.090 MHz, 310 mm x 174 mm
               1600 1648 1680 1992 hborder 0
                900  902  907  930 vborder 0
               +hsync -vsync 
               VertFreq: 39 Hz, HorFreq: 37193 Hz
ASCII string: MJ154
Manufacturer-specified data, tag 0
Checksum: 0x1d (valid)
EDID block does NOT conform to EDID 1.4!
	Missing name descriptor
	Missing monitor ranges
	Detailed block string not properly terminated
