edid-decode (hex):

00 ff ff ff ff ff ff 00 4c a3 4b 54 00 00 00 00
00 13 01 03 90 26 15 78 0a 56 25 9d 5b 53 9a 28
17 50 54 00 00 00 01 01 01 01 01 01 01 01 01 01
01 01 01 01 01 01 a5 25 40 88 60 84 16 30 30 20
15 00 7e d7 10 00 00 1a a5 25 40 88 60 84 16 30
30 20 15 00 7e d7 10 00 00 1a 00 00 00 fe 00 4a
31 33 4a 58 80 31 37 33 4b 54 0a 20 00 00 00 00
00 00 00 00 00 00 00 00 00 02 01 0a 20 20 00 02

----------------

Block 0, Base EDID:
  EDID Structure Version & Revision: 1.3
  Vendor & Product Identification:
    Manufacturer: SEC
    Model: 21579
    Made in: 2009
  Basic Display Parameters & Features:
    Digital display
    Maximum image size: 38 cm x 21 cm
    Gamma: 2.20
    RGB color display
    First detailed timing is preferred timing
  Color Characteristics:
    Red  : 0.6142, 0.3564
    Green: 0.3251, 0.6035
    Blue : 0.1562, 0.0917
    White: 0.3134, 0.3291
  Established Timings I & II: none
  Standard Timings: none
  Detailed Timing Descriptors:
    DTD 1:  1600x900    60.209 Hz  16:9    55.513 kHz  96.370 MHz (382 mm x 215 mm)
                 Hfront   48 Hsync  32 Hback  56 Hpol P
                 Vfront    1 Vsync   5 Vback  16 Vpol N
    DTD 2:  1600x900    60.209 Hz  16:9    55.513 kHz  96.370 MHz (382 mm x 215 mm)
                 Hfront   48 Hsync  32 Hback  56 Hpol P
                 Vfront    1 Vsync   5 Vback  16 Vpol N
    Alphanumeric Data String: 'J13JX'
    Manufacturer-Specified Display Descriptor (0x00): 00 00 00 00 00 00 00 00 00 00 00 02 01 0a 20 20 '..............  '
Checksum: 0x2

----------------

Failures:

Block 0, Base EDID:
  Basic Display Parameters & Features: Digital Video Interface Standard set to reserved value 0x10.
  Alphanumeric Data String: Non-printable character.
  Missing Display Product Name.
  Missing Display Range Limits Descriptor.

EDID conformity: FAIL
