
EDID (hex):
00ffffffffffff003684010000000000
00110101801e13780acfc097594e9127
21505400000001010101010101010101
010101010101bc1b00a0502017303020
36002fbe100000180000000f00000000
00000000000000000001000000fe004d
494e4454454348000000000a000000fe
004d3134314e5757313030312020009f

Extracted contents:
header:          00 ff ff ff ff ff ff 00
serial number:   36 84 01 00 00 00 00 00 00 11
version:         01 01
basic params:    80 1e 13 78 0a
chroma info:     cf c0 97 59 4e 91 27 21 50 54
established:     00 00 00
standard:        01 01 01 01 01 01 01 01 01 01 01 01 01 01 01 01
descriptor 1:    bc 1b 00 a0 50 20 17 30 30 20 36 00 2f be 10 00 00 18
descriptor 2:    00 00 00 0f 00 00 00 00 00 00 00 00 00 00 00 00 00 01
descriptor 3:    00 00 00 fe 00 4d 49 4e 44 54 45 43 48 00 00 00 00 0a
descriptor 4:    00 00 00 fe 00 4d 31 34 31 4e 57 57 31 30 30 31 20 20
extensions:      00
checksum:        9f

EDID version: 1.1
Manufacturer: MTD Model 1 Serial Number --
Made in year 2007
Digital display
Maximum image size: 30 cm x 19 cm
Gamma: 2.20
RGB color display
First detailed timing is preferred timing
Display x,y Chromaticity:
  Red:   0.5927, 0.3476
  Green: 0.3076, 0.5693
  Blue:  0.1552, 0.1289
  White: 0.3125, 0.3281
Established timings supported:
Standard timings supported:
Detailed mode: Clock 71.000 MHz, 303 mm x 190 mm
               1280 1328 1360 1440 hborder 0
                800  803  809  823 vborder 0
               -hsync -vsync 
               VertFreq: 59 Hz, HorFreq: 49305 Hz
Manufacturer-specified data, tag 15
ASCII string: MINDTECH
ASCII string: M141NWW1001  
Checksum: 0x9f (valid)
EDID block does NOT conform to EDID 1.0!
	Has descriptor blocks other than detailed timings
