
EDID (hex):
00ffffffffffff0006af9b2500000000
001f0104a51e137803aeac9358599128
1d505400000001010101010101010101
010101010101fa3c80b870b024401010
3e002dbc1000001ac83080b870b02440
10103e002dbc1000001a000000fe0032
4d354846804231343055414e00000000
0002412299001000000a010a2020008e

Extracted contents:
header:          00 ff ff ff ff ff ff 00
serial number:   06 af 9b 25 00 00 00 00 00 1f
version:         01 04
basic params:    a5 1e 13 78 03
chroma info:     ae ac 93 58 59 91 28 1d 50 54
established:     00 00 00
standard:        01 01 01 01 01 01 01 01 01 01 01 01 01 01 01 01
descriptor 1:    fa 3c 80 b8 70 b0 24 40 10 10 3e 00 2d bc 10 00 00 1a
descriptor 2:    c8 30 80 b8 70 b0 24 40 10 10 3e 00 2d bc 10 00 00 1a
descriptor 3:    00 00 00 fe 00 32 4d 35 48 46 80 42 31 34 30 55 41 4e
descriptor 4:    00 00 00 00 00 02 41 22 99 00 10 00 00 0a 01 0a 20 20
extensions:      00
checksum:        8e

EDID version: 1.4
Manufacturer: AUO Model 259b Serial Number --
Made in year 2021
Digital display
8 bits per primary color channel
DisplayPort interface
Maximum image size: 30 cm x 19 cm
Gamma: 2.20
Supported color formats: RGB 4:4:4
First detailed timing includes the native pixel format and preferred refresh rate
Display is continuous frequency
Display x,y Chromaticity:
  Red:   0.5761, 0.3457
  Green: 0.3505, 0.5683
  Blue:  0.1582, 0.1152
  White: 0.3154, 0.3281
Established timings supported:
Standard timings supported:
Detailed mode: Clock 156.100 MHz, 301 mm x 188 mm
               1920 1936 1952 2104 hborder 0
               1200 1203 1217 1236 vborder 0
               +hsync -vsync 
               VertFreq: 60 Hz, HorFreq: 74192 Hz
Detailed mode: Clock 124.880 MHz, 301 mm x 188 mm
               1920 1936 1952 2104 hborder 0
               1200 1203 1217 1236 vborder 0
               +hsync -vsync 
               VertFreq: 48 Hz, HorFreq: 59353 Hz
ASCII string: 2M5HF
Manufacturer-specified data, tag 0
Checksum: 0x8e (valid)
EDID block does NOT conform to EDID 1.4!
	Missing name descriptor
	Missing monitor ranges
	Detailed block string not properly terminated
