
EDID (hex):
00ffffffffffff003103340000000000
011e0104b55021783b64f5ad5049a322
135054a54b00714f81c0814081809500
a9c0b300d1c0f57c70a0d0a029503020
35001d4e3100001aebf970a0d0a02950
302035001d4e3100001e000000fd0030
90a0a03c010a202020202020000000fc
003334433630310a20202020202002c3
020327f44f010203040590111213141f
2021223f2309070783010000e6060701
605d29e305e301023a801871382d4058
2c96001d4e3100001e20ac00a0a0382d
40302035001d4e3100001e43d070a0d0
a02950302035001d4e3100001ea348b8
6861a03250304035001d4e3100001e00
0000000000000000000000000000009d
7012790000030014e62b01046f0d9f00
2f001f009f0528000280040007000a08
81000804000402100000000000000000
00000000000000000000000000000000
00000000000000000000000000000000
00000000000000000000000000000000
00000000000000000000000000000000
0000000000000000000000000000d190

Extracted contents:
header:          00 ff ff ff ff ff ff 00
serial number:   31 03 34 00 00 00 00 00 01 1e
version:         01 04
basic params:    b5 50 21 78 3b
chroma info:     64 f5 ad 50 49 a3 22 13 50 54
established:     a5 4b 00
standard:        71 4f 81 c0 81 40 81 80 95 00 a9 c0 b3 00 d1 c0
descriptor 1:    f5 7c 70 a0 d0 a0 29 50 30 20 35 00 1d 4e 31 00 00 1a
descriptor 2:    eb f9 70 a0 d0 a0 29 50 30 20 35 00 1d 4e 31 00 00 1e
descriptor 3:    00 00 00 fd 00 30 90 a0 a0 3c 01 0a 20 20 20 20 20 20
descriptor 4:    00 00 00 fc 00 33 34 43 36 30 31 0a 20 20 20 20 20 20
extensions:      02
checksum:        c3

EDID version: 1.4
Manufacturer: LHC Model 34 Serial Number --
Made in week 1 of 2020
Digital display
10 bits per primary color channel
DisplayPort interface
Maximum image size: 80 cm x 33 cm
Gamma: 2.20
DPMS levels: Off
Supported color formats: RGB 4:4:4, YCrCb 4:4:4, YCrCb 4:2:2
First detailed timing includes the native pixel format and preferred refresh rate
Display is continuous frequency
Display x,y Chromaticity:
  Red:   0.6767, 0.3144
  Green: 0.2861, 0.6367
  Blue:  0.1357, 0.0771
  White: 0.3134, 0.3291
Established timings supported:
  720x400@70Hz 9:5 HorFreq: 31469 Hz Clock: 28.320 MHz
  640x480@60Hz 4:3 HorFreq: 31469 Hz Clock: 25.175 MHz
  640x480@75Hz 4:3 HorFreq: 37500 Hz Clock: 31.500 MHz
  800x600@60Hz 4:3 HorFreq: 37900 Hz Clock: 40.000 MHz
  800x600@75Hz 4:3 HorFreq: 46900 Hz Clock: 49.500 MHz
  1024x768@60Hz 4:3 HorFreq: 48400 Hz Clock: 65.000 MHz
  1024x768@75Hz 4:3 HorFreq: 60000 Hz Clock: 78.750 MHz
  1280x1024@75Hz 5:4 HorFreq: 80000 Hz Clock: 135.000 MHz
Standard timings supported:
  1152x864@75Hz 4:3 HorFreq: 67500 Hz Clock: 108.000 MHz
  1280x720@60Hz 16:9
  1280x960@60Hz 4:3 HorFreq: 60000 Hz Clock: 108.000 MHz
  1280x1024@60Hz 5:4 HorFreq: 64000 Hz Clock: 108.000 MHz
  1440x900@60Hz 16:10 HorFreq: 55500 Hz Clock: 88.750 MHz
  1600x900@60Hz 16:9
  1680x1050@60Hz 16:10 HorFreq: 64700 Hz Clock: 119.000 MHz
  1920x1080@60Hz 16:9
Detailed mode: Clock 319.890 MHz, 797 mm x 334 mm
               3440 3488 3520 3600 hborder 0
               1440 1443 1448 1481 vborder 0
               +hsync -vsync 
               VertFreq: 59 Hz, HorFreq: 88858 Hz
Detailed mode: Clock 639.790 MHz, 797 mm x 334 mm
               3440 3488 3520 3600 hborder 0
               1440 1443 1448 1481 vborder 0
               +hsync +vsync 
               VertFreq: 119 Hz, HorFreq: 177719 Hz
Monitor ranges (bare limits): 48-144Hz V, 160-160kHz H, max dotclock 600MHz
Monitor name: 34C601
Has 2 extension blocks
Checksum: 0xc3 (valid)

CTA extension block
Extension version: 3
35 bytes of CTA data
  Video data block
    VIC   1 640x480@60Hz 4:3  HorFreq: 31469 Hz Clock: 25.175 MHz
    VIC   2 720x480@60Hz 4:3  HorFreq: 31469 Hz Clock: 27.000 MHz
    VIC   3 720x480@60Hz 16:9  HorFreq: 31469 Hz Clock: 27.000 MHz
    VIC   4 1280x720@60Hz 16:9  HorFreq: 45000 Hz Clock: 74.250 MHz
    VIC   5 1920x1080i@60Hz 16:9  HorFreq: 33750 Hz Clock: 74.250 MHz
    VIC  16 1920x1080@60Hz 16:9 (native) HorFreq: 67500 Hz Clock: 148.500 MHz
    VIC  17 720x576@50Hz 4:3  HorFreq: 31250 Hz Clock: 27.000 MHz
    VIC  18 720x576@50Hz 16:9  HorFreq: 31250 Hz Clock: 27.000 MHz
    VIC  19 1280x720@50Hz 16:9  HorFreq: 37500 Hz Clock: 74.250 MHz
    VIC  20 1920x1080i@50Hz 16:9  HorFreq: 28125 Hz Clock: 74.250 MHz
    VIC  31 1920x1080@50Hz 16:9  HorFreq: 56250 Hz Clock: 148.500 MHz
    VIC  32 1920x1080@24Hz 16:9  HorFreq: 27000 Hz Clock: 74.250 MHz
    VIC  33 1920x1080@25Hz 16:9  HorFreq: 28125 Hz Clock: 74.250 MHz
    VIC  34 1920x1080@30Hz 16:9  HorFreq: 33750 Hz Clock: 74.250 MHz
    VIC  63 1920x1080@120Hz 16:9  HorFreq: 135000 Hz Clock: 297.000 MHz
  Audio data block
    Linear PCM, max channels 2
      Supported sample rates (kHz): 48 44.1 32
      Supported sample sizes (bits): 24 20 16
  Speaker allocation data block
    Speaker map:
      FL/FR - Front Left/Right
  Extended tag: HDR static metadata data block
    Electro optical transfer functions:
      Traditional gamma - SDR luminance range
      Traditional gamma - HDR luminance range
      SMPTE ST2084
    Supported static metadata descriptors:
      Static metadata type 1
    Desired content max luminance: 96 (400.000 cd/m^2)
    Desired content max frame-average luminance: 93 (374.834 cd/m^2)
    Desired content min luminance: 41 (0.103 cd/m^2)
  Extended tag: Colorimetry data block
    xvYCC601
    xvYCC709
    BT2020cYCC
    BT2020YCC
    BT2020RGB
Underscans PC formats by default
Basic audio support
Supports YCbCr 4:4:4
Supports YCbCr 4:2:2
4 native detailed modes
Detailed mode: Clock 148.500 MHz, 797 mm x 334 mm
               1920 2008 2052 2200 hborder 0
               1080 1089 1095 1125 vborder 0
               +hsync +vsync 
               VertFreq: 60 Hz, HorFreq: 67500 Hz
Detailed mode: Clock 440.640 MHz, 797 mm x 334 mm
               2560 2608 2640 2720 hborder 0
               1080 1083 1088 1125 vborder 0
               +hsync +vsync 
               VertFreq: 144 Hz, HorFreq: 162000 Hz
Detailed mode: Clock 533.150 MHz, 797 mm x 334 mm
               3440 3488 3520 3600 hborder 0
               1440 1443 1448 1481 vborder 0
               +hsync +vsync 
               VertFreq: 99 Hz, HorFreq: 148097 Hz
Detailed mode: Clock 185.950 MHz, 797 mm x 334 mm
               1720 1768 1832 2080 hborder 0
               1440 1443 1448 1490 vborder 0
               +hsync +vsync 
               VertFreq: 59 Hz, HorFreq: 89399 Hz
Checksum: 0x9d (valid)


DisplayID extension block
Extension version: 18
Length 121, version 18, extension count 0
Checksum: 0xd1 (valid)
Type 1 detailed timing: aspect: 16:9,  
Detailed mode: Clock 767.740 MHz, 0 mm x 0 mm
               3439 3486 3517 3598
               1439 1441 1445 1479
               -hsync +vsync
VESA DMT timing block

Warning: One or more of the timings is out of range of the Monitor Ranges:
  Vertical Freq: 24 - 144 Hz
  Horizontal Freq: 27000 - 177719 Hz
  Maximum Clock: 639.790 MHz
