edid-decode (hex):

00 ff ff ff ff ff ff 00 06 10 3e a0 00 00 00 00
10 1b 01 04 b5 1d 12 78 02 0f 81 ae 52 43 b0 26
0d 50 54 00 00 00 01 01 01 01 01 01 01 01 01 01
01 01 01 01 01 01 d9 65 00 50 a0 40 2e 60 08 20
08 08 1e b3 10 00 00 1a 00 00 00 fc 00 43 6f 6c
6f 72 20 4c 43 44 0a 20 20 20 00 00 00 10 00 00
00 00 00 00 00 00 00 00 00 00 00 00 00 00 00 10
00 00 00 00 00 00 00 00 00 00 00 00 00 00 01 72

70 12 79 03 00 7f 81 3f fa 10 00 03 01 18 0f 28
17 00 00 00 00 00 00 00 00 00 00 00 00 00 00 00
4c 50 31 33 33 57 51 35 2d 53 4a 41 35 0a 20 00
44 43 4e 30 32 31 34 30 30 30 48 50 58 47 54 39
37 0a 20 20 20 20 20 7f 81 29 fa 10 00 02 01 00
11 00 00 02 90 03 40 04 35 05 83 07 4c 09 bd 0d
17 11 b5 18 15 20 eb 2d 34 3e 55 56 49 77 e1 a7
20 e9 46 00 00 00 00 00 00 00 00 00 00 00 7b 90

----------------

Block 0, Base EDID:
  EDID Structure Version & Revision: 1.4
  Vendor & Product Identification:
    Manufacturer: APP
    Model: 41022
    Made in: week 16 of 2017
  Basic Display Parameters & Features:
    Digital display
    Bits per primary color channel: 10
    DisplayPort interface
    Maximum image size: 29 cm x 18 cm
    Gamma: 2.20
    Supported color formats: RGB 4:4:4
    First detailed timing includes the native pixel format and preferred refresh rate
  Color Characteristics:
    Red  : 0.6796, 0.3203
    Green: 0.2646, 0.6904
    Blue : 0.1503, 0.0507
    White: 0.3125, 0.3291
  Established Timings I & II: none
  Standard Timings: none
  Detailed Timing Descriptors:
    DTD 1:  2560x1600   60.001 Hz   8:5    98.761 kHz 260.730 MHz (286 mm x 179 mm)
                 Hfront    8 Hsync  32 Hback  40 Hpol P
                 Vfront   32 Vsync   8 Vback   6 Vpol N
    Display Product Name: 'Color LCD'
    Dummy Descriptor:
    Dummy Descriptor:
  Extension blocks: 1
Checksum: 0x72

----------------

Block 1, DisplayID Extension Block:
  Version: 1.2
  Extension Count: 0
  Display Product Type: Standalone display device
  Vendor-Specific Data Block (Apple):
    fa 10 00 03 01 18 0f 28 17 00 00 00 00 00 00 00 '.......(........'
    00 00 00 00 00 00 00 00 4c 50 31 33 33 57 51 35 '........LP133WQ5'
    2d 53 4a 41 35 0a 20 00 44 43 4e 30 32 31 34 30 '-SJA5. .DCN02140'
    30 30 48 50 58 47 54 39 37 0a 20 20 20 20 20    '00HPXGT97.     '
  Vendor-Specific Data Block (Apple):
    fa 10 00 02 01 00 11 00 00 02 90 03 40 04 35 05 '............@.5.'
    83 07 4c 09 bd 0d 17 11 b5 18 15 20 eb 2d 34 3e '..L........ .-4>'
    55 56 49 77 e1 a7 20 e9 46                      'UVIw.. .F'
  Checksum: 0x7b
Checksum: 0x90

----------------

Failures:

Block 1, DisplayID Extension Block:
  Vendor-Specific Data Block (Apple): OUI FA-10-00 is in the wrong byte order.
  Vendor-Specific Data Block (Apple): OUI FA-10-00 is in the wrong byte order.
EDID:
  DisplayID: Missing DisplayID Product Identification Data Block.
  DisplayID: Missing DisplayID Display Parameters Data Block.
  DisplayID: Missing DisplayID Display Interface Features Data Block.
  DisplayID: Missing DisplayID Type I Detailed Timing Data Block.
  DisplayID: DisplayID expects at least one preferred timing.

EDID conformity: FAIL
