
EDID (hex):
00ffffffffffff0006103ea000000000
101b0104b51d1278020fa1ae5243b026
0d505400000001010101010101010101
010101010101d9650050a0402e600820
08081eb31000001a000000fc00436f6c
6f72204c43440a202020000000100000
00000000000000000000000000000010
00000000000000000000000000000152
70127903007f813ffa10000301180f28
17000000000000000000000000000000
4c503133335751352d534a41370a2000
44434e3231303630315a435058475241
390a20202020207f8129fa1000020100
1100000290034f045805c307b50a610e
0e13211a2523e1316844445e0d837fb7
3fff7d00000000000000000000003990

edid-decode (hex):

00 ff ff ff ff ff ff 00 06 10 3e a0 00 00 00 00
10 1b 01 04 b5 1d 12 78 02 0f a1 ae 52 43 b0 26
0d 50 54 00 00 00 01 01 01 01 01 01 01 01 01 01
01 01 01 01 01 01 d9 65 00 50 a0 40 2e 60 08 20
08 08 1e b3 10 00 00 1a 00 00 00 fc 00 43 6f 6c
6f 72 20 4c 43 44 0a 20 20 20 00 00 00 10 00 00
00 00 00 00 00 00 00 00 00 00 00 00 00 00 00 10
00 00 00 00 00 00 00 00 00 00 00 00 00 00 01 52

70 12 79 03 00 7f 81 3f fa 10 00 03 01 18 0f 28
17 00 00 00 00 00 00 00 00 00 00 00 00 00 00 00
4c 50 31 33 33 57 51 35 2d 53 4a 41 37 0a 20 00
44 43 4e 32 31 30 36 30 31 5a 43 50 58 47 52 41
39 0a 20 20 20 20 20 7f 81 29 fa 10 00 02 01 00
11 00 00 02 90 03 4f 04 58 05 c3 07 b5 0a 61 0e
0e 13 21 1a 25 23 e1 31 68 44 44 5e 0d 83 7f b7
3f ff 7d 00 00 00 00 00 00 00 00 00 00 00 39 90

----------------

Block 0, Base EDID:
  EDID Structure Version & Revision: 1.4
  Vendor & Product Identification:
    Manufacturer: APP
    Model: 41022
    Made in: week 16 of 2017
  Basic Display Parameters & Features:
    Digital display
    Bits per primary color channel: 10
    DisplayPort interface
    Maximum image size: 29 cm x 18 cm
    Gamma: 2.20
    Supported color formats: RGB 4:4:4
    First detailed timing includes the native pixel format and preferred refresh rate
  Color Characteristics:
    Red  : 0.6796, 0.3203
    Green: 0.2646, 0.6904
    Blue : 0.1503, 0.0527
    White: 0.3125, 0.3291
  Established Timings I & II: none
  Standard Timings: none
  Detailed Timing Descriptors:
    DTD 1:  2560x1600   60.000828 Hz  16:10    98.761 kHz    260.730000 MHz (286 mm x 179 mm)
                 Hfront    8 Hsync  32 Hback   40 Hpol P
                 Vfront   32 Vsync   8 Vback    6 Vpol N
    Display Product Name: 'Color LCD'
    Dummy Descriptor:
    Dummy Descriptor:
  Extension blocks: 1
Checksum: 0x52

----------------

Block 1, DisplayID Extension Block:
  Version: 1.2
  Extension Count: 0
  Display Product Type: Standalone display device
  Vendor-Specific Data Block (0x7f) (Apple), OUI 00-10-FA:
    Type: 3, Version: 1
    18 0f 28 17 00 00 00 00 00 00 00 00 00 00 00 00 '..(.............'
    00 00 00 4c 50 31 33 33 57 51 35 2d 53 4a 41 37 '...LP133WQ5-SJA7'
    0a 20 00 44 43 4e 32 31 30 36 30 31 5a 43 50 58 '. .DCN210601ZCPX'
    47 52 41 39 0a 20 20 20 20 20                   'GRA9.     '
  Vendor-Specific Data Block (0x7f) (Apple), OUI 00-10-FA:
    Type: 2, Version: 1
    00 11 00 00 02 90 03 4f 04 58 05 c3 07 b5 0a 61 '.......O.X.....a'
    0e 0e 13 21 1a 25 23 e1 31 68 44 44 5e 0d 83 7f '...!.%#.1hDD^...'
    b7 3f ff 7d                                     '.?.}'
  Checksum: 0x39
Checksum: 0x90
