
EDID (hex):
00ffffffffffff0030e4100700000000
001f0104a51d127807bbe5a5534c9e27
0b505400000001010101010101010101
010101010101ec6800a0a0402e603020
36001eb31000001a000000fd00303c63
631b010a202020202020000000fe004c
4720446973706c61790a2020000000fe
004c503133335751312d5350423200e5

Extracted contents:
header:          00 ff ff ff ff ff ff 00
serial number:   30 e4 10 07 00 00 00 00 00 1f
version:         01 04
basic params:    a5 1d 12 78 07
chroma info:     bb e5 a5 53 4c 9e 27 0b 50 54
established:     00 00 00
standard:        01 01 01 01 01 01 01 01 01 01 01 01 01 01 01 01
descriptor 1:    ec 68 00 a0 a0 40 2e 60 30 20 36 00 1e b3 10 00 00 1a
descriptor 2:    00 00 00 fd 00 30 3c 63 63 1b 01 0a 20 20 20 20 20 20
descriptor 3:    00 00 00 fe 00 4c 47 20 44 69 73 70 6c 61 79 0a 20 20
descriptor 4:    00 00 00 fe 00 4c 50 31 33 33 57 51 31 2d 53 50 42 32
extensions:      00
checksum:        e5

EDID version: 1.4
Manufacturer: LGD Model 710 Serial Number --
Made in year 2021
Digital display
8 bits per primary color channel
DisplayPort interface
Maximum image size: 29 cm x 18 cm
Gamma: 2.20
Supported color formats: RGB 4:4:4
Default (sRGB) color space is primary color space
First detailed timing includes the native pixel format and preferred refresh rate
Display is continuous frequency
Display x,y Chromaticity:
  Red:   0.6464, 0.3271
  Green: 0.2988, 0.6201
  Blue:  0.1552, 0.0449
  White: 0.3134, 0.3291
Established timings supported:
Standard timings supported:
Detailed mode: Clock 268.600 MHz, 286 mm x 179 mm
               2560 2608 2640 2720 hborder 0
               1600 1603 1609 1646 vborder 0
               +hsync -vsync 
               VertFreq: 59 Hz, HorFreq: 98750 Hz
Monitor ranges (bare limits): 48-60Hz V, 99-99kHz H, max dotclock 270MHz
ASCII string: LG Display
ASCII string: LP133WQ1-SPB2
Checksum: 0xe5 (valid)
EDID block does NOT conform to EDID 1.4!
	sRGB is signaled, but the chromaticities do not match
	Missing name descriptor
Warning: One or more of the timings is out of range of the Monitor Ranges:
  Vertical Freq: 59 - 59 Hz
  Horizontal Freq: 98750 - 98750 Hz
  Maximum Clock: 268.600 MHz
