
EDID (hex):
00ffffffffffff0006af5c2300000000
01180104951a0e78026bf59155549127
22505400000001010101010101010101
010101010101ce1d56e250001e302616
36000090100000180000000f00000000
00000000000000000020000000fe0041
554f0a202020202020202020000000fe
004231313658544e30322e33200a006f

Extracted contents:
header:          00 ff ff ff ff ff ff 00
serial number:   06 af 5c 23 00 00 00 00 01 18
version:         01 04
basic params:    95 1a 0e 78 02
chroma info:     6b f5 91 55 54 91 27 22 50 54
established:     00 00 00
standard:        01 01 01 01 01 01 01 01 01 01 01 01 01 01 01 01
descriptor 1:    ce 1d 56 e2 50 00 1e 30 26 16 36 00 00 90 10 00 00 18
descriptor 2:    00 00 00 0f 00 00 00 00 00 00 00 00 00 00 00 00 00 20
descriptor 3:    00 00 00 fe 00 41 55 4f 0a 20 20 20 20 20 20 20 20 20
descriptor 4:    00 00 00 fe 00 42 31 31 36 58 54 4e 30 32 2e 33 20 0a
extensions:      00
checksum:        6f

EDID version: 1.4
Manufacturer: AUO Model 235c Serial Number --
Made in week 1 of 2014
Digital display
6 bits per primary color channel
DisplayPort interface
Maximum image size: 26 cm x 14 cm
Gamma: 2.20
Supported color formats: RGB 4:4:4
First detailed timing includes the native pixel format and preferred refresh rate
Display x,y Chromaticity:
  Red:   0.5673, 0.3339
  Green: 0.3300, 0.5693
  Blue:  0.1552, 0.1357
  White: 0.3134, 0.3291
Established timings supported:
Standard timings supported:
Detailed mode: Clock 76.300 MHz, 256 mm x 144 mm
               1366 1404 1426 1592 hborder 0
                768  771  777  798 vborder 0
               -hsync -vsync 
               VertFreq: 60 Hz, HorFreq: 47927 Hz
Manufacturer-specified data, tag 15
ASCII string: AUO
ASCII string: B116XTN02.3 
Checksum: 0x6f (valid)
EDID block does NOT conform to EDID 1.4!
	Missing name descriptor
	Missing monitor ranges
