
EDID (hex):
00ffffffffffff001296000001010101
05170103080000788adebda355479926
0c474aa1080081c00101010101010101
010101010101662150b051001b304070
3600f8ae2100001ea91a00a050001630
302037003f432100001a000000fd0032
4c1f4b10000a202020202020000000fc
004469676974616c2054560a2020004a

Extracted contents:
header:          00 ff ff ff ff ff ff 00
serial number:   12 96 00 00 01 01 01 01 05 17
version:         01 03
basic params:    08 00 00 78 8a
chroma info:     de bd a3 55 47 99 26 0c 47 4a
established:     a1 08 00
standard:        81 c0 01 01 01 01 01 01 01 01 01 01 01 01 01 01
descriptor 1:    66 21 50 b0 51 00 1b 30 40 70 36 00 f8 ae 21 00 00 1e
descriptor 2:    a9 1a 00 a0 50 00 16 30 30 20 37 00 3f 43 21 00 00 1a
descriptor 3:    00 00 00 fd 00 32 4c 1f 4b 10 00 0a 20 20 20 20 20 20
descriptor 4:    00 00 00 fc 00 44 69 67 69 74 61 6c 20 54 56 0a 20 20
extensions:      00
checksum:        4a

EDID version: 1.3
Manufacturer: DTV Model 0 Serial Number --
Made in week 5 of 2013
Analog display, Input voltage level: 0.7/0.3 V
Sync: Separate 
Image size is variable
Gamma: 2.20
DPMS levels: Standby
RGB color display
First detailed timing is preferred timing
Display x,y Chromaticity:
  Red:   0.6396, 0.3330
  Green: 0.2802, 0.5996
  Blue:  0.1503, 0.0498
  White: 0.2802, 0.2900
Established timings supported:
  720x400@70Hz 9:5 HorFreq: 31469 Hz Clock: 28.320 MHz
  640x480@60Hz 4:3 HorFreq: 31469 Hz Clock: 25.175 MHz
  800x600@60Hz 4:3 HorFreq: 37900 Hz Clock: 40.000 MHz
  1024x768@60Hz 4:3 HorFreq: 48400 Hz Clock: 65.000 MHz
Standard timings supported:
  1280x720@60Hz 16:9
Detailed mode: Clock 85.500 MHz, 760 mm x 430 mm
               1360 1424 1536 1792 hborder 0
                768  771  777  795 vborder 0
               +hsync +vsync 
               VertFreq: 60 Hz, HorFreq: 47712 Hz
Detailed mode: Clock 68.250 MHz, 575 mm x 323 mm
               1280 1328 1360 1440 hborder 0
                768  771  778  790 vborder 0
               +hsync -vsync 
               VertFreq: 59 Hz, HorFreq: 47395 Hz
Monitor ranges (GTF): 50-76Hz V, 31-75kHz H, max dotclock 160MHz
Monitor name: Digital TV
Checksum: 0x4a (valid)
