
EDID (hex):
00ffffffffffff004ca3523000000000
00130103801b10780a87f594574f8c27
27505400000001010101010101010101
010101010101b01d56a050003e303020
25000090100000190000000f00000000
00000000001eb4027400000000fe0053
414d53554e470a2020202020000000fe
00313136415430312d3230310a2000cb

Extracted contents:
header:          00 ff ff ff ff ff ff 00
serial number:   4c a3 52 30 00 00 00 00 00 13
version:         01 03
basic params:    80 1b 10 78 0a
chroma info:     87 f5 94 57 4f 8c 27 27 50 54
established:     00 00 00
standard:        01 01 01 01 01 01 01 01 01 01 01 01 01 01 01 01
descriptor 1:    b0 1d 56 a0 50 00 3e 30 30 20 25 00 00 90 10 00 00 19
descriptor 2:    00 00 00 0f 00 00 00 00 00 00 00 00 00 1e b4 02 74 00
descriptor 3:    00 00 00 fe 00 53 41 4d 53 55 4e 47 0a 20 20 20 20 20
descriptor 4:    00 00 00 fe 00 31 31 36 41 54 30 31 2d 32 30 31 0a 20
extensions:      00
checksum:        cb

EDID version: 1.3
Manufacturer: SEC Model 3052 Serial Number --
Made in year 2009
Digital display
Maximum image size: 27 cm x 16 cm
Gamma: 2.20
RGB color display
First detailed timing is preferred timing
Display x,y Chromaticity:
  Red:   0.5800, 0.3398
  Green: 0.3095, 0.5498
  Blue:  0.1552, 0.1552
  White: 0.3134, 0.3291
Established timings supported:
Standard timings supported:
Detailed mode: Clock 76.000 MHz, 256 mm x 144 mm
               1366 1414 1446 1526 hborder 0
                768  770  775  830 vborder 0
               -hsync -vsync 
               VertFreq: 60 Hz, HorFreq: 49803 Hz
Manufacturer-specified data, tag 15
ASCII string: SAMSUNG
ASCII string: 116AT01-201
Checksum: 0xcb (valid)
EDID block does NOT conform to EDID 1.3!
	Missing name descriptor
	Missing monitor ranges
