
EDID (hex):
00ffffffffffff004ca3523000000000
00140103801a0e780a35259356558e29
1d505400000001010101010101010101
0101010101018f1b5680500013303020
25000090100000190000000f00000000
00000000001eb4027400000000fe0053
414d53554e470a2020202020000000fe
004c544e3131364154303130303000cb

Extracted contents:
header:          00 ff ff ff ff ff ff 00
serial number:   4c a3 52 30 00 00 00 00 00 14
version:         01 03
basic params:    80 1a 0e 78 0a
chroma info:     35 25 93 56 55 8e 29 1d 50 54
established:     00 00 00
standard:        01 01 01 01 01 01 01 01 01 01 01 01 01 01 01 01
descriptor 1:    8f 1b 56 80 50 00 13 30 30 20 25 00 00 90 10 00 00 19
descriptor 2:    00 00 00 0f 00 00 00 00 00 00 00 00 00 1e b4 02 74 00
descriptor 3:    00 00 00 fe 00 53 41 4d 53 55 4e 47 0a 20 20 20 20 20
descriptor 4:    00 00 00 fe 00 4c 54 4e 31 31 36 41 54 30 31 30 30 30
extensions:      00
checksum:        cb

EDID version: 1.3
Manufacturer: SEC Model 3052 Serial Number --
Made in year 2010
Digital display
Maximum image size: 26 cm x 14 cm
Gamma: 2.20
RGB color display
First detailed timing is preferred timing
Display x,y Chromaticity:
  Red:   0.5742, 0.3388
  Green: 0.3330, 0.5556
  Blue:  0.1601, 0.1152
  White: 0.3134, 0.3291
Established timings supported:
Standard timings supported:
Detailed mode: Clock 70.550 MHz, 256 mm x 144 mm
               1366 1414 1446 1494 hborder 0
                768  770  775  787 vborder 0
               -hsync -vsync 
               VertFreq: 60 Hz, HorFreq: 47222 Hz
Manufacturer-specified data, tag 15
ASCII string: SAMSUNG
ASCII string: LTN116AT01000
Checksum: 0xcb (valid)
EDID block does NOT conform to EDID 1.3!
	Missing name descriptor
	Missing monitor ranges
