edid-decode (hex):

00 ff ff ff ff ff ff 00 2c 82 24 09 00 00 00 00
27 22 01 04 a5 22 13 78 02 4b 3d 8f 5c 59 91 25
15 4f 54 00 00 00 01 01 01 01 01 01 01 01 01 01
01 01 01 01 01 01 2a 36 80 a0 70 38 1f 40 30 20
35 00 58 c2 10 00 00 1a 00 00 00 00 00 00 00 00
00 00 00 00 00 00 00 00 00 1a 00 00 00 fe 00 4b
44 31 35 36 4e 32 39 33 30 41 30 36 00 00 00 fe
00 4b 44 31 35 36 4e 32 39 33 30 41 30 32 00 01

00 ff ff ff ff ff ff 00 2c 82 24 09 00 00 00 00
27 22 01 04 a5 22 13 78 02 4b 3d 8f 5c 59 91 25
15 4f 54 00 00 00 01 01 01 01 01 01 01 01 01 01
01 01 01 01 01 01 2a 36 80 a0 70 38 1f 40 30 20
35 00 58 c2 10 00 00 1a 00 00 00 00 00 00 00 00
00 00 00 00 00 00 00 00 00 1a 00 00 00 fe 00 4b
44 31 35 36 4e 32 39 33 30 41 30 36 00 00 00 fe
00 4b 44 31 35 36 4e 32 39 33 30 41 30 32 00 01

----------------

Block 0, Base EDID:
  EDID Structure Version & Revision: 1.4
  Vendor & Product Identification:
    Manufacturer: KDB
    Model: 2340
    Made in: week 39 of 2024
  Basic Display Parameters & Features:
    Digital display
    Bits per primary color channel: 8
    DisplayPort interface
    Maximum image size: 34 cm x 19 cm
    Gamma: 2.20
    Supported color formats: RGB 4:4:4
    First detailed timing includes the native pixel format and preferred refresh rate
  Color Characteristics:
    Red  : 0.5595, 0.3593
    Green: 0.3496, 0.5693
    Blue : 0.1445, 0.0849
    White: 0.3115, 0.3291
  Established Timings I & II: none
  Standard Timings: none
  Detailed Timing Descriptors:
    DTD 1:  1920x1080   60.003116 Hz  16:9     66.663 kHz    138.660000 MHz (344 mm x 194 mm)
                 Hfront   48 Hsync  32 Hback   80 Hpol P
                 Vfront    3 Vsync   5 Vback   23 Vpol N
    Manufacturer-Specified Display Descriptor (0x00): 00 00 00 00 00 00 00 00 00 00 00 00 00 00 00 1a '................'
    Alphanumeric Data String: 'KD156N2930A06'
    Alphanumeric Data String: 'KD156N2930A02'
Checksum: 0x01

----------------

Block 1, Unknown EDID Extension Block 0x00:
  00 ff ff ff ff ff ff 00 2c 82 24 09 00 00 00 00 '........,.$.....'
  27 22 01 04 a5 22 13 78 02 4b 3d 8f 5c 59 91 25 ''"...".x.K=.\Y.%'
  15 4f 54 00 00 00 01 01 01 01 01 01 01 01 01 01 '.OT.............'
  01 01 01 01 01 01 2a 36 80 a0 70 38 1f 40 30 20 '......*6..p8.@0 '
  35 00 58 c2 10 00 00 1a 00 00 00 00 00 00 00 00 '5.X.............'
  00 00 00 00 00 00 00 00 00 1a 00 00 00 fe 00 4b '...............K'
  44 31 35 36 4e 32 39 33 30 41 30 36 00 00 00 fe 'D156N2930A06....'
  00 4b 44 31 35 36 4e 32 39 33 30 41 30 32 00 01 '.KD156N2930A02..'
Checksum: 0x01

----------------

Warnings:

Block 0, Base EDID:
  Missing Display Product Name.

Failures:

Block 1, Base EDID:
  Unknown Extension Block.
EDID:
  Base EDID: EDID specified 0 extension block(s), but found 1 extension block(s).

EDID conformity: FAIL
