
EDID (hex):
00ffffffffffff0022f0362601010101
290f0103682018b4ea1329a752489d24
0e484ca542003159455961598180714f
010101010101ea240060410028303060
130038ea1000001e000000fd0032a01e
460b000a202020202020000000fc0048
5020373534300a2020202020000000ff
00434e51353431303053500a202000b2

Extracted contents:
header:          00 ff ff ff ff ff ff 00
serial number:   22 f0 36 26 01 01 01 01 29 0f
version:         01 03
basic params:    68 20 18 b4 ea
chroma info:     13 29 a7 52 48 9d 24 0e 48 4c
established:     a5 42 00
standard:        31 59 45 59 61 59 81 80 71 4f 01 01 01 01 01 01
descriptor 1:    ea 24 00 60 41 00 28 30 30 60 13 00 38 ea 10 00 00 1e
descriptor 2:    00 00 00 fd 00 32 a0 1e 46 0b 00 0a 20 20 20 20 20 20
descriptor 3:    00 00 00 fc 00 48 50 20 37 35 34 30 0a 20 20 20 20 20
descriptor 4:    00 00 00 ff 00 43 4e 51 35 34 31 30 30 53 50 0a 20 20
extensions:      00
checksum:        b2

EDID version: 1.3
Manufacturer: HWP Model 2636 Serial Number --
Analog display, Input voltage level: 0.7/0.7 V
Sync: Separate 
Maximum image size: 32 cm x 24 cm
Gamma: 2.80
DPMS levels: Standby Suspend Off
RGB color display
First detailed timing is preferred timing
Display x,y Chromaticity:
  Red:   0.6523, 0.3212
  Green: 0.2812, 0.6162
  Blue:  0.1406, 0.0566
  White: 0.2832, 0.2978
Established timings supported:
  720x400@70Hz 9:5 HorFreq: 31469 Hz Clock: 28.320 MHz
  640x480@60Hz 4:3 HorFreq: 31469 Hz Clock: 25.175 MHz
  640x480@75Hz 4:3 HorFreq: 37500 Hz Clock: 31.500 MHz
  800x600@60Hz 4:3 HorFreq: 37900 Hz Clock: 40.000 MHz
  800x600@75Hz 4:3 HorFreq: 46900 Hz Clock: 49.500 MHz
  1024x768@75Hz 4:3 HorFreq: 60000 Hz Clock: 78.750 MHz
Standard timings supported:
  640x480@85Hz 4:3 HorFreq: 43300 Hz Clock: 36.000 MHz
  800x600@85Hz 4:3 HorFreq: 53700 Hz Clock: 56.250 MHz
  1024x768@85Hz 4:3 HorFreq: 68700 Hz Clock: 94.500 MHz
  1280x1024@60Hz 5:4 HorFreq: 64000 Hz Clock: 108.000 MHz
  1152x864@75Hz 4:3 HorFreq: 67500 Hz Clock: 108.000 MHz
Detailed mode: Clock 94.500 MHz, 312 mm x 234 mm
               1024 1072 1168 1376 hborder 0
                768  769  772  808 vborder 0
               +hsync +vsync 
               VertFreq: 84 Hz, HorFreq: 68677 Hz
Monitor ranges (GTF): 50-160Hz V, 30-70kHz H, max dotclock 110MHz
Monitor name: HP 7540
Serial number: --
Checksum: 0xb2 (valid)
EDID block does not conform at all!
	Bad year of manufacture
