edid-decode (hex):

00 ff ff ff ff ff ff 00 22 0e 59 40 00 00 00 00
33 1f 01 04 a5 35 1e 78 22 14 f5 a9 54 49 9f 24
0d 50 54 00 00 00 01 01 01 01 01 01 01 01 01 01
01 01 01 01 01 01 02 3a 80 18 71 38 2d 40 58 2c
45 00 0f 28 21 00 00 1e 00 00 00 ff 00 43 5a 43
33 34 33 37 46 43 56 20 0d 0a 00 00 00 fc 00 48
50 20 38 34 30 20 47 39 20 41 69 4f 00 00 00 03
00 4c 6e fe 57 78 87 76 5f 6b 87 00 00 00 00 b1

00 ff ff ff ff ff ff 00 22 0e 59 40 00 00 00 00
33 1f 01 04 a5 35 1e 78 22 14 f5 a9 54 49 9f 24
0d 50 54 00 00 00 01 01 01 01 01 01 01 01 01 01
01 01 01 01 01 01 02 3a 80 18 71 38 2d 40 58 2c
45 00 0f 28 21 00 00 1e 00 00 00 ff 00 43 5a 43
33 34 33 37 46 43 56 20 0d 0a 00 00 00 fc 00 48
50 20 38 34 30 20 47 39 20 41 69 4f 00 00 00 03
00 4c 6e fe 57 78 87 76 5f 6b 87 00 00 00 00 b1

----------------

Block 0, Base EDID:
  EDID Structure Version & Revision: 1.4
  Vendor & Product Identification:
    Manufacturer: HPN
    Model: 16473
    Made in: week 51 of 2021
  Basic Display Parameters & Features:
    Digital display
    Bits per primary color channel: 8
    DisplayPort interface
    Maximum image size: 53 cm x 30 cm
    Gamma: 2.20
    DPMS levels: Off
    Supported color formats: RGB 4:4:4
    First detailed timing includes the native pixel format and preferred refresh rate
  Color Characteristics:
    Red  : 0.6601, 0.3291
    Green: 0.2861, 0.6210
    Blue : 0.1435, 0.0537
    White: 0.3134, 0.3291
  Established Timings I & II: none
  Standard Timings: none
  Detailed Timing Descriptors:
    DTD 1:  1920x1080   60.000000 Hz  16:9     67.500 kHz    148.500000 MHz (527 mm x 296 mm)
                 Hfront   88 Hsync  44 Hback  148 Hpol P
                 Vfront    4 Vsync   5 Vback   36 Vpol P
    Display Product Serial Number: ...
    Display Product Name: 'HP 840 G9 AiO'
    Manufacturer-Specified Display Descriptor (0x03): 00 03 00 4c 6e fe 57 78 87 76 5f 6b 87 00 00 00 '...Ln.Wx.v_k....'
Checksum: 0xb1

----------------

Block 1, Unknown EDID Extension Block 0x00:
  00 ff ff ff ff ff ff 00 22 0e 59 40 00 00 00 00 '........".Y@....'
  33 1f 01 04 a5 35 1e 78 22 14 f5 a9 54 49 9f 24 '3....5.x"...TI.$'
  0d 50 54 00 00 00 01 01 01 01 01 01 01 01 01 01 '.PT.............'
  01 01 01 01 01 01 02 3a 80 18 71 38 2d 40 58 2c '.......:..q8-@X,'
  45 00 0f 28 21 00 00 1e 00 00 00 ff 00 43 5a 43 'E..(!........CZC'
  33 34 33 37 46 43 56 20 0d 0a 00 00 00 fc 00 48 '3437FCV .......H'
  50 20 38 34 30 20 47 39 20 41 69 4f 00 00 00 03 'P 840 G9 AiO....'
  00 4c 6e fe 57 78 87 76 5f 6b 87 00 00 00 00 b1 '.Ln.Wx.v_k......'
Checksum: 0xb1

----------------

Failures:

Block 0, Base EDID:
  Display Product Serial Number: ...
Block 1, Base EDID:
  Unknown Extension Block.
EDID:
  Base EDID: EDID specified 0 extension block(s), but found 1 extension block(s).

EDID conformity: FAIL
