
EDID (hex):
00ffffffffffff004f2e360067050000
15110103805d34780b3f00a754469825
11494b254a0081c00101010101010101
010101010101201c50a0500016303020
3500a2083200001c0e1f008051001e30
40803700a2083200001a000000fd0031
4c0f500e000a202020202020000000fc
003234322d5431310a2020202020013e
02031a71478510020304060723091707
8301000065030c001000011d8018711c
1720582c2500a2083200009e011d0072
51d01e206e285500a2083200001e8c0a
d08a20e02d10103e9600a20832000018
8c0ad08a20e02d10103e9600b2082200
00188c0aa01451f01600267c4300a208
320000980000000000000000000000b7

Extracted contents:
header:          00 ff ff ff ff ff ff 00
serial number:   4f 2e 36 00 67 05 00 00 15 11
version:         01 03
basic params:    80 5d 34 78 0b
chroma info:     3f 00 a7 54 46 98 25 11 49 4b
established:     25 4a 00
standard:        81 c0 01 01 01 01 01 01 01 01 01 01 01 01 01 01
descriptor 1:    20 1c 50 a0 50 00 16 30 30 20 35 00 a2 08 32 00 00 1c
descriptor 2:    0e 1f 00 80 51 00 1e 30 40 80 37 00 a2 08 32 00 00 1a
descriptor 3:    00 00 00 fd 00 31 4c 0f 50 0e 00 0a 20 20 20 20 20 20
descriptor 4:    00 00 00 fc 00 32 34 32 2d 54 31 31 0a 20 20 20 20 20
extensions:      01
checksum:        3e

EDID version: 1.3
Manufacturer: SYN Model 36 Serial Number --
Made in week 21 of 2007
Digital display
Maximum image size: 93 cm x 52 cm
Gamma: 2.20
RGB color display
First detailed timing is preferred timing
Supports GTF timings within operating range
Display x,y Chromaticity:
  Red:   0.6523, 0.3310
  Green: 0.2763, 0.5966
  Blue:  0.1445, 0.0664
  White: 0.2851, 0.2929
Established timings supported:
  640x480@60Hz 4:3 HorFreq: 31469 Hz Clock: 25.175 MHz
  640x480@75Hz 4:3 HorFreq: 37500 Hz Clock: 31.500 MHz
  800x600@60Hz 4:3 HorFreq: 37900 Hz Clock: 40.000 MHz
  800x600@75Hz 4:3 HorFreq: 46900 Hz Clock: 49.500 MHz
  1024x768@60Hz 4:3 HorFreq: 48400 Hz Clock: 65.000 MHz
  1024x768@75Hz 4:3 HorFreq: 60000 Hz Clock: 78.750 MHz
Standard timings supported:
  1280x720@60Hz 16:9
Detailed mode: Clock 72.000 MHz, 930 mm x 520 mm
               1360 1408 1440 1520 hborder 0
                768  771  776  790 vborder 0
               -hsync +vsync 
               VertFreq: 59 Hz, HorFreq: 47368 Hz
Detailed mode: Clock 79.500 MHz, 930 mm x 520 mm
               1280 1344 1472 1664 hborder 0
                768  771  778  798 vborder 0
               +hsync -vsync 
               VertFreq: 59 Hz, HorFreq: 47776 Hz
Monitor ranges (GTF): 49-76Hz V, 15-80kHz H, max dotclock 140MHz
Monitor name: 242-T11
Has 1 extension blocks
Checksum: 0x3e (valid)

CTA extension block
Extension version: 3
22 bytes of CTA data
  Video data block
    VIC   5 1920x1080i@60Hz 16:9 (native) HorFreq: 33750 Hz Clock: 74.250 MHz
    VIC  16 1920x1080@60Hz 16:9  HorFreq: 67500 Hz Clock: 148.500 MHz
    VIC   2 720x480@60Hz 4:3  HorFreq: 31469 Hz Clock: 27.000 MHz
    VIC   3 720x480@60Hz 16:9  HorFreq: 31469 Hz Clock: 27.000 MHz
    VIC   4 1280x720@60Hz 16:9  HorFreq: 45000 Hz Clock: 74.250 MHz
    VIC   6 1440x480i@60Hz 4:3  HorFreq: 15734 Hz Clock: 27.000 MHz
    VIC   7 1440x480i@60Hz 16:9  HorFreq: 15734 Hz Clock: 27.000 MHz
  Audio data block
    Linear PCM, max channels 2
      Supported sample rates (kHz): 96 48 44.1 32
      Supported sample sizes (bits): 24 20 16
  Speaker allocation data block
    Speaker map:
      FL/FR - Front Left/Right
  Vendor-specific data block, OUI 000c03 (HDMI)
    Source physical address 1.0.0.0
Basic audio support
Supports YCbCr 4:4:4
Supports YCbCr 4:2:2
1 native detailed modes
Detailed mode: Clock 74.250 MHz, 930 mm x 520 mm
               1920 2008 2052 2200 hborder 0
                540  542  547  563 vborder 0
               +hsync +vsync interlaced 
               VertFreq: 59 Hz, HorFreq: 33750 Hz
Detailed mode: Clock 74.250 MHz, 930 mm x 520 mm
               1280 1390 1430 1650 hborder 0
                720  725  730  750 vborder 0
               +hsync +vsync 
               VertFreq: 60 Hz, HorFreq: 45000 Hz
Detailed mode: Clock 27.000 MHz, 930 mm x 520 mm
                720  736  798  858 hborder 0
                480  489  495  525 vborder 0
               -hsync -vsync 
               VertFreq: 59 Hz, HorFreq: 31468 Hz
Detailed mode: Clock 27.000 MHz, 690 mm x 520 mm
                720  736  798  858 hborder 0
                480  489  495  525 vborder 0
               -hsync -vsync 
               VertFreq: 59 Hz, HorFreq: 31468 Hz
Detailed mode: Clock 27.000 MHz, 930 mm x 520 mm
               1440 1478 1602 1716 hborder 0
                240  244  247  262 vborder 0
               -hsync -vsync interlaced 
               VertFreq: 60 Hz, HorFreq: 15734 Hz
Checksum: 0xb7 (valid)

One or more of the timings is out of range of the Monitor Ranges:
  Vertical Freq: 59 - 75 Hz
  Horizontal Freq: 15734 - 67500 Hz
  Maximum Clock: 148.500 MHz
