
EDID (hex):
00ffffffffffff00421050214f552401
1d19010368301a782ace6ca3574fb023
094f54bfef00d1c0b300810081809500
81c09040a9c0023a801871382d40582c
45003f432100001e662156aa51001e30
468f3300aaef1000001e000000fc0056
47410a202020202020202020000000fd
00324c005d15000a2020202020200043

Extracted contents:
header:          00 ff ff ff ff ff ff 00
serial number:   42 10 50 21 4f 55 24 01 1d 19
version:         01 03
basic params:    68 30 1a 78 2a
chroma info:     ce 6c a3 57 4f b0 23 09 4f 54
established:     bf ef 00
standard:        d1 c0 b3 00 81 00 81 80 95 00 81 c0 90 40 a9 c0
descriptor 1:    02 3a 80 18 71 38 2d 40 58 2c 45 00 3f 43 21 00 00 1e
descriptor 2:    66 21 56 aa 51 00 1e 30 46 8f 33 00 aa ef 10 00 00 1e
descriptor 3:    00 00 00 fc 00 56 47 41 0a 20 20 20 20 20 20 20 20 20
descriptor 4:    00 00 00 fd 00 32 4c 00 5d 15 00 0a 20 20 20 20 20 20
extensions:      00
checksum:        43

EDID version: 1.3
Manufacturer: PPP Model 2150 Serial Number --
Made in week 29 of 2015
Analog display, Input voltage level: 0.7/0.7 V
Sync: Separate 
Maximum image size: 48 cm x 26 cm
Gamma: 2.20
DPMS levels: Off
RGB color display
First detailed timing is preferred timing
Display x,y Chromaticity:
  Red:   0.6396, 0.3398
  Green: 0.3115, 0.6894
  Blue:  0.1376, 0.0371
  White: 0.3115, 0.3281
Established timings supported:
  720x400@70Hz 9:5 HorFreq: 31469 Hz Clock: 28.320 MHz
  640x480@60Hz 4:3 HorFreq: 31469 Hz Clock: 25.175 MHz
  640x480@67Hz 4:3 HorFreq: 35000 Hz Clock: 30.240 MHz
  640x480@72Hz 4:3 HorFreq: 37900 Hz Clock: 31.500 MHz
  640x480@75Hz 4:3 HorFreq: 37500 Hz Clock: 31.500 MHz
  800x600@56Hz 4:3 HorFreq: 35200 Hz Clock: 36.000 MHz
  800x600@60Hz 4:3 HorFreq: 37900 Hz Clock: 40.000 MHz
  800x600@72Hz 4:3 HorFreq: 48100 Hz Clock: 50.000 MHz
  800x600@75Hz 4:3 HorFreq: 46900 Hz Clock: 49.500 MHz
  832x624@75Hz 4:3 HorFreq: 49726 Hz Clock: 57.284 MHz
  1024x768@60Hz 4:3 HorFreq: 48400 Hz Clock: 65.000 MHz
  1024x768@70Hz 4:3 HorFreq: 56500 Hz Clock: 75.000 MHz
  1024x768@75Hz 4:3 HorFreq: 60000 Hz Clock: 78.750 MHz
  1280x1024@75Hz 5:4 HorFreq: 80000 Hz Clock: 135.000 MHz
Standard timings supported:
  1920x1080@60Hz 16:9
  1680x1050@60Hz 16:10 HorFreq: 64700 Hz Clock: 119.000 MHz
  1280x800@60Hz 16:10
  1280x1024@60Hz 5:4 HorFreq: 64000 Hz Clock: 108.000 MHz
  1440x900@60Hz 16:10 HorFreq: 55500 Hz Clock: 88.750 MHz
  1280x720@60Hz 16:9
  1400x1050@60Hz 4:3 HorFreq: 64700 Hz Clock: 101.000 MHz
  1600x900@60Hz 16:9
Detailed mode: Clock 148.500 MHz, 575 mm x 323 mm
               1920 2008 2052 2200 hborder 0
               1080 1084 1089 1125 vborder 0
               +hsync +vsync 
               VertFreq: 60 Hz, HorFreq: 67500 Hz
Detailed mode: Clock 85.500 MHz, 426 mm x 239 mm
               1366 1436 1579 1792 hborder 0
                768  771  774  798 vborder 0
               +hsync +vsync 
               VertFreq: 59 Hz, HorFreq: 47712 Hz
Monitor name: VGA
Monitor ranges (GTF): 50-76Hz V, 0-93kHz H, max dotclock 210MHz
Checksum: 0x43 (valid)
