
EDID (hex):
00ffffffffffff00410c228201010101
01130103084c2d780a0dc9a057479827
12484c2dce0081803159455961590101
010101010101662150b051001b304070
36004440210000180e1f008051001e30
40803700104e4200001e000000fc0050
68696c6970730a2020202020000000fd
0038550e4610000a2020202020200099

Extracted contents:
header:          00 ff ff ff ff ff ff 00
serial number:   41 0c 22 82 01 01 01 01 01 13
version:         01 03
basic params:    08 4c 2d 78 0a
chroma info:     0d c9 a0 57 47 98 27 12 48 4c
established:     2d ce 00
standard:        81 80 31 59 45 59 61 59 01 01 01 01 01 01 01 01
descriptor 1:    66 21 50 b0 51 00 1b 30 40 70 36 00 44 40 21 00 00 18
descriptor 2:    0e 1f 00 80 51 00 1e 30 40 80 37 00 10 4e 42 00 00 1e
descriptor 3:    00 00 00 fc 00 50 68 69 6c 69 70 73 0a 20 20 20 20 20
descriptor 4:    00 00 00 fd 00 38 55 0e 46 10 00 0a 20 20 20 20 20 20
extensions:      00
checksum:        99

EDID version: 1.3
Manufacturer: PHL Model 8222 Serial Number --
Made in week 1 of 2009
Analog display, Input voltage level: 0.7/0.3 V
Sync: Separate 
Maximum image size: 76 cm x 45 cm
Gamma: 2.20
RGB color display
First detailed timing is preferred timing
Display x,y Chromaticity:
  Red:   0.6250, 0.3398
  Green: 0.2802, 0.5947
  Blue:  0.1552, 0.0703
  White: 0.2832, 0.2978
Established timings supported:
  640x480@60Hz 4:3 HorFreq: 31469 Hz Clock: 25.175 MHz
  640x480@72Hz 4:3 HorFreq: 37900 Hz Clock: 31.500 MHz
  640x480@75Hz 4:3 HorFreq: 37500 Hz Clock: 31.500 MHz
  800x600@60Hz 4:3 HorFreq: 37900 Hz Clock: 40.000 MHz
  800x600@72Hz 4:3 HorFreq: 48100 Hz Clock: 50.000 MHz
  800x600@75Hz 4:3 HorFreq: 46900 Hz Clock: 49.500 MHz
  1024x768@60Hz 4:3 HorFreq: 48400 Hz Clock: 65.000 MHz
  1024x768@70Hz 4:3 HorFreq: 56500 Hz Clock: 75.000 MHz
  1024x768@75Hz 4:3 HorFreq: 60000 Hz Clock: 78.750 MHz
Standard timings supported:
  1280x1024@60Hz 5:4 HorFreq: 64000 Hz Clock: 108.000 MHz
  640x480@85Hz 4:3 HorFreq: 43300 Hz Clock: 36.000 MHz
  800x600@85Hz 4:3 HorFreq: 53700 Hz Clock: 56.250 MHz
  1024x768@85Hz 4:3 HorFreq: 68700 Hz Clock: 94.500 MHz
Detailed mode: Clock 85.500 MHz, 580 mm x 320 mm
               1360 1424 1536 1792 hborder 0
                768  771  777  795 vborder 0
               -hsync -vsync 
               VertFreq: 60 Hz, HorFreq: 47712 Hz
Detailed mode: Clock 79.500 MHz, 1040 mm x 590 mm
               1280 1344 1472 1664 hborder 0
                768  771  778  798 vborder 0
               +hsync +vsync 
               VertFreq: 59 Hz, HorFreq: 47776 Hz
Monitor name: Philips
Monitor ranges (GTF): 56-85Hz V, 14-70kHz H, max dotclock 160MHz
Checksum: 0x99 (valid)
