
EDID (hex):
00ffffffffffff0006af9d2100000000
001601049026157802c8959e57549226
0f505400000001010101010101010101
010101010101463780bc703826403064
36007dd6100000180000000f00000000
00000000000000000020000000fe0041
554f0a202020202020202020000000fe
004231373348573032205631200a001d

Extracted contents:
header:          00 ff ff ff ff ff ff 00
serial number:   06 af 9d 21 00 00 00 00 00 16
version:         01 04
basic params:    90 26 15 78 02
chroma info:     c8 95 9e 57 54 92 26 0f 50 54
established:     00 00 00
standard:        01 01 01 01 01 01 01 01 01 01 01 01 01 01 01 01
descriptor 1:    46 37 80 bc 70 38 26 40 30 64 36 00 7d d6 10 00 00 18
descriptor 2:    00 00 00 0f 00 00 00 00 00 00 00 00 00 00 00 00 00 20
descriptor 3:    00 00 00 fe 00 41 55 4f 0a 20 20 20 20 20 20 20 20 20
descriptor 4:    00 00 00 fe 00 42 31 37 33 48 57 30 32 20 56 31 20 0a
extensions:      00
checksum:        1d

EDID version: 1.4
Manufacturer: AUO Model 219d Serial Number --
Made in year 2012
Digital display
6 bits per primary color channel
Digital interface is not defined
Maximum image size: 38 cm x 21 cm
Gamma: 2.20
Supported color formats: RGB 4:4:4
First detailed timing includes the native pixel format and preferred refresh rate
Display x,y Chromaticity:
  Red:   0.6201, 0.3398
  Green: 0.3300, 0.5703
  Blue:  0.1503, 0.0595
  White: 0.3134, 0.3291
Established timings supported:
Standard timings supported:
Detailed mode: Clock 141.500 MHz, 381 mm x 214 mm
               1920 1968 2068 2108 hborder 0
               1080 1083 1089 1118 vborder 0
               -hsync -vsync 
               VertFreq: 60 Hz, HorFreq: 67125 Hz
Manufacturer-specified data, tag 15
ASCII string: AUO
ASCII string: B173HW02 V1 
Checksum: 0x1d (valid)
EDID block does NOT conform to EDID 1.4!
	Missing name descriptor
	Missing monitor ranges
