
EDID (hex):
00ffffffffffff0006af9d2100000000
001701049026157802c8959e57549226
0f505400000001010101010101010101
010101010101e23680b8703820403064
36007dd61000001ae23680b870382040
306436007dd61000001a000000fe0050
394a4e4b804231373348573000000000
00004102960111000002010a20200005

Extracted contents:
header:          00 ff ff ff ff ff ff 00
serial number:   06 af 9d 21 00 00 00 00 00 17
version:         01 04
basic params:    90 26 15 78 02
chroma info:     c8 95 9e 57 54 92 26 0f 50 54
established:     00 00 00
standard:        01 01 01 01 01 01 01 01 01 01 01 01 01 01 01 01
descriptor 1:    e2 36 80 b8 70 38 20 40 30 64 36 00 7d d6 10 00 00 1a
descriptor 2:    e2 36 80 b8 70 38 20 40 30 64 36 00 7d d6 10 00 00 1a
descriptor 3:    00 00 00 fe 00 50 39 4a 4e 4b 80 42 31 37 33 48 57 30
descriptor 4:    00 00 00 00 00 00 41 02 96 01 11 00 00 02 01 0a 20 20
extensions:      00
checksum:        05

EDID version: 1.4
Manufacturer: AUO Model 219d Serial Number --
Made in year 2013
Digital display
6 bits per primary color channel
Digital interface is not defined
Maximum image size: 38 cm x 21 cm
Gamma: 2.20
Supported color formats: RGB 4:4:4
First detailed timing includes the native pixel format and preferred refresh rate
Display x,y Chromaticity:
  Red:   0.6201, 0.3398
  Green: 0.3300, 0.5703
  Blue:  0.1503, 0.0595
  White: 0.3134, 0.3291
Established timings supported:
Standard timings supported:
Detailed mode: Clock 140.500 MHz, 381 mm x 214 mm
               1920 1968 2068 2104 hborder 0
               1080 1083 1089 1112 vborder 0
               +hsync -vsync 
               VertFreq: 60 Hz, HorFreq: 66777 Hz
Detailed mode: Clock 140.500 MHz, 381 mm x 214 mm
               1920 1968 2068 2104 hborder 0
               1080 1083 1089 1112 vborder 0
               +hsync -vsync 
               VertFreq: 60 Hz, HorFreq: 66777 Hz
ASCII string: P9JNK
Manufacturer-specified data, tag 0
Checksum: 0x5 (valid)
EDID block does NOT conform to EDID 1.4!
	Missing name descriptor
	Missing monitor ranges
	Detailed block string not properly terminated
