edid-decode (hex):

00 ff ff ff ff ff ff 00 30 e4 12 02 00 00 00 00
00 13 01 04 95 1f 11 78 02 33 c5 95 58 56 8f 28
1e 50 54 00 00 00 01 01 01 01 01 01 01 01 01 01
01 01 01 01 01 01 20 1c 56 a8 50 00 0e 30 30 20
35 00 35 ae 10 00 00 19 c0 12 56 a8 50 00 0e 30
30 20 35 00 35 ae 10 00 00 19 00 00 00 00 00 00
00 00 00 00 00 00 00 00 00 00 00 00 00 00 00 02
00 0c 47 ea 0a 3c 64 24 14 1d 6e 00 00 00 00 cf

----------------

Block 0, Base EDID:
  EDID Structure Version & Revision: 1.4
  Vendor & Product Identification:
    Manufacturer: LGD
    Model: 530
    Made in: 2009
  Basic Display Parameters & Features:
    Digital display
    Bits per primary color channel: 6
    DisplayPort interface
    Maximum image size: 31 cm x 17 cm
    Gamma: 2.20
    Supported color formats: RGB 4:4:4
    First detailed timing includes the native pixel format and preferred refresh rate
  Color Characteristics:
    Red  : 0.5820, 0.3466
    Green: 0.3359, 0.5615
    Blue : 0.1591, 0.1171
    White: 0.3134, 0.3291
  Established Timings I & II: none
  Standard Timings: none
  Detailed Timing Descriptors:
    DTD 1:  1366x768    60.021 Hz 683:384  46.936 kHz  72.000 MHz (309 mm x 174 mm)
                 Hfront   48 Hsync  32 Hback  88 Hpol N
                 Vfront    3 Vsync   5 Vback   6 Vpol N
    DTD 2:  1366x768    40.014 Hz 683:384  31.291 kHz  48.000 MHz (309 mm x 174 mm)
                 Hfront   48 Hsync  32 Hback  88 Hpol N
                 Vfront    3 Vsync   5 Vback   6 Vpol N
    Empty Descriptor
    Manufacturer-Specified Display Descriptor (0x02): 00 02 00 0c 47 ea 0a 3c 64 24 14 1d 6e 00 00 00 '....G..<d$..n...'
Checksum: 0xcf

----------------

Failures:

Block 0, Base EDID:
  Empty Descriptor: Use Dummy Descriptor instead of all zeroes.
  Missing Display Product Name.

EDID conformity: FAIL
