
EDID (hex):
00ffffffffffff0006afec4700000000
00160104951a0e78020bb59757548c26
23505400000001010101010101010101
010101010101281e56ee500022302616
36000090100000180000001000000000
00000000000000000000000000100000
00000000000000000000000000000010
000000000000000000000000000000bb

Extracted contents:
header:          00 ff ff ff ff ff ff 00
serial number:   06 af ec 47 00 00 00 00 00 16
version:         01 04
basic params:    95 1a 0e 78 02
chroma info:     0b b5 97 57 54 8c 26 23 50 54
established:     00 00 00
standard:        01 01 01 01 01 01 01 01 01 01 01 01 01 01 01 01
descriptor 1:    28 1e 56 ee 50 00 22 30 26 16 36 00 00 90 10 00 00 18
descriptor 2:    00 00 00 10 00 00 00 00 00 00 00 00 00 00 00 00 00 00
descriptor 3:    00 00 00 10 00 00 00 00 00 00 00 00 00 00 00 00 00 00
descriptor 4:    00 00 00 10 00 00 00 00 00 00 00 00 00 00 00 00 00 00
extensions:      00
checksum:        bb

EDID version: 1.4
Manufacturer: AUO Model 47ec Serial Number --
Made in year 2012
Digital display
6 bits per primary color channel
DisplayPort interface
Maximum image size: 26 cm x 14 cm
Gamma: 2.20
Supported color formats: RGB 4:4:4
First detailed timing includes the native pixel format and preferred refresh rate
Display x,y Chromaticity:
  Red:   0.5898, 0.3398
  Green: 0.3300, 0.5498
  Blue:  0.1503, 0.1396
  White: 0.3134, 0.3291
Established timings supported:
Standard timings supported:
Detailed mode: Clock 77.200 MHz, 256 mm x 144 mm
               1366 1404 1426 1604 hborder 0
                768  771  777  802 vborder 0
               -hsync -vsync 
               VertFreq: 60 Hz, HorFreq: 48129 Hz
Dummy block
Dummy block
Dummy block
Checksum: 0xbb (valid)
EDID block does NOT conform to EDID 1.4!
	Missing name descriptor
	Missing monitor ranges
