edid-decode (hex):

00 ff ff ff ff ff ff 00 30 ae 3d 40 00 00 00 00
00 1f 01 04 a5 1e 13 78 03 a1 d5 98 5e 59 93 28
20 50 54 00 00 00 01 01 01 01 01 01 01 01 01 01
01 01 01 01 01 01 33 3f 80 dc 70 b0 3c 40 30 20
36 00 2e bc 10 00 00 1a 00 00 00 fd 00 28 3c 43
43 0e 01 0a 20 20 20 20 20 20 00 00 00 0f 00 d1
0a 3c d1 0a 28 1e 0a 00 09 e5 2f 0a 00 00 00 fe
00 4e 56 31 34 30 57 55 4d 2d 54 30 32 0a 00 89

00 ff ff ff ff ff ff 00 30 ae 3d 40 00 00 00 00
00 1f 01 04 a5 1e 13 78 03 a1 d5 98 5e 59 93 28
20 50 54 00 00 00 01 01 01 01 01 01 01 01 01 01
01 01 01 01 01 01 33 3f 80 dc 70 b0 3c 40 30 20
36 00 2e bc 10 00 00 1a 00 00 00 fd 00 28 3c 43
43 0e 01 0a 20 20 20 20 20 20 00 00 00 0f 00 d1
0a 3c d1 0a 28 1e 0a 00 09 e5 2f 0a 00 00 00 fe
00 4e 56 31 34 30 57 55 4d 2d 54 30 32 0a 00 89

----------------

Block 0, Base EDID:
  EDID Structure Version & Revision: 1.4
  Vendor & Product Identification:
    Manufacturer: LEN
    Model: 16445
    Made in: 2021
  Basic Display Parameters & Features:
    Digital display
    Bits per primary color channel: 8
    DisplayPort interface
    Maximum image size: 30 cm x 19 cm
    Gamma: 2.20
    Supported color formats: RGB 4:4:4
    First detailed timing includes the native pixel format and preferred refresh rate
    Display is continuous frequency
  Color Characteristics:
    Red  : 0.5957, 0.3691
    Green: 0.3476, 0.5751
    Blue : 0.1591, 0.1259
    White: 0.3134, 0.3291
  Established Timings I & II: none
  Standard Timings: none
  Detailed Timing Descriptors:
    DTD 1:  1920x1200   60.002225 Hz  16:10    75.603 kHz    161.790000 MHz (302 mm x 188 mm)
                 Hfront   48 Hsync  32 Hback  140 Hpol P
                 Vfront    3 Vsync   6 Vback   51 Vpol N
    Display Range Limits:
      Monitor ranges (Bare Limits): 40-60 Hz V, 67-67 kHz H, max dotclock 140 MHz
    Manufacturer-Specified Display Descriptor (0x0f): 00 0f 00 d1 0a 3c d1 0a 28 1e 0a 00 09 e5 2f 0a '.....<..(...../.'
    Alphanumeric Data String: 'NV140WUM-T02'
Checksum: 0x89

----------------

Block 1, Unknown EDID Extension Block 0x00:
  00 ff ff ff ff ff ff 00 30 ae 3d 40 00 00 00 00 '........0.=@....'
  00 1f 01 04 a5 1e 13 78 03 a1 d5 98 5e 59 93 28 '.......x....^Y.('
  20 50 54 00 00 00 01 01 01 01 01 01 01 01 01 01 ' PT.............'
  01 01 01 01 01 01 33 3f 80 dc 70 b0 3c 40 30 20 '......3?..p.<@0 '
  36 00 2e bc 10 00 00 1a 00 00 00 fd 00 28 3c 43 '6............(<C'
  43 0e 01 0a 20 20 20 20 20 20 00 00 00 0f 00 d1 'C...      ......'
  0a 3c d1 0a 28 1e 0a 00 09 e5 2f 0a 00 00 00 fe '.<..(...../.....'
  00 4e 56 31 34 30 57 55 4d 2d 54 30 32 0a 00 89 '.NV140WUM-T02...'
Checksum: 0x89

----------------

Warnings:

Block 0, Base EDID:
  Missing Display Product Name.
EDID:
  Base EDID: Some timings are out of range of the Monitor Ranges:
    Horizontal Freq: 75.602 - 75.602 kHz (Monitor: 67.000 - 67.000 kHz)
    Maximum Clock: 161.790 MHz (Monitor: 140.000 MHz)

Failures:

Block 1, Base EDID:
  Unknown Extension Block.
EDID:
  Base EDID: EDID specified 0 extension block(s), but found 1 extension block(s).

EDID conformity: FAIL
