
EDID (hex):
00ffffffffffff0030aedb6138313234
011f01036c3622782ecd95a9544c9c26
105054bdcf00d1c0714f818c81008180
950f9500b300283c80a070b023403020
360017532100001a000000ff00564b46
59343231380a20202020000000fd0032
4b1e5315000a202020202020000000fc
004c454e20543235642d31300a2000b0

Extracted contents:
header:          00 ff ff ff ff ff ff 00
serial number:   30 ae db 61 38 31 32 34 01 1f
version:         01 03
basic params:    6c 36 22 78 2e
chroma info:     cd 95 a9 54 4c 9c 26 10 50 54
established:     bd cf 00
standard:        d1 c0 71 4f 81 8c 81 00 81 80 95 0f 95 00 b3 00
descriptor 1:    28 3c 80 a0 70 b0 23 40 30 20 36 00 17 53 21 00 00 1a
descriptor 2:    00 00 00 ff 00 56 4b 46 59 34 32 31 38 0a 20 20 20 20
descriptor 3:    00 00 00 fd 00 32 4b 1e 53 15 00 0a 20 20 20 20 20 20
descriptor 4:    00 00 00 fc 00 4c 45 4e 20 54 32 35 64 2d 31 30 0a 20
extensions:      00
checksum:        b0

EDID version: 1.3
Manufacturer: LEN Model 61db Serial Number --
Made in week 1 of 2021
Analog display, Input voltage level: 0.7/0.7 V
Sync: Separate Composite 
Maximum image size: 54 cm x 34 cm
Gamma: 2.20
DPMS levels: Off
RGB color display
Default (sRGB) color space is primary color space
First detailed timing is preferred timing
Display x,y Chromaticity:
  Red:   0.6630, 0.3281
  Green: 0.2998, 0.6103
  Blue:  0.1503, 0.0634
  White: 0.3134, 0.3291
Established timings supported:
  720x400@70Hz 9:5 HorFreq: 31469 Hz Clock: 28.320 MHz
  640x480@60Hz 4:3 HorFreq: 31469 Hz Clock: 25.175 MHz
  640x480@67Hz 4:3 HorFreq: 35000 Hz Clock: 30.240 MHz
  640x480@72Hz 4:3 HorFreq: 37900 Hz Clock: 31.500 MHz
  640x480@75Hz 4:3 HorFreq: 37500 Hz Clock: 31.500 MHz
  800x600@60Hz 4:3 HorFreq: 37900 Hz Clock: 40.000 MHz
  800x600@72Hz 4:3 HorFreq: 48100 Hz Clock: 50.000 MHz
  800x600@75Hz 4:3 HorFreq: 46900 Hz Clock: 49.500 MHz
  1024x768@60Hz 4:3 HorFreq: 48400 Hz Clock: 65.000 MHz
  1024x768@70Hz 4:3 HorFreq: 56500 Hz Clock: 75.000 MHz
  1024x768@75Hz 4:3 HorFreq: 60000 Hz Clock: 78.750 MHz
  1280x1024@75Hz 5:4 HorFreq: 80000 Hz Clock: 135.000 MHz
Standard timings supported:
  1920x1080@60Hz 16:9
  1152x864@75Hz 4:3 HorFreq: 67500 Hz Clock: 108.000 MHz
  1280x1024@72Hz 5:4
  1280x800@60Hz 16:10
  1280x1024@60Hz 5:4 HorFreq: 64000 Hz Clock: 108.000 MHz
  1440x900@75Hz 16:10 HorFreq: 82300 Hz Clock: 156.000 MHz
  1440x900@60Hz 16:10 HorFreq: 55500 Hz Clock: 88.750 MHz
  1680x1050@60Hz 16:10 HorFreq: 64700 Hz Clock: 119.000 MHz
Detailed mode: Clock 154.000 MHz, 535 mm x 339 mm
               1920 1968 2000 2080 hborder 0
               1200 1203 1209 1235 vborder 0
               +hsync -vsync 
               VertFreq: 59 Hz, HorFreq: 74038 Hz
Serial number: --
Monitor ranges (GTF): 50-75Hz V, 30-83kHz H, max dotclock 210MHz
Monitor name: LEN T25d-10
Checksum: 0xb0 (valid)
EDID block does NOT conform to EDID 1.3!
	sRGB is signaled, but the chromaticities do not match
