edid-decode (hex):

00 ff ff ff ff ff ff 00 09 e5 af 05 00 00 00 00
01 15 01 04 80 1f 11 78 0a b0 90 97 58 54 92 26
1d 50 54 00 00 00 01 01 01 01 01 01 01 01 01 01
01 01 01 01 01 01 e4 1b 56 7a 50 00 20 30 30 20
36 00 35 ad 10 00 00 1a 30 16 56 00 51 00 6c 30
30 20 36 00 35 ad 10 00 00 1a 00 00 00 fe 00 56
54 4b 4a 56 80 48 42 31 34 31 30 30 00 00 00 00
00 00 41 01 94 01 00 00 00 01 01 0a 20 20 00 39

00 ff ff ff ff ff ff 00 09 e5 af 05 00 00 00 00
01 15 01 04 80 1f 11 78 0a b0 90 97 58 54 92 26
1d 50 54 00 00 00 01 01 01 01 01 01 01 01 01 01
01 01 01 01 01 01 e4 1b 56 7a 50 00 20 30 30 20
36 00 35 ad 10 00 00 1a 30 16 56 00 51 00 6c 30
30 20 36 00 35 ad 10 00 00 1a 00 00 00 fe 00 56
54 4b 4a 56 80 48 42 31 34 31 30 30 00 00 00 00
00 00 41 01 94 01 00 00 00 01 01 0a 20 20 00 39

----------------

Block 0, Base EDID:
  EDID Structure Version & Revision: 1.4
  Vendor & Product Identification:
    Manufacturer: BOE
    Model: 1455
    Made in: week 1 of 2011
  Basic Display Parameters & Features:
    Digital display
    Color depth is undefined
    Digital interface is not defined
    Maximum image size: 31 cm x 17 cm
    Gamma: 2.20
    Supported color formats: RGB 4:4:4, YCrCb 4:4:4
    First detailed timing includes the native pixel format and preferred refresh rate
  Color Characteristics:
    Red  : 0.5917, 0.3466
    Green: 0.3281, 0.5703
    Blue : 0.1503, 0.1142
    White: 0.3125, 0.3281
  Established Timings I & II: none
  Standard Timings: none
  Detailed Timing Descriptors:
    DTD 1:  1366x768    59.979839 Hz 683:384   47.984 kHz     71.400000 MHz (309 mm x 173 mm)
                 Hfront   48 Hsync  32 Hback   42 Hpol P
                 Vfront    3 Vsync   6 Vback   23 Vpol N
    DTD 2:  1366x768    39.975452 Hz 683:384   35.018 kHz     56.800000 MHz (309 mm x 173 mm)
                 Hfront   48 Hsync  32 Hback  176 Hpol P
                 Vfront    3 Vsync   6 Vback   99 Vpol N
    Alphanumeric Data String: 'VTKJV'
    Manufacturer-Specified Display Descriptor (0x00): 00 00 00 00 41 01 94 01 00 00 00 01 01 0a 20 20 '....A.........  '
Checksum: 0x39

----------------

Block 1, Unknown EDID Extension Block 0x00:
  00 ff ff ff ff ff ff 00 09 e5 af 05 00 00 00 00 '................'
  01 15 01 04 80 1f 11 78 0a b0 90 97 58 54 92 26 '.......x....XT.&'
  1d 50 54 00 00 00 01 01 01 01 01 01 01 01 01 01 '.PT.............'
  01 01 01 01 01 01 e4 1b 56 7a 50 00 20 30 30 20 '........VzP. 00 '
  36 00 35 ad 10 00 00 1a 30 16 56 00 51 00 6c 30 '6.5.....0.V.Q.l0'
  30 20 36 00 35 ad 10 00 00 1a 00 00 00 fe 00 56 '0 6.5..........V'
  54 4b 4a 56 80 48 42 31 34 31 30 30 00 00 00 00 'TKJV.HB14100....'
  00 00 41 01 94 01 00 00 00 01 01 0a 20 20 00 39 '..A.........  .9'
Checksum: 0x39

----------------

Warnings:

Block 0, Base EDID:
  Missing Display Product Name.

Failures:

Block 0, Base EDID:
  Alphanumeric Data String: Non-printable character.
Block 1, Base EDID:
  Unknown Extension Block.
EDID:
  Base EDID: EDID specified 0 extension block(s), but found 1 extension block(s).

EDID conformity: FAIL
