
EDID (hex):
00ffffffffffff0009e5b30500000000
01160104902213780af8909e59559c26
1a505400000001010101010101010101
010101010101041c5693500016303020
360058c11000001ad61256a050001630
3020360058c11000001a000000fe0030
47544e31804842313531303000000000
00004101940100000001010a20200088

Extracted contents:
header:          00 ff ff ff ff ff ff 00
serial number:   09 e5 b3 05 00 00 00 00 01 16
version:         01 04
basic params:    90 22 13 78 0a
chroma info:     f8 90 9e 59 55 9c 26 1a 50 54
established:     00 00 00
standard:        01 01 01 01 01 01 01 01 01 01 01 01 01 01 01 01
descriptor 1:    04 1c 56 93 50 00 16 30 30 20 36 00 58 c1 10 00 00 1a
descriptor 2:    d6 12 56 a0 50 00 16 30 30 20 36 00 58 c1 10 00 00 1a
descriptor 3:    00 00 00 fe 00 30 47 54 4e 31 80 48 42 31 35 31 30 30
descriptor 4:    00 00 00 00 00 00 41 01 94 01 00 00 00 01 01 0a 20 20
extensions:      00
checksum:        88

EDID version: 1.4
Manufacturer: BOE Model 5b3 Serial Number --
Made in week 1 of 2012
Digital display
6 bits per primary color channel
Digital interface is not defined
Maximum image size: 34 cm x 19 cm
Gamma: 2.20
Supported color formats: RGB 4:4:4, YCrCb 4:4:4
First detailed timing includes the native pixel format and preferred refresh rate
Display x,y Chromaticity:
  Red:   0.6201, 0.3505
  Green: 0.3339, 0.6093
  Blue:  0.1503, 0.1025
  White: 0.3125, 0.3281
Established timings supported:
Standard timings supported:
Detailed mode: Clock 71.720 MHz, 344 mm x 193 mm
               1366 1414 1446 1513 hborder 0
                768  771  777  790 vborder 0
               +hsync -vsync 
               VertFreq: 60 Hz, HorFreq: 47402 Hz
Detailed mode: Clock 48.220 MHz, 344 mm x 193 mm
               1366 1414 1446 1526 hborder 0
                768  771  777  790 vborder 0
               +hsync -vsync 
               VertFreq: 39 Hz, HorFreq: 31598 Hz
ASCII string: 0GTN1
Manufacturer-specified data, tag 0
Checksum: 0x88 (valid)
EDID block does NOT conform to EDID 1.4!
	Missing name descriptor
	Missing monitor ranges
	Detailed block string not properly terminated
