
EDID (hex):
00ffffffffffff0030e4c80300000000
00160104a0160d7802ede5985a559126
1e505400000001010101010101010101
010101010101201c56a0500016303020
3500df7d000000190000000000000000
00000000000000000000000000fe004c
4720446973706c61790a2020000000fe
004c503130315748342d534c4141004d

Extracted contents:
header:          00 ff ff ff ff ff ff 00
serial number:   30 e4 c8 03 00 00 00 00 00 16
version:         01 04
basic params:    a0 16 0d 78 02
chroma info:     ed e5 98 5a 55 91 26 1e 50 54
established:     00 00 00
standard:        01 01 01 01 01 01 01 01 01 01 01 01 01 01 01 01
descriptor 1:    20 1c 56 a0 50 00 16 30 30 20 35 00 df 7d 00 00 00 19
descriptor 2:    00 00 00 00 00 00 00 00 00 00 00 00 00 00 00 00 00 00
descriptor 3:    00 00 00 fe 00 4c 47 20 44 69 73 70 6c 61 79 0a 20 20
descriptor 4:    00 00 00 fe 00 4c 50 31 30 31 57 48 34 2d 53 4c 41 41
extensions:      00
checksum:        4d

EDID version: 1.4
Manufacturer: LGD Model 3c8 Serial Number --
Made in year 2012
Digital display
8 bits per primary color channel
Digital interface is not defined
Maximum image size: 22 cm x 13 cm
Gamma: 2.20
Supported color formats: RGB 4:4:4
First detailed timing includes the native pixel format and preferred refresh rate
Display x,y Chromaticity:
  Red:   0.5966, 0.3535
  Green: 0.3349, 0.5673
  Blue:  0.1513, 0.1191
  White: 0.3134, 0.3291
Established timings supported:
Standard timings supported:
Detailed mode: Clock 72.000 MHz, 223 mm x 125 mm
               1366 1414 1446 1526 hborder 0
                768  771  776  790 vborder 0
               -hsync -vsync 
               VertFreq: 59 Hz, HorFreq: 47182 Hz
Manufacturer-specified data, tag 0
ASCII string: LG Display
ASCII string: LP101WH4-SLAA
Checksum: 0x4d (valid)
EDID block does NOT conform to EDID 1.4!
	Missing name descriptor
	Missing monitor ranges
