edid-decode (hex):

00 ff ff ff ff ff ff 00 0d af 03 14 00 00 00 00
02 0d 01 03 80 1f 12 78 0a e0 d5 96 56 52 89 27
22 50 54 00 00 00 01 01 01 01 01 01 01 01 01 01
01 01 01 01 01 01 bc 1b 00 a0 50 00 37 30 30 20
36 00 31 b7 10 00 00 18 00 00 00 fe 00 4e 31 34
30 41 31 0a 20 20 20 20 20 20 00 00 00 fe 00 43
4d 4f 0a 20 20 20 20 20 20 20 20 20 00 00 00 fc
00 4e 31 34 30 41 31 2d 4c 30 31 0a 20 20 00 17

----------------

Block 0, Base EDID:
  EDID Structure Version & Revision: 1.3
  Vendor & Product Identification:
    Manufacturer: CMO
    Model: 5123
    Made in: week 2 of 2003
  Basic Display Parameters & Features:
    Digital display
    Maximum image size: 31 cm x 18 cm
    Gamma: 2.20
    RGB color display
    First detailed timing is the preferred timing
  Color Characteristics:
    Red  : 0.5888, 0.3378
    Green: 0.3203, 0.5351
    Blue : 0.1552, 0.1337
    White: 0.3134, 0.3291
  Established Timings I & II: none
  Standard Timings: none
  Detailed Timing Descriptors:
    DTD 1:  1280x768    59.909545 Hz   5:3     49.306 kHz     71.000000 MHz (305 mm x 183 mm)
                 Hfront   48 Hsync  32 Hback   80 Hpol N
                 Vfront    3 Vsync   6 Vback   46 Vpol N
    Alphanumeric Data String: 'N140A1'
    Alphanumeric Data String: 'CMO'
    Display Product Name: 'N140A1-L01'
Checksum: 0x17

----------------

Failures:

Block 0, Base EDID:
  Missing Display Range Limits Descriptor.

EDID conformity: FAIL
