
EDID (hex):
00ffffffffffff0005e38335ce010000
211b0104a55223783b62f5aa524ca326
0f5054bfef00d1c081803168317c4568
457c6168617ccd4600a0a0381f403020
3a00345a3100001af4b000a0a0384d40
30203a00345a3100001a000000fd002d
a2bebe3c010a202020202020000000fc
0051333538330a202020202020200121
02031ef14b0103051404131f12021190
230907078301000065030c002000fe5b
80a07038354030203500345a3100001e
866f80a07038404030203500345a3100
001e25c600a0a038564030203a00345a
3100001aab22a0a050841a3030203600
345a3100001aec2c00b0513828405088
3a00345a3100001c0000000000000024

Extracted contents:
header:          00 ff ff ff ff ff ff 00
serial number:   05 e3 83 35 ce 01 00 00 21 1b
version:         01 04
basic params:    a5 52 23 78 3b
chroma info:     62 f5 aa 52 4c a3 26 0f 50 54
established:     bf ef 00
standard:        d1 c0 81 80 31 68 31 7c 45 68 45 7c 61 68 61 7c
descriptor 1:    cd 46 00 a0 a0 38 1f 40 30 20 3a 00 34 5a 31 00 00 1a
descriptor 2:    f4 b0 00 a0 a0 38 4d 40 30 20 3a 00 34 5a 31 00 00 1a
descriptor 3:    00 00 00 fd 00 2d a2 be be 3c 01 0a 20 20 20 20 20 20
descriptor 4:    00 00 00 fc 00 51 33 35 38 33 0a 20 20 20 20 20 20 20
extensions:      01
checksum:        21

EDID version: 1.4
Manufacturer: AOC Model 3583 Serial Number --
Made in week 33 of 2017
Digital display
8 bits per primary color channel
DisplayPort interface
Maximum image size: 82 cm x 35 cm
Gamma: 2.20
DPMS levels: Off
Supported color formats: RGB 4:4:4, YCrCb 4:4:4, YCrCb 4:2:2
First detailed timing includes the native pixel format and preferred refresh rate
Display is continuous frequency
Display x,y Chromaticity:
  Red:   0.6650, 0.3222
  Green: 0.2968, 0.6386
  Blue:  0.1513, 0.0615
  White: 0.3134, 0.3291
Established timings supported:
  720x400@70Hz 9:5 HorFreq: 31469 Hz Clock: 28.320 MHz
  640x480@60Hz 4:3 HorFreq: 31469 Hz Clock: 25.175 MHz
  640x480@67Hz 4:3 HorFreq: 35000 Hz Clock: 30.240 MHz
  640x480@72Hz 4:3 HorFreq: 37900 Hz Clock: 31.500 MHz
  640x480@75Hz 4:3 HorFreq: 37500 Hz Clock: 31.500 MHz
  800x600@56Hz 4:3 HorFreq: 35200 Hz Clock: 36.000 MHz
  800x600@60Hz 4:3 HorFreq: 37900 Hz Clock: 40.000 MHz
  800x600@72Hz 4:3 HorFreq: 48100 Hz Clock: 50.000 MHz
  800x600@75Hz 4:3 HorFreq: 46900 Hz Clock: 49.500 MHz
  832x624@75Hz 4:3 HorFreq: 49726 Hz Clock: 57.284 MHz
  1024x768@60Hz 4:3 HorFreq: 48400 Hz Clock: 65.000 MHz
  1024x768@70Hz 4:3 HorFreq: 56500 Hz Clock: 75.000 MHz
  1024x768@75Hz 4:3 HorFreq: 60000 Hz Clock: 78.750 MHz
  1280x1024@75Hz 5:4 HorFreq: 80000 Hz Clock: 135.000 MHz
Standard timings supported:
  1920x1080@60Hz 16:9
  1280x1024@60Hz 5:4 HorFreq: 64000 Hz Clock: 108.000 MHz
  640x480@100Hz 4:3
  640x480@120Hz 4:3
  800x600@100Hz 4:3
  800x600@120Hz 4:3
  1024x768@100Hz 4:3
  1024x768@120Hz 4:3
Detailed mode: Clock 181.250 MHz, 820 mm x 346 mm
               2560 2608 2640 2720 hborder 0
               1080 1083 1093 1111 vborder 0
               +hsync -vsync 
               VertFreq: 59 Hz, HorFreq: 66636 Hz
Detailed mode: Clock 453.000 MHz, 820 mm x 346 mm
               2560 2608 2640 2720 hborder 0
               1080 1083 1093 1157 vborder 0
               +hsync -vsync 
               VertFreq: 143 Hz, HorFreq: 166544 Hz
Monitor ranges (bare limits): 45-162Hz V, 190-190kHz H, max dotclock 600MHz
Monitor name: Q3583
Has 1 extension blocks
Checksum: 0x21 (valid)

CTA extension block
Extension version: 3
26 bytes of CTA data
  Video data block
    VIC   1 640x480@60Hz 4:3  HorFreq: 31469 Hz Clock: 25.175 MHz
    VIC   3 720x480@60Hz 16:9  HorFreq: 31469 Hz Clock: 27.000 MHz
    VIC   5 1920x1080i@60Hz 16:9  HorFreq: 33750 Hz Clock: 74.250 MHz
    VIC  20 1920x1080i@50Hz 16:9  HorFreq: 28125 Hz Clock: 74.250 MHz
    VIC   4 1280x720@60Hz 16:9  HorFreq: 45000 Hz Clock: 74.250 MHz
    VIC  19 1280x720@50Hz 16:9  HorFreq: 37500 Hz Clock: 74.250 MHz
    VIC  31 1920x1080@50Hz 16:9  HorFreq: 56250 Hz Clock: 148.500 MHz
    VIC  18 720x576@50Hz 16:9  HorFreq: 31250 Hz Clock: 27.000 MHz
    VIC   2 720x480@60Hz 4:3  HorFreq: 31469 Hz Clock: 27.000 MHz
    VIC  17 720x576@50Hz 4:3  HorFreq: 31250 Hz Clock: 27.000 MHz
    VIC  16 1920x1080@60Hz 16:9 (native) HorFreq: 67500 Hz Clock: 148.500 MHz
  Audio data block
    Linear PCM, max channels 2
      Supported sample rates (kHz): 48 44.1 32
      Supported sample sizes (bits): 24 20 16
  Speaker allocation data block
    Speaker map:
      FL/FR - Front Left/Right
  Vendor-specific data block, OUI 000c03 (HDMI)
    Source physical address 2.0.0.0
Underscans PC formats by default
Basic audio support
Supports YCbCr 4:4:4
Supports YCbCr 4:2:2
1 native detailed modes
Detailed mode: Clock 235.500 MHz, 820 mm x 346 mm
               1920 1968 2000 2080 hborder 0
               1080 1083 1088 1133 vborder 0
               +hsync +vsync 
               VertFreq: 99 Hz, HorFreq: 113221 Hz
Detailed mode: Clock 285.500 MHz, 820 mm x 346 mm
               1920 1968 2000 2080 hborder 0
               1080 1083 1088 1144 vborder 0
               +hsync +vsync 
               VertFreq: 119 Hz, HorFreq: 137259 Hz
Detailed mode: Clock 507.250 MHz, 820 mm x 346 mm
               2560 2608 2640 2720 hborder 0
               1080 1083 1093 1166 vborder 0
               +hsync -vsync 
               VertFreq: 159 Hz, HorFreq: 186488 Hz
Detailed mode: Clock 88.750 MHz, 820 mm x 346 mm
               1440 1488 1520 1600 hborder 0
                900  903  909  926 vborder 0
               +hsync -vsync 
               VertFreq: 59 Hz, HorFreq: 55468 Hz
Detailed mode: Clock 115.000 MHz, 820 mm x 346 mm
               1280 1360 1496 1712 hborder 0
               1080 1083 1093 1120 vborder 0
               -hsync +vsync 
               VertFreq: 59 Hz, HorFreq: 67172 Hz
Checksum: 0x24 (valid)

Warning: One or more of the timings is out of range of the Monitor Ranges:
  Vertical Freq: 50 - 159 Hz
  Horizontal Freq: 28125 - 186488 Hz
  Maximum Clock: 507.250 MHz
