
EDID (hex):
00ffffffffffff0006af91ec00000000
0a1e0104a526167803a335a6534a9c27
10505400000001010101010101010101
01010101010150d080507038204d3020
a5007ed71000001a000000fd0e3c6991
9150010a202020202020000000fe0036
46433137804231373348414e00000000
0002410f9e000100000b010a202001a2
7013790000030114803801847f074f00
2f001f0037041e000900040000000000
00000000000000000000000000000000
00000000000000000000000000000000
00000000000000000000000000000000
00000000000000000000000000000000
00000000000000000000000000000000
00000000000000000000000000009690

Extracted contents:
header:          00 ff ff ff ff ff ff 00
serial number:   06 af 91 ec 00 00 00 00 0a 1e
version:         01 04
basic params:    a5 26 16 78 03
chroma info:     a3 35 a6 53 4a 9c 27 10 50 54
established:     00 00 00
standard:        01 01 01 01 01 01 01 01 01 01 01 01 01 01 01 01
descriptor 1:    50 d0 80 50 70 38 20 4d 30 20 a5 00 7e d7 10 00 00 1a
descriptor 2:    00 00 00 fd 0e 3c 69 91 91 50 01 0a 20 20 20 20 20 20
descriptor 3:    00 00 00 fe 00 36 46 43 31 37 80 42 31 37 33 48 41 4e
descriptor 4:    00 00 00 00 00 02 41 0f 9e 00 01 00 00 0b 01 0a 20 20
extensions:      01
checksum:        a2

EDID version: 1.4
Manufacturer: AUO Model ec91 Serial Number --
Made in week 10 of 2020
Digital display
8 bits per primary color channel
DisplayPort interface
Maximum image size: 38 cm x 22 cm
Gamma: 2.20
Supported color formats: RGB 4:4:4
First detailed timing includes the native pixel format and preferred refresh rate
Display is continuous frequency
Display x,y Chromaticity:
  Red:   0.6503, 0.3261
  Green: 0.2890, 0.6123
  Blue:  0.1523, 0.0654
  White: 0.3134, 0.3291
Established timings supported:
Standard timings supported:
Detailed mode: Clock 533.280 MHz, 382 mm x 215 mm
               1920 1968 2000 2000 hborder 0
               1080 1090 1095 4440 vborder 0
               +hsync -vsync 
               VertFreq: 60 Hz, HorFreq: 266640 Hz
Monitor ranges (bare limits): 60-360Hz V, 400-400kHz H, max dotclock 800MHz
ASCII string: 6FC17
Manufacturer-specified data, tag 0
Has 1 extension blocks
Checksum: 0xa2 (valid)

DisplayID extension block
Extension version: 19
Length 121, version 19, extension count 0
Checksum: 0x96 (valid)
Type 1 detailed timing: aspect: 16:9, Preferred  
Detailed mode: Clock 800.000 MHz, 0 mm x 0 mm
               1919 1966 1997 1998
               1079 1088 1092 1109
               -hsync -vsync

EDID block does NOT conform to EDID 1.4!
	Missing name descriptor
	Detailed block string not properly terminated
Warning: One or more of the timings is out of range of the Monitor Ranges:
  Vertical Freq: 60 - 60 Hz
  Horizontal Freq: 266640 - 266640 Hz
  Maximum Clock: 533.280 MHz
EDID block does not conform at all!
	Has 1577058304 nonconformant extension block(s)


