
EDID (hex):
00ffffffffffff0025e444432e050000
2f1e0103802213782adae5955d599429
245054210800818081c0a9c0d1c00101
010101010101023a801871382d40582c
450058c21000001e000000fd003b3d0f
4413000a202020202020000000ff0031
3333423030313332364d5a0a000000fc
0045582d4c4443313631444d0a20015d
02031bf1450102030490230907078301
000065030c001000e200ca023a801871
382d40582c450058c21000001e000000
00000000000000000000000000000000
00000000000000000000000000000000
00000000000000000000000000000000
00000000000000000000000000000000
00000000000000000000000000000027

Extracted contents:
header:          00 ff ff ff ff ff ff 00
serial number:   25 e4 44 43 2e 05 00 00 2f 1e
version:         01 03
basic params:    80 22 13 78 2a
chroma info:     da e5 95 5d 59 94 29 24 50 54
established:     21 08 00
standard:        81 80 81 c0 a9 c0 d1 c0 01 01 01 01 01 01 01 01
descriptor 1:    02 3a 80 18 71 38 2d 40 58 2c 45 00 58 c2 10 00 00 1e
descriptor 2:    00 00 00 fd 00 3b 3d 0f 44 13 00 0a 20 20 20 20 20 20
descriptor 3:    00 00 00 ff 00 31 33 33 42 30 30 31 33 32 36 4d 5a 0a
descriptor 4:    00 00 00 fc 00 45 58 2d 4c 44 43 31 36 31 44 4d 0a 20
extensions:      01
checksum:        5d

EDID version: 1.3
Manufacturer: IOD Model 4344 Serial Number --
Made in week 47 of 2020
Digital display
Maximum image size: 34 cm x 19 cm
Gamma: 2.20
DPMS levels: Off
RGB color display
First detailed timing is preferred timing
Display x,y Chromaticity:
  Red:   0.5849, 0.3642
  Green: 0.3496, 0.5800
  Blue:  0.1630, 0.1425
  White: 0.3134, 0.3291
Established timings supported:
  640x480@60Hz 4:3 HorFreq: 31469 Hz Clock: 25.175 MHz
  800x600@60Hz 4:3 HorFreq: 37900 Hz Clock: 40.000 MHz
  1024x768@60Hz 4:3 HorFreq: 48400 Hz Clock: 65.000 MHz
Standard timings supported:
  1280x1024@60Hz 5:4 HorFreq: 64000 Hz Clock: 108.000 MHz
  1280x720@60Hz 16:9
  1600x900@60Hz 16:9
  1920x1080@60Hz 16:9
Detailed mode: Clock 148.500 MHz, 344 mm x 194 mm
               1920 2008 2052 2200 hborder 0
               1080 1084 1089 1125 vborder 0
               +hsync +vsync 
               VertFreq: 60 Hz, HorFreq: 67500 Hz
Monitor ranges (GTF): 59-61Hz V, 15-68kHz H, max dotclock 190MHz
Serial number: --
Monitor name: EX-LDC161DM
Has 1 extension blocks
Checksum: 0x5d (valid)

CTA extension block
Extension version: 3
23 bytes of CTA data
  Video data block
    VIC   1 640x480@60Hz 4:3  HorFreq: 31469 Hz Clock: 25.175 MHz
    VIC   2 720x480@60Hz 4:3  HorFreq: 31469 Hz Clock: 27.000 MHz
    VIC   3 720x480@60Hz 16:9  HorFreq: 31469 Hz Clock: 27.000 MHz
    VIC   4 1280x720@60Hz 16:9  HorFreq: 45000 Hz Clock: 74.250 MHz
    VIC  16 1920x1080@60Hz 16:9 (native) HorFreq: 67500 Hz Clock: 148.500 MHz
  Audio data block
    Linear PCM, max channels 2
      Supported sample rates (kHz): 48 44.1 32
      Supported sample sizes (bits): 24 20 16
  Speaker allocation data block
    Speaker map:
      FL/FR - Front Left/Right
  Vendor-specific data block, OUI 000c03 (HDMI)
    Source physical address 1.0.0.0
  Extended tag: Video capability data block
    YCbCr quantization: Selectable (via AVI YQ) (1)
    RGB quantization: Selectable (via AVI Q) (1)
    PT scan behaviour: No Data (0)
    IT scan behaviour: Always Underscanned (2)
    CE scan behaviour: Always Underscanned (2)
Underscans PC formats by default
Basic audio support
Supports YCbCr 4:4:4
Supports YCbCr 4:2:2
1 native detailed modes
Detailed mode: Clock 148.500 MHz, 344 mm x 194 mm
               1920 2008 2052 2200 hborder 0
               1080 1084 1089 1125 vborder 0
               +hsync +vsync 
               VertFreq: 60 Hz, HorFreq: 67500 Hz
Checksum: 0x27 (valid)

EDID block does not conform at all!
	Both the serial number and the serial string are set
