
EDID (hex):
00ffffffffffff004dd9003301010101
180f0103080000780ad9ada355469824
10474aadc800614f0101010101010101
01010101010164190040410026301d88
36000000000000180e1f008051001e30
4080370000000000001c000000fd003a
3e1e3208000a202020202020000000fc
004b4c562d5332334131300a202000a9

Extracted contents:
header:          00 ff ff ff ff ff ff 00
serial number:   4d d9 00 33 01 01 01 01 18 0f
version:         01 03
basic params:    08 00 00 78 0a
chroma info:     d9 ad a3 55 46 98 24 10 47 4a
established:     ad c8 00
standard:        61 4f 01 01 01 01 01 01 01 01 01 01 01 01 01 01
descriptor 1:    64 19 00 40 41 00 26 30 1d 88 36 00 00 00 00 00 00 18
descriptor 2:    0e 1f 00 80 51 00 1e 30 40 80 37 00 00 00 00 00 00 1c
descriptor 3:    00 00 00 fd 00 3a 3e 1e 32 08 00 0a 20 20 20 20 20 20
descriptor 4:    00 00 00 fc 00 4b 4c 56 2d 53 32 33 41 31 30 0a 20 20
extensions:      00
checksum:        a9

EDID version: 1.3
Manufacturer: SNY Model 3300 Serial Number --
Analog display, Input voltage level: 0.7/0.3 V
Sync: Separate 
Image size is variable
Gamma: 2.20
RGB color display
First detailed timing is preferred timing
Display x,y Chromaticity:
  Red:   0.6396, 0.3330
  Green: 0.2753, 0.5947
  Blue:  0.1425, 0.0644
  White: 0.2802, 0.2900
Established timings supported:
  720x400@70Hz 9:5 HorFreq: 31469 Hz Clock: 28.320 MHz
  640x480@60Hz 4:3 HorFreq: 31469 Hz Clock: 25.175 MHz
  640x480@72Hz 4:3 HorFreq: 37900 Hz Clock: 31.500 MHz
  640x480@75Hz 4:3 HorFreq: 37500 Hz Clock: 31.500 MHz
  800x600@60Hz 4:3 HorFreq: 37900 Hz Clock: 40.000 MHz
  800x600@72Hz 4:3 HorFreq: 48100 Hz Clock: 50.000 MHz
  800x600@75Hz 4:3 HorFreq: 46900 Hz Clock: 49.500 MHz
  1024x768@60Hz 4:3 HorFreq: 48400 Hz Clock: 65.000 MHz
Standard timings supported:
  1024x768@75Hz 4:3 HorFreq: 60000 Hz Clock: 78.750 MHz
Detailed mode: Clock 65.000 MHz, 0 mm x 0 mm
               1024 1053 1189 1344 hborder 0
                768  771  777  806 vborder 0
               -hsync -vsync 
               VertFreq: 60 Hz, HorFreq: 48363 Hz
Detailed mode: Clock 79.500 MHz, 0 mm x 0 mm
               1280 1344 1472 1664 hborder 0
                768  771  778  798 vborder 0
               -hsync +vsync 
               VertFreq: 59 Hz, HorFreq: 47776 Hz
Monitor ranges (GTF): 58-62Hz V, 30-50kHz H, max dotclock 80MHz
Monitor name: KLV-S23A10
Checksum: 0xa9 (valid)
One or more of the timings is out of range of the Monitor Ranges:
  Vertical Freq: 59 - 75 Hz
  Horizontal Freq: 31469 - 60000 Hz
  Maximum Clock: 79.500 MHz
EDID block does not conform at all!
	Bad year of manufacture
