edid-decode (hex):

00 ff ff ff ff ff ff 00 30 ae 51 11 01 01 01 01
13 12 01 03 80 2f 1e 78 2a e6 85 a8 50 35 ac 25
14 50 54 21 08 00 81 80 95 00 95 0f b3 00 a9 40
01 01 01 01 01 01 28 3c 80 a0 70 b0 23 40 30 20
36 00 da 28 11 00 00 1a 00 00 00 fd 00 32 4b 1e
5e 15 00 0a 20 20 20 20 20 20 00 00 00 fc 00 4c
45 4e 20 4c 32 32 30 78 77 43 0a 20 00 00 00 ff
00 56 4c 2d 34 38 38 33 38 0a 20 20 20 20 00 d7

00 ff ff ff ff ff ff 00 30 ae 51 11 01 01 01 01
13 12 01 03 80 2f 1e 78 2a e6 85 a8 50 35 ac 25
14 50 54 21 08 00 81 80 95 00 95 0f b3 00 a9 40
01 01 01 01 01 01 28 3c 80 a0 70 b0 23 40 30 20
36 00 da 28 11 00 00 1a 00 00 00 fd 00 32 4b 1e
5e 15 00 0a 20 20 20 20 20 20 00 00 00 fc 00 4c
45 4e 20 4c 32 32 30 78 77 43 0a 20 00 00 00 ff
00 56 4c 2d 34 38 38 33 38 0a 20 20 20 20 00 d7

----------------

Block 0, Base EDID:
  EDID Structure Version & Revision: 1.3
  Vendor & Product Identification:
    Manufacturer: LEN
    Model: 4433
    Serial Number: ...
    Made in: week 19 of 2008
  Basic Display Parameters & Features:
    Digital display
    Maximum image size: 47 cm x 30 cm
    Gamma: 2.20
    DPMS levels: Off
    RGB color display
    First detailed timing is the preferred timing
  Color Characteristics:
    Red  : 0.6591, 0.3144
    Green: 0.2080, 0.6738
    Blue : 0.1464, 0.0781
    White: 0.3134, 0.3291
  Established Timings I & II:
    DMT 0x04:   640x480    59.940476 Hz   4:3     31.469 kHz     25.175000 MHz
    DMT 0x09:   800x600    60.316541 Hz   4:3     37.879 kHz     40.000000 MHz
    DMT 0x10:  1024x768    60.003840 Hz   4:3     48.363 kHz     65.000000 MHz
  Standard Timings:
    DMT 0x23:  1280x1024   60.019740 Hz   5:4     63.981 kHz    108.000000 MHz
    DMT 0x2f:  1440x900    59.887445 Hz  16:10    55.935 kHz    106.500000 MHz
    DMT 0x30:  1440x900    74.984427 Hz  16:10    70.635 kHz    136.750000 MHz
    DMT 0x3a:  1680x1050   59.954250 Hz  16:10    65.290 kHz    146.250000 MHz
    DMT 0x33:  1600x1200   60.000000 Hz   4:3     75.000 kHz    162.000000 MHz
  Detailed Timing Descriptors:
    DTD 1:  1920x1200   59.950171 Hz  16:10    74.038 kHz    154.000000 MHz (474 mm x 296 mm)
                 Hfront   48 Hsync  32 Hback   80 Hpol P
                 Vfront    3 Vsync   6 Vback   26 Vpol N
    Display Range Limits:
      Monitor ranges (GTF): 50-75 Hz V, 30-94 kHz H, max dotclock 210 MHz
    Display Product Name: 'LEN L220xwC'
    Display Product Serial Number: ...
Checksum: 0xd7

----------------

Block 1, Unknown EDID Extension Block 0x00:
  00 ff ff ff ff ff ff 00 30 ae 51 11 01 01 01 01 '........0.Q.....'
  13 12 01 03 80 2f 1e 78 2a e6 85 a8 50 35 ac 25 '...../.x*...P5.%'
  14 50 54 21 08 00 81 80 95 00 95 0f b3 00 a9 40 '.PT!...........@'
  01 01 01 01 01 01 28 3c 80 a0 70 b0 23 40 30 20 '......(<..p.#@0 '
  36 00 da 28 11 00 00 1a 00 00 00 fd 00 32 4b 1e '6..(.........2K.'
  5e 15 00 0a 20 20 20 20 20 20 00 00 00 fc 00 4c '^...      .....L'
  45 4e 20 4c 32 32 30 78 77 43 0a 20 00 00 00 ff 'EN L220xwC. ....'
  00 56 4c 2d 34 38 38 33 38 0a 20 20 20 20 00 d7 '.VL-48838.    ..'
Checksum: 0xd7

----------------

Failures:

Block 1, Base EDID:
  Unknown Extension Block.
EDID:
  Base EDID: EDID specified 0 extension block(s), but found 1 extension block(s).

EDID conformity: FAIL
