edid-decode (hex):

00 ff ff ff ff ff ff 00 09 d1 4e 78 45 54 00 00
2f 13 01 03 80 29 17 78 2e 3d 85 a6 56 4a 9a 24
12 50 54 21 08 00 71 00 81 c0 01 01 61 c0 01 01
01 01 01 01 01 01 66 21 56 aa 51 00 1e 30 46 8f
33 00 9a e6 10 00 00 1e 00 00 00 ff 00 48 42 39
30 30 38 37 38 30 32 36 0a 20 00 00 00 fd 00 32
4c 18 3f 0b 00 0a 20 20 20 20 20 20 00 00 00 fc
00 42 65 6e 51 20 47 39 32 32 48 44 4c 0a 00 49

00 ff ff ff ff ff ff 00 09 d1 4e 78 45 54 00 00
2f 13 01 03 80 29 17 78 2e 3d 85 a6 56 4a 9a 24
12 50 54 21 08 00 71 00 81 c0 01 01 61 c0 01 01
01 01 01 01 01 01 66 21 56 aa 51 00 1e 30 46 8f
33 00 9a e6 10 00 00 1e 00 00 00 ff 00 48 42 39
30 30 38 37 38 30 32 36 0a 20 00 00 00 fd 00 32
4c 18 3f 0b 00 0a 20 20 20 20 20 20 00 00 00 fc
00 42 65 6e 51 20 47 39 32 32 48 44 4c 0a 00 49

----------------

Block 0, Base EDID:
  EDID Structure Version & Revision: 1.3
  Vendor & Product Identification:
    Manufacturer: BNQ
    Model: 30798
    Serial Number: ...
    Made in: week 47 of 2009
  Basic Display Parameters & Features:
    Digital display
    Maximum image size: 41 cm x 23 cm
    Gamma: 2.20
    DPMS levels: Off
    RGB color display
    Default (sRGB) color space is primary color space
    First detailed timing is the preferred timing
  Color Characteristics:
    Red  : 0.6484, 0.3388
    Green: 0.2919, 0.6025
    Blue : 0.1425, 0.0703
    White: 0.3134, 0.3291
  Established Timings I & II:
    DMT 0x04:   640x480    59.940476 Hz   4:3     31.469 kHz     25.175000 MHz
    DMT 0x09:   800x600    60.316541 Hz   4:3     37.879 kHz     40.000000 MHz
    DMT 0x10:  1024x768    60.003840 Hz   4:3     48.363 kHz     65.000000 MHz
  Standard Timings:
    GTF     :  1152x720    59.999964 Hz  16:10    44.760 kHz     67.319000 MHz
    DMT 0x55:  1280x720    60.000000 Hz  16:9     45.000 kHz     74.250000 MHz
    GTF     :  1024x576    60.000204 Hz  16:9     35.820 kHz     46.996000 MHz
  Detailed Timing Descriptors:
    DTD 1:  1366x768    59.789541 Hz 683:384   47.712 kHz     85.500000 MHz (410 mm x 230 mm)
                 Hfront   70 Hsync 143 Hback  213 Hpol P
                 Vfront    3 Vsync   3 Vback   24 Vpol P
    Display Product Serial Number: ...
    Display Range Limits:
      Monitor ranges (GTF): 50-76 Hz V, 24-63 kHz H, max dotclock 110 MHz
    Display Product Name: 'BenQ G922HDL'
Checksum: 0x49

----------------

Block 1, Unknown EDID Extension Block 0x00:
  00 ff ff ff ff ff ff 00 09 d1 4e 78 45 54 00 00 '..........NxET..'
  2f 13 01 03 80 29 17 78 2e 3d 85 a6 56 4a 9a 24 '/....).x.=..VJ.$'
  12 50 54 21 08 00 71 00 81 c0 01 01 61 c0 01 01 '.PT!..q.....a...'
  01 01 01 01 01 01 66 21 56 aa 51 00 1e 30 46 8f '......f!V.Q..0F.'
  33 00 9a e6 10 00 00 1e 00 00 00 ff 00 48 42 39 '3............HB9'
  30 30 38 37 38 30 32 36 0a 20 00 00 00 fd 00 32 '00878026. .....2'
  4c 18 3f 0b 00 0a 20 20 20 20 20 20 00 00 00 fc 'L.?...      ....'
  00 42 65 6e 51 20 47 39 32 32 48 44 4c 0a 00 49 '.BenQ G922HDL..I'
Checksum: 0x49

----------------

Failures:

Block 0, Base EDID:
  Basic Display Parameters & Features: sRGB is signaled, but the chromaticities do not match.
Block 1, Base EDID:
  Unknown Extension Block.
EDID:
  Base EDID: EDID specified 0 extension block(s), but found 1 extension block(s).

EDID conformity: FAIL
