
EDID (hex):
00ffffffffffff0026cf458c00000000
011f0104b51e13780ede50a3544c9926
0f505400000001010101010101010101
0101010101018d50c0a0807820501830
3c002ebc100000187140c0a080782050
18303c002ebc10000018000000fe0044
474a3234803134304e57484500000000
000341211e001100000b410a202000c8

Extracted contents:
header:          00 ff ff ff ff ff ff 00
serial number:   26 cf 45 8c 00 00 00 00 01 1f
version:         01 04
basic params:    b5 1e 13 78 0e
chroma info:     de 50 a3 54 4c 99 26 0f 50 54
established:     00 00 00
standard:        01 01 01 01 01 01 01 01 01 01 01 01 01 01 01 01
descriptor 1:    8d 50 c0 a0 80 78 20 50 18 30 3c 00 2e bc 10 00 00 18
descriptor 2:    71 40 c0 a0 80 78 20 50 18 30 3c 00 2e bc 10 00 00 18
descriptor 3:    00 00 00 fe 00 44 47 4a 32 34 80 31 34 30 4e 57 48 45
descriptor 4:    00 00 00 00 00 03 41 21 1e 00 11 00 00 0b 41 0a 20 20
extensions:      00
checksum:        c8

EDID version: 1.4
Manufacturer: IVO Model 8c45 Serial Number --
Made in week 1 of 2021
Digital display
10 bits per primary color channel
DisplayPort interface
Maximum image size: 30 cm x 19 cm
Gamma: 2.20
Supported color formats: RGB 4:4:4, YCrCb 4:4:4
Default (sRGB) color space is primary color space
First detailed timing includes the native pixel format and preferred refresh rate
Display x,y Chromaticity:
  Red:   0.6396, 0.3291
  Green: 0.2998, 0.5996
  Blue:  0.1494, 0.0595
  White: 0.3125, 0.3281
Established timings supported:
Standard timings supported:
Detailed mode: Clock 206.210 MHz, 302 mm x 188 mm
               2240 2264 2312 2400 hborder 0
               1400 1403 1415 1432 vborder 0
               -hsync -vsync 
               VertFreq: 60 Hz, HorFreq: 85920 Hz
Detailed mode: Clock 164.970 MHz, 302 mm x 188 mm
               2240 2264 2312 2400 hborder 0
               1400 1403 1415 1432 vborder 0
               -hsync -vsync 
               VertFreq: 48 Hz, HorFreq: 68737 Hz
ASCII string: DGJ24
Manufacturer-specified data, tag 0
Checksum: 0xc8 (valid)
EDID block does NOT conform to EDID 1.4!
	sRGB is signaled, but the chromaticities do not match
	Missing name descriptor
	Missing monitor ranges
	Detailed block string not properly terminated
