edid-decode (hex):

00 ff ff ff ff ff ff 00 22 47 1c 32 01 01 01 01
00 13 01 03 68 46 27 78 2a 9e 2b a3 55 4a 9a 25
10 47 4a a1 08 00 01 01 01 01 01 01 01 01 01 01
01 01 01 01 01 01 66 21 50 b0 51 00 1b 30 40 70
36 00 3f 43 21 00 00 1e 00 00 00 ff 00 20 20 20
20 20 20 20 20 20 20 20 20 20 00 00 00 fd 00 38
47 1e 41 09 00 0a 20 20 20 20 20 20 00 00 00 fc
00 41 36 33 32 4e 0a 20 20 20 20 20 20 20 00 72

00 ff ff ff ff ff ff 00 22 47 1c 32 01 01 01 01
00 13 01 03 68 46 27 78 2a 9e 2b a3 55 4a 9a 25
10 47 4a a1 08 00 01 01 01 01 01 01 01 01 01 01
01 01 01 01 01 01 66 21 50 b0 51 00 1b 30 40 70
36 00 3f 43 21 00 00 1e 00 00 00 ff 00 20 20 20
20 20 20 20 20 20 20 20 20 20 00 00 00 fd 00 38
47 1e 41 09 00 0a 20 20 20 20 20 20 00 00 00 fc
00 41 36 33 32 4e 0a 20 20 20 20 20 20 20 00 72

----------------

Block 0, Base EDID:
  EDID Structure Version & Revision: 1.3
  Vendor & Product Identification:
    Manufacturer: HRG
    Model: 12828
    Serial Number: ...
    Made in: 2009
  Basic Display Parameters & Features:
    Analog display
    Signal Level Standard: 0.700 : 0.000 : 0.700 V p-p
    Blank level equals black level
    Sync: Separate
    Maximum image size: 70 cm x 39 cm
    Gamma: 2.20
    DPMS levels: Off
    RGB color display
    First detailed timing is the preferred timing
  Color Characteristics:
    Red  : 0.6386, 0.3330
    Green: 0.2919, 0.6035
    Blue : 0.1445, 0.0644
    White: 0.2792, 0.2919
  Established Timings I & II:
    IBM     :   720x400    70.081663 Hz   9:5     31.467 kHz     28.320000 MHz
    DMT 0x04:   640x480    59.940476 Hz   4:3     31.469 kHz     25.175000 MHz
    DMT 0x09:   800x600    60.316541 Hz   4:3     37.879 kHz     40.000000 MHz
    DMT 0x10:  1024x768    60.003840 Hz   4:3     48.363 kHz     65.000000 MHz
  Standard Timings: none
  Detailed Timing Descriptors:
    DTD 1:  1360x768    60.015162 Hz  85:48    47.712 kHz     85.500000 MHz (575 mm x 323 mm)
                 Hfront   64 Hsync 112 Hback  256 Hpol P
                 Vfront    3 Vsync   6 Vback   18 Vpol P
    Display Product Serial Number: ...
    Display Range Limits:
      Monitor ranges (GTF): 56-71 Hz V, 30-65 kHz H, max dotclock 90 MHz
    Display Product Name: 'A632N'
Checksum: 0x72

----------------

Block 1, Unknown EDID Extension Block 0x00:
  00 ff ff ff ff ff ff 00 22 47 1c 32 01 01 01 01 '........"G.2....'
  00 13 01 03 68 46 27 78 2a 9e 2b a3 55 4a 9a 25 '....hF'x*.+.UJ.%'
  10 47 4a a1 08 00 01 01 01 01 01 01 01 01 01 01 '.GJ.............'
  01 01 01 01 01 01 66 21 50 b0 51 00 1b 30 40 70 '......f!P.Q..0@p'
  36 00 3f 43 21 00 00 1e 00 00 00 ff 00 20 20 20 '6.?C!........   '
  20 20 20 20 20 20 20 20 20 20 00 00 00 fd 00 38 '          .....8'
  47 1e 41 09 00 0a 20 20 20 20 20 20 00 00 00 fc 'G.A...      ....'
  00 41 36 33 32 4e 0a 20 20 20 20 20 20 20 00 72 '.A632N.       .r'
Checksum: 0x72

----------------

Failures:

Block 0, Base EDID:
  Detailed Timing Descriptor #1: Mismatch of image size 575x323 mm vs display size 700x390 mm.
  Display Product Serial Number: ...
Block 1, Base EDID:
  Unknown Extension Block.
EDID:
  Base EDID: EDID specified 0 extension block(s), but found 1 extension block(s).

EDID conformity: FAIL
