edid-decode (hex):

00 ff ff ff ff ff ff 00 41 0c 18 e0 b5 39 02 00
28 0d 01 03 68 24 1b be ee bb b8 a3 52 46 98 24
0f 48 4c ff ff 80 31 59 45 59 61 59 81 99 a9 4f
d1 40 01 01 01 01 1a 4f 40 30 62 b0 32 40 40 c0
13 00 68 0e 11 00 00 1e 00 00 00 ff 00 20 42 5a
20 20 31 34 35 38 34 35 0a 20 00 00 00 fc 00 50
48 49 4c 49 50 53 20 31 30 39 42 35 00 00 00 fd
00 32 a0 1e 61 18 00 0a 20 20 20 20 20 20 00 c6

00 ff ff ff ff ff ff 00 41 0c 18 e0 b5 39 02 00
28 0d 01 03 68 24 1b be ee bb b8 a3 52 46 98 24
0f 48 4c ff ff 80 31 59 45 59 61 59 81 99 a9 4f
d1 40 01 01 01 01 1a 4f 40 30 62 b0 32 40 40 c0
13 00 68 0e 11 00 00 1e 00 00 00 ff 00 20 42 5a
20 20 31 34 35 38 34 35 0a 20 00 00 00 fc 00 50
48 49 4c 49 50 53 20 31 30 39 42 35 00 00 00 fd
00 32 a0 1e 61 18 00 0a 20 20 20 20 20 20 00 c6

----------------

Block 0, Base EDID:
  EDID Structure Version & Revision: 1.3
  Vendor & Product Identification:
    Manufacturer: PHL
    Model: 57368
    Serial Number: ...
    Made in: week 40 of 2003
  Basic Display Parameters & Features:
    Analog display
    Signal Level Standard: 0.700 : 0.000 : 0.700 V p-p
    Blank level equals black level
    Sync: Separate
    Maximum image size: 36 cm x 27 cm
    Gamma: 2.90
    DPMS levels: Standby Suspend Off
    RGB color display
    Default (sRGB) color space is primary color space
    First detailed timing is the preferred timing
  Color Characteristics:
    Red  : 0.6386, 0.3232
    Green: 0.2753, 0.5966
    Blue : 0.1425, 0.0615
    White: 0.2832, 0.2968
  Established Timings I & II:
    IBM     :   720x400    70.081663 Hz   9:5     31.467 kHz     28.320000 MHz
    IBM     :   720x400    87.849542 Hz   9:5     39.444 kHz     35.500000 MHz
    DMT 0x04:   640x480    59.940476 Hz   4:3     31.469 kHz     25.175000 MHz
    Apple   :   640x480    66.666667 Hz   4:3     35.000 kHz     30.240000 MHz
    DMT 0x05:   640x480    72.808802 Hz   4:3     37.861 kHz     31.500000 MHz
    DMT 0x06:   640x480    75.000000 Hz   4:3     37.500 kHz     31.500000 MHz
    DMT 0x08:   800x600    56.250000 Hz   4:3     35.156 kHz     36.000000 MHz
    DMT 0x09:   800x600    60.316541 Hz   4:3     37.879 kHz     40.000000 MHz
    DMT 0x0a:   800x600    72.187572 Hz   4:3     48.077 kHz     50.000000 MHz
    DMT 0x0b:   800x600    75.000000 Hz   4:3     46.875 kHz     49.500000 MHz
    Apple   :   832x624    74.551266 Hz   4:3     49.726 kHz     57.284000 MHz
    DMT 0x0f:  1024x768i   86.957532 Hz   4:3     35.522 kHz     44.900000 MHz
    DMT 0x10:  1024x768    60.003840 Hz   4:3     48.363 kHz     65.000000 MHz
    DMT 0x11:  1024x768    70.069359 Hz   4:3     56.476 kHz     75.000000 MHz
    DMT 0x12:  1024x768    75.028582 Hz   4:3     60.023 kHz     78.750000 MHz
    DMT 0x24:  1280x1024   75.024675 Hz   5:4     79.976 kHz    135.000000 MHz
    Apple   :  1152x870    75.061550 Hz 192:145   68.681 kHz    100.000000 MHz
  Standard Timings:
    DMT 0x07:   640x480    85.008312 Hz   4:3     43.269 kHz     36.000000 MHz
    DMT 0x0c:   800x600    85.061274 Hz   4:3     53.674 kHz     56.250000 MHz
    DMT 0x13:  1024x768    84.996690 Hz   4:3     68.677 kHz     94.500000 MHz
    DMT 0x25:  1280x1024   85.024098 Hz   5:4     91.146 kHz    157.500000 MHz
    DMT 0x36:  1600x1200   75.000000 Hz   4:3     93.750 kHz    202.500000 MHz
    DMT 0x49:  1920x1440   60.000000 Hz   4:3     90.000 kHz    234.000000 MHz
  Detailed Timing Descriptors:
    DTD 1:  1600x1200   75.000000 Hz   4:3     93.750 kHz    202.500000 MHz (360 mm x 270 mm)
                 Hfront   64 Hsync 192 Hback  304 Hpol P
                 Vfront    1 Vsync   3 Vback   46 Vpol P
    Display Product Serial Number: ...
    Display Product Name: 'PHILIPS 109B5'
    Display Range Limits:
      Monitor ranges (GTF): 50-160 Hz V, 30-97 kHz H, max dotclock 240 MHz
Checksum: 0xc6

----------------

Block 1, Unknown EDID Extension Block 0x00:
  00 ff ff ff ff ff ff 00 41 0c 18 e0 b5 39 02 00 '........A....9..'
  28 0d 01 03 68 24 1b be ee bb b8 a3 52 46 98 24 '(...h$......RF.$'
  0f 48 4c ff ff 80 31 59 45 59 61 59 81 99 a9 4f '.HL...1YEYaY...O'
  d1 40 01 01 01 01 1a 4f 40 30 62 b0 32 40 40 c0 '.@.....O@0b.2@@.'
  13 00 68 0e 11 00 00 1e 00 00 00 ff 00 20 42 5a '..h.......... BZ'
  20 20 31 34 35 38 34 35 0a 20 00 00 00 fc 00 50 '  145845. .....P'
  48 49 4c 49 50 53 20 31 30 39 42 35 00 00 00 fd 'HILIPS 109B5....'
  00 32 a0 1e 61 18 00 0a 20 20 20 20 20 20 00 c6 '.2..a...      ..'
Checksum: 0xc6

----------------

Warnings:

Block 0, Base EDID:
  Basic Display Parameters & Features: sRGB is signaled, but the gamma != 2.2.

Failures:

Block 0, Base EDID:
  Basic Display Parameters & Features: sRGB is signaled, but the chromaticities do not match.
Block 1, Base EDID:
  Unknown Extension Block.
EDID:
  Base EDID: EDID specified 0 extension block(s), but found 1 extension block(s).

EDID conformity: FAIL
