
EDID (hex):
00ffffffffffff0006af2c1000000000
00150104901d10780215859758538a26
25505400000001010101010101010101
010101010101261b5664500016303020
360025a4100000180000000f00000000
00000000000000000020000000fe0041
554f0a202020202020202020000000fe
004231333358544630312e30200a0069

Extracted contents:
header:          00 ff ff ff ff ff ff 00
serial number:   06 af 2c 10 00 00 00 00 00 15
version:         01 04
basic params:    90 1d 10 78 02
chroma info:     15 85 97 58 53 8a 26 25 50 54
established:     00 00 00
standard:        01 01 01 01 01 01 01 01 01 01 01 01 01 01 01 01
descriptor 1:    26 1b 56 64 50 00 16 30 30 20 36 00 25 a4 10 00 00 18
descriptor 2:    00 00 00 0f 00 00 00 00 00 00 00 00 00 00 00 00 00 20
descriptor 3:    00 00 00 fe 00 41 55 4f 0a 20 20 20 20 20 20 20 20 20
descriptor 4:    00 00 00 fe 00 42 31 33 33 58 54 46 30 31 2e 30 20 0a
extensions:      00
checksum:        69

EDID version: 1.4
Manufacturer: AUO Model 102c Serial Number --
Made in year 2011
Digital display
6 bits per primary color channel
Digital interface is not defined
Maximum image size: 29 cm x 16 cm
Gamma: 2.20
Supported color formats: RGB 4:4:4
First detailed timing includes the native pixel format and preferred refresh rate
Display x,y Chromaticity:
  Red:   0.5898, 0.3447
  Green: 0.3251, 0.5400
  Blue:  0.1503, 0.1445
  White: 0.3134, 0.3291
Established timings supported:
Standard timings supported:
Detailed mode: Clock 69.500 MHz, 293 mm x 164 mm
               1366 1414 1446 1466 hborder 0
                768  771  777  790 vborder 0
               -hsync -vsync 
               VertFreq: 60 Hz, HorFreq: 47407 Hz
Manufacturer-specified data, tag 15
ASCII string: AUO
ASCII string: B133XTF01.0 
Checksum: 0x69 (valid)
EDID block does NOT conform to EDID 1.4!
	Missing name descriptor
	Missing monitor ranges
