edid-decode (hex):

00 ff ff ff ff ff ff 00 06 af 2c 10 00 00 00 00
01 12 01 03 80 1d 10 78 0a f9 d5 95 55 54 93 27
21 50 54 00 00 00 01 01 01 01 01 01 01 01 01 01
01 01 01 01 01 01 12 1b 56 5a 50 00 19 30 30 20
36 00 25 a4 10 00 00 18 12 1b 56 4a 51 00 fc 30
30 20 36 00 25 a4 10 00 00 20 00 00 00 fe 00 41
55 4f 0a 20 20 20 20 20 20 20 20 20 00 00 00 fe
00 42 31 33 33 58 57 30 31 20 56 30 20 0a 00 ba

----------------

Block 0, Base EDID:
  EDID Structure Version & Revision: 1.3
  Vendor & Product Identification:
    Manufacturer: AUO
    Model: 4140
    Made in: week 1 of 2008
  Basic Display Parameters & Features:
    Digital display
    Maximum image size: 29 cm x 16 cm
    Gamma: 2.20
    RGB color display
    First detailed timing is the preferred timing
  Color Characteristics:
    Red  : 0.5849, 0.3349
    Green: 0.3300, 0.5751
    Blue : 0.1552, 0.1298
    White: 0.3134, 0.3291
  Established Timings I & II: none
  Standard Timings: none
  Detailed Timing Descriptors:
    DTD 1:  1366x768    60.020 Hz 683:384  47.596 kHz  69.300 MHz (293 mm x 164 mm)
                 Hfront   48 Hsync  32 Hback  10 Hpol N
                 Vfront    3 Vsync   6 Vback  16 Vpol N
    DTD 2:  1366x768    40.060 Hz 683:384  40.861 kHz  69.300 MHz (analog composite, sync-on-green, field sequential L/R, 293 mm x 164 mm)
                 Hfront   48 Hsync  32 Hback 250 Hpol N
                 Vfront    3 Vsync   6 Vback 243 Vpol N
    Alphanumeric Data String: 'AUO'
    Alphanumeric Data String: 'B133XW01 V0 '
Checksum: 0xba

----------------

Failures:

Block 0, Base EDID:
  Alphanumeric Data String: One or more trailing spaces.
  Missing Display Product Name.
  Missing Display Range Limits Descriptor.

EDID conformity: FAIL
