
EDID (hex):
00ffffffffffff0009e5019007062120
2d1f010380090f78aab065a656539d28
0c505400000001010101010101010101
010101010101fa3cb058408064702018
c80c5e970000001e963738a840804470
280880015e970000001eba2c1aa04090
2860400884015e970000001e00000010
00000000000000000000000000000187
02031030d05020002e50200aa00171b5
9a29842230a03a500a1136005e970000
001e551d20a030002e50200aa0015e97
0000001eda1bd08c200028504008a001
5e970000001e9e16008c30003840300a
a8015e970000001e531158a420c01830
4408c4005e970000001e000000000000
000000000000000000000000000000b9

Extracted contents:
header:          00 ff ff ff ff ff ff 00
serial number:   09 e5 01 90 07 06 21 20 2d 1f
version:         01 03
basic params:    80 09 0f 78 aa
chroma info:     b0 65 a6 56 53 9d 28 0c 50 54
established:     00 00 00
standard:        01 01 01 01 01 01 01 01 01 01 01 01 01 01 01 01
descriptor 1:    fa 3c b0 58 40 80 64 70 20 18 c8 0c 5e 97 00 00 00 1e
descriptor 2:    96 37 38 a8 40 80 44 70 28 08 80 01 5e 97 00 00 00 1e
descriptor 3:    ba 2c 1a a0 40 90 28 60 40 08 84 01 5e 97 00 00 00 1e
descriptor 4:    00 00 00 10 00 00 00 00 00 00 00 00 00 00 00 00 00 00
extensions:      01
checksum:        87

EDID version: 1.3
Manufacturer: BOE Model 9001 Serial Number --
Made in week 45 of 2021
Digital display
Maximum image size: 9 cm x 15 cm
Gamma: 2.20
DPMS levels: Standby Off
RGB color display
First detailed timing is preferred timing
Display x,y Chromaticity:
  Red:   0.6503, 0.3388
  Green: 0.3242, 0.6132
  Blue:  0.1572, 0.0488
  White: 0.3134, 0.3291
Established timings supported:
Standard timings supported:
Detailed mode: Clock 156.100 MHz, 94 mm x 151 mm
               1200 1232 1256 1288 hborder 0
               1920 1980 1988 2020 vborder 0
               +hsync +vsync 
               VertFreq: 59 Hz, HorFreq: 121195 Hz
Detailed mode: Clock 142.300 MHz, 94 mm x 151 mm
               1080 1120 1128 1248 hborder 0
               1920 1928 1944 1988 vborder 0
               +hsync +vsync 
               VertFreq: 57 Hz, HorFreq: 114022 Hz
Detailed mode: Clock 114.500 MHz, 94 mm x 151 mm
               1050 1114 1122 1210 hborder 0
               1680 1688 1708 1720 vborder 0
               +hsync +vsync 
               VertFreq: 55 Hz, HorFreq: 94628 Hz
Dummy block
Has 1 extension blocks
Checksum: 0x87 (valid)

CTA extension block
Extension version: 3
12 bytes of CTA data
  Unknown tag 6, length 16 (raw d0)
Supports YCbCr 4:4:4
Supports YCbCr 4:2:2
0 native detailed modes
Detailed mode: Clock 106.500 MHz, 94 mm x 151 mm
                900  910  927  934 hborder 0
               1440 1443 1449 1498 vborder 0
               +hsync +vsync 
               VertFreq: 76 Hz, HorFreq: 114025 Hz
Detailed mode: Clock 75.090 MHz, 94 mm x 151 mm
                800  832  842  960 hborder 0
               1280 1290 1306 1326 vborder 0
               +hsync +vsync 
               VertFreq: 58 Hz, HorFreq: 78218 Hz
Detailed mode: Clock 71.300 MHz, 94 mm x 151 mm
                720  784  792  860 hborder 0
               1280 1290 1306 1320 vborder 0
               +hsync +vsync 
               VertFreq: 62 Hz, HorFreq: 82906 Hz
Detailed mode: Clock 57.900 MHz, 94 mm x 151 mm
                768  816  826  908 hborder 0
               1024 1034 1058 1080 vborder 0
               +hsync +vsync 
               VertFreq: 59 Hz, HorFreq: 63766 Hz
Detailed mode: Clock 44.350 MHz, 94 mm x 151 mm
                600  668  676  764 hborder 0
                960  972  976  984 vborder 0
               +hsync +vsync 
               VertFreq: 58 Hz, HorFreq: 58049 Hz
Checksum: 0xb9 (valid)

EDID block does NOT conform to EDID 1.3!
	Required 640x480p60 timings are missing in the established timings
	and/or in the SVD list (VIC 1)
	Missing name descriptor
	Missing monitor ranges
