
EDID (hex):
00ffffffffffff0006af9a7f00000000
001f0104a51e1378030f95ae5243b026
0f505400000001010101010101010101
010101010101188840a0b0086c703020
35002dbc10000018e06c40a0b0086c70
302035002dbc10000018000000fd0030
3c727222010a202020202020000000fe
004231343051414e30342e52200a0046

edid-decode (hex):

00 ff ff ff ff ff ff 00 06 af 9a 7f 00 00 00 00
00 1f 01 04 a5 1e 13 78 03 0f 95 ae 52 43 b0 26
0f 50 54 00 00 00 01 01 01 01 01 01 01 01 01 01
01 01 01 01 01 01 18 88 40 a0 b0 08 6c 70 30 20
35 00 2d bc 10 00 00 18 e0 6c 40 a0 b0 08 6c 70
30 20 35 00 2d bc 10 00 00 18 00 00 00 fd 00 30
3c 72 72 22 01 0a 20 20 20 20 20 20 00 00 00 fe
00 42 31 34 30 51 41 4e 30 34 2e 52 20 0a 00 46

----------------

Block 0, Base EDID:
  EDID Structure Version & Revision: 1.4
  Vendor & Product Identification:
    Manufacturer: AUO
    Model: 32666
    Made in: 2021
  Basic Display Parameters & Features:
    Digital display
    Bits per primary color channel: 8
    DisplayPort interface
    Maximum image size: 30 cm x 19 cm
    Gamma: 2.20
    Supported color formats: RGB 4:4:4
    First detailed timing includes the native pixel format and preferred refresh rate
    Display is continuous frequency
  Color Characteristics:
    Red  : 0.6796, 0.3203
    Green: 0.2646, 0.6904
    Blue : 0.1503, 0.0595
    White: 0.3134, 0.3291
  Established Timings I & II: none
  Standard Timings: none
  Detailed Timing Descriptors:
    DTD 1:  2880x1800   60.065652 Hz  16:10   114.605 kHz    348.400000 MHz (301 mm x 188 mm)
                 Hfront   48 Hsync  32 Hback   80 Hpol N
                 Vfront    3 Vsync   5 Vback  100 Vpol N
    DTD 2:  2880x1800   48.052521 Hz  16:10    91.684 kHz    278.720000 MHz (301 mm x 188 mm)
                 Hfront   48 Hsync  32 Hback   80 Hpol N
                 Vfront    3 Vsync   5 Vback  100 Vpol N
    Display Range Limits:
      Monitor ranges (Bare Limits): 48-60 Hz V, 114-114 kHz H, max dotclock 340 MHz
    Alphanumeric Data String: 'B140QAN04.R '
Checksum: 0x46
