
EDID (hex):
00ffffffffffff004e83000803000000
231b010380110d14ec041280574a8012
4f484f254000314a454a014101410141
01410141014156132000315819201050
1300aa7f0000001e000000fd00314c1e
3205000a202020202020000000fc0053
494e4149204456495f0a2020000000fc
003830302a3630300a202020202000e8

Extracted contents:
header:          00 ff ff ff ff ff ff 00
serial number:   4e 83 00 08 03 00 00 00 23 1b
version:         01 03
basic params:    80 11 0d 14 ec
chroma info:     04 12 80 57 4a 80 12 4f 48 4f
established:     25 40 00
standard:        31 4a 45 4a 01 41 01 41 01 41 01 41 01 41 01 41
descriptor 1:    56 13 20 00 31 58 19 20 10 50 13 00 aa 7f 00 00 00 1e
descriptor 2:    00 00 00 fd 00 31 4c 1e 32 05 00 0a 20 20 20 20 20 20
descriptor 3:    00 00 00 fc 00 53 49 4e 41 49 20 44 56 49 5f 0a 20 20
descriptor 4:    00 00 00 fc 00 38 30 30 2a 36 30 30 0a 20 20 20 20 20
extensions:      00
checksum:        e8

EDID version: 1.3
Manufacturer: STC Model 800 Serial Number --
Made in week 35 of 2017
Digital display
Maximum image size: 17 cm x 13 cm
Gamma: 1.20
DPMS levels: Standby Suspend Off
RGB color display
Default (sRGB) color space is primary color space
Display x,y Chromaticity:
  Red:   0.5000, 0.3398
  Green: 0.2900, 0.5000
  Blue:  0.0703, 0.3095
  White: 0.2812, 0.3105
Established timings supported:
  640x480@60Hz 4:3 HorFreq: 31469 Hz Clock: 25.175 MHz
  640x480@75Hz 4:3 HorFreq: 37500 Hz Clock: 31.500 MHz
  800x600@60Hz 4:3 HorFreq: 37900 Hz Clock: 40.000 MHz
  800x600@75Hz 4:3 HorFreq: 46900 Hz Clock: 49.500 MHz
Standard timings supported:
  640x480@70Hz 4:3
  800x600@70Hz 4:3
  256x192@61Hz 4:3
  256x192@61Hz 4:3
  256x192@61Hz 4:3
  256x192@61Hz 4:3
  256x192@61Hz 4:3
  256x192@61Hz 4:3
Detailed mode: Clock 49.500 MHz, 170 mm x 127 mm
                800  816  896 1056 hborder 0
                600  601  604  625 vborder 0
               +hsync +vsync 
               VertFreq: 75 Hz, HorFreq: 46875 Hz
Monitor ranges (GTF): 49-76Hz V, 30-50kHz H, max dotclock 50MHz
Monitor name: SINAI DVI_
Checksum: 0xe8 (valid)
EDID block does NOT conform to EDID 1.3!
	sRGB is signaled, but the chromaticities do not match
	Missing preferred timing
