edid-decode (hex):

00 ff ff ff ff ff ff 00 4e 83 00 08 03 00 00 00
23 1b 01 03 80 11 0d 14 ec 04 12 80 57 4a 80 12
4f 48 4f 25 40 00 31 4a 45 4a 01 41 01 41 01 41
01 41 01 41 01 41 56 13 20 00 31 58 19 20 10 50
13 00 aa 7f 00 00 00 1e 00 00 00 fd 00 31 4c 1e
32 05 00 0a 20 20 20 20 20 20 00 00 00 fc 00 53
49 4e 41 49 20 44 56 49 5f 0a 20 20 00 00 00 fc
00 38 30 30 2a 36 30 30 0a 20 20 20 20 20 00 e8

----------------

Block 0, Base EDID:
  EDID Structure Version & Revision: 1.3
  Vendor & Product Identification:
    Manufacturer: STC
    Model: 2048
    Serial Number: ...
    Made in: week 35 of 2017
  Basic Display Parameters & Features:
    Digital display
    Maximum image size: 17 cm x 13 cm
    Gamma: 1.20
    DPMS levels: Standby Suspend Off
    RGB color display
    Default (sRGB) color space is primary color space
  Color Characteristics:
    Red  : 0.5000, 0.3398
    Green: 0.2900, 0.5000
    Blue : 0.0703, 0.3095
    White: 0.2812, 0.3105
  Established Timings I & II:
    DMT 0x04:   640x480    59.940476 Hz   4:3     31.469 kHz     25.175000 MHz
    DMT 0x06:   640x480    75.000000 Hz   4:3     37.500 kHz     31.500000 MHz
    DMT 0x09:   800x600    60.316541 Hz   4:3     37.879 kHz     40.000000 MHz
    DMT 0x0b:   800x600    75.000000 Hz   4:3     46.875 kHz     49.500000 MHz
  Standard Timings:
    GTF     :   640x480    70.000000 Hz   4:3     35.000 kHz     28.560000 MHz
    GTF     :   800x600    70.000000 Hz   4:3     43.750 kHz     45.500000 MHz
  Detailed Timing Descriptors:
    DTD 1:   800x600    75.000000 Hz   4:3     46.875 kHz     49.500000 MHz (170 mm x 127 mm)
                 Hfront   16 Hsync  80 Hback  160 Hpol P
                 Vfront    1 Vsync   3 Vback   21 Vpol P
    Display Range Limits:
      Monitor ranges (GTF): 49-76 Hz V, 30-50 kHz H, max dotclock 50 MHz
    Display Product Name: 'SINAI DVI_'
    Display Product Name: '800*600'
Checksum: 0xe8

----------------

Warnings:

Block 0, Base EDID:
  Basic Display Parameters & Features: sRGB is signaled, but the gamma != 2.2.

Failures:

Block 0, Base EDID:
  Basic Display Parameters & Features: sRGB is signaled, but the chromaticities do not match.
  Basic Display Parameters & Features: EDID 1.3 requires that the first detailed timing is the preferred timing.
  Standard Timings: Use 0x0101 as the invalid Standard Timings code, not 0x0141.
  Standard Timings: Use 0x0101 as the invalid Standard Timings code, not 0x0141.
  Standard Timings: Use 0x0101 as the invalid Standard Timings code, not 0x0141.
  Standard Timings: Use 0x0101 as the invalid Standard Timings code, not 0x0141.
  Standard Timings: Use 0x0101 as the invalid Standard Timings code, not 0x0141.
  Standard Timings: Use 0x0101 as the invalid Standard Timings code, not 0x0141.

EDID conformity: FAIL
