
EDID (hex):
00ffffffffffff0026cd2b4821030000
2d10010380261e782ace50a3544c9926
0f5054bfef008180714f010101010101
010101010101302a009851002a403070
1300782d1100001e000000ff00303538
30334836423030383031000000fd0037
4c18530e000a202020202020000000fc
00504c453438310a2020202020200094

Extracted contents:
header:          00 ff ff ff ff ff ff 00
serial number:   26 cd 2b 48 21 03 00 00 2d 10
version:         01 03
basic params:    80 26 1e 78 2a
chroma info:     ce 50 a3 54 4c 99 26 0f 50 54
established:     bf ef 00
standard:        81 80 71 4f 01 01 01 01 01 01 01 01 01 01 01 01
descriptor 1:    30 2a 00 98 51 00 2a 40 30 70 13 00 78 2d 11 00 00 1e
descriptor 2:    00 00 00 ff 00 30 35 38 30 33 48 36 42 30 30 38 30 31
descriptor 3:    00 00 00 fd 00 37 4c 18 53 0e 00 0a 20 20 20 20 20 20
descriptor 4:    00 00 00 fc 00 50 4c 45 34 38 31 0a 20 20 20 20 20 20
extensions:      00
checksum:        94

EDID version: 1.3
Manufacturer: IVM Model 482b Serial Number --
Made in week 45 of 2006
Digital display
Maximum image size: 38 cm x 30 cm
Gamma: 2.20
DPMS levels: Off
RGB color display
First detailed timing is preferred timing
Display x,y Chromaticity:
  Red:   0.6396, 0.3281
  Green: 0.2998, 0.5996
  Blue:  0.1494, 0.0595
  White: 0.3125, 0.3281
Established timings supported:
  720x400@70Hz 9:5 HorFreq: 31469 Hz Clock: 28.320 MHz
  640x480@60Hz 4:3 HorFreq: 31469 Hz Clock: 25.175 MHz
  640x480@67Hz 4:3 HorFreq: 35000 Hz Clock: 30.240 MHz
  640x480@72Hz 4:3 HorFreq: 37900 Hz Clock: 31.500 MHz
  640x480@75Hz 4:3 HorFreq: 37500 Hz Clock: 31.500 MHz
  800x600@56Hz 4:3 HorFreq: 35200 Hz Clock: 36.000 MHz
  800x600@60Hz 4:3 HorFreq: 37900 Hz Clock: 40.000 MHz
  800x600@72Hz 4:3 HorFreq: 48100 Hz Clock: 50.000 MHz
  800x600@75Hz 4:3 HorFreq: 46900 Hz Clock: 49.500 MHz
  832x624@75Hz 4:3 HorFreq: 49726 Hz Clock: 57.284 MHz
  1024x768@60Hz 4:3 HorFreq: 48400 Hz Clock: 65.000 MHz
  1024x768@70Hz 4:3 HorFreq: 56500 Hz Clock: 75.000 MHz
  1024x768@75Hz 4:3 HorFreq: 60000 Hz Clock: 78.750 MHz
  1280x1024@75Hz 5:4 HorFreq: 80000 Hz Clock: 135.000 MHz
Standard timings supported:
  1280x1024@60Hz 5:4 HorFreq: 64000 Hz Clock: 108.000 MHz
  1152x864@75Hz 4:3 HorFreq: 67500 Hz Clock: 108.000 MHz
Detailed mode: Clock 108.000 MHz, 376 mm x 301 mm
               1280 1328 1440 1688 hborder 0
               1024 1025 1028 1066 vborder 0
               +hsync +vsync 
               VertFreq: 60 Hz, HorFreq: 63981 Hz
Serial number: --
Monitor ranges (GTF): 55-76Hz V, 24-83kHz H, max dotclock 140MHz
Monitor name: PLE481
Checksum: 0x94 (valid)
