
EDID (hex):
00ffffffffffff00593a790001010101
1b1601031f4628788ae69da3544a9926
0f474aa5ce0001010101010101010101
010101010101662150b051001b304070
3600bc902100001e0000000000000000
00000000000000000000000000fd002f
4d2b3510000a202020202020000000fc
004533323241520a2020202020200010

Extracted contents:
header:          00 ff ff ff ff ff ff 00
serial number:   59 3a 79 00 01 01 01 01 1b 16
version:         01 03
basic params:    1f 46 28 78 8a
chroma info:     e6 9d a3 54 4a 99 26 0f 47 4a
established:     a5 ce 00
standard:        01 01 01 01 01 01 01 01 01 01 01 01 01 01 01 01
descriptor 1:    66 21 50 b0 51 00 1b 30 40 70 36 00 bc 90 21 00 00 1e
descriptor 2:    00 00 00 00 00 00 00 00 00 00 00 00 00 00 00 00 00 00
descriptor 3:    00 00 00 fd 00 2f 4d 2b 35 10 00 0a 20 20 20 20 20 20
descriptor 4:    00 00 00 fc 00 45 33 32 32 41 52 0a 20 20 20 20 20 20
extensions:      00
checksum:        10

EDID version: 1.3
Manufacturer: VIZ Model 79 Serial Number --
Made in week 27 of 2012
Analog display, Input voltage level: 0.7/0.3 V
Configurable signal levels
Sync: Separate Composite SyncOnGreen Serration 
Maximum image size: 70 cm x 40 cm
Gamma: 2.20
DPMS levels: Standby
RGB color display
First detailed timing is preferred timing
Display x,y Chromaticity:
  Red:   0.6396, 0.3300
  Green: 0.2900, 0.5996
  Blue:  0.1503, 0.0595
  White: 0.2802, 0.2900
Established timings supported:
  720x400@70Hz 9:5 HorFreq: 31469 Hz Clock: 28.320 MHz
  640x480@60Hz 4:3 HorFreq: 31469 Hz Clock: 25.175 MHz
  640x480@75Hz 4:3 HorFreq: 37500 Hz Clock: 31.500 MHz
  800x600@60Hz 4:3 HorFreq: 37900 Hz Clock: 40.000 MHz
  800x600@72Hz 4:3 HorFreq: 48100 Hz Clock: 50.000 MHz
  800x600@75Hz 4:3 HorFreq: 46900 Hz Clock: 49.500 MHz
  1024x768@60Hz 4:3 HorFreq: 48400 Hz Clock: 65.000 MHz
  1024x768@70Hz 4:3 HorFreq: 56500 Hz Clock: 75.000 MHz
  1024x768@75Hz 4:3 HorFreq: 60000 Hz Clock: 78.750 MHz
Standard timings supported:
Detailed mode: Clock 85.500 MHz, 700 mm x 400 mm
               1360 1424 1536 1792 hborder 0
                768  771  777  795 vborder 0
               +hsync +vsync 
               VertFreq: 60 Hz, HorFreq: 47712 Hz
Manufacturer-specified data, tag 0
Monitor ranges (GTF): 47-77Hz V, 43-53kHz H, max dotclock 160MHz
Monitor name: E322AR
Checksum: 0x10 (valid)
One or more of the timings is out of range of the Monitor Ranges:
  Vertical Freq: 60 - 75 Hz
  Horizontal Freq: 31469 - 60000 Hz
  Maximum Clock: 85.500 MHz
