edid-decode (hex):

00 ff ff ff ff ff ff 00 0e 43 19 60 cc 63 05 00
23 14 01 03 80 26 1e 78 8a c6 05 a3 57 4a 9d 25
12 50 54 21 08 00 81 80 01 01 01 01 01 01 01 01
01 01 01 01 01 01 c6 2a 00 b6 51 00 26 40 2c 9c
33 00 78 2d 11 00 00 18 00 00 00 fc 00 44 53 43
20 31 39 30 37 2d 44 0a 20 20 00 00 00 00 00 00
00 00 00 00 00 00 00 00 00 00 00 00 00 00 00 fd
00 31 3d 1f 55 0e 00 0a 20 20 20 20 20 20 00 e9

00 ff ff ff ff ff ff 00 0e 43 19 60 cc 63 05 00
23 14 01 03 80 26 1e 78 8a c6 05 a3 57 4a 9d 25
12 50 54 21 08 00 81 80 01 01 01 01 01 01 01 01
01 01 01 01 01 01 c6 2a 00 b6 51 00 26 40 2c 9c
33 00 78 2d 11 00 00 18 00 00 00 fc 00 44 53 43
20 31 39 30 37 2d 44 0a 20 20 00 00 00 00 00 00
00 00 00 00 00 00 00 00 00 00 00 00 00 00 00 fd
00 31 3d 1f 55 0e 00 0a 20 20 20 20 20 20 00 e9

----------------

Block 0, Base EDID:
  EDID Structure Version & Revision: 1.3
  Vendor & Product Identification:
    Manufacturer: CRC
    Model: 24601
    Serial Number: ...
    Made in: week 35 of 2010
  Basic Display Parameters & Features:
    Digital display
    Maximum image size: 38 cm x 30 cm
    Gamma: 2.20
    DPMS levels: Standby
    RGB color display
    First detailed timing is the preferred timing
  Color Characteristics:
    Red  : 0.6396, 0.3398
    Green: 0.2900, 0.6152
    Blue : 0.1445, 0.0703
    White: 0.3134, 0.3291
  Established Timings I & II:
    DMT 0x04:   640x480    59.940476 Hz   4:3     31.469 kHz     25.175000 MHz
    DMT 0x09:   800x600    60.316541 Hz   4:3     37.879 kHz     40.000000 MHz
    DMT 0x10:  1024x768    60.003840 Hz   4:3     48.363 kHz     65.000000 MHz
  Standard Timings:
    DMT 0x23:  1280x1024   60.019740 Hz   5:4     63.981 kHz    108.000000 MHz
  Detailed Timing Descriptors:
    DTD 1:  1280x1024   60.015917 Hz   5:4     63.737 kHz    109.500000 MHz (376 mm x 301 mm)
                 Hfront   44 Hsync 156 Hback  238 Hpol N
                 Vfront    3 Vsync   3 Vback   32 Vpol N
    Display Product Name: 'DSC 1907-D'
    Empty Descriptor
    Display Range Limits:
      Monitor ranges (GTF): 49-61 Hz V, 31-85 kHz H, max dotclock 140 MHz
Checksum: 0xe9

----------------

Block 1, Unknown EDID Extension Block 0x00:
  00 ff ff ff ff ff ff 00 0e 43 19 60 cc 63 05 00 '.........C.`.c..'
  23 14 01 03 80 26 1e 78 8a c6 05 a3 57 4a 9d 25 '#....&.x....WJ.%'
  12 50 54 21 08 00 81 80 01 01 01 01 01 01 01 01 '.PT!............'
  01 01 01 01 01 01 c6 2a 00 b6 51 00 26 40 2c 9c '.......*..Q.&@,.'
  33 00 78 2d 11 00 00 18 00 00 00 fc 00 44 53 43 '3.x-.........DSC'
  20 31 39 30 37 2d 44 0a 20 20 00 00 00 00 00 00 ' 1907-D.  ......'
  00 00 00 00 00 00 00 00 00 00 00 00 00 00 00 fd '................'
  00 31 3d 1f 55 0e 00 0a 20 20 20 20 20 20 00 e9 '.1=.U...      ..'
Checksum: 0xe9

----------------

Failures:

Block 0, Base EDID:
  Empty Descriptor: Use Dummy Descriptor instead of all zeroes.
Block 1, Base EDID:
  Unknown Extension Block.
EDID:
  Base EDID: EDID specified 0 extension block(s), but found 1 extension block(s).

EDID conformity: FAIL
