edid-decode (hex):

00 ff ff ff ff ff ff 00 30 ae 30 51 01 00 00 00
33 18 01 03 80 33 1d 78 0a eb f5 a6 56 51 9c 26
10 50 54 00 00 00 01 01 01 01 01 01 01 01 01 01
01 01 01 01 01 01 fe 33 80 54 70 38 1b 40 20 1c
84 00 fd 1e 11 00 00 1e 00 00 00 fc 00 4c 45 4e
2d 43 35 31 33 30 2d 42 20 20 00 00 00 fd 00 3b
3d 1e 44 0f 00 0a 20 20 20 20 20 20 00 00 00 ff
00 4c 54 4d 32 33 30 48 4c 30 38 0a 20 20 00 06

----------------

Block 0, Base EDID:
  EDID Structure Version & Revision: 1.3
  Vendor & Product Identification:
    Manufacturer: LEN
    Model: 20784
    Serial Number: ...
    Made in: week 51 of 2014
  Basic Display Parameters & Features:
    Digital display
    Maximum image size: 51 cm x 29 cm
    Gamma: 2.20
    RGB color display
    First detailed timing is the preferred timing
  Color Characteristics:
    Red  : 0.6513, 0.3378
    Green: 0.3183, 0.6123
    Blue : 0.1513, 0.0654
    White: 0.3134, 0.3291
  Established Timings I & II: none
  Standard Timings: none
  Detailed Timing Descriptors:
    DTD 1:  1920x1080   59.997440 Hz  16:9     66.417 kHz    133.100000 MHz (509 mm x 286 mm)
                 Hfront   32 Hsync  28 Hback   24 Hpol P
                 Vfront    8 Vsync   4 Vback   15 Vpol P
    Display Product Name: 'LEN-C5130-B  '
    Display Range Limits:
      Monitor ranges (GTF): 59-61 Hz V, 30-68 kHz H, max dotclock 150 MHz
    Display Product Serial Number: ...
Checksum: 0x06

----------------

Failures:

Block 0, Base EDID:
  Display Product Name: One or more trailing spaces.

EDID conformity: FAIL
