edid-decode (hex):

00 ff ff ff ff ff ff 00 30 ae 30 51 01 00 00 00
01 19 01 04 a5 33 1d 78 1b 25 65 a3 54 4f a0 27
ab 50 54 00 00 00 01 01 01 01 01 01 01 01 01 01
01 01 01 01 01 01 1a 38 80 00 71 38 14 40 60 40
84 00 fd 1e 11 00 00 1e 00 00 00 fc 00 4c 45 4e
2d 43 35 31 33 30 2d 42 0a 20 00 00 00 fd 00 39
3e 1e 5a 14 00 0a 20 20 20 20 20 20 00 00 00 ff
00 4c 4d 32 33 30 57 46 33 2d 53 4c 51 34 00 07

00 ff ff ff ff ff ff 00 30 ae 30 51 01 00 00 00
01 19 01 04 a5 33 1d 78 1b 25 65 a3 54 4f a0 27
ab 50 54 00 00 00 01 01 01 01 01 01 01 01 01 01
01 01 01 01 01 01 1a 38 80 00 71 38 14 40 60 40
84 00 fd 1e 11 00 00 1e 00 00 00 fc 00 4c 45 4e
2d 43 35 31 33 30 2d 42 0a 20 00 00 00 fd 00 39
3e 1e 5a 14 00 0a 20 20 20 20 20 20 00 00 00 ff
00 4c 4d 32 33 30 57 46 33 2d 53 4c 51 34 00 07

----------------

Block 0, Base EDID:
  EDID Structure Version & Revision: 1.4
  Vendor & Product Identification:
    Manufacturer: LEN
    Model: 20784
    Serial Number: ...
    Made in: week 1 of 2015
  Basic Display Parameters & Features:
    Digital display
    Bits per primary color channel: 8
    DisplayPort interface
    Maximum image size: 51 cm x 29 cm
    Gamma: 2.20
    Supported color formats: RGB 4:4:4, YCrCb 4:4:4, YCrCb 4:2:2
    First detailed timing includes the native pixel format and preferred refresh rate
    Display is continuous frequency
  Color Characteristics:
    Red  : 0.6367, 0.3300
    Green: 0.3095, 0.6259
    Blue : 0.1533, 0.6699
    White: 0.3134, 0.3291
  Established Timings I & II: none
  Standard Timings: none
  Detailed Timing Descriptors:
    DTD 1:  1920x1080   60.001671 Hz  16:9     66.002 kHz    143.620000 MHz (509 mm x 286 mm)
                 Hfront   96 Hsync  64 Hback   96 Hpol P
                 Vfront    8 Vsync   4 Vback    8 Vpol P
    Display Product Name: 'LEN-C5130-B'
    Display Range Limits:
      Monitor ranges (GTF): 57-62 Hz V, 30-90 kHz H, max dotclock 200 MHz
    Display Product Serial Number: ...
Checksum: 0x07

----------------

Block 1, Unknown EDID Extension Block 0x00:
  00 ff ff ff ff ff ff 00 30 ae 30 51 01 00 00 00 '........0.0Q....'
  01 19 01 04 a5 33 1d 78 1b 25 65 a3 54 4f a0 27 '.....3.x.%e.TO.''
  ab 50 54 00 00 00 01 01 01 01 01 01 01 01 01 01 '.PT.............'
  01 01 01 01 01 01 1a 38 80 00 71 38 14 40 60 40 '.......8..q8.@`@'
  84 00 fd 1e 11 00 00 1e 00 00 00 fc 00 4c 45 4e '.............LEN'
  2d 43 35 31 33 30 2d 42 0a 20 00 00 00 fd 00 39 '-C5130-B. .....9'
  3e 1e 5a 14 00 0a 20 20 20 20 20 20 00 00 00 ff '>.Z...      ....'
  00 4c 4d 32 33 30 57 46 33 2d 53 4c 51 34 00 07 '.LM230WF3-SLQ4..'
Checksum: 0x07

----------------

Warnings:

Block 0, Base EDID:
  Display Range Limits: GTF support is deprecated in EDID 1.4.

Failures:

Block 1, Base EDID:
  Unknown Extension Block.
EDID:
  Base EDID: EDID specified 0 extension block(s), but found 1 extension block(s).

EDID conformity: FAIL
