
EDID (hex):
00ffffffffffff0006af9b4f00000000
001f0104a51e13780344c5a85547a124
0e505400000001010101010101010101
010101010101006900a0a0402e603020
35002dbc1000001a005400a0a0402e60
302035002dbc1000001a000000fe0058
364e524d804231343051414e00000000
00024101b2011100000a410a202000c8

Extracted contents:
header:          00 ff ff ff ff ff ff 00
serial number:   06 af 9b 4f 00 00 00 00 00 1f
version:         01 04
basic params:    a5 1e 13 78 03
chroma info:     44 c5 a8 55 47 a1 24 0e 50 54
established:     00 00 00
standard:        01 01 01 01 01 01 01 01 01 01 01 01 01 01 01 01
descriptor 1:    00 69 00 a0 a0 40 2e 60 30 20 35 00 2d bc 10 00 00 1a
descriptor 2:    00 54 00 a0 a0 40 2e 60 30 20 35 00 2d bc 10 00 00 1a
descriptor 3:    00 00 00 fe 00 58 36 4e 52 4d 80 42 31 34 30 51 41 4e
descriptor 4:    00 00 00 00 00 02 41 01 b2 01 11 00 00 0a 41 0a 20 20
extensions:      00
checksum:        c8

EDID version: 1.4
Manufacturer: AUO Model 4f9b Serial Number --
Made in year 2021
Digital display
8 bits per primary color channel
DisplayPort interface
Maximum image size: 30 cm x 19 cm
Gamma: 2.20
Supported color formats: RGB 4:4:4
First detailed timing includes the native pixel format and preferred refresh rate
Display is continuous frequency
Display x,y Chromaticity:
  Red:   0.6572, 0.3320
  Green: 0.2783, 0.6289
  Blue:  0.1435, 0.0546
  White: 0.3134, 0.3291
Established timings supported:
Standard timings supported:
Detailed mode: Clock 268.800 MHz, 301 mm x 188 mm
               2560 2608 2640 2720 hborder 0
               1600 1603 1608 1646 vborder 0
               +hsync -vsync 
               VertFreq: 60 Hz, HorFreq: 98823 Hz
Detailed mode: Clock 215.040 MHz, 301 mm x 188 mm
               2560 2608 2640 2720 hborder 0
               1600 1603 1608 1646 vborder 0
               +hsync -vsync 
               VertFreq: 48 Hz, HorFreq: 79058 Hz
ASCII string: X6NRM
Manufacturer-specified data, tag 0
Checksum: 0xc8 (valid)
EDID block does NOT conform to EDID 1.4!
	Missing name descriptor
	Missing monitor ranges
	Detailed block string not properly terminated
