edid-decode (hex):

00 ff ff ff ff ff ff 00 0e 6f 15 16 00 00 00 00
00 1f 01 04 b5 22 16 78 03 22 a0 a4 54 4d 99 26
0f 50 54 00 00 00 01 01 01 01 01 01 01 01 01 01
01 01 01 01 01 01 ff d7 00 a0 a0 40 5e 60 30 20
36 00 58 d7 10 00 00 18 ff 6b 00 a0 a0 40 5e 60
30 20 36 00 58 d7 10 00 00 18 00 00 00 fd 00 30
78 cc cc 38 01 0a 20 20 20 20 20 20 00 00 00 fe
00 4d 4e 47 30 30 37 44 41 31 2d 4a 0a 20 00 c5

----------------

Block 0, Base EDID:
  EDID Structure Version & Revision: 1.4
  Vendor & Product Identification:
    Manufacturer: CSO
    Model: 5653
    Made in: 2021
  Basic Display Parameters & Features:
    Digital display
    Bits per primary color channel: 10
    DisplayPort interface
    Maximum image size: 34 cm x 22 cm
    Gamma: 2.20
    Supported color formats: RGB 4:4:4
    First detailed timing includes the native pixel format and preferred refresh rate
    Display is continuous frequency
  Color Characteristics:
    Red  : 0.6406, 0.3300
    Green: 0.3007, 0.5996
    Blue : 0.1503, 0.0605
    White: 0.3125, 0.3281
  Established Timings I & II: none
  Standard Timings: none
  Detailed Timing Descriptors:
    DTD 1:  2560x1600  120.006164 Hz   8:5    203.290 kHz    552.950000 MHz (344 mm x 215 mm)
                 Hfront   48 Hsync  32 Hback   80 Hpol N
                 Vfront    3 Vsync   6 Vback   85 Vpol N
    DTD 2:  2560x1600   60.001997 Hz   8:5    101.643 kHz    276.470000 MHz (344 mm x 215 mm)
                 Hfront   48 Hsync  32 Hback   80 Hpol N
                 Vfront    3 Vsync   6 Vback   85 Vpol N
    Display Range Limits:
      Monitor ranges (Bare Limits): 48-120 Hz V, 204-204 kHz H, max dotclock 560 MHz
    Alphanumeric Data String: 'MNG007DA1-J'
Checksum: 0xc5

----------------

Warnings:

EDID:
  Base EDID: Some timings are out of range of the Monitor Ranges:
    Horizontal Freq: 101.643 - 203.290 kHz (Monitor: 204.000 - 204.000 kHz)

Failures:

Block 0, Base EDID:
  Missing Display Product Name.

EDID conformity: FAIL
