edid-decode (hex):

00 ff ff ff ff ff ff 00 41 2f 00 00 01 01 01 01
00 17 01 03 80 3d 23 78 2a a0 81 a2 57 50 a3 28
10 50 54 bf e0 00 81 c0 01 01 01 01 01 01 01 01
01 01 01 01 01 01 01 1d 00 72 51 d0 1e 20 6e 28
55 00 5f 59 21 00 00 1e 01 1d 00 bc 52 d0 1e 20
b8 28 55 40 5f 59 21 00 00 1e 00 00 00 fd 00 32
4b 1e 32 08 00 0a 20 20 20 20 20 20 00 00 00 fc
00 53 43 2d 31 32 32 33 0a 20 20 20 20 20 01 d9

02 03 2d f1 44 84 13 03 12 38 09 7f 07 0f 7f 07
15 07 50 3e 1e c0 4d 02 00 57 06 00 5f 7e 01 67
7e 00 83 4f 00 00 66 03 0c 00 16 00 80 8c 0a d0
8a 20 e0 2d 10 10 3e 96 00 5f 59 21 00 00 18 8c
0a d0 90 20 40 31 20 0c 40 55 00 5f 59 21 00 00
18 a0 0f 20 00 31 58 1c 20 28 80 14 00 5f 59 21
00 00 1e 50 30 20 35 00 60 59 21 00 00 1a 00 00
00 00 00 00 00 00 00 00 00 00 00 00 00 00 00 72

00 ff ff ff ff ff ff 00 41 2f 00 00 01 01 01 01
00 17 01 03 80 3d 23 78 2a a0 81 a2 57 50 a3 28
10 50 54 bf e0 00 81 c0 01 01 01 01 01 01 01 01
01 01 01 01 01 01 01 1d 00 72 51 d0 1e 20 6e 28
55 00 5f 59 21 00 00 1e 01 1d 00 bc 52 d0 1e 20
b8 28 55 40 5f 59 21 00 00 1e 00 00 00 fd 00 32
4b 1e 32 08 00 0a 20 20 20 20 20 20 00 00 00 fc
00 53 43 2d 31 32 32 33 0a 20 20 20 20 20 01 d9

02 03 2d f1 44 84 13 03 12 38 09 7f 07 0f 7f 07
15 07 50 3e 1e c0 4d 02 00 57 06 00 5f 7e 01 67
7e 00 83 4f 00 00 66 03 0c 00 16 00 80 8c 0a d0
8a 20 e0 2d 10 10 3e 96 00 5f 59 21 00 00 18 8c
0a d0 90 20 40 31 20 0c 40 55 00 5f 59 21 00 00
18 a0 0f 20 00 31 58 1c 20 28 80 14 00 5f 59 21
00 00 1e 50 30 20 35 00 60 59 21 00 00 1a 00 00
00 00 00 00 00 00 00 00 00 00 00 00 00 00 00 72

----------------

Block 0, Base EDID:
  EDID Structure Version & Revision: 1.3
  Vendor & Product Identification:
    Manufacturer: PIO
    Model: 0
    Serial Number: ...
    Made in: 2013
  Basic Display Parameters & Features:
    Digital display
    Maximum image size: 61 cm x 35 cm
    Gamma: 2.20
    DPMS levels: Off
    RGB color display
    First detailed timing is the preferred timing
  Color Characteristics:
    Red  : 0.6347, 0.3417
    Green: 0.3125, 0.6367
    Blue : 0.1582, 0.0625
    White: 0.3125, 0.3291
  Established Timings I & II:
    IBM     :   720x400    70.081663 Hz   9:5     31.467 kHz     28.320000 MHz
    DMT 0x04:   640x480    59.940476 Hz   4:3     31.469 kHz     25.175000 MHz
    Apple   :   640x480    66.666667 Hz   4:3     35.000 kHz     30.240000 MHz
    DMT 0x05:   640x480    72.808802 Hz   4:3     37.861 kHz     31.500000 MHz
    DMT 0x06:   640x480    75.000000 Hz   4:3     37.500 kHz     31.500000 MHz
    DMT 0x08:   800x600    56.250000 Hz   4:3     35.156 kHz     36.000000 MHz
    DMT 0x09:   800x600    60.316541 Hz   4:3     37.879 kHz     40.000000 MHz
    DMT 0x0a:   800x600    72.187572 Hz   4:3     48.077 kHz     50.000000 MHz
    DMT 0x0b:   800x600    75.000000 Hz   4:3     46.875 kHz     49.500000 MHz
    Apple   :   832x624    74.551266 Hz   4:3     49.726 kHz     57.284000 MHz
  Standard Timings:
    DMT 0x55:  1280x720    60.000000 Hz  16:9     45.000 kHz     74.250000 MHz
  Detailed Timing Descriptors:
    DTD  1:  1280x720    60.000000 Hz  16:9     45.000 kHz     74.250000 MHz (607 mm x 345 mm)
                  Hfront  110 Hsync  40 Hback  220 Hpol P
                  Vfront    5 Vsync   5 Vback   20 Vpol P
    DTD  2:  1280x720    50.000000 Hz  16:9     37.500 kHz     74.250000 MHz (607 mm x 345 mm)
                  Hfront  440 Hsync  40 Hback  220 Hpol P
                  Vfront    5 Vsync   5 Vback   20 Vpol P
    Display Range Limits:
      Monitor ranges (GTF): 50-75 Hz V, 30-50 kHz H, max dotclock 80 MHz
    Display Product Name: 'SC-1223'
  Extension blocks: 1
Checksum: 0xd9

----------------

Block 1, CTA-861 Extension Block:
  Revision: 3
  Underscans IT Video Formats by default
  Basic audio support
  Supports YCbCr 4:4:4
  Supports YCbCr 4:2:2
  Native detailed modes: 1
  Video Data Block:
    VIC   4:  1280x720    60.000000 Hz  16:9     45.000 kHz     74.250000 MHz (native)
    VIC  19:  1280x720    50.000000 Hz  16:9     37.500 kHz     74.250000 MHz
    VIC   3:   720x480    59.940060 Hz  16:9     31.469 kHz     27.000000 MHz
    VIC  18:   720x576    50.000000 Hz  16:9     31.250 kHz     27.000000 MHz
  Audio Data Block:
    Linear PCM:
      Max channels: 2
      Supported sample rates (kHz): 192 176.4 96 88.2 48 44.1 32
      Supported sample sizes (bits): 24 20 16
    Linear PCM:
      Max channels: 8
      Supported sample rates (kHz): 192 176.4 96 88.2 48 44.1 32
      Supported sample sizes (bits): 24 20 16
    AC-3:
      Max channels: 6
      Supported sample rates (kHz): 48 44.1 32
      Maximum bit rate: 640 kb/s
    DTS:
      Max channels: 7
      Supported sample rates (kHz): 96 88.2 48 44.1
      Maximum bit rate: 1536 kb/s
    One Bit Audio:
      Max channels: 6
      Supported sample rates (kHz): 44.1
      Audio Format Code dependent value: 0x00
    Enhanced AC-3 (DD+):
      Max channels: 8
      Supported sample rates (kHz): 48 44.1
    DTS-HD:
      Max channels: 8
      Supported sample rates (kHz): 192 176.4 96 88.2 48 44.1
      Audio Format Code dependent value: 0x01
    MAT (MLP):
      Max channels: 8
      Supported sample rates (kHz): 192 176.4 96 88.2 48 44.1
      Supports only Dolby TrueHD
  Speaker Allocation Data Block:
    FL/FR - Front Left/Right
    LFE1 - Low Frequency Effects 1
    FC - Front Center
    BL/BR - Back Left/Right
    RLC/RRC - Rear Left/Right of Center (Deprecated)
  Vendor-Specific Data Block (HDMI), OUI 00-0C-03:
    Source physical address: 1.6.0.0
    Supports_AI
  Detailed Timing Descriptors:
    DTD  3:   720x480    59.940060 Hz   3:2     31.469 kHz     27.000000 MHz (607 mm x 345 mm)
                  Hfront   16 Hsync  62 Hback   60 Hpol N
                  Vfront    9 Vsync   6 Vback   30 Vpol N
    DTD  4:   720x576    50.000000 Hz   5:4     31.250 kHz     27.000000 MHz (607 mm x 345 mm)
                  Hfront   12 Hsync  64 Hback   68 Hpol N
                  Vfront    5 Vsync   5 Vback   39 Vpol N
    DTD  5:   800x600    60.316541 Hz   4:3     37.879 kHz     40.000000 MHz (607 mm x 345 mm)
                  Hfront   40 Hsync 128 Hback   88 Hpol P
                  Vfront    1 Vsync   4 Vback   23 Vpol P
    DTD  6:    32x608   1526.819332 Hz   1:19  1455.059 kHz    123.680000 MHz (analog composite, sync-on-green)
                  Hfront    0 Hsync   0 Hback   53 Hpol N
                  Vfront    1 Vsync  10 Vback  334 Vpol N
                   50 30 20 35 00 60 59 21 00 00 1a 00 00 00 00 00 00 00 'P0 5.`Y!..........'
Checksum: 0x72  Unused space in Extension Block: 10 bytes

----------------

Block 2, Unknown EDID Extension Block 0x00:
  00 ff ff ff ff ff ff 00 41 2f 00 00 01 01 01 01 '........A/......'
  00 17 01 03 80 3d 23 78 2a a0 81 a2 57 50 a3 28 '.....=#x*...WP.('
  10 50 54 bf e0 00 81 c0 01 01 01 01 01 01 01 01 '.PT.............'
  01 01 01 01 01 01 01 1d 00 72 51 d0 1e 20 6e 28 '.........rQ.. n('
  55 00 5f 59 21 00 00 1e 01 1d 00 bc 52 d0 1e 20 'U._Y!.......R.. '
  b8 28 55 40 5f 59 21 00 00 1e 00 00 00 fd 00 32 '.(U@_Y!........2'
  4b 1e 32 08 00 0a 20 20 20 20 20 20 00 00 00 fc 'K.2...      ....'
  00 53 43 2d 31 32 32 33 0a 20 20 20 20 20 01 d9 '.SC-1223.     ..'
Checksum: 0xd9

----------------

Block 3, CTA-861 Extension Block:
  Revision: 3
  Underscans IT Video Formats by default
  Basic audio support
  Supports YCbCr 4:4:4
  Supports YCbCr 4:2:2
  Native detailed modes: 1
  Video Data Block:
    VIC   4:  1280x720    60.000000 Hz  16:9     45.000 kHz     74.250000 MHz (native)
    VIC  19:  1280x720    50.000000 Hz  16:9     37.500 kHz     74.250000 MHz
    VIC   3:   720x480    59.940060 Hz  16:9     31.469 kHz     27.000000 MHz
    VIC  18:   720x576    50.000000 Hz  16:9     31.250 kHz     27.000000 MHz
  Audio Data Block:
    Linear PCM:
      Max channels: 2
      Supported sample rates (kHz): 192 176.4 96 88.2 48 44.1 32
      Supported sample sizes (bits): 24 20 16
    Linear PCM:
      Max channels: 8
      Supported sample rates (kHz): 192 176.4 96 88.2 48 44.1 32
      Supported sample sizes (bits): 24 20 16
    AC-3:
      Max channels: 6
      Supported sample rates (kHz): 48 44.1 32
      Maximum bit rate: 640 kb/s
    DTS:
      Max channels: 7
      Supported sample rates (kHz): 96 88.2 48 44.1
      Maximum bit rate: 1536 kb/s
    One Bit Audio:
      Max channels: 6
      Supported sample rates (kHz): 44.1
      Audio Format Code dependent value: 0x00
    Enhanced AC-3 (DD+):
      Max channels: 8
      Supported sample rates (kHz): 48 44.1
    DTS-HD:
      Max channels: 8
      Supported sample rates (kHz): 192 176.4 96 88.2 48 44.1
      Audio Format Code dependent value: 0x01
    MAT (MLP):
      Max channels: 8
      Supported sample rates (kHz): 192 176.4 96 88.2 48 44.1
      Supports only Dolby TrueHD
  Speaker Allocation Data Block:
    FL/FR - Front Left/Right
    LFE1 - Low Frequency Effects 1
    FC - Front Center
    BL/BR - Back Left/Right
    RLC/RRC - Rear Left/Right of Center (Deprecated)
  Vendor-Specific Data Block (HDMI), OUI 00-0C-03:
    Source physical address: 1.6.0.0
    Supports_AI
  Detailed Timing Descriptors:
    DTD  7:   720x480    59.940060 Hz   3:2     31.469 kHz     27.000000 MHz (607 mm x 345 mm)
                  Hfront   16 Hsync  62 Hback   60 Hpol N
                  Vfront    9 Vsync   6 Vback   30 Vpol N
    DTD  8:   720x576    50.000000 Hz   5:4     31.250 kHz     27.000000 MHz (607 mm x 345 mm)
                  Hfront   12 Hsync  64 Hback   68 Hpol N
                  Vfront    5 Vsync   5 Vback   39 Vpol N
    DTD  9:   800x600    60.316541 Hz   4:3     37.879 kHz     40.000000 MHz (607 mm x 345 mm)
                  Hfront   40 Hsync 128 Hback   88 Hpol P
                  Vfront    1 Vsync   4 Vback   23 Vpol P
    DTD 10:    32x608   1526.819332 Hz   1:19  1455.059 kHz    123.680000 MHz (analog composite, sync-on-green)
                  Hfront    0 Hsync   0 Hback   53 Hpol N
                  Vfront    1 Vsync  10 Vback  334 Vpol N
                   50 30 20 35 00 60 59 21 00 00 1a 00 00 00 00 00 00 00 'P0 5.`Y!..........'
Checksum: 0x72  Unused space in Extension Block: 10 bytes

----------------

Warnings:

Block 1, CTA-861 Extension Block:
  Add a Colorimetry Data Block with the sRGB colorimetry bit set to avoid interop issues.
Block 3, CTA-861 Extension Block:
  Add a Colorimetry Data Block with the sRGB colorimetry bit set to avoid interop issues.
EDID:
  CTA-861: Multiple native progressive timings are defined.

Failures:

Block 1, CTA-861 Extension Block:
  Detailed Timing Descriptor #6: 0 values in the video timing:
    Horizontal Active/Blanking 32/53
    Horizontal Frontporch/Sync Width 0/0
    Vertical Active/Blanking 608/345
    Vertical Frontporch/Sync Width 1/10
  Detailed Timing Descriptor #6: 0 or negative horizontal front porch.
  Detailed Timing Descriptor #6: Mismatch of image size vs display size: image size is not set, but display size is.
  Missing VCDB, needed for Set Selectable RGB Quantization to avoid interop issues.
Block 2, Base EDID:
  Unknown Extension Block.
Block 3, CTA-861 Extension Block:
  Video Data Block: Duplicate VIC 4.
  Video Data Block: Duplicate VIC 19.
  Video Data Block: Duplicate VIC 3.
  Video Data Block: Duplicate VIC 18.
  Speaker Allocation Data Block: Only one instance of this Data Block is allowed.
  Detailed Timing Descriptor #10: 0 values in the video timing:
    Horizontal Active/Blanking 32/53
    Horizontal Frontporch/Sync Width 0/0
    Vertical Active/Blanking 608/345
    Vertical Frontporch/Sync Width 1/10
  Detailed Timing Descriptor #10: 0 or negative horizontal front porch.
  Detailed Timing Descriptor #10: Mismatch of image size vs display size: image size is not set, but display size is.
  Missing VCDB, needed for Set Selectable RGB Quantization to avoid interop issues.
EDID:
  Base EDID: Some timings are out of range of the Monitor Ranges:
    Vertical Freq: 50.000 - 1526.819 Hz (Monitor: 50.000 - 75.000 Hz)
    Horizontal Freq: 31.250 - 1455.058 kHz (Monitor: 30.000 - 50.000 kHz)
    Maximum Clock: 123.680 MHz (Monitor: 80.000 MHz)
  Base EDID: EDID specified 1 extension block(s), but found 3 extension block(s).
  Base EDID: EDID 1.3 requires a Block Map Extension in Block 1 if there are more than 2 blocks in the EDID.

EDID conformity: FAIL
