
EDID (hex):
00ffffffffffff0005e38015031f0000
28110103682216782a9c5d99584c9326
214c5423080081c00101010101010101
010101010101bc1b00a0502017303020
360058de1000001a000000ff00333236
37394441303037393339000000fd0037
3c1e3f08000a202020202020000000fc
0035313156770a2020202020202000f6

Extracted contents:
header:          00 ff ff ff ff ff ff 00
serial number:   05 e3 80 15 03 1f 00 00 28 11
version:         01 03
basic params:    68 22 16 78 2a
chroma info:     9c 5d 99 58 4c 93 26 21 4c 54
established:     23 08 00
standard:        81 c0 01 01 01 01 01 01 01 01 01 01 01 01 01 01
descriptor 1:    bc 1b 00 a0 50 20 17 30 30 20 36 00 58 de 10 00 00 1a
descriptor 2:    00 00 00 ff 00 33 32 36 37 39 44 41 30 30 37 39 33 39
descriptor 3:    00 00 00 fd 00 37 3c 1e 3f 08 00 0a 20 20 20 20 20 20
descriptor 4:    00 00 00 fc 00 35 31 31 56 77 0a 20 20 20 20 20 20 20
extensions:      00
checksum:        f6

EDID version: 1.3
Manufacturer: AOC Model 1580 Serial Number --
Made in week 40 of 2007
Analog display, Input voltage level: 0.7/0.7 V
Sync: Separate 
Maximum image size: 34 cm x 22 cm
Gamma: 2.20
DPMS levels: Off
RGB color display
First detailed timing is preferred timing
Display x,y Chromaticity:
  Red:   0.5996, 0.3447
  Green: 0.2998, 0.5742
  Blue:  0.1494, 0.1298
  White: 0.2998, 0.3291
Established timings supported:
  640x480@60Hz 4:3 HorFreq: 31469 Hz Clock: 25.175 MHz
  800x600@56Hz 4:3 HorFreq: 35200 Hz Clock: 36.000 MHz
  800x600@60Hz 4:3 HorFreq: 37900 Hz Clock: 40.000 MHz
  1024x768@60Hz 4:3 HorFreq: 48400 Hz Clock: 65.000 MHz
Standard timings supported:
  1280x720@60Hz 16:9
Detailed mode: Clock 71.000 MHz, 344 mm x 222 mm
               1280 1328 1360 1440 hborder 0
                800  803  809  823 vborder 0
               +hsync -vsync 
               VertFreq: 59 Hz, HorFreq: 49305 Hz
Serial number: --
Monitor ranges (GTF): 55-60Hz V, 30-63kHz H, max dotclock 80MHz
Monitor name: 511Vw
Checksum: 0xf6 (valid)
