edid-decode (hex):

00 ff ff ff ff ff ff 00 4d d9 00 92 01 01 01 01
12 10 01 03 08 59 32 78 2b d9 ad a3 55 46 98 24
10 47 4a a1 08 00 81 c0 01 01 01 01 01 01 01 01
01 01 01 01 01 01 66 21 50 b0 51 00 1b 30 40 70
36 00 75 f2 31 00 00 1e 0e 1f 00 80 51 00 1e 30
40 80 37 00 75 f2 31 00 00 1c 00 00 00 fd 00 39
3f 1d 31 09 00 0a 20 20 20 20 20 20 00 00 00 fc
00 4b 4c 56 2d 34 30 55 31 30 30 4d 0a 20 00 b2

00 ff ff ff ff ff ff 00 4d d9 00 92 01 01 01 01
12 10 01 03 08 59 32 78 2b d9 ad a3 55 46 98 24
10 47 4a a1 08 00 81 c0 01 01 01 01 01 01 01 01
01 01 01 01 01 01 66 21 50 b0 51 00 1b 30 40 70
36 00 75 f2 31 00 00 1e 0e 1f 00 80 51 00 1e 30
40 80 37 00 75 f2 31 00 00 1c 00 00 00 fd 00 39
3f 1d 31 09 00 0a 20 20 20 20 20 20 00 00 00 fc
00 4b 4c 56 2d 34 30 55 31 30 30 4d 0a 20 00 b2

----------------

Block 0, Base EDID:
  EDID Structure Version & Revision: 1.3
  Vendor & Product Identification:
    Manufacturer: SNY
    Model: 37376
    Serial Number: ...
    Made in: week 18 of 2006
  Basic Display Parameters & Features:
    Analog display
    Signal Level Standard: 0.700 : 0.300 : 1.000 V p-p
    Blank level equals black level
    Sync: Separate
    Maximum image size: 89 cm x 50 cm
    Gamma: 2.20
    DPMS levels: Off
    RGB color display
    First detailed timing is the preferred timing
    Supports GTF timings within operating range
  Color Characteristics:
    Red  : 0.6396, 0.3330
    Green: 0.2753, 0.5947
    Blue : 0.1425, 0.0644
    White: 0.2802, 0.2900
  Established Timings I & II:
    IBM     :   720x400    70.081663 Hz   9:5     31.467 kHz     28.320000 MHz
    DMT 0x04:   640x480    59.940476 Hz   4:3     31.469 kHz     25.175000 MHz
    DMT 0x09:   800x600    60.316541 Hz   4:3     37.879 kHz     40.000000 MHz
    DMT 0x10:  1024x768    60.003840 Hz   4:3     48.363 kHz     65.000000 MHz
  Standard Timings:
    DMT 0x55:  1280x720    60.000000 Hz  16:9     45.000 kHz     74.250000 MHz
  Detailed Timing Descriptors:
    DTD 1:  1360x768    60.015162 Hz  85:48    47.712 kHz     85.500000 MHz (885 mm x 498 mm)
                 Hfront   64 Hsync 112 Hback  256 Hpol P
                 Vfront    3 Vsync   6 Vback   18 Vpol P
    DTD 2:  1280x768    59.870228 Hz   5:3     47.776 kHz     79.500000 MHz (885 mm x 498 mm)
                 Hfront   64 Hsync 128 Hback  192 Hpol N
                 Vfront    3 Vsync   7 Vback   20 Vpol P
    Display Range Limits:
      Monitor ranges (GTF): 57-63 Hz V, 29-49 kHz H, max dotclock 90 MHz
    Display Product Name: 'KLV-40U100M'
Checksum: 0xb2

----------------

Block 1, Unknown EDID Extension Block 0x00:
  00 ff ff ff ff ff ff 00 4d d9 00 92 01 01 01 01 '........M.......'
  12 10 01 03 08 59 32 78 2b d9 ad a3 55 46 98 24 '.....Y2x+...UF.$'
  10 47 4a a1 08 00 81 c0 01 01 01 01 01 01 01 01 '.GJ.............'
  01 01 01 01 01 01 66 21 50 b0 51 00 1b 30 40 70 '......f!P.Q..0@p'
  36 00 75 f2 31 00 00 1e 0e 1f 00 80 51 00 1e 30 '6.u.1.......Q..0'
  40 80 37 00 75 f2 31 00 00 1c 00 00 00 fd 00 39 '@.7.u.1........9'
  3f 1d 31 09 00 0a 20 20 20 20 20 20 00 00 00 fc '?.1...      ....'
  00 4b 4c 56 2d 34 30 55 31 30 30 4d 0a 20 00 b2 '.KLV-40U100M. ..'
Checksum: 0xb2

----------------

Failures:

Block 1, Base EDID:
  Unknown Extension Block.
EDID:
  Base EDID: Some timings are out of range of the Monitor Ranges:
    Vertical Freq: 59.870 - 70.082 Hz (Monitor: 57.000 - 63.000 Hz)
  Base EDID: EDID specified 0 extension block(s), but found 1 extension block(s).

EDID conformity: FAIL
