
EDID (hex):
00ffffffffffff001ab38c0701010101
07130103682517782a3a959c564e9726
185054a548008180950f010101010101
0101010101019a29a0d0518422305098
36006fe61000001c000000fd00384c1f
510e000a202020202020000000fc0058
3137572d310a202020202020000000ff
005945394d3130343932300a2020007e

Extracted contents:
header:          00 ff ff ff ff ff ff 00
serial number:   1a b3 8c 07 01 01 01 01 07 13
version:         01 03
basic params:    68 25 17 78 2a
chroma info:     3a 95 9c 56 4e 97 26 18 50 54
established:     a5 48 00
standard:        81 80 95 0f 01 01 01 01 01 01 01 01 01 01 01 01
descriptor 1:    9a 29 a0 d0 51 84 22 30 50 98 36 00 6f e6 10 00 00 1c
descriptor 2:    00 00 00 fd 00 38 4c 1f 51 0e 00 0a 20 20 20 20 20 20
descriptor 3:    00 00 00 fc 00 58 31 37 57 2d 31 0a 20 20 20 20 20 20
descriptor 4:    00 00 00 ff 00 59 45 39 4d 31 30 34 39 32 30 0a 20 20
extensions:      00
checksum:        7e

EDID version: 1.3
Manufacturer: FUS Model 78c Serial Number --
Made in week 7 of 2009
Analog display, Input voltage level: 0.7/0.7 V
Sync: Separate 
Maximum image size: 37 cm x 23 cm
Gamma: 2.20
DPMS levels: Off
RGB color display
First detailed timing is preferred timing
Display x,y Chromaticity:
  Red:   0.6093, 0.3388
  Green: 0.3066, 0.5917
  Blue:  0.1503, 0.0947
  White: 0.3134, 0.3291
Established timings supported:
  720x400@70Hz 9:5 HorFreq: 31469 Hz Clock: 28.320 MHz
  640x480@60Hz 4:3 HorFreq: 31469 Hz Clock: 25.175 MHz
  640x480@75Hz 4:3 HorFreq: 37500 Hz Clock: 31.500 MHz
  800x600@60Hz 4:3 HorFreq: 37900 Hz Clock: 40.000 MHz
  800x600@75Hz 4:3 HorFreq: 46900 Hz Clock: 49.500 MHz
  1024x768@60Hz 4:3 HorFreq: 48400 Hz Clock: 65.000 MHz
Standard timings supported:
  1280x1024@60Hz 5:4 HorFreq: 64000 Hz Clock: 108.000 MHz
  1440x900@75Hz 16:10 HorFreq: 82300 Hz Clock: 156.000 MHz
Detailed mode: Clock 106.500 MHz, 367 mm x 230 mm
               1440 1520 1672 1904 hborder 0
                900  903  909  934 vborder 0
               -hsync +vsync 
               VertFreq: 59 Hz, HorFreq: 55934 Hz
Monitor ranges (GTF): 56-76Hz V, 31-81kHz H, max dotclock 140MHz
Monitor name: X17W-1
Serial number: --
Checksum: 0x7e (valid)
One or more of the timings is out of range of the Monitor Ranges:
  Vertical Freq: 59 - 75 Hz
  Horizontal Freq: 31469 - 82300 Hz
  Maximum Clock: 156.000 MHz
