edid-decode (hex):

00 ff ff ff ff ff ff 00 25 b0 73 19 a7 01 00 00
2d 11 01 03 80 26 1e 78 ea cc 15 a5 57 49 9b 25
12 50 54 bf ef 80 71 4f 81 40 01 01 01 01 01 01
01 01 01 01 01 01 30 2a 00 98 51 00 2a 40 30 70
13 00 78 2d 11 00 00 1e 00 00 00 fc 00 2a 31 39
31 2a 0a 20 20 20 20 20 20 20 00 00 00 fd 00 38
4b 1a 53 0e 00 0a 20 20 20 20 20 20 00 00 00 ff
00 37 34 35 30 30 34 32 33 0a 20 20 20 20 00 4e

00 ff ff ff ff ff ff 00 25 b0 73 19 a7 01 00 00
2d 11 01 03 80 26 1e 78 ea cc 15 a5 57 49 9b 25
12 50 54 bf ef 80 71 4f 81 40 01 01 01 01 01 01
01 01 01 01 01 01 30 2a 00 98 51 00 2a 40 30 70
13 00 78 2d 11 00 00 1e 00 00 00 fc 00 2a 31 39
31 2a 0a 20 20 20 20 20 20 20 00 00 00 fd 00 38
4b 1a 53 0e 00 0a 20 20 20 20 20 20 00 00 00 ff
00 37 34 35 30 30 34 32 33 0a 20 20 20 20 00 4e

----------------

Block 0, Base EDID:
  EDID Structure Version & Revision: 1.3
  Vendor & Product Identification:
    Manufacturer: IMP
    Model: 6515
    Serial Number: ...
    Made in: week 45 of 2007
  Basic Display Parameters & Features:
    Digital display
    Maximum image size: 38 cm x 30 cm
    Gamma: 2.20
    DPMS levels: Standby Suspend Off
    RGB color display
    First detailed timing is the preferred timing
  Color Characteristics:
    Red  : 0.6474, 0.3398
    Green: 0.2880, 0.6054
    Blue : 0.1445, 0.0712
    White: 0.3134, 0.3291
  Established Timings I & II:
    IBM     :   720x400    70.081663 Hz   9:5     31.467 kHz     28.320000 MHz
    DMT 0x04:   640x480    59.940476 Hz   4:3     31.469 kHz     25.175000 MHz
    Apple   :   640x480    66.666667 Hz   4:3     35.000 kHz     30.240000 MHz
    DMT 0x05:   640x480    72.808802 Hz   4:3     37.861 kHz     31.500000 MHz
    DMT 0x06:   640x480    75.000000 Hz   4:3     37.500 kHz     31.500000 MHz
    DMT 0x08:   800x600    56.250000 Hz   4:3     35.156 kHz     36.000000 MHz
    DMT 0x09:   800x600    60.316541 Hz   4:3     37.879 kHz     40.000000 MHz
    DMT 0x0a:   800x600    72.187572 Hz   4:3     48.077 kHz     50.000000 MHz
    DMT 0x0b:   800x600    75.000000 Hz   4:3     46.875 kHz     49.500000 MHz
    Apple   :   832x624    74.551266 Hz   4:3     49.726 kHz     57.284000 MHz
    DMT 0x10:  1024x768    60.003840 Hz   4:3     48.363 kHz     65.000000 MHz
    DMT 0x11:  1024x768    70.069359 Hz   4:3     56.476 kHz     75.000000 MHz
    DMT 0x12:  1024x768    75.028582 Hz   4:3     60.023 kHz     78.750000 MHz
    DMT 0x24:  1280x1024   75.024675 Hz   5:4     79.976 kHz    135.000000 MHz
    Apple   :  1152x870    75.061550 Hz 192:145   68.681 kHz    100.000000 MHz
  Standard Timings:
    DMT 0x15:  1152x864    75.000000 Hz   4:3     67.500 kHz    108.000000 MHz
    DMT 0x20:  1280x960    60.000000 Hz   4:3     60.000 kHz    108.000000 MHz
  Detailed Timing Descriptors:
    DTD 1:  1280x1024   60.019740 Hz   5:4     63.981 kHz    108.000000 MHz (376 mm x 301 mm)
                 Hfront   48 Hsync 112 Hback  248 Hpol P
                 Vfront    1 Vsync   3 Vback   38 Vpol P
    Display Product Name: '*191*'
    Display Range Limits:
      Monitor ranges (GTF): 56-75 Hz V, 26-83 kHz H, max dotclock 140 MHz
    Display Product Serial Number: ...
Checksum: 0x4e

----------------

Block 1, Unknown EDID Extension Block 0x00:
  00 ff ff ff ff ff ff 00 25 b0 73 19 a7 01 00 00 '........%.s.....'
  2d 11 01 03 80 26 1e 78 ea cc 15 a5 57 49 9b 25 '-....&.x....WI.%'
  12 50 54 bf ef 80 71 4f 81 40 01 01 01 01 01 01 '.PT...qO.@......'
  01 01 01 01 01 01 30 2a 00 98 51 00 2a 40 30 70 '......0*..Q.*@0p'
  13 00 78 2d 11 00 00 1e 00 00 00 fc 00 2a 31 39 '..x-.........*19'
  31 2a 0a 20 20 20 20 20 20 20 00 00 00 fd 00 38 '1*.       .....8'
  4b 1a 53 0e 00 0a 20 20 20 20 20 20 00 00 00 ff 'K.S...      ....'
  00 37 34 35 30 30 34 32 33 0a 20 20 20 20 00 4e '.74500423.    .N'
Checksum: 0x4e

----------------

Failures:

Block 1, Base EDID:
  Unknown Extension Block.
EDID:
  Base EDID: EDID specified 0 extension block(s), but found 1 extension block(s).

EDID conformity: FAIL
