
EDID (hex):
00ffffffffffff0030e4060200000000
0013010380160d780ad3859559568e28
20505400000001010101010101010101
010101010101061800b8415864203020
3600e07e0000001b0000000000000000
00000000000000000000000000fe0046
30353054813130315753410a00000000
00000000000000000001010a20200015

Extracted contents:
header:          00 ff ff ff ff ff ff 00
serial number:   30 e4 06 02 00 00 00 00 00 13
version:         01 03
basic params:    80 16 0d 78 0a
chroma info:     d3 85 95 59 56 8e 28 20 50 54
established:     00 00 00
standard:        01 01 01 01 01 01 01 01 01 01 01 01 01 01 01 01
descriptor 1:    06 18 00 b8 41 58 64 20 30 20 36 00 e0 7e 00 00 00 1b
descriptor 2:    00 00 00 00 00 00 00 00 00 00 00 00 00 00 00 00 00 00
descriptor 3:    00 00 00 fe 00 46 30 35 30 54 81 31 30 31 57 53 41 0a
descriptor 4:    00 00 00 00 00 00 00 00 00 00 00 00 00 01 01 0a 20 20
extensions:      00
checksum:        15

EDID version: 1.3
Manufacturer: LGD Model 206 Serial Number --
Made in year 2009
Digital display
Maximum image size: 22 cm x 13 cm
Gamma: 2.20
RGB color display
First detailed timing is preferred timing
Display x,y Chromaticity:
  Red:   0.5849, 0.3486
  Green: 0.3359, 0.5576
  Blue:  0.1582, 0.1250
  White: 0.3134, 0.3291
Established timings supported:
Standard timings supported:
Detailed mode: Clock 61.500 MHz, 224 mm x 126 mm
               1024 1072 1104 1464 hborder 0
                600  603  609  700 vborder 0
               +hsync -vsync 
               VertFreq: 60 Hz, HorFreq: 42008 Hz
Manufacturer-specified data, tag 0
ASCII string: F050T
Manufacturer-specified data, tag 0
Checksum: 0x15 (valid)
EDID block does NOT conform to EDID 1.3!
	Missing name descriptor
	Missing monitor ranges
	Detailed block string not properly terminated
