
EDID (hex):
00ffffffffffff0021f4333401000000
141e0103800000780a0dc9a057479827
12484c00000001010101010101010101
010101010101cc10908c10002a50460a
4a043cbf00000018c01240c810c84c50
640aca0c40c815000018000000fc0057
6176655368736172650a2020000000fd
00147801ff1d000a202020202020011e
02031a7147c646464646464623090701
8301000065030c001000c01240c810c8
4c50640aca0c40c815000018c01240c8
10c84c50640aca0c40c815000018c012
40c810c84c50640aca0c40c815000018
c01240c810c84c50640aca0c40c81500
00180000000000000000000000000000
00000000000000000000000000000067

edid-decode (hex):

00 ff ff ff ff ff ff 00 21 f4 33 34 01 00 00 00
14 1e 01 03 80 00 00 78 0a 0d c9 a0 57 47 98 27
12 48 4c 00 00 00 01 01 01 01 01 01 01 01 01 01
01 01 01 01 01 01 cc 10 90 8c 10 00 2a 50 46 0a
4a 04 3c bf 00 00 00 18 c0 12 40 c8 10 c8 4c 50
64 0a ca 0c 40 c8 15 00 00 18 00 00 00 fc 00 57
61 76 65 53 68 73 61 72 65 0a 20 20 00 00 00 fd
00 14 78 01 ff 1d 00 0a 20 20 20 20 20 20 01 1e

02 03 1a 71 47 c6 46 46 46 46 46 46 23 09 07 01
83 01 00 00 65 03 0c 00 10 00 c0 12 40 c8 10 c8
4c 50 64 0a ca 0c 40 c8 15 00 00 18 c0 12 40 c8
10 c8 4c 50 64 0a ca 0c 40 c8 15 00 00 18 c0 12
40 c8 10 c8 4c 50 64 0a ca 0c 40 c8 15 00 00 18
c0 12 40 c8 10 c8 4c 50 64 0a ca 0c 40 c8 15 00
00 18 00 00 00 00 00 00 00 00 00 00 00 00 00 00
00 00 00 00 00 00 00 00 00 00 00 00 00 00 00 67

----------------

Block 0, Base EDID:
  EDID Structure Version & Revision: 1.3
  Vendor & Product Identification:
    Manufacturer: HOT
    Model: 13363
    Serial Number: 1
    Made in: week 20 of 2020
  Basic Display Parameters & Features:
    Digital display
    Image size is variable
    Gamma: 2.20
    RGB color display
    First detailed timing is the preferred timing
  Color Characteristics:
    Red  : 0.6250, 0.3398
    Green: 0.2802, 0.5947
    Blue : 0.1552, 0.0703
    White: 0.2832, 0.2978
  Established Timings I & II: none
  Standard Timings: none
  Detailed Timing Descriptors:
    DTD 1:   400x1280   60.234213 Hz   5:16    79.630 kHz     43.000000 MHz (60 mm x 191 mm)
                 Hfront   70 Hsync  10 Hback   60 Hpol N
                 Vfront   20 Vsync  10 Vback   12 Vpol N
    DTD 2:   320x1480   59.323710 Hz   8:37    92.308 kHz     48.000000 MHz (320 mm x 1480 mm)
                 Hfront  100 Hsync  10 Hback   90 Hpol N
                 Vfront   60 Vsync  10 Vback    6 Vpol N
    Display Product Name: 'WaveShsare'
    Display Range Limits:
      Monitor ranges (GTF): 20-120 Hz V, 1-255 kHz H, max dotclock 290 MHz
  Extension blocks: 1
Checksum: 0x1e

----------------

Block 1, CTA-861 Extension Block:
  Revision: 3
  Basic audio support
  Supports YCbCr 4:4:4
  Supports YCbCr 4:2:2
  Native detailed modes: 1
  Video Data Block:
    VIC 198:  7680x4320   50.000000 Hz  16:9    220.000 kHz   2376.000000 MHz
    VIC  70:  1280x720   100.000000 Hz  64:27    75.000 kHz    148.500000 MHz
    VIC  70:  1280x720   100.000000 Hz  64:27    75.000 kHz    148.500000 MHz
    VIC  70:  1280x720   100.000000 Hz  64:27    75.000 kHz    148.500000 MHz
    VIC  70:  1280x720   100.000000 Hz  64:27    75.000 kHz    148.500000 MHz
    VIC  70:  1280x720   100.000000 Hz  64:27    75.000 kHz    148.500000 MHz
    VIC  70:  1280x720   100.000000 Hz  64:27    75.000 kHz    148.500000 MHz
  Audio Data Block:
    Linear PCM:
      Max channels: 2
      Supported sample rates (kHz): 48 44.1 32
      Supported sample sizes (bits): 16
  Speaker Allocation Data Block:
    FL/FR - Front Left/Right
  Vendor-Specific Data Block (HDMI), OUI 00-0C-03:
    Source physical address: 1.0.0.0
  Detailed Timing Descriptors:
    DTD 3:   320x1480   59.323710 Hz   8:37    92.308 kHz     48.000000 MHz (320 mm x 1480 mm)
                 Hfront  100 Hsync  10 Hback   90 Hpol N
                 Vfront   60 Vsync  10 Vback    6 Vpol N
    DTD 4:   320x1480   59.323710 Hz   8:37    92.308 kHz     48.000000 MHz (320 mm x 1480 mm)
                 Hfront  100 Hsync  10 Hback   90 Hpol N
                 Vfront   60 Vsync  10 Vback    6 Vpol N
    DTD 5:   320x1480   59.323710 Hz   8:37    92.308 kHz     48.000000 MHz (320 mm x 1480 mm)
                 Hfront  100 Hsync  10 Hback   90 Hpol N
                 Vfront   60 Vsync  10 Vback    6 Vpol N
    DTD 6:   320x1480   59.323710 Hz   8:37    92.308 kHz     48.000000 MHz (320 mm x 1480 mm)
                 Hfront  100 Hsync  10 Hback   90 Hpol N
                 Vfront   60 Vsync  10 Vback    6 Vpol N
Checksum: 0x67  Unused space in Extension Block: 29 bytes


