edid-decode (hex):

00 ff ff ff ff ff ff 00 1c 88 01 90 00 00 00 97
06 16 01 03 00 a0 5a 00 8a 0d c9 a0 57 47 98 27
12 48 4c 21 08 00 81 c0 d1 c0 81 00 95 00 b3 00
81 80 a9 40 01 01 1b 21 50 a0 51 00 1e 30 48 88
35 00 00 00 00 00 00 1c 00 00 00 00 00 00 00 00
00 00 00 00 00 00 00 00 00 00 00 00 00 fc 00 54
56 20 50 48 49 4c 43 4f 0a 20 20 20 00 00 00 fd
00 2f 3f 0f 88 10 00 0a 20 20 20 20 20 20 00 b6

00 ff ff ff ff ff ff 00 1c 88 01 90 00 00 00 97
06 16 01 03 00 a0 5a 00 8a 0d c9 a0 57 47 98 27
12 48 4c 21 08 00 81 c0 d1 c0 81 00 95 00 b3 00
81 80 a9 40 01 01 1b 21 50 a0 51 00 1e 30 48 88
35 00 00 00 00 00 00 1c 00 00 00 00 00 00 00 00
00 00 00 00 00 00 00 00 00 00 00 00 00 fc 00 54
56 20 50 48 49 4c 43 4f 0a 20 20 20 00 00 00 fd
00 2f 3f 0f 88 10 00 0a 20 20 20 20 20 20 00 b6

----------------

Block 0, Base EDID:
  EDID Structure Version & Revision: 1.3
  Vendor & Product Identification:
    Manufacturer: GDH
    Model: 36865
    Serial Number: ...
    Made in: week 6 of 2012
  Basic Display Parameters & Features:
    Analog display
    Signal Level Standard: 0.700 : 0.300 : 1.000 V p-p
    Blank level equals black level
    Maximum image size: 160 cm x 90 cm
    Gamma: 1.00
    DPMS levels: Standby
    RGB color display
    First detailed timing is the preferred timing
  Color Characteristics:
    Red  : 0.6250, 0.3398
    Green: 0.2802, 0.5947
    Blue : 0.1552, 0.0703
    White: 0.2832, 0.2978
  Established Timings I & II:
    DMT 0x04:   640x480    59.940476 Hz   4:3     31.469 kHz     25.175000 MHz
    DMT 0x09:   800x600    60.316541 Hz   4:3     37.879 kHz     40.000000 MHz
    DMT 0x10:  1024x768    60.003840 Hz   4:3     48.363 kHz     65.000000 MHz
  Standard Timings:
    DMT 0x55:  1280x720    60.000000 Hz  16:9     45.000 kHz     74.250000 MHz
    DMT 0x52:  1920x1080   60.000000 Hz  16:9     67.500 kHz    148.500000 MHz
    DMT 0x1c:  1280x800    59.810326 Hz  16:10    49.702 kHz     83.500000 MHz
    DMT 0x2f:  1440x900    59.887445 Hz  16:10    55.935 kHz    106.500000 MHz
    DMT 0x3a:  1680x1050   59.954250 Hz  16:10    65.290 kHz    146.250000 MHz
    DMT 0x23:  1280x1024   60.019740 Hz   5:4     63.981 kHz    108.000000 MHz
    DMT 0x33:  1600x1200   60.000000 Hz   4:3     75.000 kHz    162.000000 MHz
  Detailed Timing Descriptors:
    DTD 1:  1360x768    59.798991 Hz  85:48    47.720 kHz     84.750000 MHz
                 Hfront   72 Hsync 136 Hback  208 Hpol N
                 Vfront    3 Vsync   5 Vback   22 Vpol P
    Empty Descriptor
    Display Product Name: 'TV PHILCO'
    Display Range Limits:
      Monitor ranges (GTF): 47-63 Hz V, 15-136 kHz H, max dotclock 160 MHz
Checksum: 0xb6

----------------

Block 1, Unknown EDID Extension Block 0x00:
  00 ff ff ff ff ff ff 00 1c 88 01 90 00 00 00 97 '................'
  06 16 01 03 00 a0 5a 00 8a 0d c9 a0 57 47 98 27 '......Z.....WG.''
  12 48 4c 21 08 00 81 c0 d1 c0 81 00 95 00 b3 00 '.HL!............'
  81 80 a9 40 01 01 1b 21 50 a0 51 00 1e 30 48 88 '...@...!P.Q..0H.'
  35 00 00 00 00 00 00 1c 00 00 00 00 00 00 00 00 '5...............'
  00 00 00 00 00 00 00 00 00 00 00 00 00 fc 00 54 '...............T'
  56 20 50 48 49 4c 43 4f 0a 20 20 20 00 00 00 fd 'V PHILCO.   ....'
  00 2f 3f 0f 88 10 00 0a 20 20 20 20 20 20 00 b6 './?.....      ..'
Checksum: 0xb6

----------------

Warnings:

EDID:
  Base EDID: Some timings are out of range of the Monitor Ranges:
    Maximum Clock: 162.000 MHz (Monitor: 160.000 MHz)
    Could be due to a Monitor Range off-by-one rounding issue

Failures:

Block 0, Base EDID:
  Detailed Timing Descriptor #1: Mismatch of image size vs display size: image size is not set, but display size is.
  Empty Descriptor: Use Dummy Descriptor instead of all zeroes.
Block 1, Base EDID:
  Unknown Extension Block.
EDID:
  Base EDID: EDID specified 0 extension block(s), but found 1 extension block(s).

EDID conformity: FAIL
