
EDID (hex):
00ffffffffffff001c88019000000097
101b0103683c22612a4e60a555449924
12494b21084081808bc09500a940d1c0
0101010101011b2150a051001e304888
350000000000001e000000fc00434848
574a540a202020202020000000000000
00000000000000000000001800000000
000000000000000000000000001800f5

Extracted contents:
header:          00 ff ff ff ff ff ff 00
serial number:   1c 88 01 90 00 00 00 97 10 1b
version:         01 03
basic params:    68 3c 22 61 2a
chroma info:     4e 60 a5 55 44 99 24 12 49 4b
established:     21 08 40
standard:        81 80 8b c0 95 00 a9 40 d1 c0 01 01 01 01 01 01
descriptor 1:    1b 21 50 a0 51 00 1e 30 48 88 35 00 00 00 00 00 00 1e
descriptor 2:    00 00 00 fc 00 43 48 48 57 4a 54 0a 20 20 20 20 20 20
descriptor 3:    00 00 00 00 00 00 00 00 00 00 00 00 00 00 00 00 00 18
descriptor 4:    00 00 00 00 00 00 00 00 00 00 00 00 00 00 00 00 00 18
extensions:      00
checksum:        f5

EDID version: 1.3
Manufacturer: GDH Model 9001 Serial Number --
Made in week 16 of 2017
Analog display, Input voltage level: 0.7/0.7 V
Sync: Separate 
Maximum image size: 60 cm x 34 cm
Gamma: 1.97
DPMS levels: Off
RGB color display
First detailed timing is preferred timing
Display x,y Chromaticity:
  Red:   0.6455, 0.3320
  Green: 0.2685, 0.5996
  Blue:  0.1416, 0.0722
  White: 0.2851, 0.2929
Established timings supported:
  640x480@60Hz 4:3 HorFreq: 31469 Hz Clock: 25.175 MHz
  800x600@60Hz 4:3 HorFreq: 37900 Hz Clock: 40.000 MHz
  1024x768@60Hz 4:3 HorFreq: 48400 Hz Clock: 65.000 MHz
Standard timings supported:
  1280x1024@60Hz 5:4 HorFreq: 64000 Hz Clock: 108.000 MHz
  1360x765@60Hz 16:9
  1440x900@60Hz 16:10 HorFreq: 55500 Hz Clock: 88.750 MHz
  1600x1200@60Hz 4:3 HorFreq: 75000 Hz Clock: 162.000 MHz
  1920x1080@60Hz 16:9
Detailed mode: Clock 84.750 MHz, 0 mm x 0 mm
               1360 1432 1568 1776 hborder 0
                768  771  776  798 vborder 0
               +hsync +vsync 
               VertFreq: 59 Hz, HorFreq: 47719 Hz
Monitor name: CHHWJT
Manufacturer-specified data, tag 0
Manufacturer-specified data, tag 0
Checksum: 0xf5 (valid)
EDID block does NOT conform to EDID 1.3!
	Missing monitor ranges
