
EDID (hex):
00ffffffffffff0009e5760900000000
1b1e0104a51f1178035795a658549e27
0e505400000001010101010101010101
010101010101023a801871382d403020
360035ae1000001a682e801871382d40
3020360035ae1000001a000000fe0042
4f452043510a202020202020000000fe
004e5631343046484d2d4e36440a008f

Extracted contents:
header:          00 ff ff ff ff ff ff 00
serial number:   09 e5 76 09 00 00 00 00 1b 1e
version:         01 04
basic params:    a5 1f 11 78 03
chroma info:     57 95 a6 58 54 9e 27 0e 50 54
established:     00 00 00
standard:        01 01 01 01 01 01 01 01 01 01 01 01 01 01 01 01
descriptor 1:    02 3a 80 18 71 38 2d 40 30 20 36 00 35 ae 10 00 00 1a
descriptor 2:    68 2e 80 18 71 38 2d 40 30 20 36 00 35 ae 10 00 00 1a
descriptor 3:    00 00 00 fe 00 42 4f 45 20 43 51 0a 20 20 20 20 20 20
descriptor 4:    00 00 00 fe 00 4e 56 31 34 30 46 48 4d 2d 4e 36 44 0a
extensions:      00
checksum:        8f

EDID version: 1.4
Manufacturer: BOE Model 976 Serial Number --
Made in week 27 of 2020
Digital display
8 bits per primary color channel
DisplayPort interface
Maximum image size: 31 cm x 17 cm
Gamma: 2.20
Supported color formats: RGB 4:4:4
First detailed timing includes the native pixel format and preferred refresh rate
Display is continuous frequency
Display x,y Chromaticity:
  Red:   0.6494, 0.3447
  Green: 0.3291, 0.6201
  Blue:  0.1542, 0.0556
  White: 0.3134, 0.3291
Established timings supported:
Standard timings supported:
Detailed mode: Clock 148.500 MHz, 309 mm x 174 mm
               1920 1968 2000 2200 hborder 0
               1080 1083 1089 1125 vborder 0
               +hsync -vsync 
               VertFreq: 60 Hz, HorFreq: 67500 Hz
Detailed mode: Clock 118.800 MHz, 309 mm x 174 mm
               1920 1968 2000 2200 hborder 0
               1080 1083 1089 1125 vborder 0
               +hsync -vsync 
               VertFreq: 48 Hz, HorFreq: 54000 Hz
ASCII string: BOE CQ
ASCII string: NV140FHM-N6D
Checksum: 0x8f (valid)
EDID block does NOT conform to EDID 1.4!
	Missing name descriptor
	Missing monitor ranges


