edid-decode (hex):

00 ff ff ff ff ff ff 00 4c 83 4e 83 00 00 00 00
00 19 01 04 95 1f 11 78 0a a2 a5 a4 54 4c 9b 24
12 50 54 00 00 00 01 01 01 01 01 01 01 01 01 01
01 01 01 01 01 01 29 36 80 a0 70 38 1f 40 30 20
25 00 35 ae 10 00 00 1a 54 2b 80 a0 70 38 1f 40
30 20 25 00 35 ae 10 00 00 1a 00 00 00 fe 00 43
43 59 36 57 80 31 34 30 48 4c 0a 20 00 00 00 00
00 00 41 21 9e 00 10 00 00 0a 01 0a 20 20 00 1f

----------------

Block 0, Base EDID:
  EDID Structure Version & Revision: 1.4
  Vendor & Product Identification:
    Manufacturer: SDC
    Model: 33614
    Made in: 2015
  Basic Display Parameters & Features:
    Digital display
    Bits per primary color channel: 6
    DisplayPort interface
    Maximum image size: 31 cm x 17 cm
    Gamma: 2.20
    Supported color formats: RGB 4:4:4, YCrCb 4:4:4
    First detailed timing includes the native pixel format and preferred refresh rate
  Color Characteristics:
    Red  : 0.6425, 0.3300
    Green: 0.2968, 0.6074
    Blue : 0.1425, 0.0722
    White: 0.3134, 0.3291
  Established Timings I & II: none
  Standard Timings: none
  Detailed Timing Descriptors:
    DTD 1:  1920x1080   59.998788 Hz  16:9     66.659 kHz    138.650000 MHz (309 mm x 174 mm)
                 Hfront   48 Hsync  32 Hback   80 Hpol P
                 Vfront    2 Vsync   5 Vback   24 Vpol N
    DTD 2:  1920x1080   47.999031 Hz  16:9     53.327 kHz    110.920000 MHz (309 mm x 174 mm)
                 Hfront   48 Hsync  32 Hback   80 Hpol P
                 Vfront    2 Vsync   5 Vback   24 Vpol N
    Alphanumeric Data String: 'CCY6W'
    Manufacturer-Specified Display Descriptor (0x00): 00 00 00 00 41 21 9e 00 10 00 00 0a 01 0a 20 20 '....A!........  '
Checksum: 0x1f

----------------

Failures:

Block 0, Base EDID:
  Alphanumeric Data String: Non-printable character.
  Missing Display Product Name.

EDID conformity: FAIL
