edid-decode (hex):

00 ff ff ff ff ff ff 00 22 64 ea 03 4e 0a 00 00
2b 14 01 03 80 16 0d 78 0a 80 36 9a 5e 5d 91 28
20 4f 54 00 00 00 01 01 01 01 01 01 01 01 01 01
01 01 01 01 01 01 94 11 00 b0 40 58 19 20 35 23
45 00 de 7d 00 00 00 19 00 00 00 fe 00 00 00 00
00 00 00 00 00 00 00 00 00 00 00 00 00 fc 00 48
53 44 31 30 31 50 46 57 33 44 0a 20 00 00 00 10
00 0a 20 20 20 20 20 20 20 20 20 20 20 20 00 72

00 ff ff ff ff ff ff 00 22 64 ea 03 4e 0a 00 00
2b 14 01 03 80 16 0d 78 0a 80 36 9a 5e 5d 91 28
20 4f 54 00 00 00 01 01 01 01 01 01 01 01 01 01
01 01 01 01 01 01 94 11 00 b0 40 58 19 20 35 23
45 00 de 7d 00 00 00 19 00 00 00 fe 00 00 00 00
00 00 00 00 00 00 00 00 00 00 00 00 00 fc 00 48
53 44 31 30 31 50 46 57 33 44 0a 20 00 00 00 10
00 0a 20 20 20 20 20 20 20 20 20 20 20 20 00 72

----------------

Block 0, Base EDID:
  EDID Structure Version & Revision: 1.3
  Vendor & Product Identification:
    Manufacturer: HSD
    Model: 1002
    Serial Number: ...
    Made in: week 43 of 2010
  Basic Display Parameters & Features:
    Digital display
    Maximum image size: 22 cm x 13 cm
    Gamma: 2.20
    RGB color display
    First detailed timing is the preferred timing
  Color Characteristics:
    Red  : 0.6035, 0.3671
    Green: 0.3632, 0.5664
    Blue : 0.1562, 0.1279
    White: 0.3095, 0.3300
  Established Timings I & II: none
  Standard Timings: none
  Detailed Timing Descriptors:
    DTD 1:  1024x600    60.000000 Hz 128:75    37.500 kHz     45.000000 MHz (222 mm x 125 mm)
                 Hfront   53 Hsync  35 Hback   88 Hpol N
                 Vfront    4 Vsync   5 Vback   16 Vpol N
    Alphanumeric Data String: ''
    Display Product Name: 'HSD101PFW3D'
    Dummy Descriptor:
Checksum: 0x72

----------------

Block 1, Unknown EDID Extension Block 0x00:
  00 ff ff ff ff ff ff 00 22 64 ea 03 4e 0a 00 00 '........"d..N...'
  2b 14 01 03 80 16 0d 78 0a 80 36 9a 5e 5d 91 28 '+......x..6.^].('
  20 4f 54 00 00 00 01 01 01 01 01 01 01 01 01 01 ' OT.............'
  01 01 01 01 01 01 94 11 00 b0 40 58 19 20 35 23 '..........@X. 5#'
  45 00 de 7d 00 00 00 19 00 00 00 fe 00 00 00 00 'E..}............'
  00 00 00 00 00 00 00 00 00 00 00 00 00 fc 00 48 '...............H'
  53 44 31 30 31 50 46 57 33 44 0a 20 00 00 00 10 'SD101PFW3D. ....'
  00 0a 20 20 20 20 20 20 20 20 20 20 20 20 00 72 '..            .r'
Checksum: 0x72

----------------

Failures:

Block 0, Base EDID:
  Alphanumeric Data String: Non-printable character.
  Dummy Descriptor: Dummy block filled with garbage.
  Missing Display Range Limits Descriptor.
Block 1, Base EDID:
  Unknown Extension Block.
EDID:
  Base EDID: EDID specified 0 extension block(s), but found 1 extension block(s).

EDID conformity: FAIL
