
EDID (hex):
00ffffffffffff0022f0184201000000
10160103802c1978ee9e70a6554b9a25
13505400000001010101010101010101
0101010101013c2e4000628422301850
1300bbf910000000000000fc00485020
416c6c2d696e2d4f6e65000000fc000a
2020202020202020202020200000000f
000a202020202020202020202020000a

Extracted contents:
header:          00 ff ff ff ff ff ff 00
serial number:   22 f0 18 42 01 00 00 00 10 16
version:         01 03
basic params:    80 2c 19 78 ee
chroma info:     9e 70 a6 55 4b 9a 25 13 50 54
established:     00 00 00
standard:        01 01 01 01 01 01 01 01 01 01 01 01 01 01 01 01
descriptor 1:    3c 2e 40 00 62 84 22 30 18 50 13 00 bb f9 10 00 00 00
descriptor 2:    00 00 00 fc 00 48 50 20 41 6c 6c 2d 69 6e 2d 4f 6e 65
descriptor 3:    00 00 00 fc 00 0a 20 20 20 20 20 20 20 20 20 20 20 20
descriptor 4:    00 00 00 0f 00 0a 20 20 20 20 20 20 20 20 20 20 20 20
extensions:      00
checksum:        0a

EDID version: 1.3
Manufacturer: HWP Model 4218 Serial Number --
Made in week 16 of 2012
Digital display
Maximum image size: 44 cm x 25 cm
Gamma: 2.20
DPMS levels: Standby Suspend Off
RGB color display
Default (sRGB) color space is primary color space
First detailed timing is preferred timing
Display x,y Chromaticity:
  Red:   0.6503, 0.3330
  Green: 0.2958, 0.6035
  Blue:  0.1455, 0.0771
  White: 0.3125, 0.3281
Established timings supported:
Standard timings supported:
Detailed mode: Clock 118.360 MHz, 443 mm x 249 mm
               1600 1624 1704 2112 hborder 0
                900  901  904  934 vborder 0
               -hsync -vsync analog composite 
               VertFreq: 60 Hz, HorFreq: 56041 Hz
Monitor name: HP All-in-One
Manufacturer-specified data, tag 15
Checksum: 0xa (valid)
EDID block does NOT conform to EDID 1.3!
	sRGB is signaled, but the chromaticities do not match
	Missing monitor ranges
