
EDID (hex):
00ffffffffffff0022f0184201010000
1e130103802c1978eab815a6554b9b25
13505400000001010101010101010101
010101010101302a40c8608464301850
1300bbf91000001e00000010004c4d32
30305744332d544c4338000000fe004c
544d3230304b5431300a2020000000fc
004850204f6d6e69202f2050726f006c

Extracted contents:
header:          00 ff ff ff ff ff ff 00
serial number:   22 f0 18 42 01 01 00 00 1e 13
version:         01 03
basic params:    80 2c 19 78 ea
chroma info:     b8 15 a6 55 4b 9b 25 13 50 54
established:     00 00 00
standard:        01 01 01 01 01 01 01 01 01 01 01 01 01 01 01 01
descriptor 1:    30 2a 40 c8 60 84 64 30 18 50 13 00 bb f9 10 00 00 1e
descriptor 2:    00 00 00 10 00 4c 4d 32 30 30 57 44 33 2d 54 4c 43 38
descriptor 3:    00 00 00 fe 00 4c 54 4d 32 30 30 4b 54 31 30 0a 20 20
descriptor 4:    00 00 00 fc 00 48 50 20 4f 6d 6e 69 20 2f 20 50 72 6f
extensions:      00
checksum:        6c

EDID version: 1.3
Manufacturer: HWP Model 4218 Serial Number --
Made in week 30 of 2009
Digital display
Maximum image size: 44 cm x 25 cm
Gamma: 2.20
DPMS levels: Standby Suspend Off
RGB color display
First detailed timing is preferred timing
Display x,y Chromaticity:
  Red:   0.6503, 0.3349
  Green: 0.2949, 0.6054
  Blue:  0.1445, 0.0751
  White: 0.3134, 0.3291
Established timings supported:
Standard timings supported:
Detailed mode: Clock 108.000 MHz, 443 mm x 249 mm
               1600 1624 1704 1800 hborder 0
                900  901  904 1000 vborder 0
               +hsync +vsync 
               VertFreq: 60 Hz, HorFreq: 60000 Hz
Dummy block
ASCII string: LTM200KT10
Checksum: 0x6c (valid)
EDID block does NOT conform to EDID 1.3!
	Name descriptor not terminated with a newline
	Missing monitor ranges
EDID block does not conform at all!
	Dummy block filled with garbage
