
EDID (hex):
00ffffffffffff0022f0184201010000
1e130103802c19780ab815a6554b9b25
13505400000001010101010101010101
010101010101302a40c860846430b450
a300b8fa100000189a29a0c850846430
b450a300b8fa1000007e662150c85000
6430b43ca300b8fa1000001e000000fc
004850204f6d6e69202f2050726f00d0

Extracted contents:
header:          00 ff ff ff ff ff ff 00
serial number:   22 f0 18 42 01 01 00 00 1e 13
version:         01 03
basic params:    80 2c 19 78 0a
chroma info:     b8 15 a6 55 4b 9b 25 13 50 54
established:     00 00 00
standard:        01 01 01 01 01 01 01 01 01 01 01 01 01 01 01 01
descriptor 1:    30 2a 40 c8 60 84 64 30 b4 50 a3 00 b8 fa 10 00 00 18
descriptor 2:    9a 29 a0 c8 50 84 64 30 b4 50 a3 00 b8 fa 10 00 00 7e
descriptor 3:    66 21 50 c8 50 00 64 30 b4 3c a3 00 b8 fa 10 00 00 1e
descriptor 4:    00 00 00 fc 00 48 50 20 4f 6d 6e 69 20 2f 20 50 72 6f
extensions:      00
checksum:        d0

EDID version: 1.3
Manufacturer: HWP Model 4218 Serial Number --
Made in week 30 of 2009
Digital display
Maximum image size: 44 cm x 25 cm
Gamma: 2.20
RGB color display
First detailed timing is preferred timing
Display x,y Chromaticity:
  Red:   0.6503, 0.3349
  Green: 0.2949, 0.6054
  Blue:  0.1445, 0.0751
  White: 0.3134, 0.3291
Established timings supported:
Standard timings supported:
Detailed mode: Clock 108.000 MHz, 440 mm x 250 mm
               1600 1780 1860 1800 hborder 0
                900  910  913 1000 vborder 0
               -hsync -vsync 
               VertFreq: 60 Hz, HorFreq: 60000 Hz
Detailed mode: Clock 106.500 MHz, 440 mm x 250 mm
               1440 1620 1700 1640 hborder 0
                900  910  913 1000 vborder 0
               +hsync +vsync four way interleaved
               VertFreq: 64 Hz, HorFreq: 64939 Hz
Detailed mode: Clock 85.500 MHz, 440 mm x 250 mm
               1360 1540 1600 1560 hborder 0
                768  778  781  868 vborder 0
               +hsync +vsync 
               VertFreq: 63 Hz, HorFreq: 54807 Hz
Checksum: 0xd0 (valid)
EDID block does NOT conform to EDID 1.3!
	Name descriptor not terminated with a newline
	Missing monitor ranges
