
EDID (hex):
00ffffffffffff002131035014f53101
330f010380211b78eaaea5a6544c9926
14505421080031404540614081800101
010101010101302a009851002a403070
13004a0e1100001ea00f200031581c20
288014004a0e1100001e000000fd003b
3d1f43ff000a202020202020000000fc
004c373244204456490a202020200009

Extracted contents:
header:          00 ff ff ff ff ff ff 00
serial number:   21 31 03 50 14 f5 31 01 33 0f
version:         01 03
basic params:    80 21 1b 78 ea
chroma info:     ae a5 a6 54 4c 99 26 14 50 54
established:     21 08 00
standard:        31 40 45 40 61 40 81 80 01 01 01 01 01 01 01 01
descriptor 1:    30 2a 00 98 51 00 2a 40 30 70 13 00 4a 0e 11 00 00 1e
descriptor 2:    a0 0f 20 00 31 58 1c 20 28 80 14 00 4a 0e 11 00 00 1e
descriptor 3:    00 00 00 fd 00 3b 3d 1f 43 ff 00 0a 20 20 20 20 20 20
descriptor 4:    00 00 00 fc 00 4c 37 32 44 20 44 56 49 0a 20 20 20 20
extensions:      00
checksum:        09

EDID version: 1.3
Manufacturer: HIQ Model 5003 Serial Number --
Digital display
Maximum image size: 33 cm x 27 cm
Gamma: 2.20
DPMS levels: Standby Suspend Off
RGB color display
First detailed timing is preferred timing
Display x,y Chromaticity:
  Red:   0.6503, 0.3300
  Green: 0.2998, 0.5996
  Blue:  0.1503, 0.0800
  White: 0.3134, 0.3291
Established timings supported:
  640x480@60Hz 4:3 HorFreq: 31469 Hz Clock: 25.175 MHz
  800x600@60Hz 4:3 HorFreq: 37900 Hz Clock: 40.000 MHz
  1024x768@60Hz 4:3 HorFreq: 48400 Hz Clock: 65.000 MHz
Standard timings supported:
  640x480@60Hz 4:3 HorFreq: 31469 Hz Clock: 25.175 MHz
  800x600@60Hz 4:3 HorFreq: 37900 Hz Clock: 40.000 MHz
  1024x768@60Hz 4:3 HorFreq: 48400 Hz Clock: 65.000 MHz
  1280x1024@60Hz 5:4 HorFreq: 64000 Hz Clock: 108.000 MHz
Detailed mode: Clock 108.000 MHz, 330 mm x 270 mm
               1280 1328 1440 1688 hborder 0
               1024 1025 1028 1066 vborder 0
               +hsync +vsync 
               VertFreq: 60 Hz, HorFreq: 63981 Hz
Detailed mode: Clock 40.000 MHz, 330 mm x 270 mm
                800  840  968 1056 hborder 0
                600  601  605  628 vborder 0
               +hsync +vsync 
               VertFreq: 60 Hz, HorFreq: 37878 Hz
Monitor ranges (GTF): 59-61Hz V, 31-67kHz H, max dotclock 2550MHz
Monitor name: L72D DVI
Checksum: 0x9 (valid)
EDID block does not conform at all!
	Bad year of manufacture
