
EDID (hex):
00ffffffffffff0006af3d5200000000
001b0104a51f1178022cf5a5544b9727
10505400000001010101010101010101
010101010101b43780a070383e401010
350035ae1000001ab43780a070385c41
1010350035ae1000001a000000fe004e
50355233804231343048414e00000000
00024101e4011100000a010a20200014

Extracted contents:
header:          00 ff ff ff ff ff ff 00
serial number:   06 af 3d 52 00 00 00 00 00 1b
version:         01 04
basic params:    a5 1f 11 78 02
chroma info:     2c f5 a5 54 4b 97 27 10 50 54
established:     00 00 00
standard:        01 01 01 01 01 01 01 01 01 01 01 01 01 01 01 01
descriptor 1:    b4 37 80 a0 70 38 3e 40 10 10 35 00 35 ae 10 00 00 1a
descriptor 2:    b4 37 80 a0 70 38 5c 41 10 10 35 00 35 ae 10 00 00 1a
descriptor 3:    00 00 00 fe 00 4e 50 35 52 33 80 42 31 34 30 48 41 4e
descriptor 4:    00 00 00 00 00 02 41 01 e4 01 11 00 00 0a 01 0a 20 20
extensions:      00
checksum:        14

EDID version: 1.4
Manufacturer: AUO Model 523d Serial Number --
Made in year 2017
Digital display
8 bits per primary color channel
DisplayPort interface
Maximum image size: 31 cm x 17 cm
Gamma: 2.20
Supported color formats: RGB 4:4:4
First detailed timing includes the native pixel format and preferred refresh rate
Display x,y Chromaticity:
  Red:   0.6445, 0.3300
  Green: 0.2958, 0.5898
  Blue:  0.1552, 0.0654
  White: 0.3134, 0.3291
Established timings supported:
Standard timings supported:
Detailed mode: Clock 142.600 MHz, 309 mm x 174 mm
               1920 1936 1952 2080 hborder 0
               1080 1083 1088 1142 vborder 0
               +hsync -vsync 
               VertFreq: 60 Hz, HorFreq: 68557 Hz
Detailed mode: Clock 142.600 MHz, 309 mm x 174 mm
               1920 1936 1952 2080 hborder 0
               1080 1083 1088 1428 vborder 0
               +hsync -vsync 
               VertFreq: 48 Hz, HorFreq: 68557 Hz
ASCII string: NP5R3
Manufacturer-specified data, tag 0
Checksum: 0x14 (valid)
EDID block does NOT conform to EDID 1.4!
	Missing name descriptor
	Missing monitor ranges
	Detailed block string not properly terminated
