
EDID (hex):
00ffffffffffff003669b63d00000000
301f0103804f21782aee95a3544c9926
0f5054afcf0081809500b300d1c081a8
9528b328d1e87d8670b0d4a02c50e870
3a101d4d3100001a000000ff00444236
48323631423031373230000000fd0030
7d1ede3c000a202020202020000000fc
004d5349204d4147333432435152013d
020343f34b010203045a9012131f613f
23090707830100006a030c0020003878
20000067d85dc40178c800681a000001
013078ede305e301e30f000ce6060701
60500044d070a0d0a02950584045001d
4d3100001e6fc200a0a0a05550302035
001d4d3100001e4241b8a060a0295030
2035001d503100001e00000000000027

Extracted contents:
header:          00 ff ff ff ff ff ff 00
serial number:   36 69 b6 3d 00 00 00 00 30 1f
version:         01 03
basic params:    80 4f 21 78 2a
chroma info:     ee 95 a3 54 4c 99 26 0f 50 54
established:     af cf 00
standard:        81 80 95 00 b3 00 d1 c0 81 a8 95 28 b3 28 d1 e8
descriptor 1:    7d 86 70 b0 d4 a0 2c 50 e8 70 3a 10 1d 4d 31 00 00 1a
descriptor 2:    00 00 00 ff 00 44 42 36 48 32 36 31 42 30 31 37 32 30
descriptor 3:    00 00 00 fd 00 30 7d 1e de 3c 00 0a 20 20 20 20 20 20
descriptor 4:    00 00 00 fc 00 4d 53 49 20 4d 41 47 33 34 32 43 51 52
extensions:      01
checksum:        3d

EDID version: 1.3
Manufacturer: MSI Model 3db6 Serial Number --
Made in week 48 of 2021
Digital display
Maximum image size: 79 cm x 33 cm
Gamma: 2.20
DPMS levels: Off
RGB color display
First detailed timing is preferred timing
Display x,y Chromaticity:
  Red:   0.6396, 0.3300
  Green: 0.2998, 0.5996
  Blue:  0.1503, 0.0595
  White: 0.3134, 0.3291
Established timings supported:
  720x400@70Hz 9:5 HorFreq: 31469 Hz Clock: 28.320 MHz
  640x480@60Hz 4:3 HorFreq: 31469 Hz Clock: 25.175 MHz
  640x480@72Hz 4:3 HorFreq: 37900 Hz Clock: 31.500 MHz
  640x480@75Hz 4:3 HorFreq: 37500 Hz Clock: 31.500 MHz
  800x600@56Hz 4:3 HorFreq: 35200 Hz Clock: 36.000 MHz
  800x600@60Hz 4:3 HorFreq: 37900 Hz Clock: 40.000 MHz
  800x600@72Hz 4:3 HorFreq: 48100 Hz Clock: 50.000 MHz
  800x600@75Hz 4:3 HorFreq: 46900 Hz Clock: 49.500 MHz
  1024x768@60Hz 4:3 HorFreq: 48400 Hz Clock: 65.000 MHz
  1024x768@70Hz 4:3 HorFreq: 56500 Hz Clock: 75.000 MHz
  1024x768@75Hz 4:3 HorFreq: 60000 Hz Clock: 78.750 MHz
  1280x1024@75Hz 5:4 HorFreq: 80000 Hz Clock: 135.000 MHz
Standard timings supported:
  1280x1024@60Hz 5:4 HorFreq: 64000 Hz Clock: 108.000 MHz
  1440x900@60Hz 16:10 HorFreq: 55500 Hz Clock: 88.750 MHz
  1680x1050@60Hz 16:10 HorFreq: 64700 Hz Clock: 119.000 MHz
  1920x1080@60Hz 16:9
  1280x1024@100Hz 5:4
  1440x900@100Hz 16:10
  1680x1050@100Hz 16:10
  1920x1080@100Hz 16:9
Detailed mode: Clock 344.290 MHz, 797 mm x 333 mm
               3440 3672 4040 4640 hborder 0
               1440 1443 1453 1484 vborder 0
               +hsync -vsync 
               VertFreq: 50 Hz, HorFreq: 74200 Hz
Serial number: --
Monitor ranges (GTF): 48-125Hz V, 30-222kHz H, max dotclock 600MHz
Has 1 extension blocks
Checksum: 0x3d (valid)

CTA extension block
Extension version: 3
63 bytes of CTA data
  Video data block
    VIC   1 640x480@60Hz 4:3  HorFreq: 31469 Hz Clock: 25.175 MHz
    VIC   2 720x480@60Hz 4:3  HorFreq: 31469 Hz Clock: 27.000 MHz
    VIC   3 720x480@60Hz 16:9  HorFreq: 31469 Hz Clock: 27.000 MHz
    VIC   4 1280x720@60Hz 16:9  HorFreq: 45000 Hz Clock: 74.250 MHz
    VIC  90 2560x1080@60Hz 64:27  HorFreq: 66000 Hz Clock: 198.000 MHz
    VIC  16 1920x1080@60Hz 16:9 (native) HorFreq: 67500 Hz Clock: 148.500 MHz
    VIC  18 720x576@50Hz 16:9  HorFreq: 31250 Hz Clock: 27.000 MHz
    VIC  19 1280x720@50Hz 16:9  HorFreq: 37500 Hz Clock: 74.250 MHz
    VIC  31 1920x1080@50Hz 16:9  HorFreq: 56250 Hz Clock: 148.500 MHz
    VIC  97 3840x2160@60Hz 16:9  HorFreq: 135000 Hz Clock: 594.000 MHz
    VIC  63 1920x1080@120Hz 16:9  HorFreq: 135000 Hz Clock: 297.000 MHz
  Audio data block
    Linear PCM, max channels 2
      Supported sample rates (kHz): 48 44.1 32
      Supported sample sizes (bits): 24 20 16
  Speaker allocation data block
    Speaker map:
      FL/FR - Front Left/Right
  Vendor-specific data block, OUI 000c03 (HDMI)
    Source physical address 2.0.0.0
    DC_36bit
    DC_30bit
    DC_Y444
    Maximum TMDS clock: 600MHz
    Extended HDMI video details:
  Vendor-specific data block, OUI c45dd8 (HDMI Forum)
    Version: 1
    Maximum TMDS Character Rate: 600MHz
    SCDC Present
    SCDC Read Request Capable
    Supports scrambling for <= 340 Mcsc
  Vendor-specific data block, OUI 00001a
  Extended tag: Colorimetry data block
    xvYCC601
    xvYCC709
    BT2020cYCC
    BT2020YCC
    BT2020RGB
  Extended tag: YCbCr 4:2:0 capability map data block
    VSD Index 10
    VSD Index 11
  Extended tag: HDR static metadata data block
    Electro optical transfer functions:
      Traditional gamma - SDR luminance range
      Traditional gamma - HDR luminance range
      SMPTE ST2084
    Supported static metadata descriptors:
      Static metadata type 1
    Desired content max luminance: 96 (400.000 cd/m^2)
    Desired content max frame-average luminance: 80 (282.843 cd/m^2)
    Desired content min luminance: 0 (0.000 cd/m^2)
Underscans PC formats by default
Basic audio support
Supports YCbCr 4:4:4
Supports YCbCr 4:2:2
3 native detailed modes
Detailed mode: Clock 533.160 MHz, 797 mm x 333 mm
               3440 3528 3592 3600 hborder 0
               1440 1444 1449 1481 vborder 0
               +hsync +vsync 
               VertFreq: 100 Hz, HorFreq: 148100 Hz
Detailed mode: Clock 497.750 MHz, 797 mm x 333 mm
               2560 2608 2640 2720 hborder 0
               1440 1443 1448 1525 vborder 0
               +hsync +vsync 
               VertFreq: 119 Hz, HorFreq: 182996 Hz
Detailed mode: Clock 167.060 MHz, 797 mm x 336 mm
               1720 1768 1800 1880 hborder 0
               1440 1443 1448 1481 vborder 0
               +hsync +vsync 
               VertFreq: 60 Hz, HorFreq: 88861 Hz
Checksum: 0x27 (valid)

EDID block does NOT conform to EDID 1.3!
	HDMI VSDB Max TMDS rate is > 340
	Name descriptor not terminated with a newline
