
EDID (hex):
00ffffffffffff003669b63d00000000
311f0104b54f21783b81a5ad4f40a325
165054a5cb0081a881800101b3009528
d1c0b328d1e8f57c70a0d0a029503020
35001d4d3100001a000000ff00444236
48323931423030373736000000fd0030
90dede4e010a202020202020000000fc
004d5349204d414733343243510a0204
020320f4459014021213230907078301
0000e6060701605b00e200c0e305e301
44d070a0d0a02950302035001b4e3100
001ec46870a0d0a03250302035001b4e
3100001a288380a07038294030203500
1d4d3100001e98e200a0a0a029503020
35001d4d3100001e4241b8a060a02950
302035001d4d3100001e00000000008e
7012790000030114e62b01046f0d9f00
2f001f009f0528000280040007000a08
810008040004021000030114d3bc0000
ff099f002f001f009f05280002000400
00000000000000000000000000000000
00000000000000000000000000000000
00000000000000000000000000000000
00000000000000000000000000006290

Extracted contents:
header:          00 ff ff ff ff ff ff 00
serial number:   36 69 b6 3d 00 00 00 00 31 1f
version:         01 04
basic params:    b5 4f 21 78 3b
chroma info:     81 a5 ad 4f 40 a3 25 16 50 54
established:     a5 cb 00
standard:        81 a8 81 80 01 01 b3 00 95 28 d1 c0 b3 28 d1 e8
descriptor 1:    f5 7c 70 a0 d0 a0 29 50 30 20 35 00 1d 4d 31 00 00 1a
descriptor 2:    00 00 00 ff 00 44 42 36 48 32 39 31 42 30 30 37 37 36
descriptor 3:    00 00 00 fd 00 30 90 de de 4e 01 0a 20 20 20 20 20 20
descriptor 4:    00 00 00 fc 00 4d 53 49 20 4d 41 47 33 34 32 43 51 0a
extensions:      02
checksum:        04

EDID version: 1.4
Manufacturer: MSI Model 3db6 Serial Number --
Made in week 49 of 2021
Digital display
10 bits per primary color channel
DisplayPort interface
Maximum image size: 79 cm x 33 cm
Gamma: 2.20
DPMS levels: Off
Supported color formats: RGB 4:4:4, YCrCb 4:4:4, YCrCb 4:2:2
First detailed timing includes the native pixel format and preferred refresh rate
Display is continuous frequency
Display x,y Chromaticity:
  Red:   0.6777, 0.3085
  Green: 0.2500, 0.6376
  Blue:  0.1464, 0.0878
  White: 0.3134, 0.3291
Established timings supported:
  720x400@70Hz 9:5 HorFreq: 31469 Hz Clock: 28.320 MHz
  640x480@60Hz 4:3 HorFreq: 31469 Hz Clock: 25.175 MHz
  640x480@75Hz 4:3 HorFreq: 37500 Hz Clock: 31.500 MHz
  800x600@60Hz 4:3 HorFreq: 37900 Hz Clock: 40.000 MHz
  800x600@72Hz 4:3 HorFreq: 48100 Hz Clock: 50.000 MHz
  800x600@75Hz 4:3 HorFreq: 46900 Hz Clock: 49.500 MHz
  1024x768@60Hz 4:3 HorFreq: 48400 Hz Clock: 65.000 MHz
  1024x768@75Hz 4:3 HorFreq: 60000 Hz Clock: 78.750 MHz
  1280x1024@75Hz 5:4 HorFreq: 80000 Hz Clock: 135.000 MHz
Standard timings supported:
  1280x1024@100Hz 5:4
  1280x1024@60Hz 5:4 HorFreq: 64000 Hz Clock: 108.000 MHz
  1680x1050@60Hz 16:10 HorFreq: 64700 Hz Clock: 119.000 MHz
  1440x900@100Hz 16:10
  1920x1080@60Hz 16:9
  1680x1050@100Hz 16:10
  1920x1080@100Hz 16:9
Detailed mode: Clock 319.890 MHz, 797 mm x 333 mm
               3440 3488 3520 3600 hborder 0
               1440 1443 1448 1481 vborder 0
               +hsync -vsync 
               VertFreq: 59 Hz, HorFreq: 88858 Hz
Serial number: --
Monitor ranges (bare limits): 48-144Hz V, 222-222kHz H, max dotclock 780MHz
Monitor name: MSI MAG342CQ
Has 2 extension blocks
Checksum: 0x4 (valid)

CTA extension block
Extension version: 3
28 bytes of CTA data
  Video data block
    VIC  16 1920x1080@60Hz 16:9 (native) HorFreq: 67500 Hz Clock: 148.500 MHz
    VIC  20 1920x1080i@50Hz 16:9  HorFreq: 28125 Hz Clock: 74.250 MHz
    VIC   2 720x480@60Hz 4:3  HorFreq: 31469 Hz Clock: 27.000 MHz
    VIC  18 720x576@50Hz 16:9  HorFreq: 31250 Hz Clock: 27.000 MHz
    VIC  19 1280x720@50Hz 16:9  HorFreq: 37500 Hz Clock: 74.250 MHz
  Audio data block
    Linear PCM, max channels 2
      Supported sample rates (kHz): 48 44.1 32
      Supported sample sizes (bits): 24 20 16
  Speaker allocation data block
    Speaker map:
      FL/FR - Front Left/Right
  Extended tag: HDR static metadata data block
    Electro optical transfer functions:
      Traditional gamma - SDR luminance range
      Traditional gamma - HDR luminance range
      SMPTE ST2084
    Supported static metadata descriptors:
      Static metadata type 1
    Desired content max luminance: 96 (400.000 cd/m^2)
    Desired content max frame-average luminance: 91 (358.942 cd/m^2)
    Desired content min luminance: 0 (0.000 cd/m^2)
  Extended tag: Video capability data block
    YCbCr quantization: Selectable (via AVI YQ) (1)
    RGB quantization: Selectable (via AVI Q) (1)
    PT scan behaviour: No Data (0)
    IT scan behaviour: IT video formats not supported (0)
    CE scan behaviour: CE video formats not supported (0)
  Extended tag: Colorimetry data block
    xvYCC601
    xvYCC709
    BT2020cYCC
    BT2020YCC
    BT2020RGB
Underscans PC formats by default
Basic audio support
Supports YCbCr 4:4:4
Supports YCbCr 4:2:2
4 native detailed modes
Detailed mode: Clock 533.160 MHz, 795 mm x 334 mm
               3440 3488 3520 3600 hborder 0
               1440 1443 1448 1481 vborder 0
               +hsync +vsync 
               VertFreq: 100 Hz, HorFreq: 148100 Hz
Detailed mode: Clock 268.200 MHz, 795 mm x 334 mm
               3440 3488 3520 3600 hborder 0
               1440 1443 1448 1490 vborder 0
               +hsync -vsync 
               VertFreq: 50 Hz, HorFreq: 74500 Hz
Detailed mode: Clock 335.760 MHz, 797 mm x 333 mm
               1920 1968 2000 2080 hborder 0
               1080 1083 1088 1121 vborder 0
               +hsync +vsync 
               VertFreq: 143 Hz, HorFreq: 161423 Hz
Detailed mode: Clock 580.080 MHz, 797 mm x 333 mm
               2560 2608 2640 2720 hborder 0
               1440 1443 1448 1481 vborder 0
               +hsync +vsync 
               VertFreq: 144 Hz, HorFreq: 213264 Hz
Detailed mode: Clock 167.060 MHz, 797 mm x 333 mm
               1720 1768 1800 1880 hborder 0
               1440 1443 1448 1481 vborder 0
               +hsync +vsync 
               VertFreq: 60 Hz, HorFreq: 88861 Hz
Checksum: 0x8e (valid)


DisplayID extension block
Extension version: 18
Length 121, version 18, extension count 0
Checksum: 0x62 (valid)
Type 1 detailed timing: aspect: 16:9,  
Detailed mode: Clock 767.740 MHz, 0 mm x 0 mm
               3439 3486 3517 3598
               1439 1441 1445 1479
               -hsync +vsync
VESA DMT timing block
Type 1 detailed timing: aspect: 1:1,  
Detailed mode: Clock 483.390 MHz, 0 mm x 0 mm
               2559 2606 2637 2718
               1439 1441 1445 1479
               -hsync -vsync

Warning: One or more of the timings is out of range of the Monitor Ranges:
  Vertical Freq: 50 - 144 Hz
  Horizontal Freq: 28125 - 213264 Hz
  Maximum Clock: 580.080 MHz


