
EDID (hex):
00ffffffffffff003669b63d00000000
2a1e0104b54f21783b8e05ad4f33b026
0d5054a7cb0081809500b300d1c081a8
9528b328d1e8f57c70a0d0a029503020
35001d4d3100001e000000ff00444236
48303730413031313233000000fd0030
64a0a03c010a202020202020000000fc
004d4147333432435152560a202001fd
020316f449901f041303120102112309
070783010000226870a0d0a029503040
35001d4d3100001e43d070a0d0a02950
302035001d4d3100001e089d00a0a0a0
2950304035001d4d3100001e4241b8a0
60a02950302035001d4d3100001a0000
00000000000000000000000000000000
000000000000000000000000000000e6

Extracted contents:
header:          00 ff ff ff ff ff ff 00
serial number:   36 69 b6 3d 00 00 00 00 2a 1e
version:         01 04
basic params:    b5 4f 21 78 3b
chroma info:     8e 05 ad 4f 33 b0 26 0d 50 54
established:     a7 cb 00
standard:        81 80 95 00 b3 00 d1 c0 81 a8 95 28 b3 28 d1 e8
descriptor 1:    f5 7c 70 a0 d0 a0 29 50 30 20 35 00 1d 4d 31 00 00 1e
descriptor 2:    00 00 00 ff 00 44 42 36 48 30 37 30 41 30 31 31 32 33
descriptor 3:    00 00 00 fd 00 30 64 a0 a0 3c 01 0a 20 20 20 20 20 20
descriptor 4:    00 00 00 fc 00 4d 41 47 33 34 32 43 51 52 56 0a 20 20
extensions:      01
checksum:        fd

EDID version: 1.4
Manufacturer: MSI Model 3db6 Serial Number --
Made in week 42 of 2020
Digital display
10 bits per primary color channel
DisplayPort interface
Maximum image size: 79 cm x 33 cm
Gamma: 2.20
DPMS levels: Off
Supported color formats: RGB 4:4:4, YCrCb 4:4:4, YCrCb 4:2:2
First detailed timing includes the native pixel format and preferred refresh rate
Display is continuous frequency
Display x,y Chromaticity:
  Red:   0.6777, 0.3085
  Green: 0.2021, 0.6894
  Blue:  0.1484, 0.0507
  White: 0.3134, 0.3291
Established timings supported:
  720x400@70Hz 9:5 HorFreq: 31469 Hz Clock: 28.320 MHz
  640x480@60Hz 4:3 HorFreq: 31469 Hz Clock: 25.175 MHz
  640x480@75Hz 4:3 HorFreq: 37500 Hz Clock: 31.500 MHz
  800x600@56Hz 4:3 HorFreq: 35200 Hz Clock: 36.000 MHz
  800x600@60Hz 4:3 HorFreq: 37900 Hz Clock: 40.000 MHz
  800x600@72Hz 4:3 HorFreq: 48100 Hz Clock: 50.000 MHz
  800x600@75Hz 4:3 HorFreq: 46900 Hz Clock: 49.500 MHz
  1024x768@60Hz 4:3 HorFreq: 48400 Hz Clock: 65.000 MHz
  1024x768@75Hz 4:3 HorFreq: 60000 Hz Clock: 78.750 MHz
  1280x1024@75Hz 5:4 HorFreq: 80000 Hz Clock: 135.000 MHz
Standard timings supported:
  1280x1024@60Hz 5:4 HorFreq: 64000 Hz Clock: 108.000 MHz
  1440x900@60Hz 16:10 HorFreq: 55500 Hz Clock: 88.750 MHz
  1680x1050@60Hz 16:10 HorFreq: 64700 Hz Clock: 119.000 MHz
  1920x1080@60Hz 16:9
  1280x1024@100Hz 5:4
  1440x900@100Hz 16:10
  1680x1050@100Hz 16:10
  1920x1080@100Hz 16:9
Detailed mode: Clock 319.890 MHz, 797 mm x 333 mm
               3440 3488 3520 3600 hborder 0
               1440 1443 1448 1481 vborder 0
               +hsync +vsync 
               VertFreq: 59 Hz, HorFreq: 88858 Hz
Serial number: --
Monitor ranges (bare limits): 48-100Hz V, 160-160kHz H, max dotclock 600MHz
Monitor name: MAG342CQRV
Has 1 extension blocks
Checksum: 0xfd (valid)

CTA extension block
Extension version: 3
18 bytes of CTA data
  Video data block
    VIC  16 1920x1080@60Hz 16:9 (native) HorFreq: 67500 Hz Clock: 148.500 MHz
    VIC  31 1920x1080@50Hz 16:9  HorFreq: 56250 Hz Clock: 148.500 MHz
    VIC   4 1280x720@60Hz 16:9  HorFreq: 45000 Hz Clock: 74.250 MHz
    VIC  19 1280x720@50Hz 16:9  HorFreq: 37500 Hz Clock: 74.250 MHz
    VIC   3 720x480@60Hz 16:9  HorFreq: 31469 Hz Clock: 27.000 MHz
    VIC  18 720x576@50Hz 16:9  HorFreq: 31250 Hz Clock: 27.000 MHz
    VIC   1 640x480@60Hz 4:3  HorFreq: 31469 Hz Clock: 25.175 MHz
    VIC   2 720x480@60Hz 4:3  HorFreq: 31469 Hz Clock: 27.000 MHz
    VIC  17 720x576@50Hz 4:3  HorFreq: 31250 Hz Clock: 27.000 MHz
  Audio data block
    Linear PCM, max channels 2
      Supported sample rates (kHz): 48 44.1 32
      Supported sample sizes (bits): 24 20 16
  Speaker allocation data block
    Speaker map:
      FL/FR - Front Left/Right
Underscans PC formats by default
Basic audio support
Supports YCbCr 4:4:4
Supports YCbCr 4:2:2
4 native detailed modes
Detailed mode: Clock 266.580 MHz, 797 mm x 333 mm
               3440 3488 3552 3600 hborder 0
               1440 1443 1448 1481 vborder 0
               +hsync +vsync 
               VertFreq: 50 Hz, HorFreq: 74050 Hz
Detailed mode: Clock 533.150 MHz, 797 mm x 333 mm
               3440 3488 3520 3600 hborder 0
               1440 1443 1448 1481 vborder 0
               +hsync +vsync 
               VertFreq: 99 Hz, HorFreq: 148097 Hz
Detailed mode: Clock 402.000 MHz, 797 mm x 333 mm
               2560 2608 2672 2720 hborder 0
               1440 1443 1448 1481 vborder 0
               +hsync +vsync 
               VertFreq: 99 Hz, HorFreq: 147794 Hz
Detailed mode: Clock 167.060 MHz, 797 mm x 333 mm
               1720 1768 1800 1880 hborder 0
               1440 1443 1448 1481 vborder 0
               +hsync -vsync 
               VertFreq: 60 Hz, HorFreq: 88861 Hz
Checksum: 0xe6 (valid)

Warning: One or more of the timings is out of range of the Monitor Ranges:
  Vertical Freq: 50 - 100 Hz
  Horizontal Freq: 31250 - 148097 Hz
  Maximum Clock: 533.150 MHz


