
EDID (hex):
00ffffffffffff0006105b9c00000000
0e100103801d12780a87f594574f8c27
27505400000001010101010101010101
010101010101bc1b00a0502017303020
36001eb3100000190000000100061020
00000000000000000a20000000fe004c
544e31333357310000000a20000000fc
00436f6c6f72204c43440a20202000c6

Extracted contents:
header:          00 ff ff ff ff ff ff 00
serial number:   06 10 5b 9c 00 00 00 00 0e 10
version:         01 03
basic params:    80 1d 12 78 0a
chroma info:     87 f5 94 57 4f 8c 27 27 50 54
established:     00 00 00
standard:        01 01 01 01 01 01 01 01 01 01 01 01 01 01 01 01
descriptor 1:    bc 1b 00 a0 50 20 17 30 30 20 36 00 1e b3 10 00 00 19
descriptor 2:    00 00 00 01 00 06 10 20 00 00 00 00 00 00 00 00 0a 20
descriptor 3:    00 00 00 fe 00 4c 54 4e 31 33 33 57 31 00 00 00 0a 20
descriptor 4:    00 00 00 fc 00 43 6f 6c 6f 72 20 4c 43 44 0a 20 20 20
extensions:      00
checksum:        c6

EDID version: 1.3
Manufacturer: APP Model 9c5b Serial Number --
Made in week 14 of 2006
Digital display
Maximum image size: 29 cm x 18 cm
Gamma: 2.20
RGB color display
First detailed timing is preferred timing
Display x,y Chromaticity:
  Red:   0.5800, 0.3398
  Green: 0.3095, 0.5498
  Blue:  0.1552, 0.1552
  White: 0.3134, 0.3291
Established timings supported:
Standard timings supported:
Detailed mode: Clock 71.000 MHz, 286 mm x 179 mm
               1280 1328 1360 1440 hborder 0
                800  803  809  823 vborder 0
               -hsync -vsync 
               VertFreq: 59 Hz, HorFreq: 49305 Hz
Manufacturer-specified data, tag 1
ASCII string: LTN133W1
Monitor name: Color LCD
Checksum: 0xc6 (valid)
EDID block does NOT conform to EDID 1.3!
	Missing monitor ranges
	Detailed block string not properly terminated
