edid-decode (hex):

00 ff ff ff ff ff ff 00 38 a3 2a 67 01 01 01 01
11 14 01 03 80 40 28 78 ea 52 75 ae 4f 33 b1 26
0e 50 54 bf ef 80 81 00 81 80 90 40 8b c0 95 00
a9 40 b3 00 d1 00 b0 68 00 a0 a0 40 2e 60 30 20
36 00 81 91 21 00 00 1e 00 00 00 fd 00 32 55 1f
63 1b 00 0a 20 20 20 20 20 20 00 00 00 fc 00 4c
43 44 33 30 39 30 57 51 58 69 0a 20 00 00 00 ff
00 30 34 33 30 31 31 33 34 55 41 0a 20 20 00 51

00 ff ff ff ff ff ff 00 38 a3 2a 67 01 01 01 01
11 14 01 03 80 40 28 78 ea 52 75 ae 4f 33 b1 26
0e 50 54 bf ef 80 81 00 81 80 90 40 8b c0 95 00
a9 40 b3 00 d1 00 b0 68 00 a0 a0 40 2e 60 30 20
36 00 81 91 21 00 00 1e 00 00 00 fd 00 32 55 1f
63 1b 00 0a 20 20 20 20 20 20 00 00 00 fc 00 4c
43 44 33 30 39 30 57 51 58 69 0a 20 00 00 00 ff
00 30 34 33 30 31 31 33 34 55 41 0a 20 20 00 51

----------------

Block 0, Base EDID:
  EDID Structure Version & Revision: 1.3
  Vendor & Product Identification:
    Manufacturer: NEC
    Model: 26410
    Serial Number: ...
    Made in: week 17 of 2010
  Basic Display Parameters & Features:
    Digital display
    Maximum image size: 64 cm x 40 cm
    Gamma: 2.20
    DPMS levels: Standby Suspend Off
    RGB color display
    First detailed timing is the preferred timing
  Color Characteristics:
    Red  : 0.6806, 0.3095
    Green: 0.1992, 0.6933
    Blue : 0.1494, 0.0576
    White: 0.3134, 0.3291
  Established Timings I & II:
    IBM     :   720x400    70.081663 Hz   9:5     31.467 kHz     28.320000 MHz
    DMT 0x04:   640x480    59.940476 Hz   4:3     31.469 kHz     25.175000 MHz
    Apple   :   640x480    66.666667 Hz   4:3     35.000 kHz     30.240000 MHz
    DMT 0x05:   640x480    72.808802 Hz   4:3     37.861 kHz     31.500000 MHz
    DMT 0x06:   640x480    75.000000 Hz   4:3     37.500 kHz     31.500000 MHz
    DMT 0x08:   800x600    56.250000 Hz   4:3     35.156 kHz     36.000000 MHz
    DMT 0x09:   800x600    60.316541 Hz   4:3     37.879 kHz     40.000000 MHz
    DMT 0x0a:   800x600    72.187572 Hz   4:3     48.077 kHz     50.000000 MHz
    DMT 0x0b:   800x600    75.000000 Hz   4:3     46.875 kHz     49.500000 MHz
    Apple   :   832x624    74.551266 Hz   4:3     49.726 kHz     57.284000 MHz
    DMT 0x10:  1024x768    60.003840 Hz   4:3     48.363 kHz     65.000000 MHz
    DMT 0x11:  1024x768    70.069359 Hz   4:3     56.476 kHz     75.000000 MHz
    DMT 0x12:  1024x768    75.028582 Hz   4:3     60.023 kHz     78.750000 MHz
    DMT 0x24:  1280x1024   75.024675 Hz   5:4     79.976 kHz    135.000000 MHz
    Apple   :  1152x870    75.061550 Hz 192:145   68.681 kHz    100.000000 MHz
  Standard Timings:
    DMT 0x1c:  1280x800    59.810326 Hz  16:10    49.702 kHz     83.500000 MHz
    DMT 0x23:  1280x1024   60.019740 Hz   5:4     63.981 kHz    108.000000 MHz
    DMT 0x2a:  1400x1050   59.978442 Hz   4:3     65.317 kHz    121.750000 MHz
    GTF     :  1360x765    60.000341 Hz  16:9     47.520 kHz     84.396000 MHz
    DMT 0x2f:  1440x900    59.887445 Hz  16:10    55.935 kHz    106.500000 MHz
    DMT 0x33:  1600x1200   60.000000 Hz   4:3     75.000 kHz    162.000000 MHz
    DMT 0x3a:  1680x1050   59.954250 Hz  16:10    65.290 kHz    146.250000 MHz
    DMT 0x45:  1920x1200   59.884600 Hz  16:10    74.556 kHz    193.250000 MHz
  Detailed Timing Descriptors:
    DTD 1:  2560x1600   59.859910 Hz  16:10    98.529 kHz    268.000000 MHz (641 mm x 401 mm)
                 Hfront   48 Hsync  32 Hback   80 Hpol P
                 Vfront    3 Vsync   6 Vback   37 Vpol P
    Display Range Limits:
      Monitor ranges (GTF): 50-85 Hz V, 31-99 kHz H, max dotclock 270 MHz
    Display Product Name: 'LCD3090WQXi'
    Display Product Serial Number: ...
Checksum: 0x51

----------------

Block 1, Unknown EDID Extension Block 0x00:
  00 ff ff ff ff ff ff 00 38 a3 2a 67 01 01 01 01 '........8.*g....'
  11 14 01 03 80 40 28 78 ea 52 75 ae 4f 33 b1 26 '.....@(x.Ru.O3.&'
  0e 50 54 bf ef 80 81 00 81 80 90 40 8b c0 95 00 '.PT........@....'
  a9 40 b3 00 d1 00 b0 68 00 a0 a0 40 2e 60 30 20 '.@.....h...@.`0 '
  36 00 81 91 21 00 00 1e 00 00 00 fd 00 32 55 1f '6...!........2U.'
  63 1b 00 0a 20 20 20 20 20 20 00 00 00 fc 00 4c 'c...      .....L'
  43 44 33 30 39 30 57 51 58 69 0a 20 00 00 00 ff 'CD3090WQXi. ....'
  00 30 34 33 30 31 31 33 34 55 41 0a 20 20 00 51 '.04301134UA.  .Q'
Checksum: 0x51

----------------

Warnings:

Block 0, Base EDID:
  Standard Timings: Standard Timing 1360x765 has a dubious odd vertical resolution.

Failures:

Block 1, Base EDID:
  Unknown Extension Block.
EDID:
  Base EDID: EDID specified 0 extension block(s), but found 1 extension block(s).

EDID conformity: FAIL
