
EDID (hex):
00ffffffffffff0038a32a6701010101
1712010380402878ea00f5ad5036b026
0d5054bfef808100818090408bc09500
a940b300d100b06800a0a0402e603020
360081912100001e000000fd0032551f
631b000a202020202020000000fc004c
434433303930575158690a20000000ff
00383631303037313459410a2020000f

Extracted contents:
header:          00 ff ff ff ff ff ff 00
serial number:   38 a3 2a 67 01 01 01 01 17 12
version:         01 03
basic params:    80 40 28 78 ea
chroma info:     00 f5 ad 50 36 b0 26 0d 50 54
established:     bf ef 80
standard:        81 00 81 80 90 40 8b c0 95 00 a9 40 b3 00 d1 00
descriptor 1:    b0 68 00 a0 a0 40 2e 60 30 20 36 00 81 91 21 00 00 1e
descriptor 2:    00 00 00 fd 00 32 55 1f 63 1b 00 0a 20 20 20 20 20 20
descriptor 3:    00 00 00 fc 00 4c 43 44 33 30 39 30 57 51 58 69 0a 20
descriptor 4:    00 00 00 ff 00 38 36 31 30 30 37 31 34 59 41 0a 20 20
extensions:      00
checksum:        0f

EDID version: 1.3
Manufacturer: NEC Model 672a Serial Number --
Made in week 23 of 2008
Digital display
Maximum image size: 64 cm x 40 cm
Gamma: 2.20
DPMS levels: Standby Suspend Off
RGB color display
First detailed timing is preferred timing
Display x,y Chromaticity:
  Red:   0.6757, 0.3125
  Green: 0.2109, 0.6875
  Blue:  0.1513, 0.0537
  White: 0.3134, 0.3291
Established timings supported:
  720x400@70Hz 9:5 HorFreq: 31469 Hz Clock: 28.320 MHz
  640x480@60Hz 4:3 HorFreq: 31469 Hz Clock: 25.175 MHz
  640x480@67Hz 4:3 HorFreq: 35000 Hz Clock: 30.240 MHz
  640x480@72Hz 4:3 HorFreq: 37900 Hz Clock: 31.500 MHz
  640x480@75Hz 4:3 HorFreq: 37500 Hz Clock: 31.500 MHz
  800x600@56Hz 4:3 HorFreq: 35200 Hz Clock: 36.000 MHz
  800x600@60Hz 4:3 HorFreq: 37900 Hz Clock: 40.000 MHz
  800x600@72Hz 4:3 HorFreq: 48100 Hz Clock: 50.000 MHz
  800x600@75Hz 4:3 HorFreq: 46900 Hz Clock: 49.500 MHz
  832x624@75Hz 4:3 HorFreq: 49726 Hz Clock: 57.284 MHz
  1024x768@60Hz 4:3 HorFreq: 48400 Hz Clock: 65.000 MHz
  1024x768@70Hz 4:3 HorFreq: 56500 Hz Clock: 75.000 MHz
  1024x768@75Hz 4:3 HorFreq: 60000 Hz Clock: 78.750 MHz
  1280x1024@75Hz 5:4 HorFreq: 80000 Hz Clock: 135.000 MHz
  1152x870@75Hz 192:145 HorFreq: 67500 Hz Clock: 108.000 MHz
Standard timings supported:
  1280x800@60Hz 16:10
  1280x1024@60Hz 5:4 HorFreq: 64000 Hz Clock: 108.000 MHz
  1400x1050@60Hz 4:3 HorFreq: 64700 Hz Clock: 101.000 MHz
  1360x765@60Hz 16:9
  1440x900@60Hz 16:10 HorFreq: 55500 Hz Clock: 88.750 MHz
  1600x1200@60Hz 4:3 HorFreq: 75000 Hz Clock: 162.000 MHz
  1680x1050@60Hz 16:10 HorFreq: 64700 Hz Clock: 119.000 MHz
  1920x1200@60Hz 16:10 HorFreq: 74000 Hz Clock: 154.000 MHz
Detailed mode: Clock 268.000 MHz, 641 mm x 401 mm
               2560 2608 2640 2720 hborder 0
               1600 1603 1609 1646 vborder 0
               +hsync +vsync 
               VertFreq: 59 Hz, HorFreq: 98529 Hz
Monitor ranges (GTF): 50-85Hz V, 31-99kHz H, max dotclock 270MHz
Monitor name: LCD3090WQXi
Serial number: --
Checksum: 0xf (valid)
