
EDID (hex):
00ffffffffffff00410c000000000000
00180103080000780a2fcda354459724
114647210800950081809040b3000101
010101010101023a801871382d40582c
450010090000001e662150b051001b30
4070360010090000001ea91a00a05000
16303020370005030000001a000000fc
005068696c697073204654560a20005d

Extracted contents:
header:          00 ff ff ff ff ff ff 00
serial number:   41 0c 00 00 00 00 00 00 00 18
version:         01 03
basic params:    08 00 00 78 0a
chroma info:     2f cd a3 54 45 97 24 11 46 47
established:     21 08 00
standard:        95 00 81 80 90 40 b3 00 01 01 01 01 01 01 01 01
descriptor 1:    02 3a 80 18 71 38 2d 40 58 2c 45 00 10 09 00 00 00 1e
descriptor 2:    66 21 50 b0 51 00 1b 30 40 70 36 00 10 09 00 00 00 1e
descriptor 3:    a9 1a 00 a0 50 00 16 30 30 20 37 00 05 03 00 00 00 1a
descriptor 4:    00 00 00 fc 00 50 68 69 6c 69 70 73 20 46 54 56 0a 20
extensions:      00
checksum:        5d

EDID version: 1.3
Manufacturer: PHL Model 0 Serial Number --
Made in year 2014
Analog display, Input voltage level: 0.7/0.3 V
Sync: Separate 
Image size is variable
Gamma: 2.20
RGB color display
First detailed timing is preferred timing
Display x,y Chromaticity:
  Red:   0.6367, 0.3300
  Green: 0.2724, 0.5927
  Blue:  0.1435, 0.0664
  White: 0.2763, 0.2783
Established timings supported:
  640x480@60Hz 4:3 HorFreq: 31469 Hz Clock: 25.175 MHz
  800x600@60Hz 4:3 HorFreq: 37900 Hz Clock: 40.000 MHz
  1024x768@60Hz 4:3 HorFreq: 48400 Hz Clock: 65.000 MHz
Standard timings supported:
  1440x900@60Hz 16:10 HorFreq: 55500 Hz Clock: 88.750 MHz
  1280x1024@60Hz 5:4 HorFreq: 64000 Hz Clock: 108.000 MHz
  1400x1050@60Hz 4:3 HorFreq: 64700 Hz Clock: 101.000 MHz
  1680x1050@60Hz 16:10 HorFreq: 64700 Hz Clock: 119.000 MHz
Detailed mode: Clock 148.500 MHz, 16 mm x 9 mm
               1920 2008 2052 2200 hborder 0
               1080 1084 1089 1125 vborder 0
               +hsync +vsync 
               VertFreq: 60 Hz, HorFreq: 67500 Hz
Detailed mode: Clock 85.500 MHz, 16 mm x 9 mm
               1360 1424 1536 1792 hborder 0
                768  771  777  795 vborder 0
               +hsync +vsync 
               VertFreq: 60 Hz, HorFreq: 47712 Hz
Detailed mode: Clock 68.250 MHz, 5 mm x 3 mm
               1280 1328 1360 1440 hborder 0
                768  771  778  790 vborder 0
               +hsync -vsync 
               VertFreq: 59 Hz, HorFreq: 47395 Hz
Monitor name: Philips FTV
Checksum: 0x5d (valid)
EDID block does NOT conform to EDID 1.3!
	Missing monitor ranges
