
EDID (hex):
00ffffffffffff00410c000001010101
00150103684024782a162ba3554a9b25
0f474a21080001010101010101010101
0101010101011b2150a051001e304888
3500806821000018000000ff000a2020
20202020202020202020000000fc0050
48494c495053204654560a20000000fd
00384c1e5311000a202020202020007c

Extracted contents:
header:          00 ff ff ff ff ff ff 00
serial number:   41 0c 00 00 01 01 01 01 00 15
version:         01 03
basic params:    68 40 24 78 2a
chroma info:     16 2b a3 55 4a 9b 25 0f 47 4a
established:     21 08 00
standard:        01 01 01 01 01 01 01 01 01 01 01 01 01 01 01 01
descriptor 1:    1b 21 50 a0 51 00 1e 30 48 88 35 00 80 68 21 00 00 18
descriptor 2:    00 00 00 ff 00 0a 20 20 20 20 20 20 20 20 20 20 20 20
descriptor 3:    00 00 00 fc 00 50 48 49 4c 49 50 53 20 46 54 56 0a 20
descriptor 4:    00 00 00 fd 00 38 4c 1e 53 11 00 0a 20 20 20 20 20 20
extensions:      00
checksum:        7c

EDID version: 1.3
Manufacturer: PHL Model 0 Serial Number --
Made in year 2011
Analog display, Input voltage level: 0.7/0.7 V
Sync: Separate 
Maximum image size: 64 cm x 36 cm
Gamma: 2.20
DPMS levels: Off
RGB color display
First detailed timing is preferred timing
Display x,y Chromaticity:
  Red:   0.6367, 0.3330
  Green: 0.2900, 0.6074
  Blue:  0.1445, 0.0605
  White: 0.2792, 0.2919
Established timings supported:
  640x480@60Hz 4:3 HorFreq: 31469 Hz Clock: 25.175 MHz
  800x600@60Hz 4:3 HorFreq: 37900 Hz Clock: 40.000 MHz
  1024x768@60Hz 4:3 HorFreq: 48400 Hz Clock: 65.000 MHz
Standard timings supported:
Detailed mode: Clock 84.750 MHz, 640 mm x 360 mm
               1360 1432 1568 1776 hborder 0
                768  771  776  798 vborder 0
               -hsync -vsync 
               VertFreq: 59 Hz, HorFreq: 47719 Hz
Serial number: 
-- name: PHILIPS FTV
Monitor ranges (GTF): 56-76Hz V, 30-83kHz H, max dotclock 170MHz
Checksum: 0x7c (valid)
