edid-decode (hex):

00 ff ff ff ff ff ff 00 30 e4 2e 03 00 00 00 00
00 15 01 03 80 23 13 78 0a 51 75 96 59 56 90 28
1e 50 54 00 00 00 01 01 01 01 01 01 01 01 01 01
01 01 01 01 01 01 58 1b 56 7a 50 00 10 30 30 20
35 00 59 c2 10 00 00 19 00 00 00 00 00 00 00 00
00 00 00 00 00 00 00 00 00 00 00 00 00 fe 00 4c
47 20 44 69 73 70 6c 61 79 0a 20 20 00 00 00 fe
00 4c 50 31 35 36 57 48 33 2d 54 4c 41 42 00 16

----------------

Block 0, Base EDID:
  EDID Structure Version & Revision: 1.3
  Vendor & Product Identification:
    Manufacturer: LGD
    Model: 814
    Made in: 2011
  Basic Display Parameters & Features:
    Digital display
    Maximum image size: 35 cm x 19 cm
    Gamma: 2.20
    RGB color display
    First detailed timing is preferred timing
  Color Characteristics:
    Red  : 0.5869, 0.3486
    Green: 0.3359, 0.5634
    Blue : 0.1572, 0.1201
    White: 0.3134, 0.3291
  Established Timings I & II: none
  Standard Timings: none
  Detailed Timing Descriptors:
    DTD 1:  1366x768    60.004 Hz 683:384  47.043 kHz  70.000 MHz (345 mm x 194 mm)
                 Hfront   48 Hsync  32 Hback  42 Hpol N
                 Vfront    3 Vsync   5 Vback   8 Vpol N
    Empty Descriptor
    Alphanumeric Data String: 'LG Display'
    Alphanumeric Data String: 'LP156WH3-TLAB'
Checksum: 0x16
