
EDID (hex):
00ffffffffffff0030e4f70500000000
001c010495221378062ea5a5544c9d26
0b505400000001010101010101010101
010101010101293680a070381f403020
350058c2100000190000000000000000
00000000000000000000000000fe004c
4720446973706c61790a2020000000fe
004c503135365746412d535047320077

Extracted contents:
header:          00 ff ff ff ff ff ff 00
serial number:   30 e4 f7 05 00 00 00 00 00 1c
version:         01 04
basic params:    95 22 13 78 06
chroma info:     2e a5 a5 54 4c 9d 26 0b 50 54
established:     00 00 00
standard:        01 01 01 01 01 01 01 01 01 01 01 01 01 01 01 01
descriptor 1:    29 36 80 a0 70 38 1f 40 30 20 35 00 58 c2 10 00 00 19
descriptor 2:    00 00 00 00 00 00 00 00 00 00 00 00 00 00 00 00 00 00
descriptor 3:    00 00 00 fe 00 4c 47 20 44 69 73 70 6c 61 79 0a 20 20
descriptor 4:    00 00 00 fe 00 4c 50 31 35 36 57 46 41 2d 53 50 47 32
extensions:      00
checksum:        77

EDID version: 1.4
Manufacturer: LGD Model 5f7 Serial Number --
Made in year 2018
Digital display
6 bits per primary color channel
DisplayPort interface
Maximum image size: 34 cm x 19 cm
Gamma: 2.20
Supported color formats: RGB 4:4:4
Default (sRGB) color space is primary color space
First detailed timing includes the native pixel format and preferred refresh rate
Display x,y Chromaticity:
  Red:   0.6445, 0.3300
  Green: 0.2998, 0.6152
  Blue:  0.1503, 0.0449
  White: 0.3134, 0.3291
Established timings supported:
Standard timings supported:
Detailed mode: Clock 138.650 MHz, 344 mm x 194 mm
               1920 1968 2000 2080 hborder 0
               1080 1083 1088 1111 vborder 0
               -hsync -vsync 
               VertFreq: 59 Hz, HorFreq: 66658 Hz
Manufacturer-specified data, tag 0
ASCII string: LG Display
ASCII string: LP156WFA-SPG2
Checksum: 0x77 (valid)
EDID block does NOT conform to EDID 1.4!
	sRGB is signaled, but the chromaticities do not match
	Missing name descriptor
	Missing monitor ranges
