edid-decode (hex):

00 ff ff ff ff ff ff 00 30 ae b0 40 00 00 00 00
35 13 01 03 80 23 13 78 ea 7b 95 9c 57 57 94 29
15 50 54 00 00 00 01 01 01 01 01 01 01 01 01 01
01 01 01 01 01 01 12 1b 56 64 50 00 14 30 10 22
26 00 58 c1 10 00 00 18 9c 17 56 a8 50 00 14 30
33 22 35 00 58 c1 10 00 00 18 00 00 00 0f 00 8c
09 32 8c 09 28 16 09 00 0d af 50 14 00 00 00 fe
00 4e 31 35 36 42 36 2d 4c 30 41 0a 20 20 00 6a

----------------

Block 0, Base EDID:
  EDID Structure Version & Revision: 1.3
  Vendor & Product Identification:
    Manufacturer: LEN
    Model: 16560
    Made in: week 53 of 2009
  Basic Display Parameters & Features:
    Digital display
    Maximum image size: 35 cm x 19 cm
    Gamma: 2.20
    DPMS levels: Standby Suspend Off
    RGB color display
    First detailed timing is the preferred timing
  Color Characteristics:
    Red  : 0.6103, 0.3427
    Green: 0.3417, 0.5810
    Blue : 0.1621, 0.0830
    White: 0.3134, 0.3291
  Established Timings I & II: none
  Standard Timings: none
  Detailed Timing Descriptors:
    DTD 1:  1366x768    59.989 Hz 683:384  47.271 kHz  69.300 MHz (344 mm x 193 mm)
                 Hfront   16 Hsync  34 Hback  50 Hpol N
                 Vfront    2 Vsync   6 Vback  12 Vpol N
    DTD 2:  1366x768    50.000 Hz 683:384  39.400 kHz  60.440 MHz (344 mm x 193 mm)
                 Hfront   51 Hsync  34 Hback  83 Hpol N
                 Vfront    3 Vsync   5 Vback  12 Vpol N
    Manufacturer-Specified Display Descriptor (0x0f): 00 0f 00 8c 09 32 8c 09 28 16 09 00 0d af 50 14 '.....2..(.....P.'
    Alphanumeric Data String: 'N156B6-L0A'
Checksum: 0x6a

----------------

Failures:

Block 0, Base EDID:
  Missing Display Product Name.
  Missing Display Range Limits Descriptor.

EDID conformity: FAIL
