
EDID (hex):
00ffffffffffff0030aeb04000000000
0014010380231378ea62259f5d579b25
19505400000001010101010101010101
010101010101ee1b568e500016303020
350059c2100000194d17569050001630
3020350059c2100000190000000f008c
09328c092816090030e46c02000000fe
004c503135365748322d544c42410021

Extracted contents:
header:          00 ff ff ff ff ff ff 00
serial number:   30 ae b0 40 00 00 00 00 00 14
version:         01 03
basic params:    80 23 13 78 ea
chroma info:     62 25 9f 5d 57 9b 25 19 50 54
established:     00 00 00
standard:        01 01 01 01 01 01 01 01 01 01 01 01 01 01 01 01
descriptor 1:    ee 1b 56 8e 50 00 16 30 30 20 35 00 59 c2 10 00 00 19
descriptor 2:    4d 17 56 90 50 00 16 30 30 20 35 00 59 c2 10 00 00 19
descriptor 3:    00 00 00 0f 00 8c 09 32 8c 09 28 16 09 00 30 e4 6c 02
descriptor 4:    00 00 00 fe 00 4c 50 31 35 36 57 48 32 2d 54 4c 42 41
extensions:      00
checksum:        21

EDID version: 1.3
Manufacturer: LEN Model 40b0 Serial Number --
Made in year 2010
Digital display
Maximum image size: 35 cm x 19 cm
Gamma: 2.20
DPMS levels: Standby Suspend Off
RGB color display
First detailed timing is preferred timing
Display x,y Chromaticity:
  Red:   0.6220, 0.3652
  Green: 0.3398, 0.6074
  Blue:  0.1445, 0.0996
  White: 0.3134, 0.3291
Established timings supported:
Standard timings supported:
Detailed mode: Clock 71.500 MHz, 345 mm x 194 mm
               1366 1414 1446 1508 hborder 0
                768  771  776  790 vborder 0
               -hsync -vsync 
               VertFreq: 60 Hz, HorFreq: 47413 Hz
Detailed mode: Clock 59.650 MHz, 345 mm x 194 mm
               1366 1414 1446 1510 hborder 0
                768  771  776  790 vborder 0
               -hsync -vsync 
               VertFreq: 50 Hz, HorFreq: 39503 Hz
Manufacturer-specified data, tag 15
ASCII string: LP156WH2-TLBA
Checksum: 0x21 (valid)
EDID block does NOT conform to EDID 1.3!
	Missing name descriptor
	Missing monitor ranges
