
EDID (hex):
00ffffffffffff005a6321cd01010101
22120103802f1d782a0405a556479e25
155054bfef80b300950081808140714f
314a0101010121399030621a274068b0
3600d1221100001c000000ff00523144
3038333432303530330a000000fd0037
4b1e520f000a202020202020000000fc
004e32323330772d324d0a2020200108

Extracted contents:
header:          00 ff ff ff ff ff ff 00
serial number:   5a 63 21 cd 01 01 01 01 22 12
version:         01 03
basic params:    80 2f 1d 78 2a
chroma info:     04 05 a5 56 47 9e 25 15 50 54
established:     bf ef 80
standard:        b3 00 95 00 81 80 81 40 71 4f 31 4a 01 01 01 01
descriptor 1:    21 39 90 30 62 1a 27 40 68 b0 36 00 d1 22 11 00 00 1c
descriptor 2:    00 00 00 ff 00 52 31 44 30 38 33 34 32 30 35 30 33 0a
descriptor 3:    00 00 00 fd 00 37 4b 1e 52 0f 00 0a 20 20 20 20 20 20
descriptor 4:    00 00 00 fc 00 4e 32 32 33 30 77 2d 32 4d 0a 20 20 20
extensions:      01
checksum:        08

EDID version: 1.3
Manufacturer: VSC Model cd21 Serial Number --
Made in week 34 of 2008
Digital display
Maximum image size: 47 cm x 29 cm
Gamma: 2.20
DPMS levels: Off
RGB color display
First detailed timing is preferred timing
Display x,y Chromaticity:
  Red:   0.6445, 0.3359
  Green: 0.2783, 0.6171
  Blue:  0.1445, 0.0820
  White: 0.3134, 0.3291
Established timings supported:
  720x400@70Hz 9:5 HorFreq: 31469 Hz Clock: 28.320 MHz
  640x480@60Hz 4:3 HorFreq: 31469 Hz Clock: 25.175 MHz
  640x480@67Hz 4:3 HorFreq: 35000 Hz Clock: 30.240 MHz
  640x480@72Hz 4:3 HorFreq: 37900 Hz Clock: 31.500 MHz
  640x480@75Hz 4:3 HorFreq: 37500 Hz Clock: 31.500 MHz
  800x600@56Hz 4:3 HorFreq: 35200 Hz Clock: 36.000 MHz
  800x600@60Hz 4:3 HorFreq: 37900 Hz Clock: 40.000 MHz
  800x600@72Hz 4:3 HorFreq: 48100 Hz Clock: 50.000 MHz
  800x600@75Hz 4:3 HorFreq: 46900 Hz Clock: 49.500 MHz
  832x624@75Hz 4:3 HorFreq: 49726 Hz Clock: 57.284 MHz
  1024x768@60Hz 4:3 HorFreq: 48400 Hz Clock: 65.000 MHz
  1024x768@70Hz 4:3 HorFreq: 56500 Hz Clock: 75.000 MHz
  1024x768@75Hz 4:3 HorFreq: 60000 Hz Clock: 78.750 MHz
  1280x1024@75Hz 5:4 HorFreq: 80000 Hz Clock: 135.000 MHz
  1152x870@75Hz 192:145 HorFreq: 67500 Hz Clock: 108.000 MHz
Standard timings supported:
  1680x1050@60Hz 16:10 HorFreq: 64700 Hz Clock: 119.000 MHz
  1440x900@60Hz 16:10 HorFreq: 55500 Hz Clock: 88.750 MHz
  1280x1024@60Hz 5:4 HorFreq: 64000 Hz Clock: 108.000 MHz
  1280x960@60Hz 4:3 HorFreq: 60000 Hz Clock: 108.000 MHz
  1152x864@75Hz 4:3 HorFreq: 67500 Hz Clock: 108.000 MHz
  640x480@70Hz 4:3
Detailed mode: Clock 146.250 MHz, 465 mm x 290 mm
               1680 1784 1960 2240 hborder 0
               1050 1053 1059 1089 vborder 0
               -hsync +vsync 
               VertFreq: 59 Hz, HorFreq: 65290 Hz
Serial number: --
Monitor ranges (GTF): 55-75Hz V, 30-82kHz H, max dotclock 150MHz
Monitor name: N2230w-2M
Has 1 extension blocks
Checksum: 0x8 (valid)
