edid-decode (hex):

00 ff ff ff ff ff ff 00 25 e4 cd 13 01 01 01 01
11 10 01 02 1e 29 1a 78 ea 33 37 a5 53 4b 9d 24
14 4f 54 bf ee 00 01 01 01 01 01 01 01 01 01 01
01 01 01 01 01 01 9a 29 a0 d0 51 84 22 30 50 98
36 00 9a 04 11 00 00 1c 00 00 00 fd 00 37 4b 18
3c 0b 00 0a 20 20 20 20 20 20 00 00 00 ff 00 55
38 46 30 30 30 30 32 35 35 53 52 0a 00 00 00 fc
00 4c 43 44 2d 41 44 31 39 31 58 20 20 0a 00 ca

00 ff ff ff ff ff ff 00 25 e4 cd 13 01 01 01 01
11 10 01 02 1e 29 1a 78 ea 33 37 a5 53 4b 9d 24
14 4f 54 bf ee 00 01 01 01 01 01 01 01 01 01 01
01 01 01 01 01 01 9a 29 a0 d0 51 84 22 30 50 98
36 00 9a 04 11 00 00 1c 00 00 00 fd 00 37 4b 18
3c 0b 00 0a 20 20 20 20 20 20 00 00 00 ff 00 55
38 46 30 30 30 30 32 35 35 53 52 0a 00 00 00 fc
00 4c 43 44 2d 41 44 31 39 31 58 20 20 0a 00 ca

----------------

Block 0, Base EDID:
  EDID Structure Version & Revision: 1.2
  Vendor & Product Identification:
    Manufacturer: IOD
    Model: 5069
    Serial Number: ...
    Made in: week 17 of 2006
  Basic Display Parameters & Features:
    Analog display
    Signal Level Standard: 0.700 : 0.300 : 1.000 V p-p
    Blank-to-black setup/pedestal
    Sync: Separate Composite SyncOnGreen
    Maximum image size: 41 cm x 26 cm
    Gamma: 2.20
    DPMS levels: Standby Suspend Off
    RGB color display
    First detailed timing is the preferred timing
  Color Characteristics:
    Red  : 0.6445, 0.3271
    Green: 0.2929, 0.6162
    Blue : 0.1406, 0.0810
    White: 0.3095, 0.3310
  Established Timings I & II:
    IBM     :   720x400    70.081663 Hz   9:5     31.467 kHz     28.320000 MHz
    DMT 0x04:   640x480    59.940476 Hz   4:3     31.469 kHz     25.175000 MHz
    Apple   :   640x480    66.666667 Hz   4:3     35.000 kHz     30.240000 MHz
    DMT 0x05:   640x480    72.808802 Hz   4:3     37.861 kHz     31.500000 MHz
    DMT 0x06:   640x480    75.000000 Hz   4:3     37.500 kHz     31.500000 MHz
    DMT 0x08:   800x600    56.250000 Hz   4:3     35.156 kHz     36.000000 MHz
    DMT 0x09:   800x600    60.316541 Hz   4:3     37.879 kHz     40.000000 MHz
    DMT 0x0a:   800x600    72.187572 Hz   4:3     48.077 kHz     50.000000 MHz
    DMT 0x0b:   800x600    75.000000 Hz   4:3     46.875 kHz     49.500000 MHz
    Apple   :   832x624    74.551266 Hz   4:3     49.726 kHz     57.284000 MHz
    DMT 0x10:  1024x768    60.003840 Hz   4:3     48.363 kHz     65.000000 MHz
    DMT 0x11:  1024x768    70.069359 Hz   4:3     56.476 kHz     75.000000 MHz
    DMT 0x12:  1024x768    75.028582 Hz   4:3     60.023 kHz     78.750000 MHz
  Standard Timings: none
  Detailed Timing Descriptors:
    DTD 1:  1440x900    59.887445 Hz  16:10    55.935 kHz    106.500000 MHz (410 mm x 260 mm)
                 Hfront   80 Hsync 152 Hback  232 Hpol N
                 Vfront    3 Vsync   6 Vback   25 Vpol P
    Display Range Limits:
      Monitor ranges (GTF): 55-75 Hz V, 24-60 kHz H, max dotclock 110 MHz
    Display Product Serial Number: ...
    Display Product Name: 'LCD-AD191X  '
Checksum: 0xca

----------------

Block 1, Unknown EDID Extension Block 0x00:
  00 ff ff ff ff ff ff 00 25 e4 cd 13 01 01 01 01 '........%.......'
  11 10 01 02 1e 29 1a 78 ea 33 37 a5 53 4b 9d 24 '.....).x.37.SK.$'
  14 4f 54 bf ee 00 01 01 01 01 01 01 01 01 01 01 '.OT.............'
  01 01 01 01 01 01 9a 29 a0 d0 51 84 22 30 50 98 '.......)..Q."0P.'
  36 00 9a 04 11 00 00 1c 00 00 00 fd 00 37 4b 18 '6............7K.'
  3c 0b 00 0a 20 20 20 20 20 20 00 00 00 ff 00 55 '<...      .....U'
  38 46 30 30 30 30 32 35 35 53 52 0a 00 00 00 fc '8F0000255SR.....'
  00 4c 43 44 2d 41 44 31 39 31 58 20 20 0a 00 ca '.LCD-AD191X  ...'
Checksum: 0xca

----------------

Warnings:

Block 0, Base EDID:
  EDID Structure Version & Revision: EDID 1.2 is deprecated, do not use.

Failures:

Block 0, Base EDID:
  Display Product Name: One or more trailing spaces.
Block 1, Base EDID:
  Unknown Extension Block.
EDID:
  Base EDID: EDID specified 0 extension block(s), but found 1 extension block(s).

EDID conformity: FAIL
