
EDID (hex):
00ffffffffffff001ef985006f513292
1713010308301b78eade95a3544c9926
0f5054bfef90714f81008140950081c0
b30001010101944380907238284080c8
3500d9091100001d000000fd00384b1f
5312000a202020202020000000ff0043
30383043303034343030300a000000fc
00464844323130320a202020202000fe

Extracted contents:
header:          00 ff ff ff ff ff ff 00
serial number:   1e f9 85 00 6f 51 32 92 17 13
version:         01 03
basic params:    08 30 1b 78 ea
chroma info:     de 95 a3 54 4c 99 26 0f 50 54
established:     bf ef 90
standard:        71 4f 81 00 81 40 95 00 81 c0 b3 00 01 01 01 01
descriptor 1:    94 43 80 90 72 38 28 40 80 c8 35 00 d9 09 11 00 00 1d
descriptor 2:    00 00 00 fd 00 38 4b 1f 53 12 00 0a 20 20 20 20 20 20
descriptor 3:    00 00 00 ff 00 43 30 38 30 43 30 30 34 34 30 30 30 0a
descriptor 4:    00 00 00 fc 00 46 48 44 32 31 30 32 0a 20 20 20 20 20
extensions:      00
checksum:        fe

EDID version: 1.3
Manufacturer: GWY Model 85 Serial Number --
Made in week 23 of 2009
Analog display, Input voltage level: 0.7/0.3 V
Sync: Separate 
Maximum image size: 48 cm x 27 cm
Gamma: 2.20
DPMS levels: Standby Suspend Off
RGB color display
First detailed timing is preferred timing
Display x,y Chromaticity:
  Red:   0.6396, 0.3291
  Green: 0.2998, 0.5996
  Blue:  0.1503, 0.0595
  White: 0.3134, 0.3291
Established timings supported:
  720x400@70Hz 9:5 HorFreq: 31469 Hz Clock: 28.320 MHz
  640x480@60Hz 4:3 HorFreq: 31469 Hz Clock: 25.175 MHz
  640x480@67Hz 4:3 HorFreq: 35000 Hz Clock: 30.240 MHz
  640x480@72Hz 4:3 HorFreq: 37900 Hz Clock: 31.500 MHz
  640x480@75Hz 4:3 HorFreq: 37500 Hz Clock: 31.500 MHz
  800x600@56Hz 4:3 HorFreq: 35200 Hz Clock: 36.000 MHz
  800x600@60Hz 4:3 HorFreq: 37900 Hz Clock: 40.000 MHz
  800x600@72Hz 4:3 HorFreq: 48100 Hz Clock: 50.000 MHz
  800x600@75Hz 4:3 HorFreq: 46900 Hz Clock: 49.500 MHz
  832x624@75Hz 4:3 HorFreq: 49726 Hz Clock: 57.284 MHz
  1024x768@60Hz 4:3 HorFreq: 48400 Hz Clock: 65.000 MHz
  1024x768@70Hz 4:3 HorFreq: 56500 Hz Clock: 75.000 MHz
  1024x768@75Hz 4:3 HorFreq: 60000 Hz Clock: 78.750 MHz
  1280x1024@75Hz 5:4 HorFreq: 80000 Hz Clock: 135.000 MHz
  1152x870@75Hz 192:145 HorFreq: 67500 Hz Clock: 108.000 MHz
Standard timings supported:
  1152x864@75Hz 4:3 HorFreq: 67500 Hz Clock: 108.000 MHz
  1280x800@60Hz 16:10
  1280x960@60Hz 4:3 HorFreq: 60000 Hz Clock: 108.000 MHz
  1440x900@60Hz 16:10 HorFreq: 55500 Hz Clock: 88.750 MHz
  1280x720@60Hz 16:9
  1680x1050@60Hz 16:10 HorFreq: 64700 Hz Clock: 119.000 MHz
Detailed mode: Clock 173.000 MHz, 473 mm x 265 mm
               1920 2048 2248 2576 hborder 0
               1080 1083 1088 1120 vborder 0
               -hsync +vsync 
               VertFreq: 59 Hz, HorFreq: 67158 Hz
Monitor ranges (GTF): 56-75Hz V, 31-83kHz H, max dotclock 180MHz
Serial number: --
Monitor name: FHD2102
Checksum: 0xfe (valid)
