
EDID (hex):
00ffffffffffff0010ac35404c333331
2212010380412978ea8f95ad4f32b225
0f5054a54b008180a940d100714f8100
81c0b3000101b06800a0a0402e603020
360081902100001e000000ff00473530
314838384e3133334c0a283c80a070b0
23403020360081912100001c000000fd
0031561d711c000a2020202020200011

Extracted contents:
header:          00 ff ff ff ff ff ff 00
serial number:   10 ac 35 40 4c 33 33 31 22 12
version:         01 03
basic params:    80 41 29 78 ea
chroma info:     8f 95 ad 4f 32 b2 25 0f 50 54
established:     a5 4b 00
standard:        81 80 a9 40 d1 00 71 4f 81 00 81 c0 b3 00 01 01
descriptor 1:    b0 68 00 a0 a0 40 2e 60 30 20 36 00 81 90 21 00 00 1e
descriptor 2:    00 00 00 ff 00 47 35 30 31 48 38 38 4e 31 33 33 4c 0a
descriptor 3:    28 3c 80 a0 70 b0 23 40 30 20 36 00 81 91 21 00 00 1c
descriptor 4:    00 00 00 fd 00 31 56 1d 71 1c 00 0a 20 20 20 20 20 20
extensions:      00
checksum:        11

EDID version: 1.3
Manufacturer: DEL Model 4035 Serial Number --
Made in week 34 of 2008
Digital display
Maximum image size: 65 cm x 41 cm
Gamma: 2.20
DPMS levels: Standby Suspend Off
RGB color display
First detailed timing is preferred timing
Display x,y Chromaticity:
  Red:   0.6777, 0.3085
  Green: 0.1982, 0.6982
  Blue:  0.1464, 0.0595
  White: 0.3134, 0.3291
Established timings supported:
  720x400@70Hz 9:5 HorFreq: 31469 Hz Clock: 28.320 MHz
  640x480@60Hz 4:3 HorFreq: 31469 Hz Clock: 25.175 MHz
  640x480@75Hz 4:3 HorFreq: 37500 Hz Clock: 31.500 MHz
  800x600@60Hz 4:3 HorFreq: 37900 Hz Clock: 40.000 MHz
  800x600@75Hz 4:3 HorFreq: 46900 Hz Clock: 49.500 MHz
  1024x768@60Hz 4:3 HorFreq: 48400 Hz Clock: 65.000 MHz
  1024x768@75Hz 4:3 HorFreq: 60000 Hz Clock: 78.750 MHz
  1280x1024@75Hz 5:4 HorFreq: 80000 Hz Clock: 135.000 MHz
Standard timings supported:
  1280x1024@60Hz 5:4 HorFreq: 64000 Hz Clock: 108.000 MHz
  1600x1200@60Hz 4:3 HorFreq: 75000 Hz Clock: 162.000 MHz
  1920x1200@60Hz 16:10 HorFreq: 74000 Hz Clock: 154.000 MHz
  1152x864@75Hz 4:3 HorFreq: 67500 Hz Clock: 108.000 MHz
  1280x800@60Hz 16:10
  1280x720@60Hz 16:9
  1680x1050@60Hz 16:10 HorFreq: 64700 Hz Clock: 119.000 MHz
Detailed mode: Clock 268.000 MHz, 641 mm x 400 mm
               2560 2608 2640 2720 hborder 0
               1600 1603 1609 1646 vborder 0
               +hsync +vsync 
               VertFreq: 59 Hz, HorFreq: 98529 Hz
Serial number: --
Detailed mode: Clock 154.000 MHz, 641 mm x 401 mm
               1920 1968 2000 2080 hborder 0
               1200 1203 1209 1235 vborder 0
               -hsync +vsync 
               VertFreq: 59 Hz, HorFreq: 74038 Hz
Monitor ranges (GTF): 49-86Hz V, 29-113kHz H, max dotclock 280MHz
Checksum: 0x11 (valid)
EDID block does NOT conform to EDID 1.3!
	Missing name descriptor
EDID block does not conform at all!
	Invalid detailed timing descriptor ordering
