
EDID (hex):
00ffffffffffff0026340a9058010000
1915010308301b78ea5b85a458539f26
0f5054a54b00d1c0b300a9c0818081c0
010101010101023a801871382d40582c
4500dd0c1100001e000000fc00484449
54203234572044535542000000fd0038
4c1f5210000a202020202020000000ff
00513234364545313630303334340087

Extracted contents:
header:          00 ff ff ff ff ff ff 00
serial number:   26 34 0a 90 58 01 00 00 19 15
version:         01 03
basic params:    08 30 1b 78 ea
chroma info:     5b 85 a4 58 53 9f 26 0f 50 54
established:     a5 4b 00
standard:        d1 c0 b3 00 a9 c0 81 80 81 c0 01 01 01 01 01 01
descriptor 1:    02 3a 80 18 71 38 2d 40 58 2c 45 00 dd 0c 11 00 00 1e
descriptor 2:    00 00 00 fc 00 48 44 49 54 20 32 34 57 20 44 53 55 42
descriptor 3:    00 00 00 fd 00 38 4c 1f 52 10 00 0a 20 20 20 20 20 20
descriptor 4:    00 00 00 ff 00 51 32 34 36 45 45 31 36 30 30 33 34 34
extensions:      00
checksum:        87

EDID version: 1.3
Manufacturer: IQT Model 900a Serial Number --
Made in week 25 of 2011
Analog display, Input voltage level: 0.7/0.3 V
Sync: Separate 
Maximum image size: 48 cm x 27 cm
Gamma: 2.20
DPMS levels: Standby Suspend Off
RGB color display
First detailed timing is preferred timing
Display x,y Chromaticity:
  Red:   0.6416, 0.3447
  Green: 0.3261, 0.6240
  Blue:  0.1503, 0.0585
  White: 0.3134, 0.3291
Established timings supported:
  720x400@70Hz 9:5 HorFreq: 31469 Hz Clock: 28.320 MHz
  640x480@60Hz 4:3 HorFreq: 31469 Hz Clock: 25.175 MHz
  640x480@75Hz 4:3 HorFreq: 37500 Hz Clock: 31.500 MHz
  800x600@60Hz 4:3 HorFreq: 37900 Hz Clock: 40.000 MHz
  800x600@75Hz 4:3 HorFreq: 46900 Hz Clock: 49.500 MHz
  1024x768@60Hz 4:3 HorFreq: 48400 Hz Clock: 65.000 MHz
  1024x768@75Hz 4:3 HorFreq: 60000 Hz Clock: 78.750 MHz
  1280x1024@75Hz 5:4 HorFreq: 80000 Hz Clock: 135.000 MHz
Standard timings supported:
  1920x1080@60Hz 16:9
  1680x1050@60Hz 16:10 HorFreq: 64700 Hz Clock: 119.000 MHz
  1600x900@60Hz 16:9
  1280x1024@60Hz 5:4 HorFreq: 64000 Hz Clock: 108.000 MHz
  1280x720@60Hz 16:9
Detailed mode: Clock 148.500 MHz, 477 mm x 268 mm
               1920 2008 2052 2200 hborder 0
               1080 1084 1089 1125 vborder 0
               +hsync +vsync 
               VertFreq: 60 Hz, HorFreq: 67500 Hz
Monitor ranges (GTF): 56-76Hz V, 31-82kHz H, max dotclock 160MHz
Serial number: --
Checksum: 0x87 (valid)
EDID block does NOT conform to EDID 1.3!
	Name descriptor not terminated with a newline
