edid-decode (hex):

00 ff ff ff ff ff ff 00 09 e5 b7 09 00 00 00 00
2a 1e 01 04 a5 24 14 78 03 ee 95 a3 54 4c 99 26
0f 50 54 00 00 00 01 01 01 01 01 01 01 01 01 01
01 01 01 01 01 01 64 37 80 cc 70 38 20 40 30 20
36 00 63 c8 10 00 00 1a ea 24 80 cc 70 38 20 40
30 20 36 00 63 c8 10 00 00 1a 00 00 00 00 00 00
00 00 00 00 00 00 00 00 00 00 00 00 00 00 00 02
00 0a 36 ff 0a 3c 96 14 1c 43 96 00 00 00 00 3e

00 ff ff ff ff ff ff 00 09 e5 b7 09 00 00 00 00
2a 1e 01 04 a5 24 14 78 03 ee 95 a3 54 4c 99 26
0f 50 54 00 00 00 01 01 01 01 01 01 01 01 01 01
01 01 01 01 01 01 64 37 80 cc 70 38 20 40 30 20
36 00 63 c8 10 00 00 1a ea 24 80 cc 70 38 20 40
30 20 36 00 63 c8 10 00 00 1a 00 00 00 00 00 00
00 00 00 00 00 00 00 00 00 00 00 00 00 00 00 02
00 0a 36 ff 0a 3c 96 14 1c 43 96 00 00 00 00 3e

----------------

Block 0, Base EDID:
  EDID Structure Version & Revision: 1.4
  Vendor & Product Identification:
    Manufacturer: BOE
    Model: 2487
    Made in: week 42 of 2020
  Basic Display Parameters & Features:
    Digital display
    Bits per primary color channel: 8
    DisplayPort interface
    Maximum image size: 36 cm x 20 cm
    Gamma: 2.20
    Supported color formats: RGB 4:4:4
    First detailed timing includes the native pixel format and preferred refresh rate
    Display is continuous frequency
  Color Characteristics:
    Red  : 0.6396, 0.3300
    Green: 0.2998, 0.5996
    Blue : 0.1503, 0.0595
    White: 0.3134, 0.3291
  Established Timings I & II: none
  Standard Timings: none
  Detailed Timing Descriptors:
    DTD 1:  1920x1080   60.036716 Hz  16:9     66.761 kHz    141.800000 MHz (355 mm x 200 mm)
                 Hfront   48 Hsync  32 Hback  124 Hpol P
                 Vfront    3 Vsync   6 Vback   23 Vpol N
    DTD 2:  1920x1080   40.010365 Hz  16:9     44.492 kHz     94.500000 MHz (355 mm x 200 mm)
                 Hfront   48 Hsync  32 Hback  124 Hpol P
                 Vfront    3 Vsync   6 Vback   23 Vpol N
    Empty Descriptor
    Manufacturer-Specified Display Descriptor (0x02): 00 02 00 0a 36 ff 0a 3c 96 14 1c 43 96 00 00 00 '....6..<...C....'
Checksum: 0x3e

----------------

Block 1, Unknown EDID Extension Block 0x00:
  00 ff ff ff ff ff ff 00 09 e5 b7 09 00 00 00 00 '................'
  2a 1e 01 04 a5 24 14 78 03 ee 95 a3 54 4c 99 26 '*....$.x....TL.&'
  0f 50 54 00 00 00 01 01 01 01 01 01 01 01 01 01 '.PT.............'
  01 01 01 01 01 01 64 37 80 cc 70 38 20 40 30 20 '......d7..p8 @0 '
  36 00 63 c8 10 00 00 1a ea 24 80 cc 70 38 20 40 '6.c......$..p8 @'
  30 20 36 00 63 c8 10 00 00 1a 00 00 00 00 00 00 '0 6.c...........'
  00 00 00 00 00 00 00 00 00 00 00 00 00 00 00 02 '................'
  00 0a 36 ff 0a 3c 96 14 1c 43 96 00 00 00 00 3e '..6..<...C.....>'
Checksum: 0x3e

----------------

Warnings:

Block 0, Base EDID:
  Missing Display Product Name.

Failures:

Block 0, Base EDID:
  Empty Descriptor: Use Dummy Descriptor instead of all zeroes.
  Missing Display Range Limits Descriptor.
Block 1, Base EDID:
  Unknown Extension Block.
EDID:
  Base EDID: EDID specified 0 extension block(s), but found 1 extension block(s).

EDID conformity: FAIL
