
EDID (hex):
00ffffffffffff0006afed2400000000
2d1c0104a522137802c635a356529e28
0a505400000001010101010101010101
010101010101143780b4703826406c30
aa0058c21000001a102c80b470382640
6c30aa0058c21000001a000000fe0036
43473757804231353648414e00000000
000341029e001000000a010a202000eb

Extracted contents:
header:          00 ff ff ff ff ff ff 00
serial number:   06 af ed 24 00 00 00 00 2d 1c
version:         01 04
basic params:    a5 22 13 78 02
chroma info:     c6 35 a3 56 52 9e 28 0a 50 54
established:     00 00 00
standard:        01 01 01 01 01 01 01 01 01 01 01 01 01 01 01 01
descriptor 1:    14 37 80 b4 70 38 26 40 6c 30 aa 00 58 c2 10 00 00 1a
descriptor 2:    10 2c 80 b4 70 38 26 40 6c 30 aa 00 58 c2 10 00 00 1a
descriptor 3:    00 00 00 fe 00 36 43 47 37 57 80 42 31 35 36 48 41 4e
descriptor 4:    00 00 00 00 00 03 41 02 9e 00 10 00 00 0a 01 0a 20 20
extensions:      00
checksum:        eb

EDID version: 1.4
Manufacturer: AUO Model 24ed Serial Number --
Made in week 45 of 2018
Digital display
8 bits per primary color channel
DisplayPort interface
Maximum image size: 34 cm x 19 cm
Gamma: 2.20
Supported color formats: RGB 4:4:4
First detailed timing includes the native pixel format and preferred refresh rate
Display x,y Chromaticity:
  Red:   0.6396, 0.3359
  Green: 0.3212, 0.6191
  Blue:  0.1562, 0.0419
  White: 0.3134, 0.3291
Established timings supported:
Standard timings supported:
Detailed mode: Clock 141.000 MHz, 344 mm x 194 mm
               1920 2028 2076 2100 hborder 0
               1080 1090 1100 1118 vborder 0
               +hsync -vsync 
               VertFreq: 60 Hz, HorFreq: 67142 Hz
Detailed mode: Clock 112.800 MHz, 344 mm x 194 mm
               1920 2028 2076 2100 hborder 0
               1080 1090 1100 1118 vborder 0
               +hsync -vsync 
               VertFreq: 48 Hz, HorFreq: 53714 Hz
ASCII string: 6CG7W
Manufacturer-specified data, tag 0
Checksum: 0xeb (valid)
EDID block does NOT conform to EDID 1.4!
	Missing name descriptor
	Missing monitor ranges
	Detailed block string not properly terminated
