edid-decode (hex):

00 ff ff ff ff ff ff 00 26 13 22 20 00 00 00 00
0a 20 01 03 80 2a 18 78 0a d7 a5 a2 59 4a 96 24
14 50 54 ad ce 00 d1 c0 b3 00 01 01 81 80 81 40
81 c0 01 01 01 01 9a 29 a0 d0 51 84 22 30 50 98
36 00 10 0a 00 00 00 1c 19 34 a0 d0 51 84 22 30
50 98 36 00 10 0a 00 00 00 1c 00 00 00 fd 00 32
4c 1e 50 10 00 0a 20 20 20 20 20 20 00 00 00 fc
00 58 59 31 39 30 0a 20 20 20 20 20 20 20 01 43

00 ff ff ff ff ff ff 00 26 13 22 20 00 00 00 00
0a 20 01 03 80 2a 18 78 0a d7 a5 a2 59 4a 96 24
14 50 54 ad ce 00 d1 c0 b3 00 01 01 81 80 81 40
81 c0 01 01 01 01 9a 29 a0 d0 51 84 22 30 50 98
36 00 10 0a 00 00 00 1c 19 34 a0 d0 51 84 22 30
50 98 36 00 10 0a 00 00 00 1c 00 00 00 fd 00 32
4c 1e 50 10 00 0a 20 20 20 20 20 20 00 00 00 fc
00 58 59 31 39 30 0a 20 20 20 20 20 20 20 01 43

----------------

Block 0, Base EDID:
  EDID Structure Version & Revision: 1.3
  Vendor & Product Identification:
    Manufacturer: IPS
    Model: 8226
    Made in: week 10 of 2022
  Basic Display Parameters & Features:
    Digital display
    Maximum image size: 42 cm x 24 cm
    Gamma: 2.20
    RGB color display
    First detailed timing is the preferred timing
  Color Characteristics:
    Red  : 0.6357, 0.3486
    Green: 0.2900, 0.5888
    Blue : 0.1425, 0.0800
    White: 0.3134, 0.3291
  Established Timings I & II:
    IBM     :   720x400    70.081663 Hz   9:5     31.467 kHz     28.320000 MHz
    DMT 0x04:   640x480    59.940476 Hz   4:3     31.469 kHz     25.175000 MHz
    DMT 0x05:   640x480    72.808802 Hz   4:3     37.861 kHz     31.500000 MHz
    DMT 0x06:   640x480    75.000000 Hz   4:3     37.500 kHz     31.500000 MHz
    DMT 0x09:   800x600    60.316541 Hz   4:3     37.879 kHz     40.000000 MHz
    DMT 0x0a:   800x600    72.187572 Hz   4:3     48.077 kHz     50.000000 MHz
    DMT 0x0b:   800x600    75.000000 Hz   4:3     46.875 kHz     49.500000 MHz
    DMT 0x10:  1024x768    60.003840 Hz   4:3     48.363 kHz     65.000000 MHz
    DMT 0x11:  1024x768    70.069359 Hz   4:3     56.476 kHz     75.000000 MHz
    DMT 0x12:  1024x768    75.028582 Hz   4:3     60.023 kHz     78.750000 MHz
  Standard Timings:
    DMT 0x52:  1920x1080   60.000000 Hz  16:9     67.500 kHz    148.500000 MHz
    DMT 0x3a:  1680x1050   59.954250 Hz  16:10    65.290 kHz    146.250000 MHz
    DMT 0x23:  1280x1024   60.019740 Hz   5:4     63.981 kHz    108.000000 MHz
    DMT 0x20:  1280x960    60.000000 Hz   4:3     60.000 kHz    108.000000 MHz
    DMT 0x55:  1280x720    60.000000 Hz  16:9     45.000 kHz     74.250000 MHz
  Detailed Timing Descriptors:
    DTD 1:  1440x900    59.887445 Hz  16:10    55.935 kHz    106.500000 MHz (16 mm x 10 mm)
                 Hfront   80 Hsync 152 Hback  232 Hpol N
                 Vfront    3 Vsync   6 Vback   25 Vpol P
    DTD 2:  1440x900    74.997076 Hz  16:10    70.047 kHz    133.370000 MHz (16 mm x 10 mm)
                 Hfront   80 Hsync 152 Hback  232 Hpol N
                 Vfront    3 Vsync   6 Vback   25 Vpol P
    Display Range Limits:
      Monitor ranges (GTF): 50-76 Hz V, 30-80 kHz H, max dotclock 160 MHz
    Display Product Name: 'XY190'
  Extension blocks: 1
Checksum: 0x43

----------------

Block 1, Unknown EDID Extension Block 0x00:
  00 ff ff ff ff ff ff 00 26 13 22 20 00 00 00 00 '........&." ....'
  0a 20 01 03 80 2a 18 78 0a d7 a5 a2 59 4a 96 24 '. ...*.x....YJ.$'
  14 50 54 ad ce 00 d1 c0 b3 00 01 01 81 80 81 40 '.PT............@'
  81 c0 01 01 01 01 9a 29 a0 d0 51 84 22 30 50 98 '.......)..Q."0P.'
  36 00 10 0a 00 00 00 1c 19 34 a0 d0 51 84 22 30 '6........4..Q."0'
  50 98 36 00 10 0a 00 00 00 1c 00 00 00 fd 00 32 'P.6............2'
  4c 1e 50 10 00 0a 20 20 20 20 20 20 00 00 00 fc 'L.P...      ....'
  00 58 59 31 39 30 0a 20 20 20 20 20 20 20 01 43 '.XY190.       .C'
Checksum: 0x43

----------------

Failures:

Block 0, Base EDID:
  Detailed Timing Descriptor #1: Mismatch of image size 16x10 mm vs display size 420x240 mm.
  Detailed Timing Descriptor #2: Mismatch of image size 16x10 mm vs display size 420x240 mm.
Block 1, Base EDID:
  Unknown Extension Block.

EDID conformity: FAIL
