
EDID (hex):
00ffffffffffff001d58040700000000
1c1e0104951f11780242a0945d5a9229
1f505400000001010101010101010101
010101010101b31d56de50001e303020
360058c21000001a0000000000000000
00000000000000000000000000fe0057
494445434f52450a20202020000000fe
0047313536454130332d4100200a00a5

Extracted contents:
header:          00 ff ff ff ff ff ff 00
serial number:   1d 58 04 07 00 00 00 00 1c 1e
version:         01 04
basic params:    95 1f 11 78 02
chroma info:     42 a0 94 5d 5a 92 29 1f 50 54
established:     00 00 00
standard:        01 01 01 01 01 01 01 01 01 01 01 01 01 01 01 01
descriptor 1:    b3 1d 56 de 50 00 1e 30 30 20 36 00 58 c2 10 00 00 1a
descriptor 2:    00 00 00 00 00 00 00 00 00 00 00 00 00 00 00 00 00 00
descriptor 3:    00 00 00 fe 00 57 49 44 45 43 4f 52 45 0a 20 20 20 20
descriptor 4:    00 00 00 fe 00 47 31 35 36 45 41 30 33 2d 41 00 20 0a
extensions:      00
checksum:        a5

EDID version: 1.4
Manufacturer: GJX Model 704 Serial Number --
Made in week 28 of 2020
Digital display
6 bits per primary color channel
DisplayPort interface
Maximum image size: 31 cm x 17 cm
Gamma: 2.20
Supported color formats: RGB 4:4:4
First detailed timing includes the native pixel format and preferred refresh rate
Display x,y Chromaticity:
  Red:   0.5791, 0.3632
  Green: 0.3515, 0.5722
  Blue:  0.1621, 0.1230
  White: 0.3125, 0.3281
Established timings supported:
Standard timings supported:
Detailed mode: Clock 76.030 MHz, 344 mm x 194 mm
               1366 1414 1446 1588 hborder 0
                768  771  777  798 vborder 0
               +hsync -vsync 
               VertFreq: 59 Hz, HorFreq: 47877 Hz
Manufacturer-specified data, tag 0
ASCII string: WIDECORE
ASCII string: G156EA03-A
Checksum: 0xa5 (valid)
EDID block does NOT conform to EDID 1.4!
	Missing name descriptor
	Missing monitor ranges
	Detailed block string not properly terminated
