
EDID (hex):
00ffffffffffff001e6d001901010101
081201031c291a782aeed5a555489b26
125054a56e00714f81c0010101010101
0101010101019a29a0d0518422305098
360098ff1000001c023a801871382d40
582c4500c48e2100001e000000fc0031
394c47333030300a20202020000000fd
00384e1f5011000a2020202020200011

Extracted contents:
header:          00 ff ff ff ff ff ff 00
serial number:   1e 6d 00 19 01 01 01 01 08 12
version:         01 03
basic params:    1c 29 1a 78 2a
chroma info:     ee d5 a5 55 48 9b 26 12 50 54
established:     a5 6e 00
standard:        71 4f 81 c0 01 01 01 01 01 01 01 01 01 01 01 01
descriptor 1:    9a 29 a0 d0 51 84 22 30 50 98 36 00 98 ff 10 00 00 1c
descriptor 2:    02 3a 80 18 71 38 2d 40 58 2c 45 00 c4 8e 21 00 00 1e
descriptor 3:    00 00 00 fc 00 31 39 4c 47 33 30 30 30 0a 20 20 20 20
descriptor 4:    00 00 00 fd 00 38 4e 1f 50 11 00 0a 20 20 20 20 20 20
extensions:      00
checksum:        11

EDID version: 1.3
Manufacturer: GSM Model 1900 Serial Number --
Made in week 8 of 2008
Analog display, Input voltage level: 0.7/0.3 V
Configurable signal levels
Sync: Separate Composite 
Maximum image size: 41 cm x 26 cm
Gamma: 2.20
DPMS levels: Off
RGB color display
First detailed timing is preferred timing
Display x,y Chromaticity:
  Red:   0.6474, 0.3339
  Green: 0.2841, 0.6074
  Blue:  0.1513, 0.0712
  White: 0.3134, 0.3291
Established timings supported:
  720x400@70Hz 9:5 HorFreq: 31469 Hz Clock: 28.320 MHz
  640x480@60Hz 4:3 HorFreq: 31469 Hz Clock: 25.175 MHz
  640x480@75Hz 4:3 HorFreq: 37500 Hz Clock: 31.500 MHz
  800x600@60Hz 4:3 HorFreq: 37900 Hz Clock: 40.000 MHz
  800x600@75Hz 4:3 HorFreq: 46900 Hz Clock: 49.500 MHz
  832x624@75Hz 4:3 HorFreq: 49726 Hz Clock: 57.284 MHz
  1024x768@60Hz 4:3 HorFreq: 48400 Hz Clock: 65.000 MHz
  1024x768@70Hz 4:3 HorFreq: 56500 Hz Clock: 75.000 MHz
  1024x768@75Hz 4:3 HorFreq: 60000 Hz Clock: 78.750 MHz
Standard timings supported:
  1152x864@75Hz 4:3 HorFreq: 67500 Hz Clock: 108.000 MHz
  1280x720@60Hz 16:9
Detailed mode: Clock 106.500 MHz, 408 mm x 255 mm
               1440 1520 1672 1904 hborder 0
                900  903  909  934 vborder 0
               -hsync +vsync 
               VertFreq: 59 Hz, HorFreq: 55934 Hz
Detailed mode: Clock 148.500 MHz, 708 mm x 398 mm
               1920 2008 2052 2200 hborder 0
               1080 1084 1089 1125 vborder 0
               +hsync +vsync 
               VertFreq: 60 Hz, HorFreq: 67500 Hz
Monitor name: 19LG3000
Monitor ranges (GTF): 56-78Hz V, 31-80kHz H, max dotclock 170MHz
Checksum: 0x11 (valid)
