edid-decode (hex):

00 ff ff ff ff ff ff 00 5c 23 14 10 33 31 32 30
17 11 01 03 81 2b 20 ff aa e6 96 a3 54 4a 99 26
0f 4f 54 bf ef 00 81 80 a9 40 31 59 45 59 61 59
81 99 01 01 01 01 48 3f 40 30 62 b0 32 40 40 c0
13 00 b0 44 11 00 00 1e 00 00 00 fd 00 38 55 1f
5c 11 00 0a 20 20 20 20 20 20 00 00 00 ff 00 37
46 43 4d 30 30 32 31 33 20 20 20 20 00 00 00 fc
00 43 69 6e 74 69 71 32 31 55 58 0a 20 20 00 65

00 ff ff ff ff ff ff 00 5c 23 14 10 33 31 32 30
17 11 01 03 81 2b 20 ff aa e6 96 a3 54 4a 99 26
0f 4f 54 bf ef 00 81 80 a9 40 31 59 45 59 61 59
81 99 01 01 01 01 48 3f 40 30 62 b0 32 40 40 c0
13 00 b0 44 11 00 00 1e 00 00 00 fd 00 38 55 1f
5c 11 00 0a 20 20 20 20 20 20 00 00 00 ff 00 37
46 43 4d 30 30 32 31 33 20 20 20 20 00 00 00 fc
00 43 69 6e 74 69 71 32 31 55 58 0a 20 20 00 65

----------------

Block 0, Base EDID:
  EDID Structure Version & Revision: 1.3
  Vendor & Product Identification:
    Manufacturer: WAC
    Model: 4116
    Serial Number: ...
    Made in: week 23 of 2007
  Basic Display Parameters & Features:
    Digital display
    DFP 1.x compatible TMDS
    Maximum image size: 43 cm x 32 cm
    Gamma is defined in an extension block
    DPMS levels: Standby Off
    RGB color display
    First detailed timing is the preferred timing
  Color Characteristics:
    Red  : 0.6396, 0.3300
    Green: 0.2900, 0.5996
    Blue : 0.1503, 0.0595
    White: 0.3095, 0.3300
  Established Timings I & II:
    IBM     :   720x400    70.081663 Hz   9:5     31.467 kHz     28.320000 MHz
    DMT 0x04:   640x480    59.940476 Hz   4:3     31.469 kHz     25.175000 MHz
    Apple   :   640x480    66.666667 Hz   4:3     35.000 kHz     30.240000 MHz
    DMT 0x05:   640x480    72.808802 Hz   4:3     37.861 kHz     31.500000 MHz
    DMT 0x06:   640x480    75.000000 Hz   4:3     37.500 kHz     31.500000 MHz
    DMT 0x08:   800x600    56.250000 Hz   4:3     35.156 kHz     36.000000 MHz
    DMT 0x09:   800x600    60.316541 Hz   4:3     37.879 kHz     40.000000 MHz
    DMT 0x0a:   800x600    72.187572 Hz   4:3     48.077 kHz     50.000000 MHz
    DMT 0x0b:   800x600    75.000000 Hz   4:3     46.875 kHz     49.500000 MHz
    Apple   :   832x624    74.551266 Hz   4:3     49.726 kHz     57.284000 MHz
    DMT 0x10:  1024x768    60.003840 Hz   4:3     48.363 kHz     65.000000 MHz
    DMT 0x11:  1024x768    70.069359 Hz   4:3     56.476 kHz     75.000000 MHz
    DMT 0x12:  1024x768    75.028582 Hz   4:3     60.023 kHz     78.750000 MHz
    DMT 0x24:  1280x1024   75.024675 Hz   5:4     79.976 kHz    135.000000 MHz
  Standard Timings:
    DMT 0x23:  1280x1024   60.019740 Hz   5:4     63.981 kHz    108.000000 MHz
    DMT 0x33:  1600x1200   60.000000 Hz   4:3     75.000 kHz    162.000000 MHz
    DMT 0x07:   640x480    85.008312 Hz   4:3     43.269 kHz     36.000000 MHz
    DMT 0x0c:   800x600    85.061274 Hz   4:3     53.674 kHz     56.250000 MHz
    DMT 0x13:  1024x768    84.996690 Hz   4:3     68.677 kHz     94.500000 MHz
    DMT 0x25:  1280x1024   85.024098 Hz   5:4     91.146 kHz    157.500000 MHz
  Detailed Timing Descriptors:
    DTD 1:  1600x1200   60.000000 Hz   4:3     75.000 kHz    162.000000 MHz (432 mm x 324 mm)
                 Hfront   64 Hsync 192 Hback  304 Hpol P
                 Vfront    1 Vsync   3 Vback   46 Vpol P
    Display Range Limits:
      Monitor ranges (GTF): 56-85 Hz V, 31-92 kHz H, max dotclock 170 MHz
    Display Product Serial Number: ...
    Display Product Name: 'Cintiq21UX'
Checksum: 0x65

----------------

Block 1, Unknown EDID Extension Block 0x00:
  00 ff ff ff ff ff ff 00 5c 23 14 10 33 31 32 30 '........\#..3120'
  17 11 01 03 81 2b 20 ff aa e6 96 a3 54 4a 99 26 '.....+ .....TJ.&'
  0f 4f 54 bf ef 00 81 80 a9 40 31 59 45 59 61 59 '.OT......@1YEYaY'
  81 99 01 01 01 01 48 3f 40 30 62 b0 32 40 40 c0 '......H?@0b.2@@.'
  13 00 b0 44 11 00 00 1e 00 00 00 fd 00 38 55 1f '...D.........8U.'
  5c 11 00 0a 20 20 20 20 20 20 00 00 00 ff 00 37 '\...      .....7'
  46 43 4d 30 30 32 31 33 20 20 20 20 00 00 00 fc 'FCM00213    ....'
  00 43 69 6e 74 69 71 32 31 55 58 0a 20 20 00 65 '.Cintiq21UX.  .e'
Checksum: 0x65

----------------

Failures:

Block 0, Base EDID:
  Display Product Serial Number: ...
Block 1, Base EDID:
  Unknown Extension Block.
EDID:
  Base EDID: EDID specified 0 extension block(s), but found 1 extension block(s).

EDID conformity: FAIL
