
EDID (hex):
00ffffffffffff004c834a5500000000
00190104a51d1178ea28659759548e27
1e505400000001010101010101010101
010101010101293680a070381f403020
250025a5100000190000000f00000000
00000000003782054600000000fe0053
414d53554e470a204c83484c000000fe
00313333484c30382d3830320a2000c1

edid-decode (hex):

00 ff ff ff ff ff ff 00 4c 83 4a 55 00 00 00 00
00 19 01 04 a5 1d 11 78 ea 28 65 97 59 54 8e 27
1e 50 54 00 00 00 01 01 01 01 01 01 01 01 01 01
01 01 01 01 01 01 29 36 80 a0 70 38 1f 40 30 20
25 00 25 a5 10 00 00 19 00 00 00 0f 00 00 00 00
00 00 00 00 00 37 82 05 46 00 00 00 00 fe 00 53
41 4d 53 55 4e 47 0a 20 4c 83 48 4c 00 00 00 fe
00 31 33 33 48 4c 30 38 2d 38 30 32 0a 20 00 c1

----------------

Block 0, Base EDID:
  EDID Structure Version & Revision: 1.4
  Vendor & Product Identification:
    Manufacturer: SDC
    Model: 21834
    Made in: 2015
  Basic Display Parameters & Features:
    Digital display
    Bits per primary color channel: 8
    DisplayPort interface
    Maximum image size: 29 cm x 17 cm
    Gamma: 2.20
    DPMS levels: Standby Suspend Off
    Supported color formats: RGB 4:4:4, YCrCb 4:4:4
    First detailed timing includes the native pixel format and preferred refresh rate
  Color Characteristics:
    Red  : 0.5898, 0.3496
    Green: 0.3300, 0.5546
    Blue : 0.1533, 0.1191
    White: 0.3134, 0.3291
  Established Timings I & II: none
  Standard Timings: none
  Detailed Timing Descriptors:
    DTD 1:  1920x1080   59.998788 Hz  16:9     66.659 kHz    138.650000 MHz (293 mm x 165 mm)
                 Hfront   48 Hsync  32 Hback   80 Hpol N
                 Vfront    2 Vsync   5 Vback   24 Vpol N
    Manufacturer-Specified Display Descriptor (0x0f): 00 0f 00 00 00 00 00 00 00 00 00 37 82 05 46 00 '...........7..F.'
    Alphanumeric Data String: 'SAMSUNG'
    Alphanumeric Data String: '133HL08-802'
Checksum: 0xc1
