
EDID (hex):
00ffffffffffff0009e51c0a00000000
0d1f0104b52213780754a5a7544c9b26
0f505400000001010101010101010101
010101010101b99c80a0703859403020
360058c21000001a000000fd00a5a5c1
c128010a202020202020000000fe0042
4f452043510a202020202020000000fe
004e5631353646484d2d4e59380a00d7

Extracted contents:
header:          00 ff ff ff ff ff ff 00
serial number:   09 e5 1c 0a 00 00 00 00 0d 1f
version:         01 04
basic params:    b5 22 13 78 07
chroma info:     54 a5 a7 54 4c 9b 26 0f 50 54
established:     00 00 00
standard:        01 01 01 01 01 01 01 01 01 01 01 01 01 01 01 01
descriptor 1:    b9 9c 80 a0 70 38 59 40 30 20 36 00 58 c2 10 00 00 1a
descriptor 2:    00 00 00 fd 00 a5 a5 c1 c1 28 01 0a 20 20 20 20 20 20
descriptor 3:    00 00 00 fe 00 42 4f 45 20 43 51 0a 20 20 20 20 20 20
descriptor 4:    00 00 00 fe 00 4e 56 31 35 36 46 48 4d 2d 4e 59 38 0a
extensions:      00
checksum:        d7

EDID version: 1.4
Manufacturer: BOE Model a1c Serial Number --
Made in week 13 of 2021
Digital display
10 bits per primary color channel
DisplayPort interface
Maximum image size: 34 cm x 19 cm
Gamma: 2.20
Supported color formats: RGB 4:4:4
Default (sRGB) color space is primary color space
First detailed timing includes the native pixel format and preferred refresh rate
Display is continuous frequency
Display x,y Chromaticity:
  Red:   0.6533, 0.3291
  Green: 0.2978, 0.6054
  Blue:  0.1503, 0.0605
  White: 0.3134, 0.3291
Established timings supported:
Standard timings supported:
Detailed mode: Clock 401.210 MHz, 344 mm x 194 mm
               1920 1968 2000 2080 hborder 0
               1080 1083 1089 1169 vborder 0
               +hsync -vsync 
               VertFreq: 165 Hz, HorFreq: 192889 Hz
Monitor ranges (bare limits): 165-165Hz V, 193-193kHz H, max dotclock 400MHz
ASCII string: BOE CQ
ASCII string: NV156FHM-NY8
Checksum: 0xd7 (valid)
EDID block does NOT conform to EDID 1.4!
	sRGB is signaled, but the chromaticities do not match
	Missing name descriptor
Warning: One or more of the timings is out of range of the Monitor Ranges:
  Vertical Freq: 165 - 165 Hz
  Horizontal Freq: 192889 - 192889 Hz
  Maximum Clock: 401.210 MHz
