
EDID (hex):
00ffffffffffff004cf4001901000000
1c1f010380281b78ea1ec5ae4f34b126
0e50542dce0061409500010101010101
0101010101019a29a0d0518422305098
3600a5ed1000001c7f2156aa51001e30
468f3300582c2100001c000000fc0059
53440a202020202020202020000000ff
00303030303030310a2020202020011f
020310f1430301042309070783010000
641900404100263018883600720c1100
001e0000000000000000000000000000
00000000000000000000000000000000
00000000000000000000000000000000
00000000000000000000000000000000
00000000000000000000000000000000
0000000000000000000000000000001a

Extracted contents:
header:          00 ff ff ff ff ff ff 00
serial number:   4c f4 00 19 01 00 00 00 1c 1f
version:         01 03
basic params:    80 28 1b 78 ea
chroma info:     1e c5 ae 4f 34 b1 26 0e 50 54
established:     2d ce 00
standard:        61 40 95 00 01 01 01 01 01 01 01 01 01 01 01 01
descriptor 1:    9a 29 a0 d0 51 84 22 30 50 98 36 00 a5 ed 10 00 00 1c
descriptor 2:    7f 21 56 aa 51 00 1e 30 46 8f 33 00 58 2c 21 00 00 1c
descriptor 3:    00 00 00 fc 00 59 53 44 0a 20 20 20 20 20 20 20 20 20
descriptor 4:    00 00 00 ff 00 30 30 30 30 30 30 31 0a 20 20 20 20 20
extensions:      01
checksum:        1f

EDID version: 1.3
Manufacturer: SGT Model 1900 Serial Number --
Made in week 28 of 2021
Digital display
Maximum image size: 40 cm x 27 cm
Gamma: 2.20
DPMS levels: Standby Suspend Off
RGB color display
First detailed timing is preferred timing
Display x,y Chromaticity:
  Red:   0.6796, 0.3095
  Green: 0.2060, 0.6933
  Blue:  0.1513, 0.0546
  White: 0.3134, 0.3291
Established timings supported:
  640x480@60Hz 4:3 HorFreq: 31469 Hz Clock: 25.175 MHz
  640x480@72Hz 4:3 HorFreq: 37900 Hz Clock: 31.500 MHz
  640x480@75Hz 4:3 HorFreq: 37500 Hz Clock: 31.500 MHz
  800x600@60Hz 4:3 HorFreq: 37900 Hz Clock: 40.000 MHz
  800x600@72Hz 4:3 HorFreq: 48100 Hz Clock: 50.000 MHz
  800x600@75Hz 4:3 HorFreq: 46900 Hz Clock: 49.500 MHz
  1024x768@60Hz 4:3 HorFreq: 48400 Hz Clock: 65.000 MHz
  1024x768@70Hz 4:3 HorFreq: 56500 Hz Clock: 75.000 MHz
  1024x768@75Hz 4:3 HorFreq: 60000 Hz Clock: 78.750 MHz
Standard timings supported:
  1024x768@60Hz 4:3 HorFreq: 48400 Hz Clock: 65.000 MHz
  1440x900@60Hz 16:10 HorFreq: 55500 Hz Clock: 88.750 MHz
Detailed mode: Clock 106.500 MHz, 421 mm x 237 mm
               1440 1520 1672 1904 hborder 0
                900  903  909  934 vborder 0
               -hsync +vsync 
               VertFreq: 59 Hz, HorFreq: 55934 Hz
Detailed mode: Clock 85.750 MHz, 600 mm x 300 mm
               1366 1436 1579 1792 hborder 0
                768  771  774  798 vborder 0
               -hsync +vsync 
               VertFreq: 59 Hz, HorFreq: 47851 Hz
Monitor name: YSD
Serial number: --
Has 1 extension blocks
Checksum: 0x1f (valid)

CTA extension block
Extension version: 3
12 bytes of CTA data
  Video data block
    VIC   3 720x480@60Hz 16:9  HorFreq: 31469 Hz Clock: 27.000 MHz
    VIC   1 640x480@60Hz 4:3  HorFreq: 31469 Hz Clock: 25.175 MHz
    VIC   4 1280x720@60Hz 16:9  HorFreq: 45000 Hz Clock: 74.250 MHz
  Audio data block
    Linear PCM, max channels 2
      Supported sample rates (kHz): 48 44.1 32
      Supported sample sizes (bits): 24 20 16
  Speaker allocation data block
    Speaker map:
      FL/FR - Front Left/Right
Underscans PC formats by default
Basic audio support
Supports YCbCr 4:4:4
Supports YCbCr 4:2:2
1 native detailed modes
Detailed mode: Clock 65.000 MHz, 370 mm x 268 mm
               1024 1048 1184 1344 hborder 0
                768  771  777  806 vborder 0
               +hsync +vsync 
               VertFreq: 60 Hz, HorFreq: 48363 Hz
Checksum: 0x1a (valid)

EDID block does NOT conform to EDID 1.3!
	Missing monitor ranges
EDID block does not conform at all!
	Both the serial number and the serial string are set
