
EDID (hex):
00ffffffffffff0054e4022223052020
291d010380301b78aad6a5a2594a9524
14505421080071c0818081c08bc09500
0140b3010101023a801871382d40582c
4500dc0c1100001e000000fc00417274
6973743232522050726f000000100034
4743483030303036330a2020000000fd
003b3d1f46ab000a202020202020014a
020300014004e3050300000000000000
00000000000000000000000000000000
00000000000000000000000000000000
00000000000000000000000000000000
00000000000000000000000000000000
00000000000000000000000000000000
00000000000000000000000000000000
000000000000000000000000000000cb

Extracted contents:
header:          00 ff ff ff ff ff ff 00
serial number:   54 e4 02 22 23 05 20 20 29 1d
version:         01 03
basic params:    80 30 1b 78 aa
chroma info:     d6 a5 a2 59 4a 95 24 14 50 54
established:     21 08 00
standard:        71 c0 81 80 81 c0 8b c0 95 00 01 40 b3 01 01 01
descriptor 1:    02 3a 80 18 71 38 2d 40 58 2c 45 00 dc 0c 11 00 00 1e
descriptor 2:    00 00 00 fc 00 41 72 74 69 73 74 32 32 52 20 50 72 6f
descriptor 3:    00 00 00 10 00 34 47 43 48 30 30 30 30 36 33 0a 20 20
descriptor 4:    00 00 00 fd 00 3b 3d 1f 46 ab 00 0a 20 20 20 20 20 20
extensions:      01
checksum:        4a

EDID version: 1.3
Manufacturer: UGD Model 2202 Serial Number --
Made in week 41 of 2019
Digital display
Maximum image size: 48 cm x 27 cm
Gamma: 2.20
DPMS levels: Standby Off
RGB color display
First detailed timing is preferred timing
Display x,y Chromaticity:
  Red:   0.6357, 0.3486
  Green: 0.2900, 0.5839
  Blue:  0.1425, 0.0800
  White: 0.3134, 0.3291
Established timings supported:
  640x480@60Hz 4:3 HorFreq: 31469 Hz Clock: 25.175 MHz
  800x600@60Hz 4:3 HorFreq: 37900 Hz Clock: 40.000 MHz
  1024x768@60Hz 4:3 HorFreq: 48400 Hz Clock: 65.000 MHz
Standard timings supported:
  1152x648@60Hz 16:9
  1280x1024@60Hz 5:4 HorFreq: 64000 Hz Clock: 108.000 MHz
  1280x720@60Hz 16:9
  1360x765@60Hz 16:9
  1440x900@60Hz 16:10 HorFreq: 55500 Hz Clock: 88.750 MHz
  256x192@60Hz 4:3
  1680x1050@61Hz 16:10
Detailed mode: Clock 148.500 MHz, 476 mm x 268 mm
               1920 2008 2052 2200 hborder 0
               1080 1084 1089 1125 vborder 0
               +hsync +vsync 
               VertFreq: 60 Hz, HorFreq: 67500 Hz
Dummy block
Monitor ranges (GTF): 59-61Hz V, 31-70kHz H, max dotclock 1710MHz
Has 1 extension blocks
Checksum: 0x4a (valid)

CTA extension block
Extension version: 3
Checksum: 0xcb (valid)

EDID block does NOT conform to EDID 1.3!
	Name descriptor not terminated with a newline
EDID block does not conform at all!
	Dummy block filled with garbage
