
EDID (hex):
00ffffffffffff004176f3b401010101
1118010380e077780a9955ae5149b224
0d5054a1080090408180814001010101
010101010101023a801871382d40582c
450000000000001e0e1f008051001e30
4080370000000000001c000000fd0017
400f440f000a202020202020000000fc
0054484f4d534f4e2054560a20200133

Extracted contents:
header:          00 ff ff ff ff ff ff 00
serial number:   41 76 f3 b4 01 01 01 01 11 18
version:         01 03
basic params:    80 e0 77 78 0a
chroma info:     99 55 ae 51 49 b2 24 0d 50 54
established:     a1 08 00
standard:        90 40 81 80 81 40 01 01 01 01 01 01 01 01 01 01
descriptor 1:    02 3a 80 18 71 38 2d 40 58 2c 45 00 00 00 00 00 00 1e
descriptor 2:    0e 1f 00 80 51 00 1e 30 40 80 37 00 00 00 00 00 00 1c
descriptor 3:    00 00 00 fd 00 17 40 0f 44 0f 00 0a 20 20 20 20 20 20
descriptor 4:    00 00 00 fc 00 54 48 4f 4d 53 4f 4e 20 54 56 0a 20 20
extensions:      01
checksum:        33

EDID version: 1.3
Manufacturer: PKV Model b4f3 Serial Number --
Made in week 17 of 2014
Digital display
Maximum image size: 224 cm x 119 cm
Gamma: 2.20
RGB color display
First detailed timing is preferred timing
Display x,y Chromaticity:
  Red:   0.6816, 0.3173
  Green: 0.2871, 0.6962
  Blue:  0.1416, 0.0517
  White: 0.3134, 0.3291
Established timings supported:
  720x400@70Hz 9:5 HorFreq: 31469 Hz Clock: 28.320 MHz
  640x480@60Hz 4:3 HorFreq: 31469 Hz Clock: 25.175 MHz
  800x600@60Hz 4:3 HorFreq: 37900 Hz Clock: 40.000 MHz
  1024x768@60Hz 4:3 HorFreq: 48400 Hz Clock: 65.000 MHz
Standard timings supported:
  1400x1050@60Hz 4:3 HorFreq: 64700 Hz Clock: 101.000 MHz
  1280x1024@60Hz 5:4 HorFreq: 64000 Hz Clock: 108.000 MHz
  1280x960@60Hz 4:3 HorFreq: 60000 Hz Clock: 108.000 MHz
Detailed mode: Clock 148.500 MHz, 0 mm x 0 mm
               1920 2008 2052 2200 hborder 0
               1080 1084 1089 1125 vborder 0
               +hsync +vsync 
               VertFreq: 60 Hz, HorFreq: 67500 Hz
Detailed mode: Clock 79.500 MHz, 0 mm x 0 mm
               1280 1344 1472 1664 hborder 0
                768  771  778  798 vborder 0
               -hsync +vsync 
               VertFreq: 59 Hz, HorFreq: 47776 Hz
Monitor ranges (GTF): 23-64Hz V, 15-68kHz H, max dotclock 150MHz
Monitor name: THOMSON TV
Has 1 extension blocks
Checksum: 0x33 (valid)
One or more of the timings is out of range of the Monitor Ranges:
  Vertical Freq: 59 - 70 Hz
  Horizontal Freq: 31469 - 67500 Hz
  Maximum Clock: 148.500 MHz
