
EDID (hex):
00ffffffffffff0022f0552601010101
23100103802d1c78eecfb5a355499925
105054a56f804559615981c081408180
8199b30001017c2e90a0601a1e403020
3600b10f1100001a000000fd0030551e
5e11000a202020202020000000fc0048
502066323130350a20202020000000ff
00434e4b363335304b53340a202000ed

Extracted contents:
header:          00 ff ff ff ff ff ff 00
serial number:   22 f0 55 26 01 01 01 01 23 10
version:         01 03
basic params:    80 2d 1c 78 ee
chroma info:     cf b5 a3 55 49 99 25 10 50 54
established:     a5 6f 80
standard:        45 59 61 59 81 c0 81 40 81 80 81 99 b3 00 01 01
descriptor 1:    7c 2e 90 a0 60 1a 1e 40 30 20 36 00 b1 0f 11 00 00 1a
descriptor 2:    00 00 00 fd 00 30 55 1e 5e 11 00 0a 20 20 20 20 20 20
descriptor 3:    00 00 00 fc 00 48 50 20 66 32 31 30 35 0a 20 20 20 20
descriptor 4:    00 00 00 ff 00 43 4e 4b 36 33 35 30 4b 53 34 0a 20 20
extensions:      00
checksum:        ed

EDID version: 1.3
Manufacturer: HWP Model 2655 Serial Number --
Made in week 35 of 2006
Digital display
Maximum image size: 45 cm x 28 cm
Gamma: 2.20
DPMS levels: Standby Suspend Off
RGB color display
Default (sRGB) color space is primary color space
First detailed timing is preferred timing
Display x,y Chromaticity:
  Red:   0.6396, 0.3320
  Green: 0.2880, 0.6005
  Blue:  0.1464, 0.0654
  White: 0.3134, 0.3291
Established timings supported:
  720x400@70Hz 9:5 HorFreq: 31469 Hz Clock: 28.320 MHz
  640x480@60Hz 4:3 HorFreq: 31469 Hz Clock: 25.175 MHz
  640x480@75Hz 4:3 HorFreq: 37500 Hz Clock: 31.500 MHz
  800x600@60Hz 4:3 HorFreq: 37900 Hz Clock: 40.000 MHz
  800x600@75Hz 4:3 HorFreq: 46900 Hz Clock: 49.500 MHz
  832x624@75Hz 4:3 HorFreq: 49726 Hz Clock: 57.284 MHz
  1024x768@60Hz 4:3 HorFreq: 48400 Hz Clock: 65.000 MHz
  1024x768@70Hz 4:3 HorFreq: 56500 Hz Clock: 75.000 MHz
  1024x768@75Hz 4:3 HorFreq: 60000 Hz Clock: 78.750 MHz
  1280x1024@75Hz 5:4 HorFreq: 80000 Hz Clock: 135.000 MHz
  1152x870@75Hz 192:145 HorFreq: 67500 Hz Clock: 108.000 MHz
Standard timings supported:
  800x600@85Hz 4:3 HorFreq: 53700 Hz Clock: 56.250 MHz
  1024x768@85Hz 4:3 HorFreq: 68700 Hz Clock: 94.500 MHz
  1280x720@60Hz 16:9
  1280x960@60Hz 4:3 HorFreq: 60000 Hz Clock: 108.000 MHz
  1280x1024@60Hz 5:4 HorFreq: 64000 Hz Clock: 108.000 MHz
  1280x1024@85Hz 5:4 HorFreq: 91100 Hz Clock: 157.500 MHz
  1680x1050@60Hz 16:10 HorFreq: 64700 Hz Clock: 119.000 MHz
Detailed mode: Clock 119.000 MHz, 433 mm x 271 mm
               1680 1728 1760 1840 hborder 0
               1050 1053 1059 1080 vborder 0
               +hsync -vsync 
               VertFreq: 59 Hz, HorFreq: 64673 Hz
Monitor ranges (GTF): 48-85Hz V, 30-94kHz H, max dotclock 170MHz
Monitor name: HP f2105
Serial number: --
Checksum: 0xed (valid)
EDID block does NOT conform to EDID 1.3!
	sRGB is signaled, but the chromaticities do not match
