
EDID (hex):
00ffffffffffff000dc4101200000000
0d1a01036e221b78ea40949c57529226
1c5054adce1081c08100814001010101
010101010101302a009851002a403070
1300520e11000020000000fc00564741
0a202020202020202020000000fd003c
4b1e5e16000a202020202020000000ff
003030303030303030303030300a0014

Extracted contents:
header:          00 ff ff ff ff ff ff 00
serial number:   0d c4 10 12 00 00 00 00 0d 1a
version:         01 03
basic params:    6e 22 1b 78 ea
chroma info:     40 94 9c 57 52 92 26 1c 50 54
established:     ad ce 10
standard:        81 c0 81 00 81 40 01 01 01 01 01 01 01 01 01 01
descriptor 1:    30 2a 00 98 51 00 2a 40 30 70 13 00 52 0e 11 00 00 20
descriptor 2:    00 00 00 fc 00 56 47 41 0a 20 20 20 20 20 20 20 20 20
descriptor 3:    00 00 00 fd 00 3c 4b 1e 5e 16 00 0a 20 20 20 20 20 20
descriptor 4:    00 00 00 ff 00 30 30 30 30 30 30 30 30 30 30 30 30 0a
extensions:      00
checksum:        14

EDID version: 1.3
Manufacturer: CND Model 1210 Serial Number --
Made in week 13 of 2016
Analog display, Input voltage level: 0.7/0.7 V
Sync: Separate Composite SyncOnGreen 
Maximum image size: 34 cm x 27 cm
Gamma: 2.20
DPMS levels: Standby Suspend Off
RGB color display
First detailed timing is preferred timing
Display x,y Chromaticity:
  Red:   0.6103, 0.3398
  Green: 0.3203, 0.5703
  Blue:  0.1503, 0.1103
  White: 0.3134, 0.3281
Established timings supported:
  720x400@70Hz 9:5 HorFreq: 31469 Hz Clock: 28.320 MHz
  640x480@60Hz 4:3 HorFreq: 31469 Hz Clock: 25.175 MHz
  640x480@72Hz 4:3 HorFreq: 37900 Hz Clock: 31.500 MHz
  640x480@75Hz 4:3 HorFreq: 37500 Hz Clock: 31.500 MHz
  800x600@60Hz 4:3 HorFreq: 37900 Hz Clock: 40.000 MHz
  800x600@72Hz 4:3 HorFreq: 48100 Hz Clock: 50.000 MHz
  800x600@75Hz 4:3 HorFreq: 46900 Hz Clock: 49.500 MHz
  1024x768@60Hz 4:3 HorFreq: 48400 Hz Clock: 65.000 MHz
  1024x768@70Hz 4:3 HorFreq: 56500 Hz Clock: 75.000 MHz
  1024x768@75Hz 4:3 HorFreq: 60000 Hz Clock: 78.750 MHz
Standard timings supported:
  1280x720@60Hz 16:9
  1280x800@60Hz 16:10
  1280x960@60Hz 4:3 HorFreq: 60000 Hz Clock: 108.000 MHz
Detailed mode: Clock 108.000 MHz, 338 mm x 270 mm
               1280 1328 1440 1688 hborder 0
               1024 1025 1028 1066 vborder 0
               -hsync -vsync analog composite field sequential L/R
               VertFreq: 60 Hz, HorFreq: 63981 Hz
Monitor name: VGA
Monitor ranges (GTF): 60-75Hz V, 30-94kHz H, max dotclock 220MHz
Serial number: --
Checksum: 0x14 (valid)
