
EDID (hex):
00ffffffffffff004ca3573100000000
00110103802115780a87f594574f8c27
27505400000001010101010101010101
0101010101019227a09c51840c304020
33002fbe100000190000000f00000000
000000000078e6022300000000fe0057
333435430031353457310a20000000fe
00172639456991c3ff02010a2020007b

Extracted contents:
header:          00 ff ff ff ff ff ff 00
serial number:   4c a3 57 31 00 00 00 00 00 11
version:         01 03
basic params:    80 21 15 78 0a
chroma info:     87 f5 94 57 4f 8c 27 27 50 54
established:     00 00 00
standard:        01 01 01 01 01 01 01 01 01 01 01 01 01 01 01 01
descriptor 1:    92 27 a0 9c 51 84 0c 30 40 20 33 00 2f be 10 00 00 19
descriptor 2:    00 00 00 0f 00 00 00 00 00 00 00 00 00 78 e6 02 23 00
descriptor 3:    00 00 00 fe 00 57 33 34 35 43 00 31 35 34 57 31 0a 20
descriptor 4:    00 00 00 fe 00 17 26 39 45 69 91 c3 ff 02 01 0a 20 20
extensions:      00
checksum:        7b

EDID version: 1.3
Manufacturer: SEC Model 3157 Serial Number --
Made in year 2007
Digital display
Maximum image size: 33 cm x 21 cm
Gamma: 2.20
RGB color display
First detailed timing is preferred timing
Display x,y Chromaticity:
  Red:   0.5800, 0.3398
  Green: 0.3095, 0.5498
  Blue:  0.1552, 0.1552
  White: 0.3134, 0.3291
Established timings supported:
Standard timings supported:
Detailed mode: Clock 101.300 MHz, 303 mm x 190 mm
               1440 1504 1536 1852 hborder 0
                900  903  906  912 vborder 0
               -hsync -vsync 
               VertFreq: 59 Hz, HorFreq: 54697 Hz
Manufacturer-specified data, tag 15
ASCII string: W345C
ASCII string: 
Checksum: 0x7b (valid)
EDID block does NOT conform to EDID 1.3!
	Missing name descriptor
	Missing monitor ranges
	Detailed block string not properly terminated
