edid-decode (hex):

00 ff ff ff ff ff ff 00 5d 34 67 02 00 00 00 00
14 16 01 03 80 10 09 78 0a db 71 a4 55 49 99 27
13 50 54 bf ef 80 71 40 81 00 81 40 81 80 81 c0
b3 00 a9 c0 01 01 1a 36 80 a0 70 38 1f 40 30 20
35 00 a0 2b 01 00 00 18 66 21 56 aa 51 00 1e 30
46 8f 33 00 13 2b 21 00 00 1e 00 00 00 fd 00 38
4c 1e 50 11 00 0a 20 20 20 20 20 20 00 00 00 fc
00 48 44 4d 49 0a 20 20 20 20 20 20 20 20 01 bf

02 03 28 71 4e 84 06 07 05 10 03 02 07 08 20 01
02 03 3c 23 09 07 07 83 01 00 00 65 03 0c 00 10
00 8c 0a d0 8a 20 e0 2d fc 1c 80 18 71 1c 16 20
58 2c 25 00 20 c2 31 00 00 9e 02 3a 80 18 71 38
2d 40 58 2c 25 00 20 c2 31 00 00 1e 8c 0a d0 8a
20 e0 2d 10 10 3e 96 00 20 c2 31 00 00 18 8c 0a
a0 14 51 f0 16 00 8c 0a a0 14 51 f0 16 00 26 7c
43 00 58 c2 21 00 00 98 00 00 00 00 00 00 00 d2

00 ff ff ff ff ff ff 00 5d 34 67 02 00 00 00 00
14 16 01 03 80 10 09 78 0a db 71 a4 55 49 99 27
13 50 54 bf ef 80 71 40 81 00 81 40 81 80 81 c0
b3 00 a9 c0 01 01 1a 36 80 a0 70 38 1f 40 30 20
35 00 a0 2b 01 00 00 18 66 21 56 aa 51 00 1e 30
46 8f 33 00 13 2b 21 00 00 1e 00 00 00 fd 00 38
4c 1e 50 11 00 0a 20 20 20 20 20 20 00 00 00 fc
00 48 44 4d 49 0a 20 20 20 20 20 20 20 20 01 bf

02 03 28 71 4e 84 06 07 05 10 03 02 07 08 20 01
02 03 3c 23 09 07 07 83 01 00 00 65 03 0c 00 10
00 8c 0a d0 8a 20 e0 2d fc 1c 80 18 71 1c 16 20
58 2c 25 00 20 c2 31 00 00 9e 02 3a 80 18 71 38
2d 40 58 2c 25 00 20 c2 31 00 00 1e 8c 0a d0 8a
20 e0 2d 10 10 3e 96 00 20 c2 31 00 00 18 8c 0a
a0 14 51 f0 16 00 8c 0a a0 14 51 f0 16 00 26 7c
43 00 58 c2 21 00 00 98 00 00 00 00 00 00 00 d2

----------------

Block 0, Base EDID:
  EDID Structure Version & Revision: 1.3
  Vendor & Product Identification:
    Manufacturer: WIT
    Model: 615
    Made in: week 20 of 2012
  Basic Display Parameters & Features:
    Digital display
    Maximum image size: 16 cm x 9 cm
    Gamma: 2.20
    RGB color display
    First detailed timing is the preferred timing
  Color Characteristics:
    Red  : 0.6435, 0.3330
    Green: 0.2871, 0.6005
    Blue : 0.1533, 0.0771
    White: 0.3125, 0.3291
  Established Timings I & II:
    IBM     :   720x400    70.081663 Hz   9:5     31.467 kHz     28.320000 MHz
    DMT 0x04:   640x480    59.940476 Hz   4:3     31.469 kHz     25.175000 MHz
    Apple   :   640x480    66.666667 Hz   4:3     35.000 kHz     30.240000 MHz
    DMT 0x05:   640x480    72.808802 Hz   4:3     37.861 kHz     31.500000 MHz
    DMT 0x06:   640x480    75.000000 Hz   4:3     37.500 kHz     31.500000 MHz
    DMT 0x08:   800x600    56.250000 Hz   4:3     35.156 kHz     36.000000 MHz
    DMT 0x09:   800x600    60.316541 Hz   4:3     37.879 kHz     40.000000 MHz
    DMT 0x0a:   800x600    72.187572 Hz   4:3     48.077 kHz     50.000000 MHz
    DMT 0x0b:   800x600    75.000000 Hz   4:3     46.875 kHz     49.500000 MHz
    Apple   :   832x624    74.551266 Hz   4:3     49.726 kHz     57.284000 MHz
    DMT 0x10:  1024x768    60.003840 Hz   4:3     48.363 kHz     65.000000 MHz
    DMT 0x11:  1024x768    70.069359 Hz   4:3     56.476 kHz     75.000000 MHz
    DMT 0x12:  1024x768    75.028582 Hz   4:3     60.023 kHz     78.750000 MHz
    DMT 0x24:  1280x1024   75.024675 Hz   5:4     79.976 kHz    135.000000 MHz
    Apple   :  1152x870    75.061550 Hz 192:145   68.681 kHz    100.000000 MHz
  Standard Timings:
    GTF     :  1152x864    60.000000 Hz   4:3     53.700 kHz     81.624000 MHz
    DMT 0x1c:  1280x800    59.810326 Hz  16:10    49.702 kHz     83.500000 MHz
    DMT 0x20:  1280x960    60.000000 Hz   4:3     60.000 kHz    108.000000 MHz
    DMT 0x23:  1280x1024   60.019740 Hz   5:4     63.981 kHz    108.000000 MHz
    DMT 0x55:  1280x720    60.000000 Hz  16:9     45.000 kHz     74.250000 MHz
    DMT 0x3a:  1680x1050   59.954250 Hz  16:10    65.290 kHz    146.250000 MHz
    DMT 0x53:  1600x900    60.000000 Hz  16:9     60.000 kHz    108.000000 MHz (RB)
  Detailed Timing Descriptors:
    DTD  1:  1920x1080   59.933878 Hz  16:9     66.587 kHz    138.500000 MHz (160 mm x 299 mm)
                  Hfront   48 Hsync  32 Hback   80 Hpol N
                  Vfront    3 Vsync   5 Vback   23 Vpol N
    DTD  2:  1366x768    59.789541 Hz 683:384   47.712 kHz     85.500000 MHz (531 mm x 299 mm)
                  Hfront   70 Hsync 143 Hback  213 Hpol P
                  Vfront    3 Vsync   3 Vback   24 Vpol P
    Display Range Limits:
      Monitor ranges (GTF): 56-76 Hz V, 30-80 kHz H, max dotclock 170 MHz
    Display Product Name: 'HDMI'
  Extension blocks: 1
Checksum: 0xbf

----------------

Block 1, CTA-861 Extension Block:
  Revision: 3
  Basic audio support
  Supports YCbCr 4:4:4
  Supports YCbCr 4:2:2
  Native detailed modes: 1
  Video Data Block:
    VIC   4:  1280x720    60.000000 Hz  16:9     45.000 kHz     74.250000 MHz (native)
    VIC   6:  1440x480i   59.940060 Hz   4:3     15.734 kHz     27.000000 MHz
    VIC   7:  1440x480i   59.940060 Hz  16:9     15.734 kHz     27.000000 MHz
    VIC   5:  1920x1080i  60.000000 Hz  16:9     33.750 kHz     74.250000 MHz
    VIC  16:  1920x1080   60.000000 Hz  16:9     67.500 kHz    148.500000 MHz
    VIC   3:   720x480    59.940060 Hz  16:9     31.469 kHz     27.000000 MHz
    VIC   2:   720x480    59.940060 Hz   4:3     31.469 kHz     27.000000 MHz
    VIC   7:  1440x480i   59.940060 Hz  16:9     15.734 kHz     27.000000 MHz
    VIC   8:  1440x240    60.054449 Hz   4:3     15.734 kHz     27.000000 MHz
    VIC  32:  1920x1080   24.000000 Hz  16:9     27.000 kHz     74.250000 MHz
    VIC   1:   640x480    59.940476 Hz   4:3     31.469 kHz     25.175000 MHz
    VIC   2:   720x480    59.940060 Hz   4:3     31.469 kHz     27.000000 MHz
    VIC   3:   720x480    59.940060 Hz  16:9     31.469 kHz     27.000000 MHz
    VIC  60:  1280x720    24.000000 Hz  16:9     18.000 kHz     59.400000 MHz
  Audio Data Block:
    Linear PCM:
      Max channels: 2
      Supported sample rates (kHz): 48 44.1 32
      Supported sample sizes (bits): 24 20 16
  Speaker Allocation Data Block:
    FL/FR - Front Left/Right
  Vendor-Specific Data Block (HDMI), OUI 00-0C-03:
    Source physical address: 1.0.0.0
  Speaker Allocation Data Block:
    LFE1 - Low Frequency Effects 1
    BL/BR - Back Left/Right
    LFE2 - Low Frequency Effects 2
    SiL/SiR - Side Left/Right
    TpSiL/TpSiR - Top Side Left/Right
    BtFC - Bottom Front Center
    TpLS/TpRS - Top Left/Right Surround (Deprecated for CTA-861)
  Detailed Timing Descriptors:
    DTD  3:  1920x1080i  59.959596 Hz  16:9     33.727 kHz     74.200000 MHz (800 mm x 450 mm)
                  Hfront   88 Hsync  44 Hback  148 Hpol P
                  Vfront    2 Vsync   5 Vback   15 Vpol P Vfront +0.5 Odd Field
                  Vfront    2 Vsync   5 Vback   15 Vpol P Vback  +0.5 Even Field
    DTD  4:  1920x1080   60.000000 Hz  16:9     67.500 kHz    148.500000 MHz (800 mm x 450 mm)
                  Hfront   88 Hsync  44 Hback  148 Hpol P
                  Vfront    2 Vsync   5 Vback   38 Vpol P
    DTD  5:   720x480    59.940060 Hz   3:2     31.469 kHz     27.000000 MHz (800 mm x 450 mm)
                  Hfront   16 Hsync  62 Hback   60 Hpol N
                  Vfront    9 Vsync   6 Vback   30 Vpol N
    DTD  6:  1440x240    60.054449 Hz   6:1     15.734 kHz     27.000000 MHz (four way interleaved, 337 mm x 1776 mm)
                  Hfront  140 Hsync 266 Hback -130 Hpol N
                  Vfront   26 Vsync   0 Vback  -80 Vpol P Vborder 38
                   8c 0a a0 14 51 f0 16 00 8c 0a a0 14 51 f0 16 00 26 7c '....Q.......Q...&|'
Checksum: 0xd2  Unused space in Extension Block: 15 bytes

----------------

Block 2, Unknown EDID Extension Block 0x00:
  00 ff ff ff ff ff ff 00 5d 34 67 02 00 00 00 00 '........]4g.....'
  14 16 01 03 80 10 09 78 0a db 71 a4 55 49 99 27 '.......x..q.UI.''
  13 50 54 bf ef 80 71 40 81 00 81 40 81 80 81 c0 '.PT...q@...@....'
  b3 00 a9 c0 01 01 1a 36 80 a0 70 38 1f 40 30 20 '.......6..p8.@0 '
  35 00 a0 2b 01 00 00 18 66 21 56 aa 51 00 1e 30 '5..+....f!V.Q..0'
  46 8f 33 00 13 2b 21 00 00 1e 00 00 00 fd 00 38 'F.3..+!........8'
  4c 1e 50 11 00 0a 20 20 20 20 20 20 00 00 00 fc 'L.P...      ....'
  00 48 44 4d 49 0a 20 20 20 20 20 20 20 20 01 bf '.HDMI.        ..'
Checksum: 0xbf

----------------

Block 3, CTA-861 Extension Block:
  Revision: 3
  Basic audio support
  Supports YCbCr 4:4:4
  Supports YCbCr 4:2:2
  Native detailed modes: 1
  Video Data Block:
    VIC   4:  1280x720    60.000000 Hz  16:9     45.000 kHz     74.250000 MHz (native)
    VIC   6:  1440x480i   59.940060 Hz   4:3     15.734 kHz     27.000000 MHz
    VIC   7:  1440x480i   59.940060 Hz  16:9     15.734 kHz     27.000000 MHz
    VIC   5:  1920x1080i  60.000000 Hz  16:9     33.750 kHz     74.250000 MHz
    VIC  16:  1920x1080   60.000000 Hz  16:9     67.500 kHz    148.500000 MHz
    VIC   3:   720x480    59.940060 Hz  16:9     31.469 kHz     27.000000 MHz
    VIC   2:   720x480    59.940060 Hz   4:3     31.469 kHz     27.000000 MHz
    VIC   7:  1440x480i   59.940060 Hz  16:9     15.734 kHz     27.000000 MHz
    VIC   8:  1440x240    60.054449 Hz   4:3     15.734 kHz     27.000000 MHz
    VIC  32:  1920x1080   24.000000 Hz  16:9     27.000 kHz     74.250000 MHz
    VIC   1:   640x480    59.940476 Hz   4:3     31.469 kHz     25.175000 MHz
    VIC   2:   720x480    59.940060 Hz   4:3     31.469 kHz     27.000000 MHz
    VIC   3:   720x480    59.940060 Hz  16:9     31.469 kHz     27.000000 MHz
    VIC  60:  1280x720    24.000000 Hz  16:9     18.000 kHz     59.400000 MHz
  Audio Data Block:
    Linear PCM:
      Max channels: 2
      Supported sample rates (kHz): 48 44.1 32
      Supported sample sizes (bits): 24 20 16
  Speaker Allocation Data Block:
    FL/FR - Front Left/Right
  Vendor-Specific Data Block (HDMI), OUI 00-0C-03:
    Source physical address: 1.0.0.0
  Speaker Allocation Data Block:
    LFE1 - Low Frequency Effects 1
    BL/BR - Back Left/Right
    LFE2 - Low Frequency Effects 2
    SiL/SiR - Side Left/Right
    TpSiL/TpSiR - Top Side Left/Right
    BtFC - Bottom Front Center
    TpLS/TpRS - Top Left/Right Surround (Deprecated for CTA-861)
  Detailed Timing Descriptors:
    DTD  7:  1920x1080i  59.959596 Hz  16:9     33.727 kHz     74.200000 MHz (800 mm x 450 mm)
                  Hfront   88 Hsync  44 Hback  148 Hpol P
                  Vfront    2 Vsync   5 Vback   15 Vpol P Vfront +0.5 Odd Field
                  Vfront    2 Vsync   5 Vback   15 Vpol P Vback  +0.5 Even Field
    DTD  8:  1920x1080   60.000000 Hz  16:9     67.500 kHz    148.500000 MHz (800 mm x 450 mm)
                  Hfront   88 Hsync  44 Hback  148 Hpol P
                  Vfront    2 Vsync   5 Vback   38 Vpol P
    DTD  9:   720x480    59.940060 Hz   3:2     31.469 kHz     27.000000 MHz (800 mm x 450 mm)
                  Hfront   16 Hsync  62 Hback   60 Hpol N
                  Vfront    9 Vsync   6 Vback   30 Vpol N
    DTD 10:  1440x240    60.054449 Hz   6:1     15.734 kHz     27.000000 MHz (four way interleaved, 337 mm x 1776 mm)
                  Hfront  140 Hsync 266 Hback -130 Hpol N
                  Vfront   26 Vsync   0 Vback  -80 Vpol P Vborder 38
                   8c 0a a0 14 51 f0 16 00 8c 0a a0 14 51 f0 16 00 26 7c '....Q.......Q...&|'
Checksum: 0xd2  Unused space in Extension Block: 15 bytes

----------------

Warnings:

Block 0, Base EDID:
  Basic Display Parameters & Features: Dubious maximum image size (16x9 is smaller than 10x10 cm).
Block 1, CTA-861 Extension Block:
  IT Video Formats are overscanned by default, but normally this should be underscanned.
  Detailed Timing Descriptor #4: DTD is similar but not identical to VIC 16.
  Detailed Timing Descriptor #6: The use of non-zero borders in a DTD is not recommended.
  Add a Colorimetry Data Block with the sRGB colorimetry bit set to avoid interop issues.
Block 3, CTA-861 Extension Block:
  IT Video Formats are overscanned by default, but normally this should be underscanned.
  Detailed Timing Descriptor #8: DTD is similar but not identical to VIC 16.
  Detailed Timing Descriptor #10: The use of non-zero borders in a DTD is not recommended.
  Add a Colorimetry Data Block with the sRGB colorimetry bit set to avoid interop issues.

Failures:

Block 0, Base EDID:
  Detailed Timing Descriptor #1: Mismatch of image size 160x299 mm vs display size 160x90 mm.
  Detailed Timing Descriptor #2: Mismatch of image size 531x299 mm vs display size 160x90 mm.
Block 1, CTA-861 Extension Block:
  Video Data Block: Duplicate VIC 7.
  Video Data Block: Duplicate VIC 2.
  Video Data Block: Duplicate VIC 3.
  Speaker Allocation Data Block: Only one instance of this Data Block is allowed.
  Offset is 40, but should be 46.
  Detailed Timing Descriptor #3: Mismatch of image size 800x450 mm vs display size 160x90 mm.
  Detailed Timing Descriptor #4: Mismatch of image size 800x450 mm vs display size 160x90 mm.
  Detailed Timing Descriptor #5: Mismatch of image size 800x450 mm vs display size 160x90 mm.
  Detailed Timing Descriptor #6: 0 values in the video timing:
    Horizontal Active/Blanking 1440/276
    Horizontal Frontporch/Sync Width 140/266
    Vertical Active/Blanking 240/22
    Vertical Frontporch/Sync Width 26/0
  Detailed Timing Descriptor #6: 0 or negative horizontal back porch.
  Detailed Timing Descriptor #6: 0 or negative vertical back porch.
  Detailed Timing Descriptor #6: Mismatch of image size 337x1776 mm vs display size 160x90 mm.
  Padding: Contains non-zero bytes.
  Missing VCDB, needed for Set Selectable RGB Quantization to avoid interop issues.
Block 2, Base EDID:
  Unknown Extension Block.
Block 3, CTA-861 Extension Block:
  Video Data Block: Duplicate VIC 4.
  Video Data Block: Duplicate VIC 6.
  Video Data Block: Duplicate VIC 5.
  Video Data Block: Duplicate VIC 16.
  Video Data Block: Duplicate VIC 8.
  Video Data Block: Duplicate VIC 32.
  Video Data Block: Duplicate VIC 1.
  Video Data Block: Duplicate VIC 60.
  Speaker Allocation Data Block: Only one instance of this Data Block is allowed.
  Speaker Allocation Data Block: Only one instance of this Data Block is allowed.
  Offset is 40, but should be 46.
  Detailed Timing Descriptor #7: Mismatch of image size 800x450 mm vs display size 160x90 mm.
  Detailed Timing Descriptor #8: Mismatch of image size 800x450 mm vs display size 160x90 mm.
  Detailed Timing Descriptor #9: Mismatch of image size 800x450 mm vs display size 160x90 mm.
  Detailed Timing Descriptor #10: 0 values in the video timing:
    Horizontal Active/Blanking 1440/276
    Horizontal Frontporch/Sync Width 140/266
    Vertical Active/Blanking 240/22
    Vertical Frontporch/Sync Width 26/0
  Detailed Timing Descriptor #10: 0 or negative horizontal back porch.
  Detailed Timing Descriptor #10: 0 or negative vertical back porch.
  Detailed Timing Descriptor #10: Mismatch of image size 337x1776 mm vs display size 160x90 mm.
  Padding: Contains non-zero bytes.
  Missing VCDB, needed for Set Selectable RGB Quantization to avoid interop issues.
EDID:
  Base EDID: Some timings are out of range of the Monitor Ranges:
    Vertical Freq: 24.000 - 75.062 Hz (Monitor: 56.000 - 76.000 Hz)
    Horizontal Freq: 15.734 - 79.976 kHz (Monitor: 30.000 - 80.000 kHz)
  Base EDID: The DTD max image size is 800x1776mm, which is larger than the display size 160.0x90.0mm.
  Base EDID: EDID specified 1 extension block(s), but found 3 extension block(s).
  Base EDID: EDID 1.3 requires a Block Map Extension in Block 1 if there are more than 2 blocks in the EDID.
  CTA-861: Native progressive timings are a mix of several resolutions.

EDID conformity: FAIL
