
EDID (hex):
00ffffffffffff0009e5330c00000000
12210104a50f097807ee95a3544c9926
0f505400000001010101010101010101
0101010101018a6f80a0703840403020
620c9b570000001ac53780a070384040
3020620c9b570000001a000000fd0030
788c8c1d010a202020202020000000fe
00545330373046484d2d4c55300a0040

edid-decode (hex):

00 ff ff ff ff ff ff 00 09 e5 33 0c 00 00 00 00
12 21 01 04 a5 0f 09 78 07 ee 95 a3 54 4c 99 26
0f 50 54 00 00 00 01 01 01 01 01 01 01 01 01 01
01 01 01 01 01 01 8a 6f 80 a0 70 38 40 40 30 20
62 0c 9b 57 00 00 00 1a c5 37 80 a0 70 38 40 40
30 20 62 0c 9b 57 00 00 00 1a 00 00 00 fd 00 30
78 8c 8c 1d 01 0a 20 20 20 20 20 20 00 00 00 fe
00 54 53 30 37 30 46 48 4d 2d 4c 55 30 0a 00 40

----------------

Block 0, Base EDID:
  EDID Structure Version & Revision: 1.4
  Vendor & Product Identification:
    Manufacturer: BOE
    Model: 3123
    Made in: week 18 of 2023
  Basic Display Parameters & Features:
    Digital display
    Bits per primary color channel: 8
    DisplayPort interface
    Maximum image size: 15 cm x 9 cm
    Gamma: 2.20
    Supported color formats: RGB 4:4:4
    Default (sRGB) color space is primary color space
    First detailed timing includes the native pixel format and preferred refresh rate
    Display is continuous frequency
  Color Characteristics:
    Red  : 0.6396, 0.3300
    Green: 0.2998, 0.5996
    Blue : 0.1503, 0.0595
    White: 0.3134, 0.3291
  Established Timings I & II: none
  Standard Timings: none
  Detailed Timing Descriptors:
    DTD 1:  1920x1080  119.998991 Hz  16:9    137.279 kHz    285.540000 MHz (155 mm x 87 mm)
                 Hfront   48 Hsync  32 Hback   80 Hpol P
                 Vfront   54 Vsync   2 Vback    8 Vpol N
    DTD 2:  1920x1080   59.999496 Hz  16:9     68.639 kHz    142.770000 MHz (155 mm x 87 mm)
                 Hfront   48 Hsync  32 Hback   80 Hpol P
                 Vfront   54 Vsync   2 Vback    8 Vpol N
    Display Range Limits:
      Monitor ranges (Bare Limits): 48-120 Hz V, 140-140 kHz H, max dotclock 290 MHz
    Alphanumeric Data String: 'TS070FHM-LU0'
Checksum: 0x40
