edid-decode (hex):

00 ff ff ff ff ff ff 00 09 e5 33 0c 00 00 00 00
12 21 01 04 a5 0f 09 78 07 ee 95 a3 54 4c 99 26
0f 50 54 00 00 00 01 01 01 01 01 01 01 01 01 01
01 01 01 01 01 01 8a 6f 80 a0 70 38 40 40 30 20
62 0c 9b 57 00 00 00 1a c5 37 80 a0 70 38 40 40
30 20 62 0c 9b 57 00 00 00 1a 00 00 00 fd 00 30
78 8c 8c 1d 01 0a 20 20 20 20 20 20 00 00 00 fe
00 54 53 30 37 30 46 48 4d 2d 4c 55 30 0a 00 40

00 ff ff ff ff ff ff 00 09 e5 33 0c 00 00 00 00
12 21 01 04 a5 0f 09 78 07 ee 95 a3 54 4c 99 26
0f 50 54 00 00 00 01 01 01 01 01 01 01 01 01 01
01 01 01 01 01 01 8a 6f 80 a0 70 38 40 40 30 20
62 0c 9b 57 00 00 00 1a c5 37 80 a0 70 38 40 40
30 20 62 0c 9b 57 00 00 00 1a 00 00 00 fd 00 30
78 8c 8c 1d 01 0a 20 20 20 20 20 20 00 00 00 fe
00 54 53 30 37 30 46 48 4d 2d 4c 55 30 0a 00 40

----------------

Block 0, Base EDID:
  EDID Structure Version & Revision: 1.4
  Vendor & Product Identification:
    Manufacturer: BOE
    Model: 3123
    Made in: week 18 of 2023
  Basic Display Parameters & Features:
    Digital display
    Bits per primary color channel: 8
    DisplayPort interface
    Maximum image size: 15 cm x 9 cm
    Gamma: 2.20
    Supported color formats: RGB 4:4:4
    Default (sRGB) color space is primary color space
    First detailed timing includes the native pixel format and preferred refresh rate
    Display is continuous frequency
  Color Characteristics:
    Red  : 0.6396, 0.3300
    Green: 0.2998, 0.5996
    Blue : 0.1503, 0.0595
    White: 0.3134, 0.3291
  Established Timings I & II: none
  Standard Timings: none
  Detailed Timing Descriptors:
    DTD 1:  1920x1080  119.998991 Hz  16:9    137.279 kHz    285.540000 MHz (155 mm x 87 mm)
                 Hfront   48 Hsync  32 Hback   80 Hpol P
                 Vfront   54 Vsync   2 Vback    8 Vpol N
    DTD 2:  1920x1080   59.999496 Hz  16:9     68.639 kHz    142.770000 MHz (155 mm x 87 mm)
                 Hfront   48 Hsync  32 Hback   80 Hpol P
                 Vfront   54 Vsync   2 Vback    8 Vpol N
    Display Range Limits:
      Monitor ranges (Bare Limits): 48-120 Hz V, 140-140 kHz H, max dotclock 290 MHz
    Alphanumeric Data String: 'TS070FHM-LU0'
Checksum: 0x40

----------------

Block 1, Unknown EDID Extension Block 0x00:
  00 ff ff ff ff ff ff 00 09 e5 33 0c 00 00 00 00 '..........3.....'
  12 21 01 04 a5 0f 09 78 07 ee 95 a3 54 4c 99 26 '.!.....x....TL.&'
  0f 50 54 00 00 00 01 01 01 01 01 01 01 01 01 01 '.PT.............'
  01 01 01 01 01 01 8a 6f 80 a0 70 38 40 40 30 20 '.......o..p8@@0 '
  62 0c 9b 57 00 00 00 1a c5 37 80 a0 70 38 40 40 'b..W.....7..p8@@'
  30 20 62 0c 9b 57 00 00 00 1a 00 00 00 fd 00 30 '0 b..W.........0'
  78 8c 8c 1d 01 0a 20 20 20 20 20 20 00 00 00 fe 'x.....      ....'
  00 54 53 30 37 30 46 48 4d 2d 4c 55 30 0a 00 40 '.TS070FHM-LU0..@'
Checksum: 0x40

----------------

Warnings:

Block 0, Base EDID:
  Basic Display Parameters & Features: Dubious maximum image size (15x9 is smaller than 10x10 cm).
  Missing Display Product Name.
EDID:
  Base EDID: Some timings are out of range of the Monitor Ranges:
    Horizontal Freq: 68.639 - 137.278 kHz (Monitor: 140.000 - 140.000 kHz)

Failures:

Block 0, Base EDID:
  Basic Display Parameters & Features: sRGB is signaled, but the chromaticities do not match.
Block 1, Base EDID:
  Unknown Extension Block.
EDID:
  Base EDID: EDID specified 0 extension block(s), but found 1 extension block(s).

EDID conformity: FAIL
