
EDID (hex):
00ffffffffffff0025e3601501000000
13200104a5231378e30cf5ae523cb923
0c5054230800714081c0814081809500
a9c0b300d1c01f3780b470382040582c
450058c11000001e000000ff00464131
46433158303330383938000000fd0030
3e54541e010a202020202020000000fc
0031354131460a202020202020200188
02031fd24c9002030405010000000000
00230907078301000065030c00100002
3a801871382d40582c450058c1100000
1e4a23a0a0508429303020350058c110
00001e00000000000000000000000000
00000000000000000000000000000000
00000000000000000000000000000000
0000000000000000000000000000003d

Extracted contents:
header:          00 ff ff ff ff ff ff 00
serial number:   25 e3 60 15 01 00 00 00 13 20
version:         01 04
basic params:    a5 23 13 78 e3
chroma info:     0c f5 ae 52 3c b9 23 0c 50 54
established:     23 08 00
standard:        71 40 81 c0 81 40 81 80 95 00 a9 c0 b3 00 d1 c0
descriptor 1:    1f 37 80 b4 70 38 20 40 58 2c 45 00 58 c1 10 00 00 1e
descriptor 2:    00 00 00 ff 00 46 41 31 46 43 31 58 30 33 30 38 39 38
descriptor 3:    00 00 00 fd 00 30 3e 54 54 1e 01 0a 20 20 20 20 20 20
descriptor 4:    00 00 00 fc 00 31 35 41 31 46 0a 20 20 20 20 20 20 20
extensions:      01
checksum:        88

EDID version: 1.4
Manufacturer: IOC Model 1560 Serial Number --
Made in week 19 of 2022
Digital display
8 bits per primary color channel
DisplayPort interface
Maximum image size: 35 cm x 19 cm
Gamma: 2.20
DPMS levels: Standby Suspend Off
Supported color formats: RGB 4:4:4
First detailed timing includes the native pixel format and preferred refresh rate
Display is continuous frequency
Display x,y Chromaticity:
  Red:   0.6796, 0.3203
  Green: 0.2373, 0.7226
  Blue:  0.1396, 0.0498
  White: 0.3134, 0.3291
Established timings supported:
  640x480@60Hz 4:3 HorFreq: 31469 Hz Clock: 25.175 MHz
  800x600@56Hz 4:3 HorFreq: 35200 Hz Clock: 36.000 MHz
  800x600@60Hz 4:3 HorFreq: 37900 Hz Clock: 40.000 MHz
  1024x768@60Hz 4:3 HorFreq: 48400 Hz Clock: 65.000 MHz
Standard timings supported:
  1152x864@60Hz 4:3
  1280x720@60Hz 16:9
  1280x960@60Hz 4:3 HorFreq: 60000 Hz Clock: 108.000 MHz
  1280x1024@60Hz 5:4 HorFreq: 64000 Hz Clock: 108.000 MHz
  1440x900@60Hz 16:10 HorFreq: 55500 Hz Clock: 88.750 MHz
  1600x900@60Hz 16:9
  1680x1050@60Hz 16:10 HorFreq: 64700 Hz Clock: 119.000 MHz
  1920x1080@60Hz 16:9
Detailed mode: Clock 141.110 MHz, 344 mm x 193 mm
               1920 2008 2052 2100 hborder 0
               1080 1084 1089 1112 vborder 0
               +hsync +vsync 
               VertFreq: 60 Hz, HorFreq: 67195 Hz
Serial number: --
Monitor ranges (bare limits): 48-62Hz V, 84-84kHz H, max dotclock 300MHz
Monitor name: 15A1F
Has 1 extension blocks
Checksum: 0x88 (valid)

CTA extension block
Extension version: 3
27 bytes of CTA data
  Video data block
    VIC  16 1920x1080@60Hz 16:9 (native) HorFreq: 67500 Hz Clock: 148.500 MHz
    VIC   2 720x480@60Hz 4:3  HorFreq: 31469 Hz Clock: 27.000 MHz
    VIC   3 720x480@60Hz 16:9  HorFreq: 31469 Hz Clock: 27.000 MHz
    VIC   4 1280x720@60Hz 16:9  HorFreq: 45000 Hz Clock: 74.250 MHz
    VIC   5 1920x1080i@60Hz 16:9  HorFreq: 33750 Hz Clock: 74.250 MHz
    VIC   1 640x480@60Hz 4:3  HorFreq: 31469 Hz Clock: 25.175 MHz
  Audio data block
    Linear PCM, max channels 2
      Supported sample rates (kHz): 48 44.1 32
      Supported sample sizes (bits): 24 20 16
  Speaker allocation data block
    Speaker map:
      FL/FR - Front Left/Right
  Vendor-specific data block, OUI 000c03 (HDMI)
    Source physical address 1.0.0.0
Underscans PC formats by default
Basic audio support
Supports YCbCr 4:2:2
2 native detailed modes
Detailed mode: Clock 148.500 MHz, 344 mm x 193 mm
               1920 2008 2052 2200 hborder 0
               1080 1084 1089 1125 vborder 0
               +hsync +vsync 
               VertFreq: 60 Hz, HorFreq: 67500 Hz
Detailed mode: Clock 90.340 MHz, 344 mm x 193 mm
               1440 1488 1520 1600 hborder 0
                900  903  908  941 vborder 0
               +hsync +vsync 
               VertFreq: 60 Hz, HorFreq: 56462 Hz
Checksum: 0x3d (valid)

Warning: One or more of the timings is out of range of the Monitor Ranges:
  Vertical Freq: 56 - 60 Hz
  Horizontal Freq: 31469 - 67500 Hz
  Maximum Clock: 148.500 MHz
EDID block does not conform at all!
	Both the serial number and the serial string are set
