edid-decode (hex):

00 ff ff ff ff ff ff 00 4c a3 52 31 00 00 00 00
00 14 01 03 80 16 0d 78 ea 85 95 99 57 4f 8f 26
21 50 54 00 00 00 01 01 01 01 01 01 01 01 01 01
01 01 01 01 01 01 1b 15 00 40 41 58 46 20 18 88
36 00 df 7d 00 00 00 19 1b 15 00 40 41 58 46 20
18 88 36 00 df 7d 00 00 00 19 00 00 00 0f 00 62
09 3c 2c 09 3c 14 09 00 4c a3 4e 54 00 00 00 fe
00 4c 54 4e 31 30 31 4e 54 30 35 30 30 31 00 35

----------------

Block 0, Base EDID:
  EDID Structure Version & Revision: 1.3
  Vendor & Product Identification:
    Manufacturer: SEC
    Model: 12626
    Made in: 2010
  Basic Display Parameters & Features:
    Digital display
    Maximum image size: 22 cm x 13 cm
    Gamma: 2.20
    DPMS levels: Standby Suspend Off
    RGB color display
    First detailed timing is the preferred timing
  Color Characteristics:
    Red  : 0.5996, 0.3398
    Green: 0.3095, 0.5595
    Blue : 0.1503, 0.1298
    White: 0.3134, 0.3291
  Established Timings I & II: none
  Standard Timings: none
  Detailed Timing Descriptors:
    DTD 1:  1024x600    60.001333 Hz 128:75    40.201 kHz     54.030000 MHz (223 mm x 125 mm)
                 Hfront   24 Hsync 136 Hback  160 Hpol N
                 Vfront    3 Vsync   6 Vback   61 Vpol N
    DTD 2:  1024x600    60.001333 Hz 128:75    40.201 kHz     54.030000 MHz (223 mm x 125 mm)
                 Hfront   24 Hsync 136 Hback  160 Hpol N
                 Vfront    3 Vsync   6 Vback   61 Vpol N
    Manufacturer-Specified Display Descriptor (0x0f): 00 0f 00 62 09 3c 2c 09 3c 14 09 00 4c a3 4e 54 '...b.<,.<...L.NT'
    Alphanumeric Data String: 'LTN101NT05001'
Checksum: 0x35

----------------

Failures:

Block 0, Base EDID:
  Missing Display Product Name.
  Missing Display Range Limits Descriptor.

EDID conformity: FAIL
