
EDID (hex):
00ffffffffffff005a6e0a08e8060000
0d0b010108221b97e80b329c5a4d8c26
204e57bfcf00315945596159714f8180
010101010101302a009851002a403070
4300540e1100001e000000fd0038551e
500d000a202020202020000000fc004c
313741530a20202020202020000000ff
004347494d30313330313736380a0051

Extracted contents:
header:          00 ff ff ff ff ff ff 00
serial number:   5a 6e 0a 08 e8 06 00 00 0d 0b
version:         01 01
basic params:    08 22 1b 97 e8
chroma info:     0b 32 9c 5a 4d 8c 26 20 4e 57
established:     bf cf 00
standard:        31 59 45 59 61 59 71 4f 81 80 01 01 01 01 01 01
descriptor 1:    30 2a 00 98 51 00 2a 40 30 70 43 00 54 0e 11 00 00 1e
descriptor 2:    00 00 00 fd 00 38 55 1e 50 0d 00 0a 20 20 20 20 20 20
descriptor 3:    00 00 00 fc 00 4c 31 37 41 53 0a 20 20 20 20 20 20 20
descriptor 4:    00 00 00 ff 00 43 47 49 4d 30 31 33 30 31 37 36 38 0a
extensions:      00
checksum:        51

EDID version: 1.1
Manufacturer: VSN Model 80a Serial Number --
Analog display, Input voltage level: 0.7/0.3 V
Sync: Separate 
Maximum image size: 34 cm x 27 cm
Gamma: 2.51
DPMS levels: Standby Suspend Off
RGB color display
Display x,y Chromaticity:
  Red:   0.6093, 0.3515
  Green: 0.3027, 0.5498
  Blue:  0.1484, 0.1279
  White: 0.3046, 0.3417
Established timings supported:
  720x400@70Hz 9:5 HorFreq: 31469 Hz Clock: 28.320 MHz
  640x480@60Hz 4:3 HorFreq: 31469 Hz Clock: 25.175 MHz
  640x480@67Hz 4:3 HorFreq: 35000 Hz Clock: 30.240 MHz
  640x480@72Hz 4:3 HorFreq: 37900 Hz Clock: 31.500 MHz
  640x480@75Hz 4:3 HorFreq: 37500 Hz Clock: 31.500 MHz
  800x600@56Hz 4:3 HorFreq: 35200 Hz Clock: 36.000 MHz
  800x600@60Hz 4:3 HorFreq: 37900 Hz Clock: 40.000 MHz
  800x600@72Hz 4:3 HorFreq: 48100 Hz Clock: 50.000 MHz
  800x600@75Hz 4:3 HorFreq: 46900 Hz Clock: 49.500 MHz
  1024x768@60Hz 4:3 HorFreq: 48400 Hz Clock: 65.000 MHz
  1024x768@70Hz 4:3 HorFreq: 56500 Hz Clock: 75.000 MHz
  1024x768@75Hz 4:3 HorFreq: 60000 Hz Clock: 78.750 MHz
  1280x1024@75Hz 5:4 HorFreq: 80000 Hz Clock: 135.000 MHz
Standard timings supported:
  640x480@85Hz 4:3 HorFreq: 43300 Hz Clock: 36.000 MHz
  800x600@85Hz 4:3 HorFreq: 53700 Hz Clock: 56.250 MHz
  1024x768@85Hz 4:3 HorFreq: 68700 Hz Clock: 94.500 MHz
  1152x864@75Hz 4:3 HorFreq: 67500 Hz Clock: 108.000 MHz
  1280x1024@60Hz 5:4 HorFreq: 64000 Hz Clock: 108.000 MHz
Detailed mode: Clock 108.000 MHz, 340 mm x 270 mm
               1280 1328 1440 1688 hborder 0
               1024 1028 1031 1066 vborder 0
               +hsync +vsync 
               VertFreq: 60 Hz, HorFreq: 63981 Hz
Monitor ranges (GTF): 56-85Hz V, 30-80kHz H, max dotclock 130MHz
Monitor name: L17AS
Serial number: --
Checksum: 0x51 (valid)
EDID block does NOT conform to EDID 1.0!
	Has descriptor blocks other than detailed timings
One or more of the timings is out of range of the Monitor Ranges:
  Vertical Freq: 56 - 85 Hz
  Horizontal Freq: 31469 - 80000 Hz
  Maximum Clock: 135.000 MHz
EDID block does not conform at all!
	Bad year of manufacture
