
EDID (hex):
00ffffffffffff002163bb3600000000
291e0104951f117803ec859459579229
23505400000001010101010101010101
010101010101c61d56e250001e303020
360035ae1000001ad21756e250001e30
3020360035ae1000001a000000000000
00000000000000000000000000000000
000c3dff0c3c7d11121b7d0000000058

Extracted contents:
header:          00 ff ff ff ff ff ff 00
serial number:   21 63 bb 36 00 00 00 00 29 1e
version:         01 04
basic params:    95 1f 11 78 03
chroma info:     ec 85 94 59 57 92 29 23 50 54
established:     00 00 00
standard:        01 01 01 01 01 01 01 01 01 01 01 01 01 01 01 01
descriptor 1:    c6 1d 56 e2 50 00 1e 30 30 20 36 00 35 ae 10 00 00 1a
descriptor 2:    d2 17 56 e2 50 00 1e 30 30 20 36 00 35 ae 10 00 00 1a
descriptor 3:    00 00 00 00 00 00 00 00 00 00 00 00 00 00 00 00 00 00
descriptor 4:    00 00 00 00 00 0c 3d ff 0c 3c 7d 11 12 1b 7d 00 00 00
extensions:      00
checksum:        58

EDID version: 1.4
Manufacturer: HKC Model 36bb Serial Number --
Made in week 41 of 2020
Digital display
6 bits per primary color channel
DisplayPort interface
Maximum image size: 31 cm x 17 cm
Gamma: 2.20
Supported color formats: RGB 4:4:4
First detailed timing includes the native pixel format and preferred refresh rate
Display is continuous frequency
Display x,y Chromaticity:
  Red:   0.5810, 0.3496
  Green: 0.3427, 0.5703
  Blue:  0.1621, 0.1367
  White: 0.3134, 0.3291
Established timings supported:
Standard timings supported:
Detailed mode: Clock 76.220 MHz, 309 mm x 174 mm
               1366 1414 1446 1592 hborder 0
                768  771  777  798 vborder 0
               +hsync -vsync 
               VertFreq: 59 Hz, HorFreq: 47876 Hz
Detailed mode: Clock 60.980 MHz, 309 mm x 174 mm
               1366 1414 1446 1592 hborder 0
                768  771  777  798 vborder 0
               +hsync -vsync 
               VertFreq: 48 Hz, HorFreq: 38304 Hz
Manufacturer-specified data, tag 0
Manufacturer-specified data, tag 0
Checksum: 0x58 (valid)
EDID block does NOT conform to EDID 1.4!
	Missing name descriptor
	Missing monitor ranges
