
EDID (hex):
00ffffffffffff000dae871300000000
161c0104a51d117802ee95a3544c9926
0f505400000001010101010101010101
010101010101b43b804a713834403020
360025a510000018000000fe004e3133
334843452d4550320a20000000fe0043
4d4e0a202020202020202020000000fe
004e3133334843452d4550320a2000ef

Extracted contents:
header:          00 ff ff ff ff ff ff 00
serial number:   0d ae 87 13 00 00 00 00 16 1c
version:         01 04
basic params:    a5 1d 11 78 02
chroma info:     ee 95 a3 54 4c 99 26 0f 50 54
established:     00 00 00
standard:        01 01 01 01 01 01 01 01 01 01 01 01 01 01 01 01
descriptor 1:    b4 3b 80 4a 71 38 34 40 30 20 36 00 25 a5 10 00 00 18
descriptor 2:    00 00 00 fe 00 4e 31 33 33 48 43 45 2d 45 50 32 0a 20
descriptor 3:    00 00 00 fe 00 43 4d 4e 0a 20 20 20 20 20 20 20 20 20
descriptor 4:    00 00 00 fe 00 4e 31 33 33 48 43 45 2d 45 50 32 0a 20
extensions:      00
checksum:        ef

EDID version: 1.4
Manufacturer: CMN Model 1387 Serial Number --
Made in week 22 of 2018
Digital display
8 bits per primary color channel
DisplayPort interface
Maximum image size: 29 cm x 17 cm
Gamma: 2.20
Supported color formats: RGB 4:4:4
First detailed timing includes the native pixel format and preferred refresh rate
Display x,y Chromaticity:
  Red:   0.6396, 0.3300
  Green: 0.2998, 0.5996
  Blue:  0.1503, 0.0595
  White: 0.3134, 0.3291
Established timings supported:
Standard timings supported:
Detailed mode: Clock 152.840 MHz, 293 mm x 165 mm
               1920 1968 2000 2250 hborder 0
               1080 1083 1089 1132 vborder 0
               -hsync -vsync 
               VertFreq: 60 Hz, HorFreq: 67928 Hz
ASCII string: N133HCE-EP2
ASCII string: CMN
ASCII string: N133HCE-EP2
Checksum: 0xef (valid)
EDID block does NOT conform to EDID 1.4!
	Missing name descriptor
	Missing monitor ranges
