edid-decode (hex):

00 ff ff ff ff ff ff 00 09 e5 75 27 01 01 01 01
1f 21 01 04 b5 23 15 78 3b 82 35 a5 53 4a 9e 26
0f 50 54 bf ef 80 d1 c0 d1 fc a9 40 95 00 90 40
81 80 81 40 81 c0 d6 d6 00 a0 a0 40 55 60 30 20
35 00 59 d7 10 00 00 1e 04 74 80 18 71 38 2d 40
58 2c 35 00 59 d7 10 00 00 1e 00 00 00 fc 00 4a
35 36 30 4a 31 35 0a 20 20 20 20 20 00 00 00 fd
00 28 92 0f fa 46 01 0a 20 20 20 20 20 20 01 38

02 03 25 f2 44 01 04 10 4e e2 00 c0 23 09 1f 07
83 01 00 00 65 03 0c 00 10 00 e3 05 c0 00 e6 06
05 01 72 72 00 6b 6b 00 a0 a0 40 55 60 30 20 36
00 59 d7 10 00 00 1a d6 d6 00 a0 a0 40 55 60 30
20 35 00 59 d7 10 00 00 1e 38 61 00 a0 a0 a0 55
50 30 20 35 00 59 d7 10 00 00 1e 72 c2 00 a0 a0
a0 55 50 30 20 35 00 59 d7 10 00 00 1a d6 fb 00
a0 a0 40 2e 60 30 20 36 00 59 d7 10 00 00 1e b8

00 ff ff ff ff ff ff 00 09 e5 75 27 01 01 01 01
1f 21 01 04 b5 23 15 78 3b 82 35 a5 53 4a 9e 26
0f 50 54 bf ef 80 d1 c0 d1 fc a9 40 95 00 90 40
81 80 81 40 81 c0 d6 d6 00 a0 a0 40 55 60 30 20
35 00 59 d7 10 00 00 1e 04 74 80 18 71 38 2d 40
58 2c 35 00 59 d7 10 00 00 1e 00 00 00 fc 00 4a
35 36 30 4a 31 35 0a 20 20 20 20 20 00 00 00 fd
00 28 92 0f fa 46 01 0a 20 20 20 20 20 20 01 38

02 03 25 f2 44 01 04 10 4e e2 00 c0 23 09 1f 07
83 01 00 00 65 03 0c 00 10 00 e3 05 c0 00 e6 06
05 01 72 72 00 6b 6b 00 a0 a0 40 55 60 30 20 36
00 59 d7 10 00 00 1a d6 d6 00 a0 a0 40 55 60 30
20 35 00 59 d7 10 00 00 1e 38 61 00 a0 a0 a0 55
50 30 20 35 00 59 d7 10 00 00 1e 72 c2 00 a0 a0
a0 55 50 30 20 35 00 59 d7 10 00 00 1a d6 fb 00
a0 a0 40 2e 60 30 20 36 00 59 d7 10 00 00 1e b8

----------------

Block 0, Base EDID:
  EDID Structure Version & Revision: 1.4
  Vendor & Product Identification:
    Manufacturer: BOE
    Model: 10101
    Serial Number: ...
    Made in: week 31 of 2023
  Basic Display Parameters & Features:
    Digital display
    Bits per primary color channel: 10
    DisplayPort interface
    Maximum image size: 35 cm x 21 cm
    Gamma: 2.20
    DPMS levels: Off
    Supported color formats: RGB 4:4:4, YCrCb 4:4:4, YCrCb 4:2:2
    First detailed timing includes the native pixel format and preferred refresh rate
    Display is continuous frequency
  Color Characteristics:
    Red  : 0.6464, 0.3242
    Green: 0.2890, 0.6191
    Blue : 0.1484, 0.0615
    White: 0.3134, 0.3291
  Established Timings I & II:
    IBM     :   720x400    70.081663 Hz   9:5     31.467 kHz     28.320000 MHz
    DMT 0x04:   640x480    59.940476 Hz   4:3     31.469 kHz     25.175000 MHz
    Apple   :   640x480    66.666667 Hz   4:3     35.000 kHz     30.240000 MHz
    DMT 0x05:   640x480    72.808802 Hz   4:3     37.861 kHz     31.500000 MHz
    DMT 0x06:   640x480    75.000000 Hz   4:3     37.500 kHz     31.500000 MHz
    DMT 0x08:   800x600    56.250000 Hz   4:3     35.156 kHz     36.000000 MHz
    DMT 0x09:   800x600    60.316541 Hz   4:3     37.879 kHz     40.000000 MHz
    DMT 0x0a:   800x600    72.187572 Hz   4:3     48.077 kHz     50.000000 MHz
    DMT 0x0b:   800x600    75.000000 Hz   4:3     46.875 kHz     49.500000 MHz
    Apple   :   832x624    74.551266 Hz   4:3     49.726 kHz     57.284000 MHz
    DMT 0x10:  1024x768    60.003840 Hz   4:3     48.363 kHz     65.000000 MHz
    DMT 0x11:  1024x768    70.069359 Hz   4:3     56.476 kHz     75.000000 MHz
    DMT 0x12:  1024x768    75.028582 Hz   4:3     60.023 kHz     78.750000 MHz
    DMT 0x24:  1280x1024   75.024675 Hz   5:4     79.976 kHz    135.000000 MHz
    Apple   :  1152x870    75.061550 Hz 192:145   68.681 kHz    100.000000 MHz
  Standard Timings:
    DMT 0x52:  1920x1080   60.000000 Hz  16:9     67.500 kHz    148.500000 MHz
    GTF     :  1920x1080  119.999987 Hz  16:9    138.840 kHz    368.759000 MHz
    DMT 0x33:  1600x1200   60.000000 Hz   4:3     75.000 kHz    162.000000 MHz
    DMT 0x2f:  1440x900    59.887445 Hz  16:10    55.935 kHz    106.500000 MHz
    DMT 0x2a:  1400x1050   59.978442 Hz   4:3     65.317 kHz    121.750000 MHz
    DMT 0x23:  1280x1024   60.019740 Hz   5:4     63.981 kHz    108.000000 MHz
    DMT 0x20:  1280x960    60.000000 Hz   4:3     60.000 kHz    108.000000 MHz
    DMT 0x55:  1280x720    60.000000 Hz  16:9     45.000 kHz     74.250000 MHz
  Detailed Timing Descriptors:
    DTD  1:  2560x1600  119.999127 Hz  16:10   202.199 kHz    549.980000 MHz (345 mm x 215 mm)
                  Hfront   48 Hsync  32 Hback   80 Hpol P
                  Vfront    3 Vsync   5 Vback   77 Vpol P
    DTD  2:  1920x1080  120.000000 Hz  16:9    135.000 kHz    297.000000 MHz (345 mm x 215 mm)
                  Hfront   88 Hsync  44 Hback  148 Hpol P
                  Vfront    3 Vsync   5 Vback   37 Vpol P
    Display Product Name: 'J560J15'
    Display Range Limits:
      Monitor ranges (Bare Limits): 40-146 Hz V, 15-250 kHz H, max dotclock 700 MHz
  Extension blocks: 1
Checksum: 0x38

----------------

Block 1, CTA-861 Extension Block:
  Revision: 3
  Underscans IT Video Formats by default
  Basic audio support
  Supports YCbCr 4:4:4
  Supports YCbCr 4:2:2
  Native detailed modes: 2
  Video Data Block:
    VIC   1:   640x480    59.940476 Hz   4:3     31.469 kHz     25.175000 MHz
    VIC   4:  1280x720    60.000000 Hz  16:9     45.000 kHz     74.250000 MHz
    VIC  16:  1920x1080   60.000000 Hz  16:9     67.500 kHz    148.500000 MHz
    VIC  78:  1920x1080  120.000000 Hz  64:27   135.000 kHz    297.000000 MHz
  Video Capability Data Block:
    YCbCr quantization: Selectable (via AVI YQ)
    RGB quantization: Selectable (via AVI Q)
    PT scan behavior: No Data
    IT scan behavior: IT video formats not supported
    CE scan behavior: CE video formats not supported
  Audio Data Block:
    Linear PCM:
      Max channels: 2
      Supported sample rates (kHz): 96 88.2 48 44.1 32
      Supported sample sizes (bits): 24 20 16
  Speaker Allocation Data Block:
    FL/FR - Front Left/Right
  Vendor-Specific Data Block (HDMI), OUI 00-0C-03:
    Source physical address: 1.0.0.0
  Colorimetry Data Block:
    BT2020YCC
    BT2020RGB
  HDR Static Metadata Data Block:
    Electro optical transfer functions:
      Traditional gamma - SDR luminance range
      SMPTE ST2084
    Supported static metadata descriptors:
      Static metadata type 1
    Desired content max luminance: 114 (590.730 cd/m^2)
    Desired content max frame-average luminance: 114 (590.730 cd/m^2)
    Desired content min luminance: 0 (0.000 cd/m^2)
  Detailed Timing Descriptors:
    DTD  3:  2560x1600   59.999564 Hz  16:10   101.099 kHz    274.990000 MHz (345 mm x 215 mm)
                  Hfront   48 Hsync  32 Hback   80 Hpol P
                  Vfront    3 Vsync   6 Vback   76 Vpol N
    DTD  4:  2560x1600  119.999127 Hz  16:10   202.199 kHz    549.980000 MHz (345 mm x 215 mm)
                  Hfront   48 Hsync  32 Hback   80 Hpol P
                  Vfront    3 Vsync   5 Vback   77 Vpol P
    DTD  5:  2560x1440   60.000000 Hz  16:9     91.500 kHz    248.880000 MHz (345 mm x 215 mm)
                  Hfront   48 Hsync  32 Hback   80 Hpol P
                  Vfront    3 Vsync   5 Vback   77 Vpol P
    DTD  6:  2560x1440  120.004822 Hz  16:9    183.007 kHz    497.780000 MHz (345 mm x 215 mm)
                  Hfront   48 Hsync  32 Hback   80 Hpol P
                  Vfront    3 Vsync   5 Vback   77 Vpol N
    DTD  7:  2560x1600  143.998821 Hz  16:10   237.022 kHz    644.700000 MHz (345 mm x 215 mm)
                  Hfront   48 Hsync  32 Hback   80 Hpol P
                  Vfront    3 Vsync   6 Vback   37 Vpol P
Checksum: 0xb8

----------------

Block 2, Unknown EDID Extension Block 0x00:
  00 ff ff ff ff ff ff 00 09 e5 75 27 01 01 01 01 '..........u'....'
  1f 21 01 04 b5 23 15 78 3b 82 35 a5 53 4a 9e 26 '.!...#.x;.5.SJ.&'
  0f 50 54 bf ef 80 d1 c0 d1 fc a9 40 95 00 90 40 '.PT........@...@'
  81 80 81 40 81 c0 d6 d6 00 a0 a0 40 55 60 30 20 '...@.......@U`0 '
  35 00 59 d7 10 00 00 1e 04 74 80 18 71 38 2d 40 '5.Y......t..q8-@'
  58 2c 35 00 59 d7 10 00 00 1e 00 00 00 fc 00 4a 'X,5.Y..........J'
  35 36 30 4a 31 35 0a 20 20 20 20 20 00 00 00 fd '560J15.     ....'
  00 28 92 0f fa 46 01 0a 20 20 20 20 20 20 01 38 '.(...F..      .8'
Checksum: 0x38

----------------

Block 3, CTA-861 Extension Block:
  Revision: 3
  Underscans IT Video Formats by default
  Basic audio support
  Supports YCbCr 4:4:4
  Supports YCbCr 4:2:2
  Native detailed modes: 2
  Video Data Block:
    VIC   1:   640x480    59.940476 Hz   4:3     31.469 kHz     25.175000 MHz
    VIC   4:  1280x720    60.000000 Hz  16:9     45.000 kHz     74.250000 MHz
    VIC  16:  1920x1080   60.000000 Hz  16:9     67.500 kHz    148.500000 MHz
    VIC  78:  1920x1080  120.000000 Hz  64:27   135.000 kHz    297.000000 MHz
  Video Capability Data Block:
    YCbCr quantization: Selectable (via AVI YQ)
    RGB quantization: Selectable (via AVI Q)
    PT scan behavior: No Data
    IT scan behavior: IT video formats not supported
    CE scan behavior: CE video formats not supported
  Audio Data Block:
    Linear PCM:
      Max channels: 2
      Supported sample rates (kHz): 96 88.2 48 44.1 32
      Supported sample sizes (bits): 24 20 16
  Speaker Allocation Data Block:
    FL/FR - Front Left/Right
  Vendor-Specific Data Block (HDMI), OUI 00-0C-03:
    Source physical address: 1.0.0.0
  Colorimetry Data Block:
    BT2020YCC
    BT2020RGB
  HDR Static Metadata Data Block:
    Electro optical transfer functions:
      Traditional gamma - SDR luminance range
      SMPTE ST2084
    Supported static metadata descriptors:
      Static metadata type 1
    Desired content max luminance: 114 (590.730 cd/m^2)
    Desired content max frame-average luminance: 114 (590.730 cd/m^2)
    Desired content min luminance: 0 (0.000 cd/m^2)
  Detailed Timing Descriptors:
    DTD  8:  2560x1600   59.999564 Hz  16:10   101.099 kHz    274.990000 MHz (345 mm x 215 mm)
                  Hfront   48 Hsync  32 Hback   80 Hpol P
                  Vfront    3 Vsync   6 Vback   76 Vpol N
    DTD  9:  2560x1600  119.999127 Hz  16:10   202.199 kHz    549.980000 MHz (345 mm x 215 mm)
                  Hfront   48 Hsync  32 Hback   80 Hpol P
                  Vfront    3 Vsync   5 Vback   77 Vpol P
    DTD 10:  2560x1440   60.000000 Hz  16:9     91.500 kHz    248.880000 MHz (345 mm x 215 mm)
                  Hfront   48 Hsync  32 Hback   80 Hpol P
                  Vfront    3 Vsync   5 Vback   77 Vpol P
    DTD 11:  2560x1440  120.004822 Hz  16:9    183.007 kHz    497.780000 MHz (345 mm x 215 mm)
                  Hfront   48 Hsync  32 Hback   80 Hpol P
                  Vfront    3 Vsync   5 Vback   77 Vpol N
    DTD 12:  2560x1600  143.998821 Hz  16:10   237.022 kHz    644.700000 MHz (345 mm x 215 mm)
                  Hfront   48 Hsync  32 Hback   80 Hpol P
                  Vfront    3 Vsync   6 Vback   37 Vpol P
Checksum: 0xb8

----------------

Warnings:

Block 0, Base EDID:
  Detailed Timing Descriptor #2: DTD is similar but not identical to VIC 63.
Block 1, CTA-861 Extension Block:
  Video Capability Data Block: IT scan behavior is expected to support underscanned.
  Video Capability Data Block: 'CE video formats not supported' makes no sense.
  Colorimetry Data Block: Set the sRGB colorimetry bit to avoid interop issues.
Block 3, CTA-861 Extension Block:
  Video Capability Data Block: IT scan behavior is expected to support underscanned.
  Video Capability Data Block: 'CE video formats not supported' makes no sense.
  Colorimetry Data Block: Set the sRGB colorimetry bit to avoid interop issues.

Failures:

Block 1, CTA-861 Extension Block:
  Vendor-Specific Data Block (HDMI), OUI 00-0C-03: The HDMI Specification requires EDID 1.3 instead of 1.4.
Block 2, Base EDID:
  Unknown Extension Block.
Block 3, CTA-861 Extension Block:
  Video Data Block: Duplicate VIC 1.
  Video Data Block: Duplicate VIC 4.
  Video Data Block: Duplicate VIC 16.
  Video Data Block: Duplicate VIC 78.
  Video Capability Data Block: Only one instance of this Data Block is allowed.
  Speaker Allocation Data Block: Only one instance of this Data Block is allowed.
  Vendor-Specific Data Block (HDMI), OUI 00-0C-03: The HDMI Specification requires EDID 1.3 instead of 1.4.
  Colorimetry Data Block: Only one instance of this Data Block is allowed.
  HDR Static Metadata Data Block: Only one instance of this Data Block is allowed.
EDID:
  Base EDID: EDID specified 1 extension block(s), but found 3 extension block(s).
  CTA-861: Native progressive timings are a mix of several resolutions.

EDID conformity: FAIL
