
EDID (hex):
00ffffffffffff000e14d51700000000
0c140103801d10780a4e4d9e57549126
0f505400000001010101010101010101
010101010101701c568c500026303b27
590025a510000018fc12568c50002630
3b27590025a510000018000000fe0043
50540a202020202020202020000000fe
00434c41413133335741303141200034

Extracted contents:
header:          00 ff ff ff ff ff ff 00
serial number:   0e 14 d5 17 00 00 00 00 0c 14
version:         01 03
basic params:    80 1d 10 78 0a
chroma info:     4e 4d 9e 57 54 91 26 0f 50 54
established:     00 00 00
standard:        01 01 01 01 01 01 01 01 01 01 01 01 01 01 01 01
descriptor 1:    70 1c 56 8c 50 00 26 30 3b 27 59 00 25 a5 10 00 00 18
descriptor 2:    fc 12 56 8c 50 00 26 30 3b 27 59 00 25 a5 10 00 00 18
descriptor 3:    00 00 00 fe 00 43 50 54 0a 20 20 20 20 20 20 20 20 20
descriptor 4:    00 00 00 fe 00 43 4c 41 41 31 33 33 57 41 30 31 41 20
extensions:      00
checksum:        34

EDID version: 1.3
Manufacturer: CPT Model 17d5 Serial Number --
Made in week 12 of 2010
Digital display
Maximum image size: 29 cm x 16 cm
Gamma: 2.20
RGB color display
First detailed timing is preferred timing
Display x,y Chromaticity:
  Red:   0.6181, 0.3398
  Green: 0.3310, 0.5683
  Blue:  0.1494, 0.0585
  White: 0.3154, 0.3291
Established timings supported:
Standard timings supported:
Detailed mode: Clock 72.800 MHz, 293 mm x 165 mm
               1366 1425 1464 1506 hborder 0
                768  773  782  806 vborder 0
               -hsync -vsync 
               VertFreq: 59 Hz, HorFreq: 48339 Hz
Detailed mode: Clock 48.600 MHz, 293 mm x 165 mm
               1366 1425 1464 1506 hborder 0
                768  773  782  806 vborder 0
               -hsync -vsync 
               VertFreq: 40 Hz, HorFreq: 32270 Hz
ASCII string: CPT
ASCII string: CLAA133WA01A 
Checksum: 0x34 (valid)
EDID block does NOT conform to EDID 1.3!
	Missing name descriptor
	Missing monitor ranges
