
EDID (hex):
00ffffffffffff00593a780001010101
1a150103805d347802f96ba2554a9a25
0f474aa5ce0001010100010101010101
010101010101023a801871382d40582c
4500a20b3200001e000000fd00324d1f
460f000a202020202020000000ff0055
4b4a58424d30313030303031000000fc
0045334434323056582d54570a200128
02032871460103040590202909070715
5738100038830100006e030c00100028
2d20c0040141002c023a801871382d40
582c5500a20b3200001e011d007251d0
1e206e285500a20b3200001e00000000
00000000000000000000000000000000
00000000000000000000000000000000
000000000000000000000000000000e4

Extracted contents:
header:          00 ff ff ff ff ff ff 00
serial number:   59 3a 78 00 01 01 01 01 1a 15
version:         01 03
basic params:    80 5d 34 78 02
chroma info:     f9 6b a2 55 4a 9a 25 0f 47 4a
established:     a5 ce 00
standard:        01 01 01 00 01 01 01 01 01 01 01 01 01 01 01 01
descriptor 1:    02 3a 80 18 71 38 2d 40 58 2c 45 00 a2 0b 32 00 00 1e
descriptor 2:    00 00 00 fd 00 32 4d 1f 46 0f 00 0a 20 20 20 20 20 20
descriptor 3:    00 00 00 ff 00 55 4b 4a 58 42 4d 30 31 30 30 30 30 31
descriptor 4:    00 00 00 fc 00 45 33 44 34 32 30 56 58 2d 54 57 0a 20
extensions:      01
checksum:        28

EDID version: 1.3
Manufacturer: VIZ Model 78 Serial Number --
Made in week 26 of 2011
Digital display
Maximum image size: 93 cm x 52 cm
Gamma: 2.20
Monochrome or grayscale display
First detailed timing is preferred timing
Display x,y Chromaticity:
  Red:   0.6357, 0.3349
  Green: 0.2910, 0.6025
  Blue:  0.1455, 0.0605
  White: 0.2792, 0.2919
Established timings supported:
  720x400@70Hz 9:5 HorFreq: 31469 Hz Clock: 28.320 MHz
  640x480@60Hz 4:3 HorFreq: 31469 Hz Clock: 25.175 MHz
  640x480@75Hz 4:3 HorFreq: 37500 Hz Clock: 31.500 MHz
  800x600@60Hz 4:3 HorFreq: 37900 Hz Clock: 40.000 MHz
  800x600@72Hz 4:3 HorFreq: 48100 Hz Clock: 50.000 MHz
  800x600@75Hz 4:3 HorFreq: 46900 Hz Clock: 49.500 MHz
  1024x768@60Hz 4:3 HorFreq: 48400 Hz Clock: 65.000 MHz
  1024x768@70Hz 4:3 HorFreq: 56500 Hz Clock: 75.000 MHz
  1024x768@75Hz 4:3 HorFreq: 60000 Hz Clock: 78.750 MHz
Standard timings supported:
  256x160@60Hz 16:10
Detailed mode: Clock 148.500 MHz, 930 mm x 523 mm
               1920 2008 2052 2200 hborder 0
               1080 1084 1089 1125 vborder 0
               +hsync +vsync 
               VertFreq: 60 Hz, HorFreq: 67500 Hz
Monitor ranges (GTF): 50-77Hz V, 31-70kHz H, max dotclock 150MHz
Serial number: --
Monitor name: E3D420VX-TW
Has 1 extension blocks
Checksum: 0x28 (valid)

CTA extension block
Extension version: 3
36 bytes of CTA data
  Video data block
    VIC   1 640x480@60Hz 4:3  HorFreq: 31469 Hz Clock: 25.175 MHz
    VIC   3 720x480@60Hz 16:9  HorFreq: 31469 Hz Clock: 27.000 MHz
    VIC   4 1280x720@60Hz 16:9  HorFreq: 45000 Hz Clock: 74.250 MHz
    VIC   5 1920x1080i@60Hz 16:9  HorFreq: 33750 Hz Clock: 74.250 MHz
    VIC  16 1920x1080@60Hz 16:9 (native) HorFreq: 67500 Hz Clock: 148.500 MHz
    VIC  32 1920x1080@24Hz 16:9  HorFreq: 27000 Hz Clock: 74.250 MHz
  Audio data block
    Linear PCM, max channels 2
      Supported sample rates (kHz): 48 44.1 32
      Supported sample sizes (bits): 24 20 16
    AC-3, max channels 6
      Supported sample rates (kHz): 192 96 48 44.1 32
      Maximum bit rate: 448 kHz
    AC-3, max channels 1
      Supported sample rates (kHz):
      Maximum bit rate: 448 kHz
  Speaker allocation data block
    Speaker map:
      FL/FR - Front Left/Right
  Vendor-specific data block, OUI 000c03 (HDMI)
    Source physical address 1.0.0.0
    DC_36bit
    DC_Y444
    Maximum TMDS clock: 225MHz
    Extended HDMI video details:
      3D present
      3D-capable-VIC mask present
      3D: Side-by-side (half, horizontal)
      3D: Top-and-bottom
      3D: Frame-packing
      3D VIC indices: 2 3 5
Basic audio support
Supports YCbCr 4:4:4
Supports YCbCr 4:2:2
1 native detailed modes
Detailed mode: Clock 148.500 MHz, 930 mm x 523 mm
               1920 2008 2052 2200 hborder 0
               1080 1085 1090 1125 vborder 0
               +hsync +vsync 
               VertFreq: 60 Hz, HorFreq: 67500 Hz
Detailed mode: Clock 74.250 MHz, 930 mm x 523 mm
               1280 1390 1430 1650 hborder 0
                720  725  730  750 vborder 0
               +hsync +vsync 
               VertFreq: 60 Hz, HorFreq: 45000 Hz
Checksum: 0xe4 (valid)

One or more of the timings is out of range of the Monitor Ranges:
  Vertical Freq: 24 - 75 Hz
  Horizontal Freq: 27000 - 67500 Hz
  Maximum Clock: 148.500 MHz
EDID block does not conform at all!
	Both the serial number and the serial string are set
