
EDID (hex):
00ffffffffffff0038a3c3a401010101
1c0e0103805c34782a00e5a05a27ba25
17424e20000001010101010101010101
010101010101011d007251d01e206e28
550099063200001e011d8018711c1620
582c250099063200009e000000fd0032
78185b10000a202020202020000000fc
0050582d34325652350a202020200137
020104008c0ad08a20e02d10103e9600
9906320000188c0ad090204031200c40
55009906320000188c0aa01451f01600
267c43009906320000988c0aa0205120
1810187e2300990632000098011d80d0
721c1620102c258099063200009e0000
00ff00312e30300a2020202020202020
00000000000000000000000000000084

Extracted contents:
header:          00 ff ff ff ff ff ff 00
serial number:   38 a3 c3 a4 01 01 01 01 1c 0e
version:         01 03
basic params:    80 5c 34 78 2a
chroma info:     00 e5 a0 5a 27 ba 25 17 42 4e
established:     20 00 00
standard:        01 01 01 01 01 01 01 01 01 01 01 01 01 01 01 01
descriptor 1:    01 1d 00 72 51 d0 1e 20 6e 28 55 00 99 06 32 00 00 1e
descriptor 2:    01 1d 80 18 71 1c 16 20 58 2c 25 00 99 06 32 00 00 9e
descriptor 3:    00 00 00 fd 00 32 78 18 5b 10 00 0a 20 20 20 20 20 20
descriptor 4:    00 00 00 fc 00 50 58 2d 34 32 56 52 35 0a 20 20 20 20
extensions:      01
checksum:        37

EDID version: 1.3
Manufacturer: NEC Model a4c3 Serial Number --
Digital display
Maximum image size: 92 cm x 52 cm
Gamma: 2.20
DPMS levels: Off
RGB color display
First detailed timing is preferred timing
Display x,y Chromaticity:
  Red:   0.6250, 0.3515
  Green: 0.1523, 0.7265
  Blue:  0.1474, 0.0917
  White: 0.2587, 0.3056
Established timings supported:
  640x480@60Hz 4:3 HorFreq: 31469 Hz Clock: 25.175 MHz
Standard timings supported:
Detailed mode: Clock 74.250 MHz, 921 mm x 518 mm
               1280 1390 1430 1650 hborder 0
                720  725  730  750 vborder 0
               +hsync +vsync 
               VertFreq: 60 Hz, HorFreq: 45000 Hz
Detailed mode: Clock 74.250 MHz, 921 mm x 518 mm
               1920 2008 2052 2200 hborder 0
                540  542  547  562 vborder 0
               +hsync +vsync interlaced 
               VertFreq: 60 Hz, HorFreq: 33750 Hz
Monitor ranges (GTF): 50-120Hz V, 24-91kHz H, max dotclock 160MHz
Monitor name: PX-42VR5
Has 1 extension blocks
Checksum: 0x37 (valid)

CTA extension block
Extension version: 1
0 8-byte timing descriptors
Detailed mode: Clock 27.000 MHz, 921 mm x 518 mm
                720  736  798  858 hborder 0
                480  489  495  525 vborder 0
               -hsync -vsync 
               VertFreq: 59 Hz, HorFreq: 31468 Hz
Detailed mode: Clock 27.000 MHz, 921 mm x 518 mm
                720  732  796  864 hborder 0
                576  581  586  625 vborder 0
               -hsync -vsync 
               VertFreq: 50 Hz, HorFreq: 31250 Hz
Detailed mode: Clock 27.000 MHz, 921 mm x 518 mm
               1440 1478 1602 1716 hborder 0
                240  244  247  262 vborder 0
               -hsync -vsync interlaced 
               VertFreq: 60 Hz, HorFreq: 15734 Hz
Detailed mode: Clock 27.000 MHz, 921 mm x 518 mm
               1440 1464 1590 1728 hborder 0
                288  290  293  312 vborder 0
               -hsync -vsync interlaced 
               VertFreq: 50 Hz, HorFreq: 15625 Hz
Detailed mode: Clock 74.250 MHz, 921 mm x 518 mm
               1920 2448 2492 2640 hborder 0
                540  542  547  562 vborder 0
               +hsync +vsync interlaced 
               VertFreq: 50 Hz, HorFreq: 28125 Hz
Checksum: 0x84 (valid)

One or more of the timings is out of range of the Monitor Ranges:
  Vertical Freq: 50 - 60 Hz
  Horizontal Freq: 15625 - 45000 Hz
  Maximum Clock: 74.250 MHz
EDID block does not conform at all!
	Bad year of manufacture
