
EDID (hex):
00ffffffffffff0009e5d60a00000000
281f0104a51e1378030f95ae5243b026
0f505400000001010101010101010101
010101010101906f00a0a04096603020
35002dbc1000001a000000fd0c3ca521
214f010a202020202020000000000000
000000000000000000000000000000fe
004e4531343051444d2d4e59310a01b0
7013790000030114cc320185ff099f00
2f001f003f0695000200040000000000
00000000000000000000000000000000
00000000000000000000000000000000
00000000000000000000000000000000
00000000000000000000000000000000
00000000000000000000000000000000
00000000000000000000000000000390

edid-decode (hex):

00 ff ff ff ff ff ff 00 09 e5 d6 0a 00 00 00 00
28 1f 01 04 a5 1e 13 78 03 0f 95 ae 52 43 b0 26
0f 50 54 00 00 00 01 01 01 01 01 01 01 01 01 01
01 01 01 01 01 01 90 6f 00 a0 a0 40 96 60 30 20
35 00 2d bc 10 00 00 1a 00 00 00 fd 0c 3c a5 21
21 4f 01 0a 20 20 20 20 20 20 00 00 00 00 00 00
00 00 00 00 00 00 00 00 00 00 00 00 00 00 00 fe
00 4e 45 31 34 30 51 44 4d 2d 4e 59 31 0a 01 b0

70 13 79 00 00 03 01 14 cc 32 01 85 ff 09 9f 00
2f 00 1f 00 3f 06 95 00 02 00 04 00 00 00 00 00
00 00 00 00 00 00 00 00 00 00 00 00 00 00 00 00
00 00 00 00 00 00 00 00 00 00 00 00 00 00 00 00
00 00 00 00 00 00 00 00 00 00 00 00 00 00 00 00
00 00 00 00 00 00 00 00 00 00 00 00 00 00 00 00
00 00 00 00 00 00 00 00 00 00 00 00 00 00 00 00
00 00 00 00 00 00 00 00 00 00 00 00 00 00 03 90

----------------

Block 0, Base EDID:
  EDID Structure Version & Revision: 1.4
  Vendor & Product Identification:
    Manufacturer: BOE
    Model: 2774
    Made in: week 40 of 2021
  Basic Display Parameters & Features:
    Digital display
    Bits per primary color channel: 8
    DisplayPort interface
    Maximum image size: 30 cm x 19 cm
    Gamma: 2.20
    Supported color formats: RGB 4:4:4
    First detailed timing includes the native pixel format and preferred refresh rate
    Display is continuous frequency
  Color Characteristics:
    Red  : 0.6796, 0.3203
    Green: 0.2646, 0.6904
    Blue : 0.1503, 0.0595
    White: 0.3134, 0.3291
  Established Timings I & II: none
  Standard Timings: none
  Detailed Timing Descriptors:
    DTD 1:  2560x1600   60.000000 Hz  16:10   105.000 kHz    285.600000 MHz (301 mm x 188 mm)
                 Hfront   48 Hsync  32 Hback   80 Hpol P
                 Vfront    3 Vsync   5 Vback  142 Vpol N
    Display Range Limits:
      Monitor ranges (Bare Limits): 60-165 Hz V, 288-288 kHz H, max dotclock 790 MHz
    Empty Descriptor
    Alphanumeric Data String: 'NE140QDM-NY1'
  Extension blocks: 1
Checksum: 0xb0

----------------

Block 1, DisplayID Extension Block:
  Version: 1.3
  Extension Count: 0
  Display Product Type: Extension Section
  Video Timing Modes Type 1 - Detailed Timings Data Block:
    DTD:  2560x1600  165.002101 Hz  16:10   288.754 kHz    785.410000 MHz (aspect 16:10, no 3D stereo, preferred)
               Hfront   48 Hsync  32 Hback   80 Hpol N
               Vfront    3 Vsync   5 Vback  142 Vpol N
  Checksum: 0x03
Checksum: 0x90
