
EDID (hex):
00ffffffffffff0006af361100000000
00180104a51f11780299859555569228
22505400000001010101010101010101
0101010101011c6100c8a0a03c502820
aa0035ae10000018bd4000c8a0a03c50
2820aa0035ae10000018000000000000
00000000000000000000000000000002
001430ff123caa19140caa2020200094

Extracted contents:
header:          00 ff ff ff ff ff ff 00
serial number:   06 af 36 11 00 00 00 00 00 18
version:         01 04
basic params:    a5 1f 11 78 02
chroma info:     99 85 95 55 56 92 28 22 50 54
established:     00 00 00
standard:        01 01 01 01 01 01 01 01 01 01 01 01 01 01 01 01
descriptor 1:    1c 61 00 c8 a0 a0 3c 50 28 20 aa 00 35 ae 10 00 00 18
descriptor 2:    bd 40 00 c8 a0 a0 3c 50 28 20 aa 00 35 ae 10 00 00 18
descriptor 3:    00 00 00 00 00 00 00 00 00 00 00 00 00 00 00 00 00 00
descriptor 4:    00 00 00 02 00 14 30 ff 12 3c aa 19 14 0c aa 20 20 20
extensions:      00
checksum:        94

EDID version: 1.4
Manufacturer: AUO Model 1136 Serial Number --
Made in year 2014
Digital display
8 bits per primary color channel
DisplayPort interface
Maximum image size: 31 cm x 17 cm
Gamma: 2.20
Supported color formats: RGB 4:4:4
First detailed timing includes the native pixel format and preferred refresh rate
Display x,y Chromaticity:
  Red:   0.5839, 0.3330
  Green: 0.3378, 0.5712
  Blue:  0.1582, 0.1328
  White: 0.3134, 0.3291
Established timings supported:
Standard timings supported:
Detailed mode: Clock 248.600 MHz, 309 mm x 174 mm
               2560 2600 2632 2760 hborder 0
               1440 1450 1460 1500 vborder 0
               -hsync -vsync 
               VertFreq: 60 Hz, HorFreq: 90072 Hz
Detailed mode: Clock 165.730 MHz, 309 mm x 174 mm
               2560 2600 2632 2760 hborder 0
               1440 1450 1460 1500 vborder 0
               -hsync -vsync 
               VertFreq: 40 Hz, HorFreq: 60047 Hz
Manufacturer-specified data, tag 0
Manufacturer-specified data, tag 2
Checksum: 0x94 (valid)
EDID block does NOT conform to EDID 1.4!
	Missing name descriptor
	Missing monitor ranges
