edid-decode (hex):

00 ff ff ff ff ff ff 00 0d ae 02 74 00 00 00 00
00 00 01 04 95 1a 0e 78 02 60 f5 9d 5d 59 91 25
10 50 54 00 00 00 01 01 01 01 01 01 01 01 01 01
01 01 01 01 01 01 da 1d 56 e2 50 00 20 30 88 1e
8c 00 00 90 10 00 00 1a e2 17 56 e2 50 00 20 30
88 1e 8c 00 00 90 10 00 00 1a 00 00 00 00 00 00
00 00 00 00 00 00 00 00 00 00 00 00 00 00 00 fc
00 50 31 31 36 46 47 41 2d 42 5a 31 0a 0a 00 3f

00 ff ff ff ff ff ff 00 0d ae 02 74 00 00 00 00
00 00 01 04 95 1a 0e 78 02 60 f5 9d 5d 59 91 25
10 50 54 00 00 00 01 01 01 01 01 01 01 01 01 01
01 01 01 01 01 01 da 1d 56 e2 50 00 20 30 88 1e
8c 00 00 90 10 00 00 1a e2 17 56 e2 50 00 20 30
88 1e 8c 00 00 90 10 00 00 1a 00 00 00 00 00 00
00 00 00 00 00 00 00 00 00 00 00 00 00 00 00 fc
00 50 31 31 36 46 47 41 2d 42 5a 31 0a 0a 00 3f

----------------

Block 0, Base EDID:
  EDID Structure Version & Revision: 1.4
  Vendor & Product Identification:
    Manufacturer: CMN
    Model: 29698
    Made in: 1990
  Basic Display Parameters & Features:
    Digital display
    Bits per primary color channel: 6
    DisplayPort interface
    Maximum image size: 26 cm x 14 cm
    Gamma: 2.20
    Supported color formats: RGB 4:4:4
    First detailed timing includes the native pixel format and preferred refresh rate
  Color Characteristics:
    Red  : 0.6142, 0.3652
    Green: 0.3476, 0.5664
    Blue : 0.1474, 0.0654
    White: 0.3134, 0.3291
  Established Timings I & II: none
  Standard Timings: none
  Detailed Timing Descriptors:
    DTD 1:  1366x768    60.003141 Hz 683:384   48.003 kHz     76.420000 MHz (256 mm x 144 mm)
                 Hfront  136 Hsync  30 Hback   60 Hpol P
                 Vfront    8 Vsync  12 Vback   12 Vpol N
    DTD 2:  1366x768    48.005653 Hz 683:384   38.405 kHz     61.140000 MHz (256 mm x 144 mm)
                 Hfront  136 Hsync  30 Hback   60 Hpol P
                 Vfront    8 Vsync  12 Vback   12 Vpol N
    Empty Descriptor
    Display Product Name: 'P116FGA-BZ1'
Checksum: 0x3f

----------------

Block 1, Unknown EDID Extension Block 0x00:
  00 ff ff ff ff ff ff 00 0d ae 02 74 00 00 00 00 '...........t....'
  00 00 01 04 95 1a 0e 78 02 60 f5 9d 5d 59 91 25 '.......x.`..]Y.%'
  10 50 54 00 00 00 01 01 01 01 01 01 01 01 01 01 '.PT.............'
  01 01 01 01 01 01 da 1d 56 e2 50 00 20 30 88 1e '........V.P. 0..'
  8c 00 00 90 10 00 00 1a e2 17 56 e2 50 00 20 30 '..........V.P. 0'
  88 1e 8c 00 00 90 10 00 00 1a 00 00 00 00 00 00 '................'
  00 00 00 00 00 00 00 00 00 00 00 00 00 00 00 fc '................'
  00 50 31 31 36 46 47 41 2d 42 5a 31 0a 0a 00 3f '.P116FGA-BZ1...?'
Checksum: 0x3f

----------------

Failures:

Block 0, Base EDID:
  Empty Descriptor: Use Dummy Descriptor instead of all zeroes.
  Display Product Name: Non-space after newline.
Block 1, Base EDID:
  Unknown Extension Block.
EDID:
  Base EDID: EDID specified 0 extension block(s), but found 1 extension block(s).

EDID conformity: FAIL
