
EDID (hex):
00ffffffffffff003064011700000000
330f01037e241d6eefc5c6a3574a9c23
124f542fcf008180818a010101010101
01010101010100000000000000000000
00000000000000000000000000000000
00000000000000000000000000000000
000000000000000000000000000000fc
003137224c43444d4f4e49544f52001e

Extracted contents:
header:          00 ff ff ff ff ff ff 00
serial number:   30 64 01 17 00 00 00 00 33 0f
version:         01 03
basic params:    7e 24 1d 6e ef
chroma info:     c5 c6 a3 57 4a 9c 23 12 4f 54
established:     2f cf 00
standard:        81 80 81 8a 01 01 01 01 01 01 01 01 01 01 01 01
descriptor 1:    00 00 00 00 00 00 00 00 00 00 00 00 00 00 00 00 00 00
descriptor 2:    00 00 00 00 00 00 00 00 00 00 00 00 00 00 00 00 00 00
descriptor 3:    00 00 00 00 00 00 00 00 00 00 00 00 00 00 00 00 00 00
descriptor 4:    00 00 00 fc 00 31 37 22 4c 43 44 4d 4f 4e 49 54 4f 52
extensions:      00
checksum:        1e

EDID version: 1.3
Manufacturer: LCD Model 1701 Serial Number --
Analog display, Input voltage level: 0.7/0.7 V
Configurable signal levels
Sync: Separate Composite SyncOnGreen 
Maximum image size: 36 cm x 29 cm
Gamma: 2.10
DPMS levels: Standby Suspend Off
RGB color display
Default (sRGB) color space is primary color space
First detailed timing is preferred timing
Supports GTF timings within operating range
Display x,y Chromaticity:
  Red:   0.6396, 0.3398
  Green: 0.2900, 0.6103
  Blue:  0.1396, 0.0703
  White: 0.3095, 0.3300
Established timings supported:
  640x480@60Hz 4:3 HorFreq: 31469 Hz Clock: 25.175 MHz
  640x480@72Hz 4:3 HorFreq: 37900 Hz Clock: 31.500 MHz
  640x480@75Hz 4:3 HorFreq: 37500 Hz Clock: 31.500 MHz
  800x600@56Hz 4:3 HorFreq: 35200 Hz Clock: 36.000 MHz
  800x600@60Hz 4:3 HorFreq: 37900 Hz Clock: 40.000 MHz
  800x600@72Hz 4:3 HorFreq: 48100 Hz Clock: 50.000 MHz
  800x600@75Hz 4:3 HorFreq: 46900 Hz Clock: 49.500 MHz
  1024x768@60Hz 4:3 HorFreq: 48400 Hz Clock: 65.000 MHz
  1024x768@70Hz 4:3 HorFreq: 56500 Hz Clock: 75.000 MHz
  1024x768@75Hz 4:3 HorFreq: 60000 Hz Clock: 78.750 MHz
  1280x1024@75Hz 5:4 HorFreq: 80000 Hz Clock: 135.000 MHz
Standard timings supported:
  1280x1024@60Hz 5:4 HorFreq: 64000 Hz Clock: 108.000 MHz
  1280x1024@70Hz 5:4
Manufacturer-specified data, tag 0
Manufacturer-specified data, tag 0
Manufacturer-specified data, tag 0
Checksum: 0x1e (valid)
EDID block does NOT conform to EDID 1.3!
	sRGB is signaled, but the chromaticities do not match
	Name descriptor not terminated with a newline
	Missing preferred timing
	Missing monitor ranges
EDID block does not conform at all!
	Bad year of manufacture
