
EDID (hex):
00ffffffffffff0030e4800300000000
00160103801d11780a8f15985b558f27
21505400000001010101010101010101
010101010101242740c860841c303020
350026a6100000190000000000000000
00000000000000000000000000fe004c
4720446973706c61790a2020000000fe
004c503133335744322d534c423200a2

Extracted contents:
header:          00 ff ff ff ff ff ff 00
serial number:   30 e4 80 03 00 00 00 00 00 16
version:         01 03
basic params:    80 1d 11 78 0a
chroma info:     8f 15 98 5b 55 8f 27 21 50 54
established:     00 00 00
standard:        01 01 01 01 01 01 01 01 01 01 01 01 01 01 01 01
descriptor 1:    24 27 40 c8 60 84 1c 30 30 20 35 00 26 a6 10 00 00 19
descriptor 2:    00 00 00 00 00 00 00 00 00 00 00 00 00 00 00 00 00 00
descriptor 3:    00 00 00 fe 00 4c 47 20 44 69 73 70 6c 61 79 0a 20 20
descriptor 4:    00 00 00 fe 00 4c 50 31 33 33 57 44 32 2d 53 4c 42 32
extensions:      00
checksum:        a2

EDID version: 1.3
Manufacturer: LGD Model 380 Serial Number --
Made in year 2012
Digital display
Maximum image size: 29 cm x 17 cm
Gamma: 2.20
RGB color display
First detailed timing is preferred timing
Display x,y Chromaticity:
  Red:   0.5957, 0.3554
  Green: 0.3349, 0.5615
  Blue:  0.1523, 0.1298
  White: 0.3134, 0.3291
Established timings supported:
Standard timings supported:
Detailed mode: Clock 100.200 MHz, 294 mm x 166 mm
               1600 1648 1680 1800 hborder 0
                900  903  908  928 vborder 0
               -hsync -vsync 
               VertFreq: 59 Hz, HorFreq: 55666 Hz
Manufacturer-specified data, tag 0
ASCII string: LG Display
ASCII string: LP133WD2-SLB2
Checksum: 0xa2 (valid)
EDID block does NOT conform to EDID 1.3!
	Missing name descriptor
	Missing monitor ranges


