
EDID (hex):
00ffffffffffff000c65000000000000
06180103802313782aac21a555489a27
135054a7ce0001010101010101010101
0101010101017f2156aa51001e30468f
330059c21000001a000000fd003c4b1f
3e09000a202020202020000000fc004d
43313530350a0a0a0a0a0a0a000000ff
003030303030303030303030303100c2

Extracted contents:
header:          00 ff ff ff ff ff ff 00
serial number:   0c 65 00 00 00 00 00 00 06 18
version:         01 03
basic params:    80 23 13 78 2a
chroma info:     ac 21 a5 55 48 9a 27 13 50 54
established:     a7 ce 00
standard:        01 01 01 01 01 01 01 01 01 01 01 01 01 01 01 01
descriptor 1:    7f 21 56 aa 51 00 1e 30 46 8f 33 00 59 c2 10 00 00 1a
descriptor 2:    00 00 00 fd 00 3c 4b 1f 3e 09 00 0a 20 20 20 20 20 20
descriptor 3:    00 00 00 fc 00 4d 43 31 35 30 35 0a 0a 0a 0a 0a 0a 0a
descriptor 4:    00 00 00 ff 00 30 30 30 30 30 30 30 30 30 30 30 30 31
extensions:      00
checksum:        c2

EDID version: 1.3
Manufacturer: CCE Model 0 Serial Number --
Made in week 6 of 2014
Digital display
Maximum image size: 35 cm x 19 cm
Gamma: 2.20
DPMS levels: Off
RGB color display
First detailed timing is preferred timing
Display x,y Chromaticity:
  Red:   0.6464, 0.3339
  Green: 0.2841, 0.6015
  Blue:  0.1523, 0.0761
  White: 0.3125, 0.3291
Established timings supported:
  720x400@70Hz 9:5 HorFreq: 31469 Hz Clock: 28.320 MHz
  640x480@60Hz 4:3 HorFreq: 31469 Hz Clock: 25.175 MHz
  640x480@75Hz 4:3 HorFreq: 37500 Hz Clock: 31.500 MHz
  800x600@56Hz 4:3 HorFreq: 35200 Hz Clock: 36.000 MHz
  800x600@60Hz 4:3 HorFreq: 37900 Hz Clock: 40.000 MHz
  800x600@72Hz 4:3 HorFreq: 48100 Hz Clock: 50.000 MHz
  800x600@75Hz 4:3 HorFreq: 46900 Hz Clock: 49.500 MHz
  1024x768@60Hz 4:3 HorFreq: 48400 Hz Clock: 65.000 MHz
  1024x768@70Hz 4:3 HorFreq: 56500 Hz Clock: 75.000 MHz
  1024x768@75Hz 4:3 HorFreq: 60000 Hz Clock: 78.750 MHz
Standard timings supported:
Detailed mode: Clock 85.750 MHz, 345 mm x 194 mm
               1366 1436 1579 1792 hborder 0
                768  771  774  798 vborder 0
               +hsync -vsync 
               VertFreq: 59 Hz, HorFreq: 47851 Hz
Monitor ranges (GTF): 60-75Hz V, 31-62kHz H, max dotclock 90MHz
Monitor name: MC1505
Serial number: --
Checksum: 0xc2 (valid)
EDID block does NOT conform to EDID 1.3!
	Detailed block string not properly terminated
One or more of the timings is out of range of the Monitor Ranges:
  Vertical Freq: 56 - 75 Hz
  Horizontal Freq: 31469 - 60000 Hz
  Maximum Clock: 85.750 MHz
