
EDID (hex):
00ffffffffffff006318800102000000
31110103085d3578e8d9b0a357499c25
11494ba54f00d1c00101010101010101
010101010101944380907238284080c8
350052be1000001c000000ff00303030
310a2020202020202020000000fc0048
4454560a2020202020202020000000fd
0038781f5a12000a2020202020200049

Extracted contents:
header:          00 ff ff ff ff ff ff 00
serial number:   63 18 80 01 02 00 00 00 31 11
version:         01 03
basic params:    08 5d 35 78 e8
chroma info:     d9 b0 a3 57 49 9c 25 11 49 4b
established:     a5 4f 00
standard:        d1 c0 01 01 01 01 01 01 01 01 01 01 01 01 01 01
descriptor 1:    94 43 80 90 72 38 28 40 80 c8 35 00 52 be 10 00 00 1c
descriptor 2:    00 00 00 ff 00 30 30 30 31 0a 20 20 20 20 20 20 20 20
descriptor 3:    00 00 00 fc 00 48 44 54 56 0a 20 20 20 20 20 20 20 20
descriptor 4:    00 00 00 fd 00 38 78 1f 5a 12 00 0a 20 20 20 20 20 20
extensions:      00
checksum:        49

EDID version: 1.3
Manufacturer: XXX Model 180 Serial Number --
Made in week 49 of 2007
Analog display, Input voltage level: 0.7/0.3 V
Sync: Separate 
Maximum image size: 93 cm x 53 cm
Gamma: 2.20
DPMS levels: Standby Suspend Off
RGB color display
Display x,y Chromaticity:
  Red:   0.6396, 0.3408
  Green: 0.2871, 0.6103
  Blue:  0.1464, 0.0693
  White: 0.2851, 0.2929
Established timings supported:
  720x400@70Hz 9:5 HorFreq: 31469 Hz Clock: 28.320 MHz
  640x480@60Hz 4:3 HorFreq: 31469 Hz Clock: 25.175 MHz
  640x480@75Hz 4:3 HorFreq: 37500 Hz Clock: 31.500 MHz
  800x600@60Hz 4:3 HorFreq: 37900 Hz Clock: 40.000 MHz
  800x600@75Hz 4:3 HorFreq: 46900 Hz Clock: 49.500 MHz
  1024x768@60Hz 4:3 HorFreq: 48400 Hz Clock: 65.000 MHz
  1024x768@70Hz 4:3 HorFreq: 56500 Hz Clock: 75.000 MHz
  1024x768@75Hz 4:3 HorFreq: 60000 Hz Clock: 78.750 MHz
  1280x1024@75Hz 5:4 HorFreq: 80000 Hz Clock: 135.000 MHz
Standard timings supported:
  1920x1080@60Hz 16:9
Detailed mode: Clock 173.000 MHz, 338 mm x 190 mm
               1920 2048 2248 2576 hborder 0
               1080 1083 1088 1120 vborder 0
               -hsync +vsync 
               VertFreq: 59 Hz, HorFreq: 67158 Hz
Serial number: --
Monitor name: HDTV
Monitor ranges (GTF): 56-120Hz V, 31-90kHz H, max dotclock 180MHz
Checksum: 0x49 (valid)
EDID block does NOT conform to EDID 1.3!
	Missing preferred timing
