
EDID (hex):
00ffffffffffff00410c4208aefe0400
2d1001031e2b1b78ee85c5a4554a9c24
145054bfef80714a714f81408180a940
b300b30fa94f08399030621a274068b0
3600b10f1100001a000000ff00425a33
30363435333237333432000000fc0050
68696c697073203230305742000000fd
00384c1e6215000a20202020202000ff

Extracted contents:
header:          00 ff ff ff ff ff ff 00
serial number:   41 0c 42 08 ae fe 04 00 2d 10
version:         01 03
basic params:    1e 2b 1b 78 ee
chroma info:     85 c5 a4 55 4a 9c 24 14 50 54
established:     bf ef 80
standard:        71 4a 71 4f 81 40 81 80 a9 40 b3 00 b3 0f a9 4f
descriptor 1:    08 39 90 30 62 1a 27 40 68 b0 36 00 b1 0f 11 00 00 1a
descriptor 2:    00 00 00 ff 00 42 5a 33 30 36 34 35 33 32 37 33 34 32
descriptor 3:    00 00 00 fc 00 50 68 69 6c 69 70 73 20 32 30 30 57 42
descriptor 4:    00 00 00 fd 00 38 4c 1e 62 15 00 0a 20 20 20 20 20 20
extensions:      00
checksum:        ff

EDID version: 1.3
Manufacturer: PHL Model 842 Serial Number --
Made in week 45 of 2006
Analog display, Input voltage level: 0.7/0.3 V
Configurable signal levels
Sync: Separate Composite SyncOnGreen 
Maximum image size: 43 cm x 27 cm
Gamma: 2.20
DPMS levels: Standby Suspend Off
RGB color display
Default (sRGB) color space is primary color space
First detailed timing is preferred timing
Display x,y Chromaticity:
  Red:   0.6425, 0.3320
  Green: 0.2900, 0.6103
  Blue:  0.1435, 0.0781
  White: 0.3134, 0.3291
Established timings supported:
  720x400@70Hz 9:5 HorFreq: 31469 Hz Clock: 28.320 MHz
  640x480@60Hz 4:3 HorFreq: 31469 Hz Clock: 25.175 MHz
  640x480@67Hz 4:3 HorFreq: 35000 Hz Clock: 30.240 MHz
  640x480@72Hz 4:3 HorFreq: 37900 Hz Clock: 31.500 MHz
  640x480@75Hz 4:3 HorFreq: 37500 Hz Clock: 31.500 MHz
  800x600@56Hz 4:3 HorFreq: 35200 Hz Clock: 36.000 MHz
  800x600@60Hz 4:3 HorFreq: 37900 Hz Clock: 40.000 MHz
  800x600@72Hz 4:3 HorFreq: 48100 Hz Clock: 50.000 MHz
  800x600@75Hz 4:3 HorFreq: 46900 Hz Clock: 49.500 MHz
  832x624@75Hz 4:3 HorFreq: 49726 Hz Clock: 57.284 MHz
  1024x768@60Hz 4:3 HorFreq: 48400 Hz Clock: 65.000 MHz
  1024x768@70Hz 4:3 HorFreq: 56500 Hz Clock: 75.000 MHz
  1024x768@75Hz 4:3 HorFreq: 60000 Hz Clock: 78.750 MHz
  1280x1024@75Hz 5:4 HorFreq: 80000 Hz Clock: 135.000 MHz
  1152x870@75Hz 192:145 HorFreq: 67500 Hz Clock: 108.000 MHz
Standard timings supported:
  1152x864@70Hz 4:3
  1152x864@75Hz 4:3 HorFreq: 67500 Hz Clock: 108.000 MHz
  1280x960@60Hz 4:3 HorFreq: 60000 Hz Clock: 108.000 MHz
  1280x1024@60Hz 5:4 HorFreq: 64000 Hz Clock: 108.000 MHz
  1600x1200@60Hz 4:3 HorFreq: 75000 Hz Clock: 162.000 MHz
  1680x1050@60Hz 16:10 HorFreq: 64700 Hz Clock: 119.000 MHz
  1680x1050@75Hz 16:10 HorFreq: 82300 Hz Clock: 187.000 MHz
  1600x1200@75Hz 4:3 HorFreq: 93800 Hz Clock: 202.500 MHz
Detailed mode: Clock 146.000 MHz, 433 mm x 271 mm
               1680 1784 1960 2240 hborder 0
               1050 1053 1059 1089 vborder 0
               +hsync -vsync 
               VertFreq: 59 Hz, HorFreq: 65178 Hz
Serial number: --
Monitor ranges (GTF): 56-76Hz V, 30-98kHz H, max dotclock 210MHz
Checksum: 0xff (valid)
EDID block does NOT conform to EDID 1.3!
	sRGB is signaled, but the chromaticities do not match
	Name descriptor not terminated with a newline
