
EDID (hex):
00ffffffffffff001e6d635901010101
0116010368351e78ea4e4da3564d9e26
0e474aa56a00314f454f614f71408100
010101010101662156aa51001e30468f
330009252100001e000000fd00384b1e
3d09000a202020202020000000fc004d
323433310a20202020202020000000fc
000a2020202020202020202020200068

Extracted contents:
header:          00 ff ff ff ff ff ff 00
serial number:   1e 6d 63 59 01 01 01 01 01 16
version:         01 03
basic params:    68 35 1e 78 ea
chroma info:     4e 4d a3 56 4d 9e 26 0e 47 4a
established:     a5 6a 00
standard:        31 4f 45 4f 61 4f 71 40 81 00 01 01 01 01 01 01
descriptor 1:    66 21 56 aa 51 00 1e 30 46 8f 33 00 09 25 21 00 00 1e
descriptor 2:    00 00 00 fd 00 38 4b 1e 3d 09 00 0a 20 20 20 20 20 20
descriptor 3:    00 00 00 fc 00 4d 32 34 33 31 0a 20 20 20 20 20 20 20
descriptor 4:    00 00 00 fc 00 0a 20 20 20 20 20 20 20 20 20 20 20 20
extensions:      00
checksum:        68

EDID version: 1.3
Manufacturer: GSM Model 5963 Serial Number --
Made in week 1 of 2012
Analog display, Input voltage level: 0.7/0.7 V
Sync: Separate 
Maximum image size: 53 cm x 30 cm
Gamma: 2.20
DPMS levels: Standby Suspend Off
RGB color display
First detailed timing is preferred timing
Display x,y Chromaticity:
  Red:   0.6376, 0.3359
  Green: 0.3037, 0.6191
  Blue:  0.1494, 0.0546
  White: 0.2802, 0.2900
Established timings supported:
  720x400@70Hz 9:5 HorFreq: 31469 Hz Clock: 28.320 MHz
  640x480@60Hz 4:3 HorFreq: 31469 Hz Clock: 25.175 MHz
  640x480@75Hz 4:3 HorFreq: 37500 Hz Clock: 31.500 MHz
  800x600@60Hz 4:3 HorFreq: 37900 Hz Clock: 40.000 MHz
  800x600@75Hz 4:3 HorFreq: 46900 Hz Clock: 49.500 MHz
  832x624@75Hz 4:3 HorFreq: 49726 Hz Clock: 57.284 MHz
  1024x768@60Hz 4:3 HorFreq: 48400 Hz Clock: 65.000 MHz
  1024x768@75Hz 4:3 HorFreq: 60000 Hz Clock: 78.750 MHz
Standard timings supported:
  640x480@75Hz 4:3 HorFreq: 37500 Hz Clock: 31.500 MHz
  800x600@75Hz 4:3 HorFreq: 46900 Hz Clock: 49.500 MHz
  1024x768@75Hz 4:3 HorFreq: 60000 Hz Clock: 78.750 MHz
  1152x864@60Hz 4:3
  1280x800@60Hz 16:10
Detailed mode: Clock 85.500 MHz, 521 mm x 293 mm
               1366 1436 1579 1792 hborder 0
                768  771  774  798 vborder 0
               +hsync +vsync 
               VertFreq: 59 Hz, HorFreq: 47712 Hz
Monitor ranges (GTF): 56-75Hz V, 30-61kHz H, max dotclock 90MHz
Monitor name: M2431
Checksum: 0x68 (valid)
