
EDID (hex):
00ffffffffffff00320c010800000000
00110102802517780ab3d39758568927
21504d00000001010101010101010101
010101010101283c80a070b023403020
36006fe6100000190000000000000000
00000000000000000000000000fe004c
475068696c6970734c43440a0000fe4c
503137315755332d544c41330a200055

Extracted contents:
header:          00 ff ff ff ff ff ff 00
serial number:   32 0c 01 08 00 00 00 00 00 11
version:         01 02
basic params:    80 25 17 78 0a
chroma info:     b3 d3 97 58 56 89 27 21 50 4d
established:     00 00 00
standard:        01 01 01 01 01 01 01 01 01 01 01 01 01 01 01 01
descriptor 1:    28 3c 80 a0 70 b0 23 40 30 20 36 00 6f e6 10 00 00 19
descriptor 2:    00 00 00 00 00 00 00 00 00 00 00 00 00 00 00 00 00 00
descriptor 3:    00 00 00 fe 00 4c 47 50 68 69 6c 69 70 73 4c 43 44 0a
descriptor 4:    00 00 fe 4c 50 31 37 31 57 55 33 2d 54 4c 41 33 0a 20
extensions:      00
checksum:        55

EDID version: 1.2
Manufacturer: LPL Model 801 Serial Number --
Made in year 2007
Digital display
Maximum image size: 37 cm x 23 cm
Gamma: 2.20
RGB color display
First detailed timing is preferred timing
Display x,y Chromaticity:
  Red:   0.5917, 0.3466
  Green: 0.3359, 0.5380
  Blue:  0.1552, 0.1298
  White: 0.3125, 0.3037
Established timings supported:
Standard timings supported:
Detailed mode: Clock 154.000 MHz, 367 mm x 230 mm
               1920 1968 2000 2080 hborder 0
               1200 1203 1209 1235 vborder 0
               -hsync -vsync 
               VertFreq: 59 Hz, HorFreq: 74038 Hz
Manufacturer-specified data, tag 0
ASCII string: LGPhilipsLCD
Monitor descriptor block has byte 2 nonzero (0xfe)
Monitor descriptor block has byte 4 nonzero (0x50)
Unknown monitor description type 76
Checksum: 0x55 (valid)
EDID block does not conform at all!
	Detailed blocks filled with garbage
