
EDID (hex):
00ffffffffffff0030e4ec0600000000
001f0104a51e1378030cb5ae5243b226
0c505400000001010101010101010101
010101010101353c80a070b023403020
36002ebc1000001a0000000000000000
00000000000000000000000000fe004c
4720446973706c61790a2020000000fe
004c503134305755312d53504631011c
02030f00e3058000e60601015a5a2500
00000000000000000000000000000000
00000000000000000000000000000000
00000000000000000000000000000000
00000000000000000000000000000000
00000000000000000000000000000000
00000000000000000000000000000000
000000000000000000000000000000bd

Extracted contents:
header:          00 ff ff ff ff ff ff 00
serial number:   30 e4 ec 06 00 00 00 00 00 1f
version:         01 04
basic params:    a5 1e 13 78 03
chroma info:     0c b5 ae 52 43 b2 26 0c 50 54
established:     00 00 00
standard:        01 01 01 01 01 01 01 01 01 01 01 01 01 01 01 01
descriptor 1:    35 3c 80 a0 70 b0 23 40 30 20 36 00 2e bc 10 00 00 1a
descriptor 2:    00 00 00 00 00 00 00 00 00 00 00 00 00 00 00 00 00 00
descriptor 3:    00 00 00 fe 00 4c 47 20 44 69 73 70 6c 61 79 0a 20 20
descriptor 4:    00 00 00 fe 00 4c 50 31 34 30 57 55 31 2d 53 50 46 31
extensions:      01
checksum:        1c

EDID version: 1.4
Manufacturer: LGD Model 6ec Serial Number --
Made in year 2021
Digital display
8 bits per primary color channel
DisplayPort interface
Maximum image size: 30 cm x 19 cm
Gamma: 2.20
Supported color formats: RGB 4:4:4
First detailed timing includes the native pixel format and preferred refresh rate
Display is continuous frequency
Display x,y Chromaticity:
  Red:   0.6796, 0.3203
  Green: 0.2646, 0.6953
  Blue:  0.1503, 0.0498
  White: 0.3134, 0.3291
Established timings supported:
Standard timings supported:
Detailed mode: Clock 154.130 MHz, 302 mm x 188 mm
               1920 1968 2000 2080 hborder 0
               1200 1203 1209 1235 vborder 0
               +hsync -vsync 
               VertFreq: 60 Hz, HorFreq: 74100 Hz
Manufacturer-specified data, tag 0
ASCII string: LG Display
ASCII string: LP140WU1-SPF1
Has 1 extension blocks
Checksum: 0x1c (valid)

CTA extension block
Extension version: 3
11 bytes of CTA data
  Extended tag: Colorimetry data block
    BT2020RGB
  Extended tag: HDR static metadata data block
    Electro optical transfer functions:
      Traditional gamma - SDR luminance range
    Supported static metadata descriptors:
      Static metadata type 1
    Desired content max luminance: 90 (351.250 cd/m^2)
    Desired content max frame-average luminance: 90 (351.250 cd/m^2)
    Desired content min luminance: 37 (0.074 cd/m^2)
0 native detailed modes
Checksum: 0xbd (valid)

EDID block does NOT conform to EDID 1.4!
	Required 640x480p60 timings are missing in the established timings
	and/or in the SVD list (VIC 1)
	Missing name descriptor
	Missing monitor ranges
