
EDID (hex):
00ffffffffffff000cb8330101000000
17200103801d1178ea4455a9554d9d26
0f5054210800b300d1c0a9c095007140
810081c08180023a801871382d40582c
450022ac1000001e7f2156aa51001e30
468f3300584a2100001a000000fd0030
4c1e5321000a202020202020000000fc
0043583133330a2020202020202001c8
020329f14990040302011213111f2309
870767030c001000384283010000e305
c300e606050169694f023a801871382d
40582c4500bc862100001e0000000000
00000000000000000000000000000000
00000000000000000000000000000000
00000000000000000000000000000000
00000000000000000000000000000079

Extracted contents:
header:          00 ff ff ff ff ff ff 00
serial number:   0c b8 33 01 01 00 00 00 17 20
version:         01 03
basic params:    80 1d 11 78 ea
chroma info:     44 55 a9 55 4d 9d 26 0f 50 54
established:     21 08 00
standard:        b3 00 d1 c0 a9 c0 95 00 71 40 81 00 81 c0 81 80
descriptor 1:    02 3a 80 18 71 38 2d 40 58 2c 45 00 22 ac 10 00 00 1e
descriptor 2:    7f 21 56 aa 51 00 1e 30 46 8f 33 00 58 4a 21 00 00 1a
descriptor 3:    00 00 00 fd 00 30 4c 1e 53 21 00 0a 20 20 20 20 20 20
descriptor 4:    00 00 00 fc 00 43 58 31 33 33 0a 20 20 20 20 20 20 20
extensions:      01
checksum:        c8

EDID version: 1.3
Manufacturer: CEX Model 133 Serial Number --
Made in week 23 of 2022
Digital display
Maximum image size: 29 cm x 17 cm
Gamma: 2.20
DPMS levels: Standby Suspend Off
RGB color display
First detailed timing is preferred timing
Display x,y Chromaticity:
  Red:   0.6611, 0.3320
  Green: 0.3017, 0.6132
  Blue:  0.1494, 0.0595
  White: 0.3134, 0.3291
Established timings supported:
  640x480@60Hz 4:3 HorFreq: 31469 Hz Clock: 25.175 MHz
  800x600@60Hz 4:3 HorFreq: 37900 Hz Clock: 40.000 MHz
  1024x768@60Hz 4:3 HorFreq: 48400 Hz Clock: 65.000 MHz
Standard timings supported:
  1680x1050@60Hz 16:10 HorFreq: 64700 Hz Clock: 119.000 MHz
  1920x1080@60Hz 16:9
  1600x900@60Hz 16:9
  1440x900@60Hz 16:10 HorFreq: 55500 Hz Clock: 88.750 MHz
  1152x864@60Hz 4:3
  1280x800@60Hz 16:10
  1280x720@60Hz 16:9
  1280x1024@60Hz 5:4 HorFreq: 64000 Hz Clock: 108.000 MHz
Detailed mode: Clock 148.500 MHz, 290 mm x 172 mm
               1920 2008 2052 2200 hborder 0
               1080 1084 1089 1125 vborder 0
               +hsync +vsync 
               VertFreq: 60 Hz, HorFreq: 67500 Hz
Detailed mode: Clock 85.750 MHz, 600 mm x 330 mm
               1366 1436 1579 1792 hborder 0
                768  771  774  798 vborder 0
               +hsync -vsync 
               VertFreq: 59 Hz, HorFreq: 47851 Hz
Monitor ranges (GTF): 48-76Hz V, 30-83kHz H, max dotclock 330MHz
Monitor name: CX133
Has 1 extension blocks
Checksum: 0xc8 (valid)

CTA extension block
Extension version: 3
37 bytes of CTA data
  Video data block
    VIC  16 1920x1080@60Hz 16:9 (native) HorFreq: 67500 Hz Clock: 148.500 MHz
    VIC   4 1280x720@60Hz 16:9  HorFreq: 45000 Hz Clock: 74.250 MHz
    VIC   3 720x480@60Hz 16:9  HorFreq: 31469 Hz Clock: 27.000 MHz
    VIC   2 720x480@60Hz 4:3  HorFreq: 31469 Hz Clock: 27.000 MHz
    VIC   1 640x480@60Hz 4:3  HorFreq: 31469 Hz Clock: 25.175 MHz
    VIC  18 720x576@50Hz 16:9  HorFreq: 31250 Hz Clock: 27.000 MHz
    VIC  19 1280x720@50Hz 16:9  HorFreq: 37500 Hz Clock: 74.250 MHz
    VIC  17 720x576@50Hz 4:3  HorFreq: 31250 Hz Clock: 27.000 MHz
    VIC  31 1920x1080@50Hz 16:9  HorFreq: 56250 Hz Clock: 148.500 MHz
  Audio data block
    Linear PCM, max channels 2
      Supported sample rates (kHz): 48 44.1 32
      Supported sample sizes (bits): 24 20 16
  Vendor-specific data block, OUI 000c03 (HDMI)
    Source physical address 1.0.0.0
    DC_36bit
    DC_30bit
    DC_Y444
    Maximum TMDS clock: 330MHz
  Speaker allocation data block
    Speaker map:
      FL/FR - Front Left/Right
  Extended tag: Colorimetry data block
    xvYCC601
    xvYCC709
    BT2020YCC
    BT2020RGB
  Extended tag: HDR static metadata data block
    Electro optical transfer functions:
      Traditional gamma - SDR luminance range
      SMPTE ST2084
    Supported static metadata descriptors:
      Static metadata type 1
    Desired content max luminance: 105 (486.099 cd/m^2)
    Desired content max frame-average luminance: 105 (486.099 cd/m^2)
    Desired content min luminance: 79 (0.467 cd/m^2)
Underscans PC formats by default
Basic audio support
Supports YCbCr 4:4:4
Supports YCbCr 4:2:2
1 native detailed modes
Detailed mode: Clock 148.500 MHz, 700 mm x 390 mm
               1920 2008 2052 2200 hborder 0
               1080 1084 1089 1125 vborder 0
               +hsync +vsync 
               VertFreq: 60 Hz, HorFreq: 67500 Hz
Checksum: 0x79 (valid)
