
EDID (hex):
00ffffffffffff0021340c8000000000
161201030e221b662a0010a057479826
10484cafef0081808140814f81c081cf
7140714f0101302a009851002a403070
13005512110000186419004041002630
18883600551211000018000000fd0038
4b1f500d000a202020202020000000fc
00473730545220442d535542202000bf

Extracted contents:
header:          00 ff ff ff ff ff ff 00
serial number:   21 34 0c 80 00 00 00 00 16 12
version:         01 03
basic params:    0e 22 1b 66 2a
chroma info:     00 10 a0 57 47 98 26 10 48 4c
established:     af ef 00
standard:        81 80 81 40 81 4f 81 c0 81 cf 71 40 71 4f 01 01
descriptor 1:    30 2a 00 98 51 00 2a 40 30 70 13 00 55 12 11 00 00 18
descriptor 2:    64 19 00 40 41 00 26 30 18 88 36 00 55 12 11 00 00 18
descriptor 3:    00 00 00 fd 00 38 4b 1f 50 0d 00 0a 20 20 20 20 20 20
descriptor 4:    00 00 00 fc 00 47 37 30 54 52 20 44 2d 53 55 42 20 20
extensions:      00
checksum:        bf

EDID version: 1.3
Manufacturer: HIT Model 800c Serial Number --
Made in week 22 of 2008
Analog display, Input voltage level: 0.7/0.3 V
Sync: Separate Composite SyncOnGreen 
Maximum image size: 34 cm x 27 cm
Gamma: 2.02
DPMS levels: Off
RGB color display
First detailed timing is preferred timing
Display x,y Chromaticity:
  Red:   0.6250, 0.3398
  Green: 0.2773, 0.5937
  Blue:  0.1484, 0.0634
  White: 0.2812, 0.2968
Established timings supported:
  720x400@70Hz 9:5 HorFreq: 31469 Hz Clock: 28.320 MHz
  640x480@60Hz 4:3 HorFreq: 31469 Hz Clock: 25.175 MHz
  640x480@72Hz 4:3 HorFreq: 37900 Hz Clock: 31.500 MHz
  640x480@75Hz 4:3 HorFreq: 37500 Hz Clock: 31.500 MHz
  800x600@56Hz 4:3 HorFreq: 35200 Hz Clock: 36.000 MHz
  800x600@60Hz 4:3 HorFreq: 37900 Hz Clock: 40.000 MHz
  800x600@72Hz 4:3 HorFreq: 48100 Hz Clock: 50.000 MHz
  800x600@75Hz 4:3 HorFreq: 46900 Hz Clock: 49.500 MHz
  832x624@75Hz 4:3 HorFreq: 49726 Hz Clock: 57.284 MHz
  1024x768@60Hz 4:3 HorFreq: 48400 Hz Clock: 65.000 MHz
  1024x768@70Hz 4:3 HorFreq: 56500 Hz Clock: 75.000 MHz
  1024x768@75Hz 4:3 HorFreq: 60000 Hz Clock: 78.750 MHz
  1280x1024@75Hz 5:4 HorFreq: 80000 Hz Clock: 135.000 MHz
Standard timings supported:
  1280x1024@60Hz 5:4 HorFreq: 64000 Hz Clock: 108.000 MHz
  1280x960@60Hz 4:3 HorFreq: 60000 Hz Clock: 108.000 MHz
  1280x960@75Hz 4:3
  1280x720@60Hz 16:9
  1280x720@75Hz 16:9
  1152x864@60Hz 4:3
  1152x864@75Hz 4:3 HorFreq: 67500 Hz Clock: 108.000 MHz
Detailed mode: Clock 108.000 MHz, 341 mm x 274 mm
               1280 1328 1440 1688 hborder 0
               1024 1025 1028 1066 vborder 0
               -hsync -vsync 
               VertFreq: 60 Hz, HorFreq: 63981 Hz
Detailed mode: Clock 65.000 MHz, 341 mm x 274 mm
               1024 1048 1184 1344 hborder 0
                768  771  777  806 vborder 0
               -hsync -vsync 
               VertFreq: 60 Hz, HorFreq: 48363 Hz
Monitor ranges (GTF): 56-75Hz V, 31-80kHz H, max dotclock 130MHz
Checksum: 0xbf (valid)
EDID block does NOT conform to EDID 1.3!
	Name descriptor not terminated with a newline
One or more of the timings is out of range of the Monitor Ranges:
  Vertical Freq: 56 - 75 Hz
  Horizontal Freq: 31469 - 80000 Hz
  Maximum Clock: 135.000 MHz
