
EDID (hex):
00ffffffffffff001ab30f0701010101
09110103682f1e822ad425a455499b27
135054a54b00950f81808140714f9500
b30081c001016c399030621a274068b0
3600da281100001c000000ff00594554
4e3032303232330a2020000000fd0038
4b1f530f2d0a20560a202020000000fc
004c3232572d320a2020202020200090

Extracted contents:
header:          00 ff ff ff ff ff ff 00
serial number:   1a b3 0f 07 01 01 01 01 09 11
version:         01 03
basic params:    68 2f 1e 82 2a
chroma info:     d4 25 a4 55 49 9b 27 13 50 54
established:     a5 4b 00
standard:        95 0f 81 80 81 40 71 4f 95 00 b3 00 81 c0 01 01
descriptor 1:    6c 39 90 30 62 1a 27 40 68 b0 36 00 da 28 11 00 00 1c
descriptor 2:    00 00 00 ff 00 59 45 54 4e 30 32 30 32 32 33 0a 20 20
descriptor 3:    00 00 00 fd 00 38 4b 1f 53 0f 2d 0a 20 56 0a 20 20 20
descriptor 4:    00 00 00 fc 00 4c 32 32 57 2d 32 0a 20 20 20 20 20 20
extensions:      00
checksum:        90

EDID version: 1.3
Manufacturer: FUS Model 70f Serial Number --
Made in week 9 of 2007
Analog display, Input voltage level: 0.7/0.7 V
Sync: Separate 
Maximum image size: 47 cm x 30 cm
Gamma: 2.30
DPMS levels: Off
RGB color display
First detailed timing is preferred timing
Display x,y Chromaticity:
  Red:   0.6435, 0.3330
  Green: 0.2861, 0.6054
  Blue:  0.1523, 0.0761
  White: 0.3134, 0.3291
Established timings supported:
  720x400@70Hz 9:5 HorFreq: 31469 Hz Clock: 28.320 MHz
  640x480@60Hz 4:3 HorFreq: 31469 Hz Clock: 25.175 MHz
  640x480@75Hz 4:3 HorFreq: 37500 Hz Clock: 31.500 MHz
  800x600@60Hz 4:3 HorFreq: 37900 Hz Clock: 40.000 MHz
  800x600@75Hz 4:3 HorFreq: 46900 Hz Clock: 49.500 MHz
  1024x768@60Hz 4:3 HorFreq: 48400 Hz Clock: 65.000 MHz
  1024x768@75Hz 4:3 HorFreq: 60000 Hz Clock: 78.750 MHz
  1280x1024@75Hz 5:4 HorFreq: 80000 Hz Clock: 135.000 MHz
Standard timings supported:
  1440x900@75Hz 16:10 HorFreq: 82300 Hz Clock: 156.000 MHz
  1280x1024@60Hz 5:4 HorFreq: 64000 Hz Clock: 108.000 MHz
  1280x960@60Hz 4:3 HorFreq: 60000 Hz Clock: 108.000 MHz
  1152x864@75Hz 4:3 HorFreq: 67500 Hz Clock: 108.000 MHz
  1440x900@60Hz 16:10 HorFreq: 55500 Hz Clock: 88.750 MHz
  1680x1050@60Hz 16:10 HorFreq: 64700 Hz Clock: 119.000 MHz
  1280x720@60Hz 16:9
Detailed mode: Clock 147.000 MHz, 474 mm x 296 mm
               1680 1784 1960 2240 hborder 0
               1050 1053 1059 1089 vborder 0
               -hsync +vsync 
               VertFreq: 60 Hz, HorFreq: 65625 Hz
Serial number: --
Monitor ranges (invalid): 56-75Hz V, 31-83kHz H, max dotclock 150MHz
Monitor name: L22W-2
Checksum: 0x90 (valid)
EDID block does not conform at all!
	Detailed blocks filled with garbage
	Range descriptor contains garbage


