
EDID (hex):
00ffffffffffff00052f000000000000
2f1f0104a5000078e28496ac5130b425
10505300000001c00100010001000100
010001000100a23680b470381e402a10
72040f282100001a0000000000000000
00000000000000000000000000fd0038
4c1e5311000a202020202020000000fc
004d6f6e69746f720a20202020200056

Extracted contents:
header:          00 ff ff ff ff ff ff 00
serial number:   05 2f 00 00 00 00 00 00 2f 1f
version:         01 04
basic params:    a5 00 00 78 e2
chroma info:     84 96 ac 51 30 b4 25 10 50 53
established:     00 00 00
standard:        01 c0 01 00 01 00 01 00 01 00 01 00 01 00 01 00
descriptor 1:    a2 36 80 b4 70 38 1e 40 2a 10 72 04 0f 28 21 00 00 1a
descriptor 2:    00 00 00 00 00 00 00 00 00 00 00 00 00 00 00 00 00 00
descriptor 3:    00 00 00 fd 00 38 4c 1e 53 11 00 0a 20 20 20 20 20 20
descriptor 4:    00 00 00 fc 00 4d 6f 6e 69 74 6f 72 0a 20 20 20 20 20
extensions:      00
checksum:        56

EDID version: 1.4
Manufacturer: AIO Model 0 Serial Number --
Made in week 47 of 2021
Digital display
8 bits per primary color channel
DisplayPort interface
Image size is variable
Gamma: 2.20
DPMS levels: Standby Suspend Off
Supported color formats: RGB 4:4:4
First detailed timing includes the native pixel format and preferred refresh rate
Display x,y Chromaticity:
  Red:   0.6738, 0.3164
  Green: 0.1884, 0.7031
  Blue:  0.1464, 0.0634
  White: 0.3134, 0.3261
Established timings supported:
Standard timings supported:
  256x144@60Hz 16:9
  256x160@60Hz 16:10
  256x160@60Hz 16:10
  256x160@60Hz 16:10
  256x160@60Hz 16:10
  256x160@60Hz 16:10
  256x160@60Hz 16:10
  256x160@60Hz 16:10
Detailed mode: Clock 139.860 MHz, 527 mm x 296 mm
               1920 1962 1978 2100 hborder 0
               1080 1103 1105 1110 vborder 0
               +hsync -vsync 
               VertFreq: 60 Hz, HorFreq: 66600 Hz
Manufacturer-specified data, tag 0
Monitor ranges (GTF): 56-76Hz V, 30-83kHz H, max dotclock 170MHz
Monitor name: Monitor
Checksum: 0x56 (valid)
