edid-decode (hex):

00 ff ff ff ff ff ff 00 06 af 3e 12 00 00 00 00
00 13 01 04 95 1f 11 78 02 c8 95 9e 57 54 92 26
0f 50 54 00 00 00 01 01 01 01 01 01 01 01 01 01
01 01 01 01 01 01 1c 2a 40 72 61 84 0c 30 30 dc
44 00 35 ae 10 00 00 18 13 1c 40 72 61 84 0c 30
30 dc 44 00 35 ae 10 00 00 18 00 00 00 00 00 00
00 00 00 00 00 00 00 00 00 00 00 00 00 00 00 02
00 0c 3f cc 0a 3c 64 21 12 24 7d 20 20 20 00 c1

----------------

Block 0, Base EDID:
  EDID Structure Version & Revision: 1.4
  Vendor & Product Identification:
    Manufacturer: AUO
    Model: 4670
    Made in: 2009
  Basic Display Parameters & Features:
    Digital display
    Bits per primary color channel: 6
    DisplayPort interface
    Maximum image size: 31 cm x 17 cm
    Gamma: 2.20
    Supported color formats: RGB 4:4:4
    First detailed timing includes the native pixel format and preferred refresh rate
  Color Characteristics:
    Red  : 0.6201, 0.3398
    Green: 0.3300, 0.5703
    Blue : 0.1503, 0.0595
    White: 0.3134, 0.3291
  Established Timings I & II: none
  Standard Timings: none
  Detailed Timing Descriptors:
    DTD 1:  1600x900    60.001 Hz  16:9    54.721 kHz 107.800 MHz (309 mm x 174 mm)
                 Hfront   48 Hsync 220 Hback 102 Hpol N
                 Vfront    4 Vsync   4 Vback   4 Vpol N
    DTD 2:  1600x900    40.002 Hz  16:9    36.482 kHz  71.870 MHz (309 mm x 174 mm)
                 Hfront   48 Hsync 220 Hback 102 Hpol N
                 Vfront    4 Vsync   4 Vback   4 Vpol N
    Empty Descriptor
    Manufacturer-Specified Display Descriptor (0x02): 00 02 00 0c 3f cc 0a 3c 64 21 12 24 7d 20 20 20 '....?..<d!.$}   '
Checksum: 0xc1

----------------

Failures:

Block 0, Base EDID:
  Empty Descriptor: Use Dummy Descriptor instead of all zeroes.
  Missing Display Product Name.

EDID conformity: FAIL
