edid-decode (hex):

00 ff ff ff ff ff ff 00 04 96 91 65 01 01 01 01
32 0a 01 03 08 00 00 78 ef 6f d5 99 56 51 90 27
20 4d 51 00 00 00 45 40 61 40 81 80 a9 40 01 01
01 01 01 01 01 01 88 2a 00 b0 51 00 24 40 50 88
13 00 00 00 00 00 00 1c 00 00 00 ff 00 30 0a 20
20 20 20 20 20 20 20 20 20 20 00 00 00 fd 00 37
41 14 50 10 00 0a 20 20 20 20 20 20 00 00 00 fc
00 41 44 56 2d 4b 56 4d 2d 49 50 2d 78 32 00 b9

----------------

Block 0, Base EDID:
  EDID Structure Version & Revision: 1.3
  Vendor & Product Identification:
    Manufacturer: ADV
    Model: 26001
    Serial Number: ...
    Made in: week 50 of 2000
  Basic Display Parameters & Features:
    Analog display
    Input voltage level: 0.7/0.3 V
    Sync: Separate
    Image size is variable
    Gamma: 2.20
    DPMS levels: Standby Suspend Off
    RGB color display
    Default (sRGB) color space is primary color space
    First detailed timing is the preferred timing
    Supports GTF timings within operating range
  Color Characteristics:
    Red  : 0.5986, 0.3378
    Green: 0.3193, 0.5654
    Blue : 0.1552, 0.1259
    White: 0.3017, 0.3173
  Established Timings I & II: none
  Standard Timings:
    DMT 0x09:   800x600    60.317 Hz   4:3    37.879 kHz  40.000 MHz
    DMT 0x10:  1024x768    60.004 Hz   4:3    48.363 kHz  65.000 MHz
    DMT 0x23:  1280x1024   60.020 Hz   5:4    63.981 kHz 108.000 MHz
    DMT 0x33:  1600x1200   60.000 Hz   4:3    75.000 kHz 162.000 MHz
  Detailed Timing Descriptors:
    DTD 1:  1280x1024   59.998 Hz   5:4    63.598 kHz 108.880 MHz
                 Hfront   80 Hsync 136 Hback 216 Hpol N
                 Vfront    1 Vsync   3 Vback  32 Vpol P
    Display Product Serial Number: ...
  Display Range Limits:
    Monitor ranges (GTF): 55-65 Hz V, 20-80 kHz H, max dotclock 160 MHz
    Display Product Name: 'ADV-KVM-IP-x2'
Checksum: 0xb9

----------------

Warnings:

EDID:
  Base EDID: Some timings are out of range of the Monitor Ranges:
    Maximum Clock: 162.000 MHz (Monitor: 160.000 MHz)
    Could be due to a Monitor Range off-by-one rounding issue

Failures:

Block 0, Base EDID:
  Basic Display Parameters & Features: sRGB is signaled, but the chromaticities do not match.

EDID conformity: FAIL
