edid-decode (hex):

00 ff ff ff ff ff ff 00 09 e5 60 0d 00 00 00 00
2d 22 01 04 b5 22 16 78 07 03 85 a7 55 4d 9f 25
0d 50 54 00 00 00 01 01 01 01 01 01 01 01 01 01
01 01 01 01 01 01 4d db 00 a0 a0 40 78 60 30 20
66 00 59 d7 10 00 00 1a b9 57 00 a0 a0 40 78 60
30 20 66 00 59 d7 10 00 00 1a 00 00 00 fe 00 43
57 32 47 44 80 4e 45 31 36 4e 34 32 00 00 00 00
00 03 41 2d 9e 00 01 00 00 0b 41 0a 20 20 01 63

70 20 79 02 00 20 00 13 9a 0e 00 60 0d 00 00 00
00 2d 18 07 4e 45 31 36 4e 34 32 21 01 1d 77 0d
6a 08 00 0a 40 06 88 6e fa 54 d0 b4 9f 56 02 0d
02 35 54 b0 5c b0 5c 66 32 13 78 22 00 14 ff 90
08 85 ff 09 9f 00 2f 00 1f 00 3f 06 77 00 05 00
05 00 25 00 09 ff 90 08 ff 90 08 30 78 80 2e 00
06 80 4b b0 5c b0 5c 81 00 13 72 1a 00 00 03 51
30 78 00 00 53 42 53 42 78 00 00 00 00 00 a6 90

00 ff ff ff ff ff ff 00 09 e5 60 0d 00 00 00 00
2d 22 01 04 b5 22 16 78 07 03 85 a7 55 4d 9f 25
0d 50 54 00 00 00 01 01 01 01 01 01 01 01 01 01
01 01 01 01 01 01 4d db 00 a0 a0 40 78 60 30 20
66 00 59 d7 10 00 00 1a b9 57 00 a0 a0 40 78 60
30 20 66 00 59 d7 10 00 00 1a 00 00 00 fe 00 43
57 32 47 44 80 4e 45 31 36 4e 34 32 00 00 00 00
00 03 41 2d 9e 00 01 00 00 0b 41 0a 20 20 01 63

70 20 79 02 00 20 00 13 9a 0e 00 60 0d 00 00 00
00 2d 18 07 4e 45 31 36 4e 34 32 21 01 1d 77 0d
6a 08 00 0a 40 06 88 6e fa 54 d0 b4 9f 56 02 0d
02 35 54 b0 5c b0 5c 66 32 13 78 22 00 14 ff 90
08 85 ff 09 9f 00 2f 00 1f 00 3f 06 77 00 05 00
05 00 25 00 09 ff 90 08 ff 90 08 30 78 80 2e 00
06 80 4b b0 5c b0 5c 81 00 13 72 1a 00 00 03 51
30 78 00 00 53 42 53 42 78 00 00 00 00 00 a6 90

----------------

Block 0, Base EDID:
  EDID Structure Version & Revision: 1.4
  Vendor & Product Identification:
    Manufacturer: BOE
    Model: 3424
    Made in: week 45 of 2024
  Basic Display Parameters & Features:
    Digital display
    Bits per primary color channel: 10
    DisplayPort interface
    Maximum image size: 34 cm x 22 cm
    Gamma: 2.20
    Supported color formats: RGB 4:4:4
    Default (sRGB) color space is primary color space
    First detailed timing includes the native pixel format and preferred refresh rate
    Display is continuous frequency
  Color Characteristics:
    Red  : 0.6523, 0.3320
    Green: 0.3007, 0.6240
    Blue : 0.1464, 0.0507
    White: 0.3134, 0.3291
  Established Timings I & II: none
  Standard Timings: none
  Detailed Timing Descriptors:
    DTD 1:  2560x1600  120.000427 Hz  16:10   206.401 kHz    561.410000 MHz (345 mm x 215 mm)
                 Hfront   48 Hsync  32 Hback   80 Hpol P
                 Vfront    6 Vsync   6 Vback  108 Vpol N
    DTD 2:  2560x1600   48.001453 Hz  16:10    82.562 kHz    224.570000 MHz (345 mm x 215 mm)
                 Hfront   48 Hsync  32 Hback   80 Hpol P
                 Vfront    6 Vsync   6 Vback  108 Vpol N
    Alphanumeric Data String: 'CW2GD'
    Manufacturer-Specified Display Descriptor (0x00): 00 00 00 03 41 2d 9e 00 01 00 00 0b 41 0a 20 20 '....A-......A.  '
  Extension blocks: 1
Checksum: 0x63

----------------

Block 1, DisplayID Extension Block:
  Version: 2.0
  Extension Count: 0
  Display Product Primary Use Case: None of the listed primary use cases; generic display
  Product Identification Data Block (0x20), OUI 9A-0E-00:
    Product Code: 3424
    Year of Manufacture: 2024, Week 45
    Product ID: NE16N42
  Display Parameters Data Block (0x21):
    Image size: 344.7 mm x 215.4 mm
    Display native pixel format: 2560x1600
    Scan Orientation: Left to Right, Top to Bottom
    Luminance Information: Guidance for the Source device
    Color Information: CIE 1931
    Audio Speaker Information: not integrated
    Native Color Chromaticity:
      Primary #1:  (0.651855, 0.331787)
      Primary #2:  (0.300781, 0.623779)
      Primary #3:  (0.145996, 0.050781)
      White Point: (0.312988, 0.328857)
    Native Maximum Luminance (Full Coverage): 300.000000 cd/m^2
    Native Maximum Luminance (10% Rectangular Coverage): 300.000000 cd/m^2
    Native Minimum Luminance: 0.199951 cd/m^2
    Native Color Depth: 12 bpc
    Display Device Technology: Active Matrix LCD
    Display Device Theme Preference: No Preference
    Native Gamma EOTF: 2.20
  Video Timing Modes Type 7 - Detailed Timings Data Block:
    DTD:  2560x1600  120.000000 Hz  16:10   206.400 kHz    561.408000 MHz (aspect 16:10, no 3D stereo, preferred)
               Hfront   48 Hsync  32 Hback   80 Hpol N
               Vfront    6 Vsync   6 Vback  108 Vpol N
  Dynamic Video Timing Range Limits Data Block:
    Minimum Pixel Clock: 561408 kHz
    Maximum Pixel Clock: 561408 kHz
    Minimum Vertical Refresh Rate: 48 Hz
    Maximum Vertical Refresh Rate: 120 Hz
    Seamless Dynamic Video Timing Support: Yes
  Unknown DisplayID Data Block (0x2e, length 6):
    80 4b b0 5c b0 5c                               '.K.\.\'
  CTA-861 DisplayID Data Block:
  Vendor-Specific Data Block (AMD), OUI 00-00-1A:
    Version: 3.81
    Minimum Refresh Rate: 48 Hz
    Maximum Refresh Rate: 120 Hz
    Flags 1.x: 0x00
    Flags 2.x: 0x00
    Maximum luminance: 83 (301.833 cd/m^2)
    Minimum luminance: 66 (0.202 cd/m^2)
    Unknown: 0x53 0x42
  Checksum: 0xa6
Checksum: 0x90

----------------

Block 2, Unknown EDID Extension Block 0x00:
  00 ff ff ff ff ff ff 00 09 e5 60 0d 00 00 00 00 '..........`.....'
  2d 22 01 04 b5 22 16 78 07 03 85 a7 55 4d 9f 25 '-"...".x....UM.%'
  0d 50 54 00 00 00 01 01 01 01 01 01 01 01 01 01 '.PT.............'
  01 01 01 01 01 01 4d db 00 a0 a0 40 78 60 30 20 '......M....@x`0 '
  66 00 59 d7 10 00 00 1a b9 57 00 a0 a0 40 78 60 'f.Y......W...@x`'
  30 20 66 00 59 d7 10 00 00 1a 00 00 00 fe 00 43 '0 f.Y..........C'
  57 32 47 44 80 4e 45 31 36 4e 34 32 00 00 00 00 'W2GD.NE16N42....'
  00 03 41 2d 9e 00 01 00 00 0b 41 0a 20 20 01 63 '..A-......A.  .c'
Checksum: 0x63

----------------

Block 3, DisplayID Extension Block:
  Version: 2.0
  Extension Count: 0
  Product Identification Data Block (0x20), OUI 9A-0E-00:
    Product Code: 3424
    Year of Manufacture: 2024, Week 45
    Product ID: NE16N42
  Display Parameters Data Block (0x21):
    Image size: 344.7 mm x 215.4 mm
    Display native pixel format: 2560x1600
    Scan Orientation: Left to Right, Top to Bottom
    Luminance Information: Guidance for the Source device
    Color Information: CIE 1931
    Audio Speaker Information: not integrated
    Native Color Chromaticity:
      Primary #1:  (0.651855, 0.331787)
      Primary #2:  (0.300781, 0.623779)
      Primary #3:  (0.145996, 0.050781)
      White Point: (0.312988, 0.328857)
    Native Maximum Luminance (Full Coverage): 300.000000 cd/m^2
    Native Maximum Luminance (10% Rectangular Coverage): 300.000000 cd/m^2
    Native Minimum Luminance: 0.199951 cd/m^2
    Native Color Depth: 12 bpc
    Display Device Technology: Active Matrix LCD
    Display Device Theme Preference: No Preference
    Native Gamma EOTF: 2.20
  Video Timing Modes Type 7 - Detailed Timings Data Block:
    DTD:  2560x1600  120.000000 Hz  16:10   206.400 kHz    561.408000 MHz (aspect 16:10, no 3D stereo, preferred)
               Hfront   48 Hsync  32 Hback   80 Hpol N
               Vfront    6 Vsync   6 Vback  108 Vpol N
  Dynamic Video Timing Range Limits Data Block:
    Minimum Pixel Clock: 561408 kHz
    Maximum Pixel Clock: 561408 kHz
    Minimum Vertical Refresh Rate: 48 Hz
    Maximum Vertical Refresh Rate: 120 Hz
    Seamless Dynamic Video Timing Support: Yes
  Unknown DisplayID Data Block (0x2e, length 6):
    80 4b b0 5c b0 5c                               '.K.\.\'
  CTA-861 DisplayID Data Block:
  Vendor-Specific Data Block (AMD), OUI 00-00-1A:
    Version: 3.81
    Minimum Refresh Rate: 48 Hz
    Maximum Refresh Rate: 120 Hz
    Flags 1.x: 0x00
    Flags 2.x: 0x00
    Maximum luminance: 83 (301.833 cd/m^2)
    Minimum luminance: 66 (0.202 cd/m^2)
    Unknown: 0x53 0x42
  Checksum: 0xa6
Checksum: 0x90

----------------

Warnings:

Block 0, Base EDID:
  Missing Display Product Name.
Block 1, DisplayID Extension Block:
  Product Identification Data Block (0x20), OUI 9A-0E-00: Unknown OUI 9A-0E-00.
Block 3, DisplayID Extension Block:
  Product Identification Data Block (0x20), OUI 9A-0E-00: Unknown OUI 9A-0E-00.

Failures:

Block 0, Base EDID:
  Basic Display Parameters & Features: sRGB is signaled, but the chromaticities do not match.
  Alphanumeric Data String: Non-printable character.
  Missing Display Range Limits Descriptor.
Block 1, DisplayID Extension Block:
  Expected 0 DisplayID Extension Block, but got 1.
Block 2, Base EDID:
  Unknown Extension Block.
Block 3, DisplayID Extension Block:
  Product Type should be 0 in extension block.
  Product Identification Data Block (0x20), OUI 9A-0E-00: Product Identification Data Block (0x20), OUI 9A-0E-00 is required to be the first DisplayID Data Block.
  Display Parameters Data Block (0x21): Duplicate Display Parameters Data Block.
EDID:
  Base EDID: EDID specified 1 extension block(s), but found 3 extension block(s).
  DisplayID: Missing DisplayID Display Interface Features Data Block.

EDID conformity: FAIL
