
EDID (hex):
00ffffffffffff000e1403d000000000
0b1e0102801f11780e428ea951449323
154c5300000001010101010101010101
010101010101423780cc70381e403020
360035ae10000019000000fc000a2020
20202020202020202020000000fe0031
3430504d3432443135363820000000fe
00435054313430504d3432443135004f

Extracted contents:
header:          00 ff ff ff ff ff ff 00
serial number:   0e 14 03 d0 00 00 00 00 0b 1e
version:         01 02
basic params:    80 1f 11 78 0e
chroma info:     42 8e a9 51 44 93 23 15 4c 53
established:     00 00 00
standard:        01 01 01 01 01 01 01 01 01 01 01 01 01 01 01 01
descriptor 1:    42 37 80 cc 70 38 1e 40 30 20 36 00 35 ae 10 00 00 19
descriptor 2:    00 00 00 fc 00 0a 20 20 20 20 20 20 20 20 20 20 20 20
descriptor 3:    00 00 00 fe 00 31 34 30 50 4d 34 32 44 31 35 36 38 20
descriptor 4:    00 00 00 fe 00 43 50 54 31 34 30 50 4d 34 32 44 31 35
extensions:      00
checksum:        4f

EDID version: 1.2
Manufacturer: CPT Model d003 Serial Number --
Made in week 11 of 2020
Digital display
Maximum image size: 31 cm x 17 cm
Gamma: 2.20
RGB color display
Default (sRGB) color space is primary color space
First detailed timing is preferred timing
Display x,y Chromaticity:
  Red:   0.6611, 0.3164
  Green: 0.2656, 0.5761
  Blue:  0.1386, 0.0820
  White: 0.2998, 0.3261
Established timings supported:
Standard timings supported:
Detailed mode: Clock 141.460 MHz, 309 mm x 174 mm
               1920 1968 2000 2124 hborder 0
               1080 1083 1089 1110 vborder 0
               -hsync -vsync 
               VertFreq: 60 Hz, HorFreq: 66600 Hz
Monitor name: 
ASCII string: 140PM42D1568 
ASCII string: CPT140PM42D15
Checksum: 0x4f (valid)
