edid-decode (hex):

00 ff ff ff ff ff ff 00 59 3a 21 00 01 01 01 01
16 11 01 03 3f 46 27 78 ea 68 3d a4 54 48 9a 25
0f 47 4a a5 ca 00 81 80 01 01 01 01 01 01 01 01
01 01 01 01 01 01 66 21 56 b0 51 00 1b 30 80 82
26 00 bc 86 21 00 00 1a 00 00 00 fd 00 32 55 1f
46 0b 00 0a 20 20 20 20 20 20 00 00 00 ff 00 53
53 41 42 42 48 32 32 34 32 39 30 33 00 00 00 fc
00 56 58 33 32 4c 20 48 44 54 56 31 30 41 00 5c

00 ff ff ff ff ff ff 00 59 3a 21 00 01 01 01 01
16 11 01 03 3f 46 27 78 ea 68 3d a4 54 48 9a 25
0f 47 4a a5 ca 00 81 80 01 01 01 01 01 01 01 01
01 01 01 01 01 01 66 21 56 b0 51 00 1b 30 80 82
26 00 bc 86 21 00 00 1a 00 00 00 fd 00 32 55 1f
46 0b 00 0a 20 20 20 20 20 20 00 00 00 ff 00 53
53 41 42 42 48 32 32 34 32 39 30 33 00 00 00 fc
00 56 58 33 32 4c 20 48 44 54 56 31 30 41 00 5c

----------------

Block 0, Base EDID:
  EDID Structure Version & Revision: 1.3
  Vendor & Product Identification:
    Manufacturer: VIZ
    Model: 33
    Serial Number: ...
    Made in: week 22 of 2007
  Basic Display Parameters & Features:
    Analog display
    Signal Level Standard: 0.714 : 0.286 : 1.000 V p-p
    Blank-to-black setup/pedestal
    Sync: Separate Composite SyncOnGreen Serration
    Maximum image size: 70 cm x 39 cm
    Gamma: 2.20
    DPMS levels: Standby Suspend Off
    RGB color display
    First detailed timing is the preferred timing
  Color Characteristics:
    Red  : 0.6416, 0.3300
    Green: 0.2832, 0.6015
    Blue : 0.1445, 0.0615
    White: 0.2802, 0.2900
  Established Timings I & II:
    IBM     :   720x400    70.081663 Hz   9:5     31.467 kHz     28.320000 MHz
    DMT 0x04:   640x480    59.940476 Hz   4:3     31.469 kHz     25.175000 MHz
    DMT 0x06:   640x480    75.000000 Hz   4:3     37.500 kHz     31.500000 MHz
    DMT 0x09:   800x600    60.316541 Hz   4:3     37.879 kHz     40.000000 MHz
    DMT 0x0a:   800x600    72.187572 Hz   4:3     48.077 kHz     50.000000 MHz
    DMT 0x0b:   800x600    75.000000 Hz   4:3     46.875 kHz     49.500000 MHz
    DMT 0x10:  1024x768    60.003840 Hz   4:3     48.363 kHz     65.000000 MHz
    DMT 0x12:  1024x768    75.028582 Hz   4:3     60.023 kHz     78.750000 MHz
  Standard Timings:
    DMT 0x23:  1280x1024   60.019740 Hz   5:4     63.981 kHz    108.000000 MHz
  Detailed Timing Descriptors:
    DTD 1:  1366x768    59.814889 Hz 683:384   47.553 kHz     85.500000 MHz (700 mm x 390 mm)
                 Hfront  128 Hsync 130 Hback  174 Hpol P
                 Vfront    2 Vsync   6 Vback   19 Vpol N
    Display Range Limits:
      Monitor ranges (GTF): 50-85 Hz V, 31-70 kHz H, max dotclock 110 MHz
    Display Product Serial Number: ...
    Display Product Name: 'VX32L HDTV10A'
Checksum: 0x5c

----------------

Block 1, Unknown EDID Extension Block 0x00:
  00 ff ff ff ff ff ff 00 59 3a 21 00 01 01 01 01 '........Y:!.....'
  16 11 01 03 3f 46 27 78 ea 68 3d a4 54 48 9a 25 '....?F'x.h=.TH.%'
  0f 47 4a a5 ca 00 81 80 01 01 01 01 01 01 01 01 '.GJ.............'
  01 01 01 01 01 01 66 21 56 b0 51 00 1b 30 80 82 '......f!V.Q..0..'
  26 00 bc 86 21 00 00 1a 00 00 00 fd 00 32 55 1f '&...!........2U.'
  46 0b 00 0a 20 20 20 20 20 20 00 00 00 ff 00 53 'F...      .....S'
  53 41 42 42 48 32 32 34 32 39 30 33 00 00 00 fc 'SABBH2242903....'
  00 56 58 33 32 4c 20 48 44 54 56 31 30 41 00 5c '.VX32L HDTV10A.\'
Checksum: 0x5c

----------------

Failures:

Block 1, Base EDID:
  Unknown Extension Block.
EDID:
  Base EDID: EDID specified 0 extension block(s), but found 1 extension block(s).

EDID conformity: FAIL
