
EDID (hex):
00ffffffffffff0022f00b3301010101
24190103682d1a782a69d5a2564fa028
0f5054210800a9c081c0950081008180
010101010101302a40c8608464301850
1300c4071100001e000000fd00323c1e
4611000a202020202020000000fc0048
5020563230320a2020202020000000ff
003343513533363152475a0a2020001d

Extracted contents:
header:          00 ff ff ff ff ff ff 00
serial number:   22 f0 0b 33 01 01 01 01 24 19
version:         01 03
basic params:    68 2d 1a 78 2a
chroma info:     69 d5 a2 56 4f a0 28 0f 50 54
established:     21 08 00
standard:        a9 c0 81 c0 95 00 81 00 81 80 01 01 01 01 01 01
descriptor 1:    30 2a 40 c8 60 84 64 30 18 50 13 00 c4 07 11 00 00 1e
descriptor 2:    00 00 00 fd 00 32 3c 1e 46 11 00 0a 20 20 20 20 20 20
descriptor 3:    00 00 00 fc 00 48 50 20 56 32 30 32 0a 20 20 20 20 20
descriptor 4:    00 00 00 ff 00 33 43 51 35 33 36 31 52 47 5a 0a 20 20
extensions:      00
checksum:        1d

EDID version: 1.3
Manufacturer: HWP Model 330b Serial Number --
Made in week 36 of 2015
Analog display, Input voltage level: 0.7/0.7 V
Sync: Separate 
Maximum image size: 45 cm x 26 cm
Gamma: 2.20
DPMS levels: Off
RGB color display
First detailed timing is preferred timing
Display x,y Chromaticity:
  Red:   0.6337, 0.3378
  Green: 0.3105, 0.6259
  Blue:  0.1591, 0.0595
  White: 0.3134, 0.3291
Established timings supported:
  640x480@60Hz 4:3 HorFreq: 31469 Hz Clock: 25.175 MHz
  800x600@60Hz 4:3 HorFreq: 37900 Hz Clock: 40.000 MHz
  1024x768@60Hz 4:3 HorFreq: 48400 Hz Clock: 65.000 MHz
Standard timings supported:
  1600x900@60Hz 16:9
  1280x720@60Hz 16:9
  1440x900@60Hz 16:10 HorFreq: 55500 Hz Clock: 88.750 MHz
  1280x800@60Hz 16:10
  1280x1024@60Hz 5:4 HorFreq: 64000 Hz Clock: 108.000 MHz
Detailed mode: Clock 108.000 MHz, 452 mm x 263 mm
               1600 1624 1704 1800 hborder 0
                900  901  904 1000 vborder 0
               +hsync +vsync 
               VertFreq: 60 Hz, HorFreq: 60000 Hz
Monitor ranges (GTF): 50-60Hz V, 30-70kHz H, max dotclock 170MHz
Monitor name: HP V202
Serial number: --
Checksum: 0x1d (valid)


