
EDID (hex):
00ffffffffffff0025cc0f0000000000
00130103901f11780ac8859e57549b26
12505400000001010101010101010101
010101010101c61b567f500019301f15
340035ae1000001ac61b567f50001930
1f15340035ae10000000000000fe0054
39323052803134304757303200000000
00000000000000000001010a20200082

Extracted contents:
header:          00 ff ff ff ff ff ff 00
serial number:   25 cc 0f 00 00 00 00 00 00 13
version:         01 03
basic params:    90 1f 11 78 0a
chroma info:     c8 85 9e 57 54 9b 26 12 50 54
established:     00 00 00
standard:        01 01 01 01 01 01 01 01 01 01 01 01 01 01 01 01
descriptor 1:    c6 1b 56 7f 50 00 19 30 1f 15 34 00 35 ae 10 00 00 1a
descriptor 2:    c6 1b 56 7f 50 00 19 30 1f 15 34 00 35 ae 10 00 00 00
descriptor 3:    00 00 00 fe 00 54 39 32 30 52 80 31 34 30 47 57 30 32
descriptor 4:    00 00 00 00 00 00 00 00 00 00 00 00 00 01 01 0a 20 20
extensions:      00
checksum:        82

EDID version: 1.3
Manufacturer: INL Model f Serial Number --
Made in year 2009
Digital display
Maximum image size: 31 cm x 17 cm
Gamma: 2.20
RGB color display
First detailed timing is preferred timing
Display x,y Chromaticity:
  Red:   0.6201, 0.3398
  Green: 0.3300, 0.6054
  Blue:  0.1503, 0.0703
  White: 0.3134, 0.3291
Established timings supported:
Standard timings supported:
Detailed mode: Clock 71.100 MHz, 309 mm x 174 mm
               1366 1397 1418 1493 hborder 0
                768  771  775  793 vborder 0
               +hsync -vsync 
               VertFreq: 60 Hz, HorFreq: 47622 Hz
Detailed mode: Clock 71.100 MHz, 309 mm x 174 mm
               1366 1397 1418 1493 hborder 0
                768  771  775  793 vborder 0
               -hsync -vsync analog composite 
               VertFreq: 60 Hz, HorFreq: 47622 Hz
ASCII string: T920R
Manufacturer-specified data, tag 0
Checksum: 0x82 (valid)
EDID block does NOT conform to EDID 1.3!
	Digital display field contains garbage: 10
	Missing name descriptor
	Missing monitor ranges
	Detailed block string not properly terminated


