
EDID (hex):
00ffffffffffff0006af9b1e00000000
001f0104a51d1278034b82a8554a9b21
0f545900000001010101010101010101
010101010101fa3c80b870b024401010
3e001eb210000018000000fd00303c4b
4b10010a202020202020000000fe0041
554f0a202020202020202020000000fe
004231333355414e30322e31200a00b4

edid-decode (hex):

00 ff ff ff ff ff ff 00 06 af 9b 1e 00 00 00 00
00 1f 01 04 a5 1d 12 78 03 4b 82 a8 55 4a 9b 21
0f 54 59 00 00 00 01 01 01 01 01 01 01 01 01 01
01 01 01 01 01 01 fa 3c 80 b8 70 b0 24 40 10 10
3e 00 1e b2 10 00 00 18 00 00 00 fd 00 30 3c 4b
4b 10 01 0a 20 20 20 20 20 20 00 00 00 fe 00 41
55 4f 0a 20 20 20 20 20 20 20 20 20 00 00 00 fe
00 42 31 33 33 55 41 4e 30 32 2e 31 20 0a 00 b4

----------------

Block 0, Base EDID:
  EDID Structure Version & Revision: 1.4
  Vendor & Product Identification:
    Manufacturer: AUO
    Model: 7835
    Made in: 2021
  Basic Display Parameters & Features:
    Digital display
    Bits per primary color channel: 8
    DisplayPort interface
    Maximum image size: 29 cm x 18 cm
    Gamma: 2.20
    Supported color formats: RGB 4:4:4
    First detailed timing includes the native pixel format and preferred refresh rate
    Display is continuous frequency
  Color Characteristics:
    Red  : 0.6572, 0.3320
    Green: 0.2910, 0.6083
    Blue : 0.1308, 0.0585
    White: 0.3281, 0.3496
  Established Timings I & II: none
  Standard Timings: none
  Detailed Timing Descriptors:
    DTD 1:  1920x1200   60.025902 Hz  16:10    74.192 kHz    156.100000 MHz (286 mm x 178 mm)
                 Hfront   16 Hsync  16 Hback  152 Hpol N
                 Vfront    3 Vsync  14 Vback   19 Vpol N
    Display Range Limits:
      Monitor ranges (Bare Limits): 48-60 Hz V, 75-75 kHz H, max dotclock 160 MHz
    Alphanumeric Data String: 'AUO'
    Alphanumeric Data String: 'B133UAN02.1 '
Checksum: 0xb4
