edid-decode (hex):

00 ff ff ff ff ff ff 00 4d b4 0d 15 00 00 00 00
0f 21 01 04 a5 22 13 78 03 9c 15 95 5d 58 94 29
1e 50 54 00 00 00 01 01 01 01 01 01 01 01 01 01
01 01 01 01 01 01 c0 39 80 18 71 38 28 40 30 20
36 00 58 c1 10 00 00 1a 00 00 00 fd 00 28 3c 43
43 0e 01 0a 20 20 20 20 20 20 00 00 00 fe 00 43
53 4f 54 20 54 39 0a 20 20 20 20 20 00 00 00 fc
00 53 4e 46 36 30 31 42 53 31 2d 31 0a 20 00 4e

00 ff ff ff ff ff ff 00 4d b4 0d 15 00 00 00 00
0f 21 01 04 a5 22 13 78 03 9c 15 95 5d 58 94 29
1e 50 54 00 00 00 01 01 01 01 01 01 01 01 01 01
01 01 01 01 01 01 c0 39 80 18 71 38 28 40 30 20
36 00 58 c1 10 00 00 1a 00 00 00 fd 00 28 3c 43
43 0e 01 0a 20 20 20 20 20 20 00 00 00 fe 00 43
53 4f 54 20 54 39 0a 20 20 20 20 20 00 00 00 fc
00 53 4e 46 36 30 31 42 53 31 2d 31 0a 20 00 4e

----------------

Block 0, Base EDID:
  EDID Structure Version & Revision: 1.4
  Vendor & Product Identification:
    Manufacturer: SMT
    Model: 5389
    Made in: week 15 of 2023
  Basic Display Parameters & Features:
    Digital display
    Bits per primary color channel: 8
    DisplayPort interface
    Maximum image size: 34 cm x 19 cm
    Gamma: 2.20
    Supported color formats: RGB 4:4:4
    First detailed timing includes the native pixel format and preferred refresh rate
    Display is continuous frequency
  Color Characteristics:
    Red  : 0.5839, 0.3642
    Green: 0.3466, 0.5781
    Blue : 0.1601, 0.1181
    White: 0.3134, 0.3291
  Established Timings I & II: none
  Standard Timings: none
  Detailed Timing Descriptors:
    DTD 1:  1920x1080   60.000000 Hz  16:9     67.200 kHz    147.840000 MHz (344 mm x 193 mm)
                 Hfront   48 Hsync  32 Hback  200 Hpol P
                 Vfront    3 Vsync   6 Vback   31 Vpol N
    Display Range Limits:
      Monitor ranges (Bare Limits): 40-60 Hz V, 67-67 kHz H, max dotclock 140 MHz
    Alphanumeric Data String: 'CSOT T9'
    Display Product Name: 'SNF601BS1-1'
Checksum: 0x4e

----------------

Block 1, Unknown EDID Extension Block 0x00:
  00 ff ff ff ff ff ff 00 4d b4 0d 15 00 00 00 00 '........M.......'
  0f 21 01 04 a5 22 13 78 03 9c 15 95 5d 58 94 29 '.!...".x....]X.)'
  1e 50 54 00 00 00 01 01 01 01 01 01 01 01 01 01 '.PT.............'
  01 01 01 01 01 01 c0 39 80 18 71 38 28 40 30 20 '.......9..q8(@0 '
  36 00 58 c1 10 00 00 1a 00 00 00 fd 00 28 3c 43 '6.X..........(<C'
  43 0e 01 0a 20 20 20 20 20 20 00 00 00 fe 00 43 'C...      .....C'
  53 4f 54 20 54 39 0a 20 20 20 20 20 00 00 00 fc 'SOT T9.     ....'
  00 53 4e 46 36 30 31 42 53 31 2d 31 0a 20 00 4e '.SNF601BS1-1. .N'
Checksum: 0x4e

----------------

Warnings:

EDID:
  Base EDID: Some timings are out of range of the Monitor Ranges:
    Maximum Clock: 147.840 MHz (Monitor: 140.000 MHz)
    Could be due to a Monitor Range off-by-one rounding issue

Failures:

Block 1, Base EDID:
  Unknown Extension Block.
EDID:
  Base EDID: EDID specified 0 extension block(s), but found 1 extension block(s).

EDID conformity: FAIL
