
EDID (hex):
00ffffffffffff0051f38d5000000000
0e10010380251778ca00000000000000
00000000000001010101010101010101
010101010101233f802071b014403020
26006fe610000018000000fd003b3d48
4a11000a202020202020000000fc0049
6e7465726e616c204c43440a000000fe
00544f53484942410a20202020200081

Extracted contents:
header:          00 ff ff ff ff ff ff 00
serial number:   51 f3 8d 50 00 00 00 00 0e 10
version:         01 03
basic params:    80 25 17 78 ca
chroma info:     00 00 00 00 00 00 00 00 00 00
established:     00 00 00
standard:        01 01 01 01 01 01 01 01 01 01 01 01 01 01 01 01
descriptor 1:    23 3f 80 20 71 b0 14 40 30 20 26 00 6f e6 10 00 00 18
descriptor 2:    00 00 00 fd 00 3b 3d 48 4a 11 00 0a 20 20 20 20 20 20
descriptor 3:    00 00 00 fc 00 49 6e 74 65 72 6e 61 6c 20 4c 43 44 0a
descriptor 4:    00 00 00 fe 00 54 4f 53 48 49 42 41 0a 20 20 20 20 20
extensions:      00
checksum:        81

EDID version: 1.3
Manufacturer: TOS Model 508d Serial Number --
Made in week 14 of 2006
Digital display
Maximum image size: 37 cm x 23 cm
Gamma: 2.20
DPMS levels: Standby Suspend
RGB color display
First detailed timing is preferred timing
Display x,y Chromaticity:
  Red:   0.0000, 0.0000
  Green: 0.0000, 0.0000
  Blue:  0.0000, 0.0000
  White: 0.0000, 0.0000
Established timings supported:
Standard timings supported:
Detailed mode: Clock 161.630 MHz, 367 mm x 230 mm
               1920 1968 2000 2208 hborder 0
               1200 1202 1208 1220 vborder 0
               -hsync -vsync 
               VertFreq: 60 Hz, HorFreq: 73201 Hz
Monitor ranges (GTF): 59-61Hz V, 72-74kHz H, max dotclock 170MHz
Monitor name: Internal LCD
ASCII string: TOSHIBA
Checksum: 0x81 (valid)
