
EDID (hex):
00ffffffffffff004c2d600c4b524230
2d1901030e341e782a5295a556549d25
0e505423080081c0810081809500a9c0
b30001010101023a801871382d40582c
450000252100001e000000fd00383c1e
5111000a202020202020000000fc0053
323445353130430a20202020000000ff
0048484a474230303435370a2020009e

Extracted contents:
header:          00 ff ff ff ff ff ff 00
serial number:   4c 2d 60 0c 4b 52 42 30 2d 19
version:         01 03
basic params:    0e 34 1e 78 2a
chroma info:     52 95 a5 56 54 9d 25 0e 50 54
established:     23 08 00
standard:        81 c0 81 00 81 80 95 00 a9 c0 b3 00 01 01 01 01
descriptor 1:    02 3a 80 18 71 38 2d 40 58 2c 45 00 00 25 21 00 00 1e
descriptor 2:    00 00 00 fd 00 38 3c 1e 51 11 00 0a 20 20 20 20 20 20
descriptor 3:    00 00 00 fc 00 53 32 34 45 35 31 30 43 0a 20 20 20 20
descriptor 4:    00 00 00 ff 00 48 48 4a 47 42 30 30 34 35 37 0a 20 20
extensions:      00
checksum:        9e

EDID version: 1.3
Manufacturer: SAM Model c60 Serial Number --
Made in week 45 of 2015
Analog display, Input voltage level: 0.7/0.3 V
Sync: Separate Composite SyncOnGreen 
Maximum image size: 52 cm x 30 cm
Gamma: 2.20
DPMS levels: Off
RGB color display
First detailed timing is preferred timing
Display x,y Chromaticity:
  Red:   0.6455, 0.3369
  Green: 0.3281, 0.6152
  Blue:  0.1464, 0.0556
  White: 0.3134, 0.3291
Established timings supported:
  640x480@60Hz 4:3 HorFreq: 31469 Hz Clock: 25.175 MHz
  800x600@56Hz 4:3 HorFreq: 35200 Hz Clock: 36.000 MHz
  800x600@60Hz 4:3 HorFreq: 37900 Hz Clock: 40.000 MHz
  1024x768@60Hz 4:3 HorFreq: 48400 Hz Clock: 65.000 MHz
Standard timings supported:
  1280x720@60Hz 16:9
  1280x800@60Hz 16:10
  1280x1024@60Hz 5:4 HorFreq: 64000 Hz Clock: 108.000 MHz
  1440x900@60Hz 16:10 HorFreq: 55500 Hz Clock: 88.750 MHz
  1600x900@60Hz 16:9
  1680x1050@60Hz 16:10 HorFreq: 64700 Hz Clock: 119.000 MHz
Detailed mode: Clock 148.500 MHz, 512 mm x 293 mm
               1920 2008 2052 2200 hborder 0
               1080 1084 1089 1125 vborder 0
               +hsync +vsync 
               VertFreq: 60 Hz, HorFreq: 67500 Hz
Monitor ranges (GTF): 56-60Hz V, 30-81kHz H, max dotclock 170MHz
Monitor name: S24E510C
Serial number: --
Checksum: 0x9e (valid)
