edid-decode (hex):

00 ff ff ff ff ff ff 00 10 ac 00 10 30 30 30 30
00 0e 01 03 68 21 18 66 28 60 d1 a0 58 4f 92 24
1a 52 53 ad ce 00 31 59 45 4a 45 59 61 4c 61 59
81 80 01 01 01 01 00 00 00 ff 00 30 30 30 30 30
30 30 30 30 30 30 30 30 00 00 00 ff 00 30 30 30
30 30 30 30 30 30 30 30 30 30 00 00 00 fc 00 44
45 4c 4c 20 44 52 41 43 35 20 0a 20 00 00 00 fd
00 3c 55 1e 46 0b 00 0a 20 20 20 20 20 20 00 33

00 ff ff ff ff ff ff 00 10 ac 00 10 30 30 30 30
00 0e 01 03 68 21 18 66 28 60 d1 a0 58 4f 92 24
1a 52 53 ad ce 00 31 59 45 4a 45 59 61 4c 61 59
81 80 01 01 01 01 00 00 00 ff 00 30 30 30 30 30
30 30 30 30 30 30 30 30 00 00 00 ff 00 30 30 30
30 30 30 30 30 30 30 30 30 30 00 00 00 fc 00 44
45 4c 4c 20 44 52 41 43 35 20 0a 20 00 00 00 fd
00 3c 55 1e 46 0b 00 0a 20 20 20 20 20 20 00 33

----------------

Block 0, Base EDID:
  EDID Structure Version & Revision: 1.3
  Vendor & Product Identification:
    Manufacturer: DEL
    Model: 4096
    Serial Number: ...
    Made in: 2004
  Basic Display Parameters & Features:
    Analog display
    Signal Level Standard: 0.700 : 0.000 : 0.700 V p-p
    Blank level equals black level
    Sync: Separate
    Maximum image size: 33 cm x 24 cm
    Gamma: 2.02
    DPMS levels: Off
    RGB color display
  Color Characteristics:
    Red  : 0.6259, 0.3457
    Green: 0.3085, 0.5703
    Blue : 0.1435, 0.1025
    White: 0.3203, 0.3251
  Established Timings I & II:
    IBM     :   720x400    70.081663 Hz   9:5     31.467 kHz     28.320000 MHz
    DMT 0x04:   640x480    59.940476 Hz   4:3     31.469 kHz     25.175000 MHz
    DMT 0x05:   640x480    72.808802 Hz   4:3     37.861 kHz     31.500000 MHz
    DMT 0x06:   640x480    75.000000 Hz   4:3     37.500 kHz     31.500000 MHz
    DMT 0x09:   800x600    60.316541 Hz   4:3     37.879 kHz     40.000000 MHz
    DMT 0x0a:   800x600    72.187572 Hz   4:3     48.077 kHz     50.000000 MHz
    DMT 0x0b:   800x600    75.000000 Hz   4:3     46.875 kHz     49.500000 MHz
    DMT 0x10:  1024x768    60.003840 Hz   4:3     48.363 kHz     65.000000 MHz
    DMT 0x11:  1024x768    70.069359 Hz   4:3     56.476 kHz     75.000000 MHz
    DMT 0x12:  1024x768    75.028582 Hz   4:3     60.023 kHz     78.750000 MHz
  Standard Timings:
    DMT 0x07:   640x480    85.008312 Hz   4:3     43.269 kHz     36.000000 MHz
    GTF     :   800x600    70.000000 Hz   4:3     43.750 kHz     45.500000 MHz
    DMT 0x0c:   800x600    85.061274 Hz   4:3     53.674 kHz     56.250000 MHz
    DMT 0x11:  1024x768    70.069359 Hz   4:3     56.476 kHz     75.000000 MHz
    DMT 0x13:  1024x768    84.996690 Hz   4:3     68.677 kHz     94.500000 MHz
    DMT 0x23:  1280x1024   60.019740 Hz   5:4     63.981 kHz    108.000000 MHz
  Detailed Timing Descriptors:
    Display Product Serial Number: ...
    Display Product Serial Number: ...
    Display Product Name: 'DELL DRAC5 '
    Display Range Limits:
      Monitor ranges (GTF): 60-85 Hz V, 30-70 kHz H, max dotclock 110 MHz
Checksum: 0x33

----------------

Block 1, Unknown EDID Extension Block 0x00:
  00 ff ff ff ff ff ff 00 10 ac 00 10 30 30 30 30 '............0000'
  00 0e 01 03 68 21 18 66 28 60 d1 a0 58 4f 92 24 '....h!.f(`..XO.$'
  1a 52 53 ad ce 00 31 59 45 4a 45 59 61 4c 61 59 '.RS...1YEJEYaLaY'
  81 80 01 01 01 01 00 00 00 ff 00 30 30 30 30 30 '...........00000'
  30 30 30 30 30 30 30 30 00 00 00 ff 00 30 30 30 '00000000.....000'
  30 30 30 30 30 30 30 30 30 30 00 00 00 fc 00 44 '0000000000.....D'
  45 4c 4c 20 44 52 41 43 35 20 0a 20 00 00 00 fd 'ELL DRAC5 . ....'
  00 3c 55 1e 46 0b 00 0a 20 20 20 20 20 20 00 33 '.<U.F...      .3'
Checksum: 0x33

----------------

Failures:

Block 0, Base EDID:
  Basic Display Parameters & Features: EDID 1.3 requires that the first detailed timing is the preferred timing.
  Display Product Name: One or more trailing spaces.
Block 1, Base EDID:
  Unknown Extension Block.
EDID:
  Base EDID: EDID specified 0 extension block(s), but found 1 extension block(s).

EDID conformity: FAIL
