edid-decode (hex):

00 ff ff ff ff ff ff 00 44 93 17 00 00 00 00 00
00 0e 01 03 80 1d 15 78 0a 47 a9 94 57 4f 8c 27
27 50 54 00 00 00 01 01 01 01 01 01 01 01 01 01
01 01 01 01 01 01 30 2a 78 20 51 1a 10 40 2c 70
03 00 1d d6 10 00 00 18 28 23 78 20 51 1a 10 40
2c 70 03 00 1d d6 10 00 00 00 00 00 00 fe 00 4a
34 32 33 37 01 00 00 00 00 00 00 00 00 00 00 fe
00 f8 e6 df cf af 89 59 00 02 01 0a 20 20 00 f2

----------------

Block 0, Base EDID:
  EDID Structure Version & Revision: 1.3
  Vendor & Product Identification:
    Manufacturer: QDS
    Model: 23
    Made in: 2004
  Basic Display Parameters & Features:
    Digital display
    Maximum image size: 29 cm x 21 cm
    Gamma: 2.20
    RGB color display
    First detailed timing is the preferred timing
  Color Characteristics:
    Red  : 0.5791, 0.3398
    Green: 0.3095, 0.5498
    Blue : 0.1542, 0.1542
    White: 0.3144, 0.3291
  Established Timings I & II: none
  Standard Timings: none
  Detailed Timing Descriptors:
    DTD 1:  1400x1050   60.019740 Hz   4:3     63.981 kHz    108.000000 MHz (285 mm x 214 mm)
                 Hfront   44 Hsync 112 Hback  132 Hpol N
                 Vfront    0 Vsync   3 Vback   13 Vpol N
                   30 2a 78 20 51 1a 10 40 2c 70 03 00 1d d6 10 00 00 18 '0*x Q..@,p........'
    DTD 2:  1400x1050   50.016450 Hz   4:3     53.318 kHz     90.000000 MHz (285 mm x 214 mm)
                 Hfront   44 Hsync 112 Hback  132 Hpol N
                 Vfront    0 Vsync   3 Vback   13 Vpol N
    SPWG Module Revision: 0
                   28 23 78 20 51 1a 10 40 2c 70 03 00 1d d6 10 00 00 00 '(#x Q..@,p........'
    SPWG Descriptor #3:
      SPWG PC Maker P/N: 'J4237'
      SPWG LCD Supplier EEDID Revision: 1
      SPWG Manufacturer P/N: ''
    SPWG Descriptor #4:
      SMBUS Values: 0xf8 0xe6 0xdf 0xcf 0xaf 0x89 0x59 0x00
      LVDS Channels: 2
      Panel Self Test Present
Checksum: 0xf2

----------------

Failures:

Block 0, Base EDID:
  Detailed Timing Descriptor #1: 0 values in the video timing:
    Horizontal Active/Blanking 1400/288
    Horizontal Frontporch/Sync Width 44/112
    Vertical Active/Blanking 1050/16
    Vertical Frontporch/Sync Width 0/3
  Detailed Timing Descriptor #2: 0 values in the video timing:
    Horizontal Active/Blanking 1400/288
    Horizontal Frontporch/Sync Width 44/112
    Vertical Active/Blanking 1050/16
    Vertical Frontporch/Sync Width 0/3
  SPWG Descriptor #3: Non-printable character.
  Missing Display Product Name.
  Missing Display Range Limits Descriptor.

EDID conformity: FAIL
