edid-decode (hex):

00 ff ff ff ff ff ff 00 0d ae a2 13 00 00 00 00
02 1d 01 04 a5 1d 11 78 02 ee 95 a3 54 4c 99 26
0f 50 54 00 00 00 01 01 01 01 01 01 01 01 01 01
01 01 01 01 01 01 b4 3b 80 4a 71 38 34 40 50 3c
68 00 25 a5 10 00 00 18 00 00 00 fe 00 4e 31 33
33 48 43 52 2d 47 41 31 0a 20 00 00 00 fe 00 43
4d 4e 0a 20 20 20 20 20 20 20 20 20 00 00 00 fe
00 4e 31 33 33 48 43 52 2d 47 41 31 0a 20 00 7b

----------------

Block 0, Base EDID:
  EDID Structure Version & Revision: 1.4
  Vendor & Product Identification:
    Manufacturer: CMN
    Model: 5026
    Made in: week 2 of 2019
  Basic Display Parameters & Features:
    Digital display
    Bits per primary color channel: 8
    DisplayPort interface
    Maximum image size: 29 cm x 17 cm
    Gamma: 2.20
    Supported color formats: RGB 4:4:4
    First detailed timing includes the native pixel format and preferred refresh rate
  Color Characteristics:
    Red  : 0.6396, 0.3300
    Green: 0.2998, 0.5996
    Blue : 0.1503, 0.0595
    White: 0.3134, 0.3291
  Established Timings I & II: none
  Standard Timings: none
  Detailed Timing Descriptors:
    DTD 1:  1920x1080   60.008 Hz  16:9    67.929 kHz 152.840 MHz (293 mm x 165 mm)
                 Hfront   80 Hsync  60 Hback 190 Hpol N
                 Vfront    6 Vsync   8 Vback  38 Vpol N
    Alphanumeric Data String: 'N133HCR-GA1'
    Alphanumeric Data String: 'CMN'
    Alphanumeric Data String: 'N133HCR-GA1'
Checksum: 0x7b

----------------

Failures:

Block 0, Base EDID:
  Missing Display Product Name.

EDID conformity: FAIL
