
EDID (hex):
00ffffffffffff00320c000000000000
000f0103801e13780aae109658538c28
24505400000001010101010101010101
010101010101b922a0a050841a303020
360030be10000018b922a0a050841a30
3020360030be10000000000000fe0057
46333230013134315750310a000000fe
001f2f373f6f879fd702010a20200041

Extracted contents:
header:          00 ff ff ff ff ff ff 00
serial number:   32 0c 00 00 00 00 00 00 00 0f
version:         01 03
basic params:    80 1e 13 78 0a
chroma info:     ae 10 96 58 53 8c 28 24 50 54
established:     00 00 00
standard:        01 01 01 01 01 01 01 01 01 01 01 01 01 01 01 01
descriptor 1:    b9 22 a0 a0 50 84 1a 30 30 20 36 00 30 be 10 00 00 18
descriptor 2:    b9 22 a0 a0 50 84 1a 30 30 20 36 00 30 be 10 00 00 00
descriptor 3:    00 00 00 fe 00 57 46 33 32 30 01 31 34 31 57 50 31 0a
descriptor 4:    00 00 00 fe 00 1f 2f 37 3f 6f 87 9f d7 02 01 0a 20 20
extensions:      00
checksum:        41

EDID version: 1.3
Manufacturer: LPL Model 0 Serial Number --
Digital display
Maximum image size: 30 cm x 19 cm
Gamma: 2.20
RGB color display
First detailed timing is preferred timing
Display x,y Chromaticity:
  Red:   0.5878, 0.3457
  Green: 0.3271, 0.5488
  Blue:  0.1562, 0.1416
  White: 0.3125, 0.3281
Established timings supported:
Standard timings supported:
Detailed mode: Clock 88.890 MHz, 304 mm x 190 mm
               1440 1488 1520 1600 hborder 0
                900  903  909  926 vborder 0
               -hsync -vsync 
               VertFreq: 59 Hz, HorFreq: 55556 Hz
Detailed mode: Clock 88.890 MHz, 304 mm x 190 mm
               1440 1488 1520 1600 hborder 0
                900  903  909  926 vborder 0
               -hsync -vsync analog composite 
               VertFreq: 59 Hz, HorFreq: 55556 Hz
ASCII string: WF320
ASCII string: 
Checksum: 0x41 (valid)
EDID block does NOT conform to EDID 1.3!
	Missing name descriptor
	Missing monitor ranges
	Detailed block string not properly terminated
EDID block does not conform at all!
	Bad year of manufacture
