
EDID (hex):
00ffffffffffff00320c000000000000
00120103902115780ab7859959538d27
25505400000001010101010101010101
010101010101d1190048502010301818
36004bcf1000001bd119004850201030
181836004bcf1000001b000000fe0057
55363832813135345758350a00000000
0024323d45688ba7ff01010a20200032

Extracted contents:
header:          00 ff ff ff ff ff ff 00
serial number:   32 0c 00 00 00 00 00 00 00 12
version:         01 03
basic params:    90 21 15 78 0a
chroma info:     b7 85 99 59 53 8d 27 25 50 54
established:     00 00 00
standard:        01 01 01 01 01 01 01 01 01 01 01 01 01 01 01 01
descriptor 1:    d1 19 00 48 50 20 10 30 18 18 36 00 4b cf 10 00 00 1b
descriptor 2:    d1 19 00 48 50 20 10 30 18 18 36 00 4b cf 10 00 00 1b
descriptor 3:    00 00 00 fe 00 57 55 36 38 32 81 31 35 34 57 58 35 0a
descriptor 4:    00 00 00 00 00 24 32 3d 45 68 8b a7 ff 01 01 0a 20 20
extensions:      00
checksum:        32

EDID version: 1.3
Manufacturer: LPL Model 0 Serial Number --
Made in year 2008
Digital display
Maximum image size: 33 cm x 21 cm
Gamma: 2.20
RGB color display
First detailed timing is preferred timing
Display x,y Chromaticity:
  Red:   0.5996, 0.3505
  Green: 0.3251, 0.5537
  Blue:  0.1542, 0.1445
  White: 0.3134, 0.3291
Established timings supported:
Standard timings supported:
Detailed mode: Clock 66.090 MHz, 331 mm x 207 mm
               1280 1304 1328 1352 hborder 0
                800  803  809  816 vborder 0
               +hsync -vsync 
               VertFreq: 59 Hz, HorFreq: 48883 Hz
Detailed mode: Clock 66.090 MHz, 331 mm x 207 mm
               1280 1304 1328 1352 hborder 0
                800  803  809  816 vborder 0
               +hsync -vsync 
               VertFreq: 59 Hz, HorFreq: 48883 Hz
ASCII string: WU682
Manufacturer-specified data, tag 0
Checksum: 0x32 (valid)
EDID block does NOT conform to EDID 1.3!
	Digital display field contains garbage: 10
	Missing name descriptor
	Missing monitor ranges
	Detailed block string not properly terminated
