
EDID (hex):
00ffffffffffff000daebb1500000000
1d160103802213780a46359e57579427
14505400000001010101010101010101
010101010101963b803271383e405a3c
690058c210000018000000fe004e3135
364847452d4c42310a20000000fe0043
4d4e0a202020202020202020000000fe
004e3135364847452d4c42310a20002e

Extracted contents:
header:          00 ff ff ff ff ff ff 00
serial number:   0d ae bb 15 00 00 00 00 1d 16
version:         01 03
basic params:    80 22 13 78 0a
chroma info:     46 35 9e 57 57 94 27 14 50 54
established:     00 00 00
standard:        01 01 01 01 01 01 01 01 01 01 01 01 01 01 01 01
descriptor 1:    96 3b 80 32 71 38 3e 40 5a 3c 69 00 58 c2 10 00 00 18
descriptor 2:    00 00 00 fe 00 4e 31 35 36 48 47 45 2d 4c 42 31 0a 20
descriptor 3:    00 00 00 fe 00 43 4d 4e 0a 20 20 20 20 20 20 20 20 20
descriptor 4:    00 00 00 fe 00 4e 31 35 36 48 47 45 2d 4c 42 31 0a 20
extensions:      00
checksum:        2e

EDID version: 1.3
Manufacturer: CMN Model 15bb Serial Number --
Made in week 29 of 2012
Digital display
Maximum image size: 34 cm x 19 cm
Gamma: 2.20
RGB color display
First detailed timing is preferred timing
Display x,y Chromaticity:
  Red:   0.6181, 0.3398
  Green: 0.3408, 0.5800
  Blue:  0.1523, 0.0810
  White: 0.3134, 0.3291
Established timings supported:
Standard timings supported:
Detailed mode: Clock 152.540 MHz, 344 mm x 194 mm
               1920 2010 2070 2226 hborder 0
               1080 1086 1095 1142 vborder 0
               -hsync -vsync 
               VertFreq: 60 Hz, HorFreq: 68526 Hz
ASCII string: N156HGE-LB1
ASCII string: CMN
ASCII string: N156HGE-LB1
Checksum: 0x2e (valid)
EDID block does NOT conform to EDID 1.3!
	Missing name descriptor
	Missing monitor ranges
