edid-decode (hex):

00 ff ff ff ff ff ff 00 30 ae 59 90 00 00 00 00
1f 1f 01 04 a5 22 13 78 07 54 a5 a7 54 4c 9b 26
0f 50 54 00 00 00 01 01 01 01 01 01 01 01 01 01
01 01 01 01 01 01 47 79 80 18 71 38 60 40 30 20
36 00 58 c2 10 00 00 1a a4 3c 80 18 71 38 60 40
30 20 36 00 58 c2 10 00 00 1a 00 00 00 fd 00 3c
78 8d 8d 1f 01 0a 20 c2 10 00 00 1a 00 00 00 fe
00 4c 45 4e 31 35 36 46 48 44 20 20 20 20 00 1d

00 ff ff ff ff ff ff 00 30 ae 59 90 00 00 00 00
1f 1f 01 04 a5 22 13 78 07 54 a5 a7 54 4c 9b 26
0f 50 54 00 00 00 01 01 01 01 01 01 01 01 01 01
01 01 01 01 01 01 47 79 80 18 71 38 60 40 30 20
36 00 58 c2 10 00 00 1a a4 3c 80 18 71 38 60 40
30 20 36 00 58 c2 10 00 00 1a 00 00 00 fd 00 3c
78 8d 8d 1f 01 0a 20 c2 10 00 00 1a 00 00 00 fe
00 4c 45 4e 31 35 36 46 48 44 20 20 20 20 00 1d

----------------

Block 0, Base EDID:
  EDID Structure Version & Revision: 1.4
  Vendor & Product Identification:
    Manufacturer: LEN
    Model: 36953
    Made in: week 31 of 2021
  Basic Display Parameters & Features:
    Digital display
    Bits per primary color channel: 8
    DisplayPort interface
    Maximum image size: 34 cm x 19 cm
    Gamma: 2.20
    Supported color formats: RGB 4:4:4
    Default (sRGB) color space is primary color space
    First detailed timing includes the native pixel format and preferred refresh rate
    Display is continuous frequency
  Color Characteristics:
    Red  : 0.6533, 0.3291
    Green: 0.2978, 0.6054
    Blue : 0.1503, 0.0605
    White: 0.3134, 0.3291
  Established Timings I & II: none
  Standard Timings: none
  Detailed Timing Descriptors:
    DTD 1:  1920x1080  120.002319 Hz  16:9    141.123 kHz    310.470000 MHz (344 mm x 194 mm)
                 Hfront   48 Hsync  32 Hback  200 Hpol P
                 Vfront    3 Vsync   6 Vback   87 Vpol N
    DTD 2:  1920x1080   60.003092 Hz  16:9     70.564 kHz    155.240000 MHz (344 mm x 194 mm)
                 Hfront   48 Hsync  32 Hback  200 Hpol P
                 Vfront    3 Vsync   6 Vback   87 Vpol N
    Display Range Limits:
      Monitor ranges (Bare Limits): 60-120 Hz V, 141-141 kHz H, max dotclock 310 MHz
    Alphanumeric Data String: 'LEN156FHD    '
Checksum: 0x1d

----------------

Block 1, Unknown EDID Extension Block 0x00:
  00 ff ff ff ff ff ff 00 30 ae 59 90 00 00 00 00 '........0.Y.....'
  1f 1f 01 04 a5 22 13 78 07 54 a5 a7 54 4c 9b 26 '.....".x.T..TL.&'
  0f 50 54 00 00 00 01 01 01 01 01 01 01 01 01 01 '.PT.............'
  01 01 01 01 01 01 47 79 80 18 71 38 60 40 30 20 '......Gy..q8`@0 '
  36 00 58 c2 10 00 00 1a a4 3c 80 18 71 38 60 40 '6.X......<..q8`@'
  30 20 36 00 58 c2 10 00 00 1a 00 00 00 fd 00 3c '0 6.X..........<'
  78 8d 8d 1f 01 0a 20 c2 10 00 00 1a 00 00 00 fe 'x..... .........'
  00 4c 45 4e 31 35 36 46 48 44 20 20 20 20 00 1d '.LEN156FHD    ..'
Checksum: 0x1d

----------------

Warnings:

Block 0, Base EDID:
  Missing Display Product Name.
EDID:
  Base EDID: Some timings are out of range of the Monitor Ranges:
    Horizontal Freq: 70.563 - 141.122 kHz (Monitor: 141.000 - 141.000 kHz)
    Maximum Clock: 310.470 MHz (Monitor: 310.000 MHz)

Failures:

Block 0, Base EDID:
  Basic Display Parameters & Features: sRGB is signaled, but the chromaticities do not match.
  Display Range Limits: Bytes 12-17 must be 0x20.
  Alphanumeric Data String: One or more trailing spaces.
Block 1, Base EDID:
  Unknown Extension Block.
EDID:
  Base EDID: EDID specified 0 extension block(s), but found 1 extension block(s).

EDID conformity: FAIL
