
EDID (hex):
00ffffffffffff000e14c40400000000
2412010380170e780a50759258569227
1f505401080001010101010101010101
010101010101a00f008840580f203020
3600de8200000019e010006040401120
30203400de8200000019000000fe0043
505420202020202020202020000000fe
00434c41413130324e4130412020001f

Extracted contents:
header:          00 ff ff ff ff ff ff 00
serial number:   0e 14 c4 04 00 00 00 00 24 12
version:         01 03
basic params:    80 17 0e 78 0a
chroma info:     50 75 92 58 56 92 27 1f 50 54
established:     01 08 00
standard:        01 01 01 01 01 01 01 01 01 01 01 01 01 01 01 01
descriptor 1:    a0 0f 00 88 40 58 0f 20 30 20 36 00 de 82 00 00 00 19
descriptor 2:    e0 10 00 60 40 40 11 20 30 20 34 00 de 82 00 00 00 19
descriptor 3:    00 00 00 fe 00 43 50 54 20 20 20 20 20 20 20 20 20 20
descriptor 4:    00 00 00 fe 00 43 4c 41 41 31 30 32 4e 41 30 41 20 20
extensions:      00
checksum:        1f

EDID version: 1.3
Manufacturer: CPT Model 4c4 Serial Number --
Made in week 36 of 2008
Digital display
Maximum image size: 23 cm x 14 cm
Gamma: 2.20
RGB color display
First detailed timing is preferred timing
Display x,y Chromaticity:
  Red:   0.5712, 0.3447
  Green: 0.3359, 0.5703
  Blue:  0.1533, 0.1240
  White: 0.3134, 0.3291
Established timings supported:
  800x600@60Hz 4:3 HorFreq: 37900 Hz Clock: 40.000 MHz
  1024x768@60Hz 4:3 HorFreq: 48400 Hz Clock: 65.000 MHz
Standard timings supported:
Detailed mode: Clock 40.000 MHz, 222 mm x 130 mm
               1024 1072 1104 1160 hborder 0
                600  603  609  615 vborder 0
               -hsync -vsync 
               VertFreq: 56 Hz, HorFreq: 34482 Hz
Detailed mode: Clock 43.200 MHz, 222 mm x 130 mm
               1024 1072 1104 1120 hborder 0
                576  579  583  593 vborder 0
               -hsync -vsync 
               VertFreq: 65 Hz, HorFreq: 38571 Hz
ASCII string: CPT          
ASCII string: CLAA102NA0A  
Checksum: 0x1f (valid)
EDID block does NOT conform to EDID 1.3!
	Missing name descriptor
	Missing monitor ranges
