edid-decode (hex):

00 ff ff ff ff ff ff 00 0e 14 c4 04 00 00 00 00
24 12 01 03 80 17 0e 78 0a 50 75 92 58 56 92 27
1f 50 54 01 08 00 01 01 01 01 01 01 01 01 01 01
01 01 01 01 01 01 a0 0f 00 88 40 58 0f 20 30 20
36 00 de 82 00 00 00 19 e0 10 00 60 40 40 11 20
30 20 34 00 de 82 00 00 00 19 00 00 00 fe 00 43
50 54 20 20 20 20 20 20 20 20 20 20 00 00 00 fe
00 43 4c 41 41 31 30 32 4e 41 30 41 20 20 00 1f

----------------

Block 0, Base EDID:
  EDID Structure Version & Revision: 1.3
  Vendor & Product Identification:
    Manufacturer: CPT
    Model: 1220
    Made in: week 36 of 2008
  Basic Display Parameters & Features:
    Digital display
    Maximum image size: 23 cm x 14 cm
    Gamma: 2.20
    RGB color display
    First detailed timing is the preferred timing
  Color Characteristics:
    Red  : 0.5712, 0.3447
    Green: 0.3359, 0.5703
    Blue : 0.1533, 0.1240
    White: 0.3134, 0.3291
  Established Timings I & II:
    DMT 0x09:   800x600    60.317 Hz   4:3    37.879 kHz  40.000 MHz
    DMT 0x10:  1024x768    60.004 Hz   4:3    48.363 kHz  65.000 MHz
  Standard Timings: none
  Detailed Timing Descriptors:
    DTD 1:  1024x600    56.070 Hz 128:75   34.483 kHz  40.000 MHz (222 mm x 130 mm)
                 Hfront   48 Hsync  32 Hback  56 Hpol N
                 Vfront    3 Vsync   6 Vback   6 Vpol N
    DTD 2:  1024x576    65.045 Hz  16:9    38.571 kHz  43.200 MHz (222 mm x 130 mm)
                 Hfront   48 Hsync  32 Hback  16 Hpol N
                 Vfront    3 Vsync   4 Vback  10 Vpol N
    Alphanumeric Data String: 'CPT          '
    Alphanumeric Data String: 'CLAA102NA0A  '
Checksum: 0x1f

----------------

Failures:

Block 0, Base EDID:
  Alphanumeric Data String: One or more trailing spaces.
  Alphanumeric Data String: One or more trailing spaces.
  Missing Display Product Name.
  Missing Display Range Limits Descriptor.

EDID conformity: FAIL
