
EDID (hex):
00ffffffffffff00593a830001010101
20150103084628782af96ba2554a9a25
0f474aa5ce0081c08100010101010101
010101010101662156b051001b308082
2600bc902100001a000000fd00324d1f
460f000a202020202020000000ff004c
41554b484c514d3030303030000000fc
0045333231564c0a2020202020200033

Extracted contents:
header:          00 ff ff ff ff ff ff 00
serial number:   59 3a 83 00 01 01 01 01 20 15
version:         01 03
basic params:    08 46 28 78 2a
chroma info:     f9 6b a2 55 4a 9a 25 0f 47 4a
established:     a5 ce 00
standard:        81 c0 81 00 01 01 01 01 01 01 01 01 01 01 01 01
descriptor 1:    66 21 56 b0 51 00 1b 30 80 82 26 00 bc 90 21 00 00 1a
descriptor 2:    00 00 00 fd 00 32 4d 1f 46 0f 00 0a 20 20 20 20 20 20
descriptor 3:    00 00 00 ff 00 4c 41 55 4b 48 4c 51 4d 30 30 30 30 30
descriptor 4:    00 00 00 fc 00 45 33 32 31 56 4c 0a 20 20 20 20 20 20
extensions:      00
checksum:        33

EDID version: 1.3
Manufacturer: VIZ Model 83 Serial Number --
Made in week 32 of 2011
Analog display, Input voltage level: 0.7/0.3 V
Sync: Separate 
Maximum image size: 70 cm x 40 cm
Gamma: 2.20
DPMS levels: Off
RGB color display
First detailed timing is preferred timing
Display x,y Chromaticity:
  Red:   0.6357, 0.3349
  Green: 0.2910, 0.6025
  Blue:  0.1455, 0.0605
  White: 0.2792, 0.2919
Established timings supported:
  720x400@70Hz 9:5 HorFreq: 31469 Hz Clock: 28.320 MHz
  640x480@60Hz 4:3 HorFreq: 31469 Hz Clock: 25.175 MHz
  640x480@75Hz 4:3 HorFreq: 37500 Hz Clock: 31.500 MHz
  800x600@60Hz 4:3 HorFreq: 37900 Hz Clock: 40.000 MHz
  800x600@72Hz 4:3 HorFreq: 48100 Hz Clock: 50.000 MHz
  800x600@75Hz 4:3 HorFreq: 46900 Hz Clock: 49.500 MHz
  1024x768@60Hz 4:3 HorFreq: 48400 Hz Clock: 65.000 MHz
  1024x768@70Hz 4:3 HorFreq: 56500 Hz Clock: 75.000 MHz
  1024x768@75Hz 4:3 HorFreq: 60000 Hz Clock: 78.750 MHz
Standard timings supported:
  1280x720@60Hz 16:9
  1280x800@60Hz 16:10
Detailed mode: Clock 85.500 MHz, 700 mm x 400 mm
               1366 1494 1624 1798 hborder 0
                768  770  776  795 vborder 0
               +hsync -vsync 
               VertFreq: 59 Hz, HorFreq: 47552 Hz
Monitor ranges (GTF): 50-77Hz V, 31-70kHz H, max dotclock 150MHz
Serial number: --
Monitor name: E321VL
Checksum: 0x33 (valid)
