
EDID (hex):
00ffffffffffff0006af6c1000000000
00170104951c107802bbf59455549027
23505400000001010101010101010101
010101010101c41d56e050001e302616
3600159c1000001ac41d566e52001e30
26163600159c1000001a000000fe0056
30323250804231323558544e00000000
00014121940001000009010a20200097

Extracted contents:
header:          00 ff ff ff ff ff ff 00
serial number:   06 af 6c 10 00 00 00 00 00 17
version:         01 04
basic params:    95 1c 10 78 02
chroma info:     bb f5 94 55 54 90 27 23 50 54
established:     00 00 00
standard:        01 01 01 01 01 01 01 01 01 01 01 01 01 01 01 01
descriptor 1:    c4 1d 56 e0 50 00 1e 30 26 16 36 00 15 9c 10 00 00 1a
descriptor 2:    c4 1d 56 6e 52 00 1e 30 26 16 36 00 15 9c 10 00 00 1a
descriptor 3:    00 00 00 fe 00 56 30 32 32 50 80 42 31 32 35 58 54 4e
descriptor 4:    00 00 00 00 00 01 41 21 94 00 01 00 00 09 01 0a 20 20
extensions:      00
checksum:        97

EDID version: 1.4
Manufacturer: AUO Model 106c Serial Number --
Made in year 2013
Digital display
6 bits per primary color channel
DisplayPort interface
Maximum image size: 28 cm x 16 cm
Gamma: 2.20
Supported color formats: RGB 4:4:4
First detailed timing includes the native pixel format and preferred refresh rate
Display x,y Chromaticity:
  Red:   0.5800, 0.3349
  Green: 0.3300, 0.5654
  Blue:  0.1552, 0.1396
  White: 0.3134, 0.3291
Established timings supported:
Standard timings supported:
Detailed mode: Clock 76.200 MHz, 277 mm x 156 mm
               1366 1404 1426 1590 hborder 0
                768  771  777  798 vborder 0
               +hsync -vsync 
               VertFreq: 60 Hz, HorFreq: 47924 Hz
Detailed mode: Clock 76.200 MHz, 277 mm x 156 mm
               1366 1404 1426 1988 hborder 0
                768  771  777  798 vborder 0
               +hsync -vsync 
               VertFreq: 48 Hz, HorFreq: 38329 Hz
ASCII string: V022P
Manufacturer-specified data, tag 0
Checksum: 0x97 (valid)
EDID block does NOT conform to EDID 1.4!
	Missing name descriptor
	Missing monitor ranges
	Detailed block string not properly terminated
