
EDID (hex):
00ffffffffffff0006af6c1000000000
00140104901c10780220e59255549228
25505400000001010101010101010101
010101010101121b5658500019303020
3600159c100000180000000f00000000
00000000000000000020000000fe0041
554f0a202020202020202020000000fe
004231323558573031205630200a00ec

Extracted contents:
header:          00 ff ff ff ff ff ff 00
serial number:   06 af 6c 10 00 00 00 00 00 14
version:         01 04
basic params:    90 1c 10 78 02
chroma info:     20 e5 92 55 54 92 28 25 50 54
established:     00 00 00
standard:        01 01 01 01 01 01 01 01 01 01 01 01 01 01 01 01
descriptor 1:    12 1b 56 58 50 00 19 30 30 20 36 00 15 9c 10 00 00 18
descriptor 2:    00 00 00 0f 00 00 00 00 00 00 00 00 00 00 00 00 00 20
descriptor 3:    00 00 00 fe 00 41 55 4f 0a 20 20 20 20 20 20 20 20 20
descriptor 4:    00 00 00 fe 00 42 31 32 35 58 57 30 31 20 56 30 20 0a
extensions:      00
checksum:        ec

EDID version: 1.4
Manufacturer: AUO Model 106c Serial Number --
Made in year 2010
Digital display
6 bits per primary color channel
Digital interface is not defined
Maximum image size: 28 cm x 16 cm
Gamma: 2.20
Supported color formats: RGB 4:4:4
First detailed timing includes the native pixel format and preferred refresh rate
Display x,y Chromaticity:
  Red:   0.5703, 0.3339
  Green: 0.3281, 0.5703
  Blue:  0.1591, 0.1464
  White: 0.3134, 0.3291
Established timings supported:
Standard timings supported:
Detailed mode: Clock 69.300 MHz, 277 mm x 156 mm
               1366 1414 1446 1454 hborder 0
                768  771  777  793 vborder 0
               -hsync -vsync 
               VertFreq: 60 Hz, HorFreq: 47661 Hz
Manufacturer-specified data, tag 15
ASCII string: AUO
ASCII string: B125XW01 V0 
Checksum: 0xec (valid)
EDID block does NOT conform to EDID 1.4!
	Missing name descriptor
	Missing monitor ranges
