
EDID (hex):
00ffffffffffff0006af6c1000000000
121a0104951c10780276059357589229
21505400000001010101010101010101
010101010101ce1d56e250001e302616
3600149b1000001ad81756e250001e30
26163600149b1000001a000000fe0039
58354731144231323558544e00000000
00004101940011000009010a202000a1

Extracted contents:
header:          00 ff ff ff ff ff ff 00
serial number:   06 af 6c 10 00 00 00 00 12 1a
version:         01 04
basic params:    95 1c 10 78 02
chroma info:     76 05 93 57 58 92 29 21 50 54
established:     00 00 00
standard:        01 01 01 01 01 01 01 01 01 01 01 01 01 01 01 01
descriptor 1:    ce 1d 56 e2 50 00 1e 30 26 16 36 00 14 9b 10 00 00 1a
descriptor 2:    d8 17 56 e2 50 00 1e 30 26 16 36 00 14 9b 10 00 00 1a
descriptor 3:    00 00 00 fe 00 39 58 35 47 31 14 42 31 32 35 58 54 4e
descriptor 4:    00 00 00 00 00 00 41 01 94 00 11 00 00 09 01 0a 20 20
extensions:      00
checksum:        a1

EDID version: 1.4
Manufacturer: AUO Model 106c Serial Number --
Made in week 18 of 2016
Digital display
6 bits per primary color channel
DisplayPort interface
Maximum image size: 28 cm x 16 cm
Gamma: 2.20
Supported color formats: RGB 4:4:4
First detailed timing includes the native pixel format and preferred refresh rate
Display x,y Chromaticity:
  Red:   0.5751, 0.3427
  Green: 0.3447, 0.5722
  Blue:  0.1601, 0.1289
  White: 0.3134, 0.3291
Established timings supported:
Standard timings supported:
Detailed mode: Clock 76.300 MHz, 276 mm x 155 mm
               1366 1404 1426 1592 hborder 0
                768  771  777  798 vborder 0
               +hsync -vsync 
               VertFreq: 60 Hz, HorFreq: 47927 Hz
Detailed mode: Clock 61.040 MHz, 276 mm x 155 mm
               1366 1404 1426 1592 hborder 0
                768  771  777  798 vborder 0
               +hsync -vsync 
               VertFreq: 48 Hz, HorFreq: 38341 Hz
ASCII string: 9X5G1
Manufacturer-specified data, tag 0
Checksum: 0xa1 (valid)
EDID block does NOT conform to EDID 1.4!
	Missing name descriptor
	Missing monitor ranges
	Detailed block string not properly terminated
