
EDID (hex):
00ffffffffffff0006af6c1000000000
00150104901c10780220e59255549228
25505400000001010101010101010101
010101010101121b5664500012303020
6c00159c1000001a121b563e52007c30
36206c00159c1000001a000000fe0038
58394b54804231323558573100000000
00004121960010000001010a20200052

Extracted contents:
header:          00 ff ff ff ff ff ff 00
serial number:   06 af 6c 10 00 00 00 00 00 15
version:         01 04
basic params:    90 1c 10 78 02
chroma info:     20 e5 92 55 54 92 28 25 50 54
established:     00 00 00
standard:        01 01 01 01 01 01 01 01 01 01 01 01 01 01 01 01
descriptor 1:    12 1b 56 64 50 00 12 30 30 20 6c 00 15 9c 10 00 00 1a
descriptor 2:    12 1b 56 3e 52 00 7c 30 36 20 6c 00 15 9c 10 00 00 1a
descriptor 3:    00 00 00 fe 00 38 58 39 4b 54 80 42 31 32 35 58 57 31
descriptor 4:    00 00 00 00 00 00 41 21 96 00 10 00 00 01 01 0a 20 20
extensions:      00
checksum:        52

EDID version: 1.4
Manufacturer: AUO Model 106c Serial Number --
Made in year 2011
Digital display
6 bits per primary color channel
Digital interface is not defined
Maximum image size: 28 cm x 16 cm
Gamma: 2.20
Supported color formats: RGB 4:4:4
First detailed timing includes the native pixel format and preferred refresh rate
Display x,y Chromaticity:
  Red:   0.5703, 0.3339
  Green: 0.3281, 0.5703
  Blue:  0.1591, 0.1464
  White: 0.3134, 0.3291
Established timings supported:
Standard timings supported:
Detailed mode: Clock 69.300 MHz, 277 mm x 156 mm
               1366 1414 1446 1466 hborder 0
                768  774  786  786 vborder 0
               +hsync -vsync 
               VertFreq: 60 Hz, HorFreq: 47271 Hz
Detailed mode: Clock 69.300 MHz, 277 mm x 156 mm
               1366 1420 1452 1940 hborder 0
                768  774  786  892 vborder 0
               +hsync -vsync 
               VertFreq: 40 Hz, HorFreq: 35721 Hz
ASCII string: 8X9KT
Manufacturer-specified data, tag 0
Checksum: 0x52 (valid)
EDID block does NOT conform to EDID 1.4!
	Missing name descriptor
	Missing monitor ranges
	Detailed block string not properly terminated
