
EDID (hex):
00ffffffffffff000e6f041400000000
001e0104a51e1378037708a5534b9722
0f4e5300000001010101010101010101
010101010101353c80a070b023403020
36002ebd10000018000000fd00303c4a
4a0f010a202020202020000000fe0043
534f542054330a2020202020000000fe
004d4e453030374a41312d310a2000fd

Extracted contents:
header:          00 ff ff ff ff ff ff 00
serial number:   0e 6f 04 14 00 00 00 00 00 1e
version:         01 04
basic params:    a5 1e 13 78 03
chroma info:     77 08 a5 53 4b 97 22 0f 4e 53
established:     00 00 00
standard:        01 01 01 01 01 01 01 01 01 01 01 01 01 01 01 01
descriptor 1:    35 3c 80 a0 70 b0 23 40 30 20 36 00 2e bd 10 00 00 18
descriptor 2:    00 00 00 fd 00 30 3c 4a 4a 0f 01 0a 20 20 20 20 20 20
descriptor 3:    00 00 00 fe 00 43 53 4f 54 20 54 33 0a 20 20 20 20 20
descriptor 4:    00 00 00 fe 00 4d 4e 45 30 30 37 4a 41 31 2d 31 0a 20
extensions:      00
checksum:        fd

EDID version: 1.4
Manufacturer: CSO Model 1404 Serial Number --
Made in year 2020
Digital display
8 bits per primary color channel
DisplayPort interface
Maximum image size: 30 cm x 19 cm
Gamma: 2.20
Supported color formats: RGB 4:4:4
First detailed timing includes the native pixel format and preferred refresh rate
Display is continuous frequency
Display x,y Chromaticity:
  Red:   0.6455, 0.3271
  Green: 0.2939, 0.5927
  Blue:  0.1328, 0.0585
  White: 0.3066, 0.3242
Established timings supported:
Standard timings supported:
Detailed mode: Clock 154.130 MHz, 302 mm x 189 mm
               1920 1968 2000 2080 hborder 0
               1200 1203 1209 1235 vborder 0
               -hsync -vsync 
               VertFreq: 60 Hz, HorFreq: 74100 Hz
Monitor ranges (bare limits): 48-60Hz V, 74-74kHz H, max dotclock 150MHz
ASCII string: CSOT T3
ASCII string: MNE007JA1-1
Checksum: 0xfd (valid)
EDID block does NOT conform to EDID 1.4!
	Missing name descriptor
Warning: One or more of the timings is out of range of the Monitor Ranges:
  Vertical Freq: 60 - 60 Hz
  Horizontal Freq: 74100 - 74100 Hz
  Maximum Clock: 154.130 MHz


