
EDID (hex):
00ffffffffffff000e11591400000000
290d0103681e16b0ea12e59a574f9326
214e53adee0001010101010101010101
01010101010164190040410026301888
36002cdc10000018000000ff00434e43
333431304a59370a2020000000fd0038
4c1e3d08000a202020202020000000fc
00434f4d5041512046503533313500a5

Extracted contents:
header:          00 ff ff ff ff ff ff 00
serial number:   0e 11 59 14 00 00 00 00 29 0d
version:         01 03
basic params:    68 1e 16 b0 ea
chroma info:     12 e5 9a 57 4f 93 26 21 4e 53
established:     ad ee 00
standard:        01 01 01 01 01 01 01 01 01 01 01 01 01 01 01 01
descriptor 1:    64 19 00 40 41 00 26 30 18 88 36 00 2c dc 10 00 00 18
descriptor 2:    00 00 00 ff 00 43 4e 43 33 34 31 30 4a 59 37 0a 20 20
descriptor 3:    00 00 00 fd 00 38 4c 1e 3d 08 00 0a 20 20 20 20 20 20
descriptor 4:    00 00 00 fc 00 43 4f 4d 50 41 51 20 46 50 35 33 31 35
extensions:      00
checksum:        a5

EDID version: 1.3
Manufacturer: CPQ Model 1459 Serial Number --
Analog display, Input voltage level: 0.7/0.7 V
Sync: Separate 
Maximum image size: 30 cm x 22 cm
Gamma: 2.76
DPMS levels: Standby Suspend Off
RGB color display
First detailed timing is preferred timing
Display x,y Chromaticity:
  Red:   0.6015, 0.3408
  Green: 0.3085, 0.5761
  Blue:  0.1513, 0.1308
  White: 0.3056, 0.3251
Established timings supported:
  720x400@70Hz 9:5 HorFreq: 31469 Hz Clock: 28.320 MHz
  640x480@60Hz 4:3 HorFreq: 31469 Hz Clock: 25.175 MHz
  640x480@72Hz 4:3 HorFreq: 37900 Hz Clock: 31.500 MHz
  640x480@75Hz 4:3 HorFreq: 37500 Hz Clock: 31.500 MHz
  800x600@60Hz 4:3 HorFreq: 37900 Hz Clock: 40.000 MHz
  800x600@72Hz 4:3 HorFreq: 48100 Hz Clock: 50.000 MHz
  800x600@75Hz 4:3 HorFreq: 46900 Hz Clock: 49.500 MHz
  832x624@75Hz 4:3 HorFreq: 49726 Hz Clock: 57.284 MHz
  1024x768@60Hz 4:3 HorFreq: 48400 Hz Clock: 65.000 MHz
  1024x768@70Hz 4:3 HorFreq: 56500 Hz Clock: 75.000 MHz
  1024x768@75Hz 4:3 HorFreq: 60000 Hz Clock: 78.750 MHz
Standard timings supported:
Detailed mode: Clock 65.000 MHz, 300 mm x 220 mm
               1024 1048 1184 1344 hborder 0
                768  771  777  806 vborder 0
               -hsync -vsync 
               VertFreq: 60 Hz, HorFreq: 48363 Hz
Serial number: --
Monitor ranges (GTF): 56-76Hz V, 30-61kHz H, max dotclock 80MHz
Checksum: 0xa5 (valid)
EDID block does NOT conform to EDID 1.3!
	Name descriptor not terminated with a newline
EDID block does not conform at all!
	Bad year of manufacture
