edid-decode (hex):

00 ff ff ff ff ff ff 00 0d ae f4 15 00 00 00 00
06 1b 01 04 a5 22 13 78 02 89 a5 ae 4f 44 ac 26
10 50 54 00 00 00 01 01 01 01 01 01 01 01 01 01
01 01 01 01 01 01 59 6f 80 a0 70 38 3e 40 30 20
6a 00 58 c1 10 00 00 18 00 00 00 fe 00 4e 31 35
36 48 48 45 2d 47 41 31 0a 20 00 00 00 fe 00 43
4d 4e 0a 20 20 20 20 20 20 20 20 20 00 00 00 fe
00 4e 31 35 36 48 48 45 2d 47 41 31 0a 20 00 1a

----------------

Block 0, Base EDID:
  EDID Structure Version & Revision: 1.4
  Vendor & Product Identification:
    Manufacturer: CMN
    Model: 5620
    Made in: week 6 of 2017
  Basic Display Parameters & Features:
    Digital display
    Bits per primary color channel: 8
    DisplayPort interface
    Maximum image size: 34 cm x 19 cm
    Gamma: 2.20
    Supported color formats: RGB 4:4:4
    First detailed timing includes the native pixel format and preferred refresh rate
  Color Characteristics:
    Red  : 0.6816, 0.3085
    Green: 0.2675, 0.6728
    Blue : 0.1503, 0.0644
    White: 0.3134, 0.3291
  Established Timings I & II: none
  Standard Timings: none
  Detailed Timing Descriptors:
    DTD 1:  1920x1080  120.002863 Hz  16:9    137.043 kHz    285.050000 MHz (344 mm x 193 mm)
                 Hfront   48 Hsync  32 Hback   80 Hpol N
                 Vfront    6 Vsync  10 Vback   46 Vpol N
    Alphanumeric Data String: 'N156HHE-GA1'
    Alphanumeric Data String: 'CMN'
    Alphanumeric Data String: 'N156HHE-GA1'
Checksum: 0x1a

----------------

Warnings:

Block 0, Base EDID:
  Missing Display Product Name.

EDID conformity: PASS
