
EDID (hex):
00ffffffffffff0009e5ea0900000000
011e0104b522137803d165a95236b726
0f505400000001010101010101010101
01010101010150d000a0f0703e803020
360058c21000001a0000000000000000
00000000000000000000000000fd0028
3c858536010a202020202020000000fe
004e4531353651554d2d4e36430a0162
02031d00e3058000e60605016f6f226d
1a000002033c3c00046f226f22000000
00000000000000000000000000000000
00000000000000000000000000000000
00000000000000000000000000000000
00000000000000000000000000000000
00000000000000000000000000000000
0000000000000000000000000000005a

Extracted contents:
header:          00 ff ff ff ff ff ff 00
serial number:   09 e5 ea 09 00 00 00 00 01 1e
version:         01 04
basic params:    b5 22 13 78 03
chroma info:     d1 65 a9 52 36 b7 26 0f 50 54
established:     00 00 00
standard:        01 01 01 01 01 01 01 01 01 01 01 01 01 01 01 01
descriptor 1:    50 d0 00 a0 f0 70 3e 80 30 20 36 00 58 c2 10 00 00 1a
descriptor 2:    00 00 00 00 00 00 00 00 00 00 00 00 00 00 00 00 00 00
descriptor 3:    00 00 00 fd 00 28 3c 85 85 36 01 0a 20 20 20 20 20 20
descriptor 4:    00 00 00 fe 00 4e 45 31 35 36 51 55 4d 2d 4e 36 43 0a
extensions:      01
checksum:        62

EDID version: 1.4
Manufacturer: BOE Model 9ea Serial Number --
Made in week 1 of 2020
Digital display
10 bits per primary color channel
DisplayPort interface
Maximum image size: 34 cm x 19 cm
Gamma: 2.20
Supported color formats: RGB 4:4:4
First detailed timing includes the native pixel format and preferred refresh rate
Display is continuous frequency
Display x,y Chromaticity:
  Red:   0.6630, 0.3212
  Green: 0.2109, 0.7158
  Blue:  0.1494, 0.0605
  White: 0.3134, 0.3291
Established timings supported:
Standard timings supported:
Detailed mode: Clock 533.280 MHz, 344 mm x 194 mm
               3840 3888 3920 4000 hborder 0
               2160 2163 2169 2222 vborder 0
               +hsync -vsync 
               VertFreq: 60 Hz, HorFreq: 133320 Hz
Manufacturer-specified data, tag 0
Monitor ranges (bare limits): 40-60Hz V, 133-133kHz H, max dotclock 540MHz
ASCII string: NE156QUM-N6C
Has 1 extension blocks
Checksum: 0x62 (valid)

CTA extension block
Extension version: 3
25 bytes of CTA data
  Extended tag: Colorimetry data block
    BT2020RGB
  Extended tag: HDR static metadata data block
    Electro optical transfer functions:
      Traditional gamma - SDR luminance range
      SMPTE ST2084
    Supported static metadata descriptors:
      Static metadata type 1
    Desired content max luminance: 111 (553.564 cd/m^2)
    Desired content max frame-average luminance: 111 (553.564 cd/m^2)
    Desired content min luminance: 34 (0.098 cd/m^2)
  Vendor-specific data block, OUI 00001a
0 native detailed modes
Checksum: 0x5a (valid)

EDID block does NOT conform to EDID 1.4!
	Required 640x480p60 timings are missing in the established timings
	and/or in the SVD list (VIC 1)
	Missing name descriptor
Warning: One or more of the timings is out of range of the Monitor Ranges:
  Vertical Freq: 60 - 60 Hz
  Horizontal Freq: 133320 - 133320 Hz
  Maximum Clock: 533.280 MHz
