
EDID (hex):
00ffffffffffff004dd95a0700000003
16200104b53c2278bb1185ae5046a824
0f50542108008180d1c0010101010101
0101010101014dd000a0f0703e803020
3500544f2100001a000000ff00393830
313839380a2020202020000000fc0053
444d5532374d39302a33300a000000fd
0c30904f4f86010a20202020202002d4
02032bf153766110605f5e5d3f1f2021
220413030212110123097f0783010000
e305c000e60605017d7d0d565e00a0a0
a0295030203500544f2100001a79c200
a0a0a0555030203500544f2100001a4d
d000a0f0703e8030203500544f210000
1a000000000000000000000000000000
00000000000000000000000000000082
701279030003013ca5080284ff0e9f00
2f801f006f08990002000400cfac0104
ff0e9f002f801f006f087e0002000400
514f0104ff0e9f002f801f006f086200
02000400000000000000000000000000
00000000000000000000000000000000
00000000000000000000000000000000
00000000000000000000000000007c90

Extracted contents:
header:          00 ff ff ff ff ff ff 00
serial number:   4d d9 5a 07 00 00 00 03 16 20
version:         01 04
basic params:    b5 3c 22 78 bb
chroma info:     11 85 ae 50 46 a8 24 0f 50 54
established:     21 08 00
standard:        81 80 d1 c0 01 01 01 01 01 01 01 01 01 01 01 01
descriptor 1:    4d d0 00 a0 f0 70 3e 80 30 20 35 00 54 4f 21 00 00 1a
descriptor 2:    00 00 00 ff 00 39 38 30 31 38 39 38 0a 20 20 20 20 20
descriptor 3:    00 00 00 fc 00 53 44 4d 55 32 37 4d 39 30 2a 33 30 0a
descriptor 4:    00 00 00 fd 0c 30 90 4f 4f 86 01 0a 20 20 20 20 20 20
extensions:      02
checksum:        d4

EDID version: 1.4
Manufacturer: SNY Model 75a Serial Number --
Made in week 22 of 2022
Digital display
10 bits per primary color channel
DisplayPort interface
Maximum image size: 60 cm x 34 cm
Gamma: 2.20
DPMS levels: Standby Off
Supported color formats: RGB 4:4:4, YCrCb 4:4:4, YCrCb 4:2:2
First detailed timing includes the native pixel format and preferred refresh rate
Display is continuous frequency
Display x,y Chromaticity:
  Red:   0.6796, 0.3134
  Green: 0.2734, 0.6572
  Blue:  0.1425, 0.0585
  White: 0.3134, 0.3291
Established timings supported:
  640x480@60Hz 4:3 HorFreq: 31469 Hz Clock: 25.175 MHz
  800x600@60Hz 4:3 HorFreq: 37900 Hz Clock: 40.000 MHz
  1024x768@60Hz 4:3 HorFreq: 48400 Hz Clock: 65.000 MHz
Standard timings supported:
  1280x1024@60Hz 5:4 HorFreq: 64000 Hz Clock: 108.000 MHz
  1920x1080@60Hz 16:9
Detailed mode: Clock 533.250 MHz, 596 mm x 335 mm
               3840 3888 3920 4000 hborder 0
               2160 2163 2168 2222 vborder 0
               +hsync -vsync 
               VertFreq: 59 Hz, HorFreq: 133312 Hz
Serial number: --
Monitor name: SDMU27M90*30
Monitor ranges (bare limits): 48-144Hz V, 79-334kHz H, max dotclock 1340MHz
Has 2 extension blocks
Checksum: 0xd4 (valid)

CTA extension block
Extension version: 3
39 bytes of CTA data
  Video data block
    VIC 118 3840x2160@120Hz 16:9  HorFreq: 270000 Hz Clock: 1188.000 MHz
    VIC  97 3840x2160@60Hz 16:9  HorFreq: 135000 Hz Clock: 594.000 MHz
    VIC  16 1920x1080@60Hz 16:9  HorFreq: 67500 Hz Clock: 148.500 MHz
    VIC  96 3840x2160@50Hz 16:9  HorFreq: 112500 Hz Clock: 594.000 MHz
    VIC  95 3840x2160@30Hz 16:9  HorFreq: 67500 Hz Clock: 297.000 MHz
    VIC  94 3840x2160@25Hz 16:9  HorFreq: 56250 Hz Clock: 297.000 MHz
    VIC  93 3840x2160@24Hz 16:9  HorFreq: 54000 Hz Clock: 297.000 MHz
    VIC  63 1920x1080@120Hz 16:9  HorFreq: 135000 Hz Clock: 297.000 MHz
    VIC  31 1920x1080@50Hz 16:9  HorFreq: 56250 Hz Clock: 148.500 MHz
    VIC  32 1920x1080@24Hz 16:9  HorFreq: 27000 Hz Clock: 74.250 MHz
    VIC  33 1920x1080@25Hz 16:9  HorFreq: 28125 Hz Clock: 74.250 MHz
    VIC  34 1920x1080@30Hz 16:9  HorFreq: 33750 Hz Clock: 74.250 MHz
    VIC   4 1280x720@60Hz 16:9  HorFreq: 45000 Hz Clock: 74.250 MHz
    VIC  19 1280x720@50Hz 16:9  HorFreq: 37500 Hz Clock: 74.250 MHz
    VIC   3 720x480@60Hz 16:9  HorFreq: 31469 Hz Clock: 27.000 MHz
    VIC   2 720x480@60Hz 4:3  HorFreq: 31469 Hz Clock: 27.000 MHz
    VIC  18 720x576@50Hz 16:9  HorFreq: 31250 Hz Clock: 27.000 MHz
    VIC  17 720x576@50Hz 4:3  HorFreq: 31250 Hz Clock: 27.000 MHz
    VIC   1 640x480@60Hz 4:3  HorFreq: 31469 Hz Clock: 25.175 MHz
  Audio data block
    Linear PCM, max channels 2
      Supported sample rates (kHz): 192 176.4 96 88.2 48 44.1 32
      Supported sample sizes (bits): 24 20 16
  Speaker allocation data block
    Speaker map:
      FL/FR - Front Left/Right
  Extended tag: Colorimetry data block
    BT2020YCC
    BT2020RGB
  Extended tag: HDR static metadata data block
    Electro optical transfer functions:
      Traditional gamma - SDR luminance range
      SMPTE ST2084
    Supported static metadata descriptors:
      Static metadata type 1
    Desired content max luminance: 125 (749.667 cd/m^2)
    Desired content max frame-average luminance: 125 (749.667 cd/m^2)
    Desired content min luminance: 13 (0.019 cd/m^2)
Underscans PC formats by default
Basic audio support
Supports YCbCr 4:4:4
Supports YCbCr 4:2:2
1 native detailed modes
Detailed mode: Clock 241.500 MHz, 596 mm x 335 mm
               2560 2608 2640 2720 hborder 0
               1440 1443 1448 1481 vborder 0
               +hsync -vsync 
               VertFreq: 59 Hz, HorFreq: 88786 Hz
Detailed mode: Clock 497.850 MHz, 596 mm x 335 mm
               2560 2608 2640 2720 hborder 0
               1440 1443 1448 1525 vborder 0
               +hsync -vsync 
               VertFreq: 120 Hz, HorFreq: 183033 Hz
Detailed mode: Clock 533.250 MHz, 596 mm x 335 mm
               3840 3888 3920 4000 hborder 0
               2160 2163 2168 2222 vborder 0
               +hsync -vsync 
               VertFreq: 59 Hz, HorFreq: 133312 Hz
Checksum: 0x82 (valid)


DisplayID extension block
Extension version: 18
Length 121, version 18, extension count 0
Checksum: 0x7c (valid)
Type 1 detailed timing: aspect: 16:9, Preferred  
Detailed mode: Clock 1332.850 MHz, 0 mm x 0 mm
               3839 3886 3917 3998
               2159 2161 2165 2312
               +hsync -vsync
Type 1 detailed timing: aspect: 16:9,  
Detailed mode: Clock 1097.750 MHz, 0 mm x 0 mm
               3839 3886 3917 3998
               2159 2161 2165 2285
               +hsync -vsync
Type 1 detailed timing: aspect: 16:9,  
Detailed mode: Clock 858.410 MHz, 0 mm x 0 mm
               3839 3886 3917 3998
               2159 2161 2165 2257
               +hsync -vsync

Warning: One or more of the timings is out of range of the Monitor Ranges:
  Vertical Freq: 24 - 120 Hz
  Horizontal Freq: 27000 - 270000 Hz
  Maximum Clock: 1188.000 MHz
EDID block does not conform at all!
	Both the serial number and the serial string are set
