
EDID (hex):
00ffffffffffff0030aea06334353430
1e200103802b18782e0565a656529f27
115054afef00714f8180818a95000101
010101010101312e40006284223058a8
3500b0f01000001c000000ff00564138
30303435340a20202020000000fd0031
4c1e5315000a202020202020000000fc
004532302d31620a202020202020014e
020312b145041312030167030c001000
002a312e40006284223058a83500b0f0
1000001ca028a0a050841e3030203600
b0f01000001c662156aa51001e30468f
3300b0f01000001edd09bca0203a1320
30203a00b0f01000001a160880a0205e
131010403a00b0f01000001c00000000
0000000000000000000000000000006e

edid-decode (hex):

00 ff ff ff ff ff ff 00 30 ae a0 63 34 35 34 30
1e 20 01 03 80 2b 18 78 2e 05 65 a6 56 52 9f 27
11 50 54 af ef 00 71 4f 81 80 81 8a 95 00 01 01
01 01 01 01 01 01 31 2e 40 00 62 84 22 30 58 a8
35 00 b0 f0 10 00 00 1c 00 00 00 ff 00 56 41 38
30 30 34 35 34 0a 20 20 20 20 00 00 00 fd 00 31
4c 1e 53 15 00 0a 20 20 20 20 20 20 00 00 00 fc
00 45 32 30 2d 31 62 0a 20 20 20 20 20 20 01 4e

02 03 12 b1 45 04 13 12 03 01 67 03 0c 00 10 00
00 2a 31 2e 40 00 62 84 22 30 58 a8 35 00 b0 f0
10 00 00 1c a0 28 a0 a0 50 84 1e 30 30 20 36 00
b0 f0 10 00 00 1c 66 21 56 aa 51 00 1e 30 46 8f
33 00 b0 f0 10 00 00 1e dd 09 bc a0 20 3a 13 20
30 20 3a 00 b0 f0 10 00 00 1a 16 08 80 a0 20 5e
13 10 10 40 3a 00 b0 f0 10 00 00 1c 00 00 00 00
00 00 00 00 00 00 00 00 00 00 00 00 00 00 00 6e

----------------

Block 0, Base EDID:
  EDID Structure Version & Revision: 1.3
  Vendor & Product Identification:
    Manufacturer: LEN
    Model: 25504
    Serial Number: 808727860
    Made in: week 30 of 2022
  Basic Display Parameters & Features:
    Digital display
    Maximum image size: 43 cm x 24 cm
    Gamma: 2.20
    DPMS levels: Off
    RGB color display
    Default (sRGB) color space is primary color space
    First detailed timing is the preferred timing
  Color Characteristics:
    Red  : 0.6484, 0.3359
    Green: 0.3212, 0.6220
    Blue : 0.1533, 0.0683
    White: 0.3134, 0.3291
  Established Timings I & II:
    IBM     :   720x400    70.081663 Hz   9:5     31.467 kHz     28.320000 MHz
    DMT 0x04:   640x480    59.940476 Hz   4:3     31.469 kHz     25.175000 MHz
    DMT 0x05:   640x480    72.808802 Hz   4:3     37.861 kHz     31.500000 MHz
    DMT 0x06:   640x480    75.000000 Hz   4:3     37.500 kHz     31.500000 MHz
    DMT 0x08:   800x600    56.250000 Hz   4:3     35.156 kHz     36.000000 MHz
    DMT 0x09:   800x600    60.316541 Hz   4:3     37.879 kHz     40.000000 MHz
    DMT 0x0a:   800x600    72.187572 Hz   4:3     48.077 kHz     50.000000 MHz
    DMT 0x0b:   800x600    75.000000 Hz   4:3     46.875 kHz     49.500000 MHz
    Apple   :   832x624    74.551266 Hz   4:3     49.726 kHz     57.284000 MHz
    DMT 0x10:  1024x768    60.003840 Hz   4:3     48.363 kHz     65.000000 MHz
    DMT 0x11:  1024x768    70.069359 Hz   4:3     56.476 kHz     75.000000 MHz
    DMT 0x12:  1024x768    75.028582 Hz   4:3     60.023 kHz     78.750000 MHz
    DMT 0x24:  1280x1024   75.024675 Hz   5:4     79.976 kHz    135.000000 MHz
  Standard Timings:
    DMT 0x15:  1152x864    75.000000 Hz   4:3     67.500 kHz    108.000000 MHz
    DMT 0x23:  1280x1024   60.019740 Hz   5:4     63.981 kHz    108.000000 MHz
    GTF     :  1280x1024   69.999805 Hz   5:4     74.620 kHz    128.943000 MHz
    DMT 0x2f:  1440x900    59.887445 Hz  16:10    55.935 kHz    106.500000 MHz
  Detailed Timing Descriptors:
    DTD 1:  1600x900    59.946021 Hz  16:9     55.990 kHz    118.250000 MHz (432 mm x 240 mm)
                 Hfront   88 Hsync 168 Hback  256 Hpol N
                 Vfront    3 Vsync   5 Vback   26 Vpol P
    Display Product Serial Number: 'VA800454'
    Display Range Limits:
      Monitor ranges (GTF): 49-76 Hz V, 30-83 kHz H, max dotclock 210 MHz
    Display Product Name: 'E20-1b'
  Extension blocks: 1
Checksum: 0x4e

----------------

Block 1, CTA-861 Extension Block:
  Revision: 3
  Underscans IT Video Formats by default
  Supports YCbCr 4:4:4
  Supports YCbCr 4:2:2
  Native detailed modes: 1
  Video Data Block:
    VIC   4:  1280x720    60.000000 Hz  16:9     45.000 kHz     74.250000 MHz
    VIC  19:  1280x720    50.000000 Hz  16:9     37.500 kHz     74.250000 MHz
    VIC  18:   720x576    50.000000 Hz  16:9     31.250 kHz     27.000000 MHz
    VIC   3:   720x480    59.940060 Hz  16:9     31.469 kHz     27.000000 MHz
    VIC   1:   640x480    59.940476 Hz   4:3     31.469 kHz     25.175000 MHz
  Vendor-Specific Data Block (HDMI), OUI 00-0C-03:
    Source physical address: 1.0.0.0
    Maximum TMDS clock: 210 MHz
  Detailed Timing Descriptors:
    DTD 2:  1600x900    59.946021 Hz  16:9     55.990 kHz    118.250000 MHz (432 mm x 240 mm)
                 Hfront   88 Hsync 168 Hback  256 Hpol N
                 Vfront    3 Vsync   5 Vback   26 Vpol P
    DTD 3:  1440x900    69.892473 Hz  16:10    65.000 kHz    104.000000 MHz (432 mm x 240 mm)
                 Hfront   48 Hsync  32 Hback   80 Hpol N
                 Vfront    3 Vsync   6 Vback   21 Vpol P
    DTD 4:  1366x768    59.789541 Hz 683:384   47.712 kHz     85.500000 MHz (432 mm x 240 mm)
                 Hfront   70 Hsync 143 Hback  213 Hpol P
                 Vfront    3 Vsync   3 Vback   24 Vpol P
    DTD 5:   700x570    49.847988 Hz  70:57    29.360 kHz     25.250000 MHz (432 mm x 240 mm)
                 Hfront   48 Hsync  32 Hback   80 Hpol P
                 Vfront    3 Vsync  10 Vback    6 Vpol N
    DTD 6:   640x350    70.121951 Hz  64:35    25.875 kHz     20.700000 MHz (432 mm x 240 mm)
                 Hfront   16 Hsync  64 Hback   80 Hpol N
                 Vfront    3 Vsync  10 Vback    6 Vpol P
Checksum: 0x6e  Unused space in Extension Block: 19 bytes
