
EDID (hex):
00ffffffffffff0009e5eb0600000000
011a0104a51f117802e7b0955c599429
22505400000001010101010101010101
010101010101c83680cc703814403020
360035ad1000001a862480cc70381440
6464440535ad1000001a000000000000
00000000000000000000000000000002
000b43f40a3c6e120e187300000000ba

Extracted contents:
header:          00 ff ff ff ff ff ff 00
serial number:   09 e5 eb 06 00 00 00 00 01 1a
version:         01 04
basic params:    a5 1f 11 78 02
chroma info:     e7 b0 95 5c 59 94 29 22 50 54
established:     00 00 00
standard:        01 01 01 01 01 01 01 01 01 01 01 01 01 01 01 01
descriptor 1:    c8 36 80 cc 70 38 14 40 30 20 36 00 35 ad 10 00 00 1a
descriptor 2:    86 24 80 cc 70 38 14 40 64 64 44 05 35 ad 10 00 00 1a
descriptor 3:    00 00 00 00 00 00 00 00 00 00 00 00 00 00 00 00 00 00
descriptor 4:    00 00 00 02 00 0b 43 f4 0a 3c 6e 12 0e 18 73 00 00 00
extensions:      00
checksum:        ba

EDID version: 1.4
Manufacturer: BOE Model 6eb Serial Number --
Made in week 1 of 2016
Digital display
8 bits per primary color channel
DisplayPort interface
Maximum image size: 31 cm x 17 cm
Gamma: 2.20
Supported color formats: RGB 4:4:4
First detailed timing includes the native pixel format and preferred refresh rate
Display x,y Chromaticity:
  Red:   0.5849, 0.3613
  Green: 0.3486, 0.5810
  Blue:  0.1621, 0.1357
  White: 0.3125, 0.3281
Established timings supported:
Standard timings supported:
Detailed mode: Clock 140.240 MHz, 309 mm x 173 mm
               1920 1968 2000 2124 hborder 0
               1080 1083 1089 1100 vborder 0
               +hsync -vsync 
               VertFreq: 60 Hz, HorFreq: 66026 Hz
Detailed mode: Clock 93.500 MHz, 309 mm x 173 mm
               1920 2020 2120 2124 hborder 0
               1080 1100 1120 1100 vborder 0
               +hsync -vsync 
               VertFreq: 40 Hz, HorFreq: 44020 Hz
Manufacturer-specified data, tag 0
Manufacturer-specified data, tag 2
Checksum: 0xba (valid)
EDID block does NOT conform to EDID 1.4!
	Missing name descriptor
	Missing monitor ranges
