edid-decode (hex):

00 ff ff ff ff ff ff 00 4c 83 0c 42 00 00 00 00
00 22 01 04 b5 22 16 78 03 66 85 ae 51 38 b9 24
0a 50 54 00 00 00 01 01 01 01 01 01 01 01 01 01
01 01 01 01 01 01 00 00 00 00 00 00 00 00 00 00
00 00 00 00 00 00 00 00 00 00 00 fd 0c 28 78 04
04 56 01 0a 20 20 20 20 20 20 00 00 00 fe 00 53
44 43 20 20 20 20 20 20 20 20 20 20 00 00 00 fc
00 41 54 4e 41 36 30 4b 41 30 31 2d 30 20 02 c1

70 20 79 02 00 20 00 0c ba 41 59 0c 42 00 00 00
00 00 18 00 21 00 1d 74 0d 69 08 80 0c d0 07 00
e5 7a 51 85 a3 b9 4a 02 0a 02 45 54 d0 63 40 66
00 45 23 78 26 00 09 06 00 00 00 00 00 50 00 00
22 00 28 4d 11 0d 05 7f 0c 67 00 07 00 1f 00 cf
07 9f 00 77 00 0f 00 4d 11 0d 85 7f 0c 67 00 07
00 1f 00 cf 07 0f 09 e7 08 0f 00 81 00 0b e3 05
80 00 e6 06 05 01 a0 8a 01 00 00 00 00 00 5a 90

70 20 79 02 00 2b 00 0c 27 00 28 77 00 00 27 00
28 3b 00 00 2e 00 06 00 45 d0 63 40 66 81 00 14
73 1a 00 00 03 0b 28 78 00 a0 a0 01 8a 01 78 00
00 00 00 8d 00 00 00 00 00 00 00 00 00 00 00 00
00 00 00 00 00 00 00 00 00 00 00 00 00 00 00 00
00 00 00 00 00 00 00 00 00 00 00 00 00 00 00 00
00 00 00 00 00 00 00 00 00 00 00 00 00 00 00 00
00 00 00 00 00 00 00 00 00 00 00 00 00 00 eb 90

00 ff ff ff ff ff ff 00 4c 83 0c 42 00 00 00 00
00 22 01 04 b5 22 16 78 03 66 85 ae 51 38 b9 24
0a 50 54 00 00 00 01 01 01 01 01 01 01 01 01 01
01 01 01 01 01 01 00 00 00 00 00 00 00 00 00 00
00 00 00 00 00 00 00 00 00 00 00 fd 0c 28 78 04
04 56 01 0a 20 20 20 20 20 20 00 00 00 fe 00 53
44 43 20 20 20 20 20 20 20 20 20 20 00 00 00 fc
00 41 54 4e 41 36 30 4b 41 30 31 2d 30 20 02 c1

70 20 79 02 00 20 00 0c ba 41 59 0c 42 00 00 00
00 00 18 00 21 00 1d 74 0d 69 08 80 0c d0 07 00
e5 7a 51 85 a3 b9 4a 02 0a 02 45 54 d0 63 40 66
00 45 23 78 26 00 09 06 00 00 00 00 00 50 00 00
22 00 28 4d 11 0d 05 7f 0c 67 00 07 00 1f 00 cf
07 9f 00 77 00 0f 00 4d 11 0d 85 7f 0c 67 00 07
00 1f 00 cf 07 0f 09 e7 08 0f 00 81 00 0b e3 05
80 00 e6 06 05 01 a0 8a 01 00 00 00 00 00 5a 90

70 20 79 02 00 2b 00 0c 27 00 28 77 00 00 27 00
28 3b 00 00 2e 00 06 00 45 d0 63 40 66 81 00 14
73 1a 00 00 03 0b 28 78 00 a0 a0 01 8a 01 78 00
00 00 00 8d 00 00 00 00 00 00 00 00 00 00 00 00
00 00 00 00 00 00 00 00 00 00 00 00 00 00 00 00
00 00 00 00 00 00 00 00 00 00 00 00 00 00 00 00
00 00 00 00 00 00 00 00 00 00 00 00 00 00 00 00
00 00 00 00 00 00 00 00 00 00 00 00 00 00 eb 90

----------------

Block 0, Base EDID:
  EDID Structure Version & Revision: 1.4
  Vendor & Product Identification:
    Manufacturer: SDC
    Model: 16908
    Made in: 2024
  Basic Display Parameters & Features:
    Digital display
    Bits per primary color channel: 10
    DisplayPort interface
    Maximum image size: 34 cm x 22 cm
    Gamma: 2.20
    Supported color formats: RGB 4:4:4
    First detailed timing includes the native pixel format and preferred refresh rate
    Display is continuous frequency
  Color Characteristics:
    Red  : 0.6806, 0.3183
    Green: 0.2197, 0.7246
    Blue : 0.1425, 0.0390
    White: 0.3134, 0.3291
  Established Timings I & II: none
  Standard Timings: none
  Detailed Timing Descriptors:
    Empty Descriptor
    Display Range Limits:
      Monitor ranges (Bare Limits): 40-120 Hz V, 259-259 kHz H, max dotclock 860 MHz
    Alphanumeric Data String: 'SDC          '
    Display Product Name: 'ATNA60KA01-0 '
  Extension blocks: 2
Checksum: 0xc1

----------------

Block 1, DisplayID Extension Block:
  Version: 2.0
  Extension Count: 0
  Display Product Primary Use Case: None of the listed primary use cases; generic display
  Product Identification Data Block (0x20), OUI BA-41-59:
    Product Code: 16908
    Year of Manufacture: 2024
  Display Parameters Data Block (0x21):
    Image size: 344.4 mm x 215.3 mm
    Display native pixel format: 3200x2000
    Scan Orientation: Left to Right, Top to Bottom
    Luminance Information: Minimum guaranteed value
    Color Information: CIE 1931
    Audio Speaker Information: integrated
    Native Color Chromaticity:
      Primary #1:  (0.680908, 0.318115)
      Primary #2:  (0.219971, 0.725098)
      Primary #3:  (0.143066, 0.039062)
      White Point: (0.312988, 0.329102)
    Native Maximum Luminance (Full Coverage): 1000.000000 cd/m^2
    Native Maximum Luminance (10% Rectangular Coverage): 1600.000000 cd/m^2
    Native Minimum Luminance: 5.000000 cd/m^2
    Native Color Depth: 12 bpc
    Display Device Technology: Organic LED
    Native Gamma EOTF: 2.20
  Display Interface Features Data Block:
    Supported bpc for RGB encoding: 8, 10
    Supported color space and EOTF standard combination 1: DCI-P3, BT.2020/SMPTE ST 2084
  Video Timing Modes Type 7 - Detailed Timings Data Block:
    DTD:  3200x2000  120.000168 Hz  16:10   259.200 kHz    856.398000 MHz (aspect 16:10, no 3D stereo)
               Hfront    8 Hsync  32 Hback   64 Hpol N
               Vfront  120 Vsync  16 Vback   24 Vpol N
    DTD:  3200x2000   60.000084 Hz  16:10   259.200 kHz    856.398000 MHz (aspect 16:10, no 3D stereo, preferred)
               Hfront    8 Hsync  32 Hback   64 Hpol N
               Vfront 2280 Vsync  16 Vback   24 Vpol N
  CTA-861 DisplayID Data Block:
  Colorimetry Data Block:
    BT2020RGB
  HDR Static Metadata Data Block:
    Electro optical transfer functions:
      Traditional gamma - SDR luminance range
      SMPTE ST2084
    Supported static metadata descriptors:
      Static metadata type 1
    Desired content max luminance: 160 (1600.000 cd/m^2)
    Desired content max frame-average luminance: 138 (993.486 cd/m^2)
    Desired content min luminance: 1 (0.000 cd/m^2)
  Checksum: 0x5a
Checksum: 0x90

----------------

Block 2, DisplayID Extension Block:
  Version: 2.0
  Extension Count: 0
  Adaptive Sync Data Block:
    Descriptor #1:
      Native Panel Range
      Fixed Average V-Total and Adaptive V-Total
      'Max Single Frame Duration Increase' field value without jitter impact
      'Max Single Frame Duration Decrease' field value without jitter impact
      Max Duration Increase: 0.00 ms
      Max Duration Decrease: 0.00 ms
      Min Refresh Rate: 40 Hz
      Max Refresh Rate: 120 Hz
    Descriptor #2:
      Native Panel Range
      Fixed Average V-Total and Adaptive V-Total
      'Max Single Frame Duration Increase' field value without jitter impact
      'Max Single Frame Duration Decrease' field value without jitter impact
      Max Duration Increase: 0.00 ms
      Max Duration Decrease: 0.00 ms
      Min Refresh Rate: 40 Hz
      Max Refresh Rate: 60 Hz
  Unknown DisplayID Data Block (0x2e, length 6):
    00 45 d0 63 40 66                               '.E.c@f'
  CTA-861 DisplayID Data Block:
  Vendor-Specific Data Block (AMD), OUI 00-00-1A:
    Version: 3.11
    Minimum Refresh Rate: 40 Hz
    Maximum Refresh Rate: 120 Hz
    Flags 1.x: 0x00
    Flags 2.x: 0xa0
    Maximum luminance: 160 (1600.000 cd/m^2)
    Minimum luminance: 1 (0.000 cd/m^2)
    Unknown: 0x8a 0x01
  Checksum: 0xeb
Checksum: 0x90

----------------

Block 3, Unknown EDID Extension Block 0x00:
  00 ff ff ff ff ff ff 00 4c 83 0c 42 00 00 00 00 '........L..B....'
  00 22 01 04 b5 22 16 78 03 66 85 ae 51 38 b9 24 '."...".x.f..Q8.$'
  0a 50 54 00 00 00 01 01 01 01 01 01 01 01 01 01 '.PT.............'
  01 01 01 01 01 01 00 00 00 00 00 00 00 00 00 00 '................'
  00 00 00 00 00 00 00 00 00 00 00 fd 0c 28 78 04 '.............(x.'
  04 56 01 0a 20 20 20 20 20 20 00 00 00 fe 00 53 '.V..      .....S'
  44 43 20 20 20 20 20 20 20 20 20 20 00 00 00 fc 'DC          ....'
  00 41 54 4e 41 36 30 4b 41 30 31 2d 30 20 02 c1 '.ATNA60KA01-0 ..'
Checksum: 0xc1

----------------

Block 4, DisplayID Extension Block:
  Version: 2.0
  Extension Count: 0
  Product Identification Data Block (0x20), OUI BA-41-59:
    Product Code: 16908
    Year of Manufacture: 2024
  Display Parameters Data Block (0x21):
    Image size: 344.4 mm x 215.3 mm
    Display native pixel format: 3200x2000
    Scan Orientation: Left to Right, Top to Bottom
    Luminance Information: Minimum guaranteed value
    Color Information: CIE 1931
    Audio Speaker Information: integrated
    Native Color Chromaticity:
      Primary #1:  (0.680908, 0.318115)
      Primary #2:  (0.219971, 0.725098)
      Primary #3:  (0.143066, 0.039062)
      White Point: (0.312988, 0.329102)
    Native Maximum Luminance (Full Coverage): 1000.000000 cd/m^2
    Native Maximum Luminance (10% Rectangular Coverage): 1600.000000 cd/m^2
    Native Minimum Luminance: 5.000000 cd/m^2
    Native Color Depth: 12 bpc
    Display Device Technology: Organic LED
    Native Gamma EOTF: 2.20
  Display Interface Features Data Block:
    Supported bpc for RGB encoding: 8, 10
    Supported color space and EOTF standard combination 1: DCI-P3, BT.2020/SMPTE ST 2084
  Video Timing Modes Type 7 - Detailed Timings Data Block:
    DTD:  3200x2000  120.000168 Hz  16:10   259.200 kHz    856.398000 MHz (aspect 16:10, no 3D stereo)
               Hfront    8 Hsync  32 Hback   64 Hpol N
               Vfront  120 Vsync  16 Vback   24 Vpol N
    DTD:  3200x2000   60.000084 Hz  16:10   259.200 kHz    856.398000 MHz (aspect 16:10, no 3D stereo, preferred)
               Hfront    8 Hsync  32 Hback   64 Hpol N
               Vfront 2280 Vsync  16 Vback   24 Vpol N
  CTA-861 DisplayID Data Block:
  Colorimetry Data Block:
    BT2020RGB
  HDR Static Metadata Data Block:
    Electro optical transfer functions:
      Traditional gamma - SDR luminance range
      SMPTE ST2084
    Supported static metadata descriptors:
      Static metadata type 1
    Desired content max luminance: 160 (1600.000 cd/m^2)
    Desired content max frame-average luminance: 138 (993.486 cd/m^2)
    Desired content min luminance: 1 (0.000 cd/m^2)
  Checksum: 0x5a
Checksum: 0x90

----------------

Block 5, DisplayID Extension Block:
  Version: 2.0
  Extension Count: 0
  Adaptive Sync Data Block:
    Descriptor #1:
      Native Panel Range
      Fixed Average V-Total and Adaptive V-Total
      'Max Single Frame Duration Increase' field value without jitter impact
      'Max Single Frame Duration Decrease' field value without jitter impact
      Max Duration Increase: 0.00 ms
      Max Duration Decrease: 0.00 ms
      Min Refresh Rate: 40 Hz
      Max Refresh Rate: 120 Hz
    Descriptor #2:
      Native Panel Range
      Fixed Average V-Total and Adaptive V-Total
      'Max Single Frame Duration Increase' field value without jitter impact
      'Max Single Frame Duration Decrease' field value without jitter impact
      Max Duration Increase: 0.00 ms
      Max Duration Decrease: 0.00 ms
      Min Refresh Rate: 40 Hz
      Max Refresh Rate: 60 Hz
  Unknown DisplayID Data Block (0x2e, length 6):
    00 45 d0 63 40 66                               '.E.c@f'
  CTA-861 DisplayID Data Block:
  Vendor-Specific Data Block (AMD), OUI 00-00-1A:
    Version: 3.11
    Minimum Refresh Rate: 40 Hz
    Maximum Refresh Rate: 120 Hz
    Flags 1.x: 0x00
    Flags 2.x: 0xa0
    Maximum luminance: 160 (1600.000 cd/m^2)
    Minimum luminance: 1 (0.000 cd/m^2)
    Unknown: 0x8a 0x01
  Checksum: 0xeb
Checksum: 0x90

----------------

Warnings:

Block 1, DisplayID Extension Block:
  Product Identification Data Block (0x20), OUI BA-41-59: Unknown OUI BA-41-59.
  Colorimetry Data Block: Set the sRGB colorimetry bit to avoid interop issues.
Block 4, DisplayID Extension Block:
  Product Identification Data Block (0x20), OUI BA-41-59: Unknown OUI BA-41-59.
  Colorimetry Data Block: Set the sRGB colorimetry bit to avoid interop issues.

Failures:

Block 0, Base EDID:
  Standard Timings: Missing preferred timing.
  Empty Descriptor: Use Dummy Descriptor instead of all zeroes.
  Alphanumeric Data String: One or more trailing spaces.
  Display Product Name: One or more trailing spaces.
Block 1, DisplayID Extension Block:
  Expected 0 DisplayID Extension Block, but got 3.
Block 2, DisplayID Extension Block:
  Product Type should be 0 in extension block.
Block 3, Base EDID:
  Unknown Extension Block.
Block 4, DisplayID Extension Block:
  Product Type should be 0 in extension block.
  Product Identification Data Block (0x20), OUI BA-41-59: Product Identification Data Block (0x20), OUI BA-41-59 is required to be the first DisplayID Data Block.
  Display Parameters Data Block (0x21): Duplicate Display Parameters Data Block.
  Colorimetry Data Block: Only one instance of this Data Block is allowed.
  HDR Static Metadata Data Block: Only one instance of this Data Block is allowed.
Block 5, DisplayID Extension Block:
  Product Type should be 0 in extension block.
EDID:
  Base EDID: EDID specified 2 extension block(s), but found 5 extension block(s).

EDID conformity: FAIL
