edid-decode (hex):

00 ff ff ff ff ff ff 00 51 b8 98 13 00 00 00 00
28 1f 01 04 a5 1f 11 78 03 ee 95 a3 54 4c 99 26
0f 50 54 00 00 00 01 01 01 01 01 01 01 01 01 01
01 01 01 01 01 01 68 36 80 a0 70 38 24 40 30 20
75 04 35 ae 10 00 00 18 87 2b 80 a0 70 38 24 40
30 20 75 04 35 ae 10 00 00 18 00 00 00 fd 00 30
3c 43 43 0e 01 0a 20 20 20 20 20 20 00 00 00 fc
00 54 4c 31 34 30 56 44 58 50 30 33 2d 32 00 21

00 ff ff ff ff ff ff 00 51 b8 98 13 00 00 00 00
28 1f 01 04 a5 1f 11 78 03 ee 95 a3 54 4c 99 26
0f 50 54 00 00 00 01 01 01 01 01 01 01 01 01 01
01 01 01 01 01 01 68 36 80 a0 70 38 24 40 30 20
75 04 35 ae 10 00 00 18 87 2b 80 a0 70 38 24 40
30 20 75 04 35 ae 10 00 00 18 00 00 00 fd 00 30
3c 43 43 0e 01 0a 20 20 20 20 20 20 00 00 00 fc
00 54 4c 31 34 30 56 44 58 50 30 33 2d 32 00 21

----------------

Block 0, Base EDID:
  EDID Structure Version & Revision: 1.4
  Vendor & Product Identification:
    Manufacturer: TMX
    Model: 5016
    Made in: week 40 of 2021
  Basic Display Parameters & Features:
    Digital display
    Bits per primary color channel: 8
    DisplayPort interface
    Maximum image size: 31 cm x 17 cm
    Gamma: 2.20
    Supported color formats: RGB 4:4:4
    First detailed timing includes the native pixel format and preferred refresh rate
    Display is continuous frequency
  Color Characteristics:
    Red  : 0.6396, 0.3300
    Green: 0.2998, 0.5996
    Blue : 0.1503, 0.0595
    White: 0.3134, 0.3291
  Established Timings I & II: none
  Standard Timings: none
  Detailed Timing Descriptors:
    DTD 1:  1920x1080   60.001379 Hz  16:9     66.962 kHz    139.280000 MHz (309 mm x 174 mm)
                 Hfront   48 Hsync  32 Hback   80 Hpol N
                 Vfront   23 Vsync   5 Vback    8 Vpol N
    DTD 2:  1920x1080   48.003688 Hz  16:9     53.572 kHz    111.430000 MHz (309 mm x 174 mm)
                 Hfront   48 Hsync  32 Hback   80 Hpol N
                 Vfront   23 Vsync   5 Vback    8 Vpol N
    Display Range Limits:
      Monitor ranges (Bare Limits): 48-60 Hz V, 67-67 kHz H, max dotclock 140 MHz
    Display Product Name: 'TL140VDXP03-2'
Checksum: 0x21

----------------

Block 1, Unknown EDID Extension Block 0x00:
  00 ff ff ff ff ff ff 00 51 b8 98 13 00 00 00 00 '........Q.......'
  28 1f 01 04 a5 1f 11 78 03 ee 95 a3 54 4c 99 26 '(......x....TL.&'
  0f 50 54 00 00 00 01 01 01 01 01 01 01 01 01 01 '.PT.............'
  01 01 01 01 01 01 68 36 80 a0 70 38 24 40 30 20 '......h6..p8$@0 '
  75 04 35 ae 10 00 00 18 87 2b 80 a0 70 38 24 40 'u.5......+..p8$@'
  30 20 75 04 35 ae 10 00 00 18 00 00 00 fd 00 30 '0 u.5..........0'
  3c 43 43 0e 01 0a 20 20 20 20 20 20 00 00 00 fc '<CC...      ....'
  00 54 4c 31 34 30 56 44 58 50 30 33 2d 32 00 21 '.TL140VDXP03-2.!'
Checksum: 0x21

----------------

Warnings:

EDID:
  Base EDID: Some timings are out of range of the Monitor Ranges:
    Horizontal Freq: 53.572 - 66.961 kHz (Monitor: 67.000 - 67.000 kHz)

Failures:

Block 1, Base EDID:
  Unknown Extension Block.
EDID:
  Base EDID: EDID specified 0 extension block(s), but found 1 extension block(s).

EDID conformity: FAIL
