edid-decode (hex):

00 ff ff ff ff ff ff 00 51 b8 98 13 00 00 00 00
2a 1f 01 04 a5 1f 11 78 03 9b 52 a9 51 3c 93 23
1a 52 5b 00 00 00 01 01 01 01 01 01 01 01 01 01
01 01 01 01 01 01 68 36 80 a0 70 38 24 40 30 20
75 04 35 ae 10 00 00 18 00 00 00 10 00 38 24 40
30 20 75 04 35 ae 10 00 00 18 00 00 00 fc 00 54
4c 31 34 30 56 44 58 50 30 34 2d 30 00 00 00 fc
00 05 21 e0 0a 3c c8 04 0a 1f e1 00 00 00 00 94

----------------

Block 0, Base EDID:
  EDID Structure Version & Revision: 1.4
  Vendor & Product Identification:
    Manufacturer: TMX
    Model: 5016
    Made in: week 42 of 2021
  Basic Display Parameters & Features:
    Digital display
    Bits per primary color channel: 8
    DisplayPort interface
    Maximum image size: 31 cm x 17 cm
    Gamma: 2.20
    Supported color formats: RGB 4:4:4
    First detailed timing includes the native pixel format and preferred refresh rate
    Display is continuous frequency
  Color Characteristics:
    Red  : 0.6621, 0.3173
    Green: 0.2363, 0.5771
    Blue : 0.1376, 0.1025
    White: 0.3203, 0.3574
  Established Timings I & II: none
  Standard Timings: none
  Detailed Timing Descriptors:
    DTD 1:  1920x1080   60.001379 Hz  16:9     66.962 kHz    139.280000 MHz (309 mm x 174 mm)
                 Hfront   48 Hsync  32 Hback   80 Hpol N
                 Vfront   23 Vsync   5 Vback    8 Vpol N
    Dummy Descriptor:
    Display Product Name: 'TL140VDXP04-0'
    Display Product Name: ''
Checksum: 0x94

----------------

Failures:

Block 0, Base EDID:
  Dummy Descriptor: Dummy block filled with garbage.
  Display Product Name: Non-printable character.
  Missing Display Range Limits Descriptor.

EDID conformity: FAIL
