edid-decode (hex):

00 ff ff ff ff ff ff 00 4d 10 76 14 00 00 00 00
31 1a 01 04 a5 23 13 78 0e b3 7d a7 54 34 b9 25
0b 4c 53 00 00 00 01 01 01 01 01 01 01 01 01 01
01 01 01 01 01 01 4d d0 00 a0 f0 70 3e 80 30 20
35 00 5a c2 10 00 00 18 00 00 00 00 00 00 00 00
00 00 00 00 00 00 00 00 00 00 00 00 00 fe 00 59
32 58 4e 44 80 4c 51 31 35 36 44 31 00 00 00 00
00 02 41 03 28 00 12 00 00 0b 01 0a 20 20 00 5c

00 ff ff ff ff ff ff 00 4d 10 76 14 00 00 00 00
31 1a 01 04 a5 23 13 78 0e b3 7d a7 54 34 b9 25
0b 4c 53 00 00 00 01 01 01 01 01 01 01 01 01 01
01 01 01 01 01 01 4d d0 00 a0 f0 70 3e 80 30 20
35 00 5a c2 10 00 00 18 00 00 00 00 00 00 00 00
00 00 00 00 00 00 00 00 00 00 00 00 00 fe 00 59
32 58 4e 44 80 4c 51 31 35 36 44 31 00 00 00 00
00 02 41 03 28 00 12 00 00 0b 01 0a 20 20 00 5c

----------------

Block 0, Base EDID:
  EDID Structure Version & Revision: 1.4
  Vendor & Product Identification:
    Manufacturer: SHP
    Model: 5238
    Made in: week 49 of 2016
  Basic Display Parameters & Features:
    Digital display
    Bits per primary color channel: 8
    DisplayPort interface
    Maximum image size: 35 cm x 19 cm
    Gamma: 2.20
    Supported color formats: RGB 4:4:4, YCrCb 4:4:4
    Default (sRGB) color space is primary color space
    First detailed timing includes the native pixel format and preferred refresh rate
  Color Characteristics:
    Red  : 0.6542, 0.3310
    Green: 0.2031, 0.7255
    Blue : 0.1455, 0.0458
    White: 0.2998, 0.3251
  Established Timings I & II: none
  Standard Timings: none
  Detailed Timing Descriptors:
    DTD 1:  3840x2160   59.996625 Hz  16:9    133.312 kHz    533.250000 MHz (346 mm x 194 mm)
                 Hfront   48 Hsync  32 Hback   80 Hpol N
                 Vfront    3 Vsync   5 Vback   54 Vpol N
    Empty Descriptor
    Alphanumeric Data String: 'Y2XND'
    Manufacturer-Specified Display Descriptor (0x00): 00 00 00 02 41 03 28 00 12 00 00 0b 01 0a 20 20 '....A.(.......  '
Checksum: 0x5c

----------------

Block 1, Unknown EDID Extension Block 0x00:
  00 ff ff ff ff ff ff 00 4d 10 76 14 00 00 00 00 '........M.v.....'
  31 1a 01 04 a5 23 13 78 0e b3 7d a7 54 34 b9 25 '1....#.x..}.T4.%'
  0b 4c 53 00 00 00 01 01 01 01 01 01 01 01 01 01 '.LS.............'
  01 01 01 01 01 01 4d d0 00 a0 f0 70 3e 80 30 20 '......M....p>.0 '
  35 00 5a c2 10 00 00 18 00 00 00 00 00 00 00 00 '5.Z.............'
  00 00 00 00 00 00 00 00 00 00 00 00 00 fe 00 59 '...............Y'
  32 58 4e 44 80 4c 51 31 35 36 44 31 00 00 00 00 '2XND.LQ156D1....'
  00 02 41 03 28 00 12 00 00 0b 01 0a 20 20 00 5c '..A.(.......  .\'
Checksum: 0x5c

----------------

Warnings:

Block 0, Base EDID:
  Missing Display Product Name.

Failures:

Block 0, Base EDID:
  Basic Display Parameters & Features: sRGB is signaled, but the chromaticities do not match.
  Empty Descriptor: Use Dummy Descriptor instead of all zeroes.
  Alphanumeric Data String: Non-printable character.
Block 1, Base EDID:
  Unknown Extension Block.
EDID:
  Base EDID: EDID specified 0 extension block(s), but found 1 extension block(s).

EDID conformity: FAIL
