edid-decode (hex):

00 ff ff ff ff ff ff 00 25 cc 0a 00 00 00 00 00
00 13 01 03 90 22 13 78 0a c8 85 9e 57 54 9b 26
12 50 54 00 00 00 01 01 01 01 01 01 01 01 01 01
01 01 01 01 01 01 36 1a 56 44 50 00 0d 30 11 0c
32 00 58 c2 10 00 00 1a 36 1a 56 44 50 00 0d 30
11 0c 32 00 58 c2 10 00 00 1a 00 00 00 fe 00 31
47 35 44 33 81 31 35 36 47 57 30 31 00 00 00 00
00 00 00 00 00 00 00 00 00 01 01 0a 20 20 00 f2

----------------

Block 0, Base EDID:
  EDID Structure Version & Revision: 1.3
  Vendor & Product Identification:
    Manufacturer: INL
    Model: 10
    Made in: 2009
  Basic Display Parameters & Features:
    Digital display
    Maximum image size: 34 cm x 19 cm
    Gamma: 2.20
    RGB color display
    First detailed timing is preferred timing
  Color Characteristics:
    Red  : 0.6201, 0.3398
    Green: 0.3300, 0.6054
    Blue : 0.1503, 0.0703
    White: 0.3134, 0.3291
  Established Timings I & II: none
  Standard Timings: none
  Detailed Timing Descriptors:
    DTD 1:  1366x768    59.913 Hz 683:384  46.792 kHz  67.100 MHz (344 mm x 194 mm)
                 Hfront   17 Hsync  12 Hback  39 Hpol P
                 Vfront    3 Vsync   2 Vback   8 Vpol N
    DTD 2:  1366x768    59.913 Hz 683:384  46.792 kHz  67.100 MHz (344 mm x 194 mm)
                 Hfront   17 Hsync  12 Hback  39 Hpol P
                 Vfront    3 Vsync   2 Vback   8 Vpol N
    Alphanumeric Data String: '1G5D3'
    Manufacturer-Specified Display Descriptor (0x00): 00 00 00 00 00 00 00 00 00 00 00 01 01 0a 20 20 '..............  '
Checksum: 0xf2

----------------

Failures:

Block 0, Base EDID:
  Basic Display Parameters & Features: Digital Video Interface Standard set to reserved value 0x10.
  Alphanumeric Data String: Non-printable character.
  Missing Display Product Name.
  Missing Display Range Limits Descriptor.

EDID conformity: FAIL
