
EDID (hex):
00ffffffffffff0025cc0a0000000000
00130103902213780ac8859e57549b26
12505400000001010101010101010101
010101010101361a564450000d30110c
320058c21000001a361a564450000d30
110c320058c21000001a000000fe0031
47354433813135364757303100000000
00000000000000000001010a202000f2

Extracted contents:
header:          00 ff ff ff ff ff ff 00
serial number:   25 cc 0a 00 00 00 00 00 00 13
version:         01 03
basic params:    90 22 13 78 0a
chroma info:     c8 85 9e 57 54 9b 26 12 50 54
established:     00 00 00
standard:        01 01 01 01 01 01 01 01 01 01 01 01 01 01 01 01
descriptor 1:    36 1a 56 44 50 00 0d 30 11 0c 32 00 58 c2 10 00 00 1a
descriptor 2:    36 1a 56 44 50 00 0d 30 11 0c 32 00 58 c2 10 00 00 1a
descriptor 3:    00 00 00 fe 00 31 47 35 44 33 81 31 35 36 47 57 30 31
descriptor 4:    00 00 00 00 00 00 00 00 00 00 00 00 00 01 01 0a 20 20
extensions:      00
checksum:        f2

EDID version: 1.3
Manufacturer: INL Model a Serial Number --
Made in year 2009
Digital display
Maximum image size: 34 cm x 19 cm
Gamma: 2.20
RGB color display
First detailed timing is preferred timing
Display x,y Chromaticity:
  Red:   0.6201, 0.3398
  Green: 0.3300, 0.6054
  Blue:  0.1503, 0.0703
  White: 0.3134, 0.3291
Established timings supported:
Standard timings supported:
Detailed mode: Clock 67.100 MHz, 344 mm x 194 mm
               1366 1383 1395 1434 hborder 0
                768  771  773  781 vborder 0
               +hsync -vsync 
               VertFreq: 59 Hz, HorFreq: 46792 Hz
Detailed mode: Clock 67.100 MHz, 344 mm x 194 mm
               1366 1383 1395 1434 hborder 0
                768  771  773  781 vborder 0
               +hsync -vsync 
               VertFreq: 59 Hz, HorFreq: 46792 Hz
ASCII string: 1G5D3
Manufacturer-specified data, tag 0
Checksum: 0xf2 (valid)
EDID block does NOT conform to EDID 1.3!
	Digital display field contains garbage: 10
	Missing name descriptor
	Missing monitor ranges
	Detailed block string not properly terminated
