
EDID (hex):
00ffffffffffff0005b4380001010101
020d0103801e17782a80f8a355479924
0d4d50bfee00614c310a010101010101
0101010181c064190040410026301888
360030e410000018000000fd00324b1e
3e08000a202020202020000000ff0032
33363233303230303037340a000000fc
004c322d313530542b202020200a00ef

Extracted contents:
header:          00 ff ff ff ff ff ff 00
serial number:   05 b4 38 00 01 01 01 01 02 0d
version:         01 03
basic params:    80 1e 17 78 2a
chroma info:     80 f8 a3 55 47 99 24 0d 4d 50
established:     bf ee 00
standard:        61 4c 31 0a 01 01 01 01 01 01 01 01 01 01 81 c0
descriptor 1:    64 19 00 40 41 00 26 30 18 88 36 00 30 e4 10 00 00 18
descriptor 2:    00 00 00 fd 00 32 4b 1e 3e 08 00 0a 20 20 20 20 20 20
descriptor 3:    00 00 00 ff 00 32 33 36 32 33 30 32 30 30 30 37 34 0a
descriptor 4:    00 00 00 fc 00 4c 32 2d 31 35 30 54 2b 20 20 20 20 0a
extensions:      00
checksum:        ef

EDID version: 1.3
Manufacturer: AMT Model 38 Serial Number --
Digital display
Maximum image size: 30 cm x 23 cm
Gamma: 2.20
DPMS levels: Off
RGB color display
First detailed timing is preferred timing
Display x,y Chromaticity:
  Red:   0.6386, 0.3320
  Green: 0.2773, 0.5976
  Blue:  0.1435, 0.0537
  White: 0.3027, 0.3125
Established timings supported:
  720x400@70Hz 9:5 HorFreq: 31469 Hz Clock: 28.320 MHz
  640x480@60Hz 4:3 HorFreq: 31469 Hz Clock: 25.175 MHz
  640x480@67Hz 4:3 HorFreq: 35000 Hz Clock: 30.240 MHz
  640x480@72Hz 4:3 HorFreq: 37900 Hz Clock: 31.500 MHz
  640x480@75Hz 4:3 HorFreq: 37500 Hz Clock: 31.500 MHz
  800x600@56Hz 4:3 HorFreq: 35200 Hz Clock: 36.000 MHz
  800x600@60Hz 4:3 HorFreq: 37900 Hz Clock: 40.000 MHz
  800x600@72Hz 4:3 HorFreq: 48100 Hz Clock: 50.000 MHz
  800x600@75Hz 4:3 HorFreq: 46900 Hz Clock: 49.500 MHz
  832x624@75Hz 4:3 HorFreq: 49726 Hz Clock: 57.284 MHz
  1024x768@60Hz 4:3 HorFreq: 48400 Hz Clock: 65.000 MHz
  1024x768@70Hz 4:3 HorFreq: 56500 Hz Clock: 75.000 MHz
  1024x768@75Hz 4:3 HorFreq: 60000 Hz Clock: 78.750 MHz
Standard timings supported:
  1024x768@72Hz 4:3
  640x400@70Hz 16:10
  1280x720@60Hz 16:9
Detailed mode: Clock 65.000 MHz, 304 mm x 228 mm
               1024 1048 1184 1344 hborder 0
                768  771  777  806 vborder 0
               -hsync -vsync 
               VertFreq: 60 Hz, HorFreq: 48363 Hz
Monitor ranges (GTF): 50-75Hz V, 30-62kHz H, max dotclock 80MHz
Serial number: --
Monitor name: L2-150T+    
Checksum: 0xef (valid)
EDID block does not conform at all!
	Bad year of manufacture
