
EDID (hex):
00ffffffffffff004d10b314a0230f00
051d0104a51d137807de50a3544c9926
0f505400000001010101010101010101
0101010101019957d0a080e02b503020
3a001dbe10000018000000fd00143c70
701c0100000000000000000000100000
000000000000000000000000000000fc
004c5131333550314a5835310a20009b

Extracted contents:
header:          00 ff ff ff ff ff ff 00
serial number:   4d 10 b3 14 a0 23 0f 00 05 1d
version:         01 04
basic params:    a5 1d 13 78 07
chroma info:     de 50 a3 54 4c 99 26 0f 50 54
established:     00 00 00
standard:        01 01 01 01 01 01 01 01 01 01 01 01 01 01 01 01
descriptor 1:    99 57 d0 a0 80 e0 2b 50 30 20 3a 00 1d be 10 00 00 18
descriptor 2:    00 00 00 fd 00 14 3c 70 70 1c 01 00 00 00 00 00 00 00
descriptor 3:    00 00 00 10 00 00 00 00 00 00 00 00 00 00 00 00 00 00
descriptor 4:    00 00 00 fc 00 4c 51 31 33 35 50 31 4a 58 35 31 0a 20
extensions:      00
checksum:        9b

EDID version: 1.4
Manufacturer: SHP Model 14b3 Serial Number --
Made in week 5 of 2019
Digital display
8 bits per primary color channel
DisplayPort interface
Maximum image size: 29 cm x 19 cm
Gamma: 2.20
Supported color formats: RGB 4:4:4
Default (sRGB) color space is primary color space
First detailed timing includes the native pixel format and preferred refresh rate
Display is continuous frequency
Display x,y Chromaticity:
  Red:   0.6396, 0.3291
  Green: 0.2998, 0.5996
  Blue:  0.1494, 0.0595
  White: 0.3125, 0.3281
Established timings supported:
Standard timings supported:
Detailed mode: Clock 224.250 MHz, 285 mm x 190 mm
               2256 2304 2336 2416 hborder 0
               1504 1507 1517 1547 vborder 0
               -hsync -vsync 
               VertFreq: 59 Hz, HorFreq: 92818 Hz
Monitor ranges (bare limits): 20-60Hz V, 112-112kHz H, max dotclock 280MHz
Dummy block
Monitor name: LQ135P1JX51
Checksum: 0x9b (valid)
EDID block does NOT conform to EDID 1.4!
	sRGB is signaled, but the chromaticities do not match
Warning: One or more of the timings is out of range of the Monitor Ranges:
  Vertical Freq: 59 - 59 Hz
  Horizontal Freq: 92818 - 92818 Hz
  Maximum Clock: 224.250 MHz
