
EDID (hex):
00ffffffffffff0006105e9c00000000
09100103801d13780a65219f5855872a
29505400000001010101010101010101
010101010101bc1b00a0502017303020
36001eb2100000180000000100061020
00000000000000000a20000000fe004e
31333349312d4c30310a2020000000fc
00436f6c6f72204c43440a2020200061

Extracted contents:
header:          00 ff ff ff ff ff ff 00
serial number:   06 10 5e 9c 00 00 00 00 09 10
version:         01 03
basic params:    80 1d 13 78 0a
chroma info:     65 21 9f 58 55 87 2a 29 50 54
established:     00 00 00
standard:        01 01 01 01 01 01 01 01 01 01 01 01 01 01 01 01
descriptor 1:    bc 1b 00 a0 50 20 17 30 30 20 36 00 1e b2 10 00 00 18
descriptor 2:    00 00 00 01 00 06 10 20 00 00 00 00 00 00 00 00 0a 20
descriptor 3:    00 00 00 fe 00 4e 31 33 33 49 31 2d 4c 30 31 0a 20 20
descriptor 4:    00 00 00 fc 00 43 6f 6c 6f 72 20 4c 43 44 0a 20 20 20
extensions:      00
checksum:        61

EDID version: 1.3
Manufacturer: APP Model 9c5e Serial Number --
Made in week 9 of 2006
Digital display
Maximum image size: 29 cm x 19 cm
Gamma: 2.20
RGB color display
First detailed timing is preferred timing
Display x,y Chromaticity:
  Red:   0.6220, 0.3457
  Green: 0.3330, 0.5283
  Blue:  0.1640, 0.1621
  White: 0.3125, 0.3291
Established timings supported:
Standard timings supported:
Detailed mode: Clock 71.000 MHz, 286 mm x 178 mm
               1280 1328 1360 1440 hborder 0
                800  803  809  823 vborder 0
               -hsync -vsync 
               VertFreq: 59 Hz, HorFreq: 49305 Hz
Manufacturer-specified data, tag 1
ASCII string: N133I1-L01
Monitor name: Color LCD
Checksum: 0x61 (valid)
EDID block does NOT conform to EDID 1.3!
	Missing monitor ranges
