
EDID (hex):
00ffffffffffff00410cf30811540000
021a0103805022782aca95a6554ea126
0f5054bd4b00d1c081808140950f9500
b30081c00101dea370e0d4a035500070
3a501e4f3100001cef5170e0d4a03550
00703a501e4f3100001c000000fc0050
484c2042444d333439300a20000000fd
0017501e632d000a2020202020200194

Extracted contents:
header:          00 ff ff ff ff ff ff 00
serial number:   41 0c f3 08 11 54 00 00 02 1a
version:         01 03
basic params:    80 50 22 78 2a
chroma info:     ca 95 a6 55 4e a1 26 0f 50 54
established:     bd 4b 00
standard:        d1 c0 81 80 81 40 95 0f 95 00 b3 00 81 c0 01 01
descriptor 1:    de a3 70 e0 d4 a0 35 50 00 70 3a 50 1e 4f 31 00 00 1c
descriptor 2:    ef 51 70 e0 d4 a0 35 50 00 70 3a 50 1e 4f 31 00 00 1c
descriptor 3:    00 00 00 fc 00 50 48 4c 20 42 44 4d 33 34 39 30 0a 20
descriptor 4:    00 00 00 fd 00 17 50 1e 63 2d 00 0a 20 20 20 20 20 20
extensions:      01
checksum:        94

EDID version: 1.3
Manufacturer: PHL Model 8f3 Serial Number --
Made in week 2 of 2016
Digital display
Maximum image size: 80 cm x 34 cm
Gamma: 2.20
DPMS levels: Off
RGB color display
First detailed timing is preferred timing
Display x,y Chromaticity:
  Red:   0.6513, 0.3320
  Green: 0.3066, 0.6308
  Blue:  0.1503, 0.0595
  White: 0.3134, 0.3291
Established timings supported:
  720x400@70Hz 9:5 HorFreq: 31469 Hz Clock: 28.320 MHz
  640x480@60Hz 4:3 HorFreq: 31469 Hz Clock: 25.175 MHz
  640x480@67Hz 4:3 HorFreq: 35000 Hz Clock: 30.240 MHz
  640x480@72Hz 4:3 HorFreq: 37900 Hz Clock: 31.500 MHz
  640x480@75Hz 4:3 HorFreq: 37500 Hz Clock: 31.500 MHz
  800x600@60Hz 4:3 HorFreq: 37900 Hz Clock: 40.000 MHz
  800x600@75Hz 4:3 HorFreq: 46900 Hz Clock: 49.500 MHz
  1024x768@60Hz 4:3 HorFreq: 48400 Hz Clock: 65.000 MHz
  1024x768@75Hz 4:3 HorFreq: 60000 Hz Clock: 78.750 MHz
  1280x1024@75Hz 5:4 HorFreq: 80000 Hz Clock: 135.000 MHz
Standard timings supported:
  1920x1080@60Hz 16:9
  1280x1024@60Hz 5:4 HorFreq: 64000 Hz Clock: 108.000 MHz
  1280x960@60Hz 4:3 HorFreq: 60000 Hz Clock: 108.000 MHz
  1440x900@75Hz 16:10 HorFreq: 82300 Hz Clock: 156.000 MHz
  1440x900@60Hz 16:10 HorFreq: 55500 Hz Clock: 88.750 MHz
  1680x1050@60Hz 16:10 HorFreq: 64700 Hz Clock: 119.000 MHz
  1280x720@60Hz 16:9
Detailed mode: Clock 419.500 MHz, 798 mm x 335 mm
               3440 3696 4064 4688 hborder 0
               1440 1443 1453 1493 vborder 0
               -hsync +vsync 
               VertFreq: 59 Hz, HorFreq: 89483 Hz
Detailed mode: Clock 209.750 MHz, 798 mm x 335 mm
               3440 3696 4064 4688 hborder 0
               1440 1443 1453 1493 vborder 0
               -hsync +vsync 
               VertFreq: 29 Hz, HorFreq: 44741 Hz
Monitor name: PHL BDM3490
Monitor ranges (GTF): 23-80Hz V, 30-99kHz H, max dotclock 450MHz
Has 1 extension blocks
Checksum: 0x94 (valid)
