
EDID (hex):
00ffffffffffff000859320001000000
19170103004627780ad0dda953499d23
11474aaf4e0001010101010101010101
010101010101662150b051001b300070
2644e4101100001ef12700a051002530
5080370020462100001a000000fc0044
582d3332443230534e413134000000fd
00304c0f440f000a202020202020000c

Extracted contents:
header:          00 ff ff ff ff ff ff 00
serial number:   08 59 32 00 01 00 00 00 19 17
version:         01 03
basic params:    00 46 27 78 0a
chroma info:     d0 dd a9 53 49 9d 23 11 47 4a
established:     af 4e 00
standard:        01 01 01 01 01 01 01 01 01 01 01 01 01 01 01 01
descriptor 1:    66 21 50 b0 51 00 1b 30 00 70 26 44 e4 10 11 00 00 1e
descriptor 2:    f1 27 00 a0 51 00 25 30 50 80 37 00 20 46 21 00 00 1a
descriptor 3:    00 00 00 fc 00 44 58 2d 33 32 44 32 30 53 4e 41 31 34
descriptor 4:    00 00 00 fd 00 30 4c 0f 44 0f 00 0a 20 20 20 20 20 20
extensions:      00
checksum:        0c

EDID version: 1.3
Manufacturer: BBY Model 32 Serial Number --
Made in week 25 of 2013
Analog display, Input voltage level: 0.7/0.3 V
Sync: 
Maximum image size: 70 cm x 39 cm
Gamma: 2.20
RGB color display
First detailed timing is preferred timing
Display x,y Chromaticity:
  Red:   0.6630, 0.3251
  Green: 0.2851, 0.6132
  Blue:  0.1396, 0.0673
  White: 0.2802, 0.2900
Established timings supported:
  720x400@70Hz 9:5 HorFreq: 31469 Hz Clock: 28.320 MHz
  640x480@60Hz 4:3 HorFreq: 31469 Hz Clock: 25.175 MHz
  640x480@72Hz 4:3 HorFreq: 37900 Hz Clock: 31.500 MHz
  640x480@75Hz 4:3 HorFreq: 37500 Hz Clock: 31.500 MHz
  800x600@56Hz 4:3 HorFreq: 35200 Hz Clock: 36.000 MHz
  800x600@60Hz 4:3 HorFreq: 37900 Hz Clock: 40.000 MHz
  800x600@75Hz 4:3 HorFreq: 46900 Hz Clock: 49.500 MHz
  1024x768@60Hz 4:3 HorFreq: 48400 Hz Clock: 65.000 MHz
  1024x768@70Hz 4:3 HorFreq: 56500 Hz Clock: 75.000 MHz
  1024x768@75Hz 4:3 HorFreq: 60000 Hz Clock: 78.750 MHz
Standard timings supported:
Detailed mode: Clock 85.500 MHz, 484 mm x 272 mm
               1360 1616 1728 1792 hborder 0
                768  786  792  795 vborder 0
               +hsync +vsync 
               VertFreq: 60 Hz, HorFreq: 47712 Hz
Detailed mode: Clock 102.250 MHz, 544 mm x 326 mm
               1280 1360 1488 1696 hborder 0
                768  771  778  805 vborder 0
               +hsync -vsync 
               VertFreq: 74 Hz, HorFreq: 60288 Hz
Monitor ranges (GTF): 48-76Hz V, 15-68kHz H, max dotclock 150MHz
Checksum: 0xc (valid)
EDID block does NOT conform to EDID 1.3!
	Name descriptor not terminated with a newline
