
EDID (hex):
00ffffffffffff0004729a07f8670013
1e1f0103613c217809ee91a3544c9926
0f5054a56b8081c0a9c0d1c095008140
81809040a940f14480c870381e403020
350055502100001e000000fd00304b1e
5515000a202020202020000000fc004b
4132373220410a2020202020000000ff
00313133303036374638335730310040

Extracted contents:
header:          00 ff ff ff ff ff ff 00
serial number:   04 72 9a 07 f8 67 00 13 1e 1f
version:         01 03
basic params:    61 3c 21 78 09
chroma info:     ee 91 a3 54 4c 99 26 0f 50 54
established:     a5 6b 80
standard:        81 c0 a9 c0 d1 c0 95 00 81 40 81 80 90 40 a9 40
descriptor 1:    f1 44 80 c8 70 38 1e 40 30 20 35 00 55 50 21 00 00 1e
descriptor 2:    00 00 00 fd 00 30 4b 1e 55 15 00 0a 20 20 20 20 20 20
descriptor 3:    00 00 00 fc 00 4b 41 32 37 32 20 41 0a 20 20 20 20 20
descriptor 4:    00 00 00 ff 00 31 31 33 30 30 36 37 46 38 33 57 30 31
extensions:      00
checksum:        40

EDID version: 1.3
Manufacturer: ACR Model 79a Serial Number --
Made in week 30 of 2021
Analog display, Input voltage level: 0.7/0.7 V
Sync: Serration 
Maximum image size: 60 cm x 33 cm
Gamma: 2.20
RGB color display
Supports GTF timings within operating range
Display x,y Chromaticity:
  Red:   0.6396, 0.3300
  Green: 0.2998, 0.5996
  Blue:  0.1503, 0.0595
  White: 0.3125, 0.3291
Established timings supported:
  720x400@70Hz 9:5 HorFreq: 31469 Hz Clock: 28.320 MHz
  640x480@60Hz 4:3 HorFreq: 31469 Hz Clock: 25.175 MHz
  640x480@75Hz 4:3 HorFreq: 37500 Hz Clock: 31.500 MHz
  800x600@60Hz 4:3 HorFreq: 37900 Hz Clock: 40.000 MHz
  800x600@75Hz 4:3 HorFreq: 46900 Hz Clock: 49.500 MHz
  832x624@75Hz 4:3 HorFreq: 49726 Hz Clock: 57.284 MHz
  1024x768@60Hz 4:3 HorFreq: 48400 Hz Clock: 65.000 MHz
  1024x768@75Hz 4:3 HorFreq: 60000 Hz Clock: 78.750 MHz
  1280x1024@75Hz 5:4 HorFreq: 80000 Hz Clock: 135.000 MHz
  1152x870@75Hz 192:145 HorFreq: 67500 Hz Clock: 108.000 MHz
Standard timings supported:
  1280x720@60Hz 16:9
  1600x900@60Hz 16:9
  1920x1080@60Hz 16:9
  1440x900@60Hz 16:10 HorFreq: 55500 Hz Clock: 88.750 MHz
  1280x960@60Hz 4:3 HorFreq: 60000 Hz Clock: 108.000 MHz
  1280x1024@60Hz 5:4 HorFreq: 64000 Hz Clock: 108.000 MHz
  1400x1050@60Hz 4:3 HorFreq: 64700 Hz Clock: 101.000 MHz
  1600x1200@60Hz 4:3 HorFreq: 75000 Hz Clock: 162.000 MHz
Detailed mode: Clock 176.490 MHz, 597 mm x 336 mm
               1920 1968 2000 2120 hborder 0
               1080 1083 1088 1110 vborder 0
               +hsync +vsync 
               VertFreq: 75 Hz, HorFreq: 83250 Hz
Monitor ranges (GTF): 48-75Hz V, 30-85kHz H, max dotclock 210MHz
Monitor name: KA272 A
Serial number: --
Checksum: 0x40 (valid)
EDID block does NOT conform to EDID 1.3!
	Missing preferred timing


