
EDID (hex):
00ffffffffffff0012e58501502d3101
21140103682917782ab371a255489827
155054bfcf006140614f81c081004540
454f01010101662150b051001b304070
360029010100001e000000ff00300a0a
0a0a0a0a0a0a0a0a0a0a000000fd0038
4b1e3c08000a202020202020000000fc
0031382e35206d6f6e69746f720a001f

Extracted contents:
header:          00 ff ff ff ff ff ff 00
serial number:   12 e5 85 01 50 2d 31 01 21 14
version:         01 03
basic params:    68 29 17 78 2a
chroma info:     b3 71 a2 55 48 98 27 15 50 54
established:     bf cf 00
standard:        61 40 61 4f 81 c0 81 00 45 40 45 4f 01 01 01 01
descriptor 1:    66 21 50 b0 51 00 1b 30 40 70 36 00 29 01 01 00 00 1e
descriptor 2:    00 00 00 ff 00 30 0a 0a 0a 0a 0a 0a 0a 0a 0a 0a 0a 0a
descriptor 3:    00 00 00 fd 00 38 4b 1e 3c 08 00 0a 20 20 20 20 20 20
descriptor 4:    00 00 00 fc 00 31 38 2e 35 20 6d 6f 6e 69 74 6f 72 0a
extensions:      00
checksum:        1f

EDID version: 1.3
Manufacturer: DWE Model 185 Serial Number --
Made in week 33 of 2010
Analog display, Input voltage level: 0.7/0.7 V
Sync: Separate 
Maximum image size: 41 cm x 23 cm
Gamma: 2.20
DPMS levels: Off
RGB color display
First detailed timing is preferred timing
Display x,y Chromaticity:
  Red:   0.6347, 0.3349
  Green: 0.2812, 0.5966
  Blue:  0.1533, 0.0849
  White: 0.3125, 0.3291
Established timings supported:
  720x400@70Hz 9:5 HorFreq: 31469 Hz Clock: 28.320 MHz
  640x480@60Hz 4:3 HorFreq: 31469 Hz Clock: 25.175 MHz
  640x480@67Hz 4:3 HorFreq: 35000 Hz Clock: 30.240 MHz
  640x480@72Hz 4:3 HorFreq: 37900 Hz Clock: 31.500 MHz
  640x480@75Hz 4:3 HorFreq: 37500 Hz Clock: 31.500 MHz
  800x600@56Hz 4:3 HorFreq: 35200 Hz Clock: 36.000 MHz
  800x600@60Hz 4:3 HorFreq: 37900 Hz Clock: 40.000 MHz
  800x600@72Hz 4:3 HorFreq: 48100 Hz Clock: 50.000 MHz
  800x600@75Hz 4:3 HorFreq: 46900 Hz Clock: 49.500 MHz
  1024x768@60Hz 4:3 HorFreq: 48400 Hz Clock: 65.000 MHz
  1024x768@70Hz 4:3 HorFreq: 56500 Hz Clock: 75.000 MHz
  1024x768@75Hz 4:3 HorFreq: 60000 Hz Clock: 78.750 MHz
  1280x1024@75Hz 5:4 HorFreq: 80000 Hz Clock: 135.000 MHz
Standard timings supported:
  1024x768@60Hz 4:3 HorFreq: 48400 Hz Clock: 65.000 MHz
  1024x768@75Hz 4:3 HorFreq: 60000 Hz Clock: 78.750 MHz
  1280x720@60Hz 16:9
  1280x800@60Hz 16:10
  800x600@60Hz 4:3 HorFreq: 37900 Hz Clock: 40.000 MHz
  800x600@75Hz 4:3 HorFreq: 46900 Hz Clock: 49.500 MHz
Detailed mode: Clock 85.500 MHz, 41 mm x 257 mm
               1360 1424 1536 1792 hborder 0
                768  771  777  795 vborder 0
               +hsync +vsync 
               VertFreq: 60 Hz, HorFreq: 47712 Hz
Serial number: --
Monitor ranges (GTF): 56-75Hz V, 30-60kHz H, max dotclock 80MHz
Monitor name: 18.5 monitor
Checksum: 0x1f (valid)
EDID block does NOT conform to EDID 1.3!
	Detailed block string not properly terminated
One or more of the timings is out of range of the Monitor Ranges:
  Vertical Freq: 56 - 75 Hz
  Horizontal Freq: 31469 - 80000 Hz
  Maximum Clock: 135.000 MHz
