edid-decode (hex):

00 ff ff ff ff ff ff 00 22 f0 0e 41 01 01 00 00
01 15 01 03 80 29 17 78 0a 6c d0 a5 55 4b 9a 24
11 50 54 00 00 00 01 01 01 01 01 01 01 01 01 01
01 01 01 01 01 01 b0 1d 56 c2 50 00 26 30 18 8c
23 00 9a e6 10 00 00 18 00 00 00 fe 00 43 43 46
4c 42 4f 45 48 54 31 38 35 57 00 00 00 fc 00 48
50 20 41 6c 6c 20 69 6e 20 4f 6e 65 00 00 00 fe
00 48 54 31 38 35 57 58 31 2d 35 30 31 20 00 cb

----------------

Block 0, Base EDID:
  EDID Structure Version & Revision: 1.3
  Vendor & Product Identification:
    Manufacturer: HWP
    Model: 16654
    Serial Number: ...
    Made in: week 1 of 2011
  Basic Display Parameters & Features:
    Digital display
    Maximum image size: 41 cm x 23 cm
    Gamma: 2.20
    RGB color display
    First detailed timing is the preferred timing
  Color Characteristics:
    Red  : 0.6455, 0.3339
    Green: 0.2958, 0.6015
    Blue : 0.1435, 0.0673
    White: 0.3125, 0.3281
  Established Timings I & II: none
  Standard Timings: none
  Detailed Timing Descriptors:
    DTD 1:  1366x768    60.444105 Hz 683:384   48.718 kHz     76.000000 MHz (410 mm x 230 mm)
                 Hfront   24 Hsync 140 Hback   30 Hpol N
                 Vfront    2 Vsync   3 Vback   33 Vpol N
    Alphanumeric Data String: 'CCFLBOEHT185W'
    Display Product Name: 'HP All in One'
    Alphanumeric Data String: 'HT185WX1-501 '
Checksum: 0xcb

----------------

Failures:

Block 0, Base EDID:
  Alphanumeric Data String: One or more trailing spaces.
  Missing Display Range Limits Descriptor.

EDID conformity: FAIL
