
EDID (hex):
00ffffffffffff0022f00e4101010000
01150103802917780a6cd0a5554b9a24
11505400000001010101010101010101
010101010101b01d56c250002630188c
23009ae610000018000000fe00574c45
444c4731383557483220000000fc0048
5020416c6c20696e204f6e65000000fe
004c4d31383557483220202020200051

Extracted contents:
header:          00 ff ff ff ff ff ff 00
serial number:   22 f0 0e 41 01 01 00 00 01 15
version:         01 03
basic params:    80 29 17 78 0a
chroma info:     6c d0 a5 55 4b 9a 24 11 50 54
established:     00 00 00
standard:        01 01 01 01 01 01 01 01 01 01 01 01 01 01 01 01
descriptor 1:    b0 1d 56 c2 50 00 26 30 18 8c 23 00 9a e6 10 00 00 18
descriptor 2:    00 00 00 fe 00 57 4c 45 44 4c 47 31 38 35 57 48 32 20
descriptor 3:    00 00 00 fc 00 48 50 20 41 6c 6c 20 69 6e 20 4f 6e 65
descriptor 4:    00 00 00 fe 00 4c 4d 31 38 35 57 48 32 20 20 20 20 20
extensions:      00
checksum:        51

EDID version: 1.3
Manufacturer: HWP Model 410e Serial Number --
Made in week 1 of 2011
Digital display
Maximum image size: 41 cm x 23 cm
Gamma: 2.20
RGB color display
First detailed timing is preferred timing
Display x,y Chromaticity:
  Red:   0.6455, 0.3339
  Green: 0.2958, 0.6015
  Blue:  0.1435, 0.0673
  White: 0.3125, 0.3281
Established timings supported:
Standard timings supported:
Detailed mode: Clock 76.000 MHz, 410 mm x 230 mm
               1366 1390 1530 1560 hborder 0
                768  770  773  806 vborder 0
               -hsync -vsync 
               VertFreq: 60 Hz, HorFreq: 48717 Hz
ASCII string: WLEDLG185WH2 
ASCII string: LM185WH2     
Checksum: 0x51 (valid)
EDID block does NOT conform to EDID 1.3!
	Name descriptor not terminated with a newline
	Missing monitor ranges
