edid-decode (hex):

00 ff ff ff ff ff ff 00 0d ae 42 12 00 00 00 00
32 19 01 04 a5 1c 10 78 02 5d 45 96 58 52 98 27
26 50 54 00 00 00 01 01 01 01 01 01 01 01 01 01
01 01 01 01 01 01 36 36 80 a0 70 38 20 40 2e 1e
24 00 14 9b 10 00 00 1a 24 24 80 a0 70 38 20 40
2e 1e 24 00 14 9b 10 00 00 1a 00 00 00 00 00 00
00 00 00 00 00 00 00 00 00 00 00 00 00 00 00 02
00 0c 33 ff 0f 3c 96 14 08 15 96 00 00 00 00 63

----------------

Block 0, Base EDID:
  EDID Structure Version & Revision: 1.4
  Vendor & Product Identification:
    Manufacturer: CMN
    Model: 4674
    Made in: week 50 of 2015
  Basic Display Parameters & Features:
    Digital display
    Bits per primary color channel: 8
    DisplayPort interface
    Maximum image size: 28 cm x 16 cm
    Gamma: 2.20
    Supported color formats: RGB 4:4:4
    First detailed timing includes the native pixel format and preferred refresh rate
  Color Characteristics:
    Red  : 0.5869, 0.3447
    Green: 0.3232, 0.5947
    Blue : 0.1533, 0.1484
    White: 0.3134, 0.3291
  Established Timings I & II: none
  Standard Timings: none
  Detailed Timing Descriptors:
    DTD 1:  1920x1080   60.001 Hz  16:9    66.721 kHz 138.780 MHz (276 mm x 155 mm)
                 Hfront   46 Hsync  30 Hback  84 Hpol P
                 Vfront    2 Vsync   4 Vback  26 Vpol N
    DTD 2:  1920x1080   40.001 Hz  16:9    44.481 kHz  92.520 MHz (276 mm x 155 mm)
                 Hfront   46 Hsync  30 Hback  84 Hpol P
                 Vfront    2 Vsync   4 Vback  26 Vpol N
    Empty Descriptor
    Manufacturer-Specified Display Descriptor (0x02): 00 02 00 0c 33 ff 0f 3c 96 14 08 15 96 00 00 00 '....3..<........'
Checksum: 0x63

----------------

Failures:

Block 0, Base EDID:
  Empty Descriptor: Use Dummy Descriptor instead of all zeroes.
  Missing Display Product Name.

EDID conformity: FAIL
