edid-decode (hex):

00 ff ff ff ff ff ff 00 26 cf 1c 06 00 00 00 00
00 1b 01 04 a5 22 13 78 0a 1d 39 a7 50 47 97 27
13 4f 54 00 00 00 01 01 01 01 01 01 01 01 01 01
01 01 01 01 01 01 70 6c 80 a0 70 38 20 40 18 30
3c 00 58 c2 10 00 00 19 00 00 00 fe 00 4d 31 35
36 4e 56 46 34 20 52 30 20 0a 00 00 00 03 00 04
35 ff 05 3c 90 29 20 44 90 00 00 00 00 00 00 03
00 06 1a ff 0f 3c 24 28 10 44 24 01 01 00 00 63

----------------

Block 0, Base EDID:
  EDID Structure Version & Revision: 1.4
  Vendor & Product Identification:
    Manufacturer: IVO
    Model: 1564
    Made in: 2017
  Basic Display Parameters & Features:
    Digital display
    Bits per primary color channel: 8
    DisplayPort interface
    Maximum image size: 34 cm x 19 cm
    Gamma: 2.20
    Supported color formats: RGB 4:4:4, YCrCb 4:4:4
    First detailed timing includes the native pixel format and preferred refresh rate
  Color Characteristics:
    Red  : 0.6523, 0.3134
    Green: 0.2802, 0.5908
    Blue : 0.1523, 0.0771
    White: 0.3105, 0.3291
  Established Timings I & II: none
  Standard Timings: none
  Detailed Timing Descriptors:
    DTD 1:  1920x1080  120.019 Hz  16:9   133.462 kHz 277.600 MHz (344 mm x 194 mm)
                 Hfront   24 Hsync  48 Hback  88 Hpol N
                 Vfront    3 Vsync  12 Vback  17 Vpol N
    Alphanumeric Data String: 'M156NVF4 R0 '
    Manufacturer-Specified Display Descriptor (0x03): 00 03 00 04 35 ff 05 3c 90 29 20 44 90 00 00 00 '....5..<.) D....'
    Manufacturer-Specified Display Descriptor (0x03): 00 03 00 06 1a ff 0f 3c 24 28 10 44 24 01 01 00 '.......<$(.D$...'
Checksum: 0x63

----------------

Failures:

Block 0, Base EDID:
  Alphanumeric Data String: One or more trailing spaces.
  Missing Display Product Name.

EDID conformity: FAIL
