
EDID (hex):
00ffffffffffff0009e5dd0900000000
011f0104951a0e78033ad5955c589429
24505400000001010101010101010101
010101010101381d56c850001c303020
360000901000001a7b1356c850001c30
3020360000901000001a000000000000
00000000000000000000000000000002
000d40ff0a3c7d0f0c177d0000000051

edid-decode (hex):

00 ff ff ff ff ff ff 00 09 e5 dd 09 00 00 00 00
01 1f 01 04 95 1a 0e 78 03 3a d5 95 5c 58 94 29
24 50 54 00 00 00 01 01 01 01 01 01 01 01 01 01
01 01 01 01 01 01 38 1d 56 c8 50 00 1c 30 30 20
36 00 00 90 10 00 00 1a 7b 13 56 c8 50 00 1c 30
30 20 36 00 00 90 10 00 00 1a 00 00 00 00 00 00
00 00 00 00 00 00 00 00 00 00 00 00 00 00 00 02
00 0d 40 ff 0a 3c 7d 0f 0c 17 7d 00 00 00 00 51

----------------

Block 0, Base EDID:
  EDID Structure Version & Revision: 1.4
  Vendor & Product Identification:
    Manufacturer: BOE
    Model: 2525
    Made in: week 1 of 2021
  Basic Display Parameters & Features:
    Digital display
    Bits per primary color channel: 6
    DisplayPort interface
    Maximum image size: 26 cm x 14 cm
    Gamma: 2.20
    Supported color formats: RGB 4:4:4
    First detailed timing includes the native pixel format and preferred refresh rate
    Display is continuous frequency
  Color Characteristics:
    Red  : 0.5820, 0.3623
    Green: 0.3457, 0.5800
    Blue : 0.1630, 0.1416
    White: 0.3134, 0.3291
  Established Timings I & II: none
  Standard Timings: none
  Detailed Timing Descriptors:
    DTD 1:  1366x768    60.006289 Hz 683:384   47.765 kHz     74.800000 MHz (256 mm x 144 mm)
                 Hfront   48 Hsync  32 Hback  120 Hpol P
                 Vfront    3 Vsync   6 Vback   19 Vpol N
    DTD 2:  1366x768    40.006867 Hz 683:384   31.845 kHz     49.870000 MHz (256 mm x 144 mm)
                 Hfront   48 Hsync  32 Hback  120 Hpol P
                 Vfront    3 Vsync   6 Vback   19 Vpol N
    Empty Descriptor
    Manufacturer-Specified Display Descriptor (0x02): 00 02 00 0d 40 ff 0a 3c 7d 0f 0c 17 7d 00 00 00 '....@..<}...}...'
Checksum: 0x51
