edid-decode (hex):

00 ff ff ff ff ff ff 00 09 e5 c5 08 00 00 00 00
24 1d 01 04 a5 26 15 78 02 67 c5 b1 51 44 ae 26
0e 50 54 00 00 00 01 01 01 01 01 01 01 01 01 01
01 01 01 01 01 01 c0 39 80 18 71 38 28 40 30 20
36 00 7e d7 10 00 00 1a 34 2e 80 18 71 38 28 40
30 20 36 00 7e d7 10 00 00 1a 00 00 00 fe 00 56
43 39 50 30 80 4e 56 31 37 4e 34 46 00 00 00 00
00 02 41 21 b2 00 10 00 00 0a 01 0a 20 20 00 cd

----------------

Block 0, Base EDID:
  EDID Structure Version & Revision: 1.4
  Vendor & Product Identification:
    Manufacturer: BOE
    Model: 2245
    Made in: week 36 of 2019
  Basic Display Parameters & Features:
    Digital display
    Bits per primary color channel: 8
    DisplayPort interface
    Maximum image size: 38 cm x 21 cm
    Gamma: 2.20
    Supported color formats: RGB 4:4:4
    First detailed timing includes the native pixel format and preferred refresh rate
  Color Characteristics:
    Red  : 0.6923, 0.3183
    Green: 0.2666, 0.6826
    Blue : 0.1513, 0.0546
    White: 0.3134, 0.3291
  Established Timings I & II: none
  Standard Timings: none
  Detailed Timing Descriptors:
    DTD 1:  1920x1080   60.000000 Hz  16:9     67.200 kHz    147.840000 MHz (382 mm x 215 mm)
                 Hfront   48 Hsync  32 Hback  200 Hpol P
                 Vfront    3 Vsync   6 Vback   31 Vpol N
    DTD 2:  1920x1080   48.003247 Hz  16:9     53.764 kHz    118.280000 MHz (382 mm x 215 mm)
                 Hfront   48 Hsync  32 Hback  200 Hpol P
                 Vfront    3 Vsync   6 Vback   31 Vpol N
    Alphanumeric Data String: 'VC9P0'
    Manufacturer-Specified Display Descriptor (0x00): 00 00 00 02 41 21 b2 00 10 00 00 0a 01 0a 20 20 '....A!........  '
Checksum: 0xcd

----------------

Warnings:

Block 0, Base EDID:
  Missing Display Product Name.

Failures:

Block 0, Base EDID:
  Alphanumeric Data String: Non-printable character.

EDID conformity: FAIL
