
EDID (hex):
00ffffffffffff0030e48f0100000000
00120103802115780abe859859528c28
26505400000001010101010101010101
010101010101423b805e70b038401e1e
36004bcf1000001a423b805e70b0ac42
1e1e36004bcf10000019000000fe0048
54303039803135345755320a00000000
00000000000000000002010a202000b7

Extracted contents:
header:          00 ff ff ff ff ff ff 00
serial number:   30 e4 8f 01 00 00 00 00 00 12
version:         01 03
basic params:    80 21 15 78 0a
chroma info:     be 85 98 59 52 8c 28 26 50 54
established:     00 00 00
standard:        01 01 01 01 01 01 01 01 01 01 01 01 01 01 01 01
descriptor 1:    42 3b 80 5e 70 b0 38 40 1e 1e 36 00 4b cf 10 00 00 1a
descriptor 2:    42 3b 80 5e 70 b0 ac 42 1e 1e 36 00 4b cf 10 00 00 19
descriptor 3:    00 00 00 fe 00 48 54 30 30 39 80 31 35 34 57 55 32 0a
descriptor 4:    00 00 00 00 00 00 00 00 00 00 00 00 00 02 01 0a 20 20
extensions:      00
checksum:        b7

EDID version: 1.3
Manufacturer: LGD Model 18f Serial Number --
Made in year 2008
Digital display
Maximum image size: 33 cm x 21 cm
Gamma: 2.20
RGB color display
First detailed timing is preferred timing
Display x,y Chromaticity:
  Red:   0.5957, 0.3505
  Green: 0.3232, 0.5488
  Blue:  0.1582, 0.1484
  White: 0.3134, 0.3291
Established timings supported:
Standard timings supported:
Detailed mode: Clock 151.700 MHz, 331 mm x 207 mm
               1920 1950 1980 2014 hborder 0
               1200 1203 1209 1256 vborder 0
               +hsync -vsync 
               VertFreq: 59 Hz, HorFreq: 75322 Hz
Detailed mode: Clock 151.700 MHz, 331 mm x 207 mm
               1920 1950 1980 2014 hborder 0
               1200 1203 1209 1884 vborder 0
               -hsync -vsync 
               VertFreq: 39 Hz, HorFreq: 75322 Hz
ASCII string: HT009
Manufacturer-specified data, tag 0
Checksum: 0xb7 (valid)
EDID block does NOT conform to EDID 1.3!
	Missing name descriptor
	Missing monitor ranges
	Detailed block string not properly terminated
