
EDID (hex):
00ffffffffffff000daf931500000000
08140103802213780ad1f5935d599026
1d505400000001010101010101010101
010101010101121b5664500014301022
260058c110000018000000fe004e3135
3642332d4c30420a2020000000fe0043
4d4f0a202020202020202020000000fe
004e31353642332d4c30420a20200076

Extracted contents:
header:          00 ff ff ff ff ff ff 00
serial number:   0d af 93 15 00 00 00 00 08 14
version:         01 03
basic params:    80 22 13 78 0a
chroma info:     d1 f5 93 5d 59 90 26 1d 50 54
established:     00 00 00
standard:        01 01 01 01 01 01 01 01 01 01 01 01 01 01 01 01
descriptor 1:    12 1b 56 64 50 00 14 30 10 22 26 00 58 c1 10 00 00 18
descriptor 2:    00 00 00 fe 00 4e 31 35 36 42 33 2d 4c 30 42 0a 20 20
descriptor 3:    00 00 00 fe 00 43 4d 4f 0a 20 20 20 20 20 20 20 20 20
descriptor 4:    00 00 00 fe 00 4e 31 35 36 42 33 2d 4c 30 42 0a 20 20
extensions:      00
checksum:        76

EDID version: 1.3
Manufacturer: CMO Model 1593 Serial Number --
Made in week 8 of 2010
Digital display
Maximum image size: 34 cm x 19 cm
Gamma: 2.20
RGB color display
First detailed timing is preferred timing
Display x,y Chromaticity:
  Red:   0.5771, 0.3642
  Green: 0.3476, 0.5634
  Blue:  0.1513, 0.1162
  White: 0.3134, 0.3291
Established timings supported:
Standard timings supported:
Detailed mode: Clock 69.300 MHz, 344 mm x 193 mm
               1366 1382 1416 1466 hborder 0
                768  770  776  788 vborder 0
               -hsync -vsync 
               VertFreq: 59 Hz, HorFreq: 47271 Hz
ASCII string: N156B3-L0B
ASCII string: CMO
ASCII string: N156B3-L0B
Checksum: 0x76 (valid)
EDID block does NOT conform to EDID 1.3!
	Missing name descriptor
	Missing monitor ranges
