
EDID (hex):
00ffffffffffff0009e5f20300000000
0119010495160e780a8a409957509026
20505400000001010101010101010101
010101010101871d00ec50201f300a64
3c00d9880000001aba1300ec50201f30
0a643c00d9880000001a000000000000
00000000000000000000000000000002
000c3cff0b3c6e19111e6e0000000070

Extracted contents:
header:          00 ff ff ff ff ff ff 00
serial number:   09 e5 f2 03 00 00 00 00 01 19
version:         01 04
basic params:    95 16 0e 78 0a
chroma info:     8a 40 99 57 50 90 26 20 50 54
established:     00 00 00
standard:        01 01 01 01 01 01 01 01 01 01 01 01 01 01 01 01
descriptor 1:    87 1d 00 ec 50 20 1f 30 0a 64 3c 00 d9 88 00 00 00 1a
descriptor 2:    ba 13 00 ec 50 20 1f 30 0a 64 3c 00 d9 88 00 00 00 1a
descriptor 3:    00 00 00 00 00 00 00 00 00 00 00 00 00 00 00 00 00 00
descriptor 4:    00 00 00 02 00 0c 3c ff 0b 3c 6e 19 11 1e 6e 00 00 00
extensions:      00
checksum:        70

EDID version: 1.4
Manufacturer: BOE Model 3f2 Serial Number --
Made in week 1 of 2015
Digital display
6 bits per primary color channel
DisplayPort interface
Maximum image size: 22 cm x 14 cm
Gamma: 2.20
Supported color formats: RGB 4:4:4, YCrCb 4:4:4
First detailed timing includes the native pixel format and preferred refresh rate
Display x,y Chromaticity:
  Red:   0.5996, 0.3398
  Green: 0.3144, 0.5644
  Blue:  0.1494, 0.1250
  White: 0.3125, 0.3281
Established timings supported:
Standard timings supported:
Detailed mode: Clock 75.590 MHz, 217 mm x 136 mm
               1280 1290 1390 1516 hborder 0
                800  803  815  831 vborder 0
               +hsync -vsync 
               VertFreq: 60 Hz, HorFreq: 49861 Hz
Detailed mode: Clock 50.500 MHz, 217 mm x 136 mm
               1280 1290 1390 1516 hborder 0
                800  803  815  831 vborder 0
               +hsync -vsync 
               VertFreq: 40 Hz, HorFreq: 33311 Hz
Manufacturer-specified data, tag 0
Manufacturer-specified data, tag 2
Checksum: 0x70 (valid)
EDID block does NOT conform to EDID 1.4!
	Missing name descriptor
	Missing monitor ranges
