
EDID (hex):
00ffffffffffff0009e5ec0900000000
2c1e0104951d11780328659759548e27
1e505400000001010101010101010101
010101010101a43980c8703850403020
360026a51000001a6d2680c870385040
3020360026a51000001a000000000000
00000000000000000000000000000002
000d40ff0a3c7d140e1c7d000000000c

edid-decode (hex):

00 ff ff ff ff ff ff 00 09 e5 ec 09 00 00 00 00
2c 1e 01 04 95 1d 11 78 03 28 65 97 59 54 8e 27
1e 50 54 00 00 00 01 01 01 01 01 01 01 01 01 01
01 01 01 01 01 01 a4 39 80 c8 70 38 50 40 30 20
36 00 26 a5 10 00 00 1a 6d 26 80 c8 70 38 50 40
30 20 36 00 26 a5 10 00 00 1a 00 00 00 00 00 00
00 00 00 00 00 00 00 00 00 00 00 00 00 00 00 02
00 0d 40 ff 0a 3c 7d 14 0e 1c 7d 00 00 00 00 0c

----------------

Block 0, Base EDID:
  EDID Structure Version & Revision: 1.4
  Vendor & Product Identification:
    Manufacturer: BOE
    Model: 2540
    Made in: week 44 of 2020
  Basic Display Parameters & Features:
    Digital display
    Bits per primary color channel: 6
    DisplayPort interface
    Maximum image size: 29 cm x 17 cm
    Gamma: 2.20
    Supported color formats: RGB 4:4:4
    First detailed timing includes the native pixel format and preferred refresh rate
    Display is continuous frequency
  Color Characteristics:
    Red  : 0.5898, 0.3496
    Green: 0.3300, 0.5546
    Blue : 0.1533, 0.1191
    White: 0.3134, 0.3291
  Established Timings I & II: none
  Standard Timings: none
  Detailed Timing Descriptors:
    DTD 1:  1920x1080   60.003253 Hz  16:9     69.604 kHz    147.560000 MHz (294 mm x 165 mm)
                 Hfront   48 Hsync  32 Hback  120 Hpol P
                 Vfront    3 Vsync   6 Vback   71 Vpol N
    DTD 2:  1920x1080   40.000813 Hz  16:9     46.401 kHz     98.370000 MHz (294 mm x 165 mm)
                 Hfront   48 Hsync  32 Hback  120 Hpol P
                 Vfront    3 Vsync   6 Vback   71 Vpol N
    Empty Descriptor
    Manufacturer-Specified Display Descriptor (0x02): 00 02 00 0d 40 ff 0a 3c 7d 14 0e 1c 7d 00 00 00 '....@..<}...}...'
Checksum: 0x0c
