
EDID (hex):
00ffffffffffff001e6d553b780f0100
250c0103281e1778e87e65a0584e9625
1e5054bfee00314f454f614f01010101
01010101010164190040410026301888
360030e410000018000000fd00384b1f
3d08000a202020202020000000fc0046
4c4154524f4e204c31353130000000fc
00530a2020202020202020202020003e

Extracted contents:
header:          00 ff ff ff ff ff ff 00
serial number:   1e 6d 55 3b 78 0f 01 00 25 0c
version:         01 03
basic params:    28 1e 17 78 e8
chroma info:     7e 65 a0 58 4e 96 25 1e 50 54
established:     bf ee 00
standard:        31 4f 45 4f 61 4f 01 01 01 01 01 01 01 01 01 01
descriptor 1:    64 19 00 40 41 00 26 30 18 88 36 00 30 e4 10 00 00 18
descriptor 2:    00 00 00 fd 00 38 4b 1f 3d 08 00 0a 20 20 20 20 20 20
descriptor 3:    00 00 00 fc 00 46 4c 41 54 52 4f 4e 20 4c 31 35 31 30
descriptor 4:    00 00 00 fc 00 53 0a 20 20 20 20 20 20 20 20 20 20 20
extensions:      00
checksum:        3e

EDID version: 1.3
Manufacturer: GSM Model 3b55 Serial Number --
Analog display, Input voltage level: 0.714/0.286 V
Sync: Separate 
Maximum image size: 30 cm x 23 cm
Gamma: 2.20
DPMS levels: Standby Suspend Off
RGB color display
Display x,y Chromaticity:
  Red:   0.6259, 0.3466
  Green: 0.3076, 0.5878
  Blue:  0.1455, 0.1191
  White: 0.3134, 0.3291
Established timings supported:
  720x400@70Hz 9:5 HorFreq: 31469 Hz Clock: 28.320 MHz
  640x480@60Hz 4:3 HorFreq: 31469 Hz Clock: 25.175 MHz
  640x480@67Hz 4:3 HorFreq: 35000 Hz Clock: 30.240 MHz
  640x480@72Hz 4:3 HorFreq: 37900 Hz Clock: 31.500 MHz
  640x480@75Hz 4:3 HorFreq: 37500 Hz Clock: 31.500 MHz
  800x600@56Hz 4:3 HorFreq: 35200 Hz Clock: 36.000 MHz
  800x600@60Hz 4:3 HorFreq: 37900 Hz Clock: 40.000 MHz
  800x600@72Hz 4:3 HorFreq: 48100 Hz Clock: 50.000 MHz
  800x600@75Hz 4:3 HorFreq: 46900 Hz Clock: 49.500 MHz
  832x624@75Hz 4:3 HorFreq: 49726 Hz Clock: 57.284 MHz
  1024x768@60Hz 4:3 HorFreq: 48400 Hz Clock: 65.000 MHz
  1024x768@70Hz 4:3 HorFreq: 56500 Hz Clock: 75.000 MHz
  1024x768@75Hz 4:3 HorFreq: 60000 Hz Clock: 78.750 MHz
Standard timings supported:
  640x480@75Hz 4:3 HorFreq: 37500 Hz Clock: 31.500 MHz
  800x600@75Hz 4:3 HorFreq: 46900 Hz Clock: 49.500 MHz
  1024x768@75Hz 4:3 HorFreq: 60000 Hz Clock: 78.750 MHz
Detailed mode: Clock 65.000 MHz, 304 mm x 228 mm
               1024 1048 1184 1344 hborder 0
                768  771  777  806 vborder 0
               -hsync -vsync 
               VertFreq: 60 Hz, HorFreq: 48363 Hz
Monitor ranges (GTF): 56-75Hz V, 31-61kHz H, max dotclock 80MHz
Monitor name: FLATRON L1510S
Checksum: 0x3e (valid)
EDID block does NOT conform to EDID 1.3!
	Missing preferred timing
EDID block does not conform at all!
	Bad year of manufacture
