
EDID (hex):
00ffffffffffff000e98745300000000
000c01011d21196ee80ec8a057479926
12484cbfff8031a4459d617c7168815e
a95101010101100e80c020e01d102030
130036e810000018f91520f830581f20
2040130036e81000001eea2400604100
28303060130036e81000001e000000fd
0032a01e6114000a20202020202000db

Extracted contents:
header:          00 ff ff ff ff ff ff 00
serial number:   0e 98 74 53 00 00 00 00 00 0c
version:         01 01
basic params:    1d 21 19 6e e8
chroma info:     0e c8 a0 57 47 99 26 12 48 4c
established:     bf ff 80
standard:        31 a4 45 9d 61 7c 71 68 81 5e a9 51 01 01 01 01
descriptor 1:    10 0e 80 c0 20 e0 1d 10 20 30 13 00 36 e8 10 00 00 18
descriptor 2:    f9 15 20 f8 30 58 1f 20 20 40 13 00 36 e8 10 00 00 1e
descriptor 3:    ea 24 00 60 41 00 28 30 30 60 13 00 36 e8 10 00 00 1e
descriptor 4:    00 00 00 fd 00 32 a0 1e 61 14 00 0a 20 20 20 20 20 20
extensions:      00
checksum:        db

EDID version: 1.1
Manufacturer: CTX Model 5374 Serial Number --
Analog display, Input voltage level: 0.7/0.3 V
Configurable signal levels
Sync: Separate Composite Serration 
Maximum image size: 33 cm x 25 cm
Gamma: 2.10
DPMS levels: Standby Suspend Off
RGB color display
Display x,y Chromaticity:
  Red:   0.6250, 0.3398
  Green: 0.2802, 0.5996
  Blue:  0.1513, 0.0703
  White: 0.2832, 0.2968
Established timings supported:
  720x400@70Hz 9:5 HorFreq: 31469 Hz Clock: 28.320 MHz
  640x480@60Hz 4:3 HorFreq: 31469 Hz Clock: 25.175 MHz
  640x480@67Hz 4:3 HorFreq: 35000 Hz Clock: 30.240 MHz
  640x480@72Hz 4:3 HorFreq: 37900 Hz Clock: 31.500 MHz
  640x480@75Hz 4:3 HorFreq: 37500 Hz Clock: 31.500 MHz
  800x600@56Hz 4:3 HorFreq: 35200 Hz Clock: 36.000 MHz
  800x600@60Hz 4:3 HorFreq: 37900 Hz Clock: 40.000 MHz
  800x600@72Hz 4:3 HorFreq: 48100 Hz Clock: 50.000 MHz
  800x600@75Hz 4:3 HorFreq: 46900 Hz Clock: 49.500 MHz
  832x624@75Hz 4:3 HorFreq: 49726 Hz Clock: 57.284 MHz
  1280x768i@87Hz 5:3 HorFreq: 35522 Hz Clock: 44.900 MHz
  1024x768@60Hz 4:3 HorFreq: 48400 Hz Clock: 65.000 MHz
  1024x768@70Hz 4:3 HorFreq: 56500 Hz Clock: 75.000 MHz
  1024x768@75Hz 4:3 HorFreq: 60000 Hz Clock: 78.750 MHz
  1280x1024@75Hz 5:4 HorFreq: 80000 Hz Clock: 135.000 MHz
  1152x870@75Hz 192:145 HorFreq: 67500 Hz Clock: 108.000 MHz
Standard timings supported:
  640x512@96Hz 5:4
  800x640@89Hz 5:4
  1024x768@120Hz 4:3
  1152x864@100Hz 4:3
  1280x960@90Hz 4:3
  1600x1200@77Hz 4:3
Detailed mode: Clock 36.000 MHz, 310 mm x 232 mm
                640  672  720  832 hborder 0
                480  481  484  509 vborder 0
               -hsync -vsync 
               VertFreq: 85 Hz, HorFreq: 43269 Hz
Detailed mode: Clock 56.250 MHz, 310 mm x 232 mm
                800  832  896 1048 hborder 0
                600  601  604  631 vborder 0
               +hsync +vsync 
               VertFreq: 85 Hz, HorFreq: 53673 Hz
Detailed mode: Clock 94.500 MHz, 310 mm x 232 mm
               1024 1072 1168 1376 hborder 0
                768  769  772  808 vborder 0
               +hsync +vsync 
               VertFreq: 84 Hz, HorFreq: 68677 Hz
Monitor ranges (GTF): 50-160Hz V, 30-97kHz H, max dotclock 200MHz
Checksum: 0xdb (valid)
EDID block does NOT conform to EDID 1.0!
	Has descriptor blocks other than detailed timings
EDID block does not conform at all!
	Bad year of manufacture
