edid-decode (hex):

00 ff ff ff ff ff ff 00 18 39 8d 00 01 00 00 00
03 14 01 03 68 15 10 78 ea 40 94 9c 57 52 92 26
1c 50 54 af ce 00 61 40 01 01 01 01 01 01 01 01
01 01 01 01 01 01 64 19 00 40 41 00 26 30 18 88
36 00 9a e6 10 00 00 1e 00 00 00 fd 00 30 4c 1e
46 0a 00 0a 20 20 20 20 20 20 00 00 00 ff 00 46
61 79 74 65 63 68 2d 31 30 34 0a 20 00 00 00 fc
00 46 61 79 74 65 63 68 2d 4d 6f 6e 69 74 00 34

00 ff ff ff ff ff ff 00 18 39 8d 00 01 00 00 00
03 14 01 03 68 15 10 78 ea 40 94 9c 57 52 92 26
1c 50 54 af ce 00 61 40 01 01 01 01 01 01 01 01
01 01 01 01 01 01 64 19 00 40 41 00 26 30 18 88
36 00 9a e6 10 00 00 1e 00 00 00 fd 00 30 4c 1e
46 0a 00 0a 20 20 20 20 20 20 00 00 00 ff 00 46
61 79 74 65 63 68 2d 31 30 34 0a 20 00 00 00 fc
00 46 61 79 74 65 63 68 2d 4d 6f 6e 69 74 00 34

----------------

Block 0, Base EDID:
  EDID Structure Version & Revision: 1.3
  Vendor & Product Identification:
    Manufacturer: FAY
    Model: 141
    Serial Number: ...
    Made in: week 3 of 2010
  Basic Display Parameters & Features:
    Analog display
    Signal Level Standard: 0.700 : 0.000 : 0.700 V p-p
    Blank level equals black level
    Sync: Separate
    Maximum image size: 21 cm x 16 cm
    Gamma: 2.20
    DPMS levels: Standby Suspend Off
    RGB color display
    First detailed timing is the preferred timing
  Color Characteristics:
    Red  : 0.6103, 0.3398
    Green: 0.3203, 0.5703
    Blue : 0.1503, 0.1103
    White: 0.3134, 0.3281
  Established Timings I & II:
    IBM     :   720x400    70.081663 Hz   9:5     31.467 kHz     28.320000 MHz
    DMT 0x04:   640x480    59.940476 Hz   4:3     31.469 kHz     25.175000 MHz
    DMT 0x05:   640x480    72.808802 Hz   4:3     37.861 kHz     31.500000 MHz
    DMT 0x06:   640x480    75.000000 Hz   4:3     37.500 kHz     31.500000 MHz
    DMT 0x08:   800x600    56.250000 Hz   4:3     35.156 kHz     36.000000 MHz
    DMT 0x09:   800x600    60.316541 Hz   4:3     37.879 kHz     40.000000 MHz
    DMT 0x0a:   800x600    72.187572 Hz   4:3     48.077 kHz     50.000000 MHz
    DMT 0x0b:   800x600    75.000000 Hz   4:3     46.875 kHz     49.500000 MHz
    DMT 0x10:  1024x768    60.003840 Hz   4:3     48.363 kHz     65.000000 MHz
    DMT 0x11:  1024x768    70.069359 Hz   4:3     56.476 kHz     75.000000 MHz
    DMT 0x12:  1024x768    75.028582 Hz   4:3     60.023 kHz     78.750000 MHz
  Standard Timings:
    DMT 0x10:  1024x768    60.003840 Hz   4:3     48.363 kHz     65.000000 MHz
  Detailed Timing Descriptors:
    DTD 1:  1024x768    60.003840 Hz   4:3     48.363 kHz     65.000000 MHz (410 mm x 230 mm)
                 Hfront   24 Hsync 136 Hback  160 Hpol P
                 Vfront    3 Vsync   6 Vback   29 Vpol P
    Display Range Limits:
      Monitor ranges (GTF): 48-76 Hz V, 30-70 kHz H, max dotclock 100 MHz
    Display Product Serial Number: ...
    Display Product Name: 'Faytech-Monit'
Checksum: 0x34

----------------

Block 1, Unknown EDID Extension Block 0x00:
  00 ff ff ff ff ff ff 00 18 39 8d 00 01 00 00 00 '.........9......'
  03 14 01 03 68 15 10 78 ea 40 94 9c 57 52 92 26 '....h..x.@..WR.&'
  1c 50 54 af ce 00 61 40 01 01 01 01 01 01 01 01 '.PT...a@........'
  01 01 01 01 01 01 64 19 00 40 41 00 26 30 18 88 '......d..@A.&0..'
  36 00 9a e6 10 00 00 1e 00 00 00 fd 00 30 4c 1e '6............0L.'
  46 0a 00 0a 20 20 20 20 20 20 00 00 00 ff 00 46 'F...      .....F'
  61 79 74 65 63 68 2d 31 30 34 0a 20 00 00 00 fc 'aytech-104. ....'
  00 46 61 79 74 65 63 68 2d 4d 6f 6e 69 74 00 34 '.Faytech-Monit.4'
Checksum: 0x34

----------------

Warnings:

Block 0, Base EDID:
  Detailed Timing Descriptor #1: DTD is similar but not identical to DMT 0x10.

Failures:

Block 0, Base EDID:
  Detailed Timing Descriptor #1: Mismatch of image size 410x230 mm vs display size 210x160 mm.
Block 1, Base EDID:
  Unknown Extension Block.
EDID:
  Base EDID: The DTD max image size is 410x230mm, which is larger than the display size 210.0x160.0mm.
  Base EDID: EDID specified 0 extension block(s), but found 1 extension block(s).

EDID conformity: FAIL
