
EDID (hex):
00ffffffffffff001e6d010101010101
06110103806e3e780a3130a5583bb826
0f4b522fce0031ca0101010101010101
01010101010164190040410026301888
36003c6c32000018d60980a020e02d10
086022003c6c32080818000000fd0037
4e193e080000000000000000000000fc
00343250433144472d41410a20200113
02031c72231507504912931404050301
0716830f000065030c0010008c0ad090
204031200c4055004c6c42000018011d
00bc52d01e20b82855404c6c4200001e
011d80d0721c1620102c25804c6c4200
009e011d007251d01e206e2855004c6c
4200001e011d8018711c1620582c2500
4c6c4200009e00000000000000000024

Extracted contents:
header:          00 ff ff ff ff ff ff 00
serial number:   1e 6d 01 01 01 01 01 01 06 11
version:         01 03
basic params:    80 6e 3e 78 0a
chroma info:     31 30 a5 58 3b b8 26 0f 4b 52
established:     2f ce 00
standard:        31 ca 01 01 01 01 01 01 01 01 01 01 01 01 01 01
descriptor 1:    64 19 00 40 41 00 26 30 18 88 36 00 3c 6c 32 00 00 18
descriptor 2:    d6 09 80 a0 20 e0 2d 10 08 60 22 00 3c 6c 32 08 08 18
descriptor 3:    00 00 00 fd 00 37 4e 19 3e 08 00 00 00 00 00 00 00 00
descriptor 4:    00 00 00 fc 00 34 32 50 43 31 44 47 2d 41 41 0a 20 20
extensions:      01
checksum:        13

EDID version: 1.3
Manufacturer: GSM Model 101 Serial Number --
Made in week 6 of 2007
Digital display
Maximum image size: 110 cm x 62 cm
Gamma: 2.20
RGB color display
First detailed timing is preferred timing
Display x,y Chromaticity:
  Red:   0.6445, 0.3466
  Green: 0.2304, 0.7197
  Blue:  0.1484, 0.0615
  White: 0.2929, 0.3203
Established timings supported:
  640x480@60Hz 4:3 HorFreq: 31469 Hz Clock: 25.175 MHz
  640x480@72Hz 4:3 HorFreq: 37900 Hz Clock: 31.500 MHz
  640x480@75Hz 4:3 HorFreq: 37500 Hz Clock: 31.500 MHz
  800x600@56Hz 4:3 HorFreq: 35200 Hz Clock: 36.000 MHz
  800x600@60Hz 4:3 HorFreq: 37900 Hz Clock: 40.000 MHz
  800x600@72Hz 4:3 HorFreq: 48100 Hz Clock: 50.000 MHz
  800x600@75Hz 4:3 HorFreq: 46900 Hz Clock: 49.500 MHz
  1024x768@60Hz 4:3 HorFreq: 48400 Hz Clock: 65.000 MHz
  1024x768@70Hz 4:3 HorFreq: 56500 Hz Clock: 75.000 MHz
  1024x768@75Hz 4:3 HorFreq: 60000 Hz Clock: 78.750 MHz
Standard timings supported:
  640x360@70Hz 16:9
Detailed mode: Clock 65.000 MHz, 828 mm x 620 mm
               1024 1048 1184 1344 hborder 0
                768  771  777  806 vborder 0
               -hsync -vsync 
               VertFreq: 60 Hz, HorFreq: 48363 Hz
Detailed mode: Clock 25.180 MHz, 828 mm x 620 mm
                640  648  744  800 hborder 8
                480  482  484  525 vborder 8
               -hsync -vsync 
               VertFreq: 59 Hz, HorFreq: 31475 Hz
Monitor ranges (GTF): 55-78Hz V, 25-62kHz H, max dotclock 80MHz
Monitor name: 42PC1DG-AA
Has 1 extension blocks
Checksum: 0x13 (valid)

CTA extension block
Extension version: 3
24 bytes of CTA data
  Audio data block
    AC-3, max channels 6
      Supported sample rates (kHz): 48 44.1 32
      Maximum bit rate: 640 kHz
  Video data block
    VIC  18 720x576@50Hz 16:9  HorFreq: 31250 Hz Clock: 27.000 MHz
    VIC  19 1280x720@50Hz 16:9 (native) HorFreq: 37500 Hz Clock: 74.250 MHz
    VIC  20 1920x1080i@50Hz 16:9  HorFreq: 28125 Hz Clock: 74.250 MHz
    VIC   4 1280x720@60Hz 16:9  HorFreq: 45000 Hz Clock: 74.250 MHz
    VIC   5 1920x1080i@60Hz 16:9  HorFreq: 33750 Hz Clock: 74.250 MHz
    VIC   3 720x480@60Hz 16:9  HorFreq: 31469 Hz Clock: 27.000 MHz
    VIC   1 640x480@60Hz 4:3  HorFreq: 31469 Hz Clock: 25.175 MHz
    VIC   7 1440x480i@60Hz 16:9  HorFreq: 15734 Hz Clock: 27.000 MHz
    VIC  22 1440x576i@50Hz 16:9  HorFreq: 15625 Hz Clock: 27.000 MHz
  Speaker allocation data block
    Speaker map:
      FL/FR - Front Left/Right
      LFE - Low Frequency Effects
      FC - Front Center
      BL/BR - Back Left/Right
  Vendor-specific data block, OUI 000c03 (HDMI)
    Source physical address 1.0.0.0
Basic audio support
Supports YCbCr 4:4:4
Supports YCbCr 4:2:2
2 native detailed modes
Detailed mode: Clock 27.000 MHz, 1100 mm x 620 mm
                720  732  796  864 hborder 0
                576  581  586  625 vborder 0
               -hsync -vsync 
               VertFreq: 50 Hz, HorFreq: 31250 Hz
Detailed mode: Clock 74.250 MHz, 1100 mm x 620 mm
               1280 1720 1760 1980 hborder 0
                720  725  730  750 vborder 0
               +hsync +vsync 
               VertFreq: 50 Hz, HorFreq: 37500 Hz
Detailed mode: Clock 74.250 MHz, 1100 mm x 620 mm
               1920 2448 2492 2640 hborder 0
                540  542  547  562 vborder 0
               +hsync +vsync interlaced 
               VertFreq: 50 Hz, HorFreq: 28125 Hz
Detailed mode: Clock 74.250 MHz, 1100 mm x 620 mm
               1280 1390 1430 1650 hborder 0
                720  725  730  750 vborder 0
               +hsync +vsync 
               VertFreq: 60 Hz, HorFreq: 45000 Hz
Detailed mode: Clock 74.250 MHz, 1100 mm x 620 mm
               1920 2008 2052 2200 hborder 0
                540  542  547  562 vborder 0
               +hsync +vsync interlaced 
               VertFreq: 60 Hz, HorFreq: 33750 Hz
Checksum: 0x24 (valid)

One or more of the timings is out of range of the Monitor Ranges:
  Vertical Freq: 50 - 75 Hz
  Horizontal Freq: 15625 - 60000 Hz
  Maximum Clock: 78.750 MHz
