edid-decode (hex):

00 ff ff ff ff ff ff 00 2c 83 12 11 00 00 00 00
2e 1a 01 04 a5 1d 11 78 0a 00 05 00 00 00 00 00
00 50 54 00 00 00 01 01 01 01 01 01 01 01 01 01
01 01 01 01 01 01 62 37 80 f0 70 38 0e 40 6e 14
62 00 26 a5 10 00 00 1a 00 00 00 10 00 00 00 00
00 00 00 00 00 00 00 00 00 00 00 00 00 00 00 00
00 00 00 00 00 00 00 00 00 00 00 00 00 00 00 fe
00 4b 44 31 33 33 4e 30 36 33 30 41 30 31 00 14

----------------

Block 0, Base EDID:
  EDID Structure Version & Revision: 1.4
  Vendor & Product Identification:
    Manufacturer: KDC
    Model: 4370
    Made in: week 46 of 2016
  Basic Display Parameters & Features:
    Digital display
    Bits per primary color channel: 8
    DisplayPort interface
    Maximum image size: 29 cm x 17 cm
    Gamma: 2.20
    Supported color formats: RGB 4:4:4, YCrCb 4:4:4
    First detailed timing includes the native pixel format and preferred refresh rate
  Color Characteristics:
    Red  : 0.0000, 0.0000
    Green: 0.0000, 0.0000
    Blue : 0.0000, 0.0000
    White: 0.3134, 0.3291
  Established Timings I & II: none
  Standard Timings: none
  Detailed Timing Descriptors:
    DTD 1:  1920x1080   59.998984 Hz  16:9     65.639 kHz    141.780000 MHz (294 mm x 165 mm)
                 Hfront  110 Hsync  20 Hback  110 Hpol P
                 Vfront    6 Vsync   2 Vback    6 Vpol N
    Dummy Descriptor:
    Empty Descriptor
    Alphanumeric Data String: 'KD133N0630A01'
Checksum: 0x14

----------------

Failures:

Block 0, Base EDID:
  Empty Descriptor: Use Dummy Descriptor instead of all zeroes.
  Missing Display Product Name.

EDID conformity: FAIL
