edid-decode (hex):

00 ff ff ff ff ff ff 00 1e f9 dc 06 2d 05 00 00
02 10 01 03 80 22 1b 78 28 e5 e5 a4 56 44 9f 23
15 50 54 a1 08 00 81 80 01 01 01 01 01 01 01 01
01 01 01 01 01 01 30 2a 00 98 51 00 2a 40 30 70
13 00 51 0e 11 00 00 1e 00 00 00 ff 00 4d 47 33
36 31 37 30 50 30 31 33 32 35 00 00 00 fc 00 46
50 44 31 37 36 30 0a 20 20 20 20 20 00 00 00 fd
00 3b 47 1f 40 0b 00 0a 20 20 20 20 20 20 00 5f

00 ff ff ff ff ff ff 00 1e f9 dc 06 2d 05 00 00
02 10 01 03 80 22 1b 78 28 e5 e5 a4 56 44 9f 23
15 50 54 a1 08 00 81 80 01 01 01 01 01 01 01 01
01 01 01 01 01 01 30 2a 00 98 51 00 2a 40 30 70
13 00 51 0e 11 00 00 1e 00 00 00 ff 00 4d 47 33
36 31 37 30 50 30 31 33 32 35 00 00 00 fc 00 46
50 44 31 37 36 30 0a 20 20 20 20 20 00 00 00 fd
00 3b 47 1f 40 0b 00 0a 20 20 20 20 20 20 00 5f

----------------

Block 0, Base EDID:
  EDID Structure Version & Revision: 1.3
  Vendor & Product Identification:
    Manufacturer: GWY
    Model: 1756
    Serial Number: ...
    Made in: week 2 of 2006
  Basic Display Parameters & Features:
    Digital display
    Maximum image size: 34 cm x 27 cm
    Gamma: 2.20
    DPMS levels: Off
    RGB color display
  Color Characteristics:
    Red  : 0.6435, 0.3378
    Green: 0.2666, 0.6220
    Blue : 0.1396, 0.0839
    White: 0.3134, 0.3291
  Established Timings I & II:
    IBM     :   720x400    70.081663 Hz   9:5     31.467 kHz     28.320000 MHz
    DMT 0x04:   640x480    59.940476 Hz   4:3     31.469 kHz     25.175000 MHz
    DMT 0x09:   800x600    60.316541 Hz   4:3     37.879 kHz     40.000000 MHz
    DMT 0x10:  1024x768    60.003840 Hz   4:3     48.363 kHz     65.000000 MHz
  Standard Timings:
    DMT 0x23:  1280x1024   60.019740 Hz   5:4     63.981 kHz    108.000000 MHz
  Detailed Timing Descriptors:
    DTD 1:  1280x1024   60.019740 Hz   5:4     63.981 kHz    108.000000 MHz (337 mm x 270 mm)
                 Hfront   48 Hsync 112 Hback  248 Hpol P
                 Vfront    1 Vsync   3 Vback   38 Vpol P
    Display Product Serial Number: ...
    Display Product Name: 'FPD1760'
    Display Range Limits:
      Monitor ranges (GTF): 59-71 Hz V, 31-64 kHz H, max dotclock 110 MHz
Checksum: 0x5f

----------------

Block 1, Unknown EDID Extension Block 0x00:
  00 ff ff ff ff ff ff 00 1e f9 dc 06 2d 05 00 00 '............-...'
  02 10 01 03 80 22 1b 78 28 e5 e5 a4 56 44 9f 23 '.....".x(...VD.#'
  15 50 54 a1 08 00 81 80 01 01 01 01 01 01 01 01 '.PT.............'
  01 01 01 01 01 01 30 2a 00 98 51 00 2a 40 30 70 '......0*..Q.*@0p'
  13 00 51 0e 11 00 00 1e 00 00 00 ff 00 4d 47 33 '..Q..........MG3'
  36 31 37 30 50 30 31 33 32 35 00 00 00 fc 00 46 '6170P01325.....F'
  50 44 31 37 36 30 0a 20 20 20 20 20 00 00 00 fd 'PD1760.     ....'
  00 3b 47 1f 40 0b 00 0a 20 20 20 20 20 20 00 5f '.;G.@...      ._'
Checksum: 0x5f

----------------

Failures:

Block 0, Base EDID:
  Basic Display Parameters & Features: EDID 1.3 requires that the first detailed timing is the preferred timing.
Block 1, Base EDID:
  Unknown Extension Block.
EDID:
  Base EDID: EDID specified 0 extension block(s), but found 1 extension block(s).

EDID conformity: FAIL
