
EDID (hex):
00ffffffffffff00320c012d00000000
00120103902115780aba709859528c28
25505400000001010101010101010101
0101010101016a4080f470b04640642c
a4004bcf100000190000000000000000
00000000000000000000000000fe0059
50303234143135345755310a00000000
00283e4c53739bbaff02010a2020001c

Extracted contents:
header:          00 ff ff ff ff ff ff 00
serial number:   32 0c 01 2d 00 00 00 00 00 12
version:         01 03
basic params:    90 21 15 78 0a
chroma info:     ba 70 98 59 52 8c 28 25 50 54
established:     00 00 00
standard:        01 01 01 01 01 01 01 01 01 01 01 01 01 01 01 01
descriptor 1:    6a 40 80 f4 70 b0 46 40 64 2c a4 00 4b cf 10 00 00 19
descriptor 2:    00 00 00 00 00 00 00 00 00 00 00 00 00 00 00 00 00 00
descriptor 3:    00 00 00 fe 00 59 50 30 32 34 14 31 35 34 57 55 31 0a
descriptor 4:    00 00 00 00 00 28 3e 4c 53 73 9b ba ff 02 01 0a 20 20
extensions:      00
checksum:        1c

EDID version: 1.3
Manufacturer: LPL Model 2d01 Serial Number --
Made in year 2008
Digital display
Maximum image size: 33 cm x 21 cm
Gamma: 2.20
RGB color display
First detailed timing is preferred timing
Display x,y Chromaticity:
  Red:   0.5957, 0.3505
  Green: 0.3222, 0.5488
  Blue:  0.1572, 0.1474
  White: 0.3125, 0.3281
Established timings supported:
Standard timings supported:
Detailed mode: Clock 164.900 MHz, 331 mm x 207 mm
               1920 2020 2064 2164 hborder 0
               1200 1210 1214 1270 vborder 0
               -hsync -vsync 
               VertFreq: 60 Hz, HorFreq: 76201 Hz
Manufacturer-specified data, tag 0
ASCII string: YP024
Manufacturer-specified data, tag 0
Checksum: 0x1c (valid)
EDID block does NOT conform to EDID 1.3!
	Digital display field contains garbage: 10
	Missing name descriptor
	Missing monitor ranges
	Detailed block string not properly terminated
