edid-decode (hex):

00 ff ff ff ff ff ff 00 5c 34 01 00 01 00 00 00
01 19 01 03 80 00 00 00 0a 00 00 00 00 00 00 00
00 00 00 00 00 00 01 01 01 01 01 01 01 01 01 01
01 01 01 01 01 01 ec 13 00 80 40 58 2d 20 28 30
d3 00 00 58 42 00 00 18 00 00 00 fc 00 48 44 4d
49 20 44 49 53 50 4c 41 59 0a 00 00 00 10 00 00
00 00 00 00 00 00 00 00 00 00 00 00 00 00 00 10
00 00 00 00 00 00 00 00 00 00 00 00 00 00 00 fd

00 ff ff ff ff ff ff 00 5c 34 01 00 01 00 00 00
01 19 01 03 80 00 00 00 0a 00 00 00 00 00 00 00
00 00 00 00 00 00 01 01 01 01 01 01 01 01 01 01
01 01 01 01 01 01 ec 13 00 80 40 58 2d 20 28 30
d3 00 00 58 42 00 00 18 00 00 00 fc 00 48 44 4d
49 20 44 49 53 50 4c 41 59 0a 00 00 00 10 00 00
00 00 00 00 00 00 00 00 00 00 00 00 00 00 00 10
00 00 00 00 00 00 00 00 00 00 00 00 00 00 00 fd

----------------

Block 0, Base EDID:
  EDID Structure Version & Revision: 1.3
  Vendor & Product Identification:
    Manufacturer: WAT
    Model: 1
    Serial Number: ...
    Made in: week 1 of 2015
  Basic Display Parameters & Features:
    Digital display
    Image size is variable
    Gamma: 1.00
    RGB color display
    First detailed timing is the preferred timing
  Color Characteristics:
    Red  : 0.0000, 0.0000
    Green: 0.0000, 0.0000
    Blue : 0.0000, 0.0000
    White: 0.0000, 0.0000
  Established Timings I & II: none
  Standard Timings: none
  Detailed Timing Descriptors:
    DTD 1:  1024x600    68.636951 Hz 128:75    44.271 kHz     51.000000 MHz (1024 mm x 600 mm)
                 Hfront   40 Hsync  48 Hback   40 Hpol N
                 Vfront   13 Vsync   3 Vback   29 Vpol N
    Display Product Name: 'HDMI DISPLAY'
    Dummy Descriptor:
    Dummy Descriptor:
Checksum: 0xfd

----------------

Block 1, Unknown EDID Extension Block 0x00:
  00 ff ff ff ff ff ff 00 5c 34 01 00 01 00 00 00 '........\4......'
  01 19 01 03 80 00 00 00 0a 00 00 00 00 00 00 00 '................'
  00 00 00 00 00 00 01 01 01 01 01 01 01 01 01 01 '................'
  01 01 01 01 01 01 ec 13 00 80 40 58 2d 20 28 30 '..........@X- (0'
  d3 00 00 58 42 00 00 18 00 00 00 fc 00 48 44 4d '...XB........HDM'
  49 20 44 49 53 50 4c 41 59 0a 00 00 00 10 00 00 'I DISPLAY.......'
  00 00 00 00 00 00 00 00 00 00 00 00 00 00 00 10 '................'
  00 00 00 00 00 00 00 00 00 00 00 00 00 00 00 fd '................'
Checksum: 0xfd

----------------

Failures:

Block 0, Base EDID:
  Missing Display Range Limits Descriptor.
Block 1, Base EDID:
  Unknown Extension Block.
EDID:
  Base EDID: The DTD max image size is 1024x600mm, but the display size is not specified anywhere.
  Base EDID: EDID specified 0 extension block(s), but found 1 extension block(s).

EDID conformity: FAIL
