
EDID (hex):
00ffffffffffff000dae131400000000
341d0104951f1178038ed59457539327
21505400000001010101010101010101
010101010101da1d56d250002830442d
470035ad1000001ae71356d250002830
442d470035ad1000001a000000000000
00000000000000000000000000000002
000c3dff0d3c7d0b0e1d7d0000000082

Extracted contents:
header:          00 ff ff ff ff ff ff 00
serial number:   0d ae 13 14 00 00 00 00 34 1d
version:         01 04
basic params:    95 1f 11 78 03
chroma info:     8e d5 94 57 53 93 27 21 50 54
established:     00 00 00
standard:        01 01 01 01 01 01 01 01 01 01 01 01 01 01 01 01
descriptor 1:    da 1d 56 d2 50 00 28 30 44 2d 47 00 35 ad 10 00 00 1a
descriptor 2:    e7 13 56 d2 50 00 28 30 44 2d 47 00 35 ad 10 00 00 1a
descriptor 3:    00 00 00 00 00 00 00 00 00 00 00 00 00 00 00 00 00 00
descriptor 4:    00 00 00 02 00 0c 3d ff 0d 3c 7d 0b 0e 1d 7d 00 00 00
extensions:      00
checksum:        82

EDID version: 1.4
Manufacturer: CMN Model 1413 Serial Number --
Made in week 52 of 2019
Digital display
6 bits per primary color channel
DisplayPort interface
Maximum image size: 31 cm x 17 cm
Gamma: 2.20
Supported color formats: RGB 4:4:4
First detailed timing includes the native pixel format and preferred refresh rate
Display is continuous frequency
Display x,y Chromaticity:
  Red:   0.5800, 0.3398
  Green: 0.3271, 0.5761
  Blue:  0.1552, 0.1298
  White: 0.3134, 0.3291
Established timings supported:
Standard timings supported:
Detailed mode: Clock 76.420 MHz, 309 mm x 173 mm
               1366 1434 1479 1576 hborder 0
                768  772  779  808 vborder 0
               +hsync -vsync 
               VertFreq: 60 Hz, HorFreq: 48489 Hz
Detailed mode: Clock 50.950 MHz, 309 mm x 173 mm
               1366 1434 1479 1576 hborder 0
                768  772  779  808 vborder 0
               +hsync -vsync 
               VertFreq: 40 Hz, HorFreq: 32328 Hz
Manufacturer-specified data, tag 0
Manufacturer-specified data, tag 2
Checksum: 0x82 (valid)
EDID block does NOT conform to EDID 1.4!
	Missing name descriptor
	Missing monitor ranges
