
EDID (hex):
00ffffffffffff0030ae424000000000
000f0103801e1778ea3c809757518a27
22505421080081800101010101010101
010101010101302a7820511a10403070
130030e41000001825237820511a1040
3070130030e4100000180000000f0090
4332904328140100320c5321000000fe
004c503135304530372d544c303300ca

Extracted contents:
header:          00 ff ff ff ff ff ff 00
serial number:   30 ae 42 40 00 00 00 00 00 0f
version:         01 03
basic params:    80 1e 17 78 ea
chroma info:     3c 80 97 57 51 8a 27 22 50 54
established:     21 08 00
standard:        81 80 01 01 01 01 01 01 01 01 01 01 01 01 01 01
descriptor 1:    30 2a 78 20 51 1a 10 40 30 70 13 00 30 e4 10 00 00 18
descriptor 2:    25 23 78 20 51 1a 10 40 30 70 13 00 30 e4 10 00 00 18
descriptor 3:    00 00 00 0f 00 90 43 32 90 43 28 14 01 00 32 0c 53 21
descriptor 4:    00 00 00 fe 00 4c 50 31 35 30 45 30 37 2d 54 4c 30 33
extensions:      00
checksum:        ca

EDID version: 1.3
Manufacturer: LEN Model 4042 Serial Number --
Digital display
Maximum image size: 30 cm x 23 cm
Gamma: 2.20
DPMS levels: Standby Suspend Off
RGB color display
First detailed timing is preferred timing
Display x,y Chromaticity:
  Red:   0.5898, 0.3427
  Green: 0.3193, 0.5390
  Blue:  0.1542, 0.1328
  White: 0.3125, 0.3281
Established timings supported:
  640x480@60Hz 4:3 HorFreq: 31469 Hz Clock: 25.175 MHz
  800x600@60Hz 4:3 HorFreq: 37900 Hz Clock: 40.000 MHz
  1024x768@60Hz 4:3 HorFreq: 48400 Hz Clock: 65.000 MHz
Standard timings supported:
  1280x1024@60Hz 5:4 HorFreq: 64000 Hz Clock: 108.000 MHz
Detailed mode: Clock 108.000 MHz, 304 mm x 228 mm
               1400 1448 1560 1688 hborder 0
               1050 1051 1054 1066 vborder 0
               -hsync -vsync 
               VertFreq: 60 Hz, HorFreq: 63981 Hz
Detailed mode: Clock 89.970 MHz, 304 mm x 228 mm
               1400 1448 1560 1688 hborder 0
               1050 1051 1054 1066 vborder 0
               -hsync -vsync 
               VertFreq: 49 Hz, HorFreq: 53299 Hz
Manufacturer-specified data, tag 15
ASCII string: LP150E07-TL03
Checksum: 0xca (valid)
EDID block does NOT conform to EDID 1.3!
	Missing name descriptor
	Missing monitor ranges
EDID block does not conform at all!
	Bad year of manufacture
