
EDID (hex):
00ffffffffffff0030e4a80600000000
001e0104a522137807ef85a3544c9e26
0e505400000001010101010101010101
0101010101015a8780a070384d403020
350040442100001a000000fd003c90a7
a7230100000000000000000000fe0030
34355844803135365746470a00000000
0002413f9e000100000f010a2020001e

Extracted contents:
header:          00 ff ff ff ff ff ff 00
serial number:   30 e4 a8 06 00 00 00 00 00 1e
version:         01 04
basic params:    a5 22 13 78 07
chroma info:     ef 85 a3 54 4c 9e 26 0e 50 54
established:     00 00 00
standard:        01 01 01 01 01 01 01 01 01 01 01 01 01 01 01 01
descriptor 1:    5a 87 80 a0 70 38 4d 40 30 20 35 00 40 44 21 00 00 1a
descriptor 2:    00 00 00 fd 00 3c 90 a7 a7 23 01 00 00 00 00 00 00 00
descriptor 3:    00 00 00 fe 00 30 34 35 58 44 80 31 35 36 57 46 47 0a
descriptor 4:    00 00 00 00 00 02 41 3f 9e 00 01 00 00 0f 01 0a 20 20
extensions:      00
checksum:        1e

EDID version: 1.4
Manufacturer: LGD Model 6a8 Serial Number --
Made in year 2020
Digital display
8 bits per primary color channel
DisplayPort interface
Maximum image size: 34 cm x 19 cm
Gamma: 2.20
Supported color formats: RGB 4:4:4
Default (sRGB) color space is primary color space
First detailed timing includes the native pixel format and preferred refresh rate
Display is continuous frequency
Display x,y Chromaticity:
  Red:   0.6396, 0.3300
  Green: 0.2998, 0.6201
  Blue:  0.1503, 0.0546
  White: 0.3134, 0.3291
Established timings supported:
Standard timings supported:
Detailed mode: Clock 346.500 MHz, 576 mm x 324 mm
               1920 1968 2000 2080 hborder 0
               1080 1083 1088 1157 vborder 0
               +hsync -vsync 
               VertFreq: 143 Hz, HorFreq: 166586 Hz
Monitor ranges (bare limits): 60-144Hz V, 167-167kHz H, max dotclock 350MHz
ASCII string: 045XD
Manufacturer-specified data, tag 0
Checksum: 0x1e (valid)
EDID block does NOT conform to EDID 1.4!
	sRGB is signaled, but the chromaticities do not match
	Missing name descriptor
	Detailed block string not properly terminated
Warning: One or more of the timings is out of range of the Monitor Ranges:
  Vertical Freq: 143 - 143 Hz
  Horizontal Freq: 166586 - 166586 Hz
  Maximum Clock: 346.500 MHz
