
EDID (hex):
00ffffffffffff000dae281700000000
0f160104902616780287f594574f8c27
27505400000001010101010101010101
0101010101011c2a405461841a303020
35007ed71000001a0000000000000000
00000000000000000000000000fe0058
4a313147803137334647450a00000000
00004101960100000002010a202000e5

Extracted contents:
header:          00 ff ff ff ff ff ff 00
serial number:   0d ae 28 17 00 00 00 00 0f 16
version:         01 04
basic params:    90 26 16 78 02
chroma info:     87 f5 94 57 4f 8c 27 27 50 54
established:     00 00 00
standard:        01 01 01 01 01 01 01 01 01 01 01 01 01 01 01 01
descriptor 1:    1c 2a 40 54 61 84 1a 30 30 20 35 00 7e d7 10 00 00 1a
descriptor 2:    00 00 00 00 00 00 00 00 00 00 00 00 00 00 00 00 00 00
descriptor 3:    00 00 00 fe 00 58 4a 31 31 47 80 31 37 33 46 47 45 0a
descriptor 4:    00 00 00 00 00 00 41 01 96 01 00 00 00 02 01 0a 20 20
extensions:      00
checksum:        e5

EDID version: 1.4
Manufacturer: CMN Model 1728 Serial Number --
Made in week 15 of 2012
Digital display
6 bits per primary color channel
Digital interface is not defined
Maximum image size: 38 cm x 22 cm
Gamma: 2.20
Supported color formats: RGB 4:4:4
First detailed timing includes the native pixel format and preferred refresh rate
Display x,y Chromaticity:
  Red:   0.5800, 0.3398
  Green: 0.3095, 0.5498
  Blue:  0.1552, 0.1552
  White: 0.3134, 0.3291
Established timings supported:
Standard timings supported:
Detailed mode: Clock 107.800 MHz, 382 mm x 215 mm
               1600 1648 1680 1940 hborder 0
                900  903  908  926 vborder 0
               +hsync -vsync 
               VertFreq: 60 Hz, HorFreq: 55567 Hz
Manufacturer-specified data, tag 0
ASCII string: XJ11G
Manufacturer-specified data, tag 0
Checksum: 0xe5 (valid)
EDID block does NOT conform to EDID 1.4!
	Missing name descriptor
	Missing monitor ranges
	Detailed block string not properly terminated


