edid-decode (hex):

00 ff ff ff ff ff ff 00 30 ae 31 40 00 00 00 00
00 11 01 03 80 1e 13 78 ea cd 75 91 55 4f 8b 26
21 50 54 21 08 00 01 01 01 01 01 01 01 01 01 01
01 01 01 01 01 01 fd 1d 00 20 51 20 10 30 34 40
33 00 2f be 10 00 00 19 fe 18 00 20 51 20 10 30
34 40 33 00 2f be 10 00 00 19 00 00 00 0f 00 81
0a 32 81 0a 28 12 01 00 4c a3 57 31 00 00 00 fe
00 4c 54 4e 31 34 31 57 31 2d 4c 30 35 0a 00 22

----------------

Block 0, Base EDID:
  EDID Structure Version & Revision: 1.3
  Vendor & Product Identification:
    Manufacturer: LEN
    Model: 16433
    Made in: 2007
  Basic Display Parameters & Features:
    Digital display
    Maximum image size: 30 cm x 19 cm
    Gamma: 2.20
    DPMS levels: Standby Suspend Off
    RGB color display
    First detailed timing is the preferred timing
  Color Characteristics:
    Red  : 0.5693, 0.3320
    Green: 0.3115, 0.5439
    Blue : 0.1494, 0.1318
    White: 0.3134, 0.3291
  Established Timings I & II:
    DMT 0x04:   640x480    59.940 Hz   4:3    31.469 kHz  25.175 MHz
    DMT 0x09:   800x600    60.317 Hz   4:3    37.879 kHz  40.000 MHz
    DMT 0x10:  1024x768    60.004 Hz   4:3    48.363 kHz  65.000 MHz
  Standard Timings: none
  Detailed Timing Descriptors:
    DTD 1:  1280x800    60.001 Hz   8:5    48.960 kHz  76.770 MHz (303 mm x 190 mm)
                 Hfront   52 Hsync  64 Hback 172 Hpol N
                 Vfront    3 Vsync   3 Vback  10 Vpol N
    DTD 2:  1280x800    50.004 Hz   8:5    40.804 kHz  63.980 MHz (303 mm x 190 mm)
                 Hfront   52 Hsync  64 Hback 172 Hpol N
                 Vfront    3 Vsync   3 Vback  10 Vpol N
    Manufacturer-Specified Display Descriptor (0x0f): 00 0f 00 81 0a 32 81 0a 28 12 01 00 4c a3 57 31 '.....2..(...L.W1'
    Alphanumeric Data String: 'LTN141W1-L05'
Checksum: 0x22

----------------

Failures:

Block 0, Base EDID:
  Missing Display Product Name.
  Missing Display Range Limits Descriptor.

EDID conformity: FAIL
