
EDID (hex):
00ffffffffffff0030ae314000000000
000f0103801e1378eac4409458538c28
23505421080001010101010101010101
010101010101c71b00a0502017303020
36002fbe10000018261700a050201730
302036002fbe100000180000000f0081
0a32810a28120100320c4611000000fe
004c503134315758312d544c3036002d

Extracted contents:
header:          00 ff ff ff ff ff ff 00
serial number:   30 ae 31 40 00 00 00 00 00 0f
version:         01 03
basic params:    80 1e 13 78 ea
chroma info:     c4 40 94 58 53 8c 28 23 50 54
established:     21 08 00
standard:        01 01 01 01 01 01 01 01 01 01 01 01 01 01 01 01
descriptor 1:    c7 1b 00 a0 50 20 17 30 30 20 36 00 2f be 10 00 00 18
descriptor 2:    26 17 00 a0 50 20 17 30 30 20 36 00 2f be 10 00 00 18
descriptor 3:    00 00 00 0f 00 81 0a 32 81 0a 28 12 01 00 32 0c 46 11
descriptor 4:    00 00 00 fe 00 4c 50 31 34 31 57 58 31 2d 54 4c 30 36
extensions:      00
checksum:        2d

EDID version: 1.3
Manufacturer: LEN Model 4031 Serial Number --
Digital display
Maximum image size: 30 cm x 19 cm
Gamma: 2.20
DPMS levels: Standby Suspend Off
RGB color display
First detailed timing is preferred timing
Display x,y Chromaticity:
  Red:   0.5810, 0.3437
  Green: 0.3251, 0.5468
  Blue:  0.1572, 0.1367
  White: 0.3125, 0.3281
Established timings supported:
  640x480@60Hz 4:3 HorFreq: 31469 Hz Clock: 25.175 MHz
  800x600@60Hz 4:3 HorFreq: 37900 Hz Clock: 40.000 MHz
  1024x768@60Hz 4:3 HorFreq: 48400 Hz Clock: 65.000 MHz
Standard timings supported:
Detailed mode: Clock 71.110 MHz, 303 mm x 190 mm
               1280 1328 1360 1440 hborder 0
                800  803  809  823 vborder 0
               -hsync -vsync 
               VertFreq: 60 Hz, HorFreq: 49381 Hz
Detailed mode: Clock 59.260 MHz, 303 mm x 190 mm
               1280 1328 1360 1440 hborder 0
                800  803  809  823 vborder 0
               -hsync -vsync 
               VertFreq: 50 Hz, HorFreq: 41152 Hz
Manufacturer-specified data, tag 15
ASCII string: LP141WX1-TL06
Checksum: 0x2d (valid)
EDID block does NOT conform to EDID 1.3!
	Missing name descriptor
	Missing monitor ranges
EDID block does not conform at all!
	Bad year of manufacture
