
EDID (hex):
00ffffffffffff0022f0174201000000
1916010380301b780a8090a25a52a226
0d505400000001010101010101010101
010101010101023a801871382d40582c
4500dd0d11000018000000fe00563036
0a202020202020202020000000fc0048
505120363330302041694f0a000000fe
004d3231354847452d4c32310a2000db

Extracted contents:
header:          00 ff ff ff ff ff ff 00
serial number:   22 f0 17 42 01 00 00 00 19 16
version:         01 03
basic params:    80 30 1b 78 0a
chroma info:     80 90 a2 5a 52 a2 26 0d 50 54
established:     00 00 00
standard:        01 01 01 01 01 01 01 01 01 01 01 01 01 01 01 01
descriptor 1:    02 3a 80 18 71 38 2d 40 58 2c 45 00 dd 0d 11 00 00 18
descriptor 2:    00 00 00 fe 00 56 30 36 0a 20 20 20 20 20 20 20 20 20
descriptor 3:    00 00 00 fc 00 48 50 51 20 36 33 30 30 20 41 69 4f 0a
descriptor 4:    00 00 00 fe 00 4d 32 31 35 48 47 45 2d 4c 32 31 0a 20
extensions:      00
checksum:        db

EDID version: 1.3
Manufacturer: HWP Model 4217 Serial Number --
Made in week 25 of 2012
Digital display
Maximum image size: 48 cm x 27 cm
Gamma: 2.20
RGB color display
First detailed timing is preferred timing
Display x,y Chromaticity:
  Red:   0.6347, 0.3515
  Green: 0.3203, 0.6328
  Blue:  0.1503, 0.0517
  White: 0.3125, 0.3281
Established timings supported:
Standard timings supported:
Detailed mode: Clock 148.500 MHz, 477 mm x 269 mm
               1920 2008 2052 2200 hborder 0
               1080 1084 1089 1125 vborder 0
               -hsync -vsync 
               VertFreq: 60 Hz, HorFreq: 67500 Hz
ASCII string: V06
Monitor name: HPQ 6300 AiO
ASCII string: M215HGE-L21
Checksum: 0xdb (valid)
EDID block does NOT conform to EDID 1.3!
	Missing monitor ranges
