edid-decode (hex):

00 ff ff ff ff ff ff 00 35 b0 97 99 01 01 01 01
19 11 01 03 80 29 1a 78 2a c3 25 a4 56 49 97 24
13 50 54 bf ef 00 61 46 71 40 71 4f 81 4f 81 80
8b c0 95 00 95 0f 9a 29 a0 d0 51 84 22 30 50 98
36 00 98 ff 10 00 00 1c 00 00 00 fd 00 32 4b 1e
50 0e 00 0a 20 20 20 20 20 20 00 00 00 fc 00 4d
50 43 20 54 57 39 39 39 0a 20 20 20 00 00 00 ff
00 32 35 55 4a 59 41 32 32 4e 30 33 30 32 00 d5

00 ff ff ff ff ff ff 00 35 b0 97 99 01 01 01 01
19 11 01 03 80 29 1a 78 2a c3 25 a4 56 49 97 24
13 50 54 bf ef 00 61 46 71 40 71 4f 81 4f 81 80
8b c0 95 00 95 0f 9a 29 a0 d0 51 84 22 30 50 98
36 00 98 ff 10 00 00 1c 00 00 00 fd 00 32 4b 1e
50 0e 00 0a 20 20 20 20 20 20 00 00 00 fc 00 4d
50 43 20 54 57 39 39 39 0a 20 20 20 00 00 00 ff
00 32 35 55 4a 59 41 32 32 4e 30 33 30 32 00 d5

----------------

Block 0, Base EDID:
  EDID Structure Version & Revision: 1.3
  Vendor & Product Identification:
    Manufacturer: MMP
    Model: 39319
    Serial Number: ...
    Made in: week 25 of 2007
  Basic Display Parameters & Features:
    Digital display
    Maximum image size: 41 cm x 26 cm
    Gamma: 2.20
    DPMS levels: Off
    RGB color display
    First detailed timing is the preferred timing
  Color Characteristics:
    Red  : 0.6435, 0.3359
    Green: 0.2851, 0.5927
    Blue : 0.1406, 0.0761
    White: 0.3134, 0.3291
  Established Timings I & II:
    IBM     :   720x400    70.081663 Hz   9:5     31.467 kHz     28.320000 MHz
    DMT 0x04:   640x480    59.940476 Hz   4:3     31.469 kHz     25.175000 MHz
    Apple   :   640x480    66.666667 Hz   4:3     35.000 kHz     30.240000 MHz
    DMT 0x05:   640x480    72.808802 Hz   4:3     37.861 kHz     31.500000 MHz
    DMT 0x06:   640x480    75.000000 Hz   4:3     37.500 kHz     31.500000 MHz
    DMT 0x08:   800x600    56.250000 Hz   4:3     35.156 kHz     36.000000 MHz
    DMT 0x09:   800x600    60.316541 Hz   4:3     37.879 kHz     40.000000 MHz
    DMT 0x0a:   800x600    72.187572 Hz   4:3     48.077 kHz     50.000000 MHz
    DMT 0x0b:   800x600    75.000000 Hz   4:3     46.875 kHz     49.500000 MHz
    Apple   :   832x624    74.551266 Hz   4:3     49.726 kHz     57.284000 MHz
    DMT 0x10:  1024x768    60.003840 Hz   4:3     48.363 kHz     65.000000 MHz
    DMT 0x11:  1024x768    70.069359 Hz   4:3     56.476 kHz     75.000000 MHz
    DMT 0x12:  1024x768    75.028582 Hz   4:3     60.023 kHz     78.750000 MHz
    DMT 0x24:  1280x1024   75.024675 Hz   5:4     79.976 kHz    135.000000 MHz
  Standard Timings:
    GTF     :  1024x768    65.999558 Hz   4:3     52.668 kHz     71.628000 MHz
    GTF     :  1152x864    60.000000 Hz   4:3     53.700 kHz     81.624000 MHz
    DMT 0x15:  1152x864    75.000000 Hz   4:3     67.500 kHz    108.000000 MHz
    GTF     :  1280x960    74.999884 Hz   4:3     75.150 kHz    129.859000 MHz
    DMT 0x23:  1280x1024   60.019740 Hz   5:4     63.981 kHz    108.000000 MHz
    GTF     :  1360x765    60.000341 Hz  16:9     47.520 kHz     84.396000 MHz
    DMT 0x2f:  1440x900    59.887445 Hz  16:10    55.935 kHz    106.500000 MHz
    DMT 0x30:  1440x900    74.984427 Hz  16:10    70.635 kHz    136.750000 MHz
  Detailed Timing Descriptors:
    DTD 1:  1440x900    59.887445 Hz  16:10    55.935 kHz    106.500000 MHz (408 mm x 255 mm)
                 Hfront   80 Hsync 152 Hback  232 Hpol N
                 Vfront    3 Vsync   6 Vback   25 Vpol P
    Display Range Limits:
      Monitor ranges (GTF): 50-75 Hz V, 30-80 kHz H, max dotclock 140 MHz
    Display Product Name: 'MPC TW999'
    Display Product Serial Number: ...
Checksum: 0xd5

----------------

Block 1, Unknown EDID Extension Block 0x00:
  00 ff ff ff ff ff ff 00 35 b0 97 99 01 01 01 01 '........5.......'
  19 11 01 03 80 29 1a 78 2a c3 25 a4 56 49 97 24 '.....).x*.%.VI.$'
  13 50 54 bf ef 00 61 46 71 40 71 4f 81 4f 81 80 '.PT...aFq@qO.O..'
  8b c0 95 00 95 0f 9a 29 a0 d0 51 84 22 30 50 98 '.......)..Q."0P.'
  36 00 98 ff 10 00 00 1c 00 00 00 fd 00 32 4b 1e '6............2K.'
  50 0e 00 0a 20 20 20 20 20 20 00 00 00 fc 00 4d 'P...      .....M'
  50 43 20 54 57 39 39 39 0a 20 20 20 00 00 00 ff 'PC TW999.   ....'
  00 32 35 55 4a 59 41 32 32 4e 30 33 30 32 00 d5 '.25UJYA22N0302..'
Checksum: 0xd5

----------------

Warnings:

Block 0, Base EDID:
  Standard Timings: Standard Timing 1360x765 has a dubious odd vertical resolution.

Failures:

Block 1, Base EDID:
  Unknown Extension Block.
EDID:
  Base EDID: EDID specified 0 extension block(s), but found 1 extension block(s).

EDID conformity: FAIL
