edid-decode (hex):

00 ff ff ff ff ff ff 00 06 10 58 9c 01 01 01 01
00 0f 01 03 80 25 17 78 0a b4 60 a1 58 4e 97 26
16 50 54 00 00 10 01 01 01 01 01 01 01 01 01 01
01 01 01 01 01 01 95 25 a0 40 51 84 0c 30 40 20
33 00 6f e5 10 00 00 18 00 00 00 01 00 06 10 30
00 00 00 00 00 00 00 00 0a 20 00 00 00 fe 00 4c
4d 31 37 31 57 30 32 2d 54 4c 42 31 00 00 00 fc
00 43 6f 6c 6f 72 20 4c 43 44 0a 20 20 20 00 09

----------------

Block 0, Base EDID:
  EDID Structure Version & Revision: 1.3
  Vendor & Product Identification:
    Manufacturer: APP
    Model: 40024
    Serial Number: ...
    Made in: 2005
  Basic Display Parameters & Features:
    Digital display
    Maximum image size: 37 cm x 23 cm
    Gamma: 2.20
    RGB color display
    First detailed timing is preferred timing
  Color Characteristics:
    Red  : 0.6308, 0.3466
    Green: 0.3056, 0.5898
    Blue : 0.1494, 0.0878
    White: 0.3125, 0.3281
  Established Timings I & II:
  Standard Timings: none
  Detailed Timing Descriptors:
    DTD 1:  1440x900    59.939 Hz   8:5    54.665 kHz  96.210 MHz (367 mm x 229 mm)
                 Hfront   64 Hsync  32 Hback 224 Hpol N
                 Vfront    3 Vsync   3 Vback   6 Vpol N
    Manufacturer-Specified Display Descriptor (0x01): 00 01 00 06 10 30 00 00 00 00 00 00 00 00 0a 20 '.....0......... '
    Alphanumeric Data String: 'LM171W02-TLB1'
    Display Product Name: 'Color LCD'
Checksum: 0x9

----------------

Failures:

Block 0, Base EDID:
  Missing Display Range Limits Descriptor.

EDID conformity: FAIL
