
EDID (hex):
00ffffffffffff000610589c01010101
000f0103802517780ab460a1584e9726
16505400001001010101010101010101
0101010101019525a04051840c304020
33006fe5100000180000000100061030
00000000000000000a20000000fe004c
4d3137315730322d544c4231000000fc
00436f6c6f72204c43440a2020200009

Extracted contents:
header:          00 ff ff ff ff ff ff 00
serial number:   06 10 58 9c 01 01 01 01 00 0f
version:         01 03
basic params:    80 25 17 78 0a
chroma info:     b4 60 a1 58 4e 97 26 16 50 54
established:     00 00 10
standard:        01 01 01 01 01 01 01 01 01 01 01 01 01 01 01 01
descriptor 1:    95 25 a0 40 51 84 0c 30 40 20 33 00 6f e5 10 00 00 18
descriptor 2:    00 00 00 01 00 06 10 30 00 00 00 00 00 00 00 00 0a 20
descriptor 3:    00 00 00 fe 00 4c 4d 31 37 31 57 30 32 2d 54 4c 42 31
descriptor 4:    00 00 00 fc 00 43 6f 6c 6f 72 20 4c 43 44 0a 20 20 20
extensions:      00
checksum:        09

EDID version: 1.3
Manufacturer: APP Model 9c58 Serial Number --
Digital display
Maximum image size: 37 cm x 23 cm
Gamma: 2.20
RGB color display
First detailed timing is preferred timing
Display x,y Chromaticity:
  Red:   0.6308, 0.3466
  Green: 0.3056, 0.5898
  Blue:  0.1494, 0.0878
  White: 0.3125, 0.3281
Established timings supported:
Standard timings supported:
Detailed mode: Clock 96.210 MHz, 367 mm x 229 mm
               1440 1504 1536 1760 hborder 0
                900  903  906  912 vborder 0
               -hsync -vsync 
               VertFreq: 59 Hz, HorFreq: 54664 Hz
Manufacturer-specified data, tag 1
ASCII string: LM171W02-TLB1
Monitor name: Color LCD
Checksum: 0x9 (valid)
EDID block does NOT conform to EDID 1.3!
	Missing monitor ranges
EDID block does not conform at all!
	Bad year of manufacture
