edid-decode (hex):

00 ff ff ff ff ff ff 00 30 ae 90 40 00 00 00 00
00 13 01 03 80 1d 10 78 ea fe e5 93 58 54 8c 28
20 50 54 00 00 00 01 01 01 01 01 01 01 01 01 01
01 01 01 01 01 01 ee 1b 56 90 50 00 15 30 28 20
36 00 25 a5 10 00 00 19 48 17 56 90 50 00 15 30
28 20 36 00 25 a5 10 00 00 19 00 00 00 0f 00 8c
09 32 8c 09 28 14 09 00 32 0c 00 00 00 00 00 fe
00 4c 50 31 33 33 57 48 32 2d 54 4c 4e 34 00 09

----------------

Block 0, Base EDID:
  EDID Structure Version & Revision: 1.3
  Vendor & Product Identification:
    Manufacturer: LEN
    Model: 16528
    Made in: 2009
  Basic Display Parameters & Features:
    Digital display
    Maximum image size: 29 cm x 16 cm
    Gamma: 2.20
    DPMS levels: Standby Suspend Off
    RGB color display
    First detailed timing is the preferred timing
  Color Characteristics:
    Red  : 0.5771, 0.3466
    Green: 0.3310, 0.5488
    Blue : 0.1591, 0.1269
    White: 0.3134, 0.3291
  Established Timings I & II: none
  Standard Timings: none
  Detailed Timing Descriptors:
    DTD 1:  1366x768    60.013933 Hz 683:384   47.351 kHz     71.500000 MHz (293 mm x 165 mm)
                 Hfront   40 Hsync  32 Hback   72 Hpol N
                 Vfront    3 Vsync   6 Vback   12 Vpol N
    DTD 2:  1366x768    50.025600 Hz 683:384   39.470 kHz     59.600000 MHz (293 mm x 165 mm)
                 Hfront   40 Hsync  32 Hback   72 Hpol N
                 Vfront    3 Vsync   6 Vback   12 Vpol N
    Manufacturer-Specified Display Descriptor (0x0f): 00 0f 00 8c 09 32 8c 09 28 14 09 00 32 0c 00 00 '.....2..(...2...'
    Alphanumeric Data String: 'LP133WH2-TLN4'
Checksum: 0x09

----------------

Failures:

Block 0, Base EDID:
  Missing Display Product Name.
  Missing Display Range Limits Descriptor.

EDID conformity: FAIL
