
EDID (hex):
00ffffffffffff0030ae904000000000
01140103801d1078ea15859758538a26
25505400000001010101010101010101
0101010101016c1b566c500019303020
360025a410000018da16566c50001930
3020360025a4100000180000000f008c
09328c092816090006af5631000000fe
004231333358573033205631200a0008

edid-decode (hex):

00 ff ff ff ff ff ff 00 30 ae 90 40 00 00 00 00
01 14 01 03 80 1d 10 78 ea 15 85 97 58 53 8a 26
25 50 54 00 00 00 01 01 01 01 01 01 01 01 01 01
01 01 01 01 01 01 6c 1b 56 6c 50 00 19 30 30 20
36 00 25 a4 10 00 00 18 da 16 56 6c 50 00 19 30
30 20 36 00 25 a4 10 00 00 18 00 00 00 0f 00 8c
09 32 8c 09 28 16 09 00 06 af 56 31 00 00 00 fe
00 42 31 33 33 58 57 30 33 20 56 31 20 0a 00 08

----------------

Block 0, Base EDID:
  EDID Structure Version & Revision: 1.3
  Vendor & Product Identification:
    Manufacturer: LEN
    Model: 16528
    Made in: week 1 of 2010
  Basic Display Parameters & Features:
    Digital display
    Maximum image size: 29 cm x 16 cm
    Gamma: 2.20
    DPMS levels: Standby Suspend Off
    RGB color display
    First detailed timing is the preferred timing
  Color Characteristics:
    Red  : 0.5898, 0.3447
    Green: 0.3251, 0.5400
    Blue : 0.1503, 0.1445
    White: 0.3134, 0.3291
  Established Timings I & II: none
  Standard Timings: none
  Detailed Timing Descriptors:
    DTD 1:  1366x768    60.057388 Hz 683:384   47.626 kHz     70.200000 MHz (293 mm x 164 mm)
                 Hfront   48 Hsync  32 Hback   28 Hpol N
                 Vfront    3 Vsync   6 Vback   16 Vpol N
    DTD 2:  1366x768    50.047823 Hz 683:384   39.688 kHz     58.500000 MHz (293 mm x 164 mm)
                 Hfront   48 Hsync  32 Hback   28 Hpol N
                 Vfront    3 Vsync   6 Vback   16 Vpol N
    Manufacturer-Specified Display Descriptor (0x0f): 00 0f 00 8c 09 32 8c 09 28 16 09 00 06 af 56 31 '.....2..(.....V1'
    Alphanumeric Data String: 'B133XW03 V1 '
Checksum: 0x08
