
EDID (hex):
00ffffffffffff0030ae904000000000
01130103801d1078eafad59555549327
21505400000001010101010101010101
010101010101ee1b565a500032303020
360025a4100000184617565a50003230
3020360025a4100000180000000f008c
09328c092816090006af5630000000fe
004231333358573031205630200a00d9

Extracted contents:
header:          00 ff ff ff ff ff ff 00
serial number:   30 ae 90 40 00 00 00 00 01 13
version:         01 03
basic params:    80 1d 10 78 ea
chroma info:     fa d5 95 55 54 93 27 21 50 54
established:     00 00 00
standard:        01 01 01 01 01 01 01 01 01 01 01 01 01 01 01 01
descriptor 1:    ee 1b 56 5a 50 00 32 30 30 20 36 00 25 a4 10 00 00 18
descriptor 2:    46 17 56 5a 50 00 32 30 30 20 36 00 25 a4 10 00 00 18
descriptor 3:    00 00 00 0f 00 8c 09 32 8c 09 28 16 09 00 06 af 56 30
descriptor 4:    00 00 00 fe 00 42 31 33 33 58 57 30 31 20 56 30 20 0a
extensions:      00
checksum:        d9

EDID version: 1.3
Manufacturer: LEN Model 4090 Serial Number --
Made in week 1 of 2009
Digital display
Maximum image size: 29 cm x 16 cm
Gamma: 2.20
DPMS levels: Standby Suspend Off
RGB color display
First detailed timing is preferred timing
Display x,y Chromaticity:
  Red:   0.5849, 0.3349
  Green: 0.3300, 0.5761
  Blue:  0.1552, 0.1298
  White: 0.3134, 0.3291
Established timings supported:
Standard timings supported:
Detailed mode: Clock 71.500 MHz, 293 mm x 164 mm
               1366 1414 1446 1456 hborder 0
                768  771  777  818 vborder 0
               -hsync -vsync 
               VertFreq: 60 Hz, HorFreq: 49107 Hz
Detailed mode: Clock 59.580 MHz, 293 mm x 164 mm
               1366 1414 1446 1456 hborder 0
                768  771  777  818 vborder 0
               -hsync -vsync 
               VertFreq: 50 Hz, HorFreq: 40920 Hz
Manufacturer-specified data, tag 15
ASCII string: B133XW01 V0 
Checksum: 0xd9 (valid)
EDID block does NOT conform to EDID 1.3!
	Missing name descriptor
	Missing monitor ranges
