
EDID (hex):
00ffffffffffff0030ae904000000000
01140103801d1078ea15859758538a26
25505400000001010101010101010101
0101010101016c1b566c500019303020
360025a410000018da16566c50001930
3020360025a4100000180000000f008c
09328c092816090006af5630000000fe
004231333358573033205630200a000a

Extracted contents:
header:          00 ff ff ff ff ff ff 00
serial number:   30 ae 90 40 00 00 00 00 01 14
version:         01 03
basic params:    80 1d 10 78 ea
chroma info:     15 85 97 58 53 8a 26 25 50 54
established:     00 00 00
standard:        01 01 01 01 01 01 01 01 01 01 01 01 01 01 01 01
descriptor 1:    6c 1b 56 6c 50 00 19 30 30 20 36 00 25 a4 10 00 00 18
descriptor 2:    da 16 56 6c 50 00 19 30 30 20 36 00 25 a4 10 00 00 18
descriptor 3:    00 00 00 0f 00 8c 09 32 8c 09 28 16 09 00 06 af 56 30
descriptor 4:    00 00 00 fe 00 42 31 33 33 58 57 30 33 20 56 30 20 0a
extensions:      00
checksum:        0a

EDID version: 1.3
Manufacturer: LEN Model 4090 Serial Number --
Made in week 1 of 2010
Digital display
Maximum image size: 29 cm x 16 cm
Gamma: 2.20
DPMS levels: Standby Suspend Off
RGB color display
First detailed timing is preferred timing
Display x,y Chromaticity:
  Red:   0.5898, 0.3447
  Green: 0.3251, 0.5400
  Blue:  0.1503, 0.1445
  White: 0.3134, 0.3291
Established timings supported:
Standard timings supported:
Detailed mode: Clock 70.200 MHz, 293 mm x 164 mm
               1366 1414 1446 1474 hborder 0
                768  771  777  793 vborder 0
               -hsync -vsync 
               VertFreq: 60 Hz, HorFreq: 47625 Hz
Detailed mode: Clock 58.500 MHz, 293 mm x 164 mm
               1366 1414 1446 1474 hborder 0
                768  771  777  793 vborder 0
               -hsync -vsync 
               VertFreq: 50 Hz, HorFreq: 39687 Hz
Manufacturer-specified data, tag 15
ASCII string: B133XW03 V0 
Checksum: 0xa (valid)
EDID block does NOT conform to EDID 1.3!
	Missing name descriptor
	Missing monitor ranges
