
EDID (hex):
00ffffffffffff0006af9d2000000000
001501049026157802c8959e57549226
0f505400000001010101010101010101
010101010101b03680b4703816403020
31007dd610000018752480b470381640
302031007dd610000018000000fe0041
554f0a202020202020202020000000fe
004231373348573032205630200a0080

Extracted contents:
header:          00 ff ff ff ff ff ff 00
serial number:   06 af 9d 20 00 00 00 00 00 15
version:         01 04
basic params:    90 26 15 78 02
chroma info:     c8 95 9e 57 54 92 26 0f 50 54
established:     00 00 00
standard:        01 01 01 01 01 01 01 01 01 01 01 01 01 01 01 01
descriptor 1:    b0 36 80 b4 70 38 16 40 30 20 31 00 7d d6 10 00 00 18
descriptor 2:    75 24 80 b4 70 38 16 40 30 20 31 00 7d d6 10 00 00 18
descriptor 3:    00 00 00 fe 00 41 55 4f 0a 20 20 20 20 20 20 20 20 20
descriptor 4:    00 00 00 fe 00 42 31 37 33 48 57 30 32 20 56 30 20 0a
extensions:      00
checksum:        80

EDID version: 1.4
Manufacturer: AUO Model 209d Serial Number --
Made in year 2011
Digital display
6 bits per primary color channel
Digital interface is not defined
Maximum image size: 38 cm x 21 cm
Gamma: 2.20
Supported color formats: RGB 4:4:4
First detailed timing includes the native pixel format and preferred refresh rate
Display x,y Chromaticity:
  Red:   0.6201, 0.3398
  Green: 0.3300, 0.5703
  Blue:  0.1503, 0.0595
  White: 0.3134, 0.3291
Established timings supported:
Standard timings supported:
Detailed mode: Clock 140.000 MHz, 381 mm x 214 mm
               1920 1968 2000 2100 hborder 0
               1080 1083 1084 1102 vborder 0
               -hsync -vsync 
               VertFreq: 60 Hz, HorFreq: 66666 Hz
Detailed mode: Clock 93.330 MHz, 381 mm x 214 mm
               1920 1968 2000 2100 hborder 0
               1080 1083 1084 1102 vborder 0
               -hsync -vsync 
               VertFreq: 40 Hz, HorFreq: 44442 Hz
ASCII string: AUO
ASCII string: B173HW02 V0 
Checksum: 0x80 (valid)
EDID block does NOT conform to EDID 1.4!
	Missing name descriptor
	Missing monitor ranges
