
EDID (hex):
00ffffffffffff0051f3865000000000
00000103801d1600ca00000000000000
00000000000001010101010101010101
010101010101302a7820511a10403070
13001ed710000018000000fc00544f53
4849424120496e74650a000000fc0072
6e616c2050616e656c20200a000000fc
000a0000000000000000000000000015

Extracted contents:
header:          00 ff ff ff ff ff ff 00
serial number:   51 f3 86 50 00 00 00 00 00 00
version:         01 03
basic params:    80 1d 16 00 ca
chroma info:     00 00 00 00 00 00 00 00 00 00
established:     00 00 00
standard:        01 01 01 01 01 01 01 01 01 01 01 01 01 01 01 01
descriptor 1:    30 2a 78 20 51 1a 10 40 30 70 13 00 1e d7 10 00 00 18
descriptor 2:    00 00 00 fc 00 54 4f 53 48 49 42 41 20 49 6e 74 65 0a
descriptor 3:    00 00 00 fc 00 72 6e 61 6c 20 50 61 6e 65 6c 20 20 0a
descriptor 4:    00 00 00 fc 00 0a 00 00 00 00 00 00 00 00 00 00 00 00
extensions:      00
checksum:        15

EDID version: 1.3
Manufacturer: TOS Model 5086 Serial Number --
Digital display
Maximum image size: 29 cm x 22 cm
Gamma: 1.00
DPMS levels: Standby Suspend
RGB color display
First detailed timing is preferred timing
Display x,y Chromaticity:
  Red:   0.0000, 0.0000
  Green: 0.0000, 0.0000
  Blue:  0.0000, 0.0000
  White: 0.0000, 0.0000
Established timings supported:
Standard timings supported:
Detailed mode: Clock 108.000 MHz, 286 mm x 215 mm
               1400 1448 1560 1688 hborder 0
               1050 1051 1054 1066 vborder 0
               -hsync -vsync 
               VertFreq: 60 Hz, HorFreq: 63981 Hz
Monitor name: TOSHIBA Inte
Checksum: 0x15 (valid)
EDID block does NOT conform to EDID 1.3!
	Missing monitor ranges
EDID block does not conform at all!
	Bad year of manufacture
