edid-decode (hex):

00 ff ff ff ff ff ff 00 51 f3 86 50 00 00 00 00
00 00 01 03 80 1d 16 00 ca 00 00 00 00 00 00 00
00 00 00 00 00 00 01 01 01 01 01 01 01 01 01 01
01 01 01 01 01 01 30 2a 78 20 51 1a 10 40 30 70
13 00 1e d7 10 00 00 18 00 00 00 fc 00 54 4f 53
48 49 42 41 20 49 6e 74 65 0a 00 00 00 fc 00 72
6e 61 6c 20 50 61 6e 65 6c 20 20 0a 00 00 00 fc
00 0a 00 00 00 00 00 00 00 00 00 00 00 00 00 15

----------------

Block 0, Base EDID:
  EDID Structure Version & Revision: 1.3
  Vendor & Product Identification:
    Manufacturer: TOS
    Model: 20614
    Made in: 1990
  Basic Display Parameters & Features:
    Digital display
    Maximum image size: 29 cm x 22 cm
    Gamma: 1.00
    DPMS levels: Standby Suspend
    RGB color display
    First detailed timing is the preferred timing
  Color Characteristics:
    Red  : 0.0000, 0.0000
    Green: 0.0000, 0.0000
    Blue : 0.0000, 0.0000
    White: 0.0000, 0.0000
  Established Timings I & II: none
  Standard Timings: none
  Detailed Timing Descriptors:
    DTD 1:  1400x1050   60.020 Hz   4:3    63.981 kHz 108.000 MHz (286 mm x 215 mm)
                 Hfront   48 Hsync 112 Hback 128 Hpol N
                 Vfront    1 Vsync   3 Vback  12 Vpol N
    Display Product Name: 'TOSHIBA Inte'
    Display Product Name: 'rnal Panel  '
    Display Product Name: ''
Checksum: 0x15

----------------

Failures:

Block 0, Base EDID:
  Display Product Name: One or more trailing spaces.
  Display Product Name: Empty string.
  Display Product Name: Non-space after newline.
  Missing Display Range Limits Descriptor.

EDID conformity: FAIL
