edid-decode (hex):

00 ff ff ff ff ff ff 00 0e 77 22 15 00 00 00 00
0b 23 01 04 a5 22 13 78 03 2c c5 94 5c 59 95 29
1e 50 54 00 00 00 01 01 01 01 01 01 01 01 01 01
01 01 01 01 01 01 9a 36 80 a0 70 38 28 40 30 20
36 00 58 c2 10 00 00 1a 00 00 00 10 00 28 3c 43
43 0e 00 0a 20 20 20 20 20 20 00 00 00 fe 00 43
53 4f 54 20 54 39 0a 20 20 20 20 20 00 00 00 fc
00 53 4e 46 36 30 31 42 53 31 2d 34 0a 20 00 03

00 ff ff ff ff ff ff 00 0e 77 22 15 00 00 00 00
0b 23 01 04 a5 22 13 78 03 2c c5 94 5c 59 95 29
1e 50 54 00 00 00 01 01 01 01 01 01 01 01 01 01
01 01 01 01 01 01 9a 36 80 a0 70 38 28 40 30 20
36 00 58 c2 10 00 00 1a 00 00 00 10 00 28 3c 43
43 0e 00 0a 20 20 20 20 20 20 00 00 00 fe 00 43
53 4f 54 20 54 39 0a 20 20 20 20 20 00 00 00 fc
00 53 4e 46 36 30 31 42 53 31 2d 34 0a 20 00 03

----------------

Block 0, Base EDID:
  EDID Structure Version & Revision: 1.4
  Vendor & Product Identification:
    Manufacturer: CSW
    Model: 5410
    Made in: week 11 of 2025
  Basic Display Parameters & Features:
    Digital display
    Bits per primary color channel: 8
    DisplayPort interface
    Maximum image size: 34 cm x 19 cm
    Gamma: 2.20
    Supported color formats: RGB 4:4:4
    First detailed timing includes the native pixel format and preferred refresh rate
    Display is continuous frequency
  Color Characteristics:
    Red  : 0.5781, 0.3613
    Green: 0.3505, 0.5820
    Blue : 0.1630, 0.1171
    White: 0.3134, 0.3291
  Established Timings I & II: none
  Standard Timings: none
  Detailed Timing Descriptors:
    DTD 1:  1920x1080   60.001717 Hz  16:9     67.202 kHz    139.780000 MHz (344 mm x 194 mm)
                 Hfront   48 Hsync  32 Hback   80 Hpol P
                 Vfront    3 Vsync   6 Vback   31 Vpol N
    Dummy Descriptor:
    Alphanumeric Data String: 'CSOT T9'
    Display Product Name: 'SNF601BS1-4'
Checksum: 0x03

----------------

Block 1, Unknown EDID Extension Block 0x00:
  00 ff ff ff ff ff ff 00 0e 77 22 15 00 00 00 00 '.........w".....'
  0b 23 01 04 a5 22 13 78 03 2c c5 94 5c 59 95 29 '.#...".x.,..\Y.)'
  1e 50 54 00 00 00 01 01 01 01 01 01 01 01 01 01 '.PT.............'
  01 01 01 01 01 01 9a 36 80 a0 70 38 28 40 30 20 '.......6..p8(@0 '
  36 00 58 c2 10 00 00 1a 00 00 00 10 00 28 3c 43 '6.X..........(<C'
  43 0e 00 0a 20 20 20 20 20 20 00 00 00 fe 00 43 'C...      .....C'
  53 4f 54 20 54 39 0a 20 20 20 20 20 00 00 00 fc 'SOT T9.     ....'
  00 53 4e 46 36 30 31 42 53 31 2d 34 0a 20 00 03 '.SNF601BS1-4. ..'
Checksum: 0x03

----------------

Failures:

Block 0, Base EDID:
  Dummy Descriptor: Dummy block filled with garbage.
  Missing Display Range Limits Descriptor.
Block 1, Base EDID:
  Unknown Extension Block.
EDID:
  Base EDID: EDID specified 0 extension block(s), but found 1 extension block(s).

EDID conformity: FAIL
