
EDID (hex):
00ffffffffffff0015c3791601010101
310e0102681e1778eaa415a554489725
0f5054bfee0001010101010101010101
01010101010164190040410026301888
360030e410000018000000ff00533839
37303132340a20202020000000fd0037
4c183d08000a202020202020000000fc
004c3336370a202020202020202000ea

Extracted contents:
header:          00 ff ff ff ff ff ff 00
serial number:   15 c3 79 16 01 01 01 01 31 0e
version:         01 02
basic params:    68 1e 17 78 ea
chroma info:     a4 15 a5 54 48 97 25 0f 50 54
established:     bf ee 00
standard:        01 01 01 01 01 01 01 01 01 01 01 01 01 01 01 01
descriptor 1:    64 19 00 40 41 00 26 30 18 88 36 00 30 e4 10 00 00 18
descriptor 2:    00 00 00 ff 00 53 38 39 37 30 31 32 34 0a 20 20 20 20
descriptor 3:    00 00 00 fd 00 37 4c 18 3d 08 00 0a 20 20 20 20 20 20
descriptor 4:    00 00 00 fc 00 4c 33 36 37 0a 20 20 20 20 20 20 20 20
extensions:      00
checksum:        ea

EDID version: 1.2
Manufacturer: ENC Model 1679 Serial Number --
Analog display, Input voltage level: 0.7/0.7 V
Sync: Separate 
Maximum image size: 30 cm x 23 cm
Gamma: 2.20
DPMS levels: Standby Suspend Off
RGB color display
First detailed timing is preferred timing
Display x,y Chromaticity:
  Red:   0.6464, 0.3300
  Green: 0.2822, 0.5898
  Blue:  0.1445, 0.0595
  White: 0.3134, 0.3291
Established timings supported:
  720x400@70Hz 9:5 HorFreq: 31469 Hz Clock: 28.320 MHz
  640x480@60Hz 4:3 HorFreq: 31469 Hz Clock: 25.175 MHz
  640x480@67Hz 4:3 HorFreq: 35000 Hz Clock: 30.240 MHz
  640x480@72Hz 4:3 HorFreq: 37900 Hz Clock: 31.500 MHz
  640x480@75Hz 4:3 HorFreq: 37500 Hz Clock: 31.500 MHz
  800x600@56Hz 4:3 HorFreq: 35200 Hz Clock: 36.000 MHz
  800x600@60Hz 4:3 HorFreq: 37900 Hz Clock: 40.000 MHz
  800x600@72Hz 4:3 HorFreq: 48100 Hz Clock: 50.000 MHz
  800x600@75Hz 4:3 HorFreq: 46900 Hz Clock: 49.500 MHz
  832x624@75Hz 4:3 HorFreq: 49726 Hz Clock: 57.284 MHz
  1024x768@60Hz 4:3 HorFreq: 48400 Hz Clock: 65.000 MHz
  1024x768@70Hz 4:3 HorFreq: 56500 Hz Clock: 75.000 MHz
  1024x768@75Hz 4:3 HorFreq: 60000 Hz Clock: 78.750 MHz
Standard timings supported:
Detailed mode: Clock 65.000 MHz, 304 mm x 228 mm
               1024 1048 1184 1344 hborder 0
                768  771  777  806 vborder 0
               -hsync -vsync 
               VertFreq: 60 Hz, HorFreq: 48363 Hz
Serial number: --
Monitor ranges (GTF): 55-76Hz V, 24-61kHz H, max dotclock 80MHz
Monitor name: L367
Checksum: 0xea (valid)
EDID block does not conform at all!
	Bad year of manufacture
