edid-decode (hex):

00 ff ff ff ff ff ff 00 26 cf e8 04 00 00 00 00
00 1b 01 04 a5 1c 10 78 0a 1d 39 a7 50 47 97 27
13 4f 54 00 00 00 01 01 01 01 01 01 01 01 01 01
01 01 01 01 01 01 60 6d 80 c8 70 38 14 40 18 30
35 00 14 9c 10 00 00 19 00 00 00 fe 00 4d 31 32
35 4e 56 46 36 20 52 30 20 0a 00 00 00 03 00 04
33 ff 05 3c 94 28 12 30 94 00 00 00 00 00 00 03
00 06 18 ff 0f 3c 3b 28 09 30 3b 01 01 00 00 14

----------------

Block 0, Base EDID:
  EDID Structure Version & Revision: 1.4
  Vendor & Product Identification:
    Manufacturer: IVO
    Model: 1256
    Made in: 2017
  Basic Display Parameters & Features:
    Digital display
    Bits per primary color channel: 8
    DisplayPort interface
    Maximum image size: 28 cm x 16 cm
    Gamma: 2.20
    Supported color formats: RGB 4:4:4, YCrCb 4:4:4
    First detailed timing includes the native pixel format and preferred refresh rate
  Color Characteristics:
    Red  : 0.6523, 0.3134
    Green: 0.2802, 0.5908
    Blue : 0.1523, 0.0771
    White: 0.3105, 0.3291
  Established Timings I & II: none
  Standard Timings: none
  Detailed Timing Descriptors:
    DTD 1:  1920x1080  120.068611 Hz  16:9    132.075 kHz    280.000000 MHz (276 mm x 156 mm)
                 Hfront   24 Hsync  48 Hback  128 Hpol N
                 Vfront    3 Vsync   5 Vback   12 Vpol N
    Alphanumeric Data String: 'M125NVF6 R0 '
    Manufacturer-Specified Display Descriptor (0x03): 00 03 00 04 33 ff 05 3c 94 28 12 30 94 00 00 00 '....3..<.(.0....'
    Manufacturer-Specified Display Descriptor (0x03): 00 03 00 06 18 ff 0f 3c 3b 28 09 30 3b 01 01 00 '.......<;(.0;...'
Checksum: 0x14

----------------

Warnings:

Block 0, Base EDID:
  Missing Display Product Name.

Failures:

Block 0, Base EDID:
  Alphanumeric Data String: One or more trailing spaces.

EDID conformity: FAIL
