edid-decode (hex):

00 ff ff ff ff ff ff 00 4c 83 49 42 00 00 00 00
00 18 01 04 a5 1b 0f 78 0a 36 25 93 56 55 93 29
1d 50 54 00 00 00 01 01 01 01 01 01 01 01 01 01
01 01 01 01 01 01 62 39 80 dc 70 38 40 40 30 20
25 00 14 9b 10 00 00 19 41 26 80 dc 70 38 40 40
30 20 25 00 14 9b 10 00 00 19 00 00 00 00 00 00
00 00 00 00 00 00 00 00 00 00 00 00 00 00 00 02
00 0c 33 ff 0a 3c 96 14 28 20 96 00 00 00 00 66

----------------

Block 0, Base EDID:
  EDID Structure Version & Revision: 1.4
  Vendor & Product Identification:
    Manufacturer: SDC
    Model: 16969
    Made in: 2014
  Basic Display Parameters & Features:
    Digital display
    Bits per primary color channel: 8
    DisplayPort interface
    Maximum image size: 27 cm x 15 cm
    Gamma: 2.20
    Supported color formats: RGB 4:4:4, YCrCb 4:4:4
    First detailed timing includes the native pixel format and preferred refresh rate
  Color Characteristics:
    Red  : 0.5742, 0.3388
    Green: 0.3330, 0.5761
    Blue : 0.1601, 0.1152
    White: 0.3134, 0.3291
  Established Timings I & II: none
  Standard Timings: none
  Detailed Timing Descriptors:
    DTD 1:  1920x1080   60.004 Hz  16:9    68.645 kHz 146.900 MHz (276 mm x 155 mm)
                 Hfront   48 Hsync  32 Hback 140 Hpol N
                 Vfront    2 Vsync   5 Vback  57 Vpol N
    DTD 2:  1920x1080   40.001 Hz  16:9    45.762 kHz  97.930 MHz (276 mm x 155 mm)
                 Hfront   48 Hsync  32 Hback 140 Hpol N
                 Vfront    2 Vsync   5 Vback  57 Vpol N
    Empty Descriptor
    Manufacturer-Specified Display Descriptor (0x02): 00 02 00 0c 33 ff 0a 3c 96 14 28 20 96 00 00 00 '....3..<..( ....'
Checksum: 0x66

----------------

Failures:

Block 0, Base EDID:
  Empty Descriptor: Use Dummy Descriptor instead of all zeroes.
  Missing Display Product Name.

EDID conformity: FAIL
