
EDID (hex):
00ffffffffffff004e64010001000000
0010010381502d780aee91a3544c9926
0f5054afee0031594559615901010101
01010101010164190040410026301888
3600c48e210000181b2150a051001e30
48883500c48e21000018000000fd0038
5520500b000a202020202020000000fc
00484454560a202020202020202001e5
02031bf2448584030726090707150750
8301000066030c00100080011d801871
1c1620582c2500c48e2100009e011d00
7251d01e206e285500c48e2100001e8c
0ad08a20e02d10103e9600c48e210000
188c0aa01451f01600267c4300c48e21
0000980e1f008051001e3040803700c4
8e2100001e00000000000000000000c6

Extracted contents:
header:          00 ff ff ff ff ff ff 00
serial number:   4e 64 01 00 01 00 00 00 00 10
version:         01 03
basic params:    81 50 2d 78 0a
chroma info:     ee 91 a3 54 4c 99 26 0f 50 54
established:     af ee 00
standard:        31 59 45 59 61 59 01 01 01 01 01 01 01 01 01 01
descriptor 1:    64 19 00 40 41 00 26 30 18 88 36 00 c4 8e 21 00 00 18
descriptor 2:    1b 21 50 a0 51 00 1e 30 48 88 35 00 c4 8e 21 00 00 18
descriptor 3:    00 00 00 fd 00 38 55 20 50 0b 00 0a 20 20 20 20 20 20
descriptor 4:    00 00 00 fc 00 48 44 54 56 0a 20 20 20 20 20 20 20 20
extensions:      01
checksum:        e5

EDID version: 1.3
Manufacturer: SSD Model 1 Serial Number --
Made in year 2006
Digital display
DFP 1.x compatible TMDS
Maximum image size: 80 cm x 45 cm
Gamma: 2.20
RGB color display
First detailed timing is preferred timing
Display x,y Chromaticity:
  Red:   0.6396, 0.3300
  Green: 0.2998, 0.5996
  Blue:  0.1503, 0.0595
  White: 0.3125, 0.3291
Established timings supported:
  720x400@70Hz 9:5 HorFreq: 31469 Hz Clock: 28.320 MHz
  640x480@60Hz 4:3 HorFreq: 31469 Hz Clock: 25.175 MHz
  640x480@72Hz 4:3 HorFreq: 37900 Hz Clock: 31.500 MHz
  640x480@75Hz 4:3 HorFreq: 37500 Hz Clock: 31.500 MHz
  800x600@56Hz 4:3 HorFreq: 35200 Hz Clock: 36.000 MHz
  800x600@60Hz 4:3 HorFreq: 37900 Hz Clock: 40.000 MHz
  800x600@72Hz 4:3 HorFreq: 48100 Hz Clock: 50.000 MHz
  800x600@75Hz 4:3 HorFreq: 46900 Hz Clock: 49.500 MHz
  832x624@75Hz 4:3 HorFreq: 49726 Hz Clock: 57.284 MHz
  1024x768@60Hz 4:3 HorFreq: 48400 Hz Clock: 65.000 MHz
  1024x768@70Hz 4:3 HorFreq: 56500 Hz Clock: 75.000 MHz
  1024x768@75Hz 4:3 HorFreq: 60000 Hz Clock: 78.750 MHz
Standard timings supported:
  640x480@85Hz 4:3 HorFreq: 43300 Hz Clock: 36.000 MHz
  800x600@85Hz 4:3 HorFreq: 53700 Hz Clock: 56.250 MHz
  1024x768@85Hz 4:3 HorFreq: 68700 Hz Clock: 94.500 MHz
Detailed mode: Clock 65.000 MHz, 708 mm x 398 mm
               1024 1048 1184 1344 hborder 0
                768  771  777  806 vborder 0
               -hsync -vsync 
               VertFreq: 60 Hz, HorFreq: 48363 Hz
Detailed mode: Clock 84.750 MHz, 708 mm x 398 mm
               1360 1432 1568 1776 hborder 0
                768  771  776  798 vborder 0
               -hsync -vsync 
               VertFreq: 59 Hz, HorFreq: 47719 Hz
Monitor ranges (GTF): 56-85Hz V, 32-80kHz H, max dotclock 110MHz
Monitor name: HDTV
Has 1 extension blocks
Checksum: 0xe5 (valid)

CTA extension block
Extension version: 3
23 bytes of CTA data
  Video data block
    VIC   5 1920x1080i@60Hz 16:9 (native) HorFreq: 33750 Hz Clock: 74.250 MHz
    VIC   4 1280x720@60Hz 16:9 (native) HorFreq: 45000 Hz Clock: 74.250 MHz
    VIC   3 720x480@60Hz 16:9  HorFreq: 31469 Hz Clock: 27.000 MHz
    VIC   7 1440x480i@60Hz 16:9  HorFreq: 15734 Hz Clock: 27.000 MHz
  Audio data block
    Linear PCM, max channels 2
      Supported sample rates (kHz): 48 44.1 32
      Supported sample sizes (bits): 24 20 16
    AC-3, max channels 6
      Supported sample rates (kHz): 48 44.1 32
      Maximum bit rate: 640 kHz
  Speaker allocation data block
    Speaker map:
      FL/FR - Front Left/Right
  Vendor-specific data block, OUI 000c03 (HDMI)
    Source physical address 1.0.0.0
    Supports_AI
Underscans PC formats by default
Basic audio support
Supports YCbCr 4:4:4
Supports YCbCr 4:2:2
2 native detailed modes
Detailed mode: Clock 74.250 MHz, 708 mm x 398 mm
               1920 2008 2052 2200 hborder 0
                540  542  547  562 vborder 0
               +hsync +vsync interlaced 
               VertFreq: 60 Hz, HorFreq: 33750 Hz
Detailed mode: Clock 74.250 MHz, 708 mm x 398 mm
               1280 1390 1430 1650 hborder 0
                720  725  730  750 vborder 0
               +hsync +vsync 
               VertFreq: 60 Hz, HorFreq: 45000 Hz
Detailed mode: Clock 27.000 MHz, 708 mm x 398 mm
                720  736  798  858 hborder 0
                480  489  495  525 vborder 0
               -hsync -vsync 
               VertFreq: 59 Hz, HorFreq: 31468 Hz
Detailed mode: Clock 27.000 MHz, 708 mm x 398 mm
               1440 1478 1602 1716 hborder 0
                240  244  247  262 vborder 0
               -hsync -vsync interlaced 
               VertFreq: 60 Hz, HorFreq: 15734 Hz
Detailed mode: Clock 79.500 MHz, 708 mm x 398 mm
               1280 1344 1472 1664 hborder 0
                768  771  778  798 vborder 0
               +hsync +vsync 
               VertFreq: 59 Hz, HorFreq: 47776 Hz
Checksum: 0xc6 (valid)

One or more of the timings is out of range of the Monitor Ranges:
  Vertical Freq: 56 - 85 Hz
  Horizontal Freq: 15734 - 68700 Hz
  Maximum Clock: 94.500 MHz
