
EDID (hex):
00ffffffffffff004089300001000000
32130104a5522e780a014ca755469924
12484b210800818095009040a9c00101
010101010101023a801871382d40582c
45007216110000590000001000d01e20
6e285500c48e2100001e0000001000a0
29503020350055502100001a000000fc
0050415241444554454348494e4300b6

Extracted contents:
header:          00 ff ff ff ff ff ff 00
serial number:   40 89 30 00 01 00 00 00 32 13
version:         01 04
basic params:    a5 52 2e 78 0a
chroma info:     01 4c a7 55 46 99 24 12 48 4b
established:     21 08 00
standard:        81 80 95 00 90 40 a9 c0 01 01 01 01 01 01 01 01
descriptor 1:    02 3a 80 18 71 38 2d 40 58 2c 45 00 72 16 11 00 00 59
descriptor 2:    00 00 00 10 00 d0 1e 20 6e 28 55 00 c4 8e 21 00 00 1e
descriptor 3:    00 00 00 10 00 a0 29 50 30 20 35 00 55 50 21 00 00 1a
descriptor 4:    00 00 00 fc 00 50 41 52 41 44 45 54 45 43 48 49 4e 43
extensions:      00
checksum:        b6

EDID version: 1.4
Manufacturer: PDI Model 30 Serial Number --
Made in week 50 of 2009
Digital display
8 bits per primary color channel
DisplayPort interface
Maximum image size: 82 cm x 46 cm
Gamma: 2.20
Supported color formats: RGB 4:4:4, YCrCb 4:4:4
First detailed timing includes the native pixel format and preferred refresh rate
Display x,y Chromaticity:
  Red:   0.6523, 0.3320
  Green: 0.2734, 0.5986
  Blue:  0.1416, 0.0703
  White: 0.2841, 0.2929
Established timings supported:
  640x480@60Hz 4:3 HorFreq: 31469 Hz Clock: 25.175 MHz
  800x600@60Hz 4:3 HorFreq: 37900 Hz Clock: 40.000 MHz
  1024x768@60Hz 4:3 HorFreq: 48400 Hz Clock: 65.000 MHz
Standard timings supported:
  1280x1024@60Hz 5:4 HorFreq: 64000 Hz Clock: 108.000 MHz
  1440x900@60Hz 16:10 HorFreq: 55500 Hz Clock: 88.750 MHz
  1400x1050@60Hz 4:3 HorFreq: 64700 Hz Clock: 101.000 MHz
  1600x900@60Hz 16:9
Detailed mode: Clock 148.500 MHz, 370 mm x 278 mm
               1920 2008 2052 2200 hborder 0
               1080 1084 1089 1125 vborder 0
               -hsync -vsync interleaved left even
               VertFreq: 60 Hz, HorFreq: 67500 Hz
Dummy block
Dummy block
Checksum: 0xb6 (valid)
EDID block does NOT conform to EDID 1.4!
	Name descriptor not terminated with a newline
	Missing monitor ranges
EDID block does not conform at all!
	Dummy block filled with garbage
