
EDID (hex):
00ffffffffffff004089300001000000
0516010481331d780ad2b5a358539c25
0f505421080001010101010101010101
010101010101023a801871382d40582c
4500fd1e1100001e000000fd00323e1e
5a145500c48e2100001e0000001000a0
29503020350055502100001a000000fc
0054462d4456490a202020202020003d

Extracted contents:
header:          00 ff ff ff ff ff ff 00
serial number:   40 89 30 00 01 00 00 00 05 16
version:         01 04
basic params:    81 33 1d 78 0a
chroma info:     d2 b5 a3 58 53 9c 25 0f 50 54
established:     21 08 00
standard:        01 01 01 01 01 01 01 01 01 01 01 01 01 01 01 01
descriptor 1:    02 3a 80 18 71 38 2d 40 58 2c 45 00 fd 1e 11 00 00 1e
descriptor 2:    00 00 00 fd 00 32 3e 1e 5a 14 55 00 c4 8e 21 00 00 1e
descriptor 3:    00 00 00 10 00 a0 29 50 30 20 35 00 55 50 21 00 00 1a
descriptor 4:    00 00 00 fc 00 54 46 2d 44 56 49 0a 20 20 20 20 20 20
extensions:      00
checksum:        3d

EDID version: 1.4
Manufacturer: PDI Model 30 Serial Number --
Made in week 5 of 2012
Digital display
Color depth is undefined
DVI interface
Maximum image size: 51 cm x 29 cm
Gamma: 2.20
Supported color formats: RGB 4:4:4, YCrCb 4:4:4
First detailed timing includes the native pixel format and preferred refresh rate
Display x,y Chromaticity:
  Red:   0.6396, 0.3447
  Green: 0.3242, 0.6113
  Blue:  0.1464, 0.0615
  White: 0.3134, 0.3291
Established timings supported:
  640x480@60Hz 4:3 HorFreq: 31469 Hz Clock: 25.175 MHz
  800x600@60Hz 4:3 HorFreq: 37900 Hz Clock: 40.000 MHz
  1024x768@60Hz 4:3 HorFreq: 48400 Hz Clock: 65.000 MHz
Standard timings supported:
Detailed mode: Clock 148.500 MHz, 509 mm x 286 mm
               1920 2008 2052 2200 hborder 0
               1080 1084 1089 1125 vborder 0
               +hsync +vsync 
               VertFreq: 60 Hz, HorFreq: 67500 Hz
Monitor ranges (invalid): 50-62Hz V, 30-90kHz H, max dotclock 200MHz
Dummy block
Monitor name: TF-DVI
Checksum: 0x3d (valid)
EDID block does not conform at all!
	Detailed blocks filled with garbage
	Dummy block filled with garbage
	Range descriptor contains garbage
