
EDID (hex):
00ffffffffffff0022d202aa00000000
081b0104a50c077802c7ecaa553cb723
0b4c5200000001010101010101010101
010101010101a4b5402cb14018607828
ac00774200000018a4b5402cb1401860
7828ac00774200000018000000fc0056
4956452050726f0a20202020000000fd
0017ff0fff32010a20202020202001c5
02030c40230916058301000000000000
00000000000000000000000000000000
00000000000000000000000000000000
00000000000000000000000000000000
00000000000000000000000000000000
00000000000000000000000000000000
00000000000000000000000000000000
000000000000000000000000000000e4

Extracted contents:
header:          00 ff ff ff ff ff ff 00
serial number:   22 d2 02 aa 00 00 00 00 08 1b
version:         01 04
basic params:    a5 0c 07 78 02
chroma info:     c7 ec aa 55 3c b7 23 0b 4c 52
established:     00 00 00
standard:        01 01 01 01 01 01 01 01 01 01 01 01 01 01 01 01
descriptor 1:    a4 b5 40 2c b1 40 18 60 78 28 ac 00 77 42 00 00 00 18
descriptor 2:    a4 b5 40 2c b1 40 18 60 78 28 ac 00 77 42 00 00 00 18
descriptor 3:    00 00 00 fc 00 56 49 56 45 20 50 72 6f 0a 20 20 20 20
descriptor 4:    00 00 00 fd 00 17 ff 0f ff 32 01 0a 20 20 20 20 20 20
extensions:      01
checksum:        c5

EDID version: 1.4
Manufacturer: HVR Model aa02 Serial Number --
Made in week 8 of 2017
Digital display
8 bits per primary color channel
DisplayPort interface
Maximum image size: 12 cm x 7 cm
Gamma: 2.20
Supported color formats: RGB 4:4:4
First detailed timing includes the native pixel format and preferred refresh rate
Display x,y Chromaticity:
  Red:   0.6669, 0.3320
  Green: 0.2353, 0.7177
  Blue:  0.1396, 0.0449
  White: 0.2998, 0.3203
Established timings supported:
Standard timings supported:
Detailed mode: Clock 465.000 MHz, 119 mm x 66 mm
               2880 3000 3040 3180 hborder 0
               1600 1610 1622 1624 vborder 0
               -hsync -vsync 
               VertFreq: 90 Hz, HorFreq: 146226 Hz
Detailed mode: Clock 465.000 MHz, 119 mm x 66 mm
               2880 3000 3040 3180 hborder 0
               1600 1610 1622 1624 vborder 0
               -hsync -vsync 
               VertFreq: 90 Hz, HorFreq: 146226 Hz
Monitor name: VIVE Pro
Monitor ranges (bare limits): 23-255Hz V, 15-255kHz H, max dotclock 500MHz
Has 1 extension blocks
Checksum: 0xc5 (valid)

CTA extension block
Extension version: 3
8 bytes of CTA data
  Audio data block
    Linear PCM, max channels 2
      Supported sample rates (kHz): 96 48 44.1
      Supported sample sizes (bits): 24 16
  Speaker allocation data block
    Speaker map:
      FL/FR - Front Left/Right
Basic audio support
0 native detailed modes
Checksum: 0xe4 (valid)

EDID block does NOT conform to EDID 1.4!
	Required 640x480p60 timings are missing in the established timings
	and/or in the SVD list (VIC 1)


