
EDID (hex):
00ffffffffffff000daea81300000000
1c1d0104951d117803ee95a3544c9926
0f505400000001010101010101010101
010101010101a43880e670382c403020
a60025a51000001ac32580e670382c40
3020a60025a51000001a000000000000
00000000000000000000000000000002
000c33ff0f3c96120c1e96000000004d

Extracted contents:
header:          00 ff ff ff ff ff ff 00
serial number:   0d ae a8 13 00 00 00 00 1c 1d
version:         01 04
basic params:    95 1d 11 78 03
chroma info:     ee 95 a3 54 4c 99 26 0f 50 54
established:     00 00 00
standard:        01 01 01 01 01 01 01 01 01 01 01 01 01 01 01 01
descriptor 1:    a4 38 80 e6 70 38 2c 40 30 20 a6 00 25 a5 10 00 00 1a
descriptor 2:    c3 25 80 e6 70 38 2c 40 30 20 a6 00 25 a5 10 00 00 1a
descriptor 3:    00 00 00 00 00 00 00 00 00 00 00 00 00 00 00 00 00 00
descriptor 4:    00 00 00 02 00 0c 33 ff 0f 3c 96 12 0c 1e 96 00 00 00
extensions:      00
checksum:        4d

EDID version: 1.4
Manufacturer: CMN Model 13a8 Serial Number --
Made in week 28 of 2019
Digital display
6 bits per primary color channel
DisplayPort interface
Maximum image size: 29 cm x 17 cm
Gamma: 2.20
Supported color formats: RGB 4:4:4
First detailed timing includes the native pixel format and preferred refresh rate
Display is continuous frequency
Display x,y Chromaticity:
  Red:   0.6396, 0.3300
  Green: 0.2998, 0.5996
  Blue:  0.1503, 0.0595
  White: 0.3134, 0.3291
Established timings supported:
Standard timings supported:
Detailed mode: Clock 145.000 MHz, 293 mm x 165 mm
               1920 1968 2000 2150 hborder 0
               1080 1090 1096 1124 vborder 0
               +hsync -vsync 
               VertFreq: 60 Hz, HorFreq: 67441 Hz
Detailed mode: Clock 96.670 MHz, 293 mm x 165 mm
               1920 1968 2000 2150 hborder 0
               1080 1090 1096 1124 vborder 0
               +hsync -vsync 
               VertFreq: 40 Hz, HorFreq: 44962 Hz
Manufacturer-specified data, tag 0
Manufacturer-specified data, tag 2
Checksum: 0x4d (valid)
EDID block does NOT conform to EDID 1.4!
	Missing name descriptor
	Missing monitor ranges
