
EDID (hex):
00ffffffffffff00318c000000000000
1415010368301e782a58209753509026
1e5054afcf0071408180814081c00101
010101010101d42156b0510023304070
360030e41100001e662150b051001b30
0070264430e41100001e641900404100
2630a088d60430e411000018000000fd
00384c1e5314000a20202020202000f5

Extracted contents:
header:          00 ff ff ff ff ff ff 00
serial number:   31 8c 00 00 00 00 00 00 14 15
version:         01 03
basic params:    68 30 1e 78 2a
chroma info:     58 20 97 53 50 90 26 1e 50 54
established:     af cf 00
standard:        71 40 81 80 81 40 81 c0 01 01 01 01 01 01 01 01
descriptor 1:    d4 21 56 b0 51 00 23 30 40 70 36 00 30 e4 11 00 00 1e
descriptor 2:    66 21 50 b0 51 00 1b 30 00 70 26 44 30 e4 11 00 00 1e
descriptor 3:    64 19 00 40 41 00 26 30 a0 88 d6 04 30 e4 11 00 00 18
descriptor 4:    00 00 00 fd 00 38 4c 1e 53 14 00 0a 20 20 20 20 20 20
extensions:      00
checksum:        f5

EDID version: 1.3
Manufacturer: LLL Model 0 Serial Number --
Made in week 20 of 2011
Analog display, Input voltage level: 0.7/0.7 V
Sync: Separate 
Maximum image size: 48 cm x 30 cm
Gamma: 2.20
DPMS levels: Off
RGB color display
First detailed timing is preferred timing
Display x,y Chromaticity:
  Red:   0.5908, 0.3251
  Green: 0.3144, 0.5625
  Blue:  0.1484, 0.1191
  White: 0.3125, 0.3281
Established timings supported:
  720x400@70Hz 9:5 HorFreq: 31469 Hz Clock: 28.320 MHz
  640x480@60Hz 4:3 HorFreq: 31469 Hz Clock: 25.175 MHz
  640x480@72Hz 4:3 HorFreq: 37900 Hz Clock: 31.500 MHz
  640x480@75Hz 4:3 HorFreq: 37500 Hz Clock: 31.500 MHz
  800x600@56Hz 4:3 HorFreq: 35200 Hz Clock: 36.000 MHz
  800x600@60Hz 4:3 HorFreq: 37900 Hz Clock: 40.000 MHz
  800x600@72Hz 4:3 HorFreq: 48100 Hz Clock: 50.000 MHz
  800x600@75Hz 4:3 HorFreq: 46900 Hz Clock: 49.500 MHz
  1024x768@60Hz 4:3 HorFreq: 48400 Hz Clock: 65.000 MHz
  1024x768@70Hz 4:3 HorFreq: 56500 Hz Clock: 75.000 MHz
  1024x768@75Hz 4:3 HorFreq: 60000 Hz Clock: 78.750 MHz
  1280x1024@75Hz 5:4 HorFreq: 80000 Hz Clock: 135.000 MHz
Standard timings supported:
  1152x864@60Hz 4:3
  1280x1024@60Hz 5:4 HorFreq: 64000 Hz Clock: 108.000 MHz
  1280x960@60Hz 4:3 HorFreq: 60000 Hz Clock: 108.000 MHz
  1280x720@60Hz 16:9
Detailed mode: Clock 86.600 MHz, 304 mm x 484 mm
               1366 1430 1542 1798 hborder 0
                768  771  777  803 vborder 0
               +hsync +vsync 
               VertFreq: 59 Hz, HorFreq: 48164 Hz
Detailed mode: Clock 85.500 MHz, 304 mm x 484 mm
               1360 1616 1728 1792 hborder 0
                768  786  792  795 vborder 0
               +hsync +vsync 
               VertFreq: 60 Hz, HorFreq: 47712 Hz
Detailed mode: Clock 65.000 MHz, 304 mm x 484 mm
               1024 1184 1320 1344 hborder 0
                768  797  803  806 vborder 0
               -hsync -vsync 
               VertFreq: 60 Hz, HorFreq: 48363 Hz
Monitor ranges (GTF): 56-76Hz V, 30-83kHz H, max dotclock 200MHz
Checksum: 0xf5 (valid)
EDID block does NOT conform to EDID 1.3!
	Missing name descriptor
