
EDID (hex):
00ffffffffffff0030ae061201000000
021b0104a0351e78e6bd00a655519c27
0f505400000001010101010101010101
010101010101023a801871382d40582c
45000f282100001e000000fc004c454e
2d3234494b4c2d420a20000000fd0039
3e535310000a202020202020000000fe
004c4d3233385746352d5353413100be

Extracted contents:
header:          00 ff ff ff ff ff ff 00
serial number:   30 ae 06 12 01 00 00 00 02 1b
version:         01 04
basic params:    a0 35 1e 78 e6
chroma info:     bd 00 a6 55 51 9c 27 0f 50 54
established:     00 00 00
standard:        01 01 01 01 01 01 01 01 01 01 01 01 01 01 01 01
descriptor 1:    02 3a 80 18 71 38 2d 40 58 2c 45 00 0f 28 21 00 00 1e
descriptor 2:    00 00 00 fc 00 4c 45 4e 2d 32 34 49 4b 4c 2d 42 0a 20
descriptor 3:    00 00 00 fd 00 39 3e 53 53 10 00 0a 20 20 20 20 20 20
descriptor 4:    00 00 00 fe 00 4c 4d 32 33 38 57 46 35 2d 53 53 41 31
extensions:      00
checksum:        be

EDID version: 1.4
Manufacturer: LEN Model 1206 Serial Number --
Made in week 2 of 2017
Digital display
8 bits per primary color channel
Digital interface is not defined
Maximum image size: 53 cm x 30 cm
Gamma: 2.20
DPMS levels: Standby Suspend Off
Supported color formats: RGB 4:4:4
Default (sRGB) color space is primary color space
First detailed timing includes the native pixel format and preferred refresh rate
Display x,y Chromaticity:
  Red:   0.6503, 0.3349
  Green: 0.3193, 0.6103
  Blue:  0.1523, 0.0585
  White: 0.3125, 0.3281
Established timings supported:
Standard timings supported:
Detailed mode: Clock 148.500 MHz, 527 mm x 296 mm
               1920 2008 2052 2200 hborder 0
               1080 1084 1089 1125 vborder 0
               +hsync +vsync 
               VertFreq: 60 Hz, HorFreq: 67500 Hz
Monitor name: LEN-24IKL-B
Monitor ranges (GTF): 57-62Hz V, 83-83kHz H, max dotclock 160MHz
ASCII string: LM238WF5-SSA1
Checksum: 0xbe (valid)
EDID block does NOT conform to EDID 1.4!
	sRGB is signaled, but the chromaticities do not match
Warning: One or more of the timings is out of range of the Monitor Ranges:
  Vertical Freq: 60 - 60 Hz
  Horizontal Freq: 67500 - 67500 Hz
  Maximum Clock: 148.500 MHz
