edid-decode (hex):

00 ff ff ff ff ff ff 00 21 63 fe 3c 00 00 00 00
00 1f 01 04 95 22 13 78 0a 90 f0 94 5b 59 93 28
1e 50 54 00 00 00 01 01 01 01 01 01 01 01 01 01
01 01 01 01 01 01 14 37 80 a0 70 38 32 40 30 20
ac 00 58 c2 10 00 00 18 12 2c 80 a0 70 38 32 40
30 20 ac 00 58 c2 10 00 00 18 00 00 00 fe 00 33
47 57 32 30 00 31 35 36 43 53 30 31 00 00 00 00
00 00 41 21 16 00 10 00 00 09 01 0a 20 20 00 6a

00 ff ff ff ff ff ff 00 21 63 fe 3c 00 00 00 00
00 1f 01 04 95 22 13 78 0a 90 f0 94 5b 59 93 28
1e 50 54 00 00 00 01 01 01 01 01 01 01 01 01 01
01 01 01 01 01 01 14 37 80 a0 70 38 32 40 30 20
ac 00 58 c2 10 00 00 18 12 2c 80 a0 70 38 32 40
30 20 ac 00 58 c2 10 00 00 18 00 00 00 fe 00 33
47 57 32 30 00 31 35 36 43 53 30 31 00 00 00 00
00 00 41 21 16 00 10 00 00 09 01 0a 20 20 00 6a

----------------

Block 0, Base EDID:
  EDID Structure Version & Revision: 1.4
  Vendor & Product Identification:
    Manufacturer: HKC
    Model: 15614
    Made in: 2021
  Basic Display Parameters & Features:
    Digital display
    Bits per primary color channel: 6
    DisplayPort interface
    Maximum image size: 34 cm x 19 cm
    Gamma: 2.20
    Supported color formats: RGB 4:4:4, YCrCb 4:4:4
    First detailed timing includes the native pixel format and preferred refresh rate
  Color Characteristics:
    Red  : 0.5800, 0.3564
    Green: 0.3476, 0.5742
    Blue : 0.1591, 0.1201
    White: 0.3125, 0.3281
  Established Timings I & II: none
  Standard Timings: none
  Detailed Timing Descriptors:
    DTD 1:  1920x1080   59.989789 Hz  16:9     67.788 kHz    141.000000 MHz (344 mm x 194 mm)
                 Hfront   48 Hsync  32 Hback   80 Hpol N
                 Vfront   10 Vsync  12 Vback   28 Vpol N
    DTD 2:  1920x1080   48.000340 Hz  16:9     54.240 kHz    112.820000 MHz (344 mm x 194 mm)
                 Hfront   48 Hsync  32 Hback   80 Hpol N
                 Vfront   10 Vsync  12 Vback   28 Vpol N
    Alphanumeric Data String: '3GW20'
    Manufacturer-Specified Display Descriptor (0x00): 00 00 00 00 41 21 16 00 10 00 00 09 01 0a 20 20 '....A!........  '
Checksum: 0x6a

----------------

Block 1, Unknown EDID Extension Block 0x00:
  00 ff ff ff ff ff ff 00 21 63 fe 3c 00 00 00 00 '........!c.<....'
  00 1f 01 04 95 22 13 78 0a 90 f0 94 5b 59 93 28 '.....".x....[Y.('
  1e 50 54 00 00 00 01 01 01 01 01 01 01 01 01 01 '.PT.............'
  01 01 01 01 01 01 14 37 80 a0 70 38 32 40 30 20 '.......7..p82@0 '
  ac 00 58 c2 10 00 00 18 12 2c 80 a0 70 38 32 40 '..X......,..p82@'
  30 20 ac 00 58 c2 10 00 00 18 00 00 00 fe 00 33 '0 ..X..........3'
  47 57 32 30 00 31 35 36 43 53 30 31 00 00 00 00 'GW20.156CS01....'
  00 00 41 21 16 00 10 00 00 09 01 0a 20 20 00 6a '..A!........  .j'
Checksum: 0x6a

----------------

Warnings:

Block 0, Base EDID:
  Missing Display Product Name.

Failures:

Block 0, Base EDID:
  Alphanumeric Data String: Non-printable character.
Block 1, Base EDID:
  Unknown Extension Block.
EDID:
  Base EDID: EDID specified 0 extension block(s), but found 1 extension block(s).

EDID conformity: FAIL
