
EDID (hex):
00ffffffffffff0030e4b50500000000
001b0104952615780a0bb5a35955a027
0c505400000001010101010101010101
010101010101b434806870381f403020
35007ed71000001a2a2a806870381f40
302035007ed71000001a000000fe0030
314d4a4b803137335746340a00000000
000041319e001000000a010a20200060

Extracted contents:
header:          00 ff ff ff ff ff ff 00
serial number:   30 e4 b5 05 00 00 00 00 00 1b
version:         01 04
basic params:    95 26 15 78 0a
chroma info:     0b b5 a3 59 55 a0 27 0c 50 54
established:     00 00 00
standard:        01 01 01 01 01 01 01 01 01 01 01 01 01 01 01 01
descriptor 1:    b4 34 80 68 70 38 1f 40 30 20 35 00 7e d7 10 00 00 1a
descriptor 2:    2a 2a 80 68 70 38 1f 40 30 20 35 00 7e d7 10 00 00 1a
descriptor 3:    00 00 00 fe 00 30 31 4d 4a 4b 80 31 37 33 57 46 34 0a
descriptor 4:    00 00 00 00 00 00 41 31 9e 00 10 00 00 0a 01 0a 20 20
extensions:      00
checksum:        60

EDID version: 1.4
Manufacturer: LGD Model 5b5 Serial Number --
Made in year 2017
Digital display
6 bits per primary color channel
DisplayPort interface
Maximum image size: 38 cm x 21 cm
Gamma: 2.20
Supported color formats: RGB 4:4:4, YCrCb 4:4:4
First detailed timing includes the native pixel format and preferred refresh rate
Display x,y Chromaticity:
  Red:   0.6367, 0.3476
  Green: 0.3339, 0.6279
  Blue:  0.1542, 0.0498
  White: 0.3134, 0.3291
Established timings supported:
Standard timings supported:
Detailed mode: Clock 134.920 MHz, 382 mm x 215 mm
               1920 1968 2000 2024 hborder 0
               1080 1083 1088 1111 vborder 0
               +hsync -vsync 
               VertFreq: 60 Hz, HorFreq: 66660 Hz
Detailed mode: Clock 107.940 MHz, 382 mm x 215 mm
               1920 1968 2000 2024 hborder 0
               1080 1083 1088 1111 vborder 0
               +hsync -vsync 
               VertFreq: 48 Hz, HorFreq: 53330 Hz
ASCII string: 01MJK
Manufacturer-specified data, tag 0
Checksum: 0x60 (valid)
EDID block does NOT conform to EDID 1.4!
	Missing name descriptor
	Missing monitor ranges
	Detailed block string not properly terminated
