
EDID (hex):
00ffffffffffff0038b83d2401010101
31140104a5301b78e25b85a458539f26
0f5054a54b00d1c0b300a9c0818081c0
010101010101023a801871382d40582c
4500dd0c1100001e000000fc00323456
440a2020202020202020000000fd0038
4c1f5210000a202020202020000000ff
00323456444147303439303731340004

Extracted contents:
header:          00 ff ff ff ff ff ff 00
serial number:   38 b8 3d 24 01 01 01 01 31 14
version:         01 04
basic params:    a5 30 1b 78 e2
chroma info:     5b 85 a4 58 53 9f 26 0f 50 54
established:     a5 4b 00
standard:        d1 c0 b3 00 a9 c0 81 80 81 c0 01 01 01 01 01 01
descriptor 1:    02 3a 80 18 71 38 2d 40 58 2c 45 00 dd 0c 11 00 00 1e
descriptor 2:    00 00 00 fc 00 32 34 56 44 0a 20 20 20 20 20 20 20 20
descriptor 3:    00 00 00 fd 00 38 4c 1f 52 10 00 0a 20 20 20 20 20 20
descriptor 4:    00 00 00 ff 00 32 34 56 44 41 47 30 34 39 30 37 31 34
extensions:      00
checksum:        04

EDID version: 1.4
Manufacturer: NEX Model 243d Serial Number --
Made in week 49 of 2010
Digital display
8 bits per primary color channel
DisplayPort interface
Maximum image size: 48 cm x 27 cm
Gamma: 2.20
DPMS levels: Standby Suspend Off
Supported color formats: RGB 4:4:4
First detailed timing includes the native pixel format and preferred refresh rate
Display x,y Chromaticity:
  Red:   0.6416, 0.3447
  Green: 0.3261, 0.6240
  Blue:  0.1503, 0.0585
  White: 0.3134, 0.3291
Established timings supported:
  720x400@70Hz 9:5 HorFreq: 31469 Hz Clock: 28.320 MHz
  640x480@60Hz 4:3 HorFreq: 31469 Hz Clock: 25.175 MHz
  640x480@75Hz 4:3 HorFreq: 37500 Hz Clock: 31.500 MHz
  800x600@60Hz 4:3 HorFreq: 37900 Hz Clock: 40.000 MHz
  800x600@75Hz 4:3 HorFreq: 46900 Hz Clock: 49.500 MHz
  1024x768@60Hz 4:3 HorFreq: 48400 Hz Clock: 65.000 MHz
  1024x768@75Hz 4:3 HorFreq: 60000 Hz Clock: 78.750 MHz
  1280x1024@75Hz 5:4 HorFreq: 80000 Hz Clock: 135.000 MHz
Standard timings supported:
  1920x1080@60Hz 16:9
  1680x1050@60Hz 16:10 HorFreq: 64700 Hz Clock: 119.000 MHz
  1600x900@60Hz 16:9
  1280x1024@60Hz 5:4 HorFreq: 64000 Hz Clock: 108.000 MHz
  1280x720@60Hz 16:9
Detailed mode: Clock 148.500 MHz, 477 mm x 268 mm
               1920 2008 2052 2200 hborder 0
               1080 1084 1089 1125 vborder 0
               +hsync +vsync 
               VertFreq: 60 Hz, HorFreq: 67500 Hz
Monitor name: 24VD
Monitor ranges (GTF): 56-76Hz V, 31-82kHz H, max dotclock 160MHz
Serial number: --
Checksum: 0x4 (valid)
