
EDID (hex):
00ffffffffffff0022f0183301010101
231b0104a53c2278227b45a4554aa227
0b5054a70800d1c081c081809500a9c0
b30081000101023a801871382d40582c
450058542100001e000000fd00384b1e
530f010a202020202020000000fc0048
502056323235687a0a202020000000ff
004252473733353035584d0a2020006f

Extracted contents:
header:          00 ff ff ff ff ff ff 00
serial number:   22 f0 18 33 01 01 01 01 23 1b
version:         01 04
basic params:    a5 3c 22 78 22
chroma info:     7b 45 a4 55 4a a2 27 0b 50 54
established:     a7 08 00
standard:        d1 c0 81 c0 81 80 95 00 a9 c0 b3 00 81 00 01 01
descriptor 1:    02 3a 80 18 71 38 2d 40 58 2c 45 00 58 54 21 00 00 1e
descriptor 2:    00 00 00 fd 00 38 4b 1e 53 0f 01 0a 20 20 20 20 20 20
descriptor 3:    00 00 00 fc 00 48 50 20 56 32 32 35 68 7a 0a 20 20 20
descriptor 4:    00 00 00 ff 00 42 52 47 37 33 35 30 35 58 4d 0a 20 20
extensions:      00
checksum:        6f

EDID version: 1.4
Manufacturer: HWP Model 3318 Serial Number --
Made in week 35 of 2017
Digital display
8 bits per primary color channel
DisplayPort interface
Maximum image size: 60 cm x 34 cm
Gamma: 2.20
DPMS levels: Off
Supported color formats: RGB 4:4:4
First detailed timing includes the native pixel format and preferred refresh rate
Display x,y Chromaticity:
  Red:   0.6416, 0.3349
  Green: 0.2910, 0.6357
  Blue:  0.1533, 0.0429
  White: 0.3134, 0.3291
Established timings supported:
  720x400@70Hz 9:5 HorFreq: 31469 Hz Clock: 28.320 MHz
  640x480@60Hz 4:3 HorFreq: 31469 Hz Clock: 25.175 MHz
  640x480@75Hz 4:3 HorFreq: 37500 Hz Clock: 31.500 MHz
  800x600@56Hz 4:3 HorFreq: 35200 Hz Clock: 36.000 MHz
  800x600@60Hz 4:3 HorFreq: 37900 Hz Clock: 40.000 MHz
  1024x768@60Hz 4:3 HorFreq: 48400 Hz Clock: 65.000 MHz
Standard timings supported:
  1920x1080@60Hz 16:9
  1280x720@60Hz 16:9
  1280x1024@60Hz 5:4 HorFreq: 64000 Hz Clock: 108.000 MHz
  1440x900@60Hz 16:10 HorFreq: 55500 Hz Clock: 88.750 MHz
  1600x900@60Hz 16:9
  1680x1050@60Hz 16:10 HorFreq: 64700 Hz Clock: 119.000 MHz
  1280x800@60Hz 16:10
Detailed mode: Clock 148.500 MHz, 600 mm x 340 mm
               1920 2008 2052 2200 hborder 0
               1080 1084 1089 1125 vborder 0
               +hsync +vsync 
               VertFreq: 60 Hz, HorFreq: 67500 Hz
Monitor ranges (bare limits): 56-75Hz V, 30-83kHz H, max dotclock 150MHz
Monitor name: HP V225hz
Serial number: --
Checksum: 0x6f (valid)


