
EDID (hex):
00ffffffffffff0030e46c0300000000
00160104901c10780ad4659558558e28
1f505400000001010101010101010101
010101010101301b567050000e302020
2400159c1000001a301b56ae5100c830
30303500159c1000001a000000fe0038
59393254803132355748320a00000000
00004131940010000001010a2020009d

Extracted contents:
header:          00 ff ff ff ff ff ff 00
serial number:   30 e4 6c 03 00 00 00 00 00 16
version:         01 04
basic params:    90 1c 10 78 0a
chroma info:     d4 65 95 58 55 8e 28 1f 50 54
established:     00 00 00
standard:        01 01 01 01 01 01 01 01 01 01 01 01 01 01 01 01
descriptor 1:    30 1b 56 70 50 00 0e 30 20 20 24 00 15 9c 10 00 00 1a
descriptor 2:    30 1b 56 ae 51 00 c8 30 30 30 35 00 15 9c 10 00 00 1a
descriptor 3:    00 00 00 fe 00 38 59 39 32 54 80 31 32 35 57 48 32 0a
descriptor 4:    00 00 00 00 00 00 41 31 94 00 10 00 00 01 01 0a 20 20
extensions:      00
checksum:        9d

EDID version: 1.4
Manufacturer: LGD Model 36c Serial Number --
Made in year 2012
Digital display
6 bits per primary color channel
Digital interface is not defined
Maximum image size: 28 cm x 16 cm
Gamma: 2.20
Supported color formats: RGB 4:4:4, YCrCb 4:4:4
First detailed timing includes the native pixel format and preferred refresh rate
Display x,y Chromaticity:
  Red:   0.5849, 0.3447
  Green: 0.3330, 0.5546
  Blue:  0.1572, 0.1230
  White: 0.3134, 0.3291
Established timings supported:
Standard timings supported:
Detailed mode: Clock 69.600 MHz, 277 mm x 156 mm
               1366 1398 1430 1478 hborder 0
                768  770  774  782 vborder 0
               +hsync -vsync 
               VertFreq: 60 Hz, HorFreq: 47090 Hz
Detailed mode: Clock 69.600 MHz, 277 mm x 156 mm
               1366 1414 1462 1796 hborder 0
                768  771  776  968 vborder 0
               +hsync -vsync 
               VertFreq: 40 Hz, HorFreq: 38752 Hz
ASCII string: 8Y92T
Manufacturer-specified data, tag 0
Checksum: 0x9d (valid)
EDID block does NOT conform to EDID 1.4!
	Missing name descriptor
	Missing monitor ranges
	Detailed block string not properly terminated
