
EDID (hex):
00ffffffffffff000d04300001000000
01140103805d35782a501fa359499724
bb4f53210800818081c08100d1c0617c
81fc0101010164190040410026301888
3600a61432000018662150b051001b30
40703600a6143200001e0e1f00805100
1e3050803700a6143200001c000000fc
00434848574a540a2020202020200125
020328f24e0102038405071012931416
1f202223091707830100006c030c0020
00982920a0020141011d00bc52d01e20
b8285540a6143200001e011d007251d0
1e206e285500a6143200001e00000000
00000000000000000000000000000000
00000000000000000000000000000000
000000000000000000000000000000f2

Extracted contents:
header:          00 ff ff ff ff ff ff 00
serial number:   0d 04 30 00 01 00 00 00 01 14
version:         01 03
basic params:    80 5d 35 78 2a
chroma info:     50 1f a3 59 49 97 24 bb 4f 53
established:     21 08 00
standard:        81 80 81 c0 81 00 d1 c0 61 7c 81 fc 01 01 01 01
descriptor 1:    64 19 00 40 41 00 26 30 18 88 36 00 a6 14 32 00 00 18
descriptor 2:    66 21 50 b0 51 00 1b 30 40 70 36 00 a6 14 32 00 00 1e
descriptor 3:    0e 1f 00 80 51 00 1e 30 50 80 37 00 a6 14 32 00 00 1c
descriptor 4:    00 00 00 fc 00 43 48 48 57 4a 54 0a 20 20 20 20 20 20
extensions:      01
checksum:        25

EDID version: 1.3
Manufacturer: CHD Model 30 Serial Number --
Made in week 1 of 2010
Digital display
Maximum image size: 93 cm x 53 cm
Gamma: 2.20
DPMS levels: Off
RGB color display
First detailed timing is preferred timing
Display x,y Chromaticity:
  Red:   0.6376, 0.3486
  Green: 0.2851, 0.5898
  Blue:  0.1406, 0.7314
  White: 0.3115, 0.3271
Established timings supported:
  640x480@60Hz 4:3 HorFreq: 31469 Hz Clock: 25.175 MHz
  800x600@60Hz 4:3 HorFreq: 37900 Hz Clock: 40.000 MHz
  1024x768@60Hz 4:3 HorFreq: 48400 Hz Clock: 65.000 MHz
Standard timings supported:
  1280x1024@60Hz 5:4 HorFreq: 64000 Hz Clock: 108.000 MHz
  1280x720@60Hz 16:9
  1280x800@60Hz 16:10
  1920x1080@60Hz 16:9
  1024x768@120Hz 4:3
  1280x720@120Hz 16:9
Detailed mode: Clock 65.000 MHz, 934 mm x 532 mm
               1024 1048 1184 1344 hborder 0
                768  771  777  806 vborder 0
               -hsync -vsync 
               VertFreq: 60 Hz, HorFreq: 48363 Hz
Detailed mode: Clock 85.500 MHz, 934 mm x 532 mm
               1360 1424 1536 1792 hborder 0
                768  771  777  795 vborder 0
               +hsync +vsync 
               VertFreq: 60 Hz, HorFreq: 47712 Hz
Detailed mode: Clock 79.500 MHz, 934 mm x 532 mm
               1280 1360 1488 1664 hborder 0
                768  771  778  798 vborder 0
               -hsync +vsync 
               VertFreq: 59 Hz, HorFreq: 47776 Hz
Monitor name: CHHWJT
Has 1 extension blocks
Checksum: 0x25 (valid)

CTA extension block
Extension version: 3
36 bytes of CTA data
  Video data block
    VIC   1 640x480@60Hz 4:3  HorFreq: 31469 Hz Clock: 25.175 MHz
    VIC   2 720x480@60Hz 4:3  HorFreq: 31469 Hz Clock: 27.000 MHz
    VIC   3 720x480@60Hz 16:9  HorFreq: 31469 Hz Clock: 27.000 MHz
    VIC   4 1280x720@60Hz 16:9 (native) HorFreq: 45000 Hz Clock: 74.250 MHz
    VIC   5 1920x1080i@60Hz 16:9  HorFreq: 33750 Hz Clock: 74.250 MHz
    VIC   7 1440x480i@60Hz 16:9  HorFreq: 15734 Hz Clock: 27.000 MHz
    VIC  16 1920x1080@60Hz 16:9  HorFreq: 67500 Hz Clock: 148.500 MHz
    VIC  18 720x576@50Hz 16:9  HorFreq: 31250 Hz Clock: 27.000 MHz
    VIC  19 1280x720@50Hz 16:9 (native) HorFreq: 37500 Hz Clock: 74.250 MHz
    VIC  20 1920x1080i@50Hz 16:9  HorFreq: 28125 Hz Clock: 74.250 MHz
    VIC  22 1440x576i@50Hz 16:9  HorFreq: 15625 Hz Clock: 27.000 MHz
    VIC  31 1920x1080@50Hz 16:9  HorFreq: 56250 Hz Clock: 148.500 MHz
    VIC  32 1920x1080@24Hz 16:9  HorFreq: 27000 Hz Clock: 74.250 MHz
    VIC  34 1920x1080@30Hz 16:9  HorFreq: 33750 Hz Clock: 74.250 MHz
  Audio data block
    Linear PCM, max channels 2
      Supported sample rates (kHz): 96 48 44.1 32
      Supported sample sizes (bits): 24 20 16
  Speaker allocation data block
    Speaker map:
      FL/FR - Front Left/Right
  Vendor-specific data block, OUI 000c03 (HDMI)
    Source physical address 2.0.0.0
    Supports_AI
    DC_30bit
    DC_Y444
    Maximum TMDS clock: 205MHz
    Extended HDMI video details:
      3D present
      All advertised VICs are 3D-capable
      3D: Side-by-side (half, horizontal)
      3D: Top-and-bottom
      3D: Frame-packing
Underscans PC formats by default
Basic audio support
Supports YCbCr 4:4:4
Supports YCbCr 4:2:2
2 native detailed modes
Detailed mode: Clock 74.250 MHz, 934 mm x 532 mm
               1280 1720 1760 1980 hborder 0
                720  725  730  750 vborder 0
               +hsync +vsync 
               VertFreq: 50 Hz, HorFreq: 37500 Hz
Detailed mode: Clock 74.250 MHz, 934 mm x 532 mm
               1280 1390 1430 1650 hborder 0
                720  725  730  750 vborder 0
               +hsync +vsync 
               VertFreq: 60 Hz, HorFreq: 45000 Hz
Checksum: 0xf2 (valid)

EDID block does NOT conform to EDID 1.3!
	Missing monitor ranges
