
EDID (hex):
00ffffffffffff000d04300001000000
01180103808b4e782a501fa359499724
bb4f53210800818081c08100d1c0617c
81fc010101010474007cf6705a80fc58
8a0072105300001e023a801871382d40
582c450072105300001e000000fc0043
4855440a2020202020202020000000fd
00174c0f501e000a2020202020200188
02032cf2510102030405079012131416
9f202206111523091707830100006d03
0c002000b83c2000600102031622569e
510031303e90a500721053000018023a
80d072382d40102c458072105300001e
023a801871382d405828450072105300
001e0e1f008051001e30508037007210
5300001c0000000000000000000000eb

Extracted contents:
header:          00 ff ff ff ff ff ff 00
serial number:   0d 04 30 00 01 00 00 00 01 18
version:         01 03
basic params:    80 8b 4e 78 2a
chroma info:     50 1f a3 59 49 97 24 bb 4f 53
established:     21 08 00
standard:        81 80 81 c0 81 00 d1 c0 61 7c 81 fc 01 01 01 01
descriptor 1:    04 74 00 7c f6 70 5a 80 fc 58 8a 00 72 10 53 00 00 1e
descriptor 2:    02 3a 80 18 71 38 2d 40 58 2c 45 00 72 10 53 00 00 1e
descriptor 3:    00 00 00 fc 00 43 48 55 44 0a 20 20 20 20 20 20 20 20
descriptor 4:    00 00 00 fd 00 17 4c 0f 50 1e 00 0a 20 20 20 20 20 20
extensions:      01
checksum:        88

EDID version: 1.3
Manufacturer: CHD Model 30 Serial Number --
Made in week 1 of 2014
Digital display
Maximum image size: 139 cm x 78 cm
Gamma: 2.20
DPMS levels: Off
RGB color display
First detailed timing is preferred timing
Display x,y Chromaticity:
  Red:   0.6376, 0.3486
  Green: 0.2851, 0.5898
  Blue:  0.1406, 0.7314
  White: 0.3115, 0.3271
Established timings supported:
  640x480@60Hz 4:3 HorFreq: 31469 Hz Clock: 25.175 MHz
  800x600@60Hz 4:3 HorFreq: 37900 Hz Clock: 40.000 MHz
  1024x768@60Hz 4:3 HorFreq: 48400 Hz Clock: 65.000 MHz
Standard timings supported:
  1280x1024@60Hz 5:4 HorFreq: 64000 Hz Clock: 108.000 MHz
  1280x720@60Hz 16:9
  1280x800@60Hz 16:10
  1920x1080@60Hz 16:9
  1024x768@120Hz 4:3
  1280x720@120Hz 16:9
Detailed mode: Clock 297.000 MHz, 1394 mm x 784 mm
               3840 4092 4180 5500 hborder 0
               2160 2168 2178 2250 vborder 0
               +hsync +vsync 
               VertFreq: 24 Hz, HorFreq: 54000 Hz
Detailed mode: Clock 148.500 MHz, 1394 mm x 784 mm
               1920 2008 2052 2200 hborder 0
               1080 1084 1089 1125 vborder 0
               +hsync +vsync 
               VertFreq: 60 Hz, HorFreq: 67500 Hz
Monitor name: CHUD
Monitor ranges (GTF): 23-76Hz V, 15-80kHz H, max dotclock 300MHz
Has 1 extension blocks
Checksum: 0x88 (valid)

CTA extension block
Extension version: 3
40 bytes of CTA data
  Video data block
    VIC   1 640x480@60Hz 4:3  HorFreq: 31469 Hz Clock: 25.175 MHz
    VIC   2 720x480@60Hz 4:3  HorFreq: 31469 Hz Clock: 27.000 MHz
    VIC   3 720x480@60Hz 16:9  HorFreq: 31469 Hz Clock: 27.000 MHz
    VIC   4 1280x720@60Hz 16:9  HorFreq: 45000 Hz Clock: 74.250 MHz
    VIC   5 1920x1080i@60Hz 16:9  HorFreq: 33750 Hz Clock: 74.250 MHz
    VIC   7 1440x480i@60Hz 16:9  HorFreq: 15734 Hz Clock: 27.000 MHz
    VIC  16 1920x1080@60Hz 16:9 (native) HorFreq: 67500 Hz Clock: 148.500 MHz
    VIC  18 720x576@50Hz 16:9  HorFreq: 31250 Hz Clock: 27.000 MHz
    VIC  19 1280x720@50Hz 16:9  HorFreq: 37500 Hz Clock: 74.250 MHz
    VIC  20 1920x1080i@50Hz 16:9  HorFreq: 28125 Hz Clock: 74.250 MHz
    VIC  22 1440x576i@50Hz 16:9  HorFreq: 15625 Hz Clock: 27.000 MHz
    VIC  31 1920x1080@50Hz 16:9 (native) HorFreq: 56250 Hz Clock: 148.500 MHz
    VIC  32 1920x1080@24Hz 16:9  HorFreq: 27000 Hz Clock: 74.250 MHz
    VIC  34 1920x1080@30Hz 16:9  HorFreq: 33750 Hz Clock: 74.250 MHz
    VIC   6 1440x480i@60Hz 4:3  HorFreq: 15734 Hz Clock: 27.000 MHz
    VIC  17 720x576@50Hz 4:3  HorFreq: 31250 Hz Clock: 27.000 MHz
    VIC  21 1440x576i@50Hz 4:3  HorFreq: 15625 Hz Clock: 27.000 MHz
  Audio data block
    Linear PCM, max channels 2
      Supported sample rates (kHz): 96 48 44.1 32
      Supported sample sizes (bits): 24 20 16
  Speaker allocation data block
    Speaker map:
      FL/FR - Front Left/Right
  Vendor-specific data block, OUI 000c03 (HDMI)
    Source physical address 2.0.0.0
    Supports_AI
    DC_36bit
    DC_30bit
    DC_Y444
    Maximum TMDS clock: 300MHz
    Extended HDMI video details:
      HDMI VIC 1 3840x2160@30Hz 16:9 HorFreq: 67500 Hz Clock: 297.000 MHz
      HDMI VIC 2 3840x2160@25Hz 16:9 HorFreq: 56250 Hz Clock: 297.000 MHz
      HDMI VIC 3 3840x2160@24Hz 16:9 HorFreq: 54000 Hz Clock: 297.000 MHz
Underscans PC formats by default
Basic audio support
Supports YCbCr 4:4:4
Supports YCbCr 4:2:2
2 native detailed modes
Detailed mode: Clock 87.260 MHz, 1394 mm x 784 mm
               1366 1428 1572 1780 hborder 0
                768  778  783  817 vborder 0
               -hsync -vsync 
               VertFreq: 60 Hz, HorFreq: 49022 Hz
Detailed mode: Clock 148.500 MHz, 1394 mm x 784 mm
               1920 2448 2492 2640 hborder 0
               1080 1084 1089 1125 vborder 0
               +hsync +vsync 
               VertFreq: 50 Hz, HorFreq: 56250 Hz
Detailed mode: Clock 148.500 MHz, 1394 mm x 784 mm
               1920 2008 2048 2200 hborder 0
               1080 1084 1089 1125 vborder 0
               +hsync +vsync 
               VertFreq: 60 Hz, HorFreq: 67500 Hz
Detailed mode: Clock 79.500 MHz, 1394 mm x 784 mm
               1280 1360 1488 1664 hborder 0
                768  771  778  798 vborder 0
               -hsync +vsync 
               VertFreq: 59 Hz, HorFreq: 47776 Hz
Checksum: 0xeb (valid)

One or more of the timings is out of range of the Monitor Ranges:
  Vertical Freq: 24 - 120 Hz
  Horizontal Freq: 15625 - 67500 Hz
  Maximum Clock: 297.000 MHz
Warning: HDMI VIC Codes must have their CTA-861 VIC equivalents in the VSB
