edid-decode (hex):

00 ff ff ff ff ff ff 00 32 0c 32 00 00 00 00 00
16 11 01 03 90 25 17 78 0a 3f 05 9a 59 52 90 27
20 50 54 00 00 00 01 01 01 01 01 01 01 01 01 01
01 01 01 01 01 01 60 3b 80 90 70 b0 1c 40 30 20
36 00 6f e6 10 00 00 19 60 3b 80 90 70 b0 1c 40
30 20 36 00 6f e6 10 00 00 19 00 00 00 fe 00 59
55 38 32 38 10 31 37 31 57 55 31 0a 00 00 00 fe
00 1e 32 41 49 6c 93 b9 ff 06 00 0a 20 20 00 f6

----------------

Block 0, Base EDID:
  EDID Structure Version & Revision: 1.3
  Vendor & Product Identification:
    Manufacturer: LPL
    Model: 50
    Made in: week 22 of 2007
  Basic Display Parameters & Features:
    Digital display
    Maximum image size: 37 cm x 23 cm
    Gamma: 2.20
    RGB color display
    First detailed timing is the preferred timing
  Color Characteristics:
    Red  : 0.6015, 0.3505
    Green: 0.3232, 0.5654
    Blue : 0.1523, 0.1250
    White: 0.3134, 0.3291
  Established Timings I & II: none
  Standard Timings: none
  Detailed Timing Descriptors:
    DTD 1:  1920x1200   59.970 Hz   8:5    73.643 kHz 152.000 MHz (367 mm x 230 mm)
                 Hfront   48 Hsync  32 Hback  64 Hpol N
                 Vfront    3 Vsync   6 Vback  19 Vpol N
    DTD 2:  1920x1200   59.970 Hz   8:5    73.643 kHz 152.000 MHz (367 mm x 230 mm)
                 Hfront   48 Hsync  32 Hback  64 Hpol N
                 Vfront    3 Vsync   6 Vback  19 Vpol N
    Alphanumeric Data String: 'YU828'
    Alphanumeric Data String: ''
Checksum: 0xf6

----------------

Failures:

Block 0, Base EDID:
  Basic Display Parameters & Features: Digital Video Interface Standard set to reserved value 0x10.
  Alphanumeric Data String: Non-printable character.
  Alphanumeric Data String: Non-printable character.
  Missing Display Product Name.
  Missing Display Range Limits Descriptor.

EDID conformity: FAIL
