
EDID (hex):
00ffffffffffff0004727905a2768073
261b0104a552237806ee91a3544c9926
0f505421080001010101010101010101
010101010101e77c70a0d0a029503020
3a00335a3100001a000000ff00234153
4d7653507966714f7264000000fd001e
64499736010a202020202020000000fc
005a3335500a202020202020202001f4
020312412309070183010000654b0400
01019d6770a0d0a0225030203a00335a
3100001a1ab370a0d0a03b5030203a00
335a3100001aa0cf7050d0a046500820
880c335a3100001a0000000000000000
00000000000000000000000000000000
00000000000000000000000000000000
000000000000000000000000000000df

Extracted contents:
header:          00 ff ff ff ff ff ff 00
serial number:   04 72 79 05 a2 76 80 73 26 1b
version:         01 04
basic params:    a5 52 23 78 06
chroma info:     ee 91 a3 54 4c 99 26 0f 50 54
established:     21 08 00
standard:        01 01 01 01 01 01 01 01 01 01 01 01 01 01 01 01
descriptor 1:    e7 7c 70 a0 d0 a0 29 50 30 20 3a 00 33 5a 31 00 00 1a
descriptor 2:    00 00 00 ff 00 23 41 53 4d 76 53 50 79 66 71 4f 72 64
descriptor 3:    00 00 00 fd 00 1e 64 49 97 36 01 0a 20 20 20 20 20 20
descriptor 4:    00 00 00 fc 00 5a 33 35 50 0a 20 20 20 20 20 20 20 20
extensions:      01
checksum:        f4

EDID version: 1.4
Manufacturer: ACR Model 579 Serial Number --
Made in week 38 of 2017
Digital display
8 bits per primary color channel
DisplayPort interface
Maximum image size: 82 cm x 35 cm
Gamma: 2.20
Supported color formats: RGB 4:4:4
Default (sRGB) color space is primary color space
First detailed timing includes the native pixel format and preferred refresh rate
Display x,y Chromaticity:
  Red:   0.6396, 0.3300
  Green: 0.2998, 0.5996
  Blue:  0.1503, 0.0595
  White: 0.3125, 0.3291
Established timings supported:
  640x480@60Hz 4:3 HorFreq: 31469 Hz Clock: 25.175 MHz
  800x600@60Hz 4:3 HorFreq: 37900 Hz Clock: 40.000 MHz
  1024x768@60Hz 4:3 HorFreq: 48400 Hz Clock: 65.000 MHz
Standard timings supported:
Detailed mode: Clock 319.750 MHz, 819 mm x 346 mm
               3440 3488 3520 3600 hborder 0
               1440 1443 1453 1481 vborder 0
               +hsync -vsync 
               VertFreq: 59 Hz, HorFreq: 88819 Hz
Serial number: --
Monitor ranges (bare limits): 30-100Hz V, 73-151kHz H, max dotclock 540MHz
Monitor name: Z35P
Has 1 extension blocks
Checksum: 0xf4 (valid)

CTA extension block
Extension version: 3
14 bytes of CTA data
  Audio data block
    Linear PCM, max channels 2
      Supported sample rates (kHz): 48 44.1 32
      Supported sample sizes (bits): 16
  Speaker allocation data block
    Speaker map:
      FL/FR - Front Left/Right
  Vendor-specific data block, OUI 00044b
Basic audio support
1 native detailed modes
Detailed mode: Clock 265.250 MHz, 819 mm x 346 mm
               3440 3488 3520 3600 hborder 0
               1440 1443 1453 1474 vborder 0
               +hsync -vsync 
               VertFreq: 49 Hz, HorFreq: 73680 Hz
Detailed mode: Clock 458.500 MHz, 819 mm x 346 mm
               3440 3488 3520 3600 hborder 0
               1440 1443 1453 1499 vborder 0
               +hsync -vsync 
               VertFreq: 84 Hz, HorFreq: 127361 Hz
Detailed mode: Clock 531.520 MHz, 819 mm x 346 mm
               3440 3448 3480 3520 hborder 0
               1440 1496 1504 1510 vborder 0
               +hsync -vsync 
               VertFreq: 100 Hz, HorFreq: 151000 Hz
Checksum: 0xdf (valid)

Warning: One or more of the timings is out of range of the Monitor Ranges:
  Vertical Freq: 49 - 100 Hz
  Horizontal Freq: 31469 - 151000 Hz
  Maximum Clock: 531.520 MHz
EDID block does not conform at all!
	Both the serial number and the serial string are set
