
EDID (hex):
00ffffffffffff0022f0012800000080
2e120103802517782a3c409c564d9826
165054a56a8081408180818f95000101
0101010101019a29a0d0518422305098
360072e61000001c000000fd00324c18
530e000a202020202020000000fc0048
502077313730370a20202020000000ff
00434e43383436515851510a20200030

Extracted contents:
header:          00 ff ff ff ff ff ff 00
serial number:   22 f0 01 28 00 00 00 80 2e 12
version:         01 03
basic params:    80 25 17 78 2a
chroma info:     3c 40 9c 56 4d 98 26 16 50 54
established:     a5 6a 80
standard:        81 40 81 80 81 8f 95 00 01 01 01 01 01 01 01 01
descriptor 1:    9a 29 a0 d0 51 84 22 30 50 98 36 00 72 e6 10 00 00 1c
descriptor 2:    00 00 00 fd 00 32 4c 18 53 0e 00 0a 20 20 20 20 20 20
descriptor 3:    00 00 00 fc 00 48 50 20 77 31 37 30 37 0a 20 20 20 20
descriptor 4:    00 00 00 ff 00 43 4e 43 38 34 36 51 58 51 51 0a 20 20
extensions:      00
checksum:        30

EDID version: 1.3
Manufacturer: HWP Model 2801 Serial Number --
Made in week 46 of 2008
Digital display
Maximum image size: 37 cm x 23 cm
Gamma: 2.20
DPMS levels: Off
RGB color display
First detailed timing is preferred timing
Display x,y Chromaticity:
  Red:   0.6093, 0.3388
  Green: 0.3037, 0.5937
  Blue:  0.1494, 0.0859
  White: 0.3125, 0.3281
Established timings supported:
  720x400@70Hz 9:5 HorFreq: 31469 Hz Clock: 28.320 MHz
  640x480@60Hz 4:3 HorFreq: 31469 Hz Clock: 25.175 MHz
  640x480@75Hz 4:3 HorFreq: 37500 Hz Clock: 31.500 MHz
  800x600@60Hz 4:3 HorFreq: 37900 Hz Clock: 40.000 MHz
  800x600@75Hz 4:3 HorFreq: 46900 Hz Clock: 49.500 MHz
  832x624@75Hz 4:3 HorFreq: 49726 Hz Clock: 57.284 MHz
  1024x768@60Hz 4:3 HorFreq: 48400 Hz Clock: 65.000 MHz
  1024x768@75Hz 4:3 HorFreq: 60000 Hz Clock: 78.750 MHz
  1152x870@75Hz 192:145 HorFreq: 67500 Hz Clock: 108.000 MHz
Standard timings supported:
  1280x960@60Hz 4:3 HorFreq: 60000 Hz Clock: 108.000 MHz
  1280x1024@60Hz 5:4 HorFreq: 64000 Hz Clock: 108.000 MHz
  1280x1024@75Hz 5:4 HorFreq: 80000 Hz Clock: 135.000 MHz
  1440x900@60Hz 16:10 HorFreq: 55500 Hz Clock: 88.750 MHz
Detailed mode: Clock 106.500 MHz, 370 mm x 230 mm
               1440 1520 1672 1904 hborder 0
                900  903  909  934 vborder 0
               -hsync +vsync 
               VertFreq: 59 Hz, HorFreq: 55934 Hz
Monitor ranges (GTF): 50-76Hz V, 24-83kHz H, max dotclock 140MHz
Monitor name: HP w1707
Serial number: --
Checksum: 0x30 (valid)
