edid-decode (hex):

00 ff ff ff ff ff ff 00 07 2e 05 18 10 29 20 22
32 20 01 03 80 07 0d 78 aa 00 00 00 00 00 00 00
00 00 00 00 00 00 01 01 01 01 01 01 01 01 01 01
01 01 01 01 01 01 f6 33 38 32 40 80 27 70 19 0a
30 01 0e e0 11 00 00 1e 4d 2b 38 32 40 80 27 70
19 0a 30 01 0e e0 11 00 00 1e a4 22 38 32 40 80
27 70 19 0a 30 01 0e e0 11 00 00 1e 00 00 00 fc
00 4c 4b 2d 47 4f 4c 44 53 50 56 35 38 0a 01 c9

02 03 04 00 b4 25 2a 20 31 a0 35 50 90 50 8a 08
ca 68 01 00 00 1e 9e 16 00 8c 30 00 38 40 30 0a
a8 01 c0 00 01 00 00 1e d8 1d d0 00 21 00 2f 50
80 48 2a 08 b4 40 01 00 00 1e 04 18 88 e0 20 80
2b 40 70 40 ea 04 a2 20 01 00 00 1e d8 0e 58 af
20 20 1f 30 58 38 2a 04 96 c8 00 00 00 1e f1 21
00 10 31 56 32 50 88 50 5a 08 c0 55 01 00 00 1e
00 00 00 00 00 00 00 00 00 00 00 00 00 00 00 42

00 ff ff ff ff ff ff 00 07 2e 05 18 10 29 20 22
32 20 01 03 80 07 0d 78 aa 00 00 00 00 00 00 00
00 00 00 00 00 00 01 01 01 01 01 01 01 01 01 01
01 01 01 01 01 01 f6 33 38 32 40 80 27 70 19 0a
30 01 0e e0 11 00 00 1e 4d 2b 38 32 40 80 27 70
19 0a 30 01 0e e0 11 00 00 1e a4 22 38 32 40 80
27 70 19 0a 30 01 0e e0 11 00 00 1e 00 00 00 fc
00 4c 4b 2d 47 4f 4c 44 53 50 56 35 38 0a 01 c9

02 03 04 00 b4 25 2a 20 31 a0 35 50 90 50 8a 08
ca 68 01 00 00 1e 9e 16 00 8c 30 00 38 40 30 0a
a8 01 c0 00 01 00 00 1e d8 1d d0 00 21 00 2f 50
80 48 2a 08 b4 40 01 00 00 1e 04 18 88 e0 20 80
2b 40 70 40 ea 04 a2 20 01 00 00 1e d8 0e 58 af
20 20 1f 30 58 38 2a 04 96 c8 00 00 00 1e f1 21
00 10 31 56 32 50 88 50 5a 08 c0 55 01 00 00 1e
00 00 00 00 00 00 00 00 00 00 00 00 00 00 00 42

----------------

Block 0, Base EDID:
  EDID Structure Version & Revision: 1.3
  Vendor & Product Identification:
    Manufacturer: AYN
    Model: 6149
    Serial Number: ...
    Made in: week 50 of 2022
  Basic Display Parameters & Features:
    Digital display
    Maximum image size: 7 cm x 13 cm
    Gamma: 2.20
    DPMS levels: Standby Off
    RGB color display
    First detailed timing is the preferred timing
  Color Characteristics:
    Red  : 0.0000, 0.0000
    Green: 0.0000, 0.0000
    Blue : 0.0000, 0.0000
    White: 0.0000, 0.0000
  Established Timings I & II: none
  Standard Timings: none
  Detailed Timing Descriptors:
    DTD  1:  1080x1920   60.090257 Hz   9:16   117.717 kHz    133.020000 MHz (270 mm x 480 mm)
                  Hfront   25 Hsync  10 Hback   15 Hpol P
                  Vfront    3 Vsync  16 Vback   20 Vpol P
    DTD  2:  1080x1920   50.075214 Hz   9:16    98.097 kHz    110.850000 MHz (270 mm x 480 mm)
                  Hfront   25 Hsync  10 Hback   15 Hpol P
                  Vfront    3 Vsync  16 Vback   20 Vpol P
    DTD  3:  1080x1920   40.060172 Hz   9:16    78.478 kHz     88.680000 MHz (270 mm x 480 mm)
                  Hfront   25 Hsync  10 Hback   15 Hpol P
                  Vfront    3 Vsync  16 Vback   20 Vpol P
    Display Product Name: 'LK-GOLDSPV58'
  Extension blocks: 1
Checksum: 0xc9

----------------

Block 1, CTA-861 Extension Block:
  Revision: 3
  Native detailed modes: 0
  Detailed Timing Descriptors:
    DTD  4:   810x1440   58.878287 Hz   9:16    87.905 kHz     96.520000 MHz (202 mm x 360 mm)
                  Hfront  144 Hsync  80 Hback   64 Hpol P
                  Vfront   40 Vsync  10 Vback    3 Vpol P
    DTD  5:   768x1024   59.043074 Hz   3:4     63.767 kHz     57.900000 MHz (192 mm x 256 mm)
                  Hfront   48 Hsync  10 Hback   82 Hpol P
                  Vfront   10 Vsync  24 Vback   22 Vpol P
    DTD  6:   720x1280   58.989215 Hz   9:16    78.279 kHz     76.400000 MHz (180 mm x 320 mm)
                  Hfront  128 Hsync  72 Hback   56 Hpol P
                  Vfront   34 Vsync  10 Vback    3 Vpol P
    DTD  7:   648x1152   58.999655 Hz   9:16    70.505 kHz     61.480000 MHz (162 mm x 288 mm)
                  Hfront  112 Hsync  64 Hback   48 Hpol P
                  Vfront   30 Vsync  10 Vback    3 Vpol P
    DTD  8:   600x800    59.003921 Hz   3:4     49.032 kHz     38.000000 MHz (150 mm x 200 mm)
                  Hfront   88 Hsync  56 Hback   31 Hpol P
                  Vfront   18 Vsync  10 Vback    3 Vpol P
    DTD  9:   768x1366   59.002879 Hz 384:683   83.548 kHz     86.890000 MHz (192 mm x 341 mm)
                  Hfront  136 Hsync  80 Hback   56 Hpol P
                  Vfront   37 Vsync  10 Vback    3 Vpol P
Checksum: 0x42  Unused space in Extension Block: 15 bytes

----------------

Block 2, Unknown EDID Extension Block 0x00:
  00 ff ff ff ff ff ff 00 07 2e 05 18 10 29 20 22 '.............) "'
  32 20 01 03 80 07 0d 78 aa 00 00 00 00 00 00 00 '2 .....x........'
  00 00 00 00 00 00 01 01 01 01 01 01 01 01 01 01 '................'
  01 01 01 01 01 01 f6 33 38 32 40 80 27 70 19 0a '.......382@.'p..'
  30 01 0e e0 11 00 00 1e 4d 2b 38 32 40 80 27 70 '0.......M+82@.'p'
  19 0a 30 01 0e e0 11 00 00 1e a4 22 38 32 40 80 '..0........"82@.'
  27 70 19 0a 30 01 0e e0 11 00 00 1e 00 00 00 fc ''p..0...........'
  00 4c 4b 2d 47 4f 4c 44 53 50 56 35 38 0a 01 c9 '.LK-GOLDSPV58...'
Checksum: 0xc9

----------------

Block 3, CTA-861 Extension Block:
  Revision: 3
  Native detailed modes: 0
  Detailed Timing Descriptors:
    DTD 10:   810x1440   58.878287 Hz   9:16    87.905 kHz     96.520000 MHz (202 mm x 360 mm)
                  Hfront  144 Hsync  80 Hback   64 Hpol P
                  Vfront   40 Vsync  10 Vback    3 Vpol P
    DTD 11:   768x1024   59.043074 Hz   3:4     63.767 kHz     57.900000 MHz (192 mm x 256 mm)
                  Hfront   48 Hsync  10 Hback   82 Hpol P
                  Vfront   10 Vsync  24 Vback   22 Vpol P
    DTD 12:   720x1280   58.989215 Hz   9:16    78.279 kHz     76.400000 MHz (180 mm x 320 mm)
                  Hfront  128 Hsync  72 Hback   56 Hpol P
                  Vfront   34 Vsync  10 Vback    3 Vpol P
    DTD 13:   648x1152   58.999655 Hz   9:16    70.505 kHz     61.480000 MHz (162 mm x 288 mm)
                  Hfront  112 Hsync  64 Hback   48 Hpol P
                  Vfront   30 Vsync  10 Vback    3 Vpol P
    DTD 14:   600x800    59.003921 Hz   3:4     49.032 kHz     38.000000 MHz (150 mm x 200 mm)
                  Hfront   88 Hsync  56 Hback   31 Hpol P
                  Vfront   18 Vsync  10 Vback    3 Vpol P
    DTD 15:   768x1366   59.002879 Hz 384:683   83.548 kHz     86.890000 MHz (192 mm x 341 mm)
                  Hfront  136 Hsync  80 Hback   56 Hpol P
                  Vfront   37 Vsync  10 Vback    3 Vpol P
Checksum: 0x42  Unused space in Extension Block: 15 bytes

----------------

Warnings:

Block 0, Base EDID:
  Basic Display Parameters & Features: Dubious maximum image size (7x13 is smaller than 10x10 cm).
Block 1, CTA-861 Extension Block:
  IT Video Formats are overscanned by default, but normally this should be underscanned.
  Add a Colorimetry Data Block with the sRGB colorimetry bit set to avoid interop issues.
Block 3, CTA-861 Extension Block:
  IT Video Formats are overscanned by default, but normally this should be underscanned.
  Add a Colorimetry Data Block with the sRGB colorimetry bit set to avoid interop issues.

Failures:

Block 0, Base EDID:
  Detailed Timing Descriptor #1: Mismatch of image size 270x480 mm vs display size 70x130 mm.
  Detailed Timing Descriptor #2: Mismatch of image size 270x480 mm vs display size 70x130 mm.
  Detailed Timing Descriptor #3: Mismatch of image size 270x480 mm vs display size 70x130 mm.
  Missing Display Range Limits Descriptor.
Block 1, CTA-861 Extension Block:
  Detailed Timing Descriptor #4: Mismatch of image size 202x360 mm vs display size 70x130 mm.
  Detailed Timing Descriptor #5: Mismatch of image size 192x256 mm vs display size 70x130 mm.
  Detailed Timing Descriptor #6: Mismatch of image size 180x320 mm vs display size 70x130 mm.
  Detailed Timing Descriptor #7: Mismatch of image size 162x288 mm vs display size 70x130 mm.
  Detailed Timing Descriptor #8: Mismatch of image size 150x200 mm vs display size 70x130 mm.
  Detailed Timing Descriptor #9: Mismatch of image size 192x341 mm vs display size 70x130 mm.
  Required 640x480p60 timings are missing in the established timings and the SVD list (VIC 1).
  Missing VCDB, needed for Set Selectable RGB Quantization to avoid interop issues.
Block 2, Base EDID:
  Unknown Extension Block.
Block 3, CTA-861 Extension Block:
  Detailed Timing Descriptor #10: Mismatch of image size 202x360 mm vs display size 70x130 mm.
  Detailed Timing Descriptor #11: Mismatch of image size 192x256 mm vs display size 70x130 mm.
  Detailed Timing Descriptor #12: Mismatch of image size 180x320 mm vs display size 70x130 mm.
  Detailed Timing Descriptor #13: Mismatch of image size 162x288 mm vs display size 70x130 mm.
  Detailed Timing Descriptor #14: Mismatch of image size 150x200 mm vs display size 70x130 mm.
  Detailed Timing Descriptor #15: Mismatch of image size 192x341 mm vs display size 70x130 mm.
  Required 640x480p60 timings are missing in the established timings and the SVD list (VIC 1).
  Missing VCDB, needed for Set Selectable RGB Quantization to avoid interop issues.
EDID:
  Base EDID: The DTD max image size is 270x480mm, which is larger than the display size 70.0x130.0mm.
  Base EDID: EDID specified 1 extension block(s), but found 3 extension block(s).
  Base EDID: EDID 1.3 requires a Block Map Extension in Block 1 if there are more than 2 blocks in the EDID.

EDID conformity: FAIL
