
EDID (hex):
00ffffffffffff0006af90dc00000000
001e0104951f1178032af59256589229
20505400000001010101010101010101
010101010101143780b8703824406c30
aa0035ae10000018b82480b870382440
6c30aa0035ae10000018000000000000
00000000000000000000000000000002
001048ff0f3c7d11251f7d20202000f0

Extracted contents:
header:          00 ff ff ff ff ff ff 00
serial number:   06 af 90 dc 00 00 00 00 00 1e
version:         01 04
basic params:    95 1f 11 78 03
chroma info:     2a f5 92 56 58 92 29 20 50 54
established:     00 00 00
standard:        01 01 01 01 01 01 01 01 01 01 01 01 01 01 01 01
descriptor 1:    14 37 80 b8 70 38 24 40 6c 30 aa 00 35 ae 10 00 00 18
descriptor 2:    b8 24 80 b8 70 38 24 40 6c 30 aa 00 35 ae 10 00 00 18
descriptor 3:    00 00 00 00 00 00 00 00 00 00 00 00 00 00 00 00 00 00
descriptor 4:    00 00 00 02 00 10 48 ff 0f 3c 7d 11 25 1f 7d 20 20 20
extensions:      00
checksum:        f0

EDID version: 1.4
Manufacturer: AUO Model dc90 Serial Number --
Made in year 2020
Digital display
6 bits per primary color channel
DisplayPort interface
Maximum image size: 31 cm x 17 cm
Gamma: 2.20
Supported color formats: RGB 4:4:4
First detailed timing includes the native pixel format and preferred refresh rate
Display is continuous frequency
Display x,y Chromaticity:
  Red:   0.5703, 0.3378
  Green: 0.3457, 0.5722
  Blue:  0.1630, 0.1279
  White: 0.3134, 0.3291
Established timings supported:
Standard timings supported:
Detailed mode: Clock 141.000 MHz, 309 mm x 174 mm
               1920 2028 2076 2104 hborder 0
               1080 1090 1100 1116 vborder 0
               -hsync -vsync 
               VertFreq: 60 Hz, HorFreq: 67015 Hz
Detailed mode: Clock 94.000 MHz, 309 mm x 174 mm
               1920 2028 2076 2104 hborder 0
               1080 1090 1100 1116 vborder 0
               -hsync -vsync 
               VertFreq: 40 Hz, HorFreq: 44676 Hz
Manufacturer-specified data, tag 0
Manufacturer-specified data, tag 2
Checksum: 0xf0 (valid)
EDID block does NOT conform to EDID 1.4!
	Missing name descriptor
	Missing monitor ranges
