
EDID (hex):
00ffffffffffff000da9270001000000
251d0104a53c22783bbf55ab5047a321
0f5054bfef80714f81c0814081809500
a9c0b300d1c0023a801871382d40582c
450056502100001e5cc1801871382d40
582c450056502100001a000000fc0047
4d32372d43460a2020202020000000fd
0030bedede3c010a2020202020200116
02032df123090707830100004d010203
040590111213141f3f22681a00000101
30be00e6110203041011e200c0d98580
a0703840401820350056502100001a74
23c0043138a0403c2846005650210000
1a38a2801871384040582c4500565021
00001a9ab080a0703840401820350056
502100001a00000000000000000000ec

Extracted contents:
header:          00 ff ff ff ff ff ff 00
serial number:   0d a9 27 00 01 00 00 00 25 1d
version:         01 04
basic params:    a5 3c 22 78 3b
chroma info:     bf 55 ab 50 47 a3 21 0f 50 54
established:     bf ef 80
standard:        71 4f 81 c0 81 40 81 80 95 00 a9 c0 b3 00 d1 c0
descriptor 1:    02 3a 80 18 71 38 2d 40 58 2c 45 00 56 50 21 00 00 1e
descriptor 2:    5c c1 80 18 71 38 2d 40 58 2c 45 00 56 50 21 00 00 1a
descriptor 3:    00 00 00 fc 00 47 4d 32 37 2d 43 46 0a 20 20 20 20 20
descriptor 4:    00 00 00 fd 00 30 be de de 3c 01 0a 20 20 20 20 20 20
extensions:      01
checksum:        16

EDID version: 1.4
Manufacturer: CMI Model 27 Serial Number --
Made in week 37 of 2019
Digital display
8 bits per primary color channel
DisplayPort interface
Maximum image size: 60 cm x 34 cm
Gamma: 2.20
DPMS levels: Off
Supported color formats: RGB 4:4:4, YCrCb 4:4:4, YCrCb 4:2:2
First detailed timing includes the native pixel format and preferred refresh rate
Display is continuous frequency
Display x,y Chromaticity:
  Red:   0.6699, 0.3154
  Green: 0.2802, 0.6396
  Blue:  0.1298, 0.0595
  White: 0.3134, 0.3291
Established timings supported:
  720x400@70Hz 9:5 HorFreq: 31469 Hz Clock: 28.320 MHz
  640x480@60Hz 4:3 HorFreq: 31469 Hz Clock: 25.175 MHz
  640x480@67Hz 4:3 HorFreq: 35000 Hz Clock: 30.240 MHz
  640x480@72Hz 4:3 HorFreq: 37900 Hz Clock: 31.500 MHz
  640x480@75Hz 4:3 HorFreq: 37500 Hz Clock: 31.500 MHz
  800x600@56Hz 4:3 HorFreq: 35200 Hz Clock: 36.000 MHz
  800x600@60Hz 4:3 HorFreq: 37900 Hz Clock: 40.000 MHz
  800x600@72Hz 4:3 HorFreq: 48100 Hz Clock: 50.000 MHz
  800x600@75Hz 4:3 HorFreq: 46900 Hz Clock: 49.500 MHz
  832x624@75Hz 4:3 HorFreq: 49726 Hz Clock: 57.284 MHz
  1024x768@60Hz 4:3 HorFreq: 48400 Hz Clock: 65.000 MHz
  1024x768@70Hz 4:3 HorFreq: 56500 Hz Clock: 75.000 MHz
  1024x768@75Hz 4:3 HorFreq: 60000 Hz Clock: 78.750 MHz
  1280x1024@75Hz 5:4 HorFreq: 80000 Hz Clock: 135.000 MHz
  1152x870@75Hz 192:145 HorFreq: 67500 Hz Clock: 108.000 MHz
Standard timings supported:
  1152x864@75Hz 4:3 HorFreq: 67500 Hz Clock: 108.000 MHz
  1280x720@60Hz 16:9
  1280x960@60Hz 4:3 HorFreq: 60000 Hz Clock: 108.000 MHz
  1280x1024@60Hz 5:4 HorFreq: 64000 Hz Clock: 108.000 MHz
  1440x900@60Hz 16:10 HorFreq: 55500 Hz Clock: 88.750 MHz
  1600x900@60Hz 16:9
  1680x1050@60Hz 16:10 HorFreq: 64700 Hz Clock: 119.000 MHz
  1920x1080@60Hz 16:9
Detailed mode: Clock 148.500 MHz, 598 mm x 336 mm
               1920 2008 2052 2200 hborder 0
               1080 1084 1089 1125 vborder 0
               +hsync +vsync 
               VertFreq: 60 Hz, HorFreq: 67500 Hz
Detailed mode: Clock 495.000 MHz, 598 mm x 336 mm
               1920 2008 2052 2200 hborder 0
               1080 1084 1089 1125 vborder 0
               +hsync -vsync 
               VertFreq: 200 Hz, HorFreq: 225000 Hz
Monitor name: GM27-CF
Monitor ranges (bare limits): 48-190Hz V, 222-222kHz H, max dotclock 600MHz
Has 1 extension blocks
Checksum: 0x16 (valid)

CTA extension block
Extension version: 3
41 bytes of CTA data
  Audio data block
    Linear PCM, max channels 2
      Supported sample rates (kHz): 48 44.1 32
      Supported sample sizes (bits): 24 20 16
  Speaker allocation data block
    Speaker map:
      FL/FR - Front Left/Right
  Video data block
    VIC   1 640x480@60Hz 4:3  HorFreq: 31469 Hz Clock: 25.175 MHz
    VIC   2 720x480@60Hz 4:3  HorFreq: 31469 Hz Clock: 27.000 MHz
    VIC   3 720x480@60Hz 16:9  HorFreq: 31469 Hz Clock: 27.000 MHz
    VIC   4 1280x720@60Hz 16:9  HorFreq: 45000 Hz Clock: 74.250 MHz
    VIC   5 1920x1080i@60Hz 16:9  HorFreq: 33750 Hz Clock: 74.250 MHz
    VIC  16 1920x1080@60Hz 16:9 (native) HorFreq: 67500 Hz Clock: 148.500 MHz
    VIC  17 720x576@50Hz 4:3  HorFreq: 31250 Hz Clock: 27.000 MHz
    VIC  18 720x576@50Hz 16:9  HorFreq: 31250 Hz Clock: 27.000 MHz
    VIC  19 1280x720@50Hz 16:9  HorFreq: 37500 Hz Clock: 74.250 MHz
    VIC  20 1920x1080i@50Hz 16:9  HorFreq: 28125 Hz Clock: 74.250 MHz
    VIC  31 1920x1080@50Hz 16:9  HorFreq: 56250 Hz Clock: 148.500 MHz
    VIC  63 1920x1080@120Hz 16:9  HorFreq: 135000 Hz Clock: 297.000 MHz
    VIC  34 1920x1080@30Hz 16:9  HorFreq: 33750 Hz Clock: 74.250 MHz
  Vendor-specific data block, OUI 00001a
  Extended tag: Vendor-specific audio data block
  Extended tag: Video capability data block
    YCbCr quantization: Selectable (via AVI YQ) (1)
    RGB quantization: Selectable (via AVI Q) (1)
    PT scan behaviour: No Data (0)
    IT scan behaviour: IT video formats not supported (0)
    CE scan behaviour: CE video formats not supported (0)
Underscans PC formats by default
Basic audio support
Supports YCbCr 4:4:4
Supports YCbCr 4:2:2
1 native detailed modes
Detailed mode: Clock 342.650 MHz, 598 mm x 336 mm
               1920 1944 1976 2080 hborder 0
               1080 1083 1088 1144 vborder 0
               +hsync -vsync 
               VertFreq: 143 Hz, HorFreq: 164735 Hz
Detailed mode: Clock 90.760 MHz, 598 mm x 336 mm
                960 1020 1060 1220 hborder 0
               1080 1084 1090 1240 vborder 0
               +hsync -vsync 
               VertFreq: 59 Hz, HorFreq: 74393 Hz
Detailed mode: Clock 415.280 MHz, 598 mm x 336 mm
               1920 2008 2052 2200 hborder 0
               1080 1084 1089 1144 vborder 0
               +hsync -vsync 
               VertFreq: 165 Hz, HorFreq: 188763 Hz
Detailed mode: Clock 452.100 MHz, 598 mm x 336 mm
               1920 1944 1976 2080 hborder 0
               1080 1083 1088 1144 vborder 0
               +hsync -vsync 
               VertFreq: 189 Hz, HorFreq: 217355 Hz
Checksum: 0xec (valid)

Warning: One or more of the timings is out of range of the Monitor Ranges:
  Vertical Freq: 30 - 200 Hz
  Horizontal Freq: 28125 - 225000 Hz
  Maximum Clock: 495.000 MHz
