edid-decode (hex):

00 ff ff ff ff ff ff 00 30 ae 01 13 01 00 00 00
22 1b 01 04 a0 3c 21 78 ee 4c e5 a5 58 50 a0 23
0b 50 54 00 00 00 d1 c0 a9 c0 95 00 81 80 81 00
61 40 45 40 31 40 58 5e 00 a0 a0 a0 28 50 30 20
35 00 55 50 21 00 00 1a 00 00 00 fc 00 4c 45 4e
2d 32 37 49 43 42 2d 41 0a 20 00 00 00 fd 00 39
3e fa fa 19 01 0a 20 20 20 20 20 20 00 00 00 ff
00 4c 4d 32 37 30 57 51 34 53 53 42 33 20 00 f8

----------------

Block 0, Base EDID:
  EDID Structure Version & Revision: 1.4
  Vendor & Product Identification:
    Manufacturer: LEN
    Model: 4865
    Serial Number: ...
    Made in: week 34 of 2017
  Basic Display Parameters & Features:
    Digital display
    Bits per primary color channel: 8
    Digital interface is not defined
    Maximum image size: 60 cm x 33 cm
    Gamma: 2.20
    DPMS levels: Standby Suspend Off
    Supported color formats: RGB 4:4:4, YCrCb 4:4:4
    Default (sRGB) color space is primary color space
    First detailed timing includes the native pixel format and preferred refresh rate
  Color Characteristics:
    Red  : 0.6455, 0.3437
    Green: 0.3154, 0.6250
    Blue : 0.1396, 0.0449
    White: 0.3134, 0.3291
  Established Timings I & II: none
  Standard Timings:
    DMT 0x52:  1920x1080   60.000 Hz  16:9    67.500 kHz 148.500 MHz
    DMT 0x53:  1600x900    60.000 Hz  16:9    60.000 kHz 108.000 MHz (RB)
    DMT 0x2f:  1440x900    59.887 Hz  16:10   55.935 kHz 106.500 MHz
    DMT 0x23:  1280x1024   60.020 Hz   5:4    63.981 kHz 108.000 MHz
    DMT 0x1c:  1280x800    59.810 Hz  16:10   49.702 kHz  83.500 MHz
    DMT 0x10:  1024x768    60.004 Hz   4:3    48.363 kHz  65.000 MHz
    DMT 0x09:   800x600    60.317 Hz   4:3    37.879 kHz  40.000 MHz
    DMT 0x04:   640x480    59.940 Hz   4:3    31.469 kHz  25.175 MHz
  Detailed Timing Descriptors:
    DTD 1:  2560x1440   59.996 Hz  16:9    88.794 kHz 241.520 MHz (597 mm x 336 mm)
                 Hfront   48 Hsync  32 Hback  80 Hpol P
                 Vfront    3 Vsync   5 Vback  32 Vpol N
    Display Product Name: 'LEN-27ICB-A'
  Display Range Limits:
    Monitor ranges (Bare Limits): 57-62 Hz V, 250-250 kHz H, max dotclock 250 MHz
    Display Product Serial Number: ...
Checksum: 0xf8

----------------

Warnings:

EDID:
  Base EDID: Some timings are out of range of the Monitor Ranges:
    Horizontal Freq: 31.468 - 88.794 kHz (Monitor: 250.000 - 250.000 kHz)

Failures:

Block 0, Base EDID:
  Basic Display Parameters & Features: sRGB is signaled, but the chromaticities do not match.
  Display Product Serial Number: One or more trailing spaces.

EDID conformity: FAIL
