
EDID (hex):
00ffffffffffff0030ae011301000000
221b0104a03c2178ee4ce5a55850a023
0b5054000000d1c0a9c0950081808100
614045403140585e00a0a0a028503020
350055502100001a000000fc004c454e
2d32374943422d410a20000000fd0039
3efafa19010a202020202020000000ff
004c4d323730575134535342332000f8

Extracted contents:
header:          00 ff ff ff ff ff ff 00
serial number:   30 ae 01 13 01 00 00 00 22 1b
version:         01 04
basic params:    a0 3c 21 78 ee
chroma info:     4c e5 a5 58 50 a0 23 0b 50 54
established:     00 00 00
standard:        d1 c0 a9 c0 95 00 81 80 81 00 61 40 45 40 31 40
descriptor 1:    58 5e 00 a0 a0 a0 28 50 30 20 35 00 55 50 21 00 00 1a
descriptor 2:    00 00 00 fc 00 4c 45 4e 2d 32 37 49 43 42 2d 41 0a 20
descriptor 3:    00 00 00 fd 00 39 3e fa fa 19 01 0a 20 20 20 20 20 20
descriptor 4:    00 00 00 ff 00 4c 4d 32 37 30 57 51 34 53 53 42 33 20
extensions:      00
checksum:        f8

EDID version: 1.4
Manufacturer: LEN Model 1301 Serial Number --
Made in week 34 of 2017
Digital display
8 bits per primary color channel
Digital interface is not defined
Maximum image size: 60 cm x 33 cm
Gamma: 2.20
DPMS levels: Standby Suspend Off
Supported color formats: RGB 4:4:4, YCrCb 4:4:4
Default (sRGB) color space is primary color space
First detailed timing includes the native pixel format and preferred refresh rate
Display x,y Chromaticity:
  Red:   0.6455, 0.3437
  Green: 0.3154, 0.6250
  Blue:  0.1396, 0.0449
  White: 0.3134, 0.3291
Established timings supported:
Standard timings supported:
  1920x1080@60Hz 16:9
  1600x900@60Hz 16:9
  1440x900@60Hz 16:10 HorFreq: 55500 Hz Clock: 88.750 MHz
  1280x1024@60Hz 5:4 HorFreq: 64000 Hz Clock: 108.000 MHz
  1280x800@60Hz 16:10
  1024x768@60Hz 4:3 HorFreq: 48400 Hz Clock: 65.000 MHz
  800x600@60Hz 4:3 HorFreq: 37900 Hz Clock: 40.000 MHz
  640x480@60Hz 4:3 HorFreq: 31469 Hz Clock: 25.175 MHz
Detailed mode: Clock 241.520 MHz, 597 mm x 336 mm
               2560 2608 2640 2720 hborder 0
               1440 1443 1448 1480 vborder 0
               +hsync -vsync 
               VertFreq: 59 Hz, HorFreq: 88794 Hz
Monitor name: LEN-27ICB-A
Monitor ranges (bare limits): 57-62Hz V, 250-250kHz H, max dotclock 250MHz
Serial number: -- 
Checksum: 0xf8 (valid)
EDID block does NOT conform to EDID 1.4!
	sRGB is signaled, but the chromaticities do not match
Warning: One or more of the timings is out of range of the Monitor Ranges:
  Vertical Freq: 59 - 60 Hz
  Horizontal Freq: 31469 - 88794 Hz
  Maximum Clock: 241.520 MHz
