
EDID (hex):
00ffffffffffff0039044f0700000000
01110103800f09000a00000000000000
00000000000001010101010101010101
010101010101800c208030e02d102830
d3009a5600000018000000fc004e4844
2d372e302048444d490a000000100000
00000000000000000000000000000010
000000000000000000000000000000fb

Extracted contents:
header:          00 ff ff ff ff ff ff 00
serial number:   39 04 4f 07 00 00 00 00 01 11
version:         01 03
basic params:    80 0f 09 00 0a
chroma info:     00 00 00 00 00 00 00 00 00 00
established:     00 00 00
standard:        01 01 01 01 01 01 01 01 01 01 01 01 01 01 01 01
descriptor 1:    80 0c 20 80 30 e0 2d 10 28 30 d3 00 9a 56 00 00 00 18
descriptor 2:    00 00 00 fc 00 4e 48 44 2d 37 2e 30 20 48 44 4d 49 0a
descriptor 3:    00 00 00 10 00 00 00 00 00 00 00 00 00 00 00 00 00 00
descriptor 4:    00 00 00 10 00 00 00 00 00 00 00 00 00 00 00 00 00 00
extensions:      00
checksum:        fb

EDID version: 1.3
Manufacturer: NHD Model 74f Serial Number --
Made in week 1 of 2007
Digital display
Maximum image size: 15 cm x 9 cm
Gamma: 1.00
RGB color display
First detailed timing is preferred timing
Display x,y Chromaticity:
  Red:   0.0000, 0.0000
  Green: 0.0000, 0.0000
  Blue:  0.0000, 0.0000
  White: 0.0000, 0.0000
Established timings supported:
Standard timings supported:
Detailed mode: Clock 32.000 MHz, 154 mm x 86 mm
                800  840  888  928 hborder 0
                480  493  496  525 vborder 0
               -hsync -vsync 
               VertFreq: 65 Hz, HorFreq: 34482 Hz
Monitor name: NHD-7.0 HDMI
Dummy block
Dummy block
Checksum: 0xfb (valid)
EDID block does NOT conform to EDID 1.3!
	Missing monitor ranges
