edid-decode (hex):

00 ff ff ff ff ff ff 00 06 af 3c 22 00 00 00 00
00 14 01 04 90 1f 11 78 02 97 f5 9b 59 54 8c 25
22 50 54 00 00 00 01 01 01 01 01 01 01 01 01 01
01 01 01 01 01 01 12 1b 56 46 50 00 23 30 26 16
36 00 35 ad 10 00 00 18 0c 12 56 46 50 00 23 30
26 16 36 00 35 ad 10 00 00 18 00 00 00 00 00 00
00 00 00 00 00 00 00 00 00 00 00 00 00 00 00 02
00 0c 33 f9 0a 3c 64 1f 14 22 6e 20 20 20 00 7d

----------------

Block 0, Base EDID:
  EDID Structure Version & Revision: 1.4
  Vendor & Product Identification:
    Manufacturer: AUO
    Model: 8764
    Made in: 2010
  Basic Display Parameters & Features:
    Digital display
    Bits per primary color channel: 6
    Digital interface is not defined
    Maximum image size: 31 cm x 17 cm
    Gamma: 2.20
    Supported color formats: RGB 4:4:4
    First detailed timing includes the native pixel format and preferred refresh rate
  Color Characteristics:
    Red  : 0.6074, 0.3486
    Green: 0.3291, 0.5498
    Blue : 0.1474, 0.1357
    White: 0.3134, 0.3291
  Established Timings I & II: none
  Standard Timings: none
  Detailed Timing Descriptors:
    DTD 1:  1366x768    60.098 Hz 683:384  48.259 kHz  69.300 MHz (309 mm x 173 mm)
                 Hfront   38 Hsync  22 Hback  10 Hpol N
                 Vfront    3 Vsync   6 Vback  26 Vpol N
    DTD 2:  1366x768    40.066 Hz 683:384  32.173 kHz  46.200 MHz (309 mm x 173 mm)
                 Hfront   38 Hsync  22 Hback  10 Hpol N
                 Vfront    3 Vsync   6 Vback  26 Vpol N
    Empty Descriptor
    Manufacturer-Specified Display Descriptor (0x02): 00 02 00 0c 33 f9 0a 3c 64 1f 14 22 6e 20 20 20 '....3..<d.."n   '
Checksum: 0x7d
