edid-decode (hex):

00 ff ff ff ff ff ff 00 10 4c 00 23 00 00 00 00
0c 16 01 04 a5 00 00 78 22 60 85 a6 56 4a 9c 25
12 50 54 a5 6b 80 81 80 81 00 81 c0 a9 c0 81 40
d1 c0 95 c0 b3 00 02 3a 80 18 71 38 2d 40 58 2c
45 00 13 2b 21 00 00 1e 00 00 00 10 00 00 00 00
00 00 00 00 00 00 00 00 00 00 00 00 00 fd 00 32
4c 18 53 14 01 0a 20 20 20 20 20 20 00 00 00 fc
00 56 4d 4d 32 33 30 30 20 52 4f 4d 0a 20 00 7b

00 ff ff ff ff ff ff 00 10 4c 00 23 00 00 00 00
0c 16 01 04 a5 00 00 78 22 60 85 a6 56 4a 9c 25
12 50 54 a5 6b 80 81 80 81 00 81 c0 a9 c0 81 40
d1 c0 95 c0 b3 00 02 3a 80 18 71 38 2d 40 58 2c
45 00 13 2b 21 00 00 1e 00 00 00 10 00 00 00 00
00 00 00 00 00 00 00 00 00 00 00 00 00 fd 00 32
4c 18 53 14 01 0a 20 20 20 20 20 20 00 00 00 fc
00 56 4d 4d 32 33 30 30 20 52 4f 4d 0a 20 00 7b

----------------

Block 0, Base EDID:
  EDID Structure Version & Revision: 1.4
  Vendor & Product Identification:
    Manufacturer: DBL
    Model: 8960
    Made in: week 12 of 2012
  Basic Display Parameters & Features:
    Digital display
    Bits per primary color channel: 8
    DisplayPort interface
    Image size is variable
    Gamma: 2.20
    DPMS levels: Off
    Supported color formats: RGB 4:4:4
    First detailed timing includes the native pixel format and preferred refresh rate
  Color Characteristics:
    Red  : 0.6494, 0.3378
    Green: 0.2890, 0.6093
    Blue : 0.1464, 0.0703
    White: 0.3134, 0.3291
  Established Timings I & II:
    IBM     :   720x400    70.081663 Hz   9:5     31.467 kHz     28.320000 MHz
    DMT 0x04:   640x480    59.940476 Hz   4:3     31.469 kHz     25.175000 MHz
    DMT 0x06:   640x480    75.000000 Hz   4:3     37.500 kHz     31.500000 MHz
    DMT 0x09:   800x600    60.316541 Hz   4:3     37.879 kHz     40.000000 MHz
    DMT 0x0b:   800x600    75.000000 Hz   4:3     46.875 kHz     49.500000 MHz
    Apple   :   832x624    74.551266 Hz   4:3     49.726 kHz     57.284000 MHz
    DMT 0x10:  1024x768    60.003840 Hz   4:3     48.363 kHz     65.000000 MHz
    DMT 0x12:  1024x768    75.028582 Hz   4:3     60.023 kHz     78.750000 MHz
    DMT 0x24:  1280x1024   75.024675 Hz   5:4     79.976 kHz    135.000000 MHz
    Apple   :  1152x870    75.061550 Hz 192:145   68.681 kHz    100.000000 MHz
  Standard Timings:
    DMT 0x23:  1280x1024   60.019740 Hz   5:4     63.981 kHz    108.000000 MHz
    DMT 0x1c:  1280x800    59.810326 Hz  16:10    49.702 kHz     83.500000 MHz
    DMT 0x55:  1280x720    60.000000 Hz  16:9     45.000 kHz     74.250000 MHz
    DMT 0x53:  1600x900    60.000000 Hz  16:9     60.000 kHz    108.000000 MHz (RB)
    DMT 0x20:  1280x960    60.000000 Hz   4:3     60.000 kHz    108.000000 MHz
    DMT 0x52:  1920x1080   60.000000 Hz  16:9     67.500 kHz    148.500000 MHz
    GTF     :  1440x810    60.000051 Hz  16:9     50.340 kHz     95.042000 MHz
    DMT 0x3a:  1680x1050   59.954250 Hz  16:10    65.290 kHz    146.250000 MHz
  Detailed Timing Descriptors:
    DTD 1:  1920x1080   60.000000 Hz  16:9     67.500 kHz    148.500000 MHz (531 mm x 299 mm)
                 Hfront   88 Hsync  44 Hback  148 Hpol P
                 Vfront    4 Vsync   5 Vback   36 Vpol P
    Dummy Descriptor:
    Display Range Limits:
      Monitor ranges (Bare Limits): 50-76 Hz V, 24-83 kHz H, max dotclock 200 MHz
    Display Product Name: 'VMM2300 ROM'
Checksum: 0x7b

----------------

Block 1, Unknown EDID Extension Block 0x00:
  00 ff ff ff ff ff ff 00 10 4c 00 23 00 00 00 00 '.........L.#....'
  0c 16 01 04 a5 00 00 78 22 60 85 a6 56 4a 9c 25 '.......x"`..VJ.%'
  12 50 54 a5 6b 80 81 80 81 00 81 c0 a9 c0 81 40 '.PT.k..........@'
  d1 c0 95 c0 b3 00 02 3a 80 18 71 38 2d 40 58 2c '.......:..q8-@X,'
  45 00 13 2b 21 00 00 1e 00 00 00 10 00 00 00 00 'E..+!...........'
  00 00 00 00 00 00 00 00 00 00 00 00 00 fd 00 32 '...............2'
  4c 18 53 14 01 0a 20 20 20 20 20 20 00 00 00 fc 'L.S...      ....'
  00 56 4d 4d 32 33 30 30 20 52 4f 4d 0a 20 00 7b '.VMM2300 ROM. .{'
Checksum: 0x7b

----------------

Failures:

Block 1, Base EDID:
  Unknown Extension Block.
EDID:
  Base EDID: The DTD max image size is 531x299mm, but the display size is not specified anywhere.
  Base EDID: EDID specified 0 extension block(s), but found 1 extension block(s).

EDID conformity: FAIL
