
EDID (hex):
00ffffffffffff000e8f913300000000
001e0104a51d127803ee95a3544c9926
0f505400000001010101010101010101
010101010101743c80a070b028403020
36001eb31000001a000000fd00303c4b
4b10010a202020202020000000fe0043
544f20574a0a202020202020000000fe
004c454231333230314e2d574a0a00db

Extracted contents:
header:          00 ff ff ff ff ff ff 00
serial number:   0e 8f 91 33 00 00 00 00 00 1e
version:         01 04
basic params:    a5 1d 12 78 03
chroma info:     ee 95 a3 54 4c 99 26 0f 50 54
established:     00 00 00
standard:        01 01 01 01 01 01 01 01 01 01 01 01 01 01 01 01
descriptor 1:    74 3c 80 a0 70 b0 28 40 30 20 36 00 1e b3 10 00 00 1a
descriptor 2:    00 00 00 fd 00 30 3c 4b 4b 10 01 0a 20 20 20 20 20 20
descriptor 3:    00 00 00 fe 00 43 54 4f 20 57 4a 0a 20 20 20 20 20 20
descriptor 4:    00 00 00 fe 00 4c 45 42 31 33 32 30 31 4e 2d 57 4a 0a
extensions:      00
checksum:        db

EDID version: 1.4
Manufacturer: CTO Model 3391 Serial Number --
Made in year 2020
Digital display
8 bits per primary color channel
DisplayPort interface
Maximum image size: 29 cm x 18 cm
Gamma: 2.20
Supported color formats: RGB 4:4:4
First detailed timing includes the native pixel format and preferred refresh rate
Display is continuous frequency
Display x,y Chromaticity:
  Red:   0.6396, 0.3300
  Green: 0.2998, 0.5996
  Blue:  0.1503, 0.0595
  White: 0.3134, 0.3291
Established timings supported:
Standard timings supported:
Detailed mode: Clock 154.760 MHz, 286 mm x 179 mm
               1920 1968 2000 2080 hborder 0
               1200 1203 1209 1240 vborder 0
               +hsync -vsync 
               VertFreq: 60 Hz, HorFreq: 74403 Hz
Monitor ranges (bare limits): 48-60Hz V, 75-75kHz H, max dotclock 160MHz
ASCII string: CTO WJ
ASCII string: LEB13201N-WJ
Checksum: 0xdb (valid)
EDID block does NOT conform to EDID 1.4!
	Missing name descriptor
Warning: One or more of the timings is out of range of the Monitor Ranges:
  Vertical Freq: 60 - 60 Hz
  Horizontal Freq: 74403 - 74403 Hz
  Maximum Clock: 154.760 MHz
