
EDID (hex):
00ffffffffffff0030e4eb0200000000
00140104901f11780ab7a59758568f27
1f505400000001010101010101010101
010101010101581b567e50000e302430
350035ae10000019de12569e50001830
2430350035ae10000019000000fe004b
4a323632803134305748340a00000000
00004131940000000001010a20200094

Extracted contents:
header:          00 ff ff ff ff ff ff 00
serial number:   30 e4 eb 02 00 00 00 00 00 14
version:         01 04
basic params:    90 1f 11 78 0a
chroma info:     b7 a5 97 58 56 8f 27 1f 50 54
established:     00 00 00
standard:        01 01 01 01 01 01 01 01 01 01 01 01 01 01 01 01
descriptor 1:    58 1b 56 7e 50 00 0e 30 24 30 35 00 35 ae 10 00 00 19
descriptor 2:    de 12 56 9e 50 00 18 30 24 30 35 00 35 ae 10 00 00 19
descriptor 3:    00 00 00 fe 00 4b 4a 32 36 32 80 31 34 30 57 48 34 0a
descriptor 4:    00 00 00 00 00 00 41 31 94 00 00 00 00 01 01 0a 20 20
extensions:      00
checksum:        94

EDID version: 1.4
Manufacturer: LGD Model 2eb Serial Number --
Made in year 2010
Digital display
6 bits per primary color channel
Digital interface is not defined
Maximum image size: 31 cm x 17 cm
Gamma: 2.20
Supported color formats: RGB 4:4:4, YCrCb 4:4:4
First detailed timing includes the native pixel format and preferred refresh rate
Display x,y Chromaticity:
  Red:   0.5917, 0.3466
  Green: 0.3369, 0.5615
  Blue:  0.1542, 0.1230
  White: 0.3134, 0.3291
Established timings supported:
Standard timings supported:
Detailed mode: Clock 70.000 MHz, 309 mm x 174 mm
               1366 1402 1450 1492 hborder 0
                768  771  776  782 vborder 0
               -hsync -vsync 
               VertFreq: 59 Hz, HorFreq: 46916 Hz
Detailed mode: Clock 48.300 MHz, 309 mm x 174 mm
               1366 1402 1450 1524 hborder 0
                768  771  776  792 vborder 0
               -hsync -vsync 
               VertFreq: 40 Hz, HorFreq: 31692 Hz
ASCII string: KJ262
Manufacturer-specified data, tag 0
Checksum: 0x94 (valid)
EDID block does NOT conform to EDID 1.4!
	Missing name descriptor
	Missing monitor ranges
	Detailed block string not properly terminated
