edid-decode (hex):

00 ff ff ff ff ff ff 00 30 e4 eb 02 00 00 00 00
00 14 01 04 90 1f 11 78 0a b7 a5 97 58 56 8f 27
1f 50 54 00 00 00 01 01 01 01 01 01 01 01 01 01
01 01 01 01 01 01 58 1b 56 7e 50 00 0e 30 24 30
35 00 35 ae 10 00 00 19 de 12 56 9e 50 00 18 30
24 30 35 00 35 ae 10 00 00 19 00 00 00 fe 00 4b
4a 32 36 32 80 31 34 30 57 48 34 0a 00 00 00 00
00 00 41 31 94 00 00 00 00 01 01 0a 20 20 00 94

----------------

Block 0, Base EDID:
  EDID Structure Version & Revision: 1.4
  Vendor & Product Identification:
    Manufacturer: LGD
    Model: 747
    Made in: 2010
  Basic Display Parameters & Features:
    Digital display
    Bits per primary color channel: 6
    Digital interface is not defined
    Maximum image size: 31 cm x 17 cm
    Gamma: 2.20
    Supported color formats: RGB 4:4:4, YCrCb 4:4:4
    First detailed timing includes the native pixel format and preferred refresh rate
  Color Characteristics:
    Red  : 0.5917, 0.3466
    Green: 0.3369, 0.5615
    Blue : 0.1542, 0.1230
    White: 0.3134, 0.3291
  Established Timings I & II: none
  Standard Timings: none
  Detailed Timing Descriptors:
    DTD 1:  1366x768    59.996023 Hz 683:384   46.917 kHz     70.000000 MHz (309 mm x 174 mm)
                 Hfront   36 Hsync  48 Hback   42 Hpol N
                 Vfront    3 Vsync   5 Vback    6 Vpol N
    DTD 2:  1366x768    40.016305 Hz 683:384   31.693 kHz     48.300000 MHz (309 mm x 174 mm)
                 Hfront   36 Hsync  48 Hback   74 Hpol N
                 Vfront    3 Vsync   5 Vback   16 Vpol N
    Alphanumeric Data String: 'KJ262'
    Manufacturer-Specified Display Descriptor (0x00): 00 00 00 00 41 31 94 00 00 00 00 01 01 0a 20 20 '....A1........  '
Checksum: 0x94

----------------

Failures:

Block 0, Base EDID:
  Alphanumeric Data String: Non-printable character.
  Missing Display Product Name.

EDID conformity: FAIL
