
EDID (hex):
00ffffffffffff0030e4eb0200000000
00140103801f11780aaab59558568d28
1f505400000001010101010101010101
010101010101121b567250000c302428
350035ae100000190000000000000000
00000000000000000000000000fe004c
4720446973706c61790a2020000000fe
004c503134305748342d544c42310070

Extracted contents:
header:          00 ff ff ff ff ff ff 00
serial number:   30 e4 eb 02 00 00 00 00 00 14
version:         01 03
basic params:    80 1f 11 78 0a
chroma info:     aa b5 95 58 56 8d 28 1f 50 54
established:     00 00 00
standard:        01 01 01 01 01 01 01 01 01 01 01 01 01 01 01 01
descriptor 1:    12 1b 56 72 50 00 0c 30 24 28 35 00 35 ae 10 00 00 19
descriptor 2:    00 00 00 00 00 00 00 00 00 00 00 00 00 00 00 00 00 00
descriptor 3:    00 00 00 fe 00 4c 47 20 44 69 73 70 6c 61 79 0a 20 20
descriptor 4:    00 00 00 fe 00 4c 50 31 34 30 57 48 34 2d 54 4c 42 31
extensions:      00
checksum:        70

EDID version: 1.3
Manufacturer: LGD Model 2eb Serial Number --
Made in year 2010
Digital display
Maximum image size: 31 cm x 17 cm
Gamma: 2.20
RGB color display
First detailed timing is preferred timing
Display x,y Chromaticity:
  Red:   0.5839, 0.3457
  Green: 0.3378, 0.5527
  Blue:  0.1582, 0.1240
  White: 0.3134, 0.3291
Established timings supported:
Standard timings supported:
Detailed mode: Clock 69.300 MHz, 309 mm x 174 mm
               1366 1402 1442 1480 hborder 0
                768  771  776  780 vborder 0
               -hsync -vsync 
               VertFreq: 60 Hz, HorFreq: 46824 Hz
Manufacturer-specified data, tag 0
ASCII string: LG Display
ASCII string: LP140WH4-TLB1
Checksum: 0x70 (valid)
EDID block does NOT conform to EDID 1.3!
	Missing name descriptor
	Missing monitor ranges
