
EDID (hex):
00ffffffffffff000e6f131600000000
001f0104b5221678032ae8a6544f9721
0e545800000001010101010101010101
01010101010126ae80a070b063403020
360059d710000018000000fd0030a5d7
d72d010a202020202020000000fe0043
534f542054330a2020202020000000fe
004d4e473030374a41312d340a2000a4

Extracted contents:
header:          00 ff ff ff ff ff ff 00
serial number:   0e 6f 13 16 00 00 00 00 00 1f
version:         01 04
basic params:    b5 22 16 78 03
chroma info:     2a e8 a6 54 4f 97 21 0e 54 58
established:     00 00 00
standard:        01 01 01 01 01 01 01 01 01 01 01 01 01 01 01 01
descriptor 1:    26 ae 80 a0 70 b0 63 40 30 20 36 00 59 d7 10 00 00 18
descriptor 2:    00 00 00 fd 00 30 a5 d7 d7 2d 01 0a 20 20 20 20 20 20
descriptor 3:    00 00 00 fe 00 43 53 4f 54 20 54 33 0a 20 20 20 20 20
descriptor 4:    00 00 00 fe 00 4d 4e 47 30 30 37 4a 41 31 2d 34 0a 20
extensions:      00
checksum:        a4

EDID version: 1.4
Manufacturer: CSO Model 1613 Serial Number --
Made in year 2021
Digital display
10 bits per primary color channel
DisplayPort interface
Maximum image size: 34 cm x 22 cm
Gamma: 2.20
Supported color formats: RGB 4:4:4
First detailed timing includes the native pixel format and preferred refresh rate
Display is continuous frequency
Display x,y Chromaticity:
  Red:   0.6484, 0.3300
  Green: 0.3105, 0.5917
  Blue:  0.1318, 0.0566
  White: 0.3300, 0.3437
Established timings supported:
Standard timings supported:
Detailed mode: Clock 445.820 MHz, 345 mm x 215 mm
               1920 1968 2000 2080 hborder 0
               1200 1203 1209 1299 vborder 0
               -hsync -vsync 
               VertFreq: 165 Hz, HorFreq: 214336 Hz
Monitor ranges (bare limits): 48-165Hz V, 215-215kHz H, max dotclock 450MHz
ASCII string: CSOT T3
ASCII string: MNG007JA1-4
Checksum: 0xa4 (valid)
EDID block does NOT conform to EDID 1.4!
	Missing name descriptor
Warning: One or more of the timings is out of range of the Monitor Ranges:
  Vertical Freq: 165 - 165 Hz
  Horizontal Freq: 214336 - 214336 Hz
  Maximum Clock: 445.820 MHz
