
EDID (hex):
00ffffffffffff004d10971400000000
051c0104951f11780ede50a3544c9926
0f505400000001010101010101010101
0101010101011a3680a070381e403020
350035ae100000181a3680a070383341
3020350035ae10000018000000fe0034
56545850804c513134304d3100000000
000041031e001200000a010a202000fb

Extracted contents:
header:          00 ff ff ff ff ff ff 00
serial number:   4d 10 97 14 00 00 00 00 05 1c
version:         01 04
basic params:    95 1f 11 78 0e
chroma info:     de 50 a3 54 4c 99 26 0f 50 54
established:     00 00 00
standard:        01 01 01 01 01 01 01 01 01 01 01 01 01 01 01 01
descriptor 1:    1a 36 80 a0 70 38 1e 40 30 20 35 00 35 ae 10 00 00 18
descriptor 2:    1a 36 80 a0 70 38 33 41 30 20 35 00 35 ae 10 00 00 18
descriptor 3:    00 00 00 fe 00 34 56 54 58 50 80 4c 51 31 34 30 4d 31
descriptor 4:    00 00 00 00 00 00 41 03 1e 00 12 00 00 0a 01 0a 20 20
extensions:      00
checksum:        fb

EDID version: 1.4
Manufacturer: SHP Model 1497 Serial Number --
Made in week 5 of 2018
Digital display
6 bits per primary color channel
DisplayPort interface
Maximum image size: 31 cm x 17 cm
Gamma: 2.20
Supported color formats: RGB 4:4:4, YCrCb 4:4:4
Default (sRGB) color space is primary color space
First detailed timing includes the native pixel format and preferred refresh rate
Display x,y Chromaticity:
  Red:   0.6396, 0.3291
  Green: 0.2998, 0.5996
  Blue:  0.1494, 0.0595
  White: 0.3125, 0.3281
Established timings supported:
Standard timings supported:
Detailed mode: Clock 138.500 MHz, 309 mm x 174 mm
               1920 1968 2000 2080 hborder 0
               1080 1083 1088 1110 vborder 0
               -hsync -vsync 
               VertFreq: 59 Hz, HorFreq: 66586 Hz
Detailed mode: Clock 138.500 MHz, 309 mm x 174 mm
               1920 1968 2000 2080 hborder 0
               1080 1083 1088 1387 vborder 0
               -hsync -vsync 
               VertFreq: 48 Hz, HorFreq: 66586 Hz
ASCII string: 4VTXP
Manufacturer-specified data, tag 0
Checksum: 0xfb (valid)
EDID block does NOT conform to EDID 1.4!
	sRGB is signaled, but the chromaticities do not match
	Missing name descriptor
	Missing monitor ranges
	Detailed block string not properly terminated
