
EDID (hex):
00ffffffffffff005c236310c8030000
1d140104b5351e7802ee95a3544c9926
0f5054210800d1c0a94081c081800101
0101010101014dd000a0f0703e803020
35000a252100001a000000fc0043696e
74697150726f3234500a000000ff0030
474830304631303030393638000000fd
003b3d1e883c000a202020202020015f
020318c0456110040301230907078301
000065030c00200008e80030f2705a80
b0588a000a252100001e565e00a0a0a0
2950302035000a252100001a023a8018
71382d40582c45000a252100001e011d
007251d01e206e2855000a252100001e
00000000000000000000000000000000
00000000000000000000000000000052

Extracted contents:
header:          00 ff ff ff ff ff ff 00
serial number:   5c 23 63 10 c8 03 00 00 1d 14
version:         01 04
basic params:    b5 35 1e 78 02
chroma info:     ee 95 a3 54 4c 99 26 0f 50 54
established:     21 08 00
standard:        d1 c0 a9 40 81 c0 81 80 01 01 01 01 01 01 01 01
descriptor 1:    4d d0 00 a0 f0 70 3e 80 30 20 35 00 0a 25 21 00 00 1a
descriptor 2:    00 00 00 fc 00 43 69 6e 74 69 71 50 72 6f 32 34 50 0a
descriptor 3:    00 00 00 ff 00 30 47 48 30 30 46 31 30 30 30 39 36 38
descriptor 4:    00 00 00 fd 00 3b 3d 1e 88 3c 00 0a 20 20 20 20 20 20
extensions:      01
checksum:        5f

EDID version: 1.4
Manufacturer: WAC Model 1063 Serial Number --
Made in week 29 of 2010
Digital display
10 bits per primary color channel
DisplayPort interface
Maximum image size: 53 cm x 30 cm
Gamma: 2.20
Supported color formats: RGB 4:4:4
First detailed timing includes the native pixel format and preferred refresh rate
Display x,y Chromaticity:
  Red:   0.6396, 0.3300
  Green: 0.2998, 0.5996
  Blue:  0.1503, 0.0595
  White: 0.3134, 0.3291
Established timings supported:
  640x480@60Hz 4:3 HorFreq: 31469 Hz Clock: 25.175 MHz
  800x600@60Hz 4:3 HorFreq: 37900 Hz Clock: 40.000 MHz
  1024x768@60Hz 4:3 HorFreq: 48400 Hz Clock: 65.000 MHz
Standard timings supported:
  1920x1080@60Hz 16:9
  1600x1200@60Hz 4:3 HorFreq: 75000 Hz Clock: 162.000 MHz
  1280x720@60Hz 16:9
  1280x1024@60Hz 5:4 HorFreq: 64000 Hz Clock: 108.000 MHz
Detailed mode: Clock 533.250 MHz, 522 mm x 293 mm
               3840 3888 3920 4000 hborder 0
               2160 2163 2168 2222 vborder 0
               +hsync -vsync 
               VertFreq: 59 Hz, HorFreq: 133312 Hz
Monitor name: CintiqPro24P
Serial number: --
Monitor ranges (GTF): 59-61Hz V, 30-136kHz H, max dotclock 600MHz
Has 1 extension blocks
Checksum: 0x5f (valid)

CTA extension block
Extension version: 3
20 bytes of CTA data
  Video data block
    VIC  97 3840x2160@60Hz 16:9  HorFreq: 135000 Hz Clock: 594.000 MHz
    VIC  16 1920x1080@60Hz 16:9  HorFreq: 67500 Hz Clock: 148.500 MHz
    VIC   4 1280x720@60Hz 16:9  HorFreq: 45000 Hz Clock: 74.250 MHz
    VIC   3 720x480@60Hz 16:9  HorFreq: 31469 Hz Clock: 27.000 MHz
    VIC   1 640x480@60Hz 4:3  HorFreq: 31469 Hz Clock: 25.175 MHz
  Audio data block
    Linear PCM, max channels 2
      Supported sample rates (kHz): 48 44.1 32
      Supported sample sizes (bits): 24 20 16
  Speaker allocation data block
    Speaker map:
      FL/FR - Front Left/Right
  Vendor-specific data block, OUI 000c03 (HDMI)
    Source physical address 2.0.0.0
Underscans PC formats by default
Basic audio support
0 native detailed modes
Detailed mode: Clock 594.000 MHz, 522 mm x 293 mm
               3840 4016 4104 4400 hborder 0
               2160 2168 2178 2250 vborder 0
               +hsync +vsync 
               VertFreq: 60 Hz, HorFreq: 135000 Hz
Detailed mode: Clock 241.500 MHz, 522 mm x 293 mm
               2560 2608 2640 2720 hborder 0
               1440 1443 1448 1481 vborder 0
               +hsync -vsync 
               VertFreq: 59 Hz, HorFreq: 88786 Hz
Detailed mode: Clock 148.500 MHz, 522 mm x 293 mm
               1920 2008 2052 2200 hborder 0
               1080 1084 1089 1125 vborder 0
               +hsync +vsync 
               VertFreq: 60 Hz, HorFreq: 67500 Hz
Detailed mode: Clock 74.250 MHz, 522 mm x 293 mm
               1280 1390 1430 1650 hborder 0
                720  725  730  750 vborder 0
               +hsync +vsync 
               VertFreq: 60 Hz, HorFreq: 45000 Hz
Checksum: 0x52 (valid)

EDID block does not conform at all!
	Both the serial number and the serial string are set
