
EDID (hex):
00ffffffffffff000472f90200000000
311b010480351e78ca57e0a5544f9d26
12505400000001010101010101010101
010101010101087080a0703845403020
3500e00e1100001e775c80a070383a40
30203500e00e1100001e057c80587038
124018203500e00e1100001e023a8018
71382d40582c4500e00e1100001e015b
02030c40230907078301000000000000
00000000000000000000000000000000
00000000000000000000000000000000
00000000000000000000000000000000
00000000000000000000000000000000
00000000000000000000000000000000
00000000000000000000000000000000
000000000000000000000000000000f1

Extracted contents:
header:          00 ff ff ff ff ff ff 00
serial number:   04 72 f9 02 00 00 00 00 31 1b
version:         01 04
basic params:    80 35 1e 78 ca
chroma info:     57 e0 a5 54 4f 9d 26 12 50 54
established:     00 00 00
standard:        01 01 01 01 01 01 01 01 01 01 01 01 01 01 01 01
descriptor 1:    08 70 80 a0 70 38 45 40 30 20 35 00 e0 0e 11 00 00 1e
descriptor 2:    77 5c 80 a0 70 38 3a 40 30 20 35 00 e0 0e 11 00 00 1e
descriptor 3:    05 7c 80 58 70 38 12 40 18 20 35 00 e0 0e 11 00 00 1e
descriptor 4:    02 3a 80 18 71 38 2d 40 58 2c 45 00 e0 0e 11 00 00 1e
extensions:      01
checksum:        5b

EDID version: 1.4
Manufacturer: ACR Model 2f9 Serial Number --
Made in week 49 of 2017
Digital display
Color depth is undefined
Digital interface is not defined
Maximum image size: 53 cm x 30 cm
Gamma: 2.20
DPMS levels: Standby Suspend
Supported color formats: RGB 4:4:4, YCrCb 4:4:4
First detailed timing includes the native pixel format and preferred refresh rate
Display x,y Chromaticity:
  Red:   0.6455, 0.3291
  Green: 0.3095, 0.6162
  Blue:  0.1513, 0.0722
  White: 0.3125, 0.3281
Established timings supported:
Standard timings supported:
Detailed mode: Clock 286.800 MHz, 480 mm x 270 mm
               1920 1968 2000 2080 hborder 0
               1080 1083 1088 1149 vborder 0
               +hsync +vsync 
               VertFreq: 120 Hz, HorFreq: 137884 Hz
Detailed mode: Clock 236.710 MHz, 480 mm x 270 mm
               1920 1968 2000 2080 hborder 0
               1080 1083 1088 1138 vborder 0
               +hsync +vsync 
               VertFreq: 100 Hz, HorFreq: 113802 Hz
Detailed mode: Clock 317.490 MHz, 480 mm x 270 mm
               1920 1944 1976 2008 hborder 0
               1080 1083 1088 1098 vborder 0
               +hsync +vsync 
               VertFreq: 144 Hz, HorFreq: 158112 Hz
Detailed mode: Clock 148.500 MHz, 480 mm x 270 mm
               1920 2008 2052 2200 hborder 0
               1080 1084 1089 1125 vborder 0
               +hsync +vsync 
               VertFreq: 60 Hz, HorFreq: 67500 Hz
Has 1 extension blocks
Checksum: 0x5b (valid)

CTA extension block
Extension version: 3
8 bytes of CTA data
  Audio data block
    Linear PCM, max channels 2
      Supported sample rates (kHz): 48 44.1 32
      Supported sample sizes (bits): 24 20 16
  Speaker allocation data block
    Speaker map:
      FL/FR - Front Left/Right
Basic audio support
0 native detailed modes
Checksum: 0xf1 (valid)

EDID block does NOT conform to EDID 1.4!
	Required 640x480p60 timings are missing in the established timings
	and/or in the SVD list (VIC 1)
	Missing name descriptor
	Missing monitor ranges
