edid-decode (hex):

00 ff ff ff ff ff ff 00 0e 77 31 14 00 00 00 00
00 21 01 04 b5 1e 13 78 03 2f 55 a6 54 4c 9b 24
0d 50 54 00 00 00 01 01 01 01 01 01 01 01 01 01
01 01 01 01 01 01 17 88 40 a0 b0 08 6e 70 30 20
36 00 2d bc 10 00 00 18 00 00 00 fd 00 1e 78 e6
e6 46 01 0a 20 20 20 20 20 20 00 00 00 fe 00 43
53 4f 54 20 54 33 0a 20 20 20 20 20 00 00 00 fc
00 4d 4e 45 30 30 37 5a 41 33 2d 32 0a 20 01 fc

70 12 79 00 00 03 01 28 2c 10 01 85 3f 0b 9f 00
2f 00 1f 00 07 07 6d 00 02 00 05 00 de 6c 00 05
3f 0b 9f 00 2f 00 1f 00 07 07 6d 00 02 00 05 00
00 00 00 00 00 00 00 00 00 00 00 00 00 00 00 00
00 00 00 00 00 00 00 00 00 00 00 00 00 00 00 00
00 00 00 00 00 00 00 00 00 00 00 00 00 00 00 00
00 00 00 00 00 00 00 00 00 00 00 00 00 00 00 00
00 00 00 00 00 00 00 00 00 00 00 00 00 00 c6 90

00 ff ff ff ff ff ff 00 0e 77 31 14 00 00 00 00
00 21 01 04 b5 1e 13 78 03 2f 55 a6 54 4c 9b 24
0d 50 54 00 00 00 01 01 01 01 01 01 01 01 01 01
01 01 01 01 01 01 17 88 40 a0 b0 08 6e 70 30 20
36 00 2d bc 10 00 00 18 00 00 00 fd 00 1e 78 e6
e6 46 01 0a 20 20 20 20 20 20 00 00 00 fe 00 43
53 4f 54 20 54 33 0a 20 20 20 20 20 00 00 00 fc
00 4d 4e 45 30 30 37 5a 41 33 2d 32 0a 20 01 fc

70 12 79 00 00 03 01 28 2c 10 01 85 3f 0b 9f 00
2f 00 1f 00 07 07 6d 00 02 00 05 00 de 6c 00 05
3f 0b 9f 00 2f 00 1f 00 07 07 6d 00 02 00 05 00
00 00 00 00 00 00 00 00 00 00 00 00 00 00 00 00
00 00 00 00 00 00 00 00 00 00 00 00 00 00 00 00
00 00 00 00 00 00 00 00 00 00 00 00 00 00 00 00
00 00 00 00 00 00 00 00 00 00 00 00 00 00 00 00
00 00 00 00 00 00 00 00 00 00 00 00 00 00 c6 90

----------------

Block 0, Base EDID:
  EDID Structure Version & Revision: 1.4
  Vendor & Product Identification:
    Manufacturer: CSW
    Model: 5169
    Made in: 2023
  Basic Display Parameters & Features:
    Digital display
    Bits per primary color channel: 10
    DisplayPort interface
    Maximum image size: 30 cm x 19 cm
    Gamma: 2.20
    Supported color formats: RGB 4:4:4
    First detailed timing includes the native pixel format and preferred refresh rate
    Display is continuous frequency
  Color Characteristics:
    Red  : 0.6484, 0.3300
    Green: 0.2998, 0.6083
    Blue : 0.1416, 0.0517
    White: 0.3134, 0.3291
  Established Timings I & II: none
  Standard Timings: none
  Detailed Timing Descriptors:
    DTD 1:  2880x1800   60.001033 Hz  16:10   114.602 kHz    348.390000 MHz (301 mm x 188 mm)
                 Hfront   48 Hsync  32 Hback   80 Hpol N
                 Vfront    3 Vsync   6 Vback  101 Vpol N
    Display Range Limits:
      Monitor ranges (Bare Limits): 30-120 Hz V, 230-230 kHz H, max dotclock 700 MHz
    Alphanumeric Data String: 'CSOT T3'
    Display Product Name: 'MNE007ZA3-2'
  Extension blocks: 1
Checksum: 0xfc

----------------

Block 1, DisplayID Extension Block:
  Version: 1.2
  Extension Count: 0
  Display Product Type: Extension Section
  Video Timing Modes Type 1 - Detailed Timings Data Block:
    DTD:  2880x1800  120.000344 Hz  16:10   229.201 kHz    696.770000 MHz (aspect 16:10, no 3D stereo, preferred)
               Hfront   48 Hsync  32 Hback   80 Hpol N
               Vfront    3 Vsync   6 Vback  101 Vpol N
    DTD:  2880x1800   48.000482 Hz  16:10    91.681 kHz    278.710000 MHz (aspect 16:10, no 3D stereo)
               Hfront   48 Hsync  32 Hback   80 Hpol N
               Vfront    3 Vsync   6 Vback  101 Vpol N
  Checksum: 0xc6
Checksum: 0x90

----------------

Block 2, Unknown EDID Extension Block 0x00:
  00 ff ff ff ff ff ff 00 0e 77 31 14 00 00 00 00 '.........w1.....'
  00 21 01 04 b5 1e 13 78 03 2f 55 a6 54 4c 9b 24 '.!.....x./U.TL.$'
  0d 50 54 00 00 00 01 01 01 01 01 01 01 01 01 01 '.PT.............'
  01 01 01 01 01 01 17 88 40 a0 b0 08 6e 70 30 20 '........@...np0 '
  36 00 2d bc 10 00 00 18 00 00 00 fd 00 1e 78 e6 '6.-...........x.'
  e6 46 01 0a 20 20 20 20 20 20 00 00 00 fe 00 43 '.F..      .....C'
  53 4f 54 20 54 33 0a 20 20 20 20 20 00 00 00 fc 'SOT T3.     ....'
  00 4d 4e 45 30 30 37 5a 41 33 2d 32 0a 20 01 fc '.MNE007ZA3-2. ..'
Checksum: 0xfc

----------------

Block 3, DisplayID Extension Block:
  Version: 1.2
  Extension Count: 0
  Video Timing Modes Type 1 - Detailed Timings Data Block:
    DTD:  2880x1800  120.000344 Hz  16:10   229.201 kHz    696.770000 MHz (aspect 16:10, no 3D stereo, preferred)
               Hfront   48 Hsync  32 Hback   80 Hpol N
               Vfront    3 Vsync   6 Vback  101 Vpol N
    DTD:  2880x1800   48.000482 Hz  16:10    91.681 kHz    278.710000 MHz (aspect 16:10, no 3D stereo)
               Hfront   48 Hsync  32 Hback   80 Hpol N
               Vfront    3 Vsync   6 Vback  101 Vpol N
  Checksum: 0xc6
Checksum: 0x90

----------------

Warnings:

EDID:
  Base EDID: Some timings are out of range of the Monitor Ranges:
    Horizontal Freq: 91.680 - 229.200 kHz (Monitor: 230.000 - 230.000 kHz)

Failures:

Block 1, DisplayID Extension Block:
  DisplayID Base Block has no product type.
  Expected 0 DisplayID Extension Block, but got 1.
Block 2, Base EDID:
  Unknown Extension Block.
EDID:
  Base EDID: EDID specified 1 extension block(s), but found 3 extension block(s).
  DisplayID: Missing DisplayID Product Identification Data Block.

EDID conformity: FAIL
