
EDID (hex):
00ffffffffffff0009e5029007062120
2d1f010380090f78aab065a656539d28
0c505400000001010101010101010101
010101010101eb1c209030001b505a18
98005e970000001eda1bd08c20002850
4008a0015e970000001e531158a420c0
18304408c4005e970000001e00000010
00000000000000000000000000000135
02030030d05020002e50200aa00171b5
00000000000000000000000000000000
00000000000000000000000000000000
00000000000000000000000000000000
00000000000000000000000000000000
00000000000000000000000000000000
00000000000000000000000000000000
0000000000000000000000000000001c

Extracted contents:
header:          00 ff ff ff ff ff ff 00
serial number:   09 e5 02 90 07 06 21 20 2d 1f
version:         01 03
basic params:    80 09 0f 78 aa
chroma info:     b0 65 a6 56 53 9d 28 0c 50 54
established:     00 00 00
standard:        01 01 01 01 01 01 01 01 01 01 01 01 01 01 01 01
descriptor 1:    eb 1c 20 90 30 00 1b 50 5a 18 98 00 5e 97 00 00 00 1e
descriptor 2:    da 1b d0 8c 20 00 28 50 40 08 a0 01 5e 97 00 00 00 1e
descriptor 3:    53 11 58 a4 20 c0 18 30 44 08 c4 00 5e 97 00 00 00 1e
descriptor 4:    00 00 00 10 00 00 00 00 00 00 00 00 00 00 00 00 00 00
extensions:      01
checksum:        35

EDID version: 1.3
Manufacturer: BOE Model 9002 Serial Number --
Made in week 45 of 2021
Digital display
Maximum image size: 9 cm x 15 cm
Gamma: 2.20
DPMS levels: Standby Off
RGB color display
First detailed timing is preferred timing
Display x,y Chromaticity:
  Red:   0.6503, 0.3388
  Green: 0.3242, 0.6132
  Blue:  0.1572, 0.0488
  White: 0.3134, 0.3291
Established timings supported:
Standard timings supported:
Detailed mode: Clock 74.030 MHz, 94 mm x 151 mm
                800  890  914  944 hborder 0
               1280 1289 1297 1307 vborder 0
               +hsync +vsync 
               VertFreq: 60 Hz, HorFreq: 78421 Hz
Detailed mode: Clock 71.300 MHz, 94 mm x 151 mm
                720  784  792  860 hborder 0
               1280 1290 1306 1320 vborder 0
               +hsync +vsync 
               VertFreq: 62 Hz, HorFreq: 82906 Hz
Detailed mode: Clock 44.350 MHz, 94 mm x 151 mm
                600  668  676  764 hborder 0
                960  972  976  984 vborder 0
               +hsync +vsync 
               VertFreq: 58 Hz, HorFreq: 58049 Hz
Dummy block
Has 1 extension blocks
Checksum: 0x35 (valid)

CTA extension block
Extension version: 3
Checksum: 0x1c (valid)

EDID block does NOT conform to EDID 1.3!
	Required 640x480p60 timings are missing in the established timings
	and/or in the SVD list (VIC 1)
	Missing name descriptor
	Missing monitor ranges
