
EDID (hex):
00ffffffffffff0030ae554000000000
0011010380211578eaba709859528c28
25505400000001010101010101010101
010101010101e73a808c70b014401e50
24004bcf100000191631808c70b01440
1e5024004bcf100000190000000f00d1
0a32d10a28110100320c0000000000fe
004c503135345755312d544c4231009a

Extracted contents:
header:          00 ff ff ff ff ff ff 00
serial number:   30 ae 55 40 00 00 00 00 00 11
version:         01 03
basic params:    80 21 15 78 ea
chroma info:     ba 70 98 59 52 8c 28 25 50 54
established:     00 00 00
standard:        01 01 01 01 01 01 01 01 01 01 01 01 01 01 01 01
descriptor 1:    e7 3a 80 8c 70 b0 14 40 1e 50 24 00 4b cf 10 00 00 19
descriptor 2:    16 31 80 8c 70 b0 14 40 1e 50 24 00 4b cf 10 00 00 19
descriptor 3:    00 00 00 0f 00 d1 0a 32 d1 0a 28 11 01 00 32 0c 00 00
descriptor 4:    00 00 00 fe 00 4c 50 31 35 34 57 55 31 2d 54 4c 42 31
extensions:      00
checksum:        9a

EDID version: 1.3
Manufacturer: LEN Model 4055 Serial Number --
Made in year 2007
Digital display
Maximum image size: 33 cm x 21 cm
Gamma: 2.20
DPMS levels: Standby Suspend Off
RGB color display
First detailed timing is preferred timing
Display x,y Chromaticity:
  Red:   0.5957, 0.3505
  Green: 0.3222, 0.5488
  Blue:  0.1572, 0.1474
  White: 0.3125, 0.3281
Established timings supported:
Standard timings supported:
Detailed mode: Clock 150.790 MHz, 331 mm x 207 mm
               1920 1950 2030 2060 hborder 0
               1200 1202 1206 1220 vborder 0
               -hsync -vsync 
               VertFreq: 59 Hz, HorFreq: 73199 Hz
Detailed mode: Clock 125.660 MHz, 331 mm x 207 mm
               1920 1950 2030 2060 hborder 0
               1200 1202 1206 1220 vborder 0
               -hsync -vsync 
               VertFreq: 50 Hz, HorFreq: 61000 Hz
Manufacturer-specified data, tag 15
ASCII string: LP154WU1-TLB1
Checksum: 0x9a (valid)
EDID block does NOT conform to EDID 1.3!
	Missing name descriptor
	Missing monitor ranges
