edid-decode (hex):

00 ff ff ff ff ff ff 00 30 64 e2 58 36 31 31 32
21 10 01 03 80 1a 10 78 0a 87 ae 99 57 4f 8c 26
22 50 54 00 00 00 01 01 01 01 01 01 01 01 01 01
01 01 01 01 01 01 2a 1c 00 a8 50 20 1e 30 10 30
22 00 05 a3 10 00 00 18 00 00 00 00 00 00 00 00
00 00 00 00 00 00 00 00 00 00 00 00 00 fe 00 47
46 39 35 31 a5 31 32 31 45 58 45 44 00 00 00 fe
00 27 36 42 4a 69 89 a9 eb 01 01 0a 20 20 00 f1

----------------

Block 0, Base EDID:
  EDID Structure Version & Revision: 1.3
  Vendor & Product Identification:
    Manufacturer: LCD
    Model: 22754
    Serial Number: ...
    Made in: week 33 of 2006
  Basic Display Parameters & Features:
    Digital display
    Maximum image size: 26 cm x 16 cm
    Gamma: 2.20
    RGB color display
    First detailed timing is the preferred timing
  Color Characteristics:
    Red  : 0.5996, 0.3398
    Green: 0.3095, 0.5498
    Blue : 0.1503, 0.1347
    White: 0.3154, 0.3300
  Established Timings I & II: none
  Standard Timings: none
  Detailed Timing Descriptors:
    DTD 1:  1280x800    59.991347 Hz  16:10    49.793 kHz     72.100000 MHz (261 mm x 163 mm)
                 Hfront   16 Hsync  48 Hback  104 Hpol N
                 Vfront    2 Vsync   2 Vback   26 Vpol N
    Empty Descriptor
    Alphanumeric Data String: 'GF951'
    Alphanumeric Data String: ''6BJi'
Checksum: 0xf1

----------------

Failures:

Block 0, Base EDID:
  Empty Descriptor: Use Dummy Descriptor instead of all zeroes.
  Alphanumeric Data String: Non-printable character.
  Alphanumeric Data String: Non-printable character.
  Missing Display Product Name.
  Missing Display Range Limits Descriptor.

EDID conformity: FAIL
