
EDID (hex):
00ffffffffffff0010ac033037345741
220b0103881e16662a60d1a0584f9224
1a5253a54e0001010101010101010101
01010101010164190040410026301888
360030e410000018000000ff00333244
565831384e415734370a000000fc0044
454c4c203135303346500a20000000fd
003c4b1e3cff000a20202020202000ba

edid-decode (hex):

00 ff ff ff ff ff ff 00 10 ac 03 30 37 34 57 41
22 0b 01 03 88 1e 16 66 2a 60 d1 a0 58 4f 92 24
1a 52 53 a5 4e 00 01 01 01 01 01 01 01 01 01 01
01 01 01 01 01 01 64 19 00 40 41 00 26 30 18 88
36 00 30 e4 10 00 00 18 00 00 00 ff 00 33 32 44
56 58 31 38 4e 41 57 34 37 0a 00 00 00 fc 00 44
45 4c 4c 20 31 35 30 33 46 50 0a 20 00 00 00 fd
00 3c 4b 1e 3c ff 00 0a 20 20 20 20 20 20 00 ba

----------------

Block 0, Base EDID:
  EDID Structure Version & Revision: 1.3
  Vendor & Product Identification:
    Manufacturer: DEL
    Model: 12291
    Serial Number: 1096234039
    Made in: week 34 of 2001
  Basic Display Parameters & Features:
    Digital display
    Maximum image size: 30 cm x 22 cm
    Gamma: 2.02
    DPMS levels: Off
    RGB color display
    First detailed timing is the preferred timing
  Color Characteristics:
    Red  : 0.6259, 0.3457
    Green: 0.3085, 0.5703
    Blue : 0.1435, 0.1025
    White: 0.3203, 0.3251
  Established Timings I & II:
    IBM     :   720x400    70.081663 Hz   9:5     31.467 kHz     28.320000 MHz
    DMT 0x04:   640x480    59.940476 Hz   4:3     31.469 kHz     25.175000 MHz
    DMT 0x06:   640x480    75.000000 Hz   4:3     37.500 kHz     31.500000 MHz
    DMT 0x09:   800x600    60.316541 Hz   4:3     37.879 kHz     40.000000 MHz
    DMT 0x0b:   800x600    75.000000 Hz   4:3     46.875 kHz     49.500000 MHz
    DMT 0x10:  1024x768    60.003840 Hz   4:3     48.363 kHz     65.000000 MHz
    DMT 0x11:  1024x768    70.069359 Hz   4:3     56.476 kHz     75.000000 MHz
    DMT 0x12:  1024x768    75.028582 Hz   4:3     60.023 kHz     78.750000 MHz
  Standard Timings: none
  Detailed Timing Descriptors:
    DTD 1:  1024x768    60.003840 Hz   4:3     48.363 kHz     65.000000 MHz (304 mm x 228 mm)
                 Hfront   24 Hsync 136 Hback  160 Hpol N
                 Vfront    3 Vsync   6 Vback   29 Vpol N
    Display Product Serial Number: '32DVX18NAW47'
    Display Product Name: 'DELL 1503FP'
    Display Range Limits:
      Monitor ranges (GTF): 60-75 Hz V, 30-60 kHz H, max dotclock 2550 MHz
Checksum: 0xba
