
EDID (hex):
00ffffffffffff0005e3072301010101
0014010368331d782a01f5a257529f27
0a5054a108009500b300010101010101
010101010101023a801871382d40582c
4500fd1e1100001e662150b051001b30
40703600fd1e1100001e000000fd0037
4b1f5510000a202020202020000000fc
004c453233483033370a202020200051

Extracted contents:
header:          00 ff ff ff ff ff ff 00
serial number:   05 e3 07 23 01 01 01 01 00 14
version:         01 03
basic params:    68 33 1d 78 2a
chroma info:     01 f5 a2 57 52 9f 27 0a 50 54
established:     a1 08 00
standard:        95 00 b3 00 01 01 01 01 01 01 01 01 01 01 01 01
descriptor 1:    02 3a 80 18 71 38 2d 40 58 2c 45 00 fd 1e 11 00 00 1e
descriptor 2:    66 21 50 b0 51 00 1b 30 40 70 36 00 fd 1e 11 00 00 1e
descriptor 3:    00 00 00 fd 00 37 4b 1f 55 10 00 0a 20 20 20 20 20 20
descriptor 4:    00 00 00 fc 00 4c 45 32 33 48 30 33 37 0a 20 20 20 20
extensions:      00
checksum:        51

EDID version: 1.3
Manufacturer: AOC Model 2307 Serial Number --
Made in year 2010
Analog display, Input voltage level: 0.7/0.7 V
Sync: Separate 
Maximum image size: 51 cm x 29 cm
Gamma: 2.20
DPMS levels: Off
RGB color display
First detailed timing is preferred timing
Display x,y Chromaticity:
  Red:   0.6328, 0.3398
  Green: 0.3203, 0.6220
  Blue:  0.1552, 0.0419
  White: 0.3134, 0.3291
Established timings supported:
  720x400@70Hz 9:5 HorFreq: 31469 Hz Clock: 28.320 MHz
  640x480@60Hz 4:3 HorFreq: 31469 Hz Clock: 25.175 MHz
  800x600@60Hz 4:3 HorFreq: 37900 Hz Clock: 40.000 MHz
  1024x768@60Hz 4:3 HorFreq: 48400 Hz Clock: 65.000 MHz
Standard timings supported:
  1440x900@60Hz 16:10 HorFreq: 55500 Hz Clock: 88.750 MHz
  1680x1050@60Hz 16:10 HorFreq: 64700 Hz Clock: 119.000 MHz
Detailed mode: Clock 148.500 MHz, 509 mm x 286 mm
               1920 2008 2052 2200 hborder 0
               1080 1084 1089 1125 vborder 0
               +hsync +vsync 
               VertFreq: 60 Hz, HorFreq: 67500 Hz
Detailed mode: Clock 85.500 MHz, 509 mm x 286 mm
               1360 1424 1536 1792 hborder 0
                768  771  777  795 vborder 0
               +hsync +vsync 
               VertFreq: 60 Hz, HorFreq: 47712 Hz
Monitor ranges (GTF): 55-75Hz V, 31-85kHz H, max dotclock 160MHz
Monitor name: LE23H037
Checksum: 0x51 (valid)
