
EDID (hex):
00ffffffffffff003064073001010101
2a120103802115780a4fd59c574b8c27
1f505400000001010101010101010101
010101010101473b800871b023406420
26004cd0100000180000000f00082810
38011102111e20081200000000fe0054
4d444953504c41590a202020000000fe
004c5431353444455a355a30300a0024

Extracted contents:
header:          00 ff ff ff ff ff ff 00
serial number:   30 64 07 30 01 01 01 01 2a 12
version:         01 03
basic params:    80 21 15 78 0a
chroma info:     4f d5 9c 57 4b 8c 27 1f 50 54
established:     00 00 00
standard:        01 01 01 01 01 01 01 01 01 01 01 01 01 01 01 01
descriptor 1:    47 3b 80 08 71 b0 23 40 64 20 26 00 4c d0 10 00 00 18
descriptor 2:    00 00 00 0f 00 08 28 10 38 01 11 02 11 1e 20 08 12 00
descriptor 3:    00 00 00 fe 00 54 4d 44 49 53 50 4c 41 59 0a 20 20 20
descriptor 4:    00 00 00 fe 00 4c 54 31 35 34 44 45 5a 35 5a 30 30 0a
extensions:      00
checksum:        24

EDID version: 1.3
Manufacturer: LCD Model 3007 Serial Number --
Made in week 42 of 2008
Digital display
Maximum image size: 33 cm x 21 cm
Gamma: 2.20
RGB color display
First detailed timing is preferred timing
Display x,y Chromaticity:
  Red:   0.6103, 0.3398
  Green: 0.2958, 0.5498
  Blue:  0.1552, 0.1220
  White: 0.3134, 0.3291
Established timings supported:
Standard timings supported:
Detailed mode: Clock 151.750 MHz, 332 mm x 208 mm
               1920 2020 2052 2184 hborder 0
               1200 1202 1208 1235 vborder 0
               -hsync -vsync 
               VertFreq: 56 Hz, HorFreq: 69482 Hz
Manufacturer-specified data, tag 15
ASCII string: TMDISPLAY
ASCII string: LT154DEZ5Z00
Checksum: 0x24 (valid)
EDID block does NOT conform to EDID 1.3!
	Missing name descriptor
	Missing monitor ranges
