
EDID (hex):
00ffffffffffff0006af742200000000
01120103802115780a1cf59758508e27
27505400000001010101010101010101
010101010101d61b00b1502010301030
13004bcf10000019d61b00b150201030
103013004bcf10000000000000fe0057
363531470042313534455732000000fe
0031414d557495c8ff01010a202000c5

Extracted contents:
header:          00 ff ff ff ff ff ff 00
serial number:   06 af 74 22 00 00 00 00 01 12
version:         01 03
basic params:    80 21 15 78 0a
chroma info:     1c f5 97 58 50 8e 27 27 50 54
established:     00 00 00
standard:        01 01 01 01 01 01 01 01 01 01 01 01 01 01 01 01
descriptor 1:    d6 1b 00 b1 50 20 10 30 10 30 13 00 4b cf 10 00 00 19
descriptor 2:    d6 1b 00 b1 50 20 10 30 10 30 13 00 4b cf 10 00 00 00
descriptor 3:    00 00 00 fe 00 57 36 35 31 47 00 42 31 35 34 45 57 32
descriptor 4:    00 00 00 fe 00 31 41 4d 55 74 95 c8 ff 01 01 0a 20 20
extensions:      00
checksum:        c5

EDID version: 1.3
Manufacturer: AUO Model 2274 Serial Number --
Made in week 1 of 2008
Digital display
Maximum image size: 33 cm x 21 cm
Gamma: 2.20
RGB color display
First detailed timing is preferred timing
Display x,y Chromaticity:
  Red:   0.5898, 0.3447
  Green: 0.3154, 0.5546
  Blue:  0.1552, 0.1552
  White: 0.3134, 0.3291
Established timings supported:
Standard timings supported:
Detailed mode: Clock 71.260 MHz, 331 mm x 207 mm
               1280 1296 1344 1457 hborder 0
                800  801  804  816 vborder 0
               -hsync -vsync 
               VertFreq: 59 Hz, HorFreq: 48908 Hz
Detailed mode: Clock 71.260 MHz, 331 mm x 207 mm
               1280 1296 1344 1457 hborder 0
                800  801  804  816 vborder 0
               -hsync -vsync analog composite 
               VertFreq: 59 Hz, HorFreq: 48908 Hz
ASCII string: W651G
ASCII string: 1AMUt
Checksum: 0xc5 (valid)
EDID block does NOT conform to EDID 1.3!
	Missing name descriptor
	Missing monitor ranges
	Detailed block string not properly terminated
