
EDID (hex):
00ffffffffffff0026cf7a0500000000
00190103801f11780a16309156539228
1e505400000001010101010101010101
010101010101241c5678500028301428
6c0035ae100000190000000000000000
00000000000000000000000000fe0049
6e666f566973696f6e0a2020000000fe
004d3134304e575232205231200a00ab

Extracted contents:
header:          00 ff ff ff ff ff ff 00
serial number:   26 cf 7a 05 00 00 00 00 00 19
version:         01 03
basic params:    80 1f 11 78 0a
chroma info:     16 30 91 56 53 92 28 1e 50 54
established:     00 00 00
standard:        01 01 01 01 01 01 01 01 01 01 01 01 01 01 01 01
descriptor 1:    24 1c 56 78 50 00 28 30 14 28 6c 00 35 ae 10 00 00 19
descriptor 2:    00 00 00 00 00 00 00 00 00 00 00 00 00 00 00 00 00 00
descriptor 3:    00 00 00 fe 00 49 6e 66 6f 56 69 73 69 6f 6e 0a 20 20
descriptor 4:    00 00 00 fe 00 4d 31 34 30 4e 57 52 32 20 52 31 20 0a
extensions:      00
checksum:        ab

EDID version: 1.3
Manufacturer: IVO Model 57a Serial Number --
Made in year 2015
Digital display
Maximum image size: 31 cm x 17 cm
Gamma: 2.20
RGB color display
First detailed timing is preferred timing
Display x,y Chromaticity:
  Red:   0.5664, 0.3369
  Green: 0.3251, 0.5722
  Blue:  0.1562, 0.1201
  White: 0.3125, 0.3281
Established timings supported:
Standard timings supported:
Detailed mode: Clock 72.040 MHz, 309 mm x 174 mm
               1366 1386 1426 1486 hborder 0
                768  774  786  808 vborder 0
               -hsync -vsync 
               VertFreq: 59 Hz, HorFreq: 48479 Hz
Manufacturer-specified data, tag 0
ASCII string: InfoVision
ASCII string: M140NWR2 R1 
Checksum: 0xab (valid)
EDID block does NOT conform to EDID 1.3!
	Missing name descriptor
	Missing monitor ranges
