
EDID (hex):
00ffffffffffff0010ac04304d4c3341
020c0103081e1666ea60d1a0584f9224
1a5253a54a0001010101010101010101
01010101010164190040410026301888
360030e410000018000000ff00333244
565832313841334c4d0a000000fc0044
454c4c203135303346500a20000000fd
003c4b1e3cff000a20202020202000a4

Extracted contents:
header:          00 ff ff ff ff ff ff 00
serial number:   10 ac 04 30 4d 4c 33 41 02 0c
version:         01 03
basic params:    08 1e 16 66 ea
chroma info:     60 d1 a0 58 4f 92 24 1a 52 53
established:     a5 4a 00
standard:        01 01 01 01 01 01 01 01 01 01 01 01 01 01 01 01
descriptor 1:    64 19 00 40 41 00 26 30 18 88 36 00 30 e4 10 00 00 18
descriptor 2:    00 00 00 ff 00 33 32 44 56 58 32 31 38 41 33 4c 4d 0a
descriptor 3:    00 00 00 fc 00 44 45 4c 4c 20 31 35 30 33 46 50 0a 20
descriptor 4:    00 00 00 fd 00 3c 4b 1e 3c ff 00 0a 20 20 20 20 20 20
extensions:      00
checksum:        a4

EDID version: 1.3
Manufacturer: DEL Model 3004 Serial Number --
Analog display, Input voltage level: 0.7/0.3 V
Sync: Separate 
Maximum image size: 30 cm x 22 cm
Gamma: 2.02
DPMS levels: Standby Suspend Off
RGB color display
First detailed timing is preferred timing
Display x,y Chromaticity:
  Red:   0.6259, 0.3457
  Green: 0.3085, 0.5703
  Blue:  0.1435, 0.1025
  White: 0.3203, 0.3251
Established timings supported:
  720x400@70Hz 9:5 HorFreq: 31469 Hz Clock: 28.320 MHz
  640x480@60Hz 4:3 HorFreq: 31469 Hz Clock: 25.175 MHz
  640x480@75Hz 4:3 HorFreq: 37500 Hz Clock: 31.500 MHz
  800x600@60Hz 4:3 HorFreq: 37900 Hz Clock: 40.000 MHz
  800x600@75Hz 4:3 HorFreq: 46900 Hz Clock: 49.500 MHz
  1024x768@60Hz 4:3 HorFreq: 48400 Hz Clock: 65.000 MHz
  1024x768@75Hz 4:3 HorFreq: 60000 Hz Clock: 78.750 MHz
Standard timings supported:
Detailed mode: Clock 65.000 MHz, 304 mm x 228 mm
               1024 1048 1184 1344 hborder 0
                768  771  777  806 vborder 0
               -hsync -vsync 
               VertFreq: 60 Hz, HorFreq: 48363 Hz
Serial number: --
Monitor name: DELL 1503FP
Monitor ranges (GTF): 60-75Hz V, 30-60kHz H, max dotclock 2550MHz
Checksum: 0xa4 (valid)
EDID block does not conform at all!
	Bad year of manufacture
