
EDID (hex):
00ffffffffffff0006101f921ffffd02
260e010380311f782ecfb5a355499925
105054000000d1000101010101010101
010101010101253c80a070b023403020
3600ef361100001a000000fc0043696e
656d6120484420446973000000fc0070
6c61790a000000000000000000000000
00000000000000000000000000000192
40010200000000760001a500ffff031a
1aa80100000000004000000000000000
00000000000000000000000000000000
00000000000000000000000000000000
00000000000000000000000000000000
00000000000000000000000000000000
00000000000000000000000000000000
00000000000000000000000000000083

Extracted contents:
header:          00 ff ff ff ff ff ff 00
serial number:   06 10 1f 92 1f ff fd 02 26 0e
version:         01 03
basic params:    80 31 1f 78 2e
chroma info:     cf b5 a3 55 49 99 25 10 50 54
established:     00 00 00
standard:        d1 00 01 01 01 01 01 01 01 01 01 01 01 01 01 01
descriptor 1:    25 3c 80 a0 70 b0 23 40 30 20 36 00 ef 36 11 00 00 1a
descriptor 2:    00 00 00 fc 00 43 69 6e 65 6d 61 20 48 44 20 44 69 73
descriptor 3:    00 00 00 fc 00 70 6c 61 79 0a 00 00 00 00 00 00 00 00
descriptor 4:    00 00 00 00 00 00 00 00 00 00 00 00 00 00 00 00 00 00
extensions:      01
checksum:        92

EDID version: 1.3
Manufacturer: APP Model 921f Serial Number --
Digital display
Maximum image size: 49 cm x 31 cm
Gamma: 2.20
DPMS levels: Off
RGB color display
Default (sRGB) color space is primary color space
First detailed timing is preferred timing
Display x,y Chromaticity:
  Red:   0.6396, 0.3320
  Green: 0.2880, 0.6005
  Blue:  0.1464, 0.0654
  White: 0.3134, 0.3291
Established timings supported:
Standard timings supported:
  1920x1200@60Hz 16:10 HorFreq: 74000 Hz Clock: 154.000 MHz
Detailed mode: Clock 153.970 MHz, 495 mm x 310 mm
               1920 1968 2000 2080 hborder 0
               1200 1203 1209 1235 vborder 0
               +hsync -vsync 
               VertFreq: 59 Hz, HorFreq: 74024 Hz
Monitor name: Cinema HD Display
Manufacturer-specified data, tag 0
Has 1 extension blocks
Checksum: 0x92 (valid)

DI extension block

EDID block does NOT conform to EDID 1.3!
	sRGB is signaled, but the chromaticities do not match
	Missing monitor ranges
EDID block does not conform at all!
	Has 1845493760 nonconformant extension block(s)
	Bad year of manufacture
