
EDID (hex):
00ffffffffffff001e6de676c05d0500
021a010380462578eae9d5aa5034b625
0e50542108007140818081c0a9c0d1c0
01010101010104740030f2705a80b058
8a00b86f2100001a565e00a0a0a02950
30203500b86f2100001a000000fd0038
3d1e871e000a202020202020000000fc
0033314d5539370a20202020202001f3
02032171451004030122230907078301
00006e030c001000003c200080010203
04023a801871382d40582c4500b86f21
00001e011d007251d01e206e285500b8
6f21008c1e8c0ad08a20e02d10103e96
00b86f21000018000000ff003630324e
54504341423638300a00000000000000
0000000000000000000000000000006c

edid-decode (hex):

00 ff ff ff ff ff ff 00 1e 6d e6 76 c0 5d 05 00
02 1a 01 03 80 46 25 78 ea e9 d5 aa 50 34 b6 25
0e 50 54 21 08 00 71 40 81 80 81 c0 a9 c0 d1 c0
01 01 01 01 01 01 04 74 00 30 f2 70 5a 80 b0 58
8a 00 b8 6f 21 00 00 1a 56 5e 00 a0 a0 a0 29 50
30 20 35 00 b8 6f 21 00 00 1a 00 00 00 fd 00 38
3d 1e 87 1e 00 0a 20 20 20 20 20 20 00 00 00 fc
00 33 31 4d 55 39 37 0a 20 20 20 20 20 20 01 f3

02 03 21 71 45 10 04 03 01 22 23 09 07 07 83 01
00 00 6e 03 0c 00 10 00 00 3c 20 00 80 01 02 03
04 02 3a 80 18 71 38 2d 40 58 2c 45 00 b8 6f 21
00 00 1e 01 1d 00 72 51 d0 1e 20 6e 28 55 00 b8
6f 21 00 8c 1e 8c 0a d0 8a 20 e0 2d 10 10 3e 96
00 b8 6f 21 00 00 18 00 00 00 ff 00 36 30 32 4e
54 50 43 41 42 36 38 30 0a 00 00 00 00 00 00 00
00 00 00 00 00 00 00 00 00 00 00 00 00 00 00 6c

----------------

Block 0, Base EDID:
  EDID Structure Version & Revision: 1.3
  Vendor & Product Identification:
    Manufacturer: GSM
    Model: 30438
    Serial Number: 351680
    Made in: week 2 of 2016
  Basic Display Parameters & Features:
    Digital display
    Maximum image size: 70 cm x 37 cm
    Gamma: 2.20
    DPMS levels: Standby Suspend Off
    RGB color display
    First detailed timing is the preferred timing
  Color Characteristics:
    Red  : 0.6669, 0.3144
    Green: 0.2050, 0.7119
    Blue : 0.1474, 0.0556
    White: 0.3134, 0.3291
  Established Timings I & II:
    DMT 0x04:   640x480    59.940476 Hz   4:3     31.469 kHz     25.175000 MHz
    DMT 0x09:   800x600    60.316541 Hz   4:3     37.879 kHz     40.000000 MHz
    DMT 0x10:  1024x768    60.003840 Hz   4:3     48.363 kHz     65.000000 MHz
  Standard Timings:
    GTF     :  1152x864    60.000000 Hz   4:3     53.700 kHz     81.624000 MHz
    DMT 0x23:  1280x1024   60.019740 Hz   5:4     63.981 kHz    108.000000 MHz
    DMT 0x55:  1280x720    60.000000 Hz  16:9     45.000 kHz     74.250000 MHz
    DMT 0x53:  1600x900    60.000000 Hz  16:9     60.000 kHz    108.000000 MHz (RB)
    DMT 0x52:  1920x1080   60.000000 Hz  16:9     67.500 kHz    148.500000 MHz
  Detailed Timing Descriptors:
    DTD 1:  3840x2160   30.000000 Hz  16:9     67.500 kHz    297.000000 MHz (696 mm x 367 mm)
                 Hfront  176 Hsync  88 Hback  296 Hpol P
                 Vfront    8 Vsync  10 Vback   72 Vpol N
    DTD 2:  2560x1440   59.950550 Hz  16:9     88.787 kHz    241.500000 MHz (696 mm x 367 mm)
                 Hfront   48 Hsync  32 Hback   80 Hpol P
                 Vfront    3 Vsync   5 Vback   33 Vpol N
    Display Range Limits:
      Monitor ranges (GTF): 56-61 Hz V, 30-135 kHz H, max dotclock 300 MHz
    Display Product Name: '31MU97'
  Extension blocks: 1
Checksum: 0xf3

----------------

Block 1, CTA-861 Extension Block:
  Revision: 3
  Basic audio support
  Supports YCbCr 4:4:4
  Supports YCbCr 4:2:2
  Native detailed modes: 1
  Video Data Block:
    VIC  16:  1920x1080   60.000000 Hz  16:9     67.500 kHz    148.500000 MHz
    VIC   4:  1280x720    60.000000 Hz  16:9     45.000 kHz     74.250000 MHz
    VIC   3:   720x480    59.940060 Hz  16:9     31.469 kHz     27.000000 MHz
    VIC   1:   640x480    59.940476 Hz   4:3     31.469 kHz     25.175000 MHz
    VIC  34:  1920x1080   30.000000 Hz  16:9     33.750 kHz     74.250000 MHz
  Audio Data Block:
    Linear PCM:
      Max channels: 2
      Supported sample rates (kHz): 48 44.1 32
      Supported sample sizes (bits): 24 20 16
  Speaker Allocation Data Block:
    FL/FR - Front Left/Right
  Vendor-Specific Data Block (HDMI), OUI 00-0C-03:
    Source physical address: 1.0.0.0
    Maximum TMDS clock: 300 MHz
    Extended HDMI video details:
      HDMI VICs:
        HDMI VIC 1:  3840x2160   30.000000 Hz  16:9     67.500 kHz    297.000000 MHz
        HDMI VIC 2:  3840x2160   25.000000 Hz  16:9     56.250 kHz    297.000000 MHz
        HDMI VIC 3:  3840x2160   24.000000 Hz  16:9     54.000 kHz    297.000000 MHz
        HDMI VIC 4:  4096x2160   24.000000 Hz 256:135   54.000 kHz    297.000000 MHz
  Detailed Timing Descriptors:
    DTD 3:  1920x1080   60.000000 Hz  16:9     67.500 kHz    148.500000 MHz (696 mm x 367 mm)
                 Hfront   88 Hsync  44 Hback  148 Hpol P
                 Vfront    4 Vsync   5 Vback   36 Vpol P
    DTD 4:  1280x720    60.000000 Hz  16:9     45.000 kHz     74.250000 MHz (696 mm x 367 mm)
                 Hfront  110 Hsync  40 Hback  220 Hpol P
                 Vfront    5 Vsync   5 Vback -260 Vpol P Vborder 140
    DTD 5:   720x480    59.940060 Hz   3:2     31.469 kHz     27.000000 MHz (696 mm x 367 mm)
                 Hfront   16 Hsync  62 Hback   60 Hpol N
                 Vfront    9 Vsync   6 Vback   30 Vpol N
    Display Product Serial Number: '602NTPCAB680'
Checksum: 0x6c  Unused space in Extension Block: 22 bytes
