
EDID (hex):
00ffffffffffff000daee31500000000
261901049522137802ecd58d52539529
22505400000001010101010101010101
010101010101b43b804a713834402c1c
240058c11000001acc27804a71383440
2c1c240058c11000001a000000000000
00000000000000000000000000000002
000c3ded0c3c6e100f1d760000000096

Extracted contents:
header:          00 ff ff ff ff ff ff 00
serial number:   0d ae e3 15 00 00 00 00 26 19
version:         01 04
basic params:    95 22 13 78 02
chroma info:     ec d5 8d 52 53 95 29 22 50 54
established:     00 00 00
standard:        01 01 01 01 01 01 01 01 01 01 01 01 01 01 01 01
descriptor 1:    b4 3b 80 4a 71 38 34 40 2c 1c 24 00 58 c1 10 00 00 1a
descriptor 2:    cc 27 80 4a 71 38 34 40 2c 1c 24 00 58 c1 10 00 00 1a
descriptor 3:    00 00 00 00 00 00 00 00 00 00 00 00 00 00 00 00 00 00
descriptor 4:    00 00 00 02 00 0c 3d ed 0c 3c 6e 10 0f 1d 76 00 00 00
extensions:      00
checksum:        96

EDID version: 1.4
Manufacturer: CMN Model 15e3 Serial Number --
Made in week 38 of 2015
Digital display
6 bits per primary color channel
DisplayPort interface
Maximum image size: 34 cm x 19 cm
Gamma: 2.20
Supported color formats: RGB 4:4:4
First detailed timing includes the native pixel format and preferred refresh rate
Display x,y Chromaticity:
  Red:   0.5537, 0.3222
  Green: 0.3271, 0.5820
  Blue:  0.1630, 0.1337
  White: 0.3134, 0.3291
Established timings supported:
Standard timings supported:
Detailed mode: Clock 152.840 MHz, 344 mm x 193 mm
               1920 1964 1992 2250 hborder 0
               1080 1082 1086 1132 vborder 0
               +hsync -vsync 
               VertFreq: 60 Hz, HorFreq: 67928 Hz
Detailed mode: Clock 101.880 MHz, 344 mm x 193 mm
               1920 1964 1992 2250 hborder 0
               1080 1082 1086 1132 vborder 0
               +hsync -vsync 
               VertFreq: 40 Hz, HorFreq: 45280 Hz
Manufacturer-specified data, tag 0
Manufacturer-specified data, tag 2
Checksum: 0x96 (valid)
EDID block does NOT conform to EDID 1.4!
	Missing name descriptor
	Missing monitor ranges
