
EDID (hex):
00ffffffffffff0006af749200000000
01120103902115780a10b59758579226
1e505400000001010101010101010101
010101010101841c00c4502018303020
36004bcf1000001a841c00c450201830
302036004bcf1000001a000000fe0048
37303948804231353445573900000000
00000000000000000001010a202000e0

edid-decode (hex):

00 ff ff ff ff ff ff 00 06 af 74 92 00 00 00 00
01 12 01 03 90 21 15 78 0a 10 b5 97 58 57 92 26
1e 50 54 00 00 00 01 01 01 01 01 01 01 01 01 01
01 01 01 01 01 01 84 1c 00 c4 50 20 18 30 30 20
36 00 4b cf 10 00 00 1a 84 1c 00 c4 50 20 18 30
30 20 36 00 4b cf 10 00 00 1a 00 00 00 fe 00 48
37 30 39 48 80 42 31 35 34 45 57 39 00 00 00 00
00 00 00 00 00 00 00 00 00 01 01 0a 20 20 00 e0

----------------

Block 0, Base EDID:
  EDID Structure Version & Revision: 1.3
  Vendor & Product Identification:
    Manufacturer: AUO
    Model: 37492
    Made in: week 1 of 2008
  Basic Display Parameters & Features:
    Digital display
    Maximum image size: 33 cm x 21 cm
    Gamma: 2.20
    RGB color display
    First detailed timing is the preferred timing
  Color Characteristics:
    Red  : 0.5898, 0.3447
    Green: 0.3398, 0.5703
    Blue : 0.1503, 0.1201
    White: 0.3134, 0.3291
  Established Timings I & II: none
  Standard Timings: none
  Detailed Timing Descriptors:
    DTD 1:  1280x800    60.021838 Hz  16:10    49.458 kHz     73.000000 MHz (331 mm x 207 mm)
                 Hfront   48 Hsync  32 Hback  116 Hpol P
                 Vfront    3 Vsync   6 Vback   15 Vpol N
    DTD 2:  1280x800    60.021838 Hz  16:10    49.458 kHz     73.000000 MHz (331 mm x 207 mm)
                 Hfront   48 Hsync  32 Hback  116 Hpol P
                 Vfront    3 Vsync   6 Vback   15 Vpol N
    Alphanumeric Data String: 'H709H'
    Manufacturer-Specified Display Descriptor (0x00): 00 00 00 00 00 00 00 00 00 00 00 01 01 0a 20 20 '..............  '
Checksum: 0xe0
