
EDID (hex):
00ffffffffffff002264475a01010101
0c110103802517780a14c6a058538e27
254f5421000001010101010101010101
0101010101019a29a0d0518422305098
360098ff1000001e000000fd00374b18
470e000a202020202020000000ff0037
31324e483343593030353532000000fc
0048616e6e732e4720485731373301f8
020319c1418423090707830100006703
0c000000001ee2000f00000000000000
00000000000000000000000000000000
00000000000000000000000000000000
00000000000000000000000000000000
00000000000000000000000000000000
00000000000000000000000000000000
00000000000000000000000000000019

Extracted contents:
header:          00 ff ff ff ff ff ff 00
serial number:   22 64 47 5a 01 01 01 01 0c 11
version:         01 03
basic params:    80 25 17 78 0a
chroma info:     14 c6 a0 58 53 8e 27 25 4f 54
established:     21 00 00
standard:        01 01 01 01 01 01 01 01 01 01 01 01 01 01 01 01
descriptor 1:    9a 29 a0 d0 51 84 22 30 50 98 36 00 98 ff 10 00 00 1e
descriptor 2:    00 00 00 fd 00 37 4b 18 47 0e 00 0a 20 20 20 20 20 20
descriptor 3:    00 00 00 ff 00 37 31 32 4e 48 33 43 59 30 30 35 35 32
descriptor 4:    00 00 00 fc 00 48 61 6e 6e 73 2e 47 20 48 57 31 37 33
extensions:      01
checksum:        f8

EDID version: 1.3
Manufacturer: HSD Model 5a47 Serial Number --
Made in week 12 of 2007
Digital display
Maximum image size: 37 cm x 23 cm
Gamma: 2.20
RGB color display
First detailed timing is preferred timing
Display x,y Chromaticity:
  Red:   0.6250, 0.3447
  Green: 0.3251, 0.5546
  Blue:  0.1552, 0.1445
  White: 0.3095, 0.3300
Established timings supported:
  640x480@60Hz 4:3 HorFreq: 31469 Hz Clock: 25.175 MHz
  800x600@60Hz 4:3 HorFreq: 37900 Hz Clock: 40.000 MHz
Standard timings supported:
Detailed mode: Clock 106.500 MHz, 408 mm x 255 mm
               1440 1520 1672 1904 hborder 0
                900  903  909  934 vborder 0
               +hsync +vsync 
               VertFreq: 59 Hz, HorFreq: 55934 Hz
Monitor ranges (GTF): 55-75Hz V, 24-71kHz H, max dotclock 140MHz
Serial number: --
Has 1 extension blocks
Checksum: 0xf8 (valid)

CTA extension block
Extension version: 3
21 bytes of CTA data
  Video data block
    VIC   4 1280x720@60Hz 16:9 (native) HorFreq: 45000 Hz Clock: 74.250 MHz
  Audio data block
    Linear PCM, max channels 2
      Supported sample rates (kHz): 48 44.1 32
      Supported sample sizes (bits): 24 20 16
  Speaker allocation data block
    Speaker map:
      FL/FR - Front Left/Right
  Vendor-specific data block, OUI 000c03 (HDMI)
    Source physical address 0.0.0.0
    Maximum TMDS clock: 150MHz
  Extended tag: Video capability data block
    YCbCr quantization: No Data (0)
    RGB quantization: No Data (0)
    PT scan behaviour: No Data (0)
    IT scan behaviour: Support both over- and underscan (3)
    CE scan behaviour: Support both over- and underscan (3)
Underscans PC formats by default
Basic audio support
1 native detailed modes
Checksum: 0x19 (valid)

EDID block does NOT conform to EDID 1.3!
	Name descriptor not terminated with a newline
EDID block does not conform at all!
	Both the serial number and the serial string are set


