
EDID (hex):
00ffffffffffff0010ac30a053464330
10130103803a2478eae9f5ac5130b425
115054a54b008180a940714fb3000101
010101010101283c80a070b023403020
3600466c2100001a000000ff00545230
3730393447304346530a000000fc0044
454c4c2032373039570a2020000000fd
00384c1e5311000a202020202020001c

Extracted contents:
header:          00 ff ff ff ff ff ff 00
serial number:   10 ac 30 a0 53 46 43 30 10 13
version:         01 03
basic params:    80 3a 24 78 ea
chroma info:     e9 f5 ac 51 30 b4 25 11 50 54
established:     a5 4b 00
standard:        81 80 a9 40 71 4f b3 00 01 01 01 01 01 01 01 01
descriptor 1:    28 3c 80 a0 70 b0 23 40 30 20 36 00 46 6c 21 00 00 1a
descriptor 2:    00 00 00 ff 00 54 52 30 37 30 39 34 47 30 43 46 53 0a
descriptor 3:    00 00 00 fc 00 44 45 4c 4c 20 32 37 30 39 57 0a 20 20
descriptor 4:    00 00 00 fd 00 38 4c 1e 53 11 00 0a 20 20 20 20 20 20
extensions:      00
checksum:        1c

EDID version: 1.3
Manufacturer: DEL Model a030 Serial Number --
Made in week 16 of 2009
Digital display
Maximum image size: 58 cm x 36 cm
Gamma: 2.20
DPMS levels: Standby Suspend Off
RGB color display
First detailed timing is preferred timing
Display x,y Chromaticity:
  Red:   0.6748, 0.3183
  Green: 0.1894, 0.7041
  Blue:  0.1474, 0.0693
  White: 0.3134, 0.3291
Established timings supported:
  720x400@70Hz 9:5 HorFreq: 31469 Hz Clock: 28.320 MHz
  640x480@60Hz 4:3 HorFreq: 31469 Hz Clock: 25.175 MHz
  640x480@75Hz 4:3 HorFreq: 37500 Hz Clock: 31.500 MHz
  800x600@60Hz 4:3 HorFreq: 37900 Hz Clock: 40.000 MHz
  800x600@75Hz 4:3 HorFreq: 46900 Hz Clock: 49.500 MHz
  1024x768@60Hz 4:3 HorFreq: 48400 Hz Clock: 65.000 MHz
  1024x768@75Hz 4:3 HorFreq: 60000 Hz Clock: 78.750 MHz
  1280x1024@75Hz 5:4 HorFreq: 80000 Hz Clock: 135.000 MHz
Standard timings supported:
  1280x1024@60Hz 5:4 HorFreq: 64000 Hz Clock: 108.000 MHz
  1600x1200@60Hz 4:3 HorFreq: 75000 Hz Clock: 162.000 MHz
  1152x864@75Hz 4:3 HorFreq: 67500 Hz Clock: 108.000 MHz
  1680x1050@60Hz 16:10 HorFreq: 64700 Hz Clock: 119.000 MHz
Detailed mode: Clock 154.000 MHz, 582 mm x 364 mm
               1920 1968 2000 2080 hborder 0
               1200 1203 1209 1235 vborder 0
               +hsync -vsync 
               VertFreq: 59 Hz, HorFreq: 74038 Hz
Serial number: --
Monitor name: DELL 2709W
Monitor ranges (GTF): 56-76Hz V, 30-83kHz H, max dotclock 170MHz
Checksum: 0x1c (valid)
