
EDID (hex):
00ffffffffffff0026cf790501000000
31130103801f11780ace00955b549228
20505400000001010101010101010101
010101010101781d56c2500026303020
3c0035ae100000190000000f00000000
00000000000000000001000000fe0049
6e666f566973696f6e0a2020000000fe
004d3134304e5752312052300a20005d

Extracted contents:
header:          00 ff ff ff ff ff ff 00
serial number:   26 cf 79 05 01 00 00 00 31 13
version:         01 03
basic params:    80 1f 11 78 0a
chroma info:     ce 00 95 5b 54 92 28 20 50 54
established:     00 00 00
standard:        01 01 01 01 01 01 01 01 01 01 01 01 01 01 01 01
descriptor 1:    78 1d 56 c2 50 00 26 30 30 20 3c 00 35 ae 10 00 00 19
descriptor 2:    00 00 00 0f 00 00 00 00 00 00 00 00 00 00 00 00 00 01
descriptor 3:    00 00 00 fe 00 49 6e 66 6f 56 69 73 69 6f 6e 0a 20 20
descriptor 4:    00 00 00 fe 00 4d 31 34 30 4e 57 52 31 20 52 30 0a 20
extensions:      00
checksum:        5d

EDID version: 1.3
Manufacturer: IVO Model 579 Serial Number --
Made in week 49 of 2009
Digital display
Maximum image size: 31 cm x 17 cm
Gamma: 2.20
RGB color display
First detailed timing is preferred timing
Display x,y Chromaticity:
  Red:   0.5849, 0.3554
  Green: 0.3310, 0.5722
  Blue:  0.1562, 0.1250
  White: 0.3125, 0.3281
Established timings supported:
Standard timings supported:
Detailed mode: Clock 75.440 MHz, 309 mm x 174 mm
               1366 1414 1446 1560 hborder 0
                768  771  783  806 vborder 0
               -hsync -vsync 
               VertFreq: 59 Hz, HorFreq: 48358 Hz
Manufacturer-specified data, tag 15
ASCII string: InfoVision
ASCII string: M140NWR1 R0
Checksum: 0x5d (valid)
EDID block does NOT conform to EDID 1.3!
	Missing name descriptor
	Missing monitor ranges
