edid-decode (hex):

00 ff ff ff ff ff ff 00 5c 85 f2 17 84 14 00 00
20 14 01 03 08 47 28 78 2a 82 ff a6 55 46 98 24
0f 47 49 2f ce 00 01 01 01 01 01 01 01 01 01 01
01 01 01 01 01 01 9d 1c 56 82 50 00 30 30 28 20
35 00 c5 8f 21 00 00 1a 00 00 00 fc 00 4c 44 2d
33 32 35 35 56 58 0a 20 20 20 00 00 00 fd 00 32
4b 1e 46 0b 00 0a 20 20 20 20 20 20 00 00 00 00
00 00 00 00 00 00 00 00 00 00 00 00 00 00 00 69

----------------

Block 0, Base EDID:
  EDID Structure Version & Revision: 1.3
  Vendor & Product Identification:
    Manufacturer: WDE
    Model: 6130
    Serial Number: ...
    Made in: week 32 of 2010
  Basic Display Parameters & Features:
    Analog display
    Input voltage level: 0.7/0.3 V
    Sync: Separate
    Maximum image size: 71 cm x 40 cm
    Gamma: 2.20
    DPMS levels: Off
    RGB color display
    First detailed timing is preferred timing
  Color Characteristics:
    Red  : 0.6503, 0.3320
    Green: 0.2734, 0.5957
    Blue : 0.1435, 0.0615
    White: 0.2802, 0.2880
  Established Timings I & II:
    DMT 0x04:   640x480    59.940 Hz   4:3    31.469 kHz  25.175 MHz
    DMT 0x05:   640x480    72.809 Hz   4:3    37.861 kHz  31.500 MHz
    DMT 0x06:   640x480    75.000 Hz   4:3    37.500 kHz  31.500 MHz
    DMT 0x08:   800x600    56.250 Hz   4:3    35.156 kHz  36.000 MHz
    DMT 0x09:   800x600    60.317 Hz   4:3    37.879 kHz  40.000 MHz
    DMT 0x0a:   800x600    72.188 Hz   4:3    48.077 kHz  50.000 MHz
    DMT 0x0b:   800x600    75.000 Hz   4:3    46.875 kHz  49.500 MHz
    DMT 0x10:  1024x768    60.004 Hz   4:3    48.363 kHz  65.000 MHz
    DMT 0x11:  1024x768    70.069 Hz   4:3    56.476 kHz  75.000 MHz
    DMT 0x12:  1024x768    75.029 Hz   4:3    60.023 kHz  78.750 MHz
  Standard Timings: none
  Detailed Timing Descriptors:
    DTD 1:  1366x768    60.005 Hz 683:384  48.964 kHz  73.250 MHz (709 mm x 399 mm)
                 Hfront   40 Hsync  32 Hback  58 Hpol P
                 Vfront    3 Vsync   5 Vback  40 Vpol N
    Display Product Name: 'LD-3255VX'
  Display Range Limits:
    Monitor ranges (GTF): 50-75 Hz V, 30-70 kHz H, max dotclock 110 MHz
    Empty Descriptor
Checksum: 0x69

----------------

Failures:

Block 0, Base EDID:
  Empty Descriptor: Use Dummy Descriptor instead of all zeroes.

EDID conformity: FAIL
