edid-decode (hex):

00 ff ff ff ff ff ff 00 30 ae ba 40 00 00 00 00
00 1d 01 04 a5 22 13 78 e3 6e 85 93 58 58 92 28
1e 50 54 00 00 00 01 01 01 01 01 01 01 01 01 01
01 01 01 01 01 01 d9 40 80 18 72 38 2e 40 6c 30
aa 00 58 c2 10 00 00 18 00 00 00 fd 00 28 3c 44
44 0e 01 0a 20 20 20 20 20 20 00 00 00 0f 00 d1
09 3c d1 09 28 1e 0a 00 06 af 8d e4 00 00 00 fe
00 42 31 35 36 48 41 4e 30 32 2e 31 0a 0a 00 05

00 ff ff ff ff ff ff 00 30 ae ba 40 00 00 00 00
00 1d 01 04 a5 22 13 78 e3 6e 85 93 58 58 92 28
1e 50 54 00 00 00 01 01 01 01 01 01 01 01 01 01
01 01 01 01 01 01 d9 40 80 18 72 38 2e 40 6c 30
aa 00 58 c2 10 00 00 18 00 00 00 fd 00 28 3c 44
44 0e 01 0a 20 20 20 20 20 20 00 00 00 0f 00 d1
09 3c d1 09 28 1e 0a 00 06 af 8d e4 00 00 00 fe
00 42 31 35 36 48 41 4e 30 32 2e 31 0a 0a 00 05

----------------

Block 0, Base EDID:
  EDID Structure Version & Revision: 1.4
  Vendor & Product Identification:
    Manufacturer: LEN
    Model: 16570
    Made in: 2019
  Basic Display Parameters & Features:
    Digital display
    Bits per primary color channel: 8
    DisplayPort interface
    Maximum image size: 34 cm x 19 cm
    Gamma: 2.20
    DPMS levels: Standby Suspend Off
    Supported color formats: RGB 4:4:4
    First detailed timing includes the native pixel format and preferred refresh rate
    Display is continuous frequency
  Color Characteristics:
    Red  : 0.5751, 0.3457
    Green: 0.3466, 0.5722
    Blue : 0.1582, 0.1171
    White: 0.3134, 0.3291
  Established Timings I & II: none
  Standard Timings: none
  Detailed Timing Descriptors:
    DTD 1:  1920x1080   60.029883 Hz  16:9     67.594 kHz    166.010000 MHz (344 mm x 194 mm)
                 Hfront  108 Hsync  48 Hback  380 Hpol N
                 Vfront   10 Vsync  10 Vback   26 Vpol N
    Display Range Limits:
      Monitor ranges (Bare Limits): 40-60 Hz V, 68-68 kHz H, max dotclock 140 MHz
    Manufacturer-Specified Display Descriptor (0x0f): 00 0f 00 d1 09 3c d1 09 28 1e 0a 00 06 af 8d e4 '.....<..(.......'
    Alphanumeric Data String: 'B156HAN02.1'
Checksum: 0x05

----------------

Block 1, Unknown EDID Extension Block 0x00:
  00 ff ff ff ff ff ff 00 30 ae ba 40 00 00 00 00 '........0..@....'
  00 1d 01 04 a5 22 13 78 e3 6e 85 93 58 58 92 28 '.....".x.n..XX.('
  1e 50 54 00 00 00 01 01 01 01 01 01 01 01 01 01 '.PT.............'
  01 01 01 01 01 01 d9 40 80 18 72 38 2e 40 6c 30 '.......@..r8.@l0'
  aa 00 58 c2 10 00 00 18 00 00 00 fd 00 28 3c 44 '..X..........(<D'
  44 0e 01 0a 20 20 20 20 20 20 00 00 00 0f 00 d1 'D...      ......'
  09 3c d1 09 28 1e 0a 00 06 af 8d e4 00 00 00 fe '.<..(...........'
  00 42 31 35 36 48 41 4e 30 32 2e 31 0a 0a 00 05 '.B156HAN02.1....'
Checksum: 0x05

----------------

Warnings:

Block 0, Base EDID:
  Missing Display Product Name.
EDID:
  Base EDID: Some timings are out of range of the Monitor Ranges:
    Maximum Clock: 166.010 MHz (Monitor: 140.000 MHz)

Failures:

Block 0, Base EDID:
  Alphanumeric Data String: Non-space after newline.
Block 1, Base EDID:
  Unknown Extension Block.
EDID:
  Base EDID: EDID specified 0 extension block(s), but found 1 extension block(s).

EDID conformity: FAIL
