
EDID (hex):
00ffffffffffff0025e4951301010101
1213010380291a782a3031a359489e24
115054bfee0095000101010101010101
010101010101ab22a0a050841a303020
36009a001100001a000000fd00384b18
530e000a202020202020000000ff0047
31463130303338333230370a000000fc
004c43442d41443139315833200a00be

Extracted contents:
header:          00 ff ff ff ff ff ff 00
serial number:   25 e4 95 13 01 01 01 01 12 13
version:         01 03
basic params:    80 29 1a 78 2a
chroma info:     30 31 a3 59 48 9e 24 11 50 54
established:     bf ee 00
standard:        95 00 01 01 01 01 01 01 01 01 01 01 01 01 01 01
descriptor 1:    ab 22 a0 a0 50 84 1a 30 30 20 36 00 9a 00 11 00 00 1a
descriptor 2:    00 00 00 fd 00 38 4b 18 53 0e 00 0a 20 20 20 20 20 20
descriptor 3:    00 00 00 ff 00 47 31 46 31 30 30 33 38 33 32 30 37 0a
descriptor 4:    00 00 00 fc 00 4c 43 44 2d 41 44 31 39 31 58 33 20 0a
extensions:      00
checksum:        be

EDID version: 1.3
Manufacturer: IOD Model 1395 Serial Number --
Made in week 18 of 2009
Digital display
Maximum image size: 41 cm x 26 cm
Gamma: 2.20
DPMS levels: Off
RGB color display
First detailed timing is preferred timing
Display x,y Chromaticity:
  Red:   0.6367, 0.3505
  Green: 0.2812, 0.6171
  Blue:  0.1406, 0.0693
  White: 0.3125, 0.3291
Established timings supported:
  720x400@70Hz 9:5 HorFreq: 31469 Hz Clock: 28.320 MHz
  640x480@60Hz 4:3 HorFreq: 31469 Hz Clock: 25.175 MHz
  640x480@67Hz 4:3 HorFreq: 35000 Hz Clock: 30.240 MHz
  640x480@72Hz 4:3 HorFreq: 37900 Hz Clock: 31.500 MHz
  640x480@75Hz 4:3 HorFreq: 37500 Hz Clock: 31.500 MHz
  800x600@56Hz 4:3 HorFreq: 35200 Hz Clock: 36.000 MHz
  800x600@60Hz 4:3 HorFreq: 37900 Hz Clock: 40.000 MHz
  800x600@72Hz 4:3 HorFreq: 48100 Hz Clock: 50.000 MHz
  800x600@75Hz 4:3 HorFreq: 46900 Hz Clock: 49.500 MHz
  832x624@75Hz 4:3 HorFreq: 49726 Hz Clock: 57.284 MHz
  1024x768@60Hz 4:3 HorFreq: 48400 Hz Clock: 65.000 MHz
  1024x768@70Hz 4:3 HorFreq: 56500 Hz Clock: 75.000 MHz
  1024x768@75Hz 4:3 HorFreq: 60000 Hz Clock: 78.750 MHz
Standard timings supported:
  1440x900@60Hz 16:10 HorFreq: 55500 Hz Clock: 88.750 MHz
Detailed mode: Clock 88.750 MHz, 410 mm x 256 mm
               1440 1488 1520 1600 hborder 0
                900  903  909  926 vborder 0
               +hsync -vsync 
               VertFreq: 59 Hz, HorFreq: 55468 Hz
Monitor ranges (GTF): 56-75Hz V, 24-83kHz H, max dotclock 140MHz
Serial number: --
Monitor name: LCD-AD191X3 
Checksum: 0xbe (valid)
