
EDID (hex):
00ffffffffffff0005e356e5a0fb0e00
2f100103681c15a02a0699a0574f9826
10484ca0080031594559010101010101
010101010101f91520f830581f202040
130018d21000001ef91520f830581f20
2040130018d21000001e000000fc0043
54353030470a202020202020000000fd
0032781e3607000a202020202020007c

Extracted contents:
header:          00 ff ff ff ff ff ff 00
serial number:   05 e3 56 e5 a0 fb 0e 00 2f 10
version:         01 03
basic params:    68 1c 15 a0 2a
chroma info:     06 99 a0 57 4f 98 26 10 48 4c
established:     a0 08 00
standard:        31 59 45 59 01 01 01 01 01 01 01 01 01 01 01 01
descriptor 1:    f9 15 20 f8 30 58 1f 20 20 40 13 00 18 d2 10 00 00 1e
descriptor 2:    f9 15 20 f8 30 58 1f 20 20 40 13 00 18 d2 10 00 00 1e
descriptor 3:    00 00 00 fc 00 43 54 35 30 30 47 0a 20 20 20 20 20 20
descriptor 4:    00 00 00 fd 00 32 78 1e 36 07 00 0a 20 20 20 20 20 20
extensions:      00
checksum:        7c

EDID version: 1.3
Manufacturer: AOC Model e556 Serial Number --
Made in week 47 of 2006
Analog display, Input voltage level: 0.7/0.7 V
Sync: Separate 
Maximum image size: 28 cm x 21 cm
Gamma: 2.60
DPMS levels: Off
RGB color display
First detailed timing is preferred timing
Display x,y Chromaticity:
  Red:   0.6250, 0.3398
  Green: 0.3095, 0.5957
  Blue:  0.1503, 0.0634
  White: 0.2832, 0.2978
Established timings supported:
  720x400@70Hz 9:5 HorFreq: 31469 Hz Clock: 28.320 MHz
  640x480@60Hz 4:3 HorFreq: 31469 Hz Clock: 25.175 MHz
  1024x768@60Hz 4:3 HorFreq: 48400 Hz Clock: 65.000 MHz
Standard timings supported:
  640x480@85Hz 4:3 HorFreq: 43300 Hz Clock: 36.000 MHz
  800x600@85Hz 4:3 HorFreq: 53700 Hz Clock: 56.250 MHz
Detailed mode: Clock 56.250 MHz, 280 mm x 210 mm
                800  832  896 1048 hborder 0
                600  601  604  631 vborder 0
               +hsync +vsync 
               VertFreq: 85 Hz, HorFreq: 53673 Hz
Detailed mode: Clock 56.250 MHz, 280 mm x 210 mm
                800  832  896 1048 hborder 0
                600  601  604  631 vborder 0
               +hsync +vsync 
               VertFreq: 85 Hz, HorFreq: 53673 Hz
Monitor name: CT500G
Monitor ranges (GTF): 50-120Hz V, 30-54kHz H, max dotclock 70MHz
Checksum: 0x7c (valid)
