
EDID (hex):
00ffffffffffff001e6df376b1250100
051d010368462778eaf353a554519326
124849230800010181c0810081809500
9040a9c0b300023a801871382d40582c
4500ba882100001a000000fd00383f1e
530f000a202020202020000000fc0033
32696e6368204c4720464844000000ff
003930354e54545132373138350a00f6

Extracted contents:
header:          00 ff ff ff ff ff ff 00
serial number:   1e 6d f3 76 b1 25 01 00 05 1d
version:         01 03
basic params:    68 46 27 78 ea
chroma info:     f3 53 a5 54 51 93 26 12 48 49
established:     23 08 00
standard:        01 01 81 c0 81 00 81 80 95 00 90 40 a9 c0 b3 00
descriptor 1:    02 3a 80 18 71 38 2d 40 58 2c 45 00 ba 88 21 00 00 1a
descriptor 2:    00 00 00 fd 00 38 3f 1e 53 0f 00 0a 20 20 20 20 20 20
descriptor 3:    00 00 00 fc 00 33 32 69 6e 63 68 20 4c 47 20 46 48 44
descriptor 4:    00 00 00 ff 00 39 30 35 4e 54 54 51 32 37 31 38 35 0a
extensions:      00
checksum:        f6

EDID version: 1.3
Manufacturer: GSM Model 76f3 Serial Number --
Made in week 5 of 2019
Analog display, Input voltage level: 0.7/0.7 V
Sync: Separate 
Maximum image size: 70 cm x 39 cm
Gamma: 2.20
DPMS levels: Standby Suspend Off
RGB color display
First detailed timing is preferred timing
Display x,y Chromaticity:
  Red:   0.6474, 0.3310
  Green: 0.3164, 0.5771
  Blue:  0.1494, 0.0712
  White: 0.2812, 0.2880
Established timings supported:
  640x480@60Hz 4:3 HorFreq: 31469 Hz Clock: 25.175 MHz
  800x600@56Hz 4:3 HorFreq: 35200 Hz Clock: 36.000 MHz
  800x600@60Hz 4:3 HorFreq: 37900 Hz Clock: 40.000 MHz
  1024x768@60Hz 4:3 HorFreq: 48400 Hz Clock: 65.000 MHz
Standard timings supported:
  1280x720@60Hz 16:9
  1280x800@60Hz 16:10
  1280x1024@60Hz 5:4 HorFreq: 64000 Hz Clock: 108.000 MHz
  1440x900@60Hz 16:10 HorFreq: 55500 Hz Clock: 88.750 MHz
  1400x1050@60Hz 4:3 HorFreq: 64700 Hz Clock: 101.000 MHz
  1600x900@60Hz 16:9
  1680x1050@60Hz 16:10 HorFreq: 64700 Hz Clock: 119.000 MHz
Detailed mode: Clock 148.500 MHz, 698 mm x 392 mm
               1920 2008 2052 2200 hborder 0
               1080 1084 1089 1125 vborder 0
               +hsync -vsync 
               VertFreq: 60 Hz, HorFreq: 67500 Hz
Monitor ranges (GTF): 56-63Hz V, 30-83kHz H, max dotclock 150MHz
Serial number: --
Checksum: 0xf6 (valid)
EDID block does NOT conform to EDID 1.3!
	Name descriptor not terminated with a newline
