
EDID (hex):
00ffffffffffff0006af443b00000000
01100103801e13780a87f594574f8c27
27505400000001010101010101010101
010101010101c71b00a0502017303020
360030be10000019261700a050201730
3020360030be10000000000000fe0047
4d3532310042313431455733000000fe
00273541486685abff01010a202000c3

Extracted contents:
header:          00 ff ff ff ff ff ff 00
serial number:   06 af 44 3b 00 00 00 00 01 10
version:         01 03
basic params:    80 1e 13 78 0a
chroma info:     87 f5 94 57 4f 8c 27 27 50 54
established:     00 00 00
standard:        01 01 01 01 01 01 01 01 01 01 01 01 01 01 01 01
descriptor 1:    c7 1b 00 a0 50 20 17 30 30 20 36 00 30 be 10 00 00 19
descriptor 2:    26 17 00 a0 50 20 17 30 30 20 36 00 30 be 10 00 00 00
descriptor 3:    00 00 00 fe 00 47 4d 35 32 31 00 42 31 34 31 45 57 33
descriptor 4:    00 00 00 fe 00 27 35 41 48 66 85 ab ff 01 01 0a 20 20
extensions:      00
checksum:        c3

EDID version: 1.3
Manufacturer: AUO Model 3b44 Serial Number --
Made in week 1 of 2006
Digital display
Maximum image size: 30 cm x 19 cm
Gamma: 2.20
RGB color display
First detailed timing is preferred timing
Display x,y Chromaticity:
  Red:   0.5800, 0.3398
  Green: 0.3095, 0.5498
  Blue:  0.1552, 0.1552
  White: 0.3134, 0.3291
Established timings supported:
Standard timings supported:
Detailed mode: Clock 71.110 MHz, 304 mm x 190 mm
               1280 1328 1360 1440 hborder 0
                800  803  809  823 vborder 0
               -hsync -vsync 
               VertFreq: 60 Hz, HorFreq: 49381 Hz
Detailed mode: Clock 59.260 MHz, 304 mm x 190 mm
               1280 1328 1360 1440 hborder 0
                800  803  809  823 vborder 0
               -hsync -vsync analog composite 
               VertFreq: 50 Hz, HorFreq: 41152 Hz
ASCII string: GM521
ASCII string: '5AHf
Checksum: 0xc3 (valid)
EDID block does NOT conform to EDID 1.3!
	Missing name descriptor
	Missing monitor ranges
	Detailed block string not properly terminated
