edid-decode (hex):

00 ff ff ff ff ff ff 00 0d ae a3 14 00 00 00 00
1f 16 01 04 95 1f 11 78 02 c6 75 97 58 53 8f 27
24 50 54 00 00 00 01 01 01 01 01 01 01 01 01 01
01 01 01 01 01 01 1c 2a 40 54 61 84 1a 30 30 20
35 00 35 ae 10 00 00 1a 13 1c 40 54 61 84 1a 30
30 20 35 00 35 ae 10 00 00 1a 00 00 00 00 00 00
00 00 00 00 00 00 00 00 00 00 00 00 00 00 00 02
00 0c 3d ff 0c 3c 7d 15 13 28 7d 00 00 00 00 15

----------------

Block 0, Base EDID:
  EDID Structure Version & Revision: 1.4
  Vendor & Product Identification:
    Manufacturer: CMN
    Model: 5283
    Made in: week 31 of 2012
  Basic Display Parameters & Features:
    Digital display
    Bits per primary color channel: 6
    DisplayPort interface
    Maximum image size: 31 cm x 17 cm
    Gamma: 2.20
    Supported color formats: RGB 4:4:4
    First detailed timing includes the native pixel format and preferred refresh rate
  Color Characteristics:
    Red  : 0.5927, 0.3437
    Green: 0.3251, 0.5605
    Blue : 0.1533, 0.1435
    White: 0.3134, 0.3291
  Established Timings I & II: none
  Standard Timings: none
  Detailed Timing Descriptors:
    DTD 1:  1600x900    60.008 Hz  16:9    55.567 kHz 107.800 MHz (309 mm x 174 mm)
                 Hfront   48 Hsync  32 Hback 260 Hpol P
                 Vfront    3 Vsync   5 Vback  18 Vpol N
    DTD 2:  1600x900    40.007 Hz  16:9    37.046 kHz  71.870 MHz (309 mm x 174 mm)
                 Hfront   48 Hsync  32 Hback 260 Hpol P
                 Vfront    3 Vsync   5 Vback  18 Vpol N
    Empty Descriptor
    Manufacturer-Specified Display Descriptor (0x02): 00 02 00 0c 3d ff 0c 3c 7d 15 13 28 7d 00 00 00 '....=..<}..(}...'
Checksum: 0x15
