
EDID (hex):
00ffffffffffff000dae2d1500000000
091f0104a522137802ee95a3544c9926
0f505400000001010101010101010101
010101010101363680a0703820403020
a60058c110000018000000fe004e3135
364843452d454e310a20000000fe0043
4d4e0a202020202020202020000000fe
004e3135364843452d454e310a2000c9

Extracted contents:
header:          00 ff ff ff ff ff ff 00
serial number:   0d ae 2d 15 00 00 00 00 09 1f
version:         01 04
basic params:    a5 22 13 78 02
chroma info:     ee 95 a3 54 4c 99 26 0f 50 54
established:     00 00 00
standard:        01 01 01 01 01 01 01 01 01 01 01 01 01 01 01 01
descriptor 1:    36 36 80 a0 70 38 20 40 30 20 a6 00 58 c1 10 00 00 18
descriptor 2:    00 00 00 fe 00 4e 31 35 36 48 43 45 2d 45 4e 31 0a 20
descriptor 3:    00 00 00 fe 00 43 4d 4e 0a 20 20 20 20 20 20 20 20 20
descriptor 4:    00 00 00 fe 00 4e 31 35 36 48 43 45 2d 45 4e 31 0a 20
extensions:      00
checksum:        c9

EDID version: 1.4
Manufacturer: CMN Model 152d Serial Number --
Made in week 9 of 2021
Digital display
8 bits per primary color channel
DisplayPort interface
Maximum image size: 34 cm x 19 cm
Gamma: 2.20
Supported color formats: RGB 4:4:4
First detailed timing includes the native pixel format and preferred refresh rate
Display x,y Chromaticity:
  Red:   0.6396, 0.3300
  Green: 0.2998, 0.5996
  Blue:  0.1503, 0.0595
  White: 0.3134, 0.3291
Established timings supported:
Standard timings supported:
Detailed mode: Clock 138.780 MHz, 344 mm x 193 mm
               1920 1968 2000 2080 hborder 0
               1080 1090 1096 1112 vborder 0
               -hsync -vsync 
               VertFreq: 60 Hz, HorFreq: 66721 Hz
ASCII string: N156HCE-EN1
ASCII string: CMN
ASCII string: N156HCE-EN1
Checksum: 0xc9 (valid)
EDID block does NOT conform to EDID 1.4!
	Missing name descriptor
	Missing monitor ranges
