
EDID (hex):
00ffffffffffff0028aec65001010101
26120103683722782a7b65a555489926
125054bfef80d100d1c0b300a9409500
8180614031007d4b80a072b02d4088c8
360026362100001c000000ff00373833
38544b3030303232350a000000fd0032
4b1e5214000a202020202020000000fc
004a5432363978362d310a2020200092

Extracted contents:
header:          00 ff ff ff ff ff ff 00
serial number:   28 ae c6 50 01 01 01 01 26 12
version:         01 03
basic params:    68 37 22 78 2a
chroma info:     7b 65 a5 55 48 99 26 12 50 54
established:     bf ef 80
standard:        d1 00 d1 c0 b3 00 a9 40 95 00 81 80 61 40 31 00
descriptor 1:    7d 4b 80 a0 72 b0 2d 40 88 c8 36 00 26 36 21 00 00 1c
descriptor 2:    00 00 00 ff 00 37 38 33 38 54 4b 30 30 30 32 32 35 0a
descriptor 3:    00 00 00 fd 00 32 4b 1e 52 14 00 0a 20 20 20 20 20 20
descriptor 4:    00 00 00 fc 00 4a 54 32 36 39 78 36 2d 31 0a 20 20 20
extensions:      00
checksum:        92

EDID version: 1.3
Manufacturer: JEN Model 50c6 Serial Number --
Made in week 38 of 2008
Analog display, Input voltage level: 0.7/0.7 V
Sync: Separate 
Maximum image size: 55 cm x 34 cm
Gamma: 2.20
DPMS levels: Off
RGB color display
First detailed timing is preferred timing
Display x,y Chromaticity:
  Red:   0.6455, 0.3349
  Green: 0.2832, 0.6005
  Blue:  0.1494, 0.0722
  White: 0.3134, 0.3291
Established timings supported:
  720x400@70Hz 9:5 HorFreq: 31469 Hz Clock: 28.320 MHz
  640x480@60Hz 4:3 HorFreq: 31469 Hz Clock: 25.175 MHz
  640x480@67Hz 4:3 HorFreq: 35000 Hz Clock: 30.240 MHz
  640x480@72Hz 4:3 HorFreq: 37900 Hz Clock: 31.500 MHz
  640x480@75Hz 4:3 HorFreq: 37500 Hz Clock: 31.500 MHz
  800x600@56Hz 4:3 HorFreq: 35200 Hz Clock: 36.000 MHz
  800x600@60Hz 4:3 HorFreq: 37900 Hz Clock: 40.000 MHz
  800x600@72Hz 4:3 HorFreq: 48100 Hz Clock: 50.000 MHz
  800x600@75Hz 4:3 HorFreq: 46900 Hz Clock: 49.500 MHz
  832x624@75Hz 4:3 HorFreq: 49726 Hz Clock: 57.284 MHz
  1024x768@60Hz 4:3 HorFreq: 48400 Hz Clock: 65.000 MHz
  1024x768@70Hz 4:3 HorFreq: 56500 Hz Clock: 75.000 MHz
  1024x768@75Hz 4:3 HorFreq: 60000 Hz Clock: 78.750 MHz
  1280x1024@75Hz 5:4 HorFreq: 80000 Hz Clock: 135.000 MHz
  1152x870@75Hz 192:145 HorFreq: 67500 Hz Clock: 108.000 MHz
Standard timings supported:
  1920x1200@60Hz 16:10 HorFreq: 74000 Hz Clock: 154.000 MHz
  1920x1080@60Hz 16:9
  1680x1050@60Hz 16:10 HorFreq: 64700 Hz Clock: 119.000 MHz
  1600x1200@60Hz 4:3 HorFreq: 75000 Hz Clock: 162.000 MHz
  1440x900@60Hz 16:10 HorFreq: 55500 Hz Clock: 88.750 MHz
  1280x1024@60Hz 5:4 HorFreq: 64000 Hz Clock: 108.000 MHz
  1024x768@60Hz 4:3 HorFreq: 48400 Hz Clock: 65.000 MHz
  640x400@60Hz 16:10
Detailed mode: Clock 193.250 MHz, 550 mm x 310 mm
               1920 2056 2256 2592 hborder 0
               1200 1203 1209 1245 vborder 0
               -hsync +vsync 
               VertFreq: 59 Hz, HorFreq: 74556 Hz
Serial number: --
Monitor ranges (GTF): 50-75Hz V, 30-82kHz H, max dotclock 200MHz
Monitor name: JT269x6-1
Checksum: 0x92 (valid)
