
EDID (hex):
00ffffffffffff0010ac1ff158555045
281f0103802b1878ea69d5a2564fa028
0f5054a54a00714f81c08100a9c00101
010101010101302a40c8608464301850
1300b0f31000001e000000ff004a3146
334c4a330a2020202020000000fc0044
454c4c204432303230480a20000000fd
00384c1e5011000a2020202020200198
020312b0470102031204131165030c00
1000011d007251d01e206e285500b0f3
1000001e011d00bc52d01e20b8285540
b0f31000001e8c0ad08a20e02d10103e
9600b0f3100000188c0ad09020403120
0c405500b0f310000018000000000000
00000000000000000000000000000000
00000000000000000000000000000014

Extracted contents:
header:          00 ff ff ff ff ff ff 00
serial number:   10 ac 1f f1 58 55 50 45 28 1f
version:         01 03
basic params:    80 2b 18 78 ea
chroma info:     69 d5 a2 56 4f a0 28 0f 50 54
established:     a5 4a 00
standard:        71 4f 81 c0 81 00 a9 c0 01 01 01 01 01 01 01 01
descriptor 1:    30 2a 40 c8 60 84 64 30 18 50 13 00 b0 f3 10 00 00 1e
descriptor 2:    00 00 00 ff 00 4a 31 46 33 4c 4a 33 0a 20 20 20 20 20
descriptor 3:    00 00 00 fc 00 44 45 4c 4c 20 44 32 30 32 30 48 0a 20
descriptor 4:    00 00 00 fd 00 38 4c 1e 50 11 00 0a 20 20 20 20 20 20
extensions:      01
checksum:        98

EDID version: 1.3
Manufacturer: DEL Model f11f Serial Number --
Made in week 40 of 2021
Digital display
Maximum image size: 43 cm x 24 cm
Gamma: 2.20
DPMS levels: Standby Suspend Off
RGB color display
First detailed timing is preferred timing
Display x,y Chromaticity:
  Red:   0.6337, 0.3378
  Green: 0.3105, 0.6259
  Blue:  0.1591, 0.0595
  White: 0.3134, 0.3291
Established timings supported:
  720x400@70Hz 9:5 HorFreq: 31469 Hz Clock: 28.320 MHz
  640x480@60Hz 4:3 HorFreq: 31469 Hz Clock: 25.175 MHz
  640x480@75Hz 4:3 HorFreq: 37500 Hz Clock: 31.500 MHz
  800x600@60Hz 4:3 HorFreq: 37900 Hz Clock: 40.000 MHz
  800x600@75Hz 4:3 HorFreq: 46900 Hz Clock: 49.500 MHz
  1024x768@60Hz 4:3 HorFreq: 48400 Hz Clock: 65.000 MHz
  1024x768@75Hz 4:3 HorFreq: 60000 Hz Clock: 78.750 MHz
Standard timings supported:
  1152x864@75Hz 4:3 HorFreq: 67500 Hz Clock: 108.000 MHz
  1280x720@60Hz 16:9
  1280x800@60Hz 16:10
  1600x900@60Hz 16:9
Detailed mode: Clock 108.000 MHz, 432 mm x 243 mm
               1600 1624 1704 1800 hborder 0
                900  901  904 1000 vborder 0
               +hsync +vsync 
               VertFreq: 60 Hz, HorFreq: 60000 Hz
Serial number: --
Monitor name: DELL D2020H
Monitor ranges (GTF): 56-76Hz V, 30-80kHz H, max dotclock 170MHz
Has 1 extension blocks
Checksum: 0x98 (valid)

CTA extension block
Extension version: 3
14 bytes of CTA data
  Video data block
    VIC   1 640x480@60Hz 4:3  HorFreq: 31469 Hz Clock: 25.175 MHz
    VIC   2 720x480@60Hz 4:3  HorFreq: 31469 Hz Clock: 27.000 MHz
    VIC   3 720x480@60Hz 16:9  HorFreq: 31469 Hz Clock: 27.000 MHz
    VIC  18 720x576@50Hz 16:9  HorFreq: 31250 Hz Clock: 27.000 MHz
    VIC   4 1280x720@60Hz 16:9  HorFreq: 45000 Hz Clock: 74.250 MHz
    VIC  19 1280x720@50Hz 16:9  HorFreq: 37500 Hz Clock: 74.250 MHz
    VIC  17 720x576@50Hz 4:3  HorFreq: 31250 Hz Clock: 27.000 MHz
  Vendor-specific data block, OUI 000c03 (HDMI)
    Source physical address 1.0.0.0
Underscans PC formats by default
Supports YCbCr 4:4:4
Supports YCbCr 4:2:2
0 native detailed modes
Detailed mode: Clock 74.250 MHz, 432 mm x 243 mm
               1280 1390 1430 1650 hborder 0
                720  725  730  750 vborder 0
               +hsync +vsync 
               VertFreq: 60 Hz, HorFreq: 45000 Hz
Detailed mode: Clock 74.250 MHz, 432 mm x 243 mm
               1280 1720 1760 1980 hborder 0
                720  725  730  750 vborder 0
               +hsync +vsync 
               VertFreq: 50 Hz, HorFreq: 37500 Hz
Detailed mode: Clock 27.000 MHz, 432 mm x 243 mm
                720  736  798  858 hborder 0
                480  489  495  525 vborder 0
               -hsync -vsync 
               VertFreq: 59 Hz, HorFreq: 31468 Hz
Detailed mode: Clock 27.000 MHz, 432 mm x 243 mm
                720  732  796  864 hborder 0
                576  581  586  625 vborder 0
               -hsync -vsync 
               VertFreq: 50 Hz, HorFreq: 31250 Hz
Checksum: 0x14 (valid)

One or more of the timings is out of range of the Monitor Ranges:
  Vertical Freq: 50 - 75 Hz
  Horizontal Freq: 31250 - 67500 Hz
  Maximum Clock: 108.000 MHz
EDID block does not conform at all!
	Both the serial number and the serial string are set
