
EDID (hex):
00ffffffffffff004c493f0026010000
28180103080000780a9c6fa05b588c23
1552613fef8045596159818081c08140
9040a940810064190040410026301888
3600560054000018000000fd0018550f
5b11000a202020202020000000fc0053
4d415254205633300a202020000000ff
004230313247493239543032393400d2

Extracted contents:
header:          00 ff ff ff ff ff ff 00
serial number:   4c 49 3f 00 26 01 00 00 28 18
version:         01 03
basic params:    08 00 00 78 0a
chroma info:     9c 6f a0 5b 58 8c 23 15 52 61
established:     3f ef 80
standard:        45 59 61 59 81 80 81 c0 81 40 90 40 a9 40 81 00
descriptor 1:    64 19 00 40 41 00 26 30 18 88 36 00 56 00 54 00 00 18
descriptor 2:    00 00 00 fd 00 18 55 0f 5b 11 00 0a 20 20 20 20 20 20
descriptor 3:    00 00 00 fc 00 53 4d 41 52 54 20 56 33 30 0a 20 20 20
descriptor 4:    00 00 00 ff 00 42 30 31 32 47 49 32 39 54 30 32 39 34
extensions:      00
checksum:        d2

EDID version: 1.3
Manufacturer: SBI Model 3f Serial Number --
Made in week 40 of 2014
Analog display, Input voltage level: 0.7/0.3 V
Sync: Separate 
Image size is variable
Gamma: 2.20
RGB color display
First detailed timing is preferred timing
Display x,y Chromaticity:
  Red:   0.6269, 0.3564
  Green: 0.3466, 0.5468
  Blue:  0.1376, 0.0839
  White: 0.3232, 0.3818
Established timings supported:
  640x480@60Hz 4:3 HorFreq: 31469 Hz Clock: 25.175 MHz
  640x480@67Hz 4:3 HorFreq: 35000 Hz Clock: 30.240 MHz
  640x480@72Hz 4:3 HorFreq: 37900 Hz Clock: 31.500 MHz
  640x480@75Hz 4:3 HorFreq: 37500 Hz Clock: 31.500 MHz
  800x600@56Hz 4:3 HorFreq: 35200 Hz Clock: 36.000 MHz
  800x600@60Hz 4:3 HorFreq: 37900 Hz Clock: 40.000 MHz
  800x600@72Hz 4:3 HorFreq: 48100 Hz Clock: 50.000 MHz
  800x600@75Hz 4:3 HorFreq: 46900 Hz Clock: 49.500 MHz
  832x624@75Hz 4:3 HorFreq: 49726 Hz Clock: 57.284 MHz
  1024x768@60Hz 4:3 HorFreq: 48400 Hz Clock: 65.000 MHz
  1024x768@70Hz 4:3 HorFreq: 56500 Hz Clock: 75.000 MHz
  1024x768@75Hz 4:3 HorFreq: 60000 Hz Clock: 78.750 MHz
  1280x1024@75Hz 5:4 HorFreq: 80000 Hz Clock: 135.000 MHz
  1152x870@75Hz 192:145 HorFreq: 67500 Hz Clock: 108.000 MHz
Standard timings supported:
  800x600@85Hz 4:3 HorFreq: 53700 Hz Clock: 56.250 MHz
  1024x768@85Hz 4:3 HorFreq: 68700 Hz Clock: 94.500 MHz
  1280x1024@60Hz 5:4 HorFreq: 64000 Hz Clock: 108.000 MHz
  1280x720@60Hz 16:9
  1280x960@60Hz 4:3 HorFreq: 60000 Hz Clock: 108.000 MHz
  1400x1050@60Hz 4:3 HorFreq: 64700 Hz Clock: 101.000 MHz
  1600x1200@60Hz 4:3 HorFreq: 75000 Hz Clock: 162.000 MHz
  1280x800@60Hz 16:10
Detailed mode: Clock 65.000 MHz, 1366 mm x 1024 mm
               1024 1048 1184 1344 hborder 0
                768  771  777  806 vborder 0
               -hsync -vsync 
               VertFreq: 60 Hz, HorFreq: 48363 Hz
Monitor ranges (GTF): 24-85Hz V, 15-91kHz H, max dotclock 170MHz
Monitor name: SMART V30
Serial number: --
Checksum: 0xd2 (valid)
