
EDID (hex):
00ffffffffffff0030e4010200000000
00140104801f11780a8845955a568d28
23505400000001010101010101010101
010101010101561d56c6500020303020
350036ae100000198f1356c650002030
3020350036ae10000019000000000000
00000000000000000000000000000002
000f44ff0c3c6416111d6400000000ad

Extracted contents:
header:          00 ff ff ff ff ff ff 00
serial number:   30 e4 01 02 00 00 00 00 00 14
version:         01 04
basic params:    80 1f 11 78 0a
chroma info:     88 45 95 5a 56 8d 28 23 50 54
established:     00 00 00
standard:        01 01 01 01 01 01 01 01 01 01 01 01 01 01 01 01
descriptor 1:    56 1d 56 c6 50 00 20 30 30 20 35 00 36 ae 10 00 00 19
descriptor 2:    8f 13 56 c6 50 00 20 30 30 20 35 00 36 ae 10 00 00 19
descriptor 3:    00 00 00 00 00 00 00 00 00 00 00 00 00 00 00 00 00 00
descriptor 4:    00 00 00 02 00 0f 44 ff 0c 3c 64 16 11 1d 64 00 00 00
extensions:      00
checksum:        ad

EDID version: 1.4
Manufacturer: LGD Model 201 Serial Number --
Made in year 2010
Digital display
Color depth is undefined
Digital interface is not defined
Maximum image size: 31 cm x 17 cm
Gamma: 2.20
Supported color formats: RGB 4:4:4, YCrCb 4:4:4
First detailed timing includes the native pixel format and preferred refresh rate
Display x,y Chromaticity:
  Red:   0.5839, 0.3515
  Green: 0.3378, 0.5507
  Blue:  0.1572, 0.1367
  White: 0.3134, 0.3291
Established timings supported:
Standard timings supported:
Detailed mode: Clock 75.100 MHz, 310 mm x 174 mm
               1366 1414 1446 1564 hborder 0
                768  771  776  800 vborder 0
               -hsync -vsync 
               VertFreq: 60 Hz, HorFreq: 48017 Hz
Detailed mode: Clock 50.070 MHz, 310 mm x 174 mm
               1366 1414 1446 1564 hborder 0
                768  771  776  800 vborder 0
               -hsync -vsync 
               VertFreq: 40 Hz, HorFreq: 32014 Hz
Manufacturer-specified data, tag 0
Manufacturer-specified data, tag 2
Checksum: 0xad (valid)
EDID block does NOT conform to EDID 1.4!
	Missing name descriptor
	Missing monitor ranges


