
EDID (hex):
00ffffffffffff0030e4010200000000
00130103801f11780a8845955a568d28
23505400000001010101010101010101
010101010101561d56c6500020303020
350036ae100000190000000000000000
00000000000000000000000000fe004c
4720446973706c61790a2020000000fc
004c503134305748322d544c41310039

Extracted contents:
header:          00 ff ff ff ff ff ff 00
serial number:   30 e4 01 02 00 00 00 00 00 13
version:         01 03
basic params:    80 1f 11 78 0a
chroma info:     88 45 95 5a 56 8d 28 23 50 54
established:     00 00 00
standard:        01 01 01 01 01 01 01 01 01 01 01 01 01 01 01 01
descriptor 1:    56 1d 56 c6 50 00 20 30 30 20 35 00 36 ae 10 00 00 19
descriptor 2:    00 00 00 00 00 00 00 00 00 00 00 00 00 00 00 00 00 00
descriptor 3:    00 00 00 fe 00 4c 47 20 44 69 73 70 6c 61 79 0a 20 20
descriptor 4:    00 00 00 fc 00 4c 50 31 34 30 57 48 32 2d 54 4c 41 31
extensions:      00
checksum:        39

EDID version: 1.3
Manufacturer: LGD Model 201 Serial Number --
Made in year 2009
Digital display
Maximum image size: 31 cm x 17 cm
Gamma: 2.20
RGB color display
First detailed timing is preferred timing
Display x,y Chromaticity:
  Red:   0.5839, 0.3515
  Green: 0.3378, 0.5507
  Blue:  0.1572, 0.1367
  White: 0.3134, 0.3291
Established timings supported:
Standard timings supported:
Detailed mode: Clock 75.100 MHz, 310 mm x 174 mm
               1366 1414 1446 1564 hborder 0
                768  771  776  800 vborder 0
               -hsync -vsync 
               VertFreq: 60 Hz, HorFreq: 48017 Hz
Manufacturer-specified data, tag 0
ASCII string: LG Display
Checksum: 0x39 (valid)
EDID block does NOT conform to EDID 1.3!
	Name descriptor not terminated with a newline
	Missing monitor ranges
