
EDID (hex):
00ffffffffffff004ca3584200000000
000d0103801d15780a43de9857528c27
21505400000001010101010101010101
01010101010164190040410026301888
36001ed6100000190000000f00000000
000000000003160e3200000000fe0036
4a3536343431343158420a20000000fe
00e0d0c0b69b7d500001000a2020001d

Extracted contents:
header:          00 ff ff ff ff ff ff 00
serial number:   4c a3 58 42 00 00 00 00 00 0d
version:         01 03
basic params:    80 1d 15 78 0a
chroma info:     43 de 98 57 52 8c 27 21 50 54
established:     00 00 00
standard:        01 01 01 01 01 01 01 01 01 01 01 01 01 01 01 01
descriptor 1:    64 19 00 40 41 00 26 30 18 88 36 00 1e d6 10 00 00 19
descriptor 2:    00 00 00 0f 00 00 00 00 00 00 00 00 00 03 16 0e 32 00
descriptor 3:    00 00 00 fe 00 36 4a 35 36 34 34 31 34 31 58 42 0a 20
descriptor 4:    00 00 00 fe 00 e0 d0 c0 b6 9b 7d 50 00 01 00 0a 20 20
extensions:      00
checksum:        1d

EDID version: 1.3
Manufacturer: SEC Model 4258 Serial Number --
Digital display
Maximum image size: 29 cm x 21 cm
Gamma: 2.20
RGB color display
First detailed timing is preferred timing
Display x,y Chromaticity:
  Red:   0.5947, 0.3398
  Green: 0.3203, 0.5498
  Blue:  0.1552, 0.1298
  White: 0.3154, 0.3300
Established timings supported:
Standard timings supported:
Detailed mode: Clock 65.000 MHz, 286 mm x 214 mm
               1024 1048 1184 1344 hborder 0
                768  771  777  806 vborder 0
               -hsync -vsync 
               VertFreq: 60 Hz, HorFreq: 48363 Hz
Manufacturer-specified data, tag 15
ASCII string: 6J5644141XB
ASCII string: 
Checksum: 0x1d (valid)
EDID block does NOT conform to EDID 1.3!
	Missing name descriptor
	Missing monitor ranges
	Detailed block string not properly terminated
EDID block does not conform at all!
	Bad year of manufacture
