
EDID (hex):
00ffffffffffff0049ec07c70b060000
240d0101081e16b4c800b2a057499b26
10484fa4c37c31594559a940a945814f
615901010101100bd0b4205e6310126c
6208fab80000001a000000fa00315945
59a940a945814f6159a0000000fc0052
4f4c53454e20433730374e20000000fd
00325a1e5812000a20202020202000bd

Extracted contents:
header:          00 ff ff ff ff ff ff 00
serial number:   49 ec 07 c7 0b 06 00 00 24 0d
version:         01 01
basic params:    08 1e 16 b4 c8
chroma info:     00 b2 a0 57 49 9b 26 10 48 4f
established:     a4 c3 7c
standard:        31 59 45 59 a9 40 a9 45 81 4f 61 59 01 01 01 01
descriptor 1:    10 0b d0 b4 20 5e 63 10 12 6c 62 08 fa b8 00 00 00 1a
descriptor 2:    00 00 00 fa 00 31 59 45 59 a9 40 a9 45 81 4f 61 59 a0
descriptor 3:    00 00 00 fc 00 52 4f 4c 53 45 4e 20 43 37 30 37 4e 20
descriptor 4:    00 00 00 fd 00 32 5a 1e 58 12 00 0a 20 20 20 20 20 20
extensions:      00
checksum:        bd

EDID version: 1.1
Manufacturer: ROL Model c707 Serial Number --
Analog display, Input voltage level: 0.7/0.3 V
Sync: Separate 
Maximum image size: 30 cm x 22 cm
Gamma: 2.80
DPMS levels: Standby Suspend
RGB color display
Display x,y Chromaticity:
  Red:   0.6250, 0.3398
  Green: 0.2851, 0.6054
  Blue:  0.1503, 0.0654
  White: 0.2812, 0.3105
Established timings supported:
  720x400@70Hz 9:5 HorFreq: 31469 Hz Clock: 28.320 MHz
  640x480@60Hz 4:3 HorFreq: 31469 Hz Clock: 25.175 MHz
  640x480@75Hz 4:3 HorFreq: 37500 Hz Clock: 31.500 MHz
  800x600@72Hz 4:3 HorFreq: 48100 Hz Clock: 50.000 MHz
  800x600@75Hz 4:3 HorFreq: 46900 Hz Clock: 49.500 MHz
  1024x768@75Hz 4:3 HorFreq: 60000 Hz Clock: 78.750 MHz
  1280x1024@75Hz 5:4 HorFreq: 80000 Hz Clock: 135.000 MHz
Standard timings supported:
  640x480@85Hz 4:3 HorFreq: 43300 Hz Clock: 36.000 MHz
  800x600@85Hz 4:3 HorFreq: 53700 Hz Clock: 56.250 MHz
  1600x1200@60Hz 4:3 HorFreq: 75000 Hz Clock: 162.000 MHz
  1600x1200@65Hz 4:3 HorFreq: 81300 Hz Clock: 175.500 MHz
  1280x960@75Hz 4:3
  1024x768@85Hz 4:3 HorFreq: 68700 Hz Clock: 94.500 MHz
Detailed mode: Clock 28.320 MHz, 250 mm x 184 mm
                720  738  846  900 hborder 0
                350  388  390  449 vborder 0
               +hsync -vsync 
               VertFreq: 70 Hz, HorFreq: 31466 Hz
More standard timings:
  640x480@85Hz 4:3 HorFreq: 43300 Hz Clock: 36.000 MHz
  800x600@85Hz 4:3 HorFreq: 53700 Hz Clock: 56.250 MHz
  1600x1200@60Hz 4:3 HorFreq: 75000 Hz Clock: 162.000 MHz
  1600x1200@65Hz 4:3 HorFreq: 81300 Hz Clock: 175.500 MHz
  1280x960@75Hz 4:3
  1024x768@85Hz 4:3 HorFreq: 68700 Hz Clock: 94.500 MHz
Monitor ranges (GTF): 50-90Hz V, 30-88kHz H, max dotclock 180MHz
Checksum: 0xbd (valid)
EDID block does NOT conform to EDID 1.0!
	Has descriptor blocks other than detailed timings
EDID block does not conform at all!
	Bad year of manufacture
