
EDID (hex):
00ffffffffffff005f34020001000000
34100103002c1c782ac905a3574b9c25
125054bfcf00314a454a8180818a0101
01010101010121399030621a274068b0
3600983211000018000000fd00384b1e
500e000a202020202020000000fc0041
4e414c4f470a0a0a0a0a0a0a000000ff
000a0000000000000000000000000007

Extracted contents:
header:          00 ff ff ff ff ff ff 00
serial number:   5f 34 02 00 01 00 00 00 34 10
version:         01 03
basic params:    00 2c 1c 78 2a
chroma info:     c9 05 a3 57 4b 9c 25 12 50 54
established:     bf cf 00
standard:        31 4a 45 4a 81 80 81 8a 01 01 01 01 01 01 01 01
descriptor 1:    21 39 90 30 62 1a 27 40 68 b0 36 00 98 32 11 00 00 18
descriptor 2:    00 00 00 fd 00 38 4b 1e 50 0e 00 0a 20 20 20 20 20 20
descriptor 3:    00 00 00 fc 00 41 4e 41 4c 4f 47 0a 0a 0a 0a 0a 0a 0a
descriptor 4:    00 00 00 ff 00 0a 00 00 00 00 00 00 00 00 00 00 00 00
extensions:      00
checksum:        07

EDID version: 1.3
Manufacturer: WYT Model 2 Serial Number --
Made in week 52 of 2006
Analog display, Input voltage level: 0.7/0.3 V
Sync: 
Maximum image size: 44 cm x 28 cm
Gamma: 2.20
DPMS levels: Off
RGB color display
First detailed timing is preferred timing
Display x,y Chromaticity:
  Red:   0.6396, 0.3398
  Green: 0.2949, 0.6103
  Blue:  0.1445, 0.0703
  White: 0.3134, 0.3291
Established timings supported:
  720x400@70Hz 9:5 HorFreq: 31469 Hz Clock: 28.320 MHz
  640x480@60Hz 4:3 HorFreq: 31469 Hz Clock: 25.175 MHz
  640x480@67Hz 4:3 HorFreq: 35000 Hz Clock: 30.240 MHz
  640x480@72Hz 4:3 HorFreq: 37900 Hz Clock: 31.500 MHz
  640x480@75Hz 4:3 HorFreq: 37500 Hz Clock: 31.500 MHz
  800x600@56Hz 4:3 HorFreq: 35200 Hz Clock: 36.000 MHz
  800x600@60Hz 4:3 HorFreq: 37900 Hz Clock: 40.000 MHz
  800x600@72Hz 4:3 HorFreq: 48100 Hz Clock: 50.000 MHz
  800x600@75Hz 4:3 HorFreq: 46900 Hz Clock: 49.500 MHz
  1024x768@60Hz 4:3 HorFreq: 48400 Hz Clock: 65.000 MHz
  1024x768@70Hz 4:3 HorFreq: 56500 Hz Clock: 75.000 MHz
  1024x768@75Hz 4:3 HorFreq: 60000 Hz Clock: 78.750 MHz
  1280x1024@75Hz 5:4 HorFreq: 80000 Hz Clock: 135.000 MHz
Standard timings supported:
  640x480@70Hz 4:3
  800x600@70Hz 4:3
  1280x1024@60Hz 5:4 HorFreq: 64000 Hz Clock: 108.000 MHz
  1280x1024@70Hz 5:4
Detailed mode: Clock 146.250 MHz, 408 mm x 306 mm
               1680 1784 1960 2240 hborder 0
               1050 1053 1059 1089 vborder 0
               -hsync -vsync 
               VertFreq: 59 Hz, HorFreq: 65290 Hz
Monitor ranges (GTF): 56-75Hz V, 30-80kHz H, max dotclock 140MHz
Monitor name: ANALOG
Serial number: 
-- 0x7 (valid)
EDID block does NOT conform to EDID 1.3!
	Detailed block string not properly terminated
One or more of the timings is out of range of the Monitor Ranges:
  Vertical Freq: 56 - 75 Hz
  Horizontal Freq: 31469 - 80000 Hz
  Maximum Clock: 146.250 MHz
