edid-decode (hex):

00 ff ff ff ff ff ff 00 26 cf 7f 05 00 00 00 00
00 1b 01 04 a5 1f 11 78 0a 1d 39 a7 50 47 97 27
13 4f 54 00 00 00 01 01 01 01 01 01 01 01 01 01
01 01 01 01 01 01 60 6d 80 c8 70 38 14 40 18 30
a5 00 35 ae 10 00 00 19 00 00 00 fe 00 4d 31 34
30 4e 56 46 37 20 52 32 20 0a 00 00 00 03 00 04
30 ff 05 3c 9d 2b 12 32 9d 00 00 00 00 00 00 03
00 06 18 ff 0f 3c 3b 2a 0b 32 3b 01 01 00 00 bb

----------------

Block 0, Base EDID:
  EDID Structure Version & Revision: 1.4
  Vendor & Product Identification:
    Manufacturer: IVO
    Model: 1407
    Made in: 2017
  Basic Display Parameters & Features:
    Digital display
    Bits per primary color channel: 8
    DisplayPort interface
    Maximum image size: 31 cm x 17 cm
    Gamma: 2.20
    Supported color formats: RGB 4:4:4, YCrCb 4:4:4
    First detailed timing includes the native pixel format and preferred refresh rate
  Color Characteristics:
    Red  : 0.6523, 0.3134
    Green: 0.2802, 0.5908
    Blue : 0.1523, 0.0771
    White: 0.3105, 0.3291
  Established Timings I & II: none
  Standard Timings: none
  Detailed Timing Descriptors:
    DTD 1:  1920x1080  120.068611 Hz  16:9    132.075 kHz    280.000000 MHz (309 mm x 174 mm)
                 Hfront   24 Hsync  48 Hback  128 Hpol N
                 Vfront   10 Vsync   5 Vback    5 Vpol N
    Alphanumeric Data String: 'M140NVF7 R2 '
    Manufacturer-Specified Display Descriptor (0x03): 00 03 00 04 30 ff 05 3c 9d 2b 12 32 9d 00 00 00 '....0..<.+.2....'
    Manufacturer-Specified Display Descriptor (0x03): 00 03 00 06 18 ff 0f 3c 3b 2a 0b 32 3b 01 01 00 '.......<;*.2;...'
Checksum: 0xbb

----------------

Failures:

Block 0, Base EDID:
  Alphanumeric Data String: One or more trailing spaces.
  Missing Display Product Name.

EDID conformity: FAIL
