
EDID (hex):
00ffffffffffff0026cf7f0500000000
001b0104a51f11780a1d39a750479727
134f5400000001010101010101010101
010101010101606d80c8703814401830
a50035ae10000019000000fe004d3134
304e564637205232200a000000030004
30ff053c9d2b12329d00000000000003
000618ff0f3c3b2a0b323b01010000bb

Extracted contents:
header:          00 ff ff ff ff ff ff 00
serial number:   26 cf 7f 05 00 00 00 00 00 1b
version:         01 04
basic params:    a5 1f 11 78 0a
chroma info:     1d 39 a7 50 47 97 27 13 4f 54
established:     00 00 00
standard:        01 01 01 01 01 01 01 01 01 01 01 01 01 01 01 01
descriptor 1:    60 6d 80 c8 70 38 14 40 18 30 a5 00 35 ae 10 00 00 19
descriptor 2:    00 00 00 fe 00 4d 31 34 30 4e 56 46 37 20 52 32 20 0a
descriptor 3:    00 00 00 03 00 04 30 ff 05 3c 9d 2b 12 32 9d 00 00 00
descriptor 4:    00 00 00 03 00 06 18 ff 0f 3c 3b 2a 0b 32 3b 01 01 00
extensions:      00
checksum:        bb

EDID version: 1.4
Manufacturer: IVO Model 57f Serial Number --
Made in year 2017
Digital display
8 bits per primary color channel
DisplayPort interface
Maximum image size: 31 cm x 17 cm
Gamma: 2.20
Supported color formats: RGB 4:4:4, YCrCb 4:4:4
First detailed timing includes the native pixel format and preferred refresh rate
Display x,y Chromaticity:
  Red:   0.6523, 0.3134
  Green: 0.2802, 0.5908
  Blue:  0.1523, 0.0771
  White: 0.3105, 0.3291
Established timings supported:
Standard timings supported:
Detailed mode: Clock 280.000 MHz, 309 mm x 174 mm
               1920 1944 1992 2120 hborder 0
               1080 1090 1095 1100 vborder 0
               -hsync -vsync 
               VertFreq: 120 Hz, HorFreq: 132075 Hz
ASCII string: M140NVF7 R2 
Manufacturer-specified data, tag 3
Manufacturer-specified data, tag 3
Checksum: 0xbb (valid)
EDID block does NOT conform to EDID 1.4!
	Missing name descriptor
	Missing monitor ranges
