
EDID (hex):
00ffffffffffff000daf030900000000
2d12010380150c780a5f15925c599228
1e505400000001010101010101010101
0101010101012c1500b0405899203523
7d00c37100000018000000fe004e3038
394c362d4c30330a2020000000fe0043
4d4f0a202020202020202020000000fe
004e3038394c362d4c30330a202000fd

Extracted contents:
header:          00 ff ff ff ff ff ff 00
serial number:   0d af 03 09 00 00 00 00 2d 12
version:         01 03
basic params:    80 15 0c 78 0a
chroma info:     5f 15 92 5c 59 92 28 1e 50 54
established:     00 00 00
standard:        01 01 01 01 01 01 01 01 01 01 01 01 01 01 01 01
descriptor 1:    2c 15 00 b0 40 58 99 20 35 23 7d 00 c3 71 00 00 00 18
descriptor 2:    00 00 00 fe 00 4e 30 38 39 4c 36 2d 4c 30 33 0a 20 20
descriptor 3:    00 00 00 fe 00 43 4d 4f 0a 20 20 20 20 20 20 20 20 20
descriptor 4:    00 00 00 fe 00 4e 30 38 39 4c 36 2d 4c 30 33 0a 20 20
extensions:      00
checksum:        fd

EDID version: 1.3
Manufacturer: CMO Model 903 Serial Number --
Made in week 45 of 2008
Digital display
Maximum image size: 21 cm x 12 cm
Gamma: 2.20
RGB color display
First detailed timing is preferred timing
Display x,y Chromaticity:
  Red:   0.5712, 0.3603
  Green: 0.3505, 0.5732
  Blue:  0.1562, 0.1181
  White: 0.3134, 0.3291
Established timings supported:
Standard timings supported:
Detailed mode: Clock 54.200 MHz, 195 mm x 113 mm
               1024 1077 1112 1200 hborder 0
                600  607  620  753 vborder 0
               -hsync -vsync 
               VertFreq: 59 Hz, HorFreq: 45166 Hz
ASCII string: N089L6-L03
ASCII string: CMO
ASCII string: N089L6-L03
Checksum: 0xfd (valid)
EDID block does NOT conform to EDID 1.3!
	Missing name descriptor
	Missing monitor ranges
