edid-decode (hex):

00 ff ff ff ff ff ff 00 0d ae 47 17 00 00 00 00
10 1a 01 04 a5 26 15 78 02 8a d5 ad 4f 43 ad 26
0f 50 54 00 00 00 01 01 01 01 01 01 01 01 01 01
01 01 01 01 01 01 64 77 80 4a 71 38 34 40 64 42
6a 00 7d d6 10 00 00 18 00 00 00 fe 00 4e 31 37
33 48 48 45 2d 47 33 32 0a 20 00 00 00 fe 00 43
4d 4e 0a 20 20 20 20 20 20 20 20 20 00 00 00 fe
00 4e 31 37 33 48 48 45 2d 47 33 32 0a 20 00 5f

----------------

Block 0, Base EDID:
  EDID Structure Version & Revision: 1.4
  Vendor & Product Identification:
    Manufacturer: CMN
    Model: 5959
    Made in: week 16 of 2016
  Basic Display Parameters & Features:
    Digital display
    Bits per primary color channel: 8
    DisplayPort interface
    Maximum image size: 38 cm x 21 cm
    Gamma: 2.20
    Supported color formats: RGB 4:4:4
    First detailed timing includes the native pixel format and preferred refresh rate
  Color Characteristics:
    Red  : 0.6777, 0.3085
    Green: 0.2636, 0.6777
    Blue : 0.1513, 0.0595
    White: 0.3134, 0.3291
  Established Timings I & II: none
  Standard Timings: none
  Detailed Timing Descriptors:
    DTD 1:  1920x1080  120.000000 Hz  16:9    135.840 kHz    305.640000 MHz (381 mm x 214 mm)
                 Hfront  100 Hsync  66 Hback  164 Hpol N
                 Vfront    6 Vsync  10 Vback   36 Vpol N
    Alphanumeric Data String: 'N173HHE-G32'
    Alphanumeric Data String: 'CMN'
    Alphanumeric Data String: 'N173HHE-G32'
Checksum: 0x5f

----------------

Failures:

Block 0, Base EDID:
  Missing Display Product Name.

EDID conformity: FAIL
