
EDID (hex):
00ffffffffffff0005af003200000000
0d1f010380462778288c75a954459822
1e505421080031404540614081c08180
9500b300a9c0565e00a0a0a029503020
3500bc862100001a000000ff00303030
30303030303030303031000000fd0030
4b1f7028000a202020202020000000fc
00413332300a2020202020202020019c
020338f147101f041303120123090707
8301000067030c0010003850681a0000
0101304be667d85dc4017c8000e305c0
00e6060501606000047600a0a0a02950
30203500bc862100001a000000000000
00000000000000000000000000000000
00000000000000000000000000000000
000000000000000000000000000000f2

Extracted contents:
header:          00 ff ff ff ff ff ff 00
serial number:   05 af 00 32 00 00 00 00 0d 1f
version:         01 03
basic params:    80 46 27 78 28
chroma info:     8c 75 a9 54 45 98 22 1e 50 54
established:     21 08 00
standard:        31 40 45 40 61 40 81 c0 81 80 95 00 b3 00 a9 c0
descriptor 1:    56 5e 00 a0 a0 a0 29 50 30 20 35 00 bc 86 21 00 00 1a
descriptor 2:    00 00 00 ff 00 30 30 30 30 30 30 30 30 30 30 30 30 31
descriptor 3:    00 00 00 fd 00 30 4b 1f 70 28 00 0a 20 20 20 20 20 20
descriptor 4:    00 00 00 fc 00 41 33 32 30 0a 20 20 20 20 20 20 20 20
extensions:      01
checksum:        9c

EDID version: 1.3
Manufacturer: AMO Model 3200 Serial Number --
Made in week 13 of 2021
Digital display
Maximum image size: 70 cm x 39 cm
Gamma: 2.20
DPMS levels: Off
RGB color display
Display x,y Chromaticity:
  Red:   0.6621, 0.3281
  Green: 0.2724, 0.5937
  Blue:  0.1337, 0.1201
  White: 0.3134, 0.3291
Established timings supported:
  640x480@60Hz 4:3 HorFreq: 31469 Hz Clock: 25.175 MHz
  800x600@60Hz 4:3 HorFreq: 37900 Hz Clock: 40.000 MHz
  1024x768@60Hz 4:3 HorFreq: 48400 Hz Clock: 65.000 MHz
Standard timings supported:
  640x480@60Hz 4:3 HorFreq: 31469 Hz Clock: 25.175 MHz
  800x600@60Hz 4:3 HorFreq: 37900 Hz Clock: 40.000 MHz
  1024x768@60Hz 4:3 HorFreq: 48400 Hz Clock: 65.000 MHz
  1280x720@60Hz 16:9
  1280x1024@60Hz 5:4 HorFreq: 64000 Hz Clock: 108.000 MHz
  1440x900@60Hz 16:10 HorFreq: 55500 Hz Clock: 88.750 MHz
  1680x1050@60Hz 16:10 HorFreq: 64700 Hz Clock: 119.000 MHz
  1600x900@60Hz 16:9
Detailed mode: Clock 241.500 MHz, 700 mm x 390 mm
               2560 2608 2640 2720 hborder 0
               1440 1443 1448 1481 vborder 0
               +hsync -vsync 
               VertFreq: 59 Hz, HorFreq: 88786 Hz
Serial number: --
Monitor ranges (GTF): 48-75Hz V, 31-112kHz H, max dotclock 400MHz
Monitor name: A320
Has 1 extension blocks
Checksum: 0x9c (valid)

CTA extension block
Extension version: 3
52 bytes of CTA data
  Video data block
    VIC  16 1920x1080@60Hz 16:9  HorFreq: 67500 Hz Clock: 148.500 MHz
    VIC  31 1920x1080@50Hz 16:9  HorFreq: 56250 Hz Clock: 148.500 MHz
    VIC   4 1280x720@60Hz 16:9  HorFreq: 45000 Hz Clock: 74.250 MHz
    VIC  19 1280x720@50Hz 16:9  HorFreq: 37500 Hz Clock: 74.250 MHz
    VIC   3 720x480@60Hz 16:9  HorFreq: 31469 Hz Clock: 27.000 MHz
    VIC  18 720x576@50Hz 16:9  HorFreq: 31250 Hz Clock: 27.000 MHz
    VIC   1 640x480@60Hz 4:3  HorFreq: 31469 Hz Clock: 25.175 MHz
  Audio data block
    Linear PCM, max channels 2
      Supported sample rates (kHz): 48 44.1 32
      Supported sample sizes (bits): 24 20 16
  Speaker allocation data block
    Speaker map:
      FL/FR - Front Left/Right
  Vendor-specific data block, OUI 000c03 (HDMI)
    Source physical address 1.0.0.0
    DC_36bit
    DC_30bit
    DC_Y444
    Maximum TMDS clock: 400MHz
  Vendor-specific data block, OUI 00001a
  Vendor-specific data block, OUI c45dd8 (HDMI Forum)
    Version: 1
    Maximum TMDS Character Rate: 620MHz
    SCDC Present
  Extended tag: Colorimetry data block
    BT2020YCC
    BT2020RGB
  Extended tag: HDR static metadata data block
    Electro optical transfer functions:
      Traditional gamma - SDR luminance range
      SMPTE ST2084
    Supported static metadata descriptors:
      Static metadata type 1
    Desired content max luminance: 96 (400.000 cd/m^2)
    Desired content max frame-average luminance: 96 (400.000 cd/m^2)
    Desired content min luminance: 0 (0.000 cd/m^2)
Underscans PC formats by default
Basic audio support
Supports YCbCr 4:4:4
Supports YCbCr 4:2:2
1 native detailed modes
Detailed mode: Clock 302.120 MHz, 700 mm x 390 mm
               2560 2608 2640 2720 hborder 0
               1440 1443 1448 1481 vborder 0
               +hsync -vsync 
               VertFreq: 74 Hz, HorFreq: 111073 Hz
Checksum: 0xf2 (valid)

EDID block does NOT conform to EDID 1.3!
	HDMI Forum VSDB did not immediately follow the HDMI VSDB
	HDMI VSDB Max TMDS rate is > 340
	HDMI Forum VSDB Max TMDS rate is > 0 and <= 340 or > 600
	Missing preferred timing
