
EDID (hex):
00ffffffffffff000e1146149344a8a5
0a0d0103682018a3ea0a6ea452449924
11484ca44300315945596159a9450101
010101010101ea240060410028303060
130038ea1000001e000000fd00328c1e
5612000a202020202020000000fc0043
4f4d50415120373535300a200000000d
00020293062c087014370142032c0066

Extracted contents:
header:          00 ff ff ff ff ff ff 00
serial number:   0e 11 46 14 93 44 a8 a5 0a 0d
version:         01 03
basic params:    68 20 18 a3 ea
chroma info:     0a 6e a4 52 44 99 24 11 48 4c
established:     a4 43 00
standard:        31 59 45 59 61 59 a9 45 01 01 01 01 01 01 01 01
descriptor 1:    ea 24 00 60 41 00 28 30 30 60 13 00 38 ea 10 00 00 1e
descriptor 2:    00 00 00 fd 00 32 8c 1e 56 12 00 0a 20 20 20 20 20 20
descriptor 3:    00 00 00 fc 00 43 4f 4d 50 41 51 20 37 35 35 30 0a 20
descriptor 4:    00 00 00 0d 00 02 02 93 06 2c 08 70 14 37 01 42 03 2c
extensions:      00
checksum:        66

EDID version: 1.3
Manufacturer: CPQ Model 1446 Serial Number --
Analog display, Input voltage level: 0.7/0.7 V
Sync: Separate 
Maximum image size: 32 cm x 24 cm
Gamma: 2.63
DPMS levels: Standby Suspend Off
RGB color display
First detailed timing is preferred timing
Display x,y Chromaticity:
  Red:   0.6406, 0.3203
  Green: 0.2675, 0.5996
  Blue:  0.1416, 0.0683
  White: 0.2841, 0.2988
Established timings supported:
  720x400@70Hz 9:5 HorFreq: 31469 Hz Clock: 28.320 MHz
  640x480@60Hz 4:3 HorFreq: 31469 Hz Clock: 25.175 MHz
  640x480@75Hz 4:3 HorFreq: 37500 Hz Clock: 31.500 MHz
  800x600@75Hz 4:3 HorFreq: 46900 Hz Clock: 49.500 MHz
  1024x768@75Hz 4:3 HorFreq: 60000 Hz Clock: 78.750 MHz
  1280x1024@75Hz 5:4 HorFreq: 80000 Hz Clock: 135.000 MHz
Standard timings supported:
  640x480@85Hz 4:3 HorFreq: 43300 Hz Clock: 36.000 MHz
  800x600@85Hz 4:3 HorFreq: 53700 Hz Clock: 56.250 MHz
  1024x768@85Hz 4:3 HorFreq: 68700 Hz Clock: 94.500 MHz
  1600x1200@65Hz 4:3 HorFreq: 81300 Hz Clock: 175.500 MHz
Detailed mode: Clock 94.500 MHz, 312 mm x 234 mm
               1024 1072 1168 1376 hborder 0
                768  769  772  808 vborder 0
               +hsync +vsync 
               VertFreq: 84 Hz, HorFreq: 68677 Hz
Monitor ranges (GTF): 50-140Hz V, 30-86kHz H, max dotclock 180MHz
Monitor name: COMPAQ 7550
Manufacturer-specified data, tag 13
Checksum: 0x66 (valid)
EDID block does not conform at all!
	Bad year of manufacture
