
EDID (hex):
00ffffffffffff003870650000000000
2a1e0104951f11780288e5975d568c27
1b505400000001010101010101010101
0101010101012e3680a070381f403020
350035ae1000001a522b80a070381f40
3020350035ae1000001a000000000000
00000000000000000000000000000002
000c3dff0c3c7d0c0c1a7d0000000023

Extracted contents:
header:          00 ff ff ff ff ff ff 00
serial number:   38 70 65 00 00 00 00 00 2a 1e
version:         01 04
basic params:    95 1f 11 78 02
chroma info:     88 e5 97 5d 56 8c 27 1b 50 54
established:     00 00 00
standard:        01 01 01 01 01 01 01 01 01 01 01 01 01 01 01 01
descriptor 1:    2e 36 80 a0 70 38 1f 40 30 20 35 00 35 ae 10 00 00 1a
descriptor 2:    52 2b 80 a0 70 38 1f 40 30 20 35 00 35 ae 10 00 00 1a
descriptor 3:    00 00 00 00 00 00 00 00 00 00 00 00 00 00 00 00 00 00
descriptor 4:    00 00 00 02 00 0c 3d ff 0c 3c 7d 0c 0c 1a 7d 00 00 00
extensions:      00
checksum:        23

EDID version: 1.4
Manufacturer: NCP Model 65 Serial Number --
Made in week 42 of 2020
Digital display
6 bits per primary color channel
DisplayPort interface
Maximum image size: 31 cm x 17 cm
Gamma: 2.20
Supported color formats: RGB 4:4:4
First detailed timing includes the native pixel format and preferred refresh rate
Display x,y Chromaticity:
  Red:   0.5917, 0.3632
  Green: 0.3378, 0.5468
  Blue:  0.1552, 0.1074
  White: 0.3134, 0.3291
Established timings supported:
Standard timings supported:
Detailed mode: Clock 138.700 MHz, 309 mm x 174 mm
               1920 1968 2000 2080 hborder 0
               1080 1083 1088 1111 vborder 0
               +hsync -vsync 
               VertFreq: 60 Hz, HorFreq: 66682 Hz
Detailed mode: Clock 110.900 MHz, 309 mm x 174 mm
               1920 1968 2000 2080 hborder 0
               1080 1083 1088 1111 vborder 0
               +hsync -vsync 
               VertFreq: 47 Hz, HorFreq: 53317 Hz
Manufacturer-specified data, tag 0
Manufacturer-specified data, tag 2
Checksum: 0x23 (valid)
EDID block does NOT conform to EDID 1.4!
	Missing name descriptor
	Missing monitor ranges
