
EDID (hex):
00ffffffffffff004c2e610b01010101
00120102083920782a977da4564b981d
10474aafce0001010101010101010101
010101010101662150b051001b304070
36003a402100001e000000fd0038561e
460b000a202020202020000000fc0053
414e594f204c43440a202020000000fe
000a20202020202020202020202000d7

Extracted contents:
header:          00 ff ff ff ff ff ff 00
serial number:   4c 2e 61 0b 01 01 01 01 00 12
version:         01 02
basic params:    08 39 20 78 2a
chroma info:     97 7d a4 56 4b 98 1d 10 47 4a
established:     af ce 00
standard:        01 01 01 01 01 01 01 01 01 01 01 01 01 01 01 01
descriptor 1:    66 21 50 b0 51 00 1b 30 40 70 36 00 3a 40 21 00 00 1e
descriptor 2:    00 00 00 fd 00 38 56 1e 46 0b 00 0a 20 20 20 20 20 20
descriptor 3:    00 00 00 fc 00 53 41 4e 59 4f 20 4c 43 44 0a 20 20 20
descriptor 4:    00 00 00 fe 00 0a 20 20 20 20 20 20 20 20 20 20 20 20
extensions:      00
checksum:        d7

EDID version: 1.2
Manufacturer: SAN Model b61 Serial Number --
Made in year 2008
Analog display, Input voltage level: 0.7/0.3 V
Sync: Separate 
Maximum image size: 57 cm x 32 cm
Gamma: 2.20
DPMS levels: Off
RGB color display
First detailed timing is preferred timing
Display x,y Chromaticity:
  Red:   0.6425, 0.3369
  Green: 0.2939, 0.5966
  Blue:  0.1142, 0.0654
  White: 0.2802, 0.2900
Established timings supported:
  720x400@70Hz 9:5 HorFreq: 31469 Hz Clock: 28.320 MHz
  640x480@60Hz 4:3 HorFreq: 31469 Hz Clock: 25.175 MHz
  640x480@72Hz 4:3 HorFreq: 37900 Hz Clock: 31.500 MHz
  640x480@75Hz 4:3 HorFreq: 37500 Hz Clock: 31.500 MHz
  800x600@56Hz 4:3 HorFreq: 35200 Hz Clock: 36.000 MHz
  800x600@60Hz 4:3 HorFreq: 37900 Hz Clock: 40.000 MHz
  800x600@72Hz 4:3 HorFreq: 48100 Hz Clock: 50.000 MHz
  800x600@75Hz 4:3 HorFreq: 46900 Hz Clock: 49.500 MHz
  1024x768@60Hz 4:3 HorFreq: 48400 Hz Clock: 65.000 MHz
  1024x768@70Hz 4:3 HorFreq: 56500 Hz Clock: 75.000 MHz
  1024x768@75Hz 4:3 HorFreq: 60000 Hz Clock: 78.750 MHz
Standard timings supported:
Detailed mode: Clock 85.500 MHz, 570 mm x 320 mm
               1360 1424 1536 1792 hborder 0
                768  771  777  795 vborder 0
               +hsync +vsync 
               VertFreq: 60 Hz, HorFreq: 47712 Hz
Monitor ranges (GTF): 56-86Hz V, 30-70kHz H, max dotclock 110MHz
Monitor name: SANYO LCD
ASCII string: 
Checksum: 0xd7 (valid)
