
EDID (hex):
00ffffffffffff0030e4da0500000000
001c0104a51f11780647c5a4534d9c26
0e505400000001010101010101010101
0101010101012e3680a070381f403020
350035ae1000001a572b80a070381f40
3020350035ae1000001a000000fe0052
36443836803134305746390a00000000
000141319e001000000a010a202000d0

Extracted contents:
header:          00 ff ff ff ff ff ff 00
serial number:   30 e4 da 05 00 00 00 00 00 1c
version:         01 04
basic params:    a5 1f 11 78 06
chroma info:     47 c5 a4 53 4d 9c 26 0e 50 54
established:     00 00 00
standard:        01 01 01 01 01 01 01 01 01 01 01 01 01 01 01 01
descriptor 1:    2e 36 80 a0 70 38 1f 40 30 20 35 00 35 ae 10 00 00 1a
descriptor 2:    57 2b 80 a0 70 38 1f 40 30 20 35 00 35 ae 10 00 00 1a
descriptor 3:    00 00 00 fe 00 52 36 44 38 36 80 31 34 30 57 46 39 0a
descriptor 4:    00 00 00 00 00 01 41 31 9e 00 10 00 00 0a 01 0a 20 20
extensions:      00
checksum:        d0

EDID version: 1.4
Manufacturer: LGD Model 5da Serial Number --
Made in year 2018
Digital display
8 bits per primary color channel
DisplayPort interface
Maximum image size: 31 cm x 17 cm
Gamma: 2.20
Supported color formats: RGB 4:4:4
Default (sRGB) color space is primary color space
First detailed timing includes the native pixel format and preferred refresh rate
Display x,y Chromaticity:
  Red:   0.6416, 0.3242
  Green: 0.3017, 0.6123
  Blue:  0.1513, 0.0546
  White: 0.3134, 0.3291
Established timings supported:
Standard timings supported:
Detailed mode: Clock 138.700 MHz, 309 mm x 174 mm
               1920 1968 2000 2080 hborder 0
               1080 1083 1088 1111 vborder 0
               +hsync -vsync 
               VertFreq: 60 Hz, HorFreq: 66682 Hz
Detailed mode: Clock 110.950 MHz, 309 mm x 174 mm
               1920 1968 2000 2080 hborder 0
               1080 1083 1088 1111 vborder 0
               +hsync -vsync 
               VertFreq: 48 Hz, HorFreq: 53341 Hz
ASCII string: R6D86
Manufacturer-specified data, tag 0
Checksum: 0xd0 (valid)
EDID block does NOT conform to EDID 1.4!
	sRGB is signaled, but the chromaticities do not match
	Missing name descriptor
	Missing monitor ranges
	Detailed block string not properly terminated
