
EDID (hex):
00ffffffffffff000daf101200000000
01100103801a10780afcc59256539126
20505400080001010101010101010101
010101010101bc1b00a0502017303020
360005a310000018000000fe004e3132
3149332d4c30310a2020000000fe0043
4d4f0a202020202020202020000000fe
004e31323149332d4c30310a202000cd

Extracted contents:
header:          00 ff ff ff ff ff ff 00
serial number:   0d af 10 12 00 00 00 00 01 10
version:         01 03
basic params:    80 1a 10 78 0a
chroma info:     fc c5 92 56 53 91 26 20 50 54
established:     00 08 00
standard:        01 01 01 01 01 01 01 01 01 01 01 01 01 01 01 01
descriptor 1:    bc 1b 00 a0 50 20 17 30 30 20 36 00 05 a3 10 00 00 18
descriptor 2:    00 00 00 fe 00 4e 31 32 31 49 33 2d 4c 30 31 0a 20 20
descriptor 3:    00 00 00 fe 00 43 4d 4f 0a 20 20 20 20 20 20 20 20 20
descriptor 4:    00 00 00 fe 00 4e 31 32 31 49 33 2d 4c 30 31 0a 20 20
extensions:      00
checksum:        cd

EDID version: 1.3
Manufacturer: CMO Model 1210 Serial Number --
Made in week 1 of 2006
Digital display
Maximum image size: 26 cm x 16 cm
Gamma: 2.20
RGB color display
First detailed timing is preferred timing
Display x,y Chromaticity:
  Red:   0.5732, 0.3388
  Green: 0.3271, 0.5664
  Blue:  0.1513, 0.1250
  White: 0.3134, 0.3291
Established timings supported:
  1024x768@60Hz 4:3 HorFreq: 48400 Hz Clock: 65.000 MHz
Standard timings supported:
Detailed mode: Clock 71.000 MHz, 261 mm x 163 mm
               1280 1328 1360 1440 hborder 0
                800  803  809  823 vborder 0
               -hsync -vsync 
               VertFreq: 59 Hz, HorFreq: 49305 Hz
ASCII string: N121I3-L01
ASCII string: CMO
ASCII string: N121I3-L01
Checksum: 0xcd (valid)
EDID block does NOT conform to EDID 1.3!
	Missing name descriptor
	Missing monitor ranges
