
EDID (hex):
00ffffffffffff004d106c1500000000
2d1f0104a51d117807de50a3544c9926
0f505400000001010101010101010101
0101010101011a36809c70381f403020
350026a510000018000000fd001e3c43
430e0100000000000000000000100000
000000000000000000000000000000fc
004c513133334d314a573632410a00a9

edid-decode (hex):

00 ff ff ff ff ff ff 00 4d 10 6c 15 00 00 00 00
2d 1f 01 04 a5 1d 11 78 07 de 50 a3 54 4c 99 26
0f 50 54 00 00 00 01 01 01 01 01 01 01 01 01 01
01 01 01 01 01 01 1a 36 80 9c 70 38 1f 40 30 20
35 00 26 a5 10 00 00 18 00 00 00 fd 00 1e 3c 43
43 0e 01 00 00 00 00 00 00 00 00 00 00 10 00 00
00 00 00 00 00 00 00 00 00 00 00 00 00 00 00 fc
00 4c 51 31 33 33 4d 31 4a 57 36 32 41 0a 00 a9

----------------

Block 0, Base EDID:
  EDID Structure Version & Revision: 1.4
  Vendor & Product Identification:
    Manufacturer: SHP
    Model: 5484
    Made in: week 45 of 2021
  Basic Display Parameters & Features:
    Digital display
    Bits per primary color channel: 8
    DisplayPort interface
    Maximum image size: 29 cm x 17 cm
    Gamma: 2.20
    Supported color formats: RGB 4:4:4
    Default (sRGB) color space is primary color space
    First detailed timing includes the native pixel format and preferred refresh rate
    Display is continuous frequency
  Color Characteristics:
    Red  : 0.6396, 0.3291
    Green: 0.2998, 0.5996
    Blue : 0.1494, 0.0595
    White: 0.3125, 0.3281
  Established Timings I & II: none
  Standard Timings: none
  Detailed Timing Descriptors:
    DTD 1:  1920x1080   60.049358 Hz  16:9     66.715 kHz    138.500000 MHz (294 mm x 165 mm)
                 Hfront   48 Hsync  32 Hback   76 Hpol N
                 Vfront    3 Vsync   5 Vback   23 Vpol N
    Display Range Limits:
      Monitor ranges (Bare Limits): 30-60 Hz V, 67-67 kHz H, max dotclock 140 MHz
    Dummy Descriptor:
    Display Product Name: 'LQ133M1JW62A'
Checksum: 0xa9


