edid-decode (hex):

00 ff ff ff ff ff ff 00 4d d9 fa 06 01 01 01 01
2d 11 01 03 80 1d 10 00 ea a8 e0 99 57 4b 92 25
1c 50 54 00 00 00 01 01 01 01 01 01 01 01 01 01
01 01 01 01 01 01 09 27 40 e8 60 84 0a 30 40 40
11 00 21 a3 10 00 00 1e 00 00 00 fc 00 4e 76 69
64 69 61 20 44 65 66 61 75 6c 00 00 00 fc 00 74
20 46 6c 61 74 20 50 61 6e 65 6c 0a 00 00 00 fd
00 00 3c 1d 3c 0b 00 0a 20 20 20 20 20 20 00 60

----------------

Block 0, Base EDID:
  EDID Structure Version & Revision: 1.3
  Vendor & Product Identification:
    Manufacturer: SNY
    Model: 1786
    Serial Number: ...
    Made in: week 45 of 2007
  Basic Display Parameters & Features:
    Digital display
    Maximum image size: 29 cm x 16 cm
    Gamma: 1.00
    DPMS levels: Standby Suspend Off
    RGB color display
    First detailed timing is the preferred timing
  Color Characteristics:
    Red  : 0.5996, 0.3417
    Green: 0.2949, 0.5703
    Blue : 0.1474, 0.1113
    White: 0.3125, 0.3281
  Established Timings I & II: none
  Standard Timings: none
  Detailed Timing Descriptors:
    DTD 1:  1600x900    59.941696 Hz  16:9     54.547 kHz     99.930000 MHz (289 mm x 163 mm)
                 Hfront   64 Hsync  64 Hback  104 Hpol P
                 Vfront    1 Vsync   1 Vback    8 Vpol P
    Display Product Name: 'Nvidia Defaul'
    Display Product Name: 't Flat Panel'
    Display Range Limits:
      Monitor ranges (GTF): 0-60 Hz V, 29-60 kHz H, max dotclock 110 MHz
Checksum: 0x60

----------------

EDID conformity: PASS
