
EDID (hex):
00ffffffffffff0009e5a50700000000
011c010495221378027f99945d599329
1f4f5400000001010101010101010101
010101010101ce1d56e250001e303020
360058c21000001ad81356e250001e30
3020360058c21000001a000000000000
00000000000000000000000000000002
000c49ff0a3c6e0b0c196e0000000058

Extracted contents:
header:          00 ff ff ff ff ff ff 00
serial number:   09 e5 a5 07 00 00 00 00 01 1c
version:         01 04
basic params:    95 22 13 78 02
chroma info:     7f 99 94 5d 59 93 29 1f 4f 54
established:     00 00 00
standard:        01 01 01 01 01 01 01 01 01 01 01 01 01 01 01 01
descriptor 1:    ce 1d 56 e2 50 00 1e 30 30 20 36 00 58 c2 10 00 00 1a
descriptor 2:    d8 13 56 e2 50 00 1e 30 30 20 36 00 58 c2 10 00 00 1a
descriptor 3:    00 00 00 00 00 00 00 00 00 00 00 00 00 00 00 00 00 00
descriptor 4:    00 00 00 02 00 0c 49 ff 0a 3c 6e 0b 0c 19 6e 00 00 00
extensions:      00
checksum:        58

EDID version: 1.4
Manufacturer: BOE Model 7a5 Serial Number --
Made in week 1 of 2018
Digital display
6 bits per primary color channel
DisplayPort interface
Maximum image size: 34 cm x 19 cm
Gamma: 2.20
Supported color formats: RGB 4:4:4
First detailed timing includes the native pixel format and preferred refresh rate
Display x,y Chromaticity:
  Red:   0.5791, 0.3662
  Green: 0.3505, 0.5771
  Blue:  0.1621, 0.1220
  White: 0.3105, 0.3291
Established timings supported:
Standard timings supported:
Detailed mode: Clock 76.300 MHz, 344 mm x 194 mm
               1366 1414 1446 1592 hborder 0
                768  771  777  798 vborder 0
               +hsync -vsync 
               VertFreq: 60 Hz, HorFreq: 47927 Hz
Detailed mode: Clock 50.800 MHz, 344 mm x 194 mm
               1366 1414 1446 1592 hborder 0
                768  771  777  798 vborder 0
               +hsync -vsync 
               VertFreq: 39 Hz, HorFreq: 31909 Hz
Manufacturer-specified data, tag 0
Manufacturer-specified data, tag 2
Checksum: 0x58 (valid)
EDID block does NOT conform to EDID 1.4!
	Missing name descriptor
	Missing monitor ranges
