edid-decode (hex):

00 ff ff ff ff ff ff 00 05 e3 00 19 1e 0f 00 00
21 10 01 03 68 29 1a 78 2a e5 b5 a3 55 49 99 27
13 50 54 bf ef 00 81 80 71 4f 81 40 95 0f 01 01
01 01 01 01 95 00 30 2a a0 d0 51 84 22 30 50 98
36 00 9a 01 11 00 00 1e 00 00 00 ff 00 39 31 34
36 38 43 41 30 30 33 38 37 30 00 00 00 fd 00 32
4c 1e 53 0e 00 0a 20 20 20 20 20 20 00 00 00 fc
00 31 39 4c 56 57 6b 0a 20 20 20 20 20 20 00 a3

00 ff ff ff ff ff ff 00 05 e3 00 19 1e 0f 00 00
21 10 01 03 68 29 1a 78 2a e5 b5 a3 55 49 99 27
13 50 54 bf ef 00 81 80 71 4f 81 40 95 0f 01 01
01 01 01 01 95 00 30 2a a0 d0 51 84 22 30 50 98
36 00 9a 01 11 00 00 1e 00 00 00 ff 00 39 31 34
36 38 43 41 30 30 33 38 37 30 00 00 00 fd 00 32
4c 1e 53 0e 00 0a 20 20 20 20 20 20 00 00 00 fc
00 31 39 4c 56 57 6b 0a 20 20 20 20 20 20 00 a3

----------------

Block 0, Base EDID:
  EDID Structure Version & Revision: 1.3
  Vendor & Product Identification:
    Manufacturer: AOC
    Model: 6400
    Serial Number: ...
    Made in: week 33 of 2006
  Basic Display Parameters & Features:
    Analog display
    Signal Level Standard: 0.700 : 0.000 : 0.700 V p-p
    Blank level equals black level
    Sync: Separate
    Maximum image size: 41 cm x 26 cm
    Gamma: 2.20
    DPMS levels: Off
    RGB color display
    First detailed timing is the preferred timing
  Color Characteristics:
    Red  : 0.6396, 0.3339
    Green: 0.2861, 0.5986
    Blue : 0.1542, 0.0771
    White: 0.3134, 0.3291
  Established Timings I & II:
    IBM     :   720x400    70.081663 Hz   9:5     31.467 kHz     28.320000 MHz
    DMT 0x04:   640x480    59.940476 Hz   4:3     31.469 kHz     25.175000 MHz
    Apple   :   640x480    66.666667 Hz   4:3     35.000 kHz     30.240000 MHz
    DMT 0x05:   640x480    72.808802 Hz   4:3     37.861 kHz     31.500000 MHz
    DMT 0x06:   640x480    75.000000 Hz   4:3     37.500 kHz     31.500000 MHz
    DMT 0x08:   800x600    56.250000 Hz   4:3     35.156 kHz     36.000000 MHz
    DMT 0x09:   800x600    60.316541 Hz   4:3     37.879 kHz     40.000000 MHz
    DMT 0x0a:   800x600    72.187572 Hz   4:3     48.077 kHz     50.000000 MHz
    DMT 0x0b:   800x600    75.000000 Hz   4:3     46.875 kHz     49.500000 MHz
    Apple   :   832x624    74.551266 Hz   4:3     49.726 kHz     57.284000 MHz
    DMT 0x10:  1024x768    60.003840 Hz   4:3     48.363 kHz     65.000000 MHz
    DMT 0x11:  1024x768    70.069359 Hz   4:3     56.476 kHz     75.000000 MHz
    DMT 0x12:  1024x768    75.028582 Hz   4:3     60.023 kHz     78.750000 MHz
    DMT 0x24:  1280x1024   75.024675 Hz   5:4     79.976 kHz    135.000000 MHz
  Standard Timings:
    DMT 0x23:  1280x1024   60.019740 Hz   5:4     63.981 kHz    108.000000 MHz
    DMT 0x15:  1152x864    75.000000 Hz   4:3     67.500 kHz    108.000000 MHz
    DMT 0x20:  1280x960    60.000000 Hz   4:3     60.000 kHz    108.000000 MHz
    DMT 0x30:  1440x900    74.984427 Hz  16:10    70.635 kHz    136.750000 MHz
    DMT 0x2f:  1440x900    59.887445 Hz  16:10    55.935 kHz    106.500000 MHz
  Detailed Timing Descriptors:
    DTD 1:  1440x900    60.730930 Hz  16:10    56.723 kHz    108.000000 MHz (410 mm x 257 mm)
                 Hfront   80 Hsync 152 Hback  232 Hpol P
                 Vfront    3 Vsync   6 Vback   25 Vpol P
    Display Product Serial Number: ...
    Display Range Limits:
      Monitor ranges (GTF): 50-76 Hz V, 30-83 kHz H, max dotclock 140 MHz
    Display Product Name: '19LVWk'
Checksum: 0xa3

----------------

Block 1, Unknown EDID Extension Block 0x00:
  00 ff ff ff ff ff ff 00 05 e3 00 19 1e 0f 00 00 '................'
  21 10 01 03 68 29 1a 78 2a e5 b5 a3 55 49 99 27 '!...h).x*...UI.''
  13 50 54 bf ef 00 81 80 71 4f 81 40 95 0f 01 01 '.PT.....qO.@....'
  01 01 01 01 95 00 30 2a a0 d0 51 84 22 30 50 98 '......0*..Q."0P.'
  36 00 9a 01 11 00 00 1e 00 00 00 ff 00 39 31 34 '6............914'
  36 38 43 41 30 30 33 38 37 30 00 00 00 fd 00 32 '68CA003870.....2'
  4c 1e 53 0e 00 0a 20 20 20 20 20 20 00 00 00 fc 'L.S...      ....'
  00 31 39 4c 56 57 6b 0a 20 20 20 20 20 20 00 a3 '.19LVWk.      ..'
Checksum: 0xa3

----------------

Failures:

Block 1, Base EDID:
  Unknown Extension Block.
EDID:
  Base EDID: EDID specified 0 extension block(s), but found 1 extension block(s).

EDID conformity: FAIL
