
EDID (hex):
00ffffffffffff0030ae461101010101
2113010380301e78eeee95a3544c9926
0f5054adcf003146714f81809500950f
a900b30001017c2e90a0601a1e403020
3600d9281100001a000000fc004c3232
34307077440a20202020000000fd0032
4b1e4b0f000a202020202020000000ff
003656364d343430370a202020200092

Extracted contents:
header:          00 ff ff ff ff ff ff 00
serial number:   30 ae 46 11 01 01 01 01 21 13
version:         01 03
basic params:    80 30 1e 78 ee
chroma info:     ee 95 a3 54 4c 99 26 0f 50 54
established:     ad cf 00
standard:        31 46 71 4f 81 80 95 00 95 0f a9 00 b3 00 01 01
descriptor 1:    7c 2e 90 a0 60 1a 1e 40 30 20 36 00 d9 28 11 00 00 1a
descriptor 2:    00 00 00 fc 00 4c 32 32 34 30 70 77 44 0a 20 20 20 20
descriptor 3:    00 00 00 fd 00 32 4b 1e 4b 0f 00 0a 20 20 20 20 20 20
descriptor 4:    00 00 00 ff 00 36 56 36 4d 34 34 30 37 0a 20 20 20 20
extensions:      00
checksum:        92

EDID version: 1.3
Manufacturer: LEN Model 1146 Serial Number --
Made in week 33 of 2009
Digital display
Maximum image size: 48 cm x 30 cm
Gamma: 2.20
DPMS levels: Standby Suspend Off
RGB color display
Default (sRGB) color space is primary color space
First detailed timing is preferred timing
Display x,y Chromaticity:
  Red:   0.6396, 0.3300
  Green: 0.2998, 0.5996
  Blue:  0.1503, 0.0595
  White: 0.3134, 0.3291
Established timings supported:
  720x400@70Hz 9:5 HorFreq: 31469 Hz Clock: 28.320 MHz
  640x480@60Hz 4:3 HorFreq: 31469 Hz Clock: 25.175 MHz
  640x480@72Hz 4:3 HorFreq: 37900 Hz Clock: 31.500 MHz
  640x480@75Hz 4:3 HorFreq: 37500 Hz Clock: 31.500 MHz
  800x600@60Hz 4:3 HorFreq: 37900 Hz Clock: 40.000 MHz
  800x600@72Hz 4:3 HorFreq: 48100 Hz Clock: 50.000 MHz
  800x600@75Hz 4:3 HorFreq: 46900 Hz Clock: 49.500 MHz
  1024x768@60Hz 4:3 HorFreq: 48400 Hz Clock: 65.000 MHz
  1024x768@70Hz 4:3 HorFreq: 56500 Hz Clock: 75.000 MHz
  1024x768@75Hz 4:3 HorFreq: 60000 Hz Clock: 78.750 MHz
  1280x1024@75Hz 5:4 HorFreq: 80000 Hz Clock: 135.000 MHz
Standard timings supported:
  640x480@66Hz 4:3
  1152x864@75Hz 4:3 HorFreq: 67500 Hz Clock: 108.000 MHz
  1280x1024@60Hz 5:4 HorFreq: 64000 Hz Clock: 108.000 MHz
  1440x900@60Hz 16:10 HorFreq: 55500 Hz Clock: 88.750 MHz
  1440x900@75Hz 16:10 HorFreq: 82300 Hz Clock: 156.000 MHz
  1600x1000@60Hz 16:10
  1680x1050@60Hz 16:10 HorFreq: 64700 Hz Clock: 119.000 MHz
Detailed mode: Clock 119.000 MHz, 473 mm x 296 mm
               1680 1728 1760 1840 hborder 0
               1050 1053 1059 1080 vborder 0
               +hsync -vsync 
               VertFreq: 59 Hz, HorFreq: 64673 Hz
Monitor name: L2240pwD
Monitor ranges (GTF): 50-75Hz V, 30-75kHz H, max dotclock 150MHz
Serial number: --
Checksum: 0x92 (valid)
EDID block does NOT conform to EDID 1.3!
	sRGB is signaled, but the chromaticities do not match
One or more of the timings is out of range of the Monitor Ranges:
  Vertical Freq: 59 - 75 Hz
  Horizontal Freq: 31469 - 82300 Hz
  Maximum Clock: 156.000 MHz
