
EDID (hex):
00ffffffffffff0030e49a0300000000
00160104902213780225b5a159599d27
1c505400000001010101010101010101
010101010101343a802071382c403048
350058c2100000180000000000000000
00000000000000000000000000fe004c
4720446973706c61790a2020000000fe
004c503135365746342d534c43310010

Extracted contents:
header:          00 ff ff ff ff ff ff 00
serial number:   30 e4 9a 03 00 00 00 00 00 16
version:         01 04
basic params:    90 22 13 78 02
chroma info:     25 b5 a1 59 59 9d 27 1c 50 54
established:     00 00 00
standard:        01 01 01 01 01 01 01 01 01 01 01 01 01 01 01 01
descriptor 1:    34 3a 80 20 71 38 2c 40 30 48 35 00 58 c2 10 00 00 18
descriptor 2:    00 00 00 00 00 00 00 00 00 00 00 00 00 00 00 00 00 00
descriptor 3:    00 00 00 fe 00 4c 47 20 44 69 73 70 6c 61 79 0a 20 20
descriptor 4:    00 00 00 fe 00 4c 50 31 35 36 57 46 34 2d 53 4c 43 31
extensions:      00
checksum:        10

EDID version: 1.4
Manufacturer: LGD Model 39a Serial Number --
Made in year 2012
Digital display
6 bits per primary color channel
Digital interface is not defined
Maximum image size: 34 cm x 19 cm
Gamma: 2.20
Supported color formats: RGB 4:4:4
First detailed timing includes the native pixel format and preferred refresh rate
Display x,y Chromaticity:
  Red:   0.6289, 0.3496
  Green: 0.3486, 0.6142
  Blue:  0.1542, 0.1123
  White: 0.3134, 0.3291
Established timings supported:
Standard timings supported:
Detailed mode: Clock 149.000 MHz, 344 mm x 194 mm
               1920 1968 2040 2208 hborder 0
               1080 1083 1088 1124 vborder 0
               -hsync -vsync 
               VertFreq: 60 Hz, HorFreq: 67481 Hz
Manufacturer-specified data, tag 0
ASCII string: LG Display
ASCII string: LP156WF4-SLC1
Checksum: 0x10 (valid)
EDID block does NOT conform to EDID 1.4!
	Missing name descriptor
	Missing monitor ranges
