
EDID (hex):
00ffffffffffff002270421a01010101
1d15010380361f78ea8215a4564f9d24
125054bfef80d1c0b300a94095009040
81808140714f023a801871382d40582c
45001f312100001e000000fc00484632
3535440a202020202020000000fd0038
4b185311000a202020202020000000ff
003132393741334c59303033303400f0

Extracted contents:
header:          00 ff ff ff ff ff ff 00
serial number:   22 70 42 1a 01 01 01 01 1d 15
version:         01 03
basic params:    80 36 1f 78 ea
chroma info:     82 15 a4 56 4f 9d 24 12 50 54
established:     bf ef 80
standard:        d1 c0 b3 00 a9 40 95 00 90 40 81 80 81 40 71 4f
descriptor 1:    02 3a 80 18 71 38 2d 40 58 2c 45 00 1f 31 21 00 00 1e
descriptor 2:    00 00 00 fc 00 48 46 32 35 35 44 0a 20 20 20 20 20 20
descriptor 3:    00 00 00 fd 00 38 4b 18 53 11 00 0a 20 20 20 20 20 20
descriptor 4:    00 00 00 ff 00 31 32 39 37 41 33 4c 59 30 30 33 30 34
extensions:      00
checksum:        f0

EDID version: 1.3
Manufacturer: HSP Model 1a42 Serial Number --
Made in week 29 of 2011
Digital display
Maximum image size: 54 cm x 31 cm
Gamma: 2.20
DPMS levels: Standby Suspend Off
RGB color display
First detailed timing is preferred timing
Display x,y Chromaticity:
  Red:   0.6425, 0.3359
  Green: 0.3085, 0.6152
  Blue:  0.1406, 0.0712
  White: 0.3134, 0.3291
Established timings supported:
  720x400@70Hz 9:5 HorFreq: 31469 Hz Clock: 28.320 MHz
  640x480@60Hz 4:3 HorFreq: 31469 Hz Clock: 25.175 MHz
  640x480@67Hz 4:3 HorFreq: 35000 Hz Clock: 30.240 MHz
  640x480@72Hz 4:3 HorFreq: 37900 Hz Clock: 31.500 MHz
  640x480@75Hz 4:3 HorFreq: 37500 Hz Clock: 31.500 MHz
  800x600@56Hz 4:3 HorFreq: 35200 Hz Clock: 36.000 MHz
  800x600@60Hz 4:3 HorFreq: 37900 Hz Clock: 40.000 MHz
  800x600@72Hz 4:3 HorFreq: 48100 Hz Clock: 50.000 MHz
  800x600@75Hz 4:3 HorFreq: 46900 Hz Clock: 49.500 MHz
  832x624@75Hz 4:3 HorFreq: 49726 Hz Clock: 57.284 MHz
  1024x768@60Hz 4:3 HorFreq: 48400 Hz Clock: 65.000 MHz
  1024x768@70Hz 4:3 HorFreq: 56500 Hz Clock: 75.000 MHz
  1024x768@75Hz 4:3 HorFreq: 60000 Hz Clock: 78.750 MHz
  1280x1024@75Hz 5:4 HorFreq: 80000 Hz Clock: 135.000 MHz
  1152x870@75Hz 192:145 HorFreq: 67500 Hz Clock: 108.000 MHz
Standard timings supported:
  1920x1080@60Hz 16:9
  1680x1050@60Hz 16:10 HorFreq: 64700 Hz Clock: 119.000 MHz
  1600x1200@60Hz 4:3 HorFreq: 75000 Hz Clock: 162.000 MHz
  1440x900@60Hz 16:10 HorFreq: 55500 Hz Clock: 88.750 MHz
  1400x1050@60Hz 4:3 HorFreq: 64700 Hz Clock: 101.000 MHz
  1280x1024@60Hz 5:4 HorFreq: 64000 Hz Clock: 108.000 MHz
  1280x960@60Hz 4:3 HorFreq: 60000 Hz Clock: 108.000 MHz
  1152x864@75Hz 4:3 HorFreq: 67500 Hz Clock: 108.000 MHz
Detailed mode: Clock 148.500 MHz, 543 mm x 305 mm
               1920 2008 2052 2200 hborder 0
               1080 1084 1089 1125 vborder 0
               +hsync +vsync 
               VertFreq: 60 Hz, HorFreq: 67500 Hz
Monitor name: HF255D
Monitor ranges (GTF): 56-75Hz V, 24-83kHz H, max dotclock 170MHz
Serial number: --
Checksum: 0xf0 (valid)
