
EDID (hex):
00ffffffffffff000e14b90b00000000
260e0102801e17780af21098544f9327
224f5300000001010101010101010101
01010101010164190028410023301888
360030e4100000180000000f00004402
940003001126a0021300000000fe0043
50540a202020202020202020000000fe
00434c4141313530584830310a2000e5

Extracted contents:
header:          00 ff ff ff ff ff ff 00
serial number:   0e 14 b9 0b 00 00 00 00 26 0e
version:         01 02
basic params:    80 1e 17 78 0a
chroma info:     f2 10 98 54 4f 93 27 22 4f 53
established:     00 00 00
standard:        01 01 01 01 01 01 01 01 01 01 01 01 01 01 01 01
descriptor 1:    64 19 00 28 41 00 23 30 18 88 36 00 30 e4 10 00 00 18
descriptor 2:    00 00 00 0f 00 00 44 02 94 00 03 00 11 26 a0 02 13 00
descriptor 3:    00 00 00 fe 00 43 50 54 0a 20 20 20 20 20 20 20 20 20
descriptor 4:    00 00 00 fe 00 43 4c 41 41 31 35 30 58 48 30 31 0a 20
extensions:      00
checksum:        e5

EDID version: 1.2
Manufacturer: CPT Model bb9 Serial Number --
Digital display
Maximum image size: 30 cm x 23 cm
Gamma: 2.20
RGB color display
First detailed timing is preferred timing
Display x,y Chromaticity:
  Red:   0.5966, 0.3310
  Green: 0.3085, 0.5761
  Blue:  0.1523, 0.1337
  White: 0.3085, 0.3242
Established timings supported:
Standard timings supported:
Detailed mode: Clock 65.000 MHz, 304 mm x 228 mm
               1024 1048 1184 1320 hborder 0
                768  771  777  803 vborder 0
               -hsync -vsync 
               VertFreq: 61 Hz, HorFreq: 49242 Hz
Manufacturer-specified data, tag 15
ASCII string: CPT
ASCII string: CLAA150XH01
Checksum: 0xe5 (valid)
EDID block does not conform at all!
	Bad year of manufacture
