edid-decode (hex):

00 ff ff ff ff ff ff 00 1e f9 2d 23 82 0f 00 00
14 0c 01 03 1c 24 1b b0 e8 7c 59 a3 53 47 9a 24
10 48 4c e5 6b 00 01 01 01 01 01 01 61 40 31 4f
3b ca 01 01 a9 4f 1a 4f 40 30 62 b0 32 40 40 c0
10 00 5e 06 11 00 00 1e 00 00 00 fd 00 32 a0 1e
61 15 00 0a 20 20 20 20 20 20 00 00 00 fc 00 47
61 74 65 77 61 79 20 56 58 39 33 30 00 00 00 fc
00 0a 20 20 20 20 20 20 20 20 20 20 20 20 00 22

----------------

Block 0, Base EDID:
  EDID Structure Version & Revision: 1.3
  Vendor & Product Identification:
    Manufacturer: GWY
    Model: 9005
    Serial Number: ...
    Made in: week 20 of 2002
  Basic Display Parameters & Features:
    Analog display
    Input voltage level: 0.7/0.3 V
    Configurable signal levels
    Sync: Separate Composite
    Maximum image size: 36 cm x 27 cm
    Gamma: 2.76
    DPMS levels: Standby Suspend Off
    RGB color display
  Color Characteristics:
    Red  : 0.6376, 0.3271
    Green: 0.2802, 0.6015
    Blue : 0.1416, 0.0634
    White: 0.2832, 0.2978
  Established Timings I & II:
    IBM     :   720x400    70.082 Hz   9:5    31.467 kHz  28.320 MHz
    IBM     :   720x400    87.850 Hz   9:5    39.444 kHz  35.500 MHz
    DMT 0x04:   640x480    59.940 Hz   4:3    31.469 kHz  25.175 MHz
    DMT 0x06:   640x480    75.000 Hz   4:3    37.500 kHz  31.500 MHz
    DMT 0x09:   800x600    60.317 Hz   4:3    37.879 kHz  40.000 MHz
    DMT 0x0b:   800x600    75.000 Hz   4:3    46.875 kHz  49.500 MHz
    Apple   :   832x624    74.551 Hz   4:3    49.726 kHz  57.284 MHz
    DMT 0x10:  1024x768    60.004 Hz   4:3    48.363 kHz  65.000 MHz
    DMT 0x12:  1024x768    75.029 Hz   4:3    60.023 kHz  78.750 MHz
    DMT 0x24:  1280x1024   75.025 Hz   5:4    79.976 kHz 135.000 MHz
  Standard Timings:
    DMT 0x10:  1024x768    60.004 Hz   4:3    48.363 kHz  65.000 MHz
    DMT 0x06:   640x480    75.000 Hz   4:3    37.500 kHz  31.500 MHz
    GTF     :   720x408    70.000 Hz  16:9    29.750 kHz  26.656 MHz
    DMT 0x36:  1600x1200   75.000 Hz   4:3    93.750 kHz 202.500 MHz
  Detailed Timing Descriptors:
    DTD 1:  1600x1200   75.000 Hz   4:3    93.750 kHz 202.500 MHz (350 mm x 262 mm)
                 Hfront   64 Hsync 192 Hback 304 Hpol P
                 Vfront    1 Vsync   0 Vback  49 Vpol P
                   1a 4f 40 30 62 b0 32 40 40 c0 10 00 5e 06 11 00 00 1e '.O@0b.2@@...^.....'
  Display Range Limits:
    Monitor ranges (GTF): 50-160 Hz V, 30-97 kHz H, max dotclock 210 MHz
    Display Product Name: 'Gateway VX930'
    Display Product Name: ''
Checksum: 0x22
