
EDID (hex):
00ffffffffffff002163002001000000
12150103002c1978ca0010a057499b26
10484cadcf00614c8180818a818c0101
010101010101ab22a0a050841a303020
3600c7001100001a302a40c860846430
18501300b4f51000001a000000ff0000
0a2020202020202020202020000000fc
00000a20202020202020202020200016

Extracted contents:
header:          00 ff ff ff ff ff ff 00
serial number:   21 63 00 20 01 00 00 00 12 15
version:         01 03
basic params:    00 2c 19 78 ca
chroma info:     00 10 a0 57 49 9b 26 10 48 4c
established:     ad cf 00
standard:        61 4c 81 80 81 8a 81 8c 01 01 01 01 01 01 01 01
descriptor 1:    ab 22 a0 a0 50 84 1a 30 30 20 36 00 c7 00 11 00 00 1a
descriptor 2:    30 2a 40 c8 60 84 64 30 18 50 13 00 b4 f5 10 00 00 1a
descriptor 3:    00 00 00 ff 00 00 0a 20 20 20 20 20 20 20 20 20 20 20
descriptor 4:    00 00 00 fc 00 00 0a 20 20 20 20 20 20 20 20 20 20 20
extensions:      00
checksum:        16

EDID version: 1.3
Manufacturer: HKC Model 2000 Serial Number --
Made in week 18 of 2011
Analog display, Input voltage level: 0.7/0.3 V
Sync: 
Maximum image size: 44 cm x 25 cm
Gamma: 2.20
DPMS levels: Standby Suspend
RGB color display
First detailed timing is preferred timing
Display x,y Chromaticity:
  Red:   0.6250, 0.3398
  Green: 0.2851, 0.6054
  Blue:  0.1484, 0.0634
  White: 0.2812, 0.2968
Established timings supported:
  720x400@70Hz 9:5 HorFreq: 31469 Hz Clock: 28.320 MHz
  640x480@60Hz 4:3 HorFreq: 31469 Hz Clock: 25.175 MHz
  640x480@72Hz 4:3 HorFreq: 37900 Hz Clock: 31.500 MHz
  640x480@75Hz 4:3 HorFreq: 37500 Hz Clock: 31.500 MHz
  800x600@60Hz 4:3 HorFreq: 37900 Hz Clock: 40.000 MHz
  800x600@72Hz 4:3 HorFreq: 48100 Hz Clock: 50.000 MHz
  800x600@75Hz 4:3 HorFreq: 46900 Hz Clock: 49.500 MHz
  1024x768@60Hz 4:3 HorFreq: 48400 Hz Clock: 65.000 MHz
  1024x768@70Hz 4:3 HorFreq: 56500 Hz Clock: 75.000 MHz
  1024x768@75Hz 4:3 HorFreq: 60000 Hz Clock: 78.750 MHz
  1280x1024@75Hz 5:4 HorFreq: 80000 Hz Clock: 135.000 MHz
Standard timings supported:
  1024x768@72Hz 4:3
  1280x1024@60Hz 5:4 HorFreq: 64000 Hz Clock: 108.000 MHz
  1280x1024@70Hz 5:4
  1280x1024@72Hz 5:4
Detailed mode: Clock 88.750 MHz, 455 mm x 256 mm
               1440 1488 1520 1600 hborder 0
                900  903  909  926 vborder 0
               +hsync -vsync 
               VertFreq: 59 Hz, HorFreq: 55468 Hz
Detailed mode: Clock 108.000 MHz, 436 mm x 245 mm
               1600 1624 1704 1800 hborder 0
                900  901  904 1000 vborder 0
               +hsync -vsync 
               VertFreq: 60 Hz, HorFreq: 60000 Hz
Serial number: 
-- 0x16 (valid)
EDID block does NOT conform to EDID 1.3!
	Name descriptor not terminated with a newline
	Missing monitor ranges
	Detailed block string not properly terminated
