
EDID (hex):
00ffffffffffff0025d8017800000000
191e0104a519117802decba35a559e27
0c4c5000000001010101010101010101
0101010101017a5070a080a028503020
3a00fea9000000180000000000000000
00000000000000000000000000000000
000000000000000000005e61000000fc
00503132305a44472d4246340a0a0058

Extracted contents:
header:          00 ff ff ff ff ff ff 00
serial number:   25 d8 01 78 00 00 00 00 19 1e
version:         01 04
basic params:    a5 19 11 78 02
chroma info:     de cb a3 5a 55 9e 27 0c 4c 50
established:     00 00 00
standard:        01 01 01 01 01 01 01 01 01 01 01 01 01 01 01 01
descriptor 1:    7a 50 70 a0 80 a0 28 50 30 20 3a 00 fe a9 00 00 00 18
descriptor 2:    00 00 00 00 00 00 00 00 00 00 00 00 00 00 00 00 00 00
descriptor 3:    00 00 00 00 00 00 00 00 00 00 00 00 00 00 00 00 5e 61
descriptor 4:    00 00 00 fc 00 50 31 32 30 5a 44 47 2d 42 46 34 0a 0a
extensions:      00
checksum:        58

EDID version: 1.4
Manufacturer: INX Model 7801 Serial Number --
Made in week 25 of 2020
Digital display
8 bits per primary color channel
DisplayPort interface
Maximum image size: 25 cm x 17 cm
Gamma: 2.20
Supported color formats: RGB 4:4:4
First detailed timing includes the native pixel format and preferred refresh rate
Display x,y Chromaticity:
  Red:   0.6396, 0.3525
  Green: 0.3349, 0.6191
  Blue:  0.1552, 0.0468
  White: 0.2988, 0.3154
Established timings supported:
Standard timings supported:
Detailed mode: Clock 206.020 MHz, 254 mm x 169 mm
               2160 2208 2240 2320 hborder 0
               1440 1443 1453 1480 vborder 0
               -hsync -vsync 
               VertFreq: 60 Hz, HorFreq: 88801 Hz
Manufacturer-specified data, tag 0
Manufacturer-specified data, tag 0
Monitor name: P120ZDG-BF4
Checksum: 0x58 (valid)
EDID block does NOT conform to EDID 1.4!
	Missing monitor ranges
	Detailed block string not properly terminated
