
EDID (hex):
00ffffffffffff0059258020502d3101
24150103802c19782ac905a3574b9c25
125054254b00950081808bc001010101
0101010101017c2e401062841c3060a8
1300bbf91000001e9a29a0d051842230
50983600bbf91000001c000000fd0038
4b1e510e000a202020202020000000fc
00533230570a0a0a0a0a0a0a0a0a0006

Extracted contents:
header:          00 ff ff ff ff ff ff 00
serial number:   59 25 80 20 50 2d 31 01 24 15
version:         01 03
basic params:    80 2c 19 78 2a
chroma info:     c9 05 a3 57 4b 9c 25 12 50 54
established:     25 4b 00
standard:        95 00 81 80 8b c0 01 01 01 01 01 01 01 01 01 01
descriptor 1:    7c 2e 40 10 62 84 1c 30 60 a8 13 00 bb f9 10 00 00 1e
descriptor 2:    9a 29 a0 d0 51 84 22 30 50 98 36 00 bb f9 10 00 00 1c
descriptor 3:    00 00 00 fd 00 38 4b 1e 51 0e 00 0a 20 20 20 20 20 20
descriptor 4:    00 00 00 fc 00 53 32 30 57 0a 0a 0a 0a 0a 0a 0a 0a 0a
extensions:      00
checksum:        06

EDID version: 1.3
Manufacturer: VIE Model 2080 Serial Number --
Made in week 36 of 2011
Digital display
Maximum image size: 44 cm x 25 cm
Gamma: 2.20
DPMS levels: Off
RGB color display
First detailed timing is preferred timing
Display x,y Chromaticity:
  Red:   0.6396, 0.3398
  Green: 0.2949, 0.6103
  Blue:  0.1445, 0.0703
  White: 0.3134, 0.3291
Established timings supported:
  640x480@60Hz 4:3 HorFreq: 31469 Hz Clock: 25.175 MHz
  640x480@75Hz 4:3 HorFreq: 37500 Hz Clock: 31.500 MHz
  800x600@60Hz 4:3 HorFreq: 37900 Hz Clock: 40.000 MHz
  800x600@75Hz 4:3 HorFreq: 46900 Hz Clock: 49.500 MHz
  1024x768@60Hz 4:3 HorFreq: 48400 Hz Clock: 65.000 MHz
  1024x768@75Hz 4:3 HorFreq: 60000 Hz Clock: 78.750 MHz
  1280x1024@75Hz 5:4 HorFreq: 80000 Hz Clock: 135.000 MHz
Standard timings supported:
  1440x900@60Hz 16:10 HorFreq: 55500 Hz Clock: 88.750 MHz
  1280x1024@60Hz 5:4 HorFreq: 64000 Hz Clock: 108.000 MHz
  1360x765@60Hz 16:9
Detailed mode: Clock 119.000 MHz, 443 mm x 249 mm
               1600 1696 1864 2128 hborder 0
                900  901  904  928 vborder 0
               +hsync +vsync 
               VertFreq: 60 Hz, HorFreq: 55921 Hz
Detailed mode: Clock 106.500 MHz, 443 mm x 249 mm
               1440 1520 1672 1904 hborder 0
                900  903  909  934 vborder 0
               -hsync +vsync 
               VertFreq: 59 Hz, HorFreq: 55934 Hz
Monitor ranges (GTF): 56-75Hz V, 30-81kHz H, max dotclock 140MHz
Monitor name: S20W
Checksum: 0x6 (valid)
EDID block does NOT conform to EDID 1.3!
	Detailed block string not properly terminated
