
EDID (hex):
00ffffffffffff0006af9d1500000000
0015010490261578027625a3544d9c26
0e505400000001010101010101010101
010101010101a03780ae703834406c30
aa007dd610000018152580ae70383440
6c30aa007dd610000018000000fe0041
554f0a202020202020202020000000fe
004231373348573031205635200a00f9

Extracted contents:
header:          00 ff ff ff ff ff ff 00
serial number:   06 af 9d 15 00 00 00 00 00 15
version:         01 04
basic params:    90 26 15 78 02
chroma info:     76 25 a3 54 4d 9c 26 0e 50 54
established:     00 00 00
standard:        01 01 01 01 01 01 01 01 01 01 01 01 01 01 01 01
descriptor 1:    a0 37 80 ae 70 38 34 40 6c 30 aa 00 7d d6 10 00 00 18
descriptor 2:    15 25 80 ae 70 38 34 40 6c 30 aa 00 7d d6 10 00 00 18
descriptor 3:    00 00 00 fe 00 41 55 4f 0a 20 20 20 20 20 20 20 20 20
descriptor 4:    00 00 00 fe 00 42 31 37 33 48 57 30 31 20 56 35 20 0a
extensions:      00
checksum:        f9

EDID version: 1.4
Manufacturer: AUO Model 159d Serial Number --
Made in year 2011
Digital display
6 bits per primary color channel
Digital interface is not defined
Maximum image size: 38 cm x 21 cm
Gamma: 2.20
Supported color formats: RGB 4:4:4
First detailed timing includes the native pixel format and preferred refresh rate
Display x,y Chromaticity:
  Red:   0.6376, 0.3310
  Green: 0.3017, 0.6113
  Blue:  0.1484, 0.0566
  White: 0.3134, 0.3291
Established timings supported:
Standard timings supported:
Detailed mode: Clock 142.400 MHz, 381 mm x 214 mm
               1920 2028 2076 2094 hborder 0
               1080 1090 1100 1132 vborder 0
               -hsync -vsync 
               VertFreq: 60 Hz, HorFreq: 68003 Hz
Detailed mode: Clock 94.930 MHz, 381 mm x 214 mm
               1920 2028 2076 2094 hborder 0
               1080 1090 1100 1132 vborder 0
               -hsync -vsync 
               VertFreq: 40 Hz, HorFreq: 45334 Hz
ASCII string: AUO
ASCII string: B173HW01 V5 
Checksum: 0xf9 (valid)
EDID block does NOT conform to EDID 1.4!
	Missing name descriptor
	Missing monitor ranges
