
EDID (hex):
00ffffffffffff0030e4e80500000000
001c0104a5221378eae085a3544e9b26
0e505400000001010101010101010101
0101010101015e8780a070384d403020
350058c21000001b5e8780a07038a046
3020350058c21000001b000000fe004c
4720446973706c61790a2020000000fe
004c503135365746472d5350423200eb

Extracted contents:
header:          00 ff ff ff ff ff ff 00
serial number:   30 e4 e8 05 00 00 00 00 00 1c
version:         01 04
basic params:    a5 22 13 78 ea
chroma info:     e0 85 a3 54 4e 9b 26 0e 50 54
established:     00 00 00
standard:        01 01 01 01 01 01 01 01 01 01 01 01 01 01 01 01
descriptor 1:    5e 87 80 a0 70 38 4d 40 30 20 35 00 58 c2 10 00 00 1b
descriptor 2:    5e 87 80 a0 70 38 a0 46 30 20 35 00 58 c2 10 00 00 1b
descriptor 3:    00 00 00 fe 00 4c 47 20 44 69 73 70 6c 61 79 0a 20 20
descriptor 4:    00 00 00 fe 00 4c 50 31 35 36 57 46 47 2d 53 50 42 32
extensions:      00
checksum:        eb

EDID version: 1.4
Manufacturer: LGD Model 5e8 Serial Number --
Made in year 2018
Digital display
8 bits per primary color channel
DisplayPort interface
Maximum image size: 34 cm x 19 cm
Gamma: 2.20
DPMS levels: Standby Suspend Off
Supported color formats: RGB 4:4:4, YCrCb 4:4:4
First detailed timing includes the native pixel format and preferred refresh rate
Display x,y Chromaticity:
  Red:   0.6396, 0.3300
  Green: 0.3046, 0.6054
  Blue:  0.1503, 0.0546
  White: 0.3134, 0.3291
Established timings supported:
Standard timings supported:
Detailed mode: Clock 346.540 MHz, 344 mm x 194 mm
               1920 1968 2000 2080 hborder 0
               1080 1083 1088 1157 vborder 0
               +hsync -vsync 
               VertFreq: 143 Hz, HorFreq: 166605 Hz
Detailed mode: Clock 346.540 MHz, 344 mm x 194 mm
               1920 1968 2000 2080 hborder 0
               1080 1083 1088 2776 vborder 0
               +hsync -vsync 
               VertFreq: 60 Hz, HorFreq: 166605 Hz
ASCII string: LG Display
ASCII string: LP156WFG-SPB2
Checksum: 0xeb (valid)
EDID block does NOT conform to EDID 1.4!
	Missing name descriptor
	Missing monitor ranges
