edid-decode (hex):

00 ff ff ff ff ff ff 00 06 af 25 00 01 01 01 01
30 14 01 03 80 35 1e 78 0a 0f 15 9a 56 4b 8b 26
20 50 54 00 00 00 d1 c0 01 01 01 01 01 01 01 01
01 01 01 01 01 01 80 70 80 b4 70 38 40 40 78 28
8c 04 13 2b 21 00 00 18 40 38 80 b4 70 38 40 40
28 50 36 00 13 2b 21 00 00 18 00 00 00 00 00 00
00 00 00 00 00 00 00 00 00 00 00 00 00 00 00 fe
00 4d 32 34 30 48 57 30 32 20 56 35 0a 20 00 75

----------------

Block 0, Base EDID:
  EDID Structure Version & Revision: 1.3
  Vendor & Product Identification:
    Manufacturer: AUO
    Model: 37
    Serial Number: ...
    Made in: week 48 of 2010
  Basic Display Parameters & Features:
    Digital display
    Maximum image size: 53 cm x 30 cm
    Gamma: 2.20
    RGB color display
    First detailed timing is the preferred timing
  Color Characteristics:
    Red  : 0.6015, 0.3359
    Green: 0.2958, 0.5458
    Blue : 0.1484, 0.1259
    White: 0.3134, 0.3291
  Established Timings I & II: none
  Standard Timings:
    DMT 0x52:  1920x1080   60.000 Hz  16:9    67.500 kHz 148.500 MHz
  Detailed Timing Descriptors:
    DTD 1:  1920x1080  119.880 Hz  16:9   137.143 kHz 288.000 MHz (531 mm x 299 mm)
                 Hfront  120 Hsync  40 Hback  20 Hpol N
                 Vfront   24 Vsync  12 Vback  28 Vpol N
    DTD 2:  1920x1080   59.940 Hz  16:9    68.571 kHz 144.000 MHz (531 mm x 299 mm)
                 Hfront   40 Hsync  80 Hback  60 Hpol N
                 Vfront    3 Vsync   6 Vback  55 Vpol N
    Empty Descriptor
    Alphanumeric Data String: 'M240HW02 V5'
Checksum: 0x75

----------------

Failures:

Block 0, Base EDID:
  Empty Descriptor: Use Dummy Descriptor instead of all zeroes.
  Missing Display Product Name.
  Missing Display Range Limits Descriptor.

EDID conformity: FAIL
