
EDID (hex):
00ffffffffffff003870640000000000
011c0104952213780211c1985c578c28
1b4e5200000001010101010101010101
0101010101012a3680a070381f403020
350058c21000001a0000000000000000
0000000000000000001a000000fe0043
45432050414e444120202020000000fe
004c4d3135364c46354c3033200a00ee

Extracted contents:
header:          00 ff ff ff ff ff ff 00
serial number:   38 70 64 00 00 00 00 00 01 1c
version:         01 04
basic params:    95 22 13 78 02
chroma info:     11 c1 98 5c 57 8c 28 1b 4e 52
established:     00 00 00
standard:        01 01 01 01 01 01 01 01 01 01 01 01 01 01 01 01
descriptor 1:    2a 36 80 a0 70 38 1f 40 30 20 35 00 58 c2 10 00 00 1a
descriptor 2:    00 00 00 00 00 00 00 00 00 00 00 00 00 00 00 00 00 1a
descriptor 3:    00 00 00 fe 00 43 45 43 20 50 41 4e 44 41 20 20 20 20
descriptor 4:    00 00 00 fe 00 4c 4d 31 35 36 4c 46 35 4c 30 33 20 0a
extensions:      00
checksum:        ee

EDID version: 1.4
Manufacturer: NCP Model 64 Serial Number --
Made in week 1 of 2018
Digital display
6 bits per primary color channel
DisplayPort interface
Maximum image size: 34 cm x 19 cm
Gamma: 2.20
Supported color formats: RGB 4:4:4
First detailed timing includes the native pixel format and preferred refresh rate
Display x,y Chromaticity:
  Red:   0.5937, 0.3603
  Green: 0.3398, 0.5478
  Blue:  0.1591, 0.1054
  White: 0.3046, 0.3212
Established timings supported:
Standard timings supported:
Detailed mode: Clock 138.660 MHz, 344 mm x 194 mm
               1920 1968 2000 2080 hborder 0
               1080 1083 1088 1111 vborder 0
               +hsync -vsync 
               VertFreq: 60 Hz, HorFreq: 66663 Hz
Manufacturer-specified data, tag 0
ASCII string: CEC PANDA    
ASCII string: LM156LF5L03 
Checksum: 0xee (valid)
EDID block does NOT conform to EDID 1.4!
	Missing name descriptor
	Missing monitor ranges


