
EDID (hex):
00ffffffffffff003870640000000000
011b0104951d117802aa7095625c9229
1e505400000001010101010101010101
0101010101012e3680a070381f403020
350058c21000001a522b80a070381f40
3020350058c21000001a000000000000
00000000000000000000000000000002
000c3dff0c3c7d0f112403000000008b

Extracted contents:
header:          00 ff ff ff ff ff ff 00
serial number:   38 70 64 00 00 00 00 00 01 1b
version:         01 04
basic params:    95 1d 11 78 02
chroma info:     aa 70 95 62 5c 92 29 1e 50 54
established:     00 00 00
standard:        01 01 01 01 01 01 01 01 01 01 01 01 01 01 01 01
descriptor 1:    2e 36 80 a0 70 38 1f 40 30 20 35 00 58 c2 10 00 00 1a
descriptor 2:    52 2b 80 a0 70 38 1f 40 30 20 35 00 58 c2 10 00 00 1a
descriptor 3:    00 00 00 00 00 00 00 00 00 00 00 00 00 00 00 00 00 00
descriptor 4:    00 00 00 02 00 0c 3d ff 0c 3c 7d 0f 11 24 03 00 00 00
extensions:      00
checksum:        8b

EDID version: 1.4
Manufacturer: NCP Model 64 Serial Number --
Made in week 1 of 2017
Digital display
6 bits per primary color channel
DisplayPort interface
Maximum image size: 29 cm x 17 cm
Gamma: 2.20
Supported color formats: RGB 4:4:4
First detailed timing includes the native pixel format and preferred refresh rate
Display x,y Chromaticity:
  Red:   0.5839, 0.3847
  Green: 0.3613, 0.5722
  Blue:  0.1611, 0.1201
  White: 0.3125, 0.3281
Established timings supported:
Standard timings supported:
Detailed mode: Clock 138.700 MHz, 344 mm x 194 mm
               1920 1968 2000 2080 hborder 0
               1080 1083 1088 1111 vborder 0
               +hsync -vsync 
               VertFreq: 60 Hz, HorFreq: 66682 Hz
Detailed mode: Clock 110.900 MHz, 344 mm x 194 mm
               1920 1968 2000 2080 hborder 0
               1080 1083 1088 1111 vborder 0
               +hsync -vsync 
               VertFreq: 47 Hz, HorFreq: 53317 Hz
Manufacturer-specified data, tag 0
Manufacturer-specified data, tag 2
Checksum: 0x8b (valid)
EDID block does NOT conform to EDID 1.4!
	Missing name descriptor
	Missing monitor ranges
