
EDID (hex):
00ffffffffffff0026cfb20400000000
001b0104a51911780ac130a356519a27
0e505400000001010101010101010101
010101010101875070a080a029503020
3a00fea9000000196c4070a080a02950
30203a00fea900000019000000fe0049
6e666f566973696f6e0a2020000000fe
004d3132304e4e3432205230200a00cb

Extracted contents:
header:          00 ff ff ff ff ff ff 00
serial number:   26 cf b2 04 00 00 00 00 00 1b
version:         01 04
basic params:    a5 19 11 78 0a
chroma info:     c1 30 a3 56 51 9a 27 0e 50 54
established:     00 00 00
standard:        01 01 01 01 01 01 01 01 01 01 01 01 01 01 01 01
descriptor 1:    87 50 70 a0 80 a0 29 50 30 20 3a 00 fe a9 00 00 00 19
descriptor 2:    6c 40 70 a0 80 a0 29 50 30 20 3a 00 fe a9 00 00 00 19
descriptor 3:    00 00 00 fe 00 49 6e 66 6f 56 69 73 69 6f 6e 0a 20 20
descriptor 4:    00 00 00 fe 00 4d 31 32 30 4e 4e 34 32 20 52 30 20 0a
extensions:      00
checksum:        cb

EDID version: 1.4
Manufacturer: IVO Model 4b2 Serial Number --
Made in year 2017
Digital display
8 bits per primary color channel
DisplayPort interface
Maximum image size: 25 cm x 17 cm
Gamma: 2.20
Supported color formats: RGB 4:4:4, YCrCb 4:4:4
First detailed timing includes the native pixel format and preferred refresh rate
Display x,y Chromaticity:
  Red:   0.6396, 0.3359
  Green: 0.3164, 0.6025
  Blue:  0.1523, 0.0576
  White: 0.3125, 0.3281
Established timings supported:
Standard timings supported:
Detailed mode: Clock 206.150 MHz, 254 mm x 169 mm
               2160 2208 2240 2320 hborder 0
               1440 1443 1453 1481 vborder 0
               -hsync -vsync 
               VertFreq: 59 Hz, HorFreq: 88857 Hz
Detailed mode: Clock 164.920 MHz, 254 mm x 169 mm
               2160 2208 2240 2320 hborder 0
               1440 1443 1453 1481 vborder 0
               -hsync -vsync 
               VertFreq: 47 Hz, HorFreq: 71086 Hz
ASCII string: InfoVision
ASCII string: M120NN42 R0 
Checksum: 0xcb (valid)
EDID block does NOT conform to EDID 1.4!
	Missing name descriptor
	Missing monitor ranges
