edid-decode (hex):

00 ff ff ff ff ff ff 00 26 cf b2 04 00 00 00 00
00 1b 01 04 a5 19 11 78 0a c1 30 a3 56 51 9a 27
0e 50 54 00 00 00 01 01 01 01 01 01 01 01 01 01
01 01 01 01 01 01 87 50 70 a0 80 a0 29 50 30 20
3a 00 fe a9 00 00 00 19 6c 40 70 a0 80 a0 29 50
30 20 3a 00 fe a9 00 00 00 19 00 00 00 fe 00 49
6e 66 6f 56 69 73 69 6f 6e 0a 20 20 00 00 00 fe
00 4d 31 32 30 4e 4e 34 32 20 52 30 20 0a 00 cb

----------------

Block 0, Base EDID:
  EDID Structure Version & Revision: 1.4
  Vendor & Product Identification:
    Manufacturer: IVO
    Model: 1202
    Made in: 2017
  Basic Display Parameters & Features:
    Digital display
    Bits per primary color channel: 8
    DisplayPort interface
    Maximum image size: 25 cm x 17 cm
    Gamma: 2.20
    Supported color formats: RGB 4:4:4, YCrCb 4:4:4
    First detailed timing includes the native pixel format and preferred refresh rate
  Color Characteristics:
    Red  : 0.6396, 0.3359
    Green: 0.3164, 0.6025
    Blue : 0.1523, 0.0576
    White: 0.3125, 0.3281
  Established Timings I & II: none
  Standard Timings: none
  Detailed Timing Descriptors:
    DTD 1:  2160x1440   59.998 Hz   3:2    88.858 kHz 206.150 MHz (254 mm x 169 mm)
                 Hfront   48 Hsync  32 Hback  80 Hpol N
                 Vfront    3 Vsync  10 Vback  28 Vpol N
    DTD 2:  2160x1440   47.999 Hz   3:2    71.086 kHz 164.920 MHz (254 mm x 169 mm)
                 Hfront   48 Hsync  32 Hback  80 Hpol N
                 Vfront    3 Vsync  10 Vback  28 Vpol N
    Alphanumeric Data String: 'InfoVision'
    Alphanumeric Data String: 'M120NN42 R0 '
Checksum: 0xcb

----------------

Failures:

Block 0, Base EDID:
  Alphanumeric Data String: One or more trailing spaces.
  Missing Display Product Name.

EDID conformity: FAIL
