edid-decode (hex):

00 ff ff ff ff ff ff 00 4c 83 01 43 00 00 00 00
28 22 01 04 b5 13 0c 78 03 3b d5 af 50 3d b6 23
0b 50 54 00 00 00 01 01 01 01 01 01 01 01 01 01
01 01 01 01 01 01 80 94 80 50 70 b0 78 40 20 08
88 0c be 77 00 00 00 1b 00 00 00 fd 00 1e 90 be
be 27 01 0a 20 20 20 20 20 20 00 00 00 fe 00 53
44 43 20 20 20 20 20 20 20 20 20 20 00 00 00 fc
00 41 4d 53 38 38 31 4b 42 30 31 2d 30 20 02 8d

02 03 23 00 e3 05 80 00 e6 06 05 01 8f 68 02 73
1a 00 00 03 0b 1e 90 00 a0 8f 02 68 02 90 00 00
00 00 8d 00 00 00 00 00 00 00 00 00 00 00 00 00
00 00 00 00 00 00 00 00 00 00 00 00 00 00 00 00
00 00 00 00 00 00 00 00 00 00 00 00 00 00 00 00
00 00 00 00 00 00 00 00 00 00 00 00 00 00 00 00
00 00 00 00 00 00 00 00 00 00 00 00 00 00 00 00
00 00 00 00 00 00 00 00 00 00 00 00 00 00 00 84

70 20 79 02 00 20 00 0c ba 41 59 01 43 00 00 00
00 28 18 00 21 00 1d 69 07 a2 04 80 07 b0 04 00
f2 aa 50 d7 d3 b6 3d 42 0b 02 45 54 6c 5f 4c 64
18 10 23 78 22 00 28 ff cc 05 85 7f 07 4f 00 1f
00 07 00 af 04 77 00 37 00 07 00 ff cc 05 05 7f
07 4f 00 1f 00 07 00 af 04 af 07 6f 07 07 00 2b
00 0c 27 00 1e 8f 00 00 27 00 1e 3b 00 00 2e 00
06 18 10 6c 5f 4c 64 00 00 00 00 00 00 00 09 90

00 ff ff ff ff ff ff 00 4c 83 01 43 00 00 00 00
28 22 01 04 b5 13 0c 78 03 3b d5 af 50 3d b6 23
0b 50 54 00 00 00 01 01 01 01 01 01 01 01 01 01
01 01 01 01 01 01 80 94 80 50 70 b0 78 40 20 08
88 0c be 77 00 00 00 1b 00 00 00 fd 00 1e 90 be
be 27 01 0a 20 20 20 20 20 20 00 00 00 fe 00 53
44 43 20 20 20 20 20 20 20 20 20 20 00 00 00 fc
00 41 4d 53 38 38 31 4b 42 30 31 2d 30 20 02 8d

02 03 23 00 e3 05 80 00 e6 06 05 01 8f 68 02 73
1a 00 00 03 0b 1e 90 00 a0 8f 02 68 02 90 00 00
00 00 8d 00 00 00 00 00 00 00 00 00 00 00 00 00
00 00 00 00 00 00 00 00 00 00 00 00 00 00 00 00
00 00 00 00 00 00 00 00 00 00 00 00 00 00 00 00
00 00 00 00 00 00 00 00 00 00 00 00 00 00 00 00
00 00 00 00 00 00 00 00 00 00 00 00 00 00 00 00
00 00 00 00 00 00 00 00 00 00 00 00 00 00 00 84

70 20 79 02 00 20 00 0c ba 41 59 01 43 00 00 00
00 28 18 00 21 00 1d 69 07 a2 04 80 07 b0 04 00
f2 aa 50 d7 d3 b6 3d 42 0b 02 45 54 6c 5f 4c 64
18 10 23 78 22 00 28 ff cc 05 85 7f 07 4f 00 1f
00 07 00 af 04 77 00 37 00 07 00 ff cc 05 05 7f
07 4f 00 1f 00 07 00 af 04 af 07 6f 07 07 00 2b
00 0c 27 00 1e 8f 00 00 27 00 1e 3b 00 00 2e 00
06 18 10 6c 5f 4c 64 00 00 00 00 00 00 00 09 90

----------------

Block 0, Base EDID:
  EDID Structure Version & Revision: 1.4
  Vendor & Product Identification:
    Manufacturer: SDC
    Model: 17153
    Made in: week 40 of 2024
  Basic Display Parameters & Features:
    Digital display
    Bits per primary color channel: 10
    DisplayPort interface
    Maximum image size: 19 cm x 12 cm
    Gamma: 2.20
    Supported color formats: RGB 4:4:4
    First detailed timing includes the native pixel format and preferred refresh rate
    Display is continuous frequency
  Color Characteristics:
    Red  : 0.6835, 0.3154
    Green: 0.2402, 0.7138
    Blue : 0.1396, 0.0439
    White: 0.3134, 0.3291
  Established Timings I & II: none
  Standard Timings: none
  Detailed Timing Descriptors:
    DTD 1:  1920x1200  144.000000 Hz  16:10   190.080 kHz    380.160000 MHz (190 mm x 119 mm)
                 Hfront   32 Hsync   8 Hback   40 Hpol P
                 Vfront   56 Vsync   8 Vback   56 Vpol N
    Display Range Limits:
      Monitor ranges (Bare Limits): 30-144 Hz V, 190-190 kHz H, max dotclock 390 MHz
    Alphanumeric Data String: 'SDC          '
    Display Product Name: 'AMS881KB01-0 '
  Extension blocks: 2
Checksum: 0x8d

----------------

Block 1, CTA-861 Extension Block:
  Revision: 3
  Native detailed modes: 0
  Colorimetry Data Block:
    BT2020RGB
  HDR Static Metadata Data Block:
    Electro optical transfer functions:
      Traditional gamma - SDR luminance range
      SMPTE ST2084
    Supported static metadata descriptors:
      Static metadata type 1
    Desired content max luminance: 143 (1107.128 cd/m^2)
    Desired content max frame-average luminance: 104 (475.683 cd/m^2)
    Desired content min luminance: 2 (0.001 cd/m^2)
  Vendor-Specific Data Block (AMD), OUI 00-00-1A:
    Version: 3.11
    Minimum Refresh Rate: 30 Hz
    Maximum Refresh Rate: 144 Hz
    Flags 1.x: 0x00
    Flags 2.x: 0xa0
    Maximum luminance: 143 (1107.128 cd/m^2)
    Minimum luminance: 2 (0.001 cd/m^2)
    Unknown: 0x68 0x02
Checksum: 0x84  Unused space in Extension Block: 92 bytes

----------------

Block 2, DisplayID Extension Block:
  Version: 2.0
  Extension Count: 0
  Display Product Primary Use Case: None of the listed primary use cases; generic display
  Product Identification Data Block (0x20), OUI BA-41-59:
    Product Code: 17153
    Year of Manufacture: 2024, Week 40
  Display Parameters Data Block (0x21):
    Image size: 189.7 mm x 118.6 mm
    Display native pixel format: 1920x1200
    Scan Orientation: Left to Right, Top to Bottom
    Luminance Information: Minimum guaranteed value
    Color Information: CIE 1931
    Audio Speaker Information: integrated
    Native Color Chromaticity:
      Primary #1:  (0.684082, 0.314941)
      Primary #2:  (0.239990, 0.714111)
      Primary #3:  (0.139893, 0.043945)
      White Point: (0.312988, 0.329102)
    Native Maximum Luminance (Full Coverage): 475.000000 cd/m^2
    Native Maximum Luminance (10% Rectangular Coverage): 1100.000000 cd/m^2
    Native Minimum Luminance: 0.000500 cd/m^2
    Native Color Depth: 12 bpc
    Display Device Technology: Organic LED
    Native Gamma EOTF: 2.20
  Video Timing Modes Type 7 - Detailed Timings Data Block:
    DTD:  1920x1200  144.000000 Hz  16:10   190.080 kHz    380.160000 MHz (aspect 16:10, no 3D stereo, preferred)
               Hfront   32 Hsync   8 Hback   40 Hpol N
               Vfront   56 Vsync   8 Vback   56 Vpol N
    DTD:  1920x1200   60.000000 Hz  16:10   190.080 kHz    380.160000 MHz (aspect 16:10, no 3D stereo)
               Hfront   32 Hsync   8 Hback   40 Hpol N
               Vfront 1904 Vsync   8 Vback   56 Vpol N
  Adaptive Sync Data Block:
    Descriptor #1:
      Native Panel Range
      Fixed Average V-Total and Adaptive V-Total
      'Max Single Frame Duration Increase' field value without jitter impact
      'Max Single Frame Duration Decrease' field value without jitter impact
      Max Duration Increase: 0.00 ms
      Max Duration Decrease: 0.00 ms
      Min Refresh Rate: 30 Hz
      Max Refresh Rate: 144 Hz
    Descriptor #2:
      Native Panel Range
      Fixed Average V-Total and Adaptive V-Total
      'Max Single Frame Duration Increase' field value without jitter impact
      'Max Single Frame Duration Decrease' field value without jitter impact
      Max Duration Increase: 0.00 ms
      Max Duration Decrease: 0.00 ms
      Min Refresh Rate: 30 Hz
      Max Refresh Rate: 60 Hz
  Unknown DisplayID Data Block (0x2e, length 6):
    18 10 6c 5f 4c 64                               '..l_Ld'
  Checksum: 0x09
Checksum: 0x90

----------------

Block 3, Unknown EDID Extension Block 0x00:
  00 ff ff ff ff ff ff 00 4c 83 01 43 00 00 00 00 '........L..C....'
  28 22 01 04 b5 13 0c 78 03 3b d5 af 50 3d b6 23 '(".....x.;..P=.#'
  0b 50 54 00 00 00 01 01 01 01 01 01 01 01 01 01 '.PT.............'
  01 01 01 01 01 01 80 94 80 50 70 b0 78 40 20 08 '.........Pp.x@ .'
  88 0c be 77 00 00 00 1b 00 00 00 fd 00 1e 90 be '...w............'
  be 27 01 0a 20 20 20 20 20 20 00 00 00 fe 00 53 '.'..      .....S'
  44 43 20 20 20 20 20 20 20 20 20 20 00 00 00 fc 'DC          ....'
  00 41 4d 53 38 38 31 4b 42 30 31 2d 30 20 02 8d '.AMS881KB01-0 ..'
Checksum: 0x8d

----------------

Block 4, CTA-861 Extension Block:
  Revision: 3
  Native detailed modes: 0
  Colorimetry Data Block:
    BT2020RGB
  HDR Static Metadata Data Block:
    Electro optical transfer functions:
      Traditional gamma - SDR luminance range
      SMPTE ST2084
    Supported static metadata descriptors:
      Static metadata type 1
    Desired content max luminance: 143 (1107.128 cd/m^2)
    Desired content max frame-average luminance: 104 (475.683 cd/m^2)
    Desired content min luminance: 2 (0.001 cd/m^2)
  Vendor-Specific Data Block (AMD), OUI 00-00-1A:
    Version: 3.11
    Minimum Refresh Rate: 30 Hz
    Maximum Refresh Rate: 144 Hz
    Flags 1.x: 0x00
    Flags 2.x: 0xa0
    Maximum luminance: 143 (1107.128 cd/m^2)
    Minimum luminance: 2 (0.001 cd/m^2)
    Unknown: 0x68 0x02
Checksum: 0x84  Unused space in Extension Block: 92 bytes

----------------

Block 5, DisplayID Extension Block:
  Version: 2.0
  Extension Count: 0
  Product Identification Data Block (0x20), OUI BA-41-59:
    Product Code: 17153
    Year of Manufacture: 2024, Week 40
  Display Parameters Data Block (0x21):
    Image size: 189.7 mm x 118.6 mm
    Display native pixel format: 1920x1200
    Scan Orientation: Left to Right, Top to Bottom
    Luminance Information: Minimum guaranteed value
    Color Information: CIE 1931
    Audio Speaker Information: integrated
    Native Color Chromaticity:
      Primary #1:  (0.684082, 0.314941)
      Primary #2:  (0.239990, 0.714111)
      Primary #3:  (0.139893, 0.043945)
      White Point: (0.312988, 0.329102)
    Native Maximum Luminance (Full Coverage): 475.000000 cd/m^2
    Native Maximum Luminance (10% Rectangular Coverage): 1100.000000 cd/m^2
    Native Minimum Luminance: 0.000500 cd/m^2
    Native Color Depth: 12 bpc
    Display Device Technology: Organic LED
    Native Gamma EOTF: 2.20
  Video Timing Modes Type 7 - Detailed Timings Data Block:
    DTD:  1920x1200  144.000000 Hz  16:10   190.080 kHz    380.160000 MHz (aspect 16:10, no 3D stereo, preferred)
               Hfront   32 Hsync   8 Hback   40 Hpol N
               Vfront   56 Vsync   8 Vback   56 Vpol N
    DTD:  1920x1200   60.000000 Hz  16:10   190.080 kHz    380.160000 MHz (aspect 16:10, no 3D stereo)
               Hfront   32 Hsync   8 Hback   40 Hpol N
               Vfront 1904 Vsync   8 Vback   56 Vpol N
  Adaptive Sync Data Block:
    Descriptor #1:
      Native Panel Range
      Fixed Average V-Total and Adaptive V-Total
      'Max Single Frame Duration Increase' field value without jitter impact
      'Max Single Frame Duration Decrease' field value without jitter impact
      Max Duration Increase: 0.00 ms
      Max Duration Decrease: 0.00 ms
      Min Refresh Rate: 30 Hz
      Max Refresh Rate: 144 Hz
    Descriptor #2:
      Native Panel Range
      Fixed Average V-Total and Adaptive V-Total
      'Max Single Frame Duration Increase' field value without jitter impact
      'Max Single Frame Duration Decrease' field value without jitter impact
      Max Duration Increase: 0.00 ms
      Max Duration Decrease: 0.00 ms
      Min Refresh Rate: 30 Hz
      Max Refresh Rate: 60 Hz
  Unknown DisplayID Data Block (0x2e, length 6):
    18 10 6c 5f 4c 64                               '..l_Ld'
  Checksum: 0x09
Checksum: 0x90

----------------

Warnings:

Block 1, CTA-861 Extension Block:
  IT Video Formats are overscanned by default, but normally this should be underscanned.
  Colorimetry Data Block: Set the sRGB colorimetry bit to avoid interop issues.
Block 2, DisplayID Extension Block:
  Product Identification Data Block (0x20), OUI BA-41-59: Unknown OUI BA-41-59.
Block 4, CTA-861 Extension Block:
  IT Video Formats are overscanned by default, but normally this should be underscanned.
  Colorimetry Data Block: Set the sRGB colorimetry bit to avoid interop issues.
Block 5, DisplayID Extension Block:
  Product Identification Data Block (0x20), OUI BA-41-59: Unknown OUI BA-41-59.

Failures:

Block 0, Base EDID:
  Alphanumeric Data String: One or more trailing spaces.
  Display Product Name: One or more trailing spaces.
Block 1, CTA-861 Extension Block:
  Required 640x480p60 timings are missing in the established timings and the SVD list (VIC 1).
  Missing VCDB, needed for Set Selectable RGB Quantization to avoid interop issues.
Block 2, DisplayID Extension Block:
  Expected 0 DisplayID Extension Block, but got 1.
Block 3, Base EDID:
  Unknown Extension Block.
Block 4, CTA-861 Extension Block:
  Colorimetry Data Block: Only one instance of this Data Block is allowed.
  HDR Static Metadata Data Block: Only one instance of this Data Block is allowed.
  Required 640x480p60 timings are missing in the established timings and the SVD list (VIC 1).
  Missing VCDB, needed for Set Selectable RGB Quantization to avoid interop issues.
Block 5, DisplayID Extension Block:
  Product Type should be 0 in extension block.
  Product Identification Data Block (0x20), OUI BA-41-59: Product Identification Data Block (0x20), OUI BA-41-59 is required to be the first DisplayID Data Block.
  Display Parameters Data Block (0x21): Duplicate Display Parameters Data Block.
EDID:
  Base EDID: EDID specified 2 extension block(s), but found 5 extension block(s).
  DisplayID: Missing DisplayID Display Interface Features Data Block.

EDID conformity: FAIL
