edid-decode (hex):

00 ff ff ff ff ff ff 00 26 cd 10 46 00 00 00 00
25 0a 01 01 0e 24 1d 72 e8 86 7a 9c 5b 4a 95 23
19 4c 4f bf ef 80 31 40 81 8c 81 80 01 01 01 01
01 01 01 01 01 01 00 00 00 fe 00 00 00 00 00 00
00 00 00 00 00 00 00 00 00 00 00 fe 00 00 00 00
00 00 00 00 00 00 00 00 00 00 00 00 00 fe 00 00
00 00 00 00 00 00 00 00 00 00 00 00 00 00 00 fe
00 00 00 00 00 00 00 00 00 00 00 00 00 00 00 87

00 ff ff ff ff ff ff 00 26 cd 10 46 00 00 00 00
25 0a 01 01 0e 24 1d 72 e8 86 7a 9c 5b 4a 95 23
19 4c 4f bf ef 80 31 40 81 8c 81 80 01 01 01 01
01 01 01 01 01 01 00 00 00 fe 00 00 00 00 00 00
00 00 00 00 00 00 00 00 00 00 00 fe 00 00 00 00
00 00 00 00 00 00 00 00 00 00 00 00 00 fe 00 00
00 00 00 00 00 00 00 00 00 00 00 00 00 00 00 fe
00 00 00 00 00 00 00 00 00 00 00 00 00 00 00 87

----------------

Block 0, Base EDID:
  EDID Structure Version & Revision: 1.1
  Vendor & Product Identification:
    Manufacturer: IVM
    Model: 17936
    Made in: week 37 of 2000
  Basic Display Parameters & Features:
    Analog display
    Signal Level Standard: 0.700 : 0.300 : 1.000 V p-p
    Blank level equals black level
    Sync: Separate Composite SyncOnGreen
    Maximum image size: 36 cm x 29 cm
    Gamma: 2.14
    DPMS levels: Standby Suspend Off
    RGB color display
  Color Characteristics:
    Red  : 0.6113, 0.3554
    Green: 0.2900, 0.5839
    Blue : 0.1376, 0.1005
    White: 0.2988, 0.3105
  Established Timings I & II:
    IBM     :   720x400    70.081663 Hz   9:5     31.467 kHz     28.320000 MHz
    DMT 0x04:   640x480    59.940476 Hz   4:3     31.469 kHz     25.175000 MHz
    Apple   :   640x480    66.666667 Hz   4:3     35.000 kHz     30.240000 MHz
    DMT 0x05:   640x480    72.808802 Hz   4:3     37.861 kHz     31.500000 MHz
    DMT 0x06:   640x480    75.000000 Hz   4:3     37.500 kHz     31.500000 MHz
    DMT 0x08:   800x600    56.250000 Hz   4:3     35.156 kHz     36.000000 MHz
    DMT 0x09:   800x600    60.316541 Hz   4:3     37.879 kHz     40.000000 MHz
    DMT 0x0a:   800x600    72.187572 Hz   4:3     48.077 kHz     50.000000 MHz
    DMT 0x0b:   800x600    75.000000 Hz   4:3     46.875 kHz     49.500000 MHz
    Apple   :   832x624    74.551266 Hz   4:3     49.726 kHz     57.284000 MHz
    DMT 0x10:  1024x768    60.003840 Hz   4:3     48.363 kHz     65.000000 MHz
    DMT 0x11:  1024x768    70.069359 Hz   4:3     56.476 kHz     75.000000 MHz
    DMT 0x12:  1024x768    75.028582 Hz   4:3     60.023 kHz     78.750000 MHz
    DMT 0x24:  1280x1024   75.024675 Hz   5:4     79.976 kHz    135.000000 MHz
    Apple   :  1152x870    75.061550 Hz 192:145   68.681 kHz    100.000000 MHz
  Standard Timings:
    DMT 0x04:   640x480    59.940476 Hz   4:3     31.469 kHz     25.175000 MHz
    Unknown :  1280x1024   72.000 Hz   5:4
    DMT 0x23:  1280x1024   60.019740 Hz   5:4     63.981 kHz    108.000000 MHz
  Detailed Timing Descriptors:
    Alphanumeric Data String: ''
    Alphanumeric Data String: ''
    Alphanumeric Data String: ''
    Alphanumeric Data String: ''
Checksum: 0x87

----------------

Block 1, Unknown EDID Extension Block 0x00:
  00 ff ff ff ff ff ff 00 26 cd 10 46 00 00 00 00 '........&..F....'
  25 0a 01 01 0e 24 1d 72 e8 86 7a 9c 5b 4a 95 23 '%....$.r..z.[J.#'
  19 4c 4f bf ef 80 31 40 81 8c 81 80 01 01 01 01 '.LO...1@........'
  01 01 01 01 01 01 00 00 00 fe 00 00 00 00 00 00 '................'
  00 00 00 00 00 00 00 00 00 00 00 fe 00 00 00 00 '................'
  00 00 00 00 00 00 00 00 00 00 00 00 00 fe 00 00 '................'
  00 00 00 00 00 00 00 00 00 00 00 00 00 00 00 fe '................'
  00 00 00 00 00 00 00 00 00 00 00 00 00 00 00 87 '................'
Checksum: 0x87

----------------

Warnings:

Block 0, Base EDID:
  EDID Structure Version & Revision: EDID 1.1 is deprecated, do not use.

Failures:

Block 0, Base EDID:
  Alphanumeric Data String: Non-printable character.
  Alphanumeric Data String: Non-printable character.
  Alphanumeric Data String: Non-printable character.
  Alphanumeric Data String: Non-printable character.
Block 1, Base EDID:
  Unknown Extension Block.
EDID:
  Base EDID: EDID specified 0 extension block(s), but found 1 extension block(s).

EDID conformity: FAIL
