
EDID (hex):
00ffffffffffff0030e4c40500000000
001c010495221378028fe5945b559027
1d505400000001010101010101010101
010101010101243680a070381f403020
350058c21000001a502b80a070381f40
3020350058c21000001a000000fe0034
43584457803135365746390a00000000
0000413196001000000a010a202000fe

Extracted contents:
header:          00 ff ff ff ff ff ff 00
serial number:   30 e4 c4 05 00 00 00 00 00 1c
version:         01 04
basic params:    95 22 13 78 02
chroma info:     8f e5 94 5b 55 90 27 1d 50 54
established:     00 00 00
standard:        01 01 01 01 01 01 01 01 01 01 01 01 01 01 01 01
descriptor 1:    24 36 80 a0 70 38 1f 40 30 20 35 00 58 c2 10 00 00 1a
descriptor 2:    50 2b 80 a0 70 38 1f 40 30 20 35 00 58 c2 10 00 00 1a
descriptor 3:    00 00 00 fe 00 34 43 58 44 57 80 31 35 36 57 46 39 0a
descriptor 4:    00 00 00 00 00 00 41 31 96 00 10 00 00 0a 01 0a 20 20
extensions:      00
checksum:        fe

EDID version: 1.4
Manufacturer: LGD Model 5c4 Serial Number --
Made in year 2018
Digital display
6 bits per primary color channel
DisplayPort interface
Maximum image size: 34 cm x 19 cm
Gamma: 2.20
Supported color formats: RGB 4:4:4
First detailed timing includes the native pixel format and preferred refresh rate
Display x,y Chromaticity:
  Red:   0.5800, 0.3554
  Green: 0.3349, 0.5654
  Blue:  0.1552, 0.1152
  White: 0.3134, 0.3291
Established timings supported:
Standard timings supported:
Detailed mode: Clock 138.600 MHz, 344 mm x 194 mm
               1920 1968 2000 2080 hborder 0
               1080 1083 1088 1111 vborder 0
               +hsync -vsync 
               VertFreq: 59 Hz, HorFreq: 66634 Hz
Detailed mode: Clock 110.880 MHz, 344 mm x 194 mm
               1920 1968 2000 2080 hborder 0
               1080 1083 1088 1111 vborder 0
               +hsync -vsync 
               VertFreq: 47 Hz, HorFreq: 53307 Hz
ASCII string: 4CXDW
Manufacturer-specified data, tag 0
Checksum: 0xfe (valid)
EDID block does NOT conform to EDID 1.4!
	Missing name descriptor
	Missing monitor ranges
	Detailed block string not properly terminated
