edid-decode (hex):

00 ff ff ff ff ff ff 00 30 e4 a7 07 00 00 00 00
00 22 01 04 a5 1e 13 78 03 2b 45 a4 54 4c 99 26
0f 50 54 00 00 00 01 01 01 01 01 01 01 01 01 01
01 01 01 01 01 01 35 3c 80 a0 70 b0 23 40 30 20
56 04 2e bd 10 00 00 1a 00 00 00 fd 00 1e 3c 4a
4a 10 01 0a 20 20 20 20 20 20 00 00 00 fe 00 4b
44 47 58 54 80 31 34 30 57 55 35 0a 00 00 00 00
00 02 41 00 a8 00 01 00 00 0a 41 0a 20 20 01 fb

70 20 79 02 00 20 00 13 3c e6 24 a7 07 00 00 00
00 00 18 07 31 34 30 57 55 35 0a 22 00 14 11 5a
02 85 7f 07 9f 00 2f 80 1f 00 af 04 22 00 14 00
05 00 2b 00 06 27 00 1e 3b 00 00 00 00 00 00 00
00 00 00 00 00 00 00 00 00 00 00 00 00 00 00 00
00 00 00 00 00 00 00 00 00 00 00 00 00 00 00 00
00 00 00 00 00 00 00 00 00 00 00 00 00 00 00 00
00 00 00 00 00 00 00 00 00 00 00 00 00 00 e5 90

00 ff ff ff ff ff ff 00 30 e4 a7 07 00 00 00 00
00 22 01 04 a5 1e 13 78 03 2b 45 a4 54 4c 99 26
0f 50 54 00 00 00 01 01 01 01 01 01 01 01 01 01
01 01 01 01 01 01 35 3c 80 a0 70 b0 23 40 30 20
56 04 2e bd 10 00 00 1a 00 00 00 fd 00 1e 3c 4a
4a 10 01 0a 20 20 20 20 20 20 00 00 00 fe 00 4b
44 47 58 54 80 31 34 30 57 55 35 0a 00 00 00 00
00 02 41 00 a8 00 01 00 00 0a 41 0a 20 20 01 fb

70 20 79 02 00 20 00 13 3c e6 24 a7 07 00 00 00
00 00 18 07 31 34 30 57 55 35 0a 22 00 14 11 5a
02 85 7f 07 9f 00 2f 80 1f 00 af 04 22 00 14 00
05 00 2b 00 06 27 00 1e 3b 00 00 00 00 00 00 00
00 00 00 00 00 00 00 00 00 00 00 00 00 00 00 00
00 00 00 00 00 00 00 00 00 00 00 00 00 00 00 00
00 00 00 00 00 00 00 00 00 00 00 00 00 00 00 00
00 00 00 00 00 00 00 00 00 00 00 00 00 00 e5 90

----------------

Block 0, Base EDID:
  EDID Structure Version & Revision: 1.4
  Vendor & Product Identification:
    Manufacturer: LGD
    Model: 1959
    Made in: 2024
  Basic Display Parameters & Features:
    Digital display
    Bits per primary color channel: 8
    DisplayPort interface
    Maximum image size: 30 cm x 19 cm
    Gamma: 2.20
    Supported color formats: RGB 4:4:4
    First detailed timing includes the native pixel format and preferred refresh rate
    Display is continuous frequency
  Color Characteristics:
    Red  : 0.6406, 0.3300
    Green: 0.2988, 0.6005
    Blue : 0.1494, 0.0585
    White: 0.3134, 0.3291
  Established Timings I & II: none
  Standard Timings: none
  Detailed Timing Descriptors:
    DTD 1:  1920x1200   60.000779 Hz  16:10    74.101 kHz    154.130000 MHz (302 mm x 189 mm)
                 Hfront   48 Hsync  32 Hback   80 Hpol P
                 Vfront   21 Vsync   6 Vback    8 Vpol N
    Display Range Limits:
      Monitor ranges (Bare Limits): 30-60 Hz V, 74-74 kHz H, max dotclock 160 MHz
    Alphanumeric Data String: 'KDGXT'
    Manufacturer-Specified Display Descriptor (0x00): 00 00 00 02 41 00 a8 00 01 00 00 0a 41 0a 20 20 '....A.......A.  '
  Extension blocks: 1
Checksum: 0xfb

----------------

Block 1, DisplayID Extension Block:
  Version: 2.0
  Extension Count: 0
  Display Product Primary Use Case: None of the listed primary use cases; generic display
  Product Identification Data Block (0x20), OUI 3C-E6-24:
    Product Code: 1959
    Year of Manufacture: 2024
    Product ID: 140WU5

  Video Timing Modes Type 7 - Detailed Timings Data Block:
    DTD:  1920x1200   60.000779 Hz  16:10    74.101 kHz    154.130000 MHz (aspect 16:10, no 3D stereo, preferred)
               Hfront   48 Hsync  32 Hback   80 Hpol P
               Vfront   21 Vsync   6 Vback    8 Vpol N
  Adaptive Sync Data Block:
    Descriptor #1:
      Native Panel Range
      Fixed Average V-Total and Adaptive V-Total
      'Max Single Frame Duration Increase' field value without jitter impact
      'Max Single Frame Duration Decrease' field value without jitter impact
      Max Duration Increase: 0.00 ms
      Max Duration Decrease: 0.00 ms
      Min Refresh Rate: 30 Hz
      Max Refresh Rate: 60 Hz
  Checksum: 0xe5
Checksum: 0x90

----------------

Block 2, Unknown EDID Extension Block 0x00:
  00 ff ff ff ff ff ff 00 30 e4 a7 07 00 00 00 00 '........0.......'
  00 22 01 04 a5 1e 13 78 03 2b 45 a4 54 4c 99 26 '.".....x.+E.TL.&'
  0f 50 54 00 00 00 01 01 01 01 01 01 01 01 01 01 '.PT.............'
  01 01 01 01 01 01 35 3c 80 a0 70 b0 23 40 30 20 '......5<..p.#@0 '
  56 04 2e bd 10 00 00 1a 00 00 00 fd 00 1e 3c 4a 'V.............<J'
  4a 10 01 0a 20 20 20 20 20 20 00 00 00 fe 00 4b 'J...      .....K'
  44 47 58 54 80 31 34 30 57 55 35 0a 00 00 00 00 'DGXT.140WU5.....'
  00 02 41 00 a8 00 01 00 00 0a 41 0a 20 20 01 fb '..A.......A.  ..'
Checksum: 0xfb

----------------

Block 3, DisplayID Extension Block:
  Version: 2.0
  Extension Count: 0
  Product Identification Data Block (0x20), OUI 3C-E6-24:
    Product Code: 1959
    Year of Manufacture: 2024
    Product ID: 140WU5

  Video Timing Modes Type 7 - Detailed Timings Data Block:
    DTD:  1920x1200   60.000779 Hz  16:10    74.101 kHz    154.130000 MHz (aspect 16:10, no 3D stereo, preferred)
               Hfront   48 Hsync  32 Hback   80 Hpol P
               Vfront   21 Vsync   6 Vback    8 Vpol N
  Adaptive Sync Data Block:
    Descriptor #1:
      Native Panel Range
      Fixed Average V-Total and Adaptive V-Total
      'Max Single Frame Duration Increase' field value without jitter impact
      'Max Single Frame Duration Decrease' field value without jitter impact
      Max Duration Increase: 0.00 ms
      Max Duration Decrease: 0.00 ms
      Min Refresh Rate: 30 Hz
      Max Refresh Rate: 60 Hz
  Checksum: 0xe5
Checksum: 0x90

----------------

Warnings:

Block 0, Base EDID:
  Missing Display Product Name.
Block 1, DisplayID Extension Block:
  Product Identification Data Block (0x20), OUI 3C-E6-24: Unknown OUI 3C-E6-24.
Block 3, DisplayID Extension Block:
  Product Identification Data Block (0x20), OUI 3C-E6-24: Unknown OUI 3C-E6-24.

Failures:

Block 0, Base EDID:
  Alphanumeric Data String: Non-printable character.
Block 1, DisplayID Extension Block:
  Expected 0 DisplayID Extension Block, but got 1.
Block 2, Base EDID:
  Unknown Extension Block.
Block 3, DisplayID Extension Block:
  Product Type should be 0 in extension block.
  Product Identification Data Block (0x20), OUI 3C-E6-24: Product Identification Data Block (0x20), OUI 3C-E6-24 is required to be the first DisplayID Data Block.
EDID:
  Base EDID: EDID specified 1 extension block(s), but found 3 extension block(s).
  DisplayID: Missing DisplayID Display Parameters Data Block.
  DisplayID: Missing DisplayID Display Interface Features Data Block.

EDID conformity: FAIL
