edid-decode (hex):

00 ff ff ff ff ff ff 00 4c 83 4e 32 00 00 00 00
00 17 01 04 95 1f 11 78 ea 09 25 92 57 54 8f 29
22 50 54 00 00 00 01 01 01 01 01 01 01 01 01 01
01 01 01 01 01 01 fc 2b 40 a2 61 84 1e 30 30 20
25 00 35 ae 10 00 00 19 00 00 00 0f 00 00 00 00
00 00 00 00 00 64 96 07 16 00 00 00 00 fe 00 53
41 4d 53 55 4e 47 0a 20 4c 83 4b 54 00 00 00 fe
00 4c 54 4e 31 34 30 4b 54 31 34 34 30 31 00 ca

----------------

Block 0, Base EDID:
  EDID Structure Version & Revision: 1.4
  Vendor & Product Identification:
    Manufacturer: SDC
    Model: 12878
    Made in: 2013
  Basic Display Parameters & Features:
    Digital display
    Bits per primary color channel: 6
    DisplayPort interface
    Maximum image size: 31 cm x 17 cm
    Gamma: 2.20
    DPMS levels: Standby Suspend Off
    Supported color formats: RGB 4:4:4, YCrCb 4:4:4
    First detailed timing includes the native pixel format and preferred refresh rate
  Color Characteristics:
    Red  : 0.5703, 0.3398
    Green: 0.3300, 0.5595
    Blue : 0.1601, 0.1347
    White: 0.3134, 0.3291
  Established Timings I & II: none
  Standard Timings: none
  Detailed Timing Descriptors:
    DTD 1:  1600x900    59.998 Hz  16:9    55.798 kHz 112.600 MHz (309 mm x 174 mm)
                 Hfront   48 Hsync  32 Hback 338 Hpol N
                 Vfront    2 Vsync   5 Vback  23 Vpol N
    Manufacturer-Specified Display Descriptor (0x0f): 00 0f 00 00 00 00 00 00 00 00 00 64 96 07 16 00 '...........d....'
    Alphanumeric Data String: 'SAMSUNG'
    Alphanumeric Data String: 'LTN140KT14401'
Checksum: 0xca

----------------

Failures:

Block 0, Base EDID:
  Alphanumeric Data String: Non-space after newline.
  Missing Display Product Name.

EDID conformity: FAIL
