
EDID (hex):
00ffffffffffff004c834e3200000000
00170104951f1178ea09259257548f29
22505400000001010101010101010101
010101010101fc2b40a261841e303020
250035ae100000190000000f00000000
00000000006496071600000000fe0053
414d53554e470a204c834b54000000fe
004c544e3134304b54313434303100ca

Extracted contents:
header:          00 ff ff ff ff ff ff 00
serial number:   4c 83 4e 32 00 00 00 00 00 17
version:         01 04
basic params:    95 1f 11 78 ea
chroma info:     09 25 92 57 54 8f 29 22 50 54
established:     00 00 00
standard:        01 01 01 01 01 01 01 01 01 01 01 01 01 01 01 01
descriptor 1:    fc 2b 40 a2 61 84 1e 30 30 20 25 00 35 ae 10 00 00 19
descriptor 2:    00 00 00 0f 00 00 00 00 00 00 00 00 00 64 96 07 16 00
descriptor 3:    00 00 00 fe 00 53 41 4d 53 55 4e 47 0a 20 4c 83 4b 54
descriptor 4:    00 00 00 fe 00 4c 54 4e 31 34 30 4b 54 31 34 34 30 31
extensions:      00
checksum:        ca

EDID version: 1.4
Manufacturer: SDC Model 324e Serial Number --
Made in year 2013
Digital display
6 bits per primary color channel
DisplayPort interface
Maximum image size: 31 cm x 17 cm
Gamma: 2.20
DPMS levels: Standby Suspend Off
Supported color formats: RGB 4:4:4, YCrCb 4:4:4
First detailed timing includes the native pixel format and preferred refresh rate
Display x,y Chromaticity:
  Red:   0.5703, 0.3398
  Green: 0.3300, 0.5595
  Blue:  0.1601, 0.1347
  White: 0.3134, 0.3291
Established timings supported:
Standard timings supported:
Detailed mode: Clock 112.600 MHz, 309 mm x 174 mm
               1600 1648 1680 2018 hborder 0
                900  902  907  930 vborder 0
               -hsync -vsync 
               VertFreq: 59 Hz, HorFreq: 55797 Hz
Manufacturer-specified data, tag 15
ASCII string: SAMSUNG
ASCII string: LTN140KT14401
Checksum: 0xca (valid)
EDID block does NOT conform to EDID 1.4!
	Missing name descriptor
	Missing monitor ranges
	Detailed block string not properly terminated
