
EDID (hex):
00ffffffffffff000daf281400000000
00000103801e13780a47a094574f8c27
27505400000001010101010101010101
010101010101b125a018518423302e46
99002fbe100000190000000000000000
00000000000000000000000000fe0050
59373236374e31343143330a000000fe
002d404e567a9bceff02010a20200030

Extracted contents:
header:          00 ff ff ff ff ff ff 00
serial number:   0d af 28 14 00 00 00 00 00 00
version:         01 03
basic params:    80 1e 13 78 0a
chroma info:     47 a0 94 57 4f 8c 27 27 50 54
established:     00 00 00
standard:        01 01 01 01 01 01 01 01 01 01 01 01 01 01 01 01
descriptor 1:    b1 25 a0 18 51 84 23 30 2e 46 99 00 2f be 10 00 00 19
descriptor 2:    00 00 00 00 00 00 00 00 00 00 00 00 00 00 00 00 00 00
descriptor 3:    00 00 00 fe 00 50 59 37 32 36 37 4e 31 34 31 43 33 0a
descriptor 4:    00 00 00 fe 00 2d 40 4e 56 7a 9b ce ff 02 01 0a 20 20
extensions:      00
checksum:        30

EDID version: 1.3
Manufacturer: CMO Model 1428 Serial Number --
Digital display
Maximum image size: 30 cm x 19 cm
Gamma: 2.20
RGB color display
First detailed timing is preferred timing
Display x,y Chromaticity:
  Red:   0.5791, 0.3398
  Green: 0.3095, 0.5498
  Blue:  0.1542, 0.1542
  White: 0.3125, 0.3281
Established timings supported:
Standard timings supported:
Detailed mode: Clock 96.490 MHz, 303 mm x 190 mm
               1440 1486 1556 1720 hborder 0
                900  909  918  935 vborder 0
               -hsync -vsync 
               VertFreq: 59 Hz, HorFreq: 56098 Hz
Manufacturer-specified data, tag 0
ASCII string: PY7267N141C3
ASCII string: -@NVz
Checksum: 0x30 (valid)
EDID block does NOT conform to EDID 1.3!
	Missing name descriptor
	Missing monitor ranges
	Detailed block string not properly terminated
EDID block does not conform at all!
	Bad year of manufacture
