edid-decode (hex):

00 ff ff ff ff ff ff 00 23 42 32 31 45 06 00 00
0c 1c 01 03 80 0f 0a 78 0a 0d c9 a0 57 47 98 27
12 48 4c 00 00 00 01 c1 01 01 01 c1 01 01 01 01
01 01 01 01 01 01 e4 19 e0 5a 10 80 12 70 1e 1e
66 00 e0 80 17 00 00 1e e4 19 e0 5a 10 80 12 70
1e 1e 66 00 05 28 00 20 20 20 00 00 00 fa 00 0a
20 20 20 20 02 00 20 20 20 20 20 0a 00 00 00 fc
00 48 44 4d 49 38 38 0a 20 20 20 20 20 20 01 22

02 03 22 f1 4a 84 04 04 04 13 04 04 02 01 00 23
09 7f 07 83 01 00 00 67 03 0c 00 00 00 b8 2d 02
00 0f e4 19 e0 5a 10 80 12 70 1e 1e 66 00 c4 8e
21 00 00 9e 00 00 00 00 00 00 00 00 00 00 00 00
00 00 00 00 00 00 00 00 00 00 00 00 00 00 00 00
00 00 00 00 00 00 00 00 00 00 00 00 00 00 00 00
00 00 00 00 00 00 00 00 00 00 00 00 00 00 00 00
00 00 00 00 00 00 00 00 00 00 00 00 00 00 00 52

----------------

Block 0, Base EDID:
  EDID Structure Version & Revision: 1.3
  Vendor & Product Identification:
    Manufacturer: HZB
    Model: 12594
    Serial Number: ...
    Made in: week 12 of 2018
  Basic Display Parameters & Features:
    Digital display
    Maximum image size: 15 cm x 10 cm
    Gamma: 2.20
    RGB color display
    First detailed timing is the preferred timing
  Color Characteristics:
    Red  : 0.6250, 0.3398
    Green: 0.2802, 0.5947
    Blue : 0.1552, 0.0703
    White: 0.2832, 0.2978
  Established Timings I & II: none
  Standard Timings:
  Detailed Timing Descriptors:
    DTD 1:   480x1920   60.000362 Hz   1:4    116.281 kHz     66.280000 MHz (480 mm x 1920 mm)
                 Hfront   30 Hsync  30 Hback   30 Hpol P
                 Vfront    6 Vsync   6 Vback    6 Vpol P
    DTD 2:   480x1920   60.000362 Hz   1:4    116.281 kHz     66.280000 MHz (analog composite, sync-on-green, field sequential L/R, 5 mm x 40 mm)
                 Hfront   30 Hsync  30 Hback  -34 Hpol N Hborder 32
                 Vfront    6 Vsync   6 Vback  -58 Vpol N Vborder 32
    Standard Timing Identifications:
      GTF     :   328x205    92.001317 Hz  16:10    19.964 kHz      7.826000 MHz
      GTF     :   504x315    92.000228 Hz  16:10    30.636 kHz     19.362000 MHz
      GTF     :   504x315    61.997961 Hz  16:10    20.273 kHz     12.164000 MHz
      GTF     :   504x315    92.000228 Hz  16:10    30.636 kHz     19.362000 MHz
      GTF     :   504x315    92.000228 Hz  16:10    30.636 kHz     19.362000 MHz
    Display Product Name: 'HDMI88'
  Extension blocks: 1
Checksum: 0x22

----------------

Block 1, CTA-861 Extension Block:
  Revision: 3
  Underscans IT Video Formats by default
  Basic audio support
  Supports YCbCr 4:4:4
  Supports YCbCr 4:2:2
  Native detailed modes: 1
  Video Data Block:
    VIC   4:  1280x720    60.000000 Hz  16:9     45.000 kHz     74.250000 MHz (native)
    VIC   4:  1280x720    60.000000 Hz  16:9     45.000 kHz     74.250000 MHz
    VIC   4:  1280x720    60.000000 Hz  16:9     45.000 kHz     74.250000 MHz
    VIC   4:  1280x720    60.000000 Hz  16:9     45.000 kHz     74.250000 MHz
    VIC  19:  1280x720    50.000000 Hz  16:9     37.500 kHz     74.250000 MHz
    VIC   4:  1280x720    60.000000 Hz  16:9     45.000 kHz     74.250000 MHz
    VIC   4:  1280x720    60.000000 Hz  16:9     45.000 kHz     74.250000 MHz
    VIC   2:   720x480    59.940060 Hz   4:3     31.469 kHz     27.000000 MHz
    VIC   1:   640x480    59.940476 Hz   4:3     31.469 kHz     25.175000 MHz
  Audio Data Block:
    Linear PCM:
      Max channels: 2
      Supported sample rates (kHz): 192 176.4 96 88.2 48 44.1 32
      Supported sample sizes (bits): 24 20 16
  Speaker Allocation Data Block:
    FL/FR - Front Left/Right
  Vendor-Specific Data Block (HDMI), OUI 00-0C-03:
    Source physical address: 0.0.0.0
    Supports_AI
    DC_36bit
    DC_30bit
    DC_Y444
    Maximum TMDS clock: 225 MHz
  Unknown CTA-861 Data Block (tag 0x00, length 2):
    00 0f                                           '..'
  Detailed Timing Descriptors:
    DTD 3:   480x3840i  59.984886 Hz   1:8    116.281 kHz     66.280000 MHz (708 mm x 398 mm)
                 Hfront   30 Hsync  30 Hback   30 Hpol P
                 Vfront    6 Vsync   6 Vback    6 Vpol P Vfront +0.5 Odd Field
                 Vfront    6 Vsync   6 Vback    6 Vpol P Vback  +0.5 Even Field
Checksum: 0x52  Unused space in Extension Block: 75 bytes

----------------

Warnings:

Block 0, Base EDID:
  Detailed Timing Descriptor #2: The use of non-zero borders in a DTD is not recommended.
  Standard Timing Identifications: Standard Timing 328x205 has a dubious odd vertical resolution.
  Standard Timing Identifications: Standard Timing 504x315 has a dubious odd vertical resolution.
  Standard Timing Identifications: Standard Timing 504x315 has a dubious odd vertical resolution.
  Standard Timing Identifications: Standard Timing 504x315 has a dubious odd vertical resolution.
  Standard Timing Identifications: Standard Timing 504x315 has a dubious odd vertical resolution.
Block 1, CTA-861 Extension Block:
  Unknown CTA-861 Data Block (tag 0x00, length 2).
  Add a Colorimetry Data Block with the sRGB colorimetry bit set to avoid interop issues.

Failures:

Block 0, Base EDID:
  Standard Timings: Use 0x0101 as the invalid Standard Timings code, not 0x01c1.
  Standard Timings: Use 0x0101 as the invalid Standard Timings code, not 0x01c1.
  Detailed Timing Descriptor #1: Mismatch of image size 480x1920 mm vs display size 150x100 mm.
  Detailed Timing Descriptor #2: 0 or negative horizontal back porch.
  Detailed Timing Descriptor #2: 0 or negative vertical back porch.
  Detailed Timing Descriptor #2: Mismatch of image size 5x40 mm vs display size 150x100 mm.
  Standard Timing Identifications: 0 values in the video timing:
    Horizontal Active/Blanking 328/64
    Horizontal Frontporch/Sync Width 0/32
    Vertical Active/Blanking 205/12
    Vertical Frontporch/Sync Width 1/3
  Standard Timing Identifications: 0 or negative horizontal front porch.
  Standard Timing Identifications: 0 values in the video timing:
    Horizontal Active/Blanking 504/96
    Horizontal Frontporch/Sync Width 0/48
    Vertical Active/Blanking 315/12
    Vertical Frontporch/Sync Width 1/3
  Standard Timing Identifications: 0 or negative horizontal front porch.
  Standard Timing Identifications: Use 0x0101 as the invalid Standard Timings code, not 0x0020.
  Missing Display Range Limits Descriptor.
Block 1, CTA-861 Extension Block:
  Video Data Block: Duplicate VIC 4.
  Detailed Timing Descriptor #3: Mismatch of image size 708x398 mm vs display size 150x100 mm.
  Missing VCDB, needed for Set Selectable RGB Quantization to avoid interop issues.
EDID:
  Base EDID: The DTD max image size is 708x1920mm, which is larger than the display size 150.0x100.0mm.
  CTA-861: Native progressive timings are a mix of several resolutions.

EDID conformity: FAIL
