edid-decode (hex):

00 ff ff ff ff ff ff 00 22 f0 28 42 01 00 00 00
01 18 01 04 a5 3c 22 78 fe 1e 50 a7 56 51 9c 26
11 50 54 00 00 00 01 01 01 01 01 01 01 01 01 01
01 01 01 01 01 01 40 38 80 00 71 38 14 40 30 20
84 00 55 50 21 00 00 1e 00 00 00 fd 00 30 4b 37
53 12 00 0a 20 20 20 20 20 20 00 00 00 fc 00 48
50 20 41 6c 6c 2d 69 6e 2d 4f 6e 65 00 00 00 ff
00 4c 4d 32 37 30 57 46 35 2d 53 4c 4e 32 00 b5

00 ff ff ff ff ff ff 00 22 f0 28 42 01 00 00 00
01 18 01 04 a5 3c 22 78 fe 1e 50 a7 56 51 9c 26
11 50 54 00 00 00 01 01 01 01 01 01 01 01 01 01
01 01 01 01 01 01 40 38 80 00 71 38 14 40 30 20
84 00 55 50 21 00 00 1e 00 00 00 fd 00 30 4b 37
53 12 00 0a 20 20 20 20 20 20 00 00 00 fc 00 48
50 20 41 6c 6c 2d 69 6e 2d 4f 6e 65 00 00 00 ff
00 4c 4d 32 37 30 57 46 35 2d 53 4c 4e 32 00 b5

----------------

Block 0, Base EDID:
  EDID Structure Version & Revision: 1.4
  Vendor & Product Identification:
    Manufacturer: HWP
    Model: 16936
    Serial Number: ...
    Made in: week 1 of 2014
  Basic Display Parameters & Features:
    Digital display
    Bits per primary color channel: 8
    DisplayPort interface
    Maximum image size: 60 cm x 34 cm
    Gamma: 2.20
    DPMS levels: Standby Suspend Off
    Supported color formats: RGB 4:4:4, YCrCb 4:4:4, YCrCb 4:2:2
    Default (sRGB) color space is primary color space
    First detailed timing includes the native pixel format and preferred refresh rate
  Color Characteristics:
    Red  : 0.6523, 0.3369
    Green: 0.3193, 0.6113
    Blue : 0.1494, 0.0673
    White: 0.3125, 0.3281
  Established Timings I & II: none
  Standard Timings: none
  Detailed Timing Descriptors:
    DTD 1:  1920x1080   60.160428 Hz  16:9     66.176 kHz    144.000000 MHz (597 mm x 336 mm)
                 Hfront   48 Hsync  32 Hback  176 Hpol P
                 Vfront    8 Vsync   4 Vback    8 Vpol P
    Display Range Limits:
      Monitor ranges (GTF): 48-75 Hz V, 55-83 kHz H, max dotclock 180 MHz
    Display Product Name: 'HP All-in-One'
    Display Product Serial Number: ...
Checksum: 0xb5

----------------

Block 1, Unknown EDID Extension Block 0x00:
  00 ff ff ff ff ff ff 00 22 f0 28 42 01 00 00 00 '........".(B....'
  01 18 01 04 a5 3c 22 78 fe 1e 50 a7 56 51 9c 26 '.....<"x..P.VQ.&'
  11 50 54 00 00 00 01 01 01 01 01 01 01 01 01 01 '.PT.............'
  01 01 01 01 01 01 40 38 80 00 71 38 14 40 30 20 '......@8..q8.@0 '
  84 00 55 50 21 00 00 1e 00 00 00 fd 00 30 4b 37 '..UP!........0K7'
  53 12 00 0a 20 20 20 20 20 20 00 00 00 fc 00 48 'S...      .....H'
  50 20 41 6c 6c 2d 69 6e 2d 4f 6e 65 00 00 00 ff 'P All-in-One....'
  00 4c 4d 32 37 30 57 46 35 2d 53 4c 4e 32 00 b5 '.LM270WF5-SLN2..'
Checksum: 0xb5

----------------

Warnings:

Block 0, Base EDID:
  Display Range Limits: GTF support is deprecated in EDID 1.4.

Failures:

Block 0, Base EDID:
  Basic Display Parameters & Features: sRGB is signaled, but the chromaticities do not match.
  Display Range Limits: GTF can't be combined with non-continuous frequencies.
Block 1, Base EDID:
  Unknown Extension Block.
EDID:
  Base EDID: EDID specified 0 extension block(s), but found 1 extension block(s).

EDID conformity: FAIL
