edid-decode (hex):

00 ff ff ff ff ff ff 00 09 e5 6c 0d 00 00 00 00
30 22 01 04 b5 21 15 78 07 51 85 a7 54 4b 9d 24
0f 50 54 00 00 00 01 01 01 01 01 01 01 01 01 01
01 01 01 01 01 01 c0 d8 00 a0 a0 40 64 60 30 20
66 00 49 ce 10 00 00 1a 60 6c 00 a0 a0 40 64 60
30 20 66 00 49 ce 10 00 00 1a 00 00 00 fd 00 1e
78 cc cc 37 01 0a 20 20 20 20 20 20 00 00 00 fc
00 4e 45 31 35 33 51 44 4d 2d 4e 59 31 0a 01 1d

70 20 79 02 00 2b 00 0c 27 00 1e 3b 00 00 27 00
30 77 00 00 81 00 15 74 1a 00 00 03 51 1e 78 00
00 5a 51 5a 51 78 00 00 00 00 00 00 00 00 00 00
00 00 00 00 00 00 00 00 00 00 00 00 00 00 00 00
00 00 00 00 00 00 00 00 00 00 00 00 00 00 00 00
00 00 00 00 00 00 00 00 00 00 00 00 00 00 00 00
00 00 00 00 00 00 00 00 00 00 00 00 00 00 00 00
00 00 00 00 00 00 00 00 00 00 00 00 00 00 04 90

00 ff ff ff ff ff ff 00 09 e5 6c 0d 00 00 00 00
30 22 01 04 b5 21 15 78 07 51 85 a7 54 4b 9d 24
0f 50 54 00 00 00 01 01 01 01 01 01 01 01 01 01
01 01 01 01 01 01 c0 d8 00 a0 a0 40 64 60 30 20
66 00 49 ce 10 00 00 1a 60 6c 00 a0 a0 40 64 60
30 20 66 00 49 ce 10 00 00 1a 00 00 00 fd 00 1e
78 cc cc 37 01 0a 20 20 20 20 20 20 00 00 00 fc
00 4e 45 31 35 33 51 44 4d 2d 4e 59 31 0a 01 1d

70 20 79 02 00 2b 00 0c 27 00 1e 3b 00 00 27 00
30 77 00 00 81 00 15 74 1a 00 00 03 51 1e 78 00
00 5a 51 5a 51 78 00 00 00 00 00 00 00 00 00 00
00 00 00 00 00 00 00 00 00 00 00 00 00 00 00 00
00 00 00 00 00 00 00 00 00 00 00 00 00 00 00 00
00 00 00 00 00 00 00 00 00 00 00 00 00 00 00 00
00 00 00 00 00 00 00 00 00 00 00 00 00 00 00 00
00 00 00 00 00 00 00 00 00 00 00 00 00 00 04 90

----------------

Block 0, Base EDID:
  EDID Structure Version & Revision: 1.4
  Vendor & Product Identification:
    Manufacturer: BOE
    Model: 3436
    Made in: week 48 of 2024
  Basic Display Parameters & Features:
    Digital display
    Bits per primary color channel: 10
    DisplayPort interface
    Maximum image size: 33 cm x 21 cm
    Gamma: 2.20
    Supported color formats: RGB 4:4:4
    Default (sRGB) color space is primary color space
    First detailed timing includes the native pixel format and preferred refresh rate
    Display is continuous frequency
  Color Characteristics:
    Red  : 0.6533, 0.3291
    Green: 0.2929, 0.6142
    Blue : 0.1425, 0.0585
    White: 0.3134, 0.3291
  Established Timings I & II: none
  Standard Timings: none
  Detailed Timing Descriptors:
    DTD 1:  2560x1600  120.000000 Hz  16:10   204.000 kHz    554.880000 MHz (329 mm x 206 mm)
                 Hfront   48 Hsync  32 Hback   80 Hpol P
                 Vfront    6 Vsync   6 Vback   88 Vpol N
    DTD 2:  2560x1600   60.000000 Hz  16:10   102.000 kHz    277.440000 MHz (329 mm x 206 mm)
                 Hfront   48 Hsync  32 Hback   80 Hpol P
                 Vfront    6 Vsync   6 Vback   88 Vpol N
    Display Range Limits:
      Monitor ranges (Bare Limits): 30-120 Hz V, 204-204 kHz H, max dotclock 550 MHz
    Display Product Name: 'NE153QDM-NY1'
  Extension blocks: 1
Checksum: 0x1d

----------------

Block 1, DisplayID Extension Block:
  Version: 2.0
  Extension Count: 0
  Display Product Primary Use Case: None of the listed primary use cases; generic display
  Adaptive Sync Data Block:
    Descriptor #1:
      Native Panel Range
      Fixed Average V-Total and Adaptive V-Total
      'Max Single Frame Duration Increase' field value without jitter impact
      'Max Single Frame Duration Decrease' field value without jitter impact
      Max Duration Increase: 0.00 ms
      Max Duration Decrease: 0.00 ms
      Min Refresh Rate: 30 Hz
      Max Refresh Rate: 60 Hz
    Descriptor #2:
      Native Panel Range
      Fixed Average V-Total and Adaptive V-Total
      'Max Single Frame Duration Increase' field value without jitter impact
      'Max Single Frame Duration Decrease' field value without jitter impact
      Max Duration Increase: 0.00 ms
      Max Duration Decrease: 0.00 ms
      Min Refresh Rate: 48 Hz
      Max Refresh Rate: 120 Hz
  CTA-861 DisplayID Data Block:
  Vendor-Specific Data Block (AMD), OUI 00-00-1A:
    Version: 3.81
    Minimum Refresh Rate: 30 Hz
    Maximum Refresh Rate: 120 Hz
    Flags 1.x: 0x00
    Flags 2.x: 0x00
    Maximum luminance: 90 (351.250 cd/m^2)
    Minimum luminance: 81 (0.354 cd/m^2)
    Unknown: 0x5a 0x51
  Checksum: 0x04
Checksum: 0x90

----------------

Block 2, Unknown EDID Extension Block 0x00:
  00 ff ff ff ff ff ff 00 09 e5 6c 0d 00 00 00 00 '..........l.....'
  30 22 01 04 b5 21 15 78 07 51 85 a7 54 4b 9d 24 '0"...!.x.Q..TK.$'
  0f 50 54 00 00 00 01 01 01 01 01 01 01 01 01 01 '.PT.............'
  01 01 01 01 01 01 c0 d8 00 a0 a0 40 64 60 30 20 '...........@d`0 '
  66 00 49 ce 10 00 00 1a 60 6c 00 a0 a0 40 64 60 'f.I.....`l...@d`'
  30 20 66 00 49 ce 10 00 00 1a 00 00 00 fd 00 1e '0 f.I...........'
  78 cc cc 37 01 0a 20 20 20 20 20 20 00 00 00 fc 'x..7..      ....'
  00 4e 45 31 35 33 51 44 4d 2d 4e 59 31 0a 01 1d '.NE153QDM-NY1...'
Checksum: 0x1d

----------------

Block 3, DisplayID Extension Block:
  Version: 2.0
  Extension Count: 0
  Adaptive Sync Data Block:
    Descriptor #1:
      Native Panel Range
      Fixed Average V-Total and Adaptive V-Total
      'Max Single Frame Duration Increase' field value without jitter impact
      'Max Single Frame Duration Decrease' field value without jitter impact
      Max Duration Increase: 0.00 ms
      Max Duration Decrease: 0.00 ms
      Min Refresh Rate: 30 Hz
      Max Refresh Rate: 60 Hz
    Descriptor #2:
      Native Panel Range
      Fixed Average V-Total and Adaptive V-Total
      'Max Single Frame Duration Increase' field value without jitter impact
      'Max Single Frame Duration Decrease' field value without jitter impact
      Max Duration Increase: 0.00 ms
      Max Duration Decrease: 0.00 ms
      Min Refresh Rate: 48 Hz
      Max Refresh Rate: 120 Hz
  CTA-861 DisplayID Data Block:
  Vendor-Specific Data Block (AMD), OUI 00-00-1A:
    Version: 3.81
    Minimum Refresh Rate: 30 Hz
    Maximum Refresh Rate: 120 Hz
    Flags 1.x: 0x00
    Flags 2.x: 0x00
    Maximum luminance: 90 (351.250 cd/m^2)
    Minimum luminance: 81 (0.354 cd/m^2)
    Unknown: 0x5a 0x51
  Checksum: 0x04
Checksum: 0x90

----------------

Warnings:

EDID:
  Base EDID: Some timings are out of range of the Monitor Ranges:
    Horizontal Freq: 102.000 - 204.000 kHz (Monitor: 204.000 - 204.000 kHz)
    Maximum Clock: 554.880 MHz (Monitor: 550.000 MHz)

Failures:

Block 0, Base EDID:
  Basic Display Parameters & Features: sRGB is signaled, but the chromaticities do not match.
Block 1, DisplayID Extension Block:
  Expected 0 DisplayID Extension Block, but got 1.
Block 2, Base EDID:
  Unknown Extension Block.
Block 3, DisplayID Extension Block:
  Product Type should be 0 in extension block.
EDID:
  Base EDID: EDID specified 1 extension block(s), but found 3 extension block(s).
  DisplayID: Missing DisplayID Product Identification Data Block.
  DisplayID: Missing DisplayID Display Parameters Data Block.
  DisplayID: Missing DisplayID Display Interface Features Data Block.
  DisplayID: Missing DisplayID Type VII Detailed Timing Data Block.
  DisplayID: DisplayID expects at least one preferred timing.

EDID conformity: FAIL
