
EDID (hex):
00ffffffffffff0006af415a01010101
01010103801d15780a859599574f8f26
21505400000001010101010101010101
01010101010164190040410026301888
36001ed6100000182815004041002630
188836001ed610000000000000fe004a
353539360042313431584739000000fe
00efdfcfbf90603a0001010a202000c0

Extracted contents:
header:          00 ff ff ff ff ff ff 00
serial number:   06 af 41 5a 01 01 01 01 01 01
version:         01 03
basic params:    80 1d 15 78 0a
chroma info:     85 95 99 57 4f 8f 26 21 50 54
established:     00 00 00
standard:        01 01 01 01 01 01 01 01 01 01 01 01 01 01 01 01
descriptor 1:    64 19 00 40 41 00 26 30 18 88 36 00 1e d6 10 00 00 18
descriptor 2:    28 15 00 40 41 00 26 30 18 88 36 00 1e d6 10 00 00 00
descriptor 3:    00 00 00 fe 00 4a 35 35 39 36 00 42 31 34 31 58 47 39
descriptor 4:    00 00 00 fe 00 ef df cf bf 90 60 3a 00 01 01 0a 20 20
extensions:      00
checksum:        c0

EDID version: 1.3
Manufacturer: AUO Model 5a41 Serial Number --
Digital display
Maximum image size: 29 cm x 21 cm
Gamma: 2.20
RGB color display
First detailed timing is preferred timing
Display x,y Chromaticity:
  Red:   0.5996, 0.3398
  Green: 0.3095, 0.5595
  Blue:  0.1503, 0.1298
  White: 0.3134, 0.3291
Established timings supported:
Standard timings supported:
Detailed mode: Clock 65.000 MHz, 286 mm x 214 mm
               1024 1048 1184 1344 hborder 0
                768  771  777  806 vborder 0
               -hsync -vsync 
               VertFreq: 60 Hz, HorFreq: 48363 Hz
Detailed mode: Clock 54.160 MHz, 286 mm x 214 mm
               1024 1048 1184 1344 hborder 0
                768  771  777  806 vborder 0
               -hsync -vsync analog composite 
               VertFreq: 49 Hz, HorFreq: 40297 Hz
ASCII string: J5596
ASCII string: 
Checksum: 0xc0 (valid)
EDID block does NOT conform to EDID 1.3!
	Missing name descriptor
	Missing monitor ranges
	Detailed block string not properly terminated
EDID block does not conform at all!
	Bad year of manufacture
