
EDID (hex):
00ffffffffffff0009e5180b00000000
0c200104a51e1278032095a8534d9a25
0f505400000001010101010101010101
010101010101743c80a070b028403020
35002dbc1000001a5d3080a070b02840
302035002dbc1000001a000000fe0033
59594437804e45313430575500000000
00024121a8000100000a010a20200024

edid-decode (hex):

00 ff ff ff ff ff ff 00 09 e5 18 0b 00 00 00 00
0c 20 01 04 a5 1e 12 78 03 20 95 a8 53 4d 9a 25
0f 50 54 00 00 00 01 01 01 01 01 01 01 01 01 01
01 01 01 01 01 01 74 3c 80 a0 70 b0 28 40 30 20
35 00 2d bc 10 00 00 1a 5d 30 80 a0 70 b0 28 40
30 20 35 00 2d bc 10 00 00 1a 00 00 00 fe 00 33
59 59 44 37 80 4e 45 31 34 30 57 55 00 00 00 00
00 02 41 21 a8 00 01 00 00 0a 01 0a 20 20 00 24

----------------

Block 0, Base EDID:
  EDID Structure Version & Revision: 1.4
  Vendor & Product Identification:
    Manufacturer: BOE
    Model: 2840
    Made in: week 12 of 2022
  Basic Display Parameters & Features:
    Digital display
    Bits per primary color channel: 8
    DisplayPort interface
    Maximum image size: 30 cm x 18 cm
    Gamma: 2.20
    Supported color formats: RGB 4:4:4
    First detailed timing includes the native pixel format and preferred refresh rate
    Display is continuous frequency
  Color Characteristics:
    Red  : 0.6562, 0.3261
    Green: 0.3007, 0.6015
    Blue : 0.1464, 0.0595
    White: 0.3134, 0.3291
  Established Timings I & II: none
  Standard Timings: none
  Detailed Timing Descriptors:
    DTD 1:  1920x1200   60.003102 Hz  16:10    74.404 kHz    154.760000 MHz (301 mm x 188 mm)
                 Hfront   48 Hsync  32 Hback   80 Hpol P
                 Vfront    3 Vsync   5 Vback   32 Vpol N
    DTD 2:  1920x1200   48.003257 Hz  16:10    59.524 kHz    123.810000 MHz (301 mm x 188 mm)
                 Hfront   48 Hsync  32 Hback   80 Hpol P
                 Vfront    3 Vsync   5 Vback   32 Vpol N
    Alphanumeric Data String: '3YYD7'
    Manufacturer-Specified Display Descriptor (0x00): 00 00 00 02 41 21 a8 00 01 00 00 0a 01 0a 20 20 '....A!........  '
Checksum: 0x24
