
EDID (hex):
00ffffffffffff000d04400201000000
2e1e0103b4351e7828ce65a657519f27
0f5054bfef0031404540614081c08180
9500b3000101023a801871382d40582c
4500122c2100001e000000fd00304b1e
5514000a202020202020000000ff0030
303030303030303030303031000000fc
00444d2d4d4f4e46323431300a2001ab
020323f147901f041303120123090707
8301000065030c001000681a00000101
304be6504480a0703829403020350012
2c2100001ed12640a060842930302035
0000000000001e000000000000000000
00000000000000000000000000000000
00000000000000000000000000000000
0000000000000000000000000000001f

Extracted contents:
header:          00 ff ff ff ff ff ff 00
serial number:   0d 04 40 02 01 00 00 00 2e 1e
version:         01 03
basic params:    b4 35 1e 78 28
chroma info:     ce 65 a6 57 51 9f 27 0f 50 54
established:     bf ef 00
standard:        31 40 45 40 61 40 81 c0 81 80 95 00 b3 00 01 01
descriptor 1:    02 3a 80 18 71 38 2d 40 58 2c 45 00 12 2c 21 00 00 1e
descriptor 2:    00 00 00 fd 00 30 4b 1e 55 14 00 0a 20 20 20 20 20 20
descriptor 3:    00 00 00 ff 00 30 30 30 30 30 30 30 30 30 30 30 30 31
descriptor 4:    00 00 00 fc 00 44 4d 2d 4d 4f 4e 46 32 34 31 30 0a 20
extensions:      01
checksum:        ab

EDID version: 1.3
Manufacturer: CHD Model 240 Serial Number --
Made in week 46 of 2020
Digital display
Maximum image size: 53 cm x 30 cm
Gamma: 2.20
DPMS levels: Off
RGB color display
Display x,y Chromaticity:
  Red:   0.6513, 0.3398
  Green: 0.3193, 0.6230
  Blue:  0.1533, 0.0605
  White: 0.3134, 0.3291
Established timings supported:
  720x400@70Hz 9:5 HorFreq: 31469 Hz Clock: 28.320 MHz
  640x480@60Hz 4:3 HorFreq: 31469 Hz Clock: 25.175 MHz
  640x480@67Hz 4:3 HorFreq: 35000 Hz Clock: 30.240 MHz
  640x480@72Hz 4:3 HorFreq: 37900 Hz Clock: 31.500 MHz
  640x480@75Hz 4:3 HorFreq: 37500 Hz Clock: 31.500 MHz
  800x600@56Hz 4:3 HorFreq: 35200 Hz Clock: 36.000 MHz
  800x600@60Hz 4:3 HorFreq: 37900 Hz Clock: 40.000 MHz
  800x600@72Hz 4:3 HorFreq: 48100 Hz Clock: 50.000 MHz
  800x600@75Hz 4:3 HorFreq: 46900 Hz Clock: 49.500 MHz
  832x624@75Hz 4:3 HorFreq: 49726 Hz Clock: 57.284 MHz
  1024x768@60Hz 4:3 HorFreq: 48400 Hz Clock: 65.000 MHz
  1024x768@70Hz 4:3 HorFreq: 56500 Hz Clock: 75.000 MHz
  1024x768@75Hz 4:3 HorFreq: 60000 Hz Clock: 78.750 MHz
  1280x1024@75Hz 5:4 HorFreq: 80000 Hz Clock: 135.000 MHz
Standard timings supported:
  640x480@60Hz 4:3 HorFreq: 31469 Hz Clock: 25.175 MHz
  800x600@60Hz 4:3 HorFreq: 37900 Hz Clock: 40.000 MHz
  1024x768@60Hz 4:3 HorFreq: 48400 Hz Clock: 65.000 MHz
  1280x720@60Hz 16:9
  1280x1024@60Hz 5:4 HorFreq: 64000 Hz Clock: 108.000 MHz
  1440x900@60Hz 16:10 HorFreq: 55500 Hz Clock: 88.750 MHz
  1680x1050@60Hz 16:10 HorFreq: 64700 Hz Clock: 119.000 MHz
Detailed mode: Clock 148.500 MHz, 530 mm x 300 mm
               1920 2008 2052 2200 hborder 0
               1080 1084 1089 1125 vborder 0
               +hsync +vsync 
               VertFreq: 60 Hz, HorFreq: 67500 Hz
Monitor ranges (GTF): 48-75Hz V, 30-85kHz H, max dotclock 200MHz
Serial number: --
Monitor name: DM-MONF2410
Has 1 extension blocks
Checksum: 0xab (valid)

CTA extension block
Extension version: 3
31 bytes of CTA data
  Video data block
    VIC  16 1920x1080@60Hz 16:9 (native) HorFreq: 67500 Hz Clock: 148.500 MHz
    VIC  31 1920x1080@50Hz 16:9  HorFreq: 56250 Hz Clock: 148.500 MHz
    VIC   4 1280x720@60Hz 16:9  HorFreq: 45000 Hz Clock: 74.250 MHz
    VIC  19 1280x720@50Hz 16:9  HorFreq: 37500 Hz Clock: 74.250 MHz
    VIC   3 720x480@60Hz 16:9  HorFreq: 31469 Hz Clock: 27.000 MHz
    VIC  18 720x576@50Hz 16:9  HorFreq: 31250 Hz Clock: 27.000 MHz
    VIC   1 640x480@60Hz 4:3  HorFreq: 31469 Hz Clock: 25.175 MHz
  Audio data block
    Linear PCM, max channels 2
      Supported sample rates (kHz): 48 44.1 32
      Supported sample sizes (bits): 24 20 16
  Speaker allocation data block
    Speaker map:
      FL/FR - Front Left/Right
  Vendor-specific data block, OUI 000c03 (HDMI)
    Source physical address 1.0.0.0
  Vendor-specific data block, OUI 00001a
Underscans PC formats by default
Basic audio support
Supports YCbCr 4:4:4
Supports YCbCr 4:2:2
1 native detailed modes
Detailed mode: Clock 174.880 MHz, 530 mm x 300 mm
               1920 1968 2000 2080 hborder 0
               1080 1083 1088 1121 vborder 0
               +hsync +vsync 
               VertFreq: 75 Hz, HorFreq: 84076 Hz
Detailed mode: Clock 99.370 MHz, 0 mm x 0 mm
               1600 1648 1680 1760 hborder 0
                900  903  908  941 vborder 0
               +hsync +vsync 
               VertFreq: 60 Hz, HorFreq: 56460 Hz
Checksum: 0x1f (valid)

EDID block does NOT conform to EDID 1.3!
	Digital display field contains garbage: 34
	Missing preferred timing
EDID block does not conform at all!
	Both the serial number and the serial string are set
