edid-decode (hex):

00 ff ff ff ff ff ff 00 4c a3 4e 44 00 00 00 00
00 12 01 03 80 1f 11 78 0a 85 95 99 57 4f 8f 26
21 50 54 00 00 00 01 01 01 01 01 01 01 01 01 01
01 01 01 01 01 01 1c 2a 40 4c 61 84 1e 30 30 20
25 00 36 ae 10 00 00 19 00 00 00 0f 00 00 00 00
00 00 00 00 00 2e fa 06 78 00 00 00 00 fe 00 53
41 4d 53 55 4e 47 0a 20 20 20 20 20 00 00 00 fe
00 31 34 30 4b 54 30 31 2d 33 30 31 0a 20 00 da

----------------

Block 0, Base EDID:
  EDID Structure Version & Revision: 1.3
  Vendor & Product Identification:
    Manufacturer: SEC
    Model: 17486
    Made in: 2008
  Basic Display Parameters & Features:
    Digital display
    Maximum image size: 31 cm x 17 cm
    Gamma: 2.20
    RGB color display
    First detailed timing is the preferred timing
  Color Characteristics:
    Red  : 0.5996, 0.3398
    Green: 0.3095, 0.5595
    Blue : 0.1503, 0.1298
    White: 0.3134, 0.3291
  Established Timings I & II: none
  Standard Timings: none
  Detailed Timing Descriptors:
    DTD 1:  1600x900    59.997 Hz  16:9    55.797 kHz 107.800 MHz (310 mm x 174 mm)
                 Hfront   48 Hsync  32 Hback 252 Hpol N
                 Vfront    2 Vsync   5 Vback  23 Vpol N
    Manufacturer-Specified Display Descriptor (0x0f): 00 0f 00 00 00 00 00 00 00 00 00 2e fa 06 78 00 '..............x.'
    Alphanumeric Data String: 'SAMSUNG'
    Alphanumeric Data String: '140KT01-301'
Checksum: 0xda

----------------

Failures:

Block 0, Base EDID:
  Missing Display Product Name.
  Missing Display Range Limits Descriptor.

EDID conformity: FAIL
