
EDID (hex):
00ffffffffffff004a8b822400000000
1515010380331c78eab4b0a555489a26
125054210800a9c095c081c001010101
010101010101023a801871382d40582c
4500fd1e1100001e000000ff00303030
3030310a0a0a0a0a0a0a000000fd0032
4b1e550f000a202020202020000000fc
0043504c2041494f2050430a202000e4

Extracted contents:
header:          00 ff ff ff ff ff ff 00
serial number:   4a 8b 82 24 00 00 00 00 15 15
version:         01 03
basic params:    80 33 1c 78 ea
chroma info:     b4 b0 a5 55 48 9a 26 12 50 54
established:     21 08 00
standard:        a9 c0 95 c0 81 c0 01 01 01 01 01 01 01 01 01 01
descriptor 1:    02 3a 80 18 71 38 2d 40 58 2c 45 00 fd 1e 11 00 00 1e
descriptor 2:    00 00 00 ff 00 30 30 30 30 30 31 0a 0a 0a 0a 0a 0a 0a
descriptor 3:    00 00 00 fd 00 32 4b 1e 55 0f 00 0a 20 20 20 20 20 20
descriptor 4:    00 00 00 fc 00 43 50 4c 20 41 49 4f 20 50 43 0a 20 20
extensions:      00
checksum:        e4

EDID version: 1.3
Manufacturer: RTK Model 2482 Serial Number --
Made in week 21 of 2011
Digital display
Maximum image size: 51 cm x 28 cm
Gamma: 2.20
DPMS levels: Standby Suspend Off
RGB color display
First detailed timing is preferred timing
Display x,y Chromaticity:
  Red:   0.6464, 0.3349
  Green: 0.2822, 0.6015
  Blue:  0.1503, 0.0732
  White: 0.3125, 0.3281
Established timings supported:
  640x480@60Hz 4:3 HorFreq: 31469 Hz Clock: 25.175 MHz
  800x600@60Hz 4:3 HorFreq: 37900 Hz Clock: 40.000 MHz
  1024x768@60Hz 4:3 HorFreq: 48400 Hz Clock: 65.000 MHz
Standard timings supported:
  1600x900@60Hz 16:9
  1440x810@60Hz 16:9
  1280x720@60Hz 16:9
Detailed mode: Clock 148.500 MHz, 509 mm x 286 mm
               1920 2008 2052 2200 hborder 0
               1080 1084 1089 1125 vborder 0
               +hsync +vsync 
               VertFreq: 60 Hz, HorFreq: 67500 Hz
Serial number: --
Monitor ranges (GTF): 50-75Hz V, 30-85kHz H, max dotclock 150MHz
Monitor name: CPL AIO PC
Checksum: 0xe4 (valid)
EDID block does NOT conform to EDID 1.3!
	Detailed block string not properly terminated
