edid-decode (hex):

00 ff ff ff ff ff ff 00 17 0e 00 00 00 00 00 00
00 13 01 03 80 00 00 78 ee 00 00 00 00 00 00 00
00 00 00 a5 00 00 45 40 01 01 01 01 01 01 01 01
01 01 01 01 01 01 a0 0f 20 00 31 58 1c 20 28 80
14 00 20 58 32 00 00 1e 00 00 00 ff 00 38 30 30
78 36 30 30 20 36 30 20 20 20 00 00 00 fd 00 17
4c 0e 5c 11 00 0a 20 20 20 20 20 20 00 00 00 fc
20 45 78 74 72 6f 6e 20 44 20 20 20 20 20 00 c4

00 ff ff ff ff ff ff 00 17 0e 00 00 00 00 00 00
00 13 01 03 80 00 00 78 ee 00 00 00 00 00 00 00
00 00 00 a5 00 00 45 40 01 01 01 01 01 01 01 01
01 01 01 01 01 01 a0 0f 20 00 31 58 1c 20 28 80
14 00 20 58 32 00 00 1e 00 00 00 ff 00 38 30 30
78 36 30 30 20 36 30 20 20 20 00 00 00 fd 00 17
4c 0e 5c 11 00 0a 20 20 20 20 20 20 00 00 00 fc
20 45 78 74 72 6f 6e 20 44 20 20 20 20 20 00 c4

----------------

Block 0, Base EDID:
  EDID Structure Version & Revision: 1.3
  Vendor & Product Identification:
    Manufacturer: EXN
    Model: 0
    Made in: 2009
  Basic Display Parameters & Features:
    Digital display
    Image size is variable
    Gamma: 2.20
    DPMS levels: Standby Suspend Off
    RGB color display
    Default (sRGB) color space is primary color space
    First detailed timing is the preferred timing
  Color Characteristics:
    Red  : 0.0000, 0.0000
    Green: 0.0000, 0.0000
    Blue : 0.0000, 0.0000
    White: 0.0000, 0.0000
  Established Timings I & II:
    IBM     :   720x400    70.081663 Hz   9:5     31.467 kHz     28.320000 MHz
    DMT 0x04:   640x480    59.940476 Hz   4:3     31.469 kHz     25.175000 MHz
    DMT 0x06:   640x480    75.000000 Hz   4:3     37.500 kHz     31.500000 MHz
    DMT 0x09:   800x600    60.316541 Hz   4:3     37.879 kHz     40.000000 MHz
  Standard Timings:
    DMT 0x09:   800x600    60.316541 Hz   4:3     37.879 kHz     40.000000 MHz
  Detailed Timing Descriptors:
    DTD 1:   800x600    60.316541 Hz   4:3     37.879 kHz     40.000000 MHz (800 mm x 600 mm)
                 Hfront   40 Hsync 128 Hback   88 Hpol P
                 Vfront    1 Vsync   4 Vback   23 Vpol P
    Display Product Serial Number: ...
    Display Range Limits:
      Monitor ranges (GTF): 23-76 Hz V, 14-92 kHz H, max dotclock 170 MHz
    Display Product Name: 'Extron D     '
Checksum: 0xc4

----------------

Block 1, Unknown EDID Extension Block 0x00:
  00 ff ff ff ff ff ff 00 17 0e 00 00 00 00 00 00 '................'
  00 13 01 03 80 00 00 78 ee 00 00 00 00 00 00 00 '.......x........'
  00 00 00 a5 00 00 45 40 01 01 01 01 01 01 01 01 '......E@........'
  01 01 01 01 01 01 a0 0f 20 00 31 58 1c 20 28 80 '........ .1X. (.'
  14 00 20 58 32 00 00 1e 00 00 00 ff 00 38 30 30 '.. X2........800'
  78 36 30 30 20 36 30 20 20 20 00 00 00 fd 00 17 'x600 60   ......'
  4c 0e 5c 11 00 0a 20 20 20 20 20 20 00 00 00 fc 'L.\...      ....'
  20 45 78 74 72 6f 6e 20 44 20 20 20 20 20 00 c4 ' Extron D     ..'
Checksum: 0xc4

----------------

Failures:

Block 0, Base EDID:
  Basic Display Parameters & Features: sRGB is signaled, but the chromaticities do not match.
  Display Product Serial Number: ...
  Display Descriptor #4: Monitor descriptor block has byte 4 nonzero (0x20).
  Display Product Name: One or more trailing spaces.
Block 1, Base EDID:
  Unknown Extension Block.
EDID:
  Base EDID: The DTD max image size is 800x600mm, but the display size is not specified anywhere.
  Base EDID: EDID specified 0 extension block(s), but found 1 extension block(s).

EDID conformity: FAIL
