
EDID (hex):
00ffffffffffff00320c011900000000
00110102802115780a19459758538b28
24505400000001010101010101010101
0101010101015e339070611a14404060
46004bcf100000190000000000000000
00000000000000000000000000fe004c
475068696c6970734c43440a000000fe
004c503135345745322d544c41340023

Extracted contents:
header:          00 ff ff ff ff ff ff 00
serial number:   32 0c 01 19 00 00 00 00 00 11
version:         01 02
basic params:    80 21 15 78 0a
chroma info:     19 45 97 58 53 8b 28 24 50 54
established:     00 00 00
standard:        01 01 01 01 01 01 01 01 01 01 01 01 01 01 01 01
descriptor 1:    5e 33 90 70 61 1a 14 40 40 60 46 00 4b cf 10 00 00 19
descriptor 2:    00 00 00 00 00 00 00 00 00 00 00 00 00 00 00 00 00 00
descriptor 3:    00 00 00 fe 00 4c 47 50 68 69 6c 69 70 73 4c 43 44 0a
descriptor 4:    00 00 00 fe 00 4c 50 31 35 34 57 45 32 2d 54 4c 41 34
extensions:      00
checksum:        23

EDID version: 1.2
Manufacturer: LPL Model 1901 Serial Number --
Made in year 2007
Digital display
Maximum image size: 33 cm x 21 cm
Gamma: 2.20
RGB color display
First detailed timing is preferred timing
Display x,y Chromaticity:
  Red:   0.5898, 0.3447
  Green: 0.3261, 0.5439
  Blue:  0.1572, 0.1406
  White: 0.3134, 0.3291
Established timings supported:
Standard timings supported:
Detailed mode: Clock 131.500 MHz, 331 mm x 207 mm
               1680 1744 1840 2048 hborder 0
               1050 1054 1060 1070 vborder 0
               -hsync -vsync 
               VertFreq: 60 Hz, HorFreq: 64208 Hz
Manufacturer-specified data, tag 0
ASCII string: LGPhilipsLCD
ASCII string: LP154WE2-TLA4
Checksum: 0x23 (valid)
