
EDID (hex):
00ffffffffffff00410c521e01010101
1b110103804728788a288e9e55489724
16484badce0031594559615981800101
010101010101f339801871382d40582c
4500c48e21000018662150b051001b30
40703600c48e21000018000000fc0031
30383070205456202833290a000000fd
002f551f500e000a2020202020200131

Extracted contents:
header:          00 ff ff ff ff ff ff 00
serial number:   41 0c 52 1e 01 01 01 01 1b 11
version:         01 03
basic params:    80 47 28 78 8a
chroma info:     28 8e 9e 55 48 97 24 16 48 4b
established:     ad ce 00
standard:        31 59 45 59 61 59 81 80 01 01 01 01 01 01 01 01
descriptor 1:    f3 39 80 18 71 38 2d 40 58 2c 45 00 c4 8e 21 00 00 18
descriptor 2:    66 21 50 b0 51 00 1b 30 40 70 36 00 c4 8e 21 00 00 18
descriptor 3:    00 00 00 fc 00 31 30 38 30 70 20 54 56 20 28 33 29 0a
descriptor 4:    00 00 00 fd 00 2f 55 1f 50 0e 00 0a 20 20 20 20 20 20
extensions:      01
checksum:        31

EDID version: 1.3
Manufacturer: PHL Model 1e52 Serial Number --
Made in week 27 of 2007
Digital display
Maximum image size: 71 cm x 40 cm
Gamma: 2.20
DPMS levels: Standby
RGB color display
First detailed timing is preferred timing
Display x,y Chromaticity:
  Red:   0.6171, 0.3339
  Green: 0.2832, 0.5898
  Blue:  0.1425, 0.0859
  White: 0.2841, 0.2949
Established timings supported:
  720x400@70Hz 9:5 HorFreq: 31469 Hz Clock: 28.320 MHz
  640x480@60Hz 4:3 HorFreq: 31469 Hz Clock: 25.175 MHz
  640x480@72Hz 4:3 HorFreq: 37900 Hz Clock: 31.500 MHz
  640x480@75Hz 4:3 HorFreq: 37500 Hz Clock: 31.500 MHz
  800x600@60Hz 4:3 HorFreq: 37900 Hz Clock: 40.000 MHz
  800x600@72Hz 4:3 HorFreq: 48100 Hz Clock: 50.000 MHz
  800x600@75Hz 4:3 HorFreq: 46900 Hz Clock: 49.500 MHz
  1024x768@60Hz 4:3 HorFreq: 48400 Hz Clock: 65.000 MHz
  1024x768@70Hz 4:3 HorFreq: 56500 Hz Clock: 75.000 MHz
  1024x768@75Hz 4:3 HorFreq: 60000 Hz Clock: 78.750 MHz
Standard timings supported:
  640x480@85Hz 4:3 HorFreq: 43300 Hz Clock: 36.000 MHz
  800x600@85Hz 4:3 HorFreq: 53700 Hz Clock: 56.250 MHz
  1024x768@85Hz 4:3 HorFreq: 68700 Hz Clock: 94.500 MHz
  1280x1024@60Hz 5:4 HorFreq: 64000 Hz Clock: 108.000 MHz
Detailed mode: Clock 148.350 MHz, 708 mm x 398 mm
               1920 2008 2052 2200 hborder 0
               1080 1084 1089 1125 vborder 0
               -hsync -vsync 
               VertFreq: 59 Hz, HorFreq: 67431 Hz
Detailed mode: Clock 85.500 MHz, 708 mm x 398 mm
               1360 1424 1536 1792 hborder 0
                768  771  777  795 vborder 0
               -hsync -vsync 
               VertFreq: 60 Hz, HorFreq: 47712 Hz
Monitor name: 1080p TV (3)
Monitor ranges (GTF): 47-85Hz V, 31-80kHz H, max dotclock 140MHz
Has 1 extension blocks
Checksum: 0x31 (valid)
One or more of the timings is out of range of the Monitor Ranges:
  Vertical Freq: 59 - 85 Hz
  Horizontal Freq: 31469 - 68700 Hz
  Maximum Clock: 148.350 MHz
