
EDID (hex):
00ffffffffffff00320c7b0100000000
00120103902115780a46559658568f27
1f505400000001010101010101010101
010101010101a325a02651841a303020
36004bcf1000001ba325a02651841a30
302036004bcf1000001b000000fe004c
47453030803135345750320a00000000
003c587490acc8e4ff02010a20200027

Extracted contents:
header:          00 ff ff ff ff ff ff 00
serial number:   32 0c 7b 01 00 00 00 00 00 12
version:         01 03
basic params:    90 21 15 78 0a
chroma info:     46 55 96 58 56 8f 27 1f 50 54
established:     00 00 00
standard:        01 01 01 01 01 01 01 01 01 01 01 01 01 01 01 01
descriptor 1:    a3 25 a0 26 51 84 1a 30 30 20 36 00 4b cf 10 00 00 1b
descriptor 2:    a3 25 a0 26 51 84 1a 30 30 20 36 00 4b cf 10 00 00 1b
descriptor 3:    00 00 00 fe 00 4c 47 45 30 30 80 31 35 34 57 50 32 0a
descriptor 4:    00 00 00 00 00 3c 58 74 90 ac c8 e4 ff 02 01 0a 20 20
extensions:      00
checksum:        27

EDID version: 1.3
Manufacturer: LPL Model 17b Serial Number --
Made in year 2008
Digital display
Maximum image size: 33 cm x 21 cm
Gamma: 2.20
RGB color display
First detailed timing is preferred timing
Display x,y Chromaticity:
  Red:   0.5869, 0.3437
  Green: 0.3369, 0.5605
  Blue:  0.1533, 0.1220
  White: 0.3134, 0.3291
Established timings supported:
Standard timings supported:
Detailed mode: Clock 96.350 MHz, 331 mm x 207 mm
               1440 1488 1520 1734 hborder 0
                900  903  909  926 vborder 0
               +hsync -vsync 
               VertFreq: 60 Hz, HorFreq: 55565 Hz
Detailed mode: Clock 96.350 MHz, 331 mm x 207 mm
               1440 1488 1520 1734 hborder 0
                900  903  909  926 vborder 0
               +hsync -vsync 
               VertFreq: 60 Hz, HorFreq: 55565 Hz
ASCII string: LGE00
Manufacturer-specified data, tag 0
Checksum: 0x27 (valid)
EDID block does NOT conform to EDID 1.3!
	Digital display field contains garbage: 10
	Missing name descriptor
	Missing monitor ranges
	Detailed block string not properly terminated
