
EDID (hex):
00ffffffffffff0006af876200000000
01110103802517780a1cf59758508e27
27505400000001010101010101010101
0101010101019e25a04051840c30d020
36006fe5100000180000000f00000000
00000000000000000020000000fe0041
554f0a200020202020202020000000fe
004231373050573036205632200a000b

Extracted contents:
header:          00 ff ff ff ff ff ff 00
serial number:   06 af 87 62 00 00 00 00 01 11
version:         01 03
basic params:    80 25 17 78 0a
chroma info:     1c f5 97 58 50 8e 27 27 50 54
established:     00 00 00
standard:        01 01 01 01 01 01 01 01 01 01 01 01 01 01 01 01
descriptor 1:    9e 25 a0 40 51 84 0c 30 d0 20 36 00 6f e5 10 00 00 18
descriptor 2:    00 00 00 0f 00 00 00 00 00 00 00 00 00 00 00 00 00 20
descriptor 3:    00 00 00 fe 00 41 55 4f 0a 20 00 20 20 20 20 20 20 20
descriptor 4:    00 00 00 fe 00 42 31 37 30 50 57 30 36 20 56 32 20 0a
extensions:      00
checksum:        0b

EDID version: 1.3
Manufacturer: AUO Model 6287 Serial Number --
Made in week 1 of 2007
Digital display
Maximum image size: 37 cm x 23 cm
Gamma: 2.20
RGB color display
First detailed timing is preferred timing
Display x,y Chromaticity:
  Red:   0.5898, 0.3447
  Green: 0.3154, 0.5546
  Blue:  0.1552, 0.1552
  White: 0.3134, 0.3291
Established timings supported:
Standard timings supported:
Detailed mode: Clock 96.300 MHz, 367 mm x 229 mm
               1440 1648 1680 1760 hborder 0
                900  903  909  912 vborder 0
               -hsync -vsync 
               VertFreq: 59 Hz, HorFreq: 54715 Hz
Manufacturer-specified data, tag 15
ASCII string: AUO
ASCII string: B170PW06 V2 
Checksum: 0xb (valid)
EDID block does NOT conform to EDID 1.3!
	Missing name descriptor
	Missing monitor ranges
	Detailed block string not properly terminated
