
EDID (hex):
00ffffffffffff0030e45a0400000000
00180104951d11780a84759459579228
1f505400000001010101010101010101
010101010101ce1d56f2500016303020
350025a5100000190000000000000000
00000000000000000000000000fe004c
4720446973706c61790a2020000000fe
004c503133335748332d535041310011

Extracted contents:
header:          00 ff ff ff ff ff ff 00
serial number:   30 e4 5a 04 00 00 00 00 00 18
version:         01 04
basic params:    95 1d 11 78 0a
chroma info:     84 75 94 59 57 92 28 1f 50 54
established:     00 00 00
standard:        01 01 01 01 01 01 01 01 01 01 01 01 01 01 01 01
descriptor 1:    ce 1d 56 f2 50 00 16 30 30 20 35 00 25 a5 10 00 00 19
descriptor 2:    00 00 00 00 00 00 00 00 00 00 00 00 00 00 00 00 00 00
descriptor 3:    00 00 00 fe 00 4c 47 20 44 69 73 70 6c 61 79 0a 20 20
descriptor 4:    00 00 00 fe 00 4c 50 31 33 33 57 48 33 2d 53 50 41 31
extensions:      00
checksum:        11

EDID version: 1.4
Manufacturer: LGD Model 45a Serial Number --
Made in year 2014
Digital display
6 bits per primary color channel
DisplayPort interface
Maximum image size: 29 cm x 17 cm
Gamma: 2.20
Supported color formats: RGB 4:4:4, YCrCb 4:4:4
First detailed timing includes the native pixel format and preferred refresh rate
Display x,y Chromaticity:
  Red:   0.5800, 0.3476
  Green: 0.3408, 0.5703
  Blue:  0.1572, 0.1240
  White: 0.3134, 0.3291
Established timings supported:
Standard timings supported:
Detailed mode: Clock 76.300 MHz, 293 mm x 165 mm
               1366 1414 1446 1608 hborder 0
                768  771  776  790 vborder 0
               -hsync -vsync 
               VertFreq: 60 Hz, HorFreq: 47450 Hz
Manufacturer-specified data, tag 0
ASCII string: LG Display
ASCII string: LP133WH3-SPA1
Checksum: 0x11 (valid)
EDID block does NOT conform to EDID 1.4!
	Missing name descriptor
	Missing monitor ranges
