edid-decode (hex):

00 ff ff ff ff ff ff 00 06 af ec 22 00 00 00 00
01 13 01 03 90 22 13 78 0a c8 95 9e 57 54 92 26
0f 50 54 00 00 00 01 01 01 01 01 01 01 01 01 01
01 01 01 01 01 01 6e 19 56 20 50 00 08 30 10 08
34 00 58 c1 10 00 00 1a 6e 19 56 20 50 00 08 30
10 08 34 00 58 c1 10 00 00 1a 00 00 00 fe 00 31
4a 43 32 4e 80 42 31 35 36 58 57 32 00 00 00 00
00 00 00 00 00 00 00 00 00 01 01 0a 20 20 00 d4

----------------

Block 0, Base EDID:
  EDID Structure Version & Revision: 1.3
  Vendor & Product Identification:
    Manufacturer: AUO
    Model: 8940
    Made in: week 1 of 2009
  Basic Display Parameters & Features:
    Digital display
    Maximum image size: 34 cm x 19 cm
    Gamma: 2.20
    RGB color display
    First detailed timing is the preferred timing
  Color Characteristics:
    Red  : 0.6201, 0.3398
    Green: 0.3300, 0.5703
    Blue : 0.1503, 0.0595
    White: 0.3134, 0.3291
  Established Timings I & II: none
  Standard Timings: none
  Detailed Timing Descriptors:
    DTD 1:  1366x768    60.008407 Hz 683:384   46.567 kHz     65.100000 MHz (344 mm x 193 mm)
                 Hfront   16 Hsync   8 Hback    8 Hpol P
                 Vfront    3 Vsync   4 Vback    1 Vpol N
    DTD 2:  1366x768    60.008407 Hz 683:384   46.567 kHz     65.100000 MHz (344 mm x 193 mm)
                 Hfront   16 Hsync   8 Hback    8 Hpol P
                 Vfront    3 Vsync   4 Vback    1 Vpol N
    Alphanumeric Data String: '1JC2N'
    Manufacturer-Specified Display Descriptor (0x00): 00 00 00 00 00 00 00 00 00 00 00 01 01 0a 20 20 '..............  '
Checksum: 0xd4

----------------

Failures:

Block 0, Base EDID:
  Basic Display Parameters & Features: Digital Video Interface Standard set to reserved value 0x10.
  Alphanumeric Data String: Non-printable character.
  Missing Display Product Name.
  Missing Display Range Limits Descriptor.

EDID conformity: FAIL
