
EDID (hex):
00ffffffffffff003666031007062120
2d1f0103800b1378aab065a656539d28
0c505400000001010101010101010101
0101010101017e6b40a4600028a04408
800171b50000001e551d20a030002e50
200aa00171b50000001e993db0a44080
18704408c40071b50000001a000000fc
00545630383057554d2d4e4c3020010a
02031015d05020002e50200aa00171b5
ba2c1aa0409028604008840171b50000
001e4a29848c30403860300aa80171b5
0000001e963738a84080447028088001
71b50000001eda1bd08c200028504008
a00171b50000001e7431b09440403060
3808800171b50000001e000000000000
00000000000000000000000000000042

Extracted contents:
header:          00 ff ff ff ff ff ff 00
serial number:   36 66 03 10 07 06 21 20 2d 1f
version:         01 03
basic params:    80 0b 13 78 aa
chroma info:     b0 65 a6 56 53 9d 28 0c 50 54
established:     00 00 00
standard:        01 01 01 01 01 01 01 01 01 01 01 01 01 01 01 01
descriptor 1:    7e 6b 40 a4 60 00 28 a0 44 08 80 01 71 b5 00 00 00 1e
descriptor 2:    55 1d 20 a0 30 00 2e 50 20 0a a0 01 71 b5 00 00 00 1e
descriptor 3:    99 3d b0 a4 40 80 18 70 44 08 c4 00 71 b5 00 00 00 1a
descriptor 4:    00 00 00 fc 00 54 56 30 38 30 57 55 4d 2d 4e 4c 30 20
extensions:      01
checksum:        0a

EDID version: 1.3
Manufacturer: MSF Model 1003 Serial Number --
Made in week 45 of 2021
Digital display
Maximum image size: 11 cm x 19 cm
Gamma: 2.20
DPMS levels: Standby Off
RGB color display
First detailed timing is preferred timing
Display x,y Chromaticity:
  Red:   0.6503, 0.3388
  Green: 0.3242, 0.6132
  Blue:  0.1572, 0.0488
  White: 0.3134, 0.3291
Established timings supported:
Standard timings supported:
Detailed mode: Clock 275.180 MHz, 113 mm x 181 mm
               1600 1668 1676 1764 hborder 0
               2560 2568 2584 2600 vborder 0
               +hsync +vsync 
               VertFreq: 59 Hz, HorFreq: 155997 Hz
Detailed mode: Clock 75.090 MHz, 113 mm x 181 mm
                800  832  842  960 hborder 0
               1280 1290 1306 1326 vborder 0
               +hsync +vsync 
               VertFreq: 58 Hz, HorFreq: 78218 Hz
Detailed mode: Clock 157.690 MHz, 113 mm x 181 mm
               1200 1268 1276 1364 hborder 0
               1920 1932 1936 1944 vborder 0
               +hsync -vsync 
               VertFreq: 59 Hz, HorFreq: 115608 Hz
Has 1 extension blocks
Checksum: 0xa (valid)

CTA extension block
Extension version: 3
12 bytes of CTA data
  Unknown tag 6, length 16 (raw d0)
Supports YCbCr 4:2:2
5 native detailed modes
Detailed mode: Clock 114.500 MHz, 113 mm x 181 mm
               1050 1114 1122 1210 hborder 0
               1680 1688 1708 1720 vborder 0
               +hsync +vsync 
               VertFreq: 55 Hz, HorFreq: 94628 Hz
Detailed mode: Clock 105.700 MHz, 113 mm x 181 mm
                900  948  958 1040 hborder 0
               1600 1610 1634 1656 vborder 0
               +hsync +vsync 
               VertFreq: 61 Hz, HorFreq: 101634 Hz
Detailed mode: Clock 142.300 MHz, 113 mm x 181 mm
               1080 1120 1128 1248 hborder 0
               1920 1928 1944 1988 vborder 0
               +hsync +vsync 
               VertFreq: 57 Hz, HorFreq: 114022 Hz
Detailed mode: Clock 71.300 MHz, 113 mm x 181 mm
                720  784  792  860 hborder 0
               1280 1290 1306 1320 vborder 0
               +hsync +vsync 
               VertFreq: 62 Hz, HorFreq: 82906 Hz
Detailed mode: Clock 126.600 MHz, 113 mm x 181 mm
               1200 1256 1264 1348 hborder 0
               1600 1608 1624 1648 vborder 0
               +hsync +vsync 
               VertFreq: 56 Hz, HorFreq: 93916 Hz
Checksum: 0x42 (valid)

EDID block does NOT conform to EDID 1.3!
	Required 640x480p60 timings are missing in the established timings
	and/or in the SVD list (VIC 1)
	Name descriptor not terminated with a newline
	Missing monitor ranges
