
EDID (hex):
00ffffffffffff003666031007062120
2d1f0103800b1378aab065a656539d28
0c505400000001010101010101010101
0101010101014b1a2036300022501212
44045e960000001e2a1ad08c20002850
4008a0015e960000001e531158a420c0
18304408c4005e960000001e000000fc
0048444d490a2020202020202020012f
02031030d05020002e50200aa00171b5
2d18d0a020802840400884015e960000
001e9e16008c30003840300aa8015e96
0000001e8b0f58a02020583038108402
5e960000001e00000000000000000000
00000000000000000000000000000000
00000000000000000000000000000000
00000000000000000000000000000059

Extracted contents:
header:          00 ff ff ff ff ff ff 00
serial number:   36 66 03 10 07 06 21 20 2d 1f
version:         01 03
basic params:    80 0b 13 78 aa
chroma info:     b0 65 a6 56 53 9d 28 0c 50 54
established:     00 00 00
standard:        01 01 01 01 01 01 01 01 01 01 01 01 01 01 01 01
descriptor 1:    4b 1a 20 36 30 00 22 50 12 12 44 04 5e 96 00 00 00 1e
descriptor 2:    2a 1a d0 8c 20 00 28 50 40 08 a0 01 5e 96 00 00 00 1e
descriptor 3:    53 11 58 a4 20 c0 18 30 44 08 c4 00 5e 96 00 00 00 1e
descriptor 4:    00 00 00 fc 00 48 44 4d 49 0a 20 20 20 20 20 20 20 20
extensions:      01
checksum:        2f

EDID version: 1.3
Manufacturer: MSF Model 1003 Serial Number --
Made in week 45 of 2021
Digital display
Maximum image size: 11 cm x 19 cm
Gamma: 2.20
DPMS levels: Standby Off
RGB color display
First detailed timing is preferred timing
Display x,y Chromaticity:
  Red:   0.6503, 0.3388
  Green: 0.3242, 0.6132
  Blue:  0.1572, 0.0488
  White: 0.3134, 0.3291
Established timings supported:
Standard timings supported:
Detailed mode: Clock 67.310 MHz, 94 mm x 150 mm
                800  818  836  854 hborder 0
               1280 1300 1304 1314 vborder 0
               +hsync +vsync 
               VertFreq: 59 Hz, HorFreq: 78817 Hz
Detailed mode: Clock 66.980 MHz, 94 mm x 150 mm
                720  784  792  860 hborder 0
               1280 1290 1306 1320 vborder 0
               +hsync +vsync 
               VertFreq: 59 Hz, HorFreq: 77883 Hz
Detailed mode: Clock 44.350 MHz, 94 mm x 150 mm
                600  668  676  764 hborder 0
                960  972  976  984 vborder 0
               +hsync +vsync 
               VertFreq: 58 Hz, HorFreq: 58049 Hz
Monitor name: HDMI
Has 1 extension blocks
Checksum: 0x2f (valid)

CTA extension block
Extension version: 3
12 bytes of CTA data
  Unknown tag 6, length 16 (raw d0)
Supports YCbCr 4:4:4
Supports YCbCr 4:2:2
0 native detailed modes
Detailed mode: Clock 61.890 MHz, 94 mm x 150 mm
                720  784  792  880 hborder 0
               1152 1160 1180 1192 vborder 0
               +hsync +vsync 
               VertFreq: 59 Hz, HorFreq: 70329 Hz
Detailed mode: Clock 57.900 MHz, 94 mm x 150 mm
                768  816  826  908 hborder 0
               1024 1034 1058 1080 vborder 0
               +hsync +vsync 
               VertFreq: 59 Hz, HorFreq: 63766 Hz
Detailed mode: Clock 39.790 MHz, 94 mm x 150 mm
                600  656  672  760 hborder 0
                800  808  844  888 vborder 0
               +hsync +vsync 
               VertFreq: 58 Hz, HorFreq: 52355 Hz
Checksum: 0x59 (valid)

EDID block does NOT conform to EDID 1.3!
	Required 640x480p60 timings are missing in the established timings
	and/or in the SVD list (VIC 1)
	Missing monitor ranges
