
EDID (hex):
00ffffffffffff0030e4be0200000000
00140103801a0e780ad4e59559578b28
20505400000001010101010101010101
010101010101841c56a8500019303020
350000901000001b0000000000000000
00000000000000000000000000fe004c
4720446973706c61790a2020000000fe
004c503131365748312d544c4e3100d5

Extracted contents:
header:          00 ff ff ff ff ff ff 00
serial number:   30 e4 be 02 00 00 00 00 00 14
version:         01 03
basic params:    80 1a 0e 78 0a
chroma info:     d4 e5 95 59 57 8b 28 20 50 54
established:     00 00 00
standard:        01 01 01 01 01 01 01 01 01 01 01 01 01 01 01 01
descriptor 1:    84 1c 56 a8 50 00 19 30 30 20 35 00 00 90 10 00 00 1b
descriptor 2:    00 00 00 00 00 00 00 00 00 00 00 00 00 00 00 00 00 00
descriptor 3:    00 00 00 fe 00 4c 47 20 44 69 73 70 6c 61 79 0a 20 20
descriptor 4:    00 00 00 fe 00 4c 50 31 31 36 57 48 31 2d 54 4c 4e 31
extensions:      00
checksum:        d5

EDID version: 1.3
Manufacturer: LGD Model 2be Serial Number --
Made in year 2010
Digital display
Maximum image size: 26 cm x 14 cm
Gamma: 2.20
RGB color display
First detailed timing is preferred timing
Display x,y Chromaticity:
  Red:   0.5849, 0.3486
  Green: 0.3408, 0.5429
  Blue:  0.1591, 0.1269
  White: 0.3134, 0.3291
Established timings supported:
Standard timings supported:
Detailed mode: Clock 73.000 MHz, 256 mm x 144 mm
               1366 1414 1446 1534 hborder 0
                768  771  776  793 vborder 0
               +hsync -vsync 
               VertFreq: 60 Hz, HorFreq: 47588 Hz
Manufacturer-specified data, tag 0
ASCII string: LG Display
ASCII string: LP116WH1-TLN1
Checksum: 0xd5 (valid)
EDID block does NOT conform to EDID 1.3!
	Missing name descriptor
	Missing monitor ranges


