
EDID (hex):
00ffffffffffff00593a700001010101
13140103084627782aa13ba3554a9b25
10474aa5ce00d1c00101010101010101
0101010101011a3680a070381f403020
3500bc862100001e000000fd00324d1f
460f000a202020202020000000ff0055
4b4759414c31393031313832000000fc
004d3332304e560a2020202020200077

Extracted contents:
header:          00 ff ff ff ff ff ff 00
serial number:   59 3a 70 00 01 01 01 01 13 14
version:         01 03
basic params:    08 46 27 78 2a
chroma info:     a1 3b a3 55 4a 9b 25 10 47 4a
established:     a5 ce 00
standard:        d1 c0 01 01 01 01 01 01 01 01 01 01 01 01 01 01
descriptor 1:    1a 36 80 a0 70 38 1f 40 30 20 35 00 bc 86 21 00 00 1e
descriptor 2:    00 00 00 fd 00 32 4d 1f 46 0f 00 0a 20 20 20 20 20 20
descriptor 3:    00 00 00 ff 00 55 4b 47 59 41 4c 31 39 30 31 31 38 32
descriptor 4:    00 00 00 fc 00 4d 33 32 30 4e 56 0a 20 20 20 20 20 20
extensions:      00
checksum:        77

EDID version: 1.3
Manufacturer: VIZ Model 70 Serial Number --
Made in week 19 of 2010
Analog display, Input voltage level: 0.7/0.3 V
Sync: Separate 
Maximum image size: 70 cm x 39 cm
Gamma: 2.20
DPMS levels: Off
RGB color display
First detailed timing is preferred timing
Display x,y Chromaticity:
  Red:   0.6386, 0.3339
  Green: 0.2890, 0.6064
  Blue:  0.1445, 0.0654
  White: 0.2792, 0.2919
Established timings supported:
  720x400@70Hz 9:5 HorFreq: 31469 Hz Clock: 28.320 MHz
  640x480@60Hz 4:3 HorFreq: 31469 Hz Clock: 25.175 MHz
  640x480@75Hz 4:3 HorFreq: 37500 Hz Clock: 31.500 MHz
  800x600@60Hz 4:3 HorFreq: 37900 Hz Clock: 40.000 MHz
  800x600@72Hz 4:3 HorFreq: 48100 Hz Clock: 50.000 MHz
  800x600@75Hz 4:3 HorFreq: 46900 Hz Clock: 49.500 MHz
  1024x768@60Hz 4:3 HorFreq: 48400 Hz Clock: 65.000 MHz
  1024x768@70Hz 4:3 HorFreq: 56500 Hz Clock: 75.000 MHz
  1024x768@75Hz 4:3 HorFreq: 60000 Hz Clock: 78.750 MHz
Standard timings supported:
  1920x1080@60Hz 16:9
Detailed mode: Clock 138.500 MHz, 700 mm x 390 mm
               1920 1968 2000 2080 hborder 0
               1080 1083 1088 1111 vborder 0
               +hsync +vsync 
               VertFreq: 59 Hz, HorFreq: 66586 Hz
Monitor ranges (GTF): 50-77Hz V, 31-70kHz H, max dotclock 150MHz
Serial number: --
Monitor name: M320NV
Checksum: 0x77 (valid)
