
EDID (hex):
00ffffffffffff00220e0c3601010101
161d0103804728782af8a5a6564ea125
0d5054a10800d1c0a9c081c0d100b300
95008180a940565e00a0a0a029503020
3500c58f2100001a000000fd00264c18
7022000a202020202020000000fc0048
50203332205148440a202020000000ff
00434e4b393232305050420a2020012a
02032af149101f041303120211012309
07078301000067030c0010000044681a
00000101264bede2002b023a80187138
2d40582c4500c58f2100001e023a80d0
72382d40102c4580c58f2100001ed976
00a0a0a0345030203500c58f2100001a
00000000000000000000000000000000
0000000000000000000000000000006d

Extracted contents:
header:          00 ff ff ff ff ff ff 00
serial number:   22 0e 0c 36 01 01 01 01 16 1d
version:         01 03
basic params:    80 47 28 78 2a
chroma info:     f8 a5 a6 56 4e a1 25 0d 50 54
established:     a1 08 00
standard:        d1 c0 a9 c0 81 c0 d1 00 b3 00 95 00 81 80 a9 40
descriptor 1:    56 5e 00 a0 a0 a0 29 50 30 20 35 00 c5 8f 21 00 00 1a
descriptor 2:    00 00 00 fd 00 26 4c 18 70 22 00 0a 20 20 20 20 20 20
descriptor 3:    00 00 00 fc 00 48 50 20 33 32 20 51 48 44 0a 20 20 20
descriptor 4:    00 00 00 ff 00 43 4e 4b 39 32 32 30 50 50 42 0a 20 20
extensions:      01
checksum:        2a

EDID version: 1.3
Manufacturer: HPN Model 360c Serial Number --
Made in week 22 of 2019
Digital display
Maximum image size: 71 cm x 40 cm
Gamma: 2.20
DPMS levels: Off
RGB color display
First detailed timing is preferred timing
Display x,y Chromaticity:
  Red:   0.6513, 0.3388
  Green: 0.3066, 0.6289
  Blue:  0.1464, 0.0527
  White: 0.3134, 0.3291
Established timings supported:
  720x400@70Hz 9:5 HorFreq: 31469 Hz Clock: 28.320 MHz
  640x480@60Hz 4:3 HorFreq: 31469 Hz Clock: 25.175 MHz
  800x600@60Hz 4:3 HorFreq: 37900 Hz Clock: 40.000 MHz
  1024x768@60Hz 4:3 HorFreq: 48400 Hz Clock: 65.000 MHz
Standard timings supported:
  1920x1080@60Hz 16:9
  1600x900@60Hz 16:9
  1280x720@60Hz 16:9
  1920x1200@60Hz 16:10 HorFreq: 74000 Hz Clock: 154.000 MHz
  1680x1050@60Hz 16:10 HorFreq: 64700 Hz Clock: 119.000 MHz
  1440x900@60Hz 16:10 HorFreq: 55500 Hz Clock: 88.750 MHz
  1280x1024@60Hz 5:4 HorFreq: 64000 Hz Clock: 108.000 MHz
  1600x1200@60Hz 4:3 HorFreq: 75000 Hz Clock: 162.000 MHz
Detailed mode: Clock 241.500 MHz, 709 mm x 399 mm
               2560 2608 2640 2720 hborder 0
               1440 1443 1448 1481 vborder 0
               +hsync -vsync 
               VertFreq: 59 Hz, HorFreq: 88786 Hz
Monitor ranges (GTF): 38-76Hz V, 24-112kHz H, max dotclock 340MHz
Monitor name: HP 32 QHD
Serial number: --
Has 1 extension blocks
Checksum: 0x2a (valid)

CTA extension block
Extension version: 3
38 bytes of CTA data
  Video data block
    VIC  16 1920x1080@60Hz 16:9  HorFreq: 67500 Hz Clock: 148.500 MHz
    VIC  31 1920x1080@50Hz 16:9  HorFreq: 56250 Hz Clock: 148.500 MHz
    VIC   4 1280x720@60Hz 16:9  HorFreq: 45000 Hz Clock: 74.250 MHz
    VIC  19 1280x720@50Hz 16:9  HorFreq: 37500 Hz Clock: 74.250 MHz
    VIC   3 720x480@60Hz 16:9  HorFreq: 31469 Hz Clock: 27.000 MHz
    VIC  18 720x576@50Hz 16:9  HorFreq: 31250 Hz Clock: 27.000 MHz
    VIC   2 720x480@60Hz 4:3  HorFreq: 31469 Hz Clock: 27.000 MHz
    VIC  17 720x576@50Hz 4:3  HorFreq: 31250 Hz Clock: 27.000 MHz
    VIC   1 640x480@60Hz 4:3  HorFreq: 31469 Hz Clock: 25.175 MHz
  Audio data block
    Linear PCM, max channels 2
      Supported sample rates (kHz): 48 44.1 32
      Supported sample sizes (bits): 24 20 16
  Speaker allocation data block
    Speaker map:
      FL/FR - Front Left/Right
  Vendor-specific data block, OUI 000c03 (HDMI)
    Source physical address 1.0.0.0
    Maximum TMDS clock: 340MHz
  Vendor-specific data block, OUI 00001a
  Extended tag: Video capability data block
    YCbCr quantization: No Data (0)
    RGB quantization: No Data (0)
    PT scan behaviour: Always Underscanned (2)
    IT scan behaviour: Always Underscanned (2)
    CE scan behaviour: Support both over- and underscan (3)
Underscans PC formats by default
Basic audio support
Supports YCbCr 4:4:4
Supports YCbCr 4:2:2
1 native detailed modes
Detailed mode: Clock 148.500 MHz, 709 mm x 399 mm
               1920 2008 2052 2200 hborder 0
               1080 1084 1089 1125 vborder 0
               +hsync +vsync 
               VertFreq: 60 Hz, HorFreq: 67500 Hz
Detailed mode: Clock 148.500 MHz, 709 mm x 399 mm
               1920 2448 2492 2640 hborder 0
               1080 1084 1089 1125 vborder 0
               +hsync +vsync 
               VertFreq: 50 Hz, HorFreq: 56250 Hz
Detailed mode: Clock 304.250 MHz, 709 mm x 399 mm
               2560 2608 2640 2720 hborder 0
               1440 1443 1448 1492 vborder 0
               +hsync -vsync 
               VertFreq: 74 Hz, HorFreq: 111856 Hz
Checksum: 0x6d (valid)

EDID block does not conform at all!
	Both the serial number and the serial string are set
