
EDID (hex):
00ffffffffffff003438d70720000000
0a1001030e2b1b782ec905a3574b9c25
125054bfef00310a614c714f81408180
950f0101010121399030621a274068b0
3600b10e1100001e0000000000000000
00000000000000000000000000fd0038
4b1f530f000a202020202020000000fc
0042313032303330570a2020202000f1

Extracted contents:
header:          00 ff ff ff ff ff ff 00
serial number:   34 38 d7 07 20 00 00 00 0a 10
version:         01 03
basic params:    0e 2b 1b 78 2e
chroma info:     c9 05 a3 57 4b 9c 25 12 50 54
established:     bf ef 00
standard:        31 0a 61 4c 71 4f 81 40 81 80 95 0f 01 01 01 01
descriptor 1:    21 39 90 30 62 1a 27 40 68 b0 36 00 b1 0e 11 00 00 1e
descriptor 2:    00 00 00 00 00 00 00 00 00 00 00 00 00 00 00 00 00 00
descriptor 3:    00 00 00 fd 00 38 4b 1f 53 0f 00 0a 20 20 20 20 20 20
descriptor 4:    00 00 00 fc 00 42 31 30 32 30 33 30 57 0a 20 20 20 20
extensions:      00
checksum:        f1

EDID version: 1.3
Manufacturer: MAX Model 7d7 Serial Number --
Made in week 10 of 2006
Analog display, Input voltage level: 0.7/0.3 V
Sync: Separate Composite SyncOnGreen 
Maximum image size: 43 cm x 27 cm
Gamma: 2.20
DPMS levels: Off
RGB color display
Default (sRGB) color space is primary color space
First detailed timing is preferred timing
Display x,y Chromaticity:
  Red:   0.6396, 0.3398
  Green: 0.2949, 0.6103
  Blue:  0.1445, 0.0703
  White: 0.3134, 0.3291
Established timings supported:
  720x400@70Hz 9:5 HorFreq: 31469 Hz Clock: 28.320 MHz
  640x480@60Hz 4:3 HorFreq: 31469 Hz Clock: 25.175 MHz
  640x480@67Hz 4:3 HorFreq: 35000 Hz Clock: 30.240 MHz
  640x480@72Hz 4:3 HorFreq: 37900 Hz Clock: 31.500 MHz
  640x480@75Hz 4:3 HorFreq: 37500 Hz Clock: 31.500 MHz
  800x600@56Hz 4:3 HorFreq: 35200 Hz Clock: 36.000 MHz
  800x600@60Hz 4:3 HorFreq: 37900 Hz Clock: 40.000 MHz
  800x600@72Hz 4:3 HorFreq: 48100 Hz Clock: 50.000 MHz
  800x600@75Hz 4:3 HorFreq: 46900 Hz Clock: 49.500 MHz
  832x624@75Hz 4:3 HorFreq: 49726 Hz Clock: 57.284 MHz
  1024x768@60Hz 4:3 HorFreq: 48400 Hz Clock: 65.000 MHz
  1024x768@70Hz 4:3 HorFreq: 56500 Hz Clock: 75.000 MHz
  1024x768@75Hz 4:3 HorFreq: 60000 Hz Clock: 78.750 MHz
  1280x1024@75Hz 5:4 HorFreq: 80000 Hz Clock: 135.000 MHz
Standard timings supported:
  640x400@70Hz 16:10
  1024x768@72Hz 4:3
  1152x864@75Hz 4:3 HorFreq: 67500 Hz Clock: 108.000 MHz
  1280x960@60Hz 4:3 HorFreq: 60000 Hz Clock: 108.000 MHz
  1280x1024@60Hz 5:4 HorFreq: 64000 Hz Clock: 108.000 MHz
  1440x900@75Hz 16:10 HorFreq: 82300 Hz Clock: 156.000 MHz
Detailed mode: Clock 146.250 MHz, 433 mm x 270 mm
               1680 1784 1960 2240 hborder 0
               1050 1053 1059 1089 vborder 0
               +hsync +vsync 
               VertFreq: 59 Hz, HorFreq: 65290 Hz
Manufacturer-specified data, tag 0
Monitor ranges (GTF): 56-75Hz V, 31-83kHz H, max dotclock 150MHz
Monitor name: B102030W
Checksum: 0xf1 (valid)
EDID block does NOT conform to EDID 1.3!
	sRGB is signaled, but the chromaticities do not match
One or more of the timings is out of range of the Monitor Ranges:
  Vertical Freq: 56 - 75 Hz
  Horizontal Freq: 31469 - 82300 Hz
  Maximum Clock: 156.000 MHz
