
EDID (hex):
00ffffffffffff0006af2d4200000000
1f1a0104951d117802c3159358599229
22505400000001010101010101010101
010101010101143780b8703824401010
3e0025a510000018b82480b870382440
10103e0025a510000018000000000000
00000000000000000000000000000002
001036ff0f3c961e0e249620202000fd

Extracted contents:
header:          00 ff ff ff ff ff ff 00
serial number:   06 af 2d 42 00 00 00 00 1f 1a
version:         01 04
basic params:    95 1d 11 78 02
chroma info:     c3 15 93 58 59 92 29 22 50 54
established:     00 00 00
standard:        01 01 01 01 01 01 01 01 01 01 01 01 01 01 01 01
descriptor 1:    14 37 80 b8 70 38 24 40 10 10 3e 00 25 a5 10 00 00 18
descriptor 2:    b8 24 80 b8 70 38 24 40 10 10 3e 00 25 a5 10 00 00 18
descriptor 3:    00 00 00 00 00 00 00 00 00 00 00 00 00 00 00 00 00 00
descriptor 4:    00 00 00 02 00 10 36 ff 0f 3c 96 1e 0e 24 96 20 20 20
extensions:      00
checksum:        fd

EDID version: 1.4
Manufacturer: AUO Model 422d Serial Number --
Made in week 31 of 2016
Digital display
6 bits per primary color channel
DisplayPort interface
Maximum image size: 29 cm x 17 cm
Gamma: 2.20
Supported color formats: RGB 4:4:4
First detailed timing includes the native pixel format and preferred refresh rate
Display x,y Chromaticity:
  Red:   0.5771, 0.3437
  Green: 0.3476, 0.5732
  Blue:  0.1601, 0.1337
  White: 0.3134, 0.3291
Established timings supported:
Standard timings supported:
Detailed mode: Clock 141.000 MHz, 293 mm x 165 mm
               1920 1936 1952 2104 hborder 0
               1080 1083 1097 1116 vborder 0
               -hsync -vsync 
               VertFreq: 60 Hz, HorFreq: 67015 Hz
Detailed mode: Clock 94.000 MHz, 293 mm x 165 mm
               1920 1936 1952 2104 hborder 0
               1080 1083 1097 1116 vborder 0
               -hsync -vsync 
               VertFreq: 40 Hz, HorFreq: 44676 Hz
Manufacturer-specified data, tag 0
Manufacturer-specified data, tag 2
Checksum: 0xfd (valid)
EDID block does NOT conform to EDID 1.4!
	Missing name descriptor
	Missing monitor ranges
