
EDID (hex):
00ffffffffffff000daed61500000000
2619010495221378024205ac4f44ac28
0c505400000001010101010101010101
010101010101b43b804a713834402c1c
240058c110000018000000fe004e3135
364847412d45414c0a20000000fe0043
4d4e0a202020202020202020000000fe
004e3135364847412d45414c0a200073

Extracted contents:
header:          00 ff ff ff ff ff ff 00
serial number:   0d ae d6 15 00 00 00 00 26 19
version:         01 04
basic params:    95 22 13 78 02
chroma info:     42 05 ac 4f 44 ac 28 0c 50 54
established:     00 00 00
standard:        01 01 01 01 01 01 01 01 01 01 01 01 01 01 01 01
descriptor 1:    b4 3b 80 4a 71 38 34 40 2c 1c 24 00 58 c1 10 00 00 18
descriptor 2:    00 00 00 fe 00 4e 31 35 36 48 47 41 2d 45 41 4c 0a 20
descriptor 3:    00 00 00 fe 00 43 4d 4e 0a 20 20 20 20 20 20 20 20 20
descriptor 4:    00 00 00 fe 00 4e 31 35 36 48 47 41 2d 45 41 4c 0a 20
extensions:      00
checksum:        73

EDID version: 1.4
Manufacturer: CMN Model 15d6 Serial Number --
Made in week 38 of 2015
Digital display
6 bits per primary color channel
DisplayPort interface
Maximum image size: 34 cm x 19 cm
Gamma: 2.20
Supported color formats: RGB 4:4:4
First detailed timing includes the native pixel format and preferred refresh rate
Display x,y Chromaticity:
  Red:   0.6728, 0.3085
  Green: 0.2656, 0.6738
  Blue:  0.1562, 0.0468
  White: 0.3134, 0.3291
Established timings supported:
Standard timings supported:
Detailed mode: Clock 152.840 MHz, 344 mm x 193 mm
               1920 1964 1992 2250 hborder 0
               1080 1082 1086 1132 vborder 0
               -hsync -vsync 
               VertFreq: 60 Hz, HorFreq: 67928 Hz
ASCII string: N156HGA-EAL
ASCII string: CMN
ASCII string: N156HGA-EAL
Checksum: 0x73 (valid)
EDID block does NOT conform to EDID 1.4!
	Missing name descriptor
	Missing monitor ranges
