edid-decode (hex):

00 ff ff ff ff ff ff 00 10 ac a4 73 59 58 30 32
18 0a 01 02 0c 1e 17 78 ea ec de 9e 54 47 97 23
1c 4c 54 ad ce 00 31 40 31 4f 45 4f 61 40 61 4f
01 01 01 01 01 01 64 19 00 40 41 00 26 30 18 88
36 00 30 e4 10 00 00 18 00 00 00 ff 00 35 33 32
30 55 30 36 43 32 30 58 59 0a 00 00 00 fc 00 44
45 4c 4c 20 31 35 30 31 46 50 0a 20 00 00 00 fd
00 38 4b 1f 3c 08 00 0a 20 20 20 20 20 20 00 cd

00 ff ff ff ff ff ff 00 10 ac a4 73 59 58 30 32
18 0a 01 02 0c 1e 17 78 ea ec de 9e 54 47 97 23
1c 4c 54 ad ce 00 31 40 31 4f 45 4f 61 40 61 4f
01 01 01 01 01 01 64 19 00 40 41 00 26 30 18 88
36 00 30 e4 10 00 00 18 00 00 00 ff 00 35 33 32
30 55 30 36 43 32 30 58 59 0a 00 00 00 fc 00 44
45 4c 4c 20 31 35 30 31 46 50 0a 20 00 00 00 fd
00 38 4b 1f 3c 08 00 0a 20 20 20 20 20 20 00 cd

----------------

Block 0, Base EDID:
  EDID Structure Version & Revision: 1.2
  Vendor & Product Identification:
    Manufacturer: DEL
    Model: 29604
    Serial Number: ...
    Made in: week 24 of 2000
  Basic Display Parameters & Features:
    Analog display
    Signal Level Standard: 0.700 : 0.300 : 1.000 V p-p
    Blank level equals black level
    Sync: Separate Composite
    Maximum image size: 30 cm x 23 cm
    Gamma: 2.20
    DPMS levels: Standby Suspend Off
    RGB color display
    First detailed timing is the preferred timing
  Color Characteristics:
    Red  : 0.6201, 0.3300
    Green: 0.2802, 0.5898
    Blue : 0.1396, 0.1103
    White: 0.2998, 0.3300
  Established Timings I & II:
    IBM     :   720x400    70.081663 Hz   9:5     31.467 kHz     28.320000 MHz
    DMT 0x04:   640x480    59.940476 Hz   4:3     31.469 kHz     25.175000 MHz
    DMT 0x05:   640x480    72.808802 Hz   4:3     37.861 kHz     31.500000 MHz
    DMT 0x06:   640x480    75.000000 Hz   4:3     37.500 kHz     31.500000 MHz
    DMT 0x09:   800x600    60.316541 Hz   4:3     37.879 kHz     40.000000 MHz
    DMT 0x0a:   800x600    72.187572 Hz   4:3     48.077 kHz     50.000000 MHz
    DMT 0x0b:   800x600    75.000000 Hz   4:3     46.875 kHz     49.500000 MHz
    DMT 0x10:  1024x768    60.003840 Hz   4:3     48.363 kHz     65.000000 MHz
    DMT 0x11:  1024x768    70.069359 Hz   4:3     56.476 kHz     75.000000 MHz
    DMT 0x12:  1024x768    75.028582 Hz   4:3     60.023 kHz     78.750000 MHz
  Standard Timings:
    DMT 0x04:   640x480    59.940476 Hz   4:3     31.469 kHz     25.175000 MHz
    DMT 0x06:   640x480    75.000000 Hz   4:3     37.500 kHz     31.500000 MHz
    DMT 0x0b:   800x600    75.000000 Hz   4:3     46.875 kHz     49.500000 MHz
    DMT 0x10:  1024x768    60.003840 Hz   4:3     48.363 kHz     65.000000 MHz
    DMT 0x12:  1024x768    75.028582 Hz   4:3     60.023 kHz     78.750000 MHz
  Detailed Timing Descriptors:
    DTD 1:  1024x768    60.003840 Hz   4:3     48.363 kHz     65.000000 MHz (304 mm x 228 mm)
                 Hfront   24 Hsync 136 Hback  160 Hpol N
                 Vfront    3 Vsync   6 Vback   29 Vpol N
    Display Product Serial Number: ...
    Display Product Name: 'DELL 1501FP'
    Display Range Limits:
      Monitor ranges (GTF): 56-75 Hz V, 31-60 kHz H, max dotclock 80 MHz
Checksum: 0xcd

----------------

Block 1, Unknown EDID Extension Block 0x00:
  00 ff ff ff ff ff ff 00 10 ac a4 73 59 58 30 32 '...........sYX02'
  18 0a 01 02 0c 1e 17 78 ea ec de 9e 54 47 97 23 '.......x....TG.#'
  1c 4c 54 ad ce 00 31 40 31 4f 45 4f 61 40 61 4f '.LT...1@1OEOa@aO'
  01 01 01 01 01 01 64 19 00 40 41 00 26 30 18 88 '......d..@A.&0..'
  36 00 30 e4 10 00 00 18 00 00 00 ff 00 35 33 32 '6.0..........532'
  30 55 30 36 43 32 30 58 59 0a 00 00 00 fc 00 44 '0U06C20XY......D'
  45 4c 4c 20 31 35 30 31 46 50 0a 20 00 00 00 fd 'ELL 1501FP. ....'
  00 38 4b 1f 3c 08 00 0a 20 20 20 20 20 20 00 cd '.8K.<...      ..'
Checksum: 0xcd

----------------

Warnings:

Block 0, Base EDID:
  EDID Structure Version & Revision: EDID 1.2 is deprecated, do not use.

Failures:

Block 1, Base EDID:
  Unknown Extension Block.
EDID:
  Base EDID: EDID specified 0 extension block(s), but found 1 extension block(s).

EDID conformity: FAIL
