
EDID (hex):
00ffffffffffff0030aeffff01000000
1f160103802b1978eeeed5a555489b26
125054adea0081808bc0010101010101
010101010101662156a851001e30458f
3a009ae61000001c000000fd00304c1e
4110000a202020202020000000fc004c
454e2d533331300a20202020000000ff
0054434e383331303030310a202000c7

Extracted contents:
header:          00 ff ff ff ff ff ff 00
serial number:   30 ae ff ff 01 00 00 00 1f 16
version:         01 03
basic params:    80 2b 19 78 ee
chroma info:     ee d5 a5 55 48 9b 26 12 50 54
established:     ad ea 00
standard:        81 80 8b c0 01 01 01 01 01 01 01 01 01 01 01 01
descriptor 1:    66 21 56 a8 51 00 1e 30 45 8f 3a 00 9a e6 10 00 00 1c
descriptor 2:    00 00 00 fd 00 30 4c 1e 41 10 00 0a 20 20 20 20 20 20
descriptor 3:    00 00 00 fc 00 4c 45 4e 2d 53 33 31 30 0a 20 20 20 20
descriptor 4:    00 00 00 ff 00 54 43 4e 38 33 31 30 30 30 31 0a 20 20
extensions:      00
checksum:        c7

EDID version: 1.3
Manufacturer: LEN Model ffff Serial Number --
Made in week 31 of 2012
Digital display
Maximum image size: 43 cm x 25 cm
Gamma: 2.20
DPMS levels: Standby Suspend Off
RGB color display
Default (sRGB) color space is primary color space
First detailed timing is preferred timing
Display x,y Chromaticity:
  Red:   0.6474, 0.3339
  Green: 0.2841, 0.6074
  Blue:  0.1513, 0.0712
  White: 0.3134, 0.3291
Established timings supported:
  720x400@70Hz 9:5 HorFreq: 31469 Hz Clock: 28.320 MHz
  640x480@60Hz 4:3 HorFreq: 31469 Hz Clock: 25.175 MHz
  640x480@72Hz 4:3 HorFreq: 37900 Hz Clock: 31.500 MHz
  640x480@75Hz 4:3 HorFreq: 37500 Hz Clock: 31.500 MHz
  800x600@60Hz 4:3 HorFreq: 37900 Hz Clock: 40.000 MHz
  800x600@72Hz 4:3 HorFreq: 48100 Hz Clock: 50.000 MHz
  800x600@75Hz 4:3 HorFreq: 46900 Hz Clock: 49.500 MHz
  832x624@75Hz 4:3 HorFreq: 49726 Hz Clock: 57.284 MHz
  1024x768@60Hz 4:3 HorFreq: 48400 Hz Clock: 65.000 MHz
  1024x768@75Hz 4:3 HorFreq: 60000 Hz Clock: 78.750 MHz
Standard timings supported:
  1280x1024@60Hz 5:4 HorFreq: 64000 Hz Clock: 108.000 MHz
  1360x765@60Hz 16:9
Detailed mode: Clock 85.500 MHz, 410 mm x 230 mm
               1366 1435 1578 1790 hborder 0
                768  771  781  798 vborder 0
               -hsync +vsync 
               VertFreq: 59 Hz, HorFreq: 47765 Hz
Monitor ranges (GTF): 48-76Hz V, 30-65kHz H, max dotclock 160MHz
Monitor name: LEN-S310
Serial number: --
Checksum: 0xc7 (valid)
EDID block does NOT conform to EDID 1.3!
	sRGB is signaled, but the chromaticities do not match
