edid-decode (hex):

00 ff ff ff ff ff ff 00 36 69 b9 30 01 00 00 00
12 22 01 03 08 30 1a 78 ea 2d 35 a7 54 38 ae 26
0d 50 54 bf cf 00 81 80 95 00 b3 00 d1 c0 81 c0
81 00 01 01 01 01 02 3a 80 18 71 38 2d 40 58 2c
45 00 df 04 11 00 00 1e 00 00 00 fc 00 4d 53 49
20 4d 50 32 32 33 0a 20 20 20 00 00 00 fd 00 30
64 1e 53 17 00 0a 20 20 20 20 20 20 00 00 00 ff
00 50 42 39 48 31 36 34 34 30 31 33 39 36 00 1a

00 ff ff ff ff ff ff 00 36 69 b9 30 01 00 00 00
12 22 01 03 08 30 1a 78 ea 2d 35 a7 54 38 ae 26
0d 50 54 bf cf 00 81 80 95 00 b3 00 d1 c0 81 c0
81 00 01 01 01 01 02 3a 80 18 71 38 2d 40 58 2c
45 00 df 04 11 00 00 1e 00 00 00 fc 00 4d 53 49
20 4d 50 32 32 33 0a 20 20 20 00 00 00 fd 00 30
64 1e 53 17 00 0a 20 20 20 20 20 20 00 00 00 ff
00 50 42 39 48 31 36 34 34 30 31 33 39 36 00 1a

----------------

Block 0, Base EDID:
  EDID Structure Version & Revision: 1.3
  Vendor & Product Identification:
    Manufacturer: MSI
    Model: 12473
    Serial Number: ...
    Made in: week 18 of 2024
  Basic Display Parameters & Features:
    Analog display
    Signal Level Standard: 0.700 : 0.300 : 1.000 V p-p
    Blank level equals black level
    Sync: Separate
    Maximum image size: 48 cm x 26 cm
    Gamma: 2.20
    DPMS levels: Standby Suspend Off
    RGB color display
    First detailed timing is the preferred timing
  Color Characteristics:
    Red  : 0.6523, 0.3300
    Green: 0.2216, 0.6806
    Blue : 0.1484, 0.0537
    White: 0.3134, 0.3291
  Established Timings I & II:
    IBM     :   720x400    70.081663 Hz   9:5     31.467 kHz     28.320000 MHz
    DMT 0x04:   640x480    59.940476 Hz   4:3     31.469 kHz     25.175000 MHz
    Apple   :   640x480    66.666667 Hz   4:3     35.000 kHz     30.240000 MHz
    DMT 0x05:   640x480    72.808802 Hz   4:3     37.861 kHz     31.500000 MHz
    DMT 0x06:   640x480    75.000000 Hz   4:3     37.500 kHz     31.500000 MHz
    DMT 0x08:   800x600    56.250000 Hz   4:3     35.156 kHz     36.000000 MHz
    DMT 0x09:   800x600    60.316541 Hz   4:3     37.879 kHz     40.000000 MHz
    DMT 0x0a:   800x600    72.187572 Hz   4:3     48.077 kHz     50.000000 MHz
    DMT 0x0b:   800x600    75.000000 Hz   4:3     46.875 kHz     49.500000 MHz
    DMT 0x10:  1024x768    60.003840 Hz   4:3     48.363 kHz     65.000000 MHz
    DMT 0x11:  1024x768    70.069359 Hz   4:3     56.476 kHz     75.000000 MHz
    DMT 0x12:  1024x768    75.028582 Hz   4:3     60.023 kHz     78.750000 MHz
    DMT 0x24:  1280x1024   75.024675 Hz   5:4     79.976 kHz    135.000000 MHz
  Standard Timings:
    DMT 0x23:  1280x1024   60.019740 Hz   5:4     63.981 kHz    108.000000 MHz
    DMT 0x2f:  1440x900    59.887445 Hz  16:10    55.935 kHz    106.500000 MHz
    DMT 0x3a:  1680x1050   59.954250 Hz  16:10    65.290 kHz    146.250000 MHz
    DMT 0x52:  1920x1080   60.000000 Hz  16:9     67.500 kHz    148.500000 MHz
    DMT 0x55:  1280x720    60.000000 Hz  16:9     45.000 kHz     74.250000 MHz
    DMT 0x1c:  1280x800    59.810326 Hz  16:10    49.702 kHz     83.500000 MHz
  Detailed Timing Descriptors:
    DTD 1:  1920x1080   60.000000 Hz  16:9     67.500 kHz    148.500000 MHz (479 mm x 260 mm)
                 Hfront   88 Hsync  44 Hback  148 Hpol P
                 Vfront    4 Vsync   5 Vback   36 Vpol P
    Display Product Name: 'MSI MP223'
    Display Range Limits:
      Monitor ranges (GTF): 48-100 Hz V, 30-83 kHz H, max dotclock 230 MHz
    Display Product Serial Number: ...
Checksum: 0x1a

----------------

Block 1, Unknown EDID Extension Block 0x00:
  00 ff ff ff ff ff ff 00 36 69 b9 30 01 00 00 00 '........6i.0....'
  12 22 01 03 08 30 1a 78 ea 2d 35 a7 54 38 ae 26 '."...0.x.-5.T8.&'
  0d 50 54 bf cf 00 81 80 95 00 b3 00 d1 c0 81 c0 '.PT.............'
  81 00 01 01 01 01 02 3a 80 18 71 38 2d 40 58 2c '.......:..q8-@X,'
  45 00 df 04 11 00 00 1e 00 00 00 fc 00 4d 53 49 'E............MSI'
  20 4d 50 32 32 33 0a 20 20 20 00 00 00 fd 00 30 ' MP223.   .....0'
  64 1e 53 17 00 0a 20 20 20 20 20 20 00 00 00 ff 'd.S...      ....'
  00 50 42 39 48 31 36 34 34 30 31 33 39 36 00 1a '.PB9H164401396..'
Checksum: 0x1a

----------------

Failures:

Block 1, Base EDID:
  Unknown Extension Block.
EDID:
  Base EDID: EDID specified 0 extension block(s), but found 1 extension block(s).

EDID conformity: FAIL
