
EDID (hex):
00ffffffffffff001ab3bb0701000000
3212010368301b782a3585a656489a24
125054a54b008180a9409500b3000101
010101010101023a801871382d40582c
9600dd0c1100001e000000fd00324c1c
5211000a202020202020000000fc004c
534c2033323230540a202020000000ff
00594539463030353537320a20200038

Extracted contents:
header:          00 ff ff ff ff ff ff 00
serial number:   1a b3 bb 07 01 00 00 00 32 12
version:         01 03
basic params:    68 30 1b 78 2a
chroma info:     35 85 a6 56 48 9a 24 12 50 54
established:     a5 4b 00
standard:        81 80 a9 40 95 00 b3 00 01 01 01 01 01 01 01 01
descriptor 1:    02 3a 80 18 71 38 2d 40 58 2c 96 00 dd 0c 11 00 00 1e
descriptor 2:    00 00 00 fd 00 32 4c 1c 52 11 00 0a 20 20 20 20 20 20
descriptor 3:    00 00 00 fc 00 4c 53 4c 20 33 32 32 30 54 0a 20 20 20
descriptor 4:    00 00 00 ff 00 59 45 39 46 30 30 35 35 37 32 0a 20 20
extensions:      00
checksum:        38

EDID version: 1.3
Manufacturer: FUS Model 7bb Serial Number --
Made in week 50 of 2008
Analog display, Input voltage level: 0.7/0.7 V
Sync: Separate 
Maximum image size: 48 cm x 27 cm
Gamma: 2.20
DPMS levels: Off
RGB color display
First detailed timing is preferred timing
Display x,y Chromaticity:
  Red:   0.6484, 0.3388
  Green: 0.2822, 0.6025
  Blue:  0.1425, 0.0703
  White: 0.3134, 0.3291
Established timings supported:
  720x400@70Hz 9:5 HorFreq: 31469 Hz Clock: 28.320 MHz
  640x480@60Hz 4:3 HorFreq: 31469 Hz Clock: 25.175 MHz
  640x480@75Hz 4:3 HorFreq: 37500 Hz Clock: 31.500 MHz
  800x600@60Hz 4:3 HorFreq: 37900 Hz Clock: 40.000 MHz
  800x600@75Hz 4:3 HorFreq: 46900 Hz Clock: 49.500 MHz
  1024x768@60Hz 4:3 HorFreq: 48400 Hz Clock: 65.000 MHz
  1024x768@75Hz 4:3 HorFreq: 60000 Hz Clock: 78.750 MHz
  1280x1024@75Hz 5:4 HorFreq: 80000 Hz Clock: 135.000 MHz
Standard timings supported:
  1280x1024@60Hz 5:4 HorFreq: 64000 Hz Clock: 108.000 MHz
  1600x1200@60Hz 4:3 HorFreq: 75000 Hz Clock: 162.000 MHz
  1440x900@60Hz 16:10 HorFreq: 55500 Hz Clock: 88.750 MHz
  1680x1050@60Hz 16:10 HorFreq: 64700 Hz Clock: 119.000 MHz
Detailed mode: Clock 148.500 MHz, 477 mm x 268 mm
               1920 2008 2052 2200 hborder 0
               1080 1089 1095 1125 vborder 0
               +hsync +vsync 
               VertFreq: 60 Hz, HorFreq: 67500 Hz
Monitor ranges (GTF): 50-76Hz V, 28-82kHz H, max dotclock 170MHz
Monitor name: LSL 3220T
Serial number: --
Checksum: 0x38 (valid)
