
EDID (hex):
00ffffffffffff004c2d990700000000
03150104a53c2278226041a6564a9c25
12505400000001010101010101010101
010101010101866f80a0703840403020
350056502100005efe5b80a070383540
3020350056502100005a000000fd0018
781a8c1e000a202020202020000000fc
0053323741373530440a202020200123
02030cc0230907078301000000000000
00000000000000000000000000000000
00000000000000000000000000000000
00000000000000000000000000000000
00000000000000000000000000000000
00000000000000000000000000000000
00000000000000000000000000000000
00000000000000000000000000000071

Extracted contents:
header:          00 ff ff ff ff ff ff 00
serial number:   4c 2d 99 07 00 00 00 00 03 15
version:         01 04
basic params:    a5 3c 22 78 22
chroma info:     60 41 a6 56 4a 9c 25 12 50 54
established:     00 00 00
standard:        01 01 01 01 01 01 01 01 01 01 01 01 01 01 01 01
descriptor 1:    86 6f 80 a0 70 38 40 40 30 20 35 00 56 50 21 00 00 5e
descriptor 2:    fe 5b 80 a0 70 38 35 40 30 20 35 00 56 50 21 00 00 5a
descriptor 3:    00 00 00 fd 00 18 78 1a 8c 1e 00 0a 20 20 20 20 20 20
descriptor 4:    00 00 00 fc 00 53 32 37 41 37 35 30 44 0a 20 20 20 20
extensions:      01
checksum:        23

EDID version: 1.4
Manufacturer: SAM Model 799 Serial Number --
Made in week 3 of 2011
Digital display
8 bits per primary color channel
DisplayPort interface
Maximum image size: 60 cm x 34 cm
Gamma: 2.20
DPMS levels: Off
Supported color formats: RGB 4:4:4
First detailed timing includes the native pixel format and preferred refresh rate
Display x,y Chromaticity:
  Red:   0.6494, 0.3378
  Green: 0.2890, 0.6093
  Blue:  0.1455, 0.0703
  White: 0.3125, 0.3291
Established timings supported:
Standard timings supported:
Detailed mode: Clock 285.500 MHz, 598 mm x 336 mm
               1920 1968 2000 2080 hborder 0
               1080 1083 1088 1144 vborder 0
               +hsync +vsync field sequential R/L
               VertFreq: 119 Hz, HorFreq: 137259 Hz
Detailed mode: Clock 235.500 MHz, 598 mm x 336 mm
               1920 1968 2000 2080 hborder 0
               1080 1083 1088 1133 vborder 0
               +hsync -vsync field sequential R/L
               VertFreq: 99 Hz, HorFreq: 113221 Hz
Monitor ranges (GTF): 24-120Hz V, 26-140kHz H, max dotclock 300MHz
Monitor name: S27A750D
Has 1 extension blocks
Checksum: 0x23 (valid)

CTA extension block
Extension version: 3
8 bytes of CTA data
  Audio data block
    Linear PCM, max channels 2
      Supported sample rates (kHz): 48 44.1 32
      Supported sample sizes (bits): 24 20 16
  Speaker allocation data block
    Speaker map:
      FL/FR - Front Left/Right
Underscans PC formats by default
Basic audio support
0 native detailed modes
Checksum: 0x71 (valid)

EDID block does NOT conform to EDID 1.4!
	Required 640x480p60 timings are missing in the established timings
	and/or in the SVD list (VIC 1)
