edid-decode (hex):

00 ff ff ff ff ff ff 00 4c 2d 99 07 00 00 00 00
03 15 01 04 a5 3c 22 78 22 60 41 a6 56 4a 9c 25
12 50 54 00 00 00 01 01 01 01 01 01 01 01 01 01
01 01 01 01 01 01 86 6f 80 a0 70 38 40 40 30 20
35 00 56 50 21 00 00 5e fe 5b 80 a0 70 38 35 40
30 20 35 00 56 50 21 00 00 5a 00 00 00 fd 00 18
78 1a 8c 1e 00 0a 20 20 20 20 20 20 00 00 00 fc
00 53 32 37 41 37 35 30 44 0a 20 20 20 20 01 23

----------------

Block 0, Base EDID:
  EDID Structure Version & Revision: 1.4
  Vendor & Product Identification:
    Manufacturer: SAM
    Model: 1945
    Made in: week 3 of 2011
  Basic Display Parameters & Features:
    Digital display
    Bits per primary color channel: 8
    DisplayPort interface
    Maximum image size: 60 cm x 34 cm
    Gamma: 2.20
    DPMS levels: Off
    Supported color formats: RGB 4:4:4
    First detailed timing includes the native pixel format and preferred refresh rate
  Color Characteristics:
    Red  : 0.6494, 0.3378
    Green: 0.2890, 0.6093
    Blue : 0.1455, 0.0703
    White: 0.3125, 0.3291
  Established Timings I & II: none
  Standard Timings: none
  Detailed Timing Descriptors:
    DTD 1:  1920x1080  119.982181 Hz  16:9    137.260 kHz    285.500000 MHz (field sequential R/L, 598 mm x 336 mm)
                 Hfront   48 Hsync  32 Hback   80 Hpol P
                 Vfront    3 Vsync   5 Vback   56 Vpol P
    DTD 2:  1920x1080   99.930409 Hz  16:9    113.221 kHz    235.500000 MHz (field sequential R/L, 598 mm x 336 mm)
                 Hfront   48 Hsync  32 Hback   80 Hpol P
                 Vfront    3 Vsync   5 Vback   45 Vpol N
    Display Range Limits:
      Monitor ranges (GTF): 24-120 Hz V, 26-140 kHz H, max dotclock 300 MHz
    Display Product Name: 'S27A750D'
  Extension blocks: 1
Checksum: 0x23

----------------

Warnings:

Block 0, Base EDID:
  Display Range Limits: GTF support is deprecated in EDID 1.4.

Failures:

Block 0, Base EDID:
  Display Range Limits: GTF can't be combined with non-continuous frequencies.
  Base EDID: EDID specified 1 extension block(s), but found 0 extension block(s).

EDID conformity: FAIL
