edid-decode (hex):

00 ff ff ff ff ff ff 00 26 85 62 66 01 00 00 00
0c 14 01 03 80 3e 22 78 0a 1e ac 98 59 56 85 28
29 52 57 20 00 00 01 01 01 01 01 01 01 01 01 01
01 01 01 01 01 01 02 3a 80 18 71 38 2d 40 58 2c
45 00 6d 55 21 00 00 1e d5 09 80 a0 20 e0 2d 10
10 60 a2 00 6d 55 21 00 00 18 00 00 00 fc 00 49
54 45 2d 46 48 44 0a 20 20 20 20 20 00 00 00 fd
00 17 3d 0d 2e 11 00 0a 20 20 20 20 20 20 01 61

02 03 3a f3 43 90 04 03 83 6f 0f 0c 3e 0f 7f 07
15 07 50 57 04 03 25 07 07 2d 07 07 35 07 30 3d
07 c0 5f 7e 03 5f 7e 01 67 7f 01 26 45 1f 00 4d
07 00 67 03 0c 00 ff ff 00 2d 02 3a 80 18 71 38
2d 40 58 2c 45 00 6d 55 21 00 00 1e 01 1d 00 72
51 d0 1e 20 6e 28 55 00 6d 55 21 00 00 1e d5 09
80 a0 20 e0 2d 10 10 60 a2 00 6d 55 21 00 00 18
00 00 00 00 00 00 00 00 00 00 00 00 00 00 00 71

00 ff ff ff ff ff ff 00 26 85 62 66 01 00 00 00
0c 14 01 03 80 3e 22 78 0a 1e ac 98 59 56 85 28
29 52 57 20 00 00 01 01 01 01 01 01 01 01 01 01
01 01 01 01 01 01 02 3a 80 18 71 38 2d 40 58 2c
45 00 6d 55 21 00 00 1e d5 09 80 a0 20 e0 2d 10
10 60 a2 00 6d 55 21 00 00 18 00 00 00 fc 00 49
54 45 2d 46 48 44 0a 20 20 20 20 20 00 00 00 fd
00 17 3d 0d 2e 11 00 0a 20 20 20 20 20 20 01 61

02 03 3a f3 43 90 04 03 83 6f 0f 0c 3e 0f 7f 07
15 07 50 57 04 03 25 07 07 2d 07 07 35 07 30 3d
07 c0 5f 7e 03 5f 7e 01 67 7f 01 26 45 1f 00 4d
07 00 67 03 0c 00 ff ff 00 2d 02 3a 80 18 71 38
2d 40 58 2c 45 00 6d 55 21 00 00 1e 01 1d 00 72
51 d0 1e 20 6e 28 55 00 6d 55 21 00 00 1e d5 09
80 a0 20 e0 2d 10 10 60 a2 00 6d 55 21 00 00 18
00 00 00 00 00 00 00 00 00 00 00 00 00 00 00 71

----------------

Block 0, Base EDID:
  EDID Structure Version & Revision: 1.3
  Vendor & Product Identification:
    Manufacturer: ITE
    Model: 26210
    Serial Number: ...
    Made in: week 12 of 2010
  Basic Display Parameters & Features:
    Digital display
    Maximum image size: 62 cm x 34 cm
    Gamma: 2.20
    RGB color display
    First detailed timing is the preferred timing
  Color Characteristics:
    Red  : 0.5937, 0.3486
    Green: 0.3388, 0.5214
    Blue : 0.1582, 0.1621
    White: 0.3232, 0.3398
  Established Timings I & II:
    DMT 0x04:   640x480    59.940476 Hz   4:3     31.469 kHz     25.175000 MHz
  Standard Timings: none
  Detailed Timing Descriptors:
    DTD 1:  1920x1080   60.000000 Hz  16:9     67.500 kHz    148.500000 MHz (621 mm x 341 mm)
                 Hfront   88 Hsync  44 Hback  148 Hpol P
                 Vfront    4 Vsync   5 Vback   36 Vpol P
    DTD 2:   640x480    59.928571 Hz   4:3     31.462 kHz     25.170000 MHz (621 mm x 341 mm)
                 Hfront   16 Hsync  96 Hback   48 Hpol N
                 Vfront   10 Vsync   2 Vback   33 Vpol N
    Display Product Name: 'ITE-FHD'
    Display Range Limits:
      Monitor ranges (GTF): 23-61 Hz V, 13-46 kHz H, max dotclock 170 MHz
  Extension blocks: 1
Checksum: 0x61

----------------

Block 1, CTA-861 Extension Block:
  Revision: 3
  Underscans IT Video Formats by default
  Basic audio support
  Supports YCbCr 4:4:4
  Supports YCbCr 4:2:2
  Native detailed modes: 3
  Video Data Block:
    VIC  16:  1920x1080   60.000000 Hz  16:9     67.500 kHz    148.500000 MHz (native)
    VIC   4:  1280x720    60.000000 Hz  16:9     45.000 kHz     74.250000 MHz
    VIC   3:   720x480    59.940060 Hz  16:9     31.469 kHz     27.000000 MHz
  Speaker Allocation Data Block:
    FL/FR - Front Left/Right
    LFE1 - Low Frequency Effects 1
    FC - Front Center
    BL/BR - Back Left/Right
    FLc/FRc - Front Left/Right of Center
    RLC/RRC - Rear Left/Right of Center (Deprecated)
    TpFL/TpFR - Top Front Left/Right
    TpC - Top Center
    TpFC - Top Front Center
    LS/RS - Left/Right Surround
    BtFL/BtFR - Bottom Front Left/Right
    TpLS/TpRS - Top Left/Right Surround (Deprecated for CTA-861)
  Audio Data Block:
    Linear PCM:
      Max channels: 8
      Supported sample rates (kHz): 192 176.4 96 88.2 48 44.1 32
      Supported sample sizes (bits): 24 20 16
    AC-3:
      Max channels: 6
      Supported sample rates (kHz): 48 44.1 32
      Maximum bit rate: 640 kb/s
    Enhanced AC-3 (DD+):
      Max channels: 8
      Supported sample rates (kHz): 48
      Supports Joint Object Coding
      Supports Joint Object Coding with ACMOD28
    MPEG 1 Layer 3 (MP3):
      Max channels: 6
      Supported sample rates (kHz): 48 44.1 32
      Maximum bit rate: 56 kb/s
    MPEG2 (multichannel):
      Max channels: 6
      Supported sample rates (kHz): 48 44.1 32
      Maximum bit rate: 56 kb/s
    AAC LC:
      Max channels: 6
      Supported sample rates (kHz): 48 44.1 32
      Maximum bit rate: 384 kb/s
    DTS:
      Max channels: 6
      Supported sample rates (kHz): 48 44.1 32
      Maximum bit rate: 1536 kb/s
    DTS-HD:
      Max channels: 8
      Supported sample rates (kHz): 192 176.4 96 88.2 48 44.1
      Supports DTS:X
      Audio Format Code dependent value: 0x03
    DTS-HD:
      Max channels: 8
      Supported sample rates (kHz): 192 176.4 96 88.2 48 44.1
      Audio Format Code dependent value: 0x01
    MAT (MLP):
      Max channels: 8
      Supported sample rates (kHz): 192 176.4 96 88.2 48 44.1 32
      Supports Dolby TrueHD, object audio PCM and channel-based PCM
      Hash calculation required for object audio PCM or channel-based PCM
  Audio Data Block:
    ATRAC:
      Max channels: 6
      Supported sample rates (kHz): 96 88.2 48 44.1 32
      Maximum bit rate: 0 kb/s
    One Bit Audio:
      Max channels: 6
      Supported sample rates (kHz): 48 44.1 32
      Audio Format Code dependent value: 0x00
  Vendor-Specific Data Block (HDMI), OUI 00-0C-03:
    Source physical address: f.f.f.f
    Maximum TMDS clock: 225 MHz
  Detailed Timing Descriptors:
    DTD 3:  1920x1080   60.000000 Hz  16:9     67.500 kHz    148.500000 MHz (621 mm x 341 mm)
                 Hfront   88 Hsync  44 Hback  148 Hpol P
                 Vfront    4 Vsync   5 Vback   36 Vpol P
    DTD 4:  1280x720    60.000000 Hz  16:9     45.000 kHz     74.250000 MHz (621 mm x 341 mm)
                 Hfront  110 Hsync  40 Hback  220 Hpol P
                 Vfront    5 Vsync   5 Vback   20 Vpol P
    DTD 5:   640x480    59.928571 Hz   4:3     31.462 kHz     25.170000 MHz (621 mm x 341 mm)
                 Hfront   16 Hsync  96 Hback   48 Hpol N
                 Vfront   10 Vsync   2 Vback   33 Vpol N
Checksum: 0x71  Unused space in Extension Block: 15 bytes

----------------

Block 2, Unknown EDID Extension Block 0x00:
  00 ff ff ff ff ff ff 00 26 85 62 66 01 00 00 00 '........&.bf....'
  0c 14 01 03 80 3e 22 78 0a 1e ac 98 59 56 85 28 '.....>"x....YV.('
  29 52 57 20 00 00 01 01 01 01 01 01 01 01 01 01 ')RW ............'
  01 01 01 01 01 01 02 3a 80 18 71 38 2d 40 58 2c '.......:..q8-@X,'
  45 00 6d 55 21 00 00 1e d5 09 80 a0 20 e0 2d 10 'E.mU!....... .-.'
  10 60 a2 00 6d 55 21 00 00 18 00 00 00 fc 00 49 '.`..mU!........I'
  54 45 2d 46 48 44 0a 20 20 20 20 20 00 00 00 fd 'TE-FHD.     ....'
  00 17 3d 0d 2e 11 00 0a 20 20 20 20 20 20 01 61 '..=.....      .a'
Checksum: 0x61

----------------

Block 3, CTA-861 Extension Block:
  Revision: 3
  Underscans IT Video Formats by default
  Basic audio support
  Supports YCbCr 4:4:4
  Supports YCbCr 4:2:2
  Native detailed modes: 3
  Video Data Block:
    VIC  16:  1920x1080   60.000000 Hz  16:9     67.500 kHz    148.500000 MHz (native)
    VIC   4:  1280x720    60.000000 Hz  16:9     45.000 kHz     74.250000 MHz
    VIC   3:   720x480    59.940060 Hz  16:9     31.469 kHz     27.000000 MHz
  Speaker Allocation Data Block:
    FL/FR - Front Left/Right
    LFE1 - Low Frequency Effects 1
    FC - Front Center
    BL/BR - Back Left/Right
    FLc/FRc - Front Left/Right of Center
    RLC/RRC - Rear Left/Right of Center (Deprecated)
    TpFL/TpFR - Top Front Left/Right
    TpC - Top Center
    TpFC - Top Front Center
    LS/RS - Left/Right Surround
    BtFL/BtFR - Bottom Front Left/Right
    TpLS/TpRS - Top Left/Right Surround (Deprecated for CTA-861)
  Audio Data Block:
    Linear PCM:
      Max channels: 8
      Supported sample rates (kHz): 192 176.4 96 88.2 48 44.1 32
      Supported sample sizes (bits): 24 20 16
    AC-3:
      Max channels: 6
      Supported sample rates (kHz): 48 44.1 32
      Maximum bit rate: 640 kb/s
    Enhanced AC-3 (DD+):
      Max channels: 8
      Supported sample rates (kHz): 48
      Supports Joint Object Coding
      Supports Joint Object Coding with ACMOD28
    MPEG 1 Layer 3 (MP3):
      Max channels: 6
      Supported sample rates (kHz): 48 44.1 32
      Maximum bit rate: 56 kb/s
    MPEG2 (multichannel):
      Max channels: 6
      Supported sample rates (kHz): 48 44.1 32
      Maximum bit rate: 56 kb/s
    AAC LC:
      Max channels: 6
      Supported sample rates (kHz): 48 44.1 32
      Maximum bit rate: 384 kb/s
    DTS:
      Max channels: 6
      Supported sample rates (kHz): 48 44.1 32
      Maximum bit rate: 1536 kb/s
    DTS-HD:
      Max channels: 8
      Supported sample rates (kHz): 192 176.4 96 88.2 48 44.1
      Supports DTS:X
      Audio Format Code dependent value: 0x03
    DTS-HD:
      Max channels: 8
      Supported sample rates (kHz): 192 176.4 96 88.2 48 44.1
      Audio Format Code dependent value: 0x01
    MAT (MLP):
      Max channels: 8
      Supported sample rates (kHz): 192 176.4 96 88.2 48 44.1 32
      Supports Dolby TrueHD, object audio PCM and channel-based PCM
      Hash calculation required for object audio PCM or channel-based PCM
  Audio Data Block:
    ATRAC:
      Max channels: 6
      Supported sample rates (kHz): 96 88.2 48 44.1 32
      Maximum bit rate: 0 kb/s
    One Bit Audio:
      Max channels: 6
      Supported sample rates (kHz): 48 44.1 32
      Audio Format Code dependent value: 0x00
  Vendor-Specific Data Block (HDMI), OUI 00-0C-03:
    Source physical address: f.f.f.f
    Maximum TMDS clock: 225 MHz
  Detailed Timing Descriptors:
    DTD 6:  1920x1080   60.000000 Hz  16:9     67.500 kHz    148.500000 MHz (621 mm x 341 mm)
                 Hfront   88 Hsync  44 Hback  148 Hpol P
                 Vfront    4 Vsync   5 Vback   36 Vpol P
    DTD 7:  1280x720    60.000000 Hz  16:9     45.000 kHz     74.250000 MHz (621 mm x 341 mm)
                 Hfront  110 Hsync  40 Hback  220 Hpol P
                 Vfront    5 Vsync   5 Vback   20 Vpol P
    DTD 8:   640x480    59.928571 Hz   4:3     31.462 kHz     25.170000 MHz (621 mm x 341 mm)
                 Hfront   16 Hsync  96 Hback   48 Hpol N
                 Vfront   10 Vsync   2 Vback   33 Vpol N
Checksum: 0x71  Unused space in Extension Block: 15 bytes

----------------

Warnings:

Block 1, CTA-861 Extension Block:
  Add a Colorimetry Data Block with the sRGB colorimetry bit set to avoid interop issues.
Block 3, CTA-861 Extension Block:
  Add a Colorimetry Data Block with the sRGB colorimetry bit set to avoid interop issues.

Failures:

Block 1, CTA-861 Extension Block:
  Missing VCDB, needed for Set Selectable RGB Quantization to avoid interop issues.
Block 2, Base EDID:
  Unknown Extension Block.
Block 3, CTA-861 Extension Block:
  Video Data Block: Duplicate VIC 16.
  Video Data Block: Duplicate VIC 4.
  Video Data Block: Duplicate VIC 3.
  Speaker Allocation Data Block: Only one instance of this Data Block is allowed.
  Missing VCDB, needed for Set Selectable RGB Quantization to avoid interop issues.
EDID:
  Base EDID: Some timings are out of range of the Monitor Ranges:
    Horizontal Freq: 31.462 - 67.500 kHz (Monitor: 13.000 - 46.000 kHz)
  Base EDID: EDID specified 1 extension block(s), but found 3 extension block(s).
  Base EDID: EDID 1.3 requires a Block Map Extension in Block 1 if there are more than 2 blocks in the EDID.
  CTA-861: Native progressive timings are a mix of several resolutions.

EDID conformity: FAIL
