
EDID (hex):
00ffffffffffff0009e5030700000000
011a010495221378020010a75751a127
10505400000001010101010101010101
010101010101963780a070383c403020
360058c21000001a0000000000000000
00000000000000000000000000fe0042
4f452043510a202020202020000000fe
004e5631353646484d2d4e34330a008d

Extracted contents:
header:          00 ff ff ff ff ff ff 00
serial number:   09 e5 03 07 00 00 00 00 01 1a
version:         01 04
basic params:    95 22 13 78 02
chroma info:     00 10 a7 57 51 a1 27 10 50 54
established:     00 00 00
standard:        01 01 01 01 01 01 01 01 01 01 01 01 01 01 01 01
descriptor 1:    96 37 80 a0 70 38 3c 40 30 20 36 00 58 c2 10 00 00 1a
descriptor 2:    00 00 00 00 00 00 00 00 00 00 00 00 00 00 00 00 00 00
descriptor 3:    00 00 00 fe 00 42 4f 45 20 43 51 0a 20 20 20 20 20 20
descriptor 4:    00 00 00 fe 00 4e 56 31 35 36 46 48 4d 2d 4e 34 33 0a
extensions:      00
checksum:        8d

EDID version: 1.4
Manufacturer: BOE Model 703 Serial Number --
Made in week 1 of 2016
Digital display
6 bits per primary color channel
DisplayPort interface
Maximum image size: 34 cm x 19 cm
Gamma: 2.20
Supported color formats: RGB 4:4:4
First detailed timing includes the native pixel format and preferred refresh rate
Display x,y Chromaticity:
  Red:   0.6523, 0.3398
  Green: 0.3164, 0.6289
  Blue:  0.1523, 0.0634
  White: 0.3125, 0.3281
Established timings supported:
Standard timings supported:
Detailed mode: Clock 142.300 MHz, 344 mm x 194 mm
               1920 1968 2000 2080 hborder 0
               1080 1083 1089 1140 vborder 0
               +hsync -vsync 
               VertFreq: 60 Hz, HorFreq: 68413 Hz
Manufacturer-specified data, tag 0
ASCII string: BOE CQ
ASCII string: NV156FHM-N43
Checksum: 0x8d (valid)
EDID block does NOT conform to EDID 1.4!
	Missing name descriptor
	Missing monitor ranges
