
EDID (hex):
00ffffffffffff00410c74d001010101
00140103684024782a1f1b9f58559e27
0c474aafce0001010101010101010101
0101010101011b2150a051001e304888
3500806821000018000000ff000a2020
20202020202020202020000000fc0050
4849323650464c3334303548000000fd
00384c1e5311000a20202020202000f4

Extracted contents:
header:          00 ff ff ff ff ff ff 00
serial number:   41 0c 74 d0 01 01 01 01 00 14
version:         01 03
basic params:    68 40 24 78 2a
chroma info:     1f 1b 9f 58 55 9e 27 0c 47 4a
established:     af ce 00
standard:        01 01 01 01 01 01 01 01 01 01 01 01 01 01 01 01
descriptor 1:    1b 21 50 a0 51 00 1e 30 48 88 35 00 80 68 21 00 00 18
descriptor 2:    00 00 00 ff 00 0a 20 20 20 20 20 20 20 20 20 20 20 20
descriptor 3:    00 00 00 fc 00 50 48 49 32 36 50 46 4c 33 34 30 35 48
descriptor 4:    00 00 00 fd 00 38 4c 1e 53 11 00 0a 20 20 20 20 20 20
extensions:      00
checksum:        f4

EDID version: 1.3
Manufacturer: PHL Model d074 Serial Number --
Made in year 2010
Analog display, Input voltage level: 0.7/0.7 V
Sync: Separate 
Maximum image size: 64 cm x 36 cm
Gamma: 2.20
DPMS levels: Off
RGB color display
First detailed timing is preferred timing
Display x,y Chromaticity:
  Red:   0.6210, 0.3447
  Green: 0.3349, 0.6201
  Blue:  0.1523, 0.0478
  White: 0.2792, 0.2919
Established timings supported:
  720x400@70Hz 9:5 HorFreq: 31469 Hz Clock: 28.320 MHz
  640x480@60Hz 4:3 HorFreq: 31469 Hz Clock: 25.175 MHz
  640x480@72Hz 4:3 HorFreq: 37900 Hz Clock: 31.500 MHz
  640x480@75Hz 4:3 HorFreq: 37500 Hz Clock: 31.500 MHz
  800x600@56Hz 4:3 HorFreq: 35200 Hz Clock: 36.000 MHz
  800x600@60Hz 4:3 HorFreq: 37900 Hz Clock: 40.000 MHz
  800x600@72Hz 4:3 HorFreq: 48100 Hz Clock: 50.000 MHz
  800x600@75Hz 4:3 HorFreq: 46900 Hz Clock: 49.500 MHz
  1024x768@60Hz 4:3 HorFreq: 48400 Hz Clock: 65.000 MHz
  1024x768@70Hz 4:3 HorFreq: 56500 Hz Clock: 75.000 MHz
  1024x768@75Hz 4:3 HorFreq: 60000 Hz Clock: 78.750 MHz
Standard timings supported:
Detailed mode: Clock 84.750 MHz, 640 mm x 360 mm
               1360 1432 1568 1776 hborder 0
                768  771  776  798 vborder 0
               -hsync -vsync 
               VertFreq: 59 Hz, HorFreq: 47719 Hz
Serial number: 
-- ranges (GTF): 56-76Hz V, 30-83kHz H, max dotclock 170MHz
Checksum: 0xf4 (valid)
EDID block does NOT conform to EDID 1.3!
	Name descriptor not terminated with a newline
