
EDID (hex):
00ffffffffffff002163fe06c7ea0200
340f0103682018782aeea69e544c9926
194f54adcf0081800101010101010101
010101010101bc34009851002a401090
13005e0e1100001e000000fd003c4b1f
500e000a202020202020000000fc0031
37393042530a202020202020000000fe
0048423030303543313931313735001a

Extracted contents:
header:          00 ff ff ff ff ff ff 00
serial number:   21 63 fe 06 c7 ea 02 00 34 0f
version:         01 03
basic params:    68 20 18 78 2a
chroma info:     ee a6 9e 54 4c 99 26 19 4f 54
established:     ad cf 00
standard:        81 80 01 01 01 01 01 01 01 01 01 01 01 01 01 01
descriptor 1:    bc 34 00 98 51 00 2a 40 10 90 13 00 5e 0e 11 00 00 1e
descriptor 2:    00 00 00 fd 00 3c 4b 1f 50 0e 00 0a 20 20 20 20 20 20
descriptor 3:    00 00 00 fc 00 31 37 39 30 42 53 0a 20 20 20 20 20 20
descriptor 4:    00 00 00 fe 00 48 42 30 30 30 35 43 31 39 31 31 37 35
extensions:      00
checksum:        1a

EDID version: 1.3
Manufacturer: HKC Model 6fe Serial Number --
Analog display, Input voltage level: 0.7/0.7 V
Sync: Separate 
Maximum image size: 32 cm x 24 cm
Gamma: 2.20
DPMS levels: Off
RGB color display
First detailed timing is preferred timing
Display x,y Chromaticity:
  Red:   0.6201, 0.3300
  Green: 0.2998, 0.5996
  Blue:  0.1503, 0.0996
  White: 0.3095, 0.3300
Established timings supported:
  720x400@70Hz 9:5 HorFreq: 31469 Hz Clock: 28.320 MHz
  640x480@60Hz 4:3 HorFreq: 31469 Hz Clock: 25.175 MHz
  640x480@72Hz 4:3 HorFreq: 37900 Hz Clock: 31.500 MHz
  640x480@75Hz 4:3 HorFreq: 37500 Hz Clock: 31.500 MHz
  800x600@60Hz 4:3 HorFreq: 37900 Hz Clock: 40.000 MHz
  800x600@72Hz 4:3 HorFreq: 48100 Hz Clock: 50.000 MHz
  800x600@75Hz 4:3 HorFreq: 46900 Hz Clock: 49.500 MHz
  1024x768@60Hz 4:3 HorFreq: 48400 Hz Clock: 65.000 MHz
  1024x768@70Hz 4:3 HorFreq: 56500 Hz Clock: 75.000 MHz
  1024x768@75Hz 4:3 HorFreq: 60000 Hz Clock: 78.750 MHz
  1280x1024@75Hz 5:4 HorFreq: 80000 Hz Clock: 135.000 MHz
Standard timings supported:
  1280x1024@60Hz 5:4 HorFreq: 64000 Hz Clock: 108.000 MHz
Detailed mode: Clock 135.000 MHz, 350 mm x 270 mm
               1280 1296 1440 1688 hborder 0
               1024 1025 1028 1066 vborder 0
               +hsync +vsync 
               VertFreq: 75 Hz, HorFreq: 79976 Hz
Monitor ranges (GTF): 60-75Hz V, 31-80kHz H, max dotclock 140MHz
Monitor name: 1790BS
ASCII string: HB0005C191175
Checksum: 0x1a (valid)
EDID block does not conform at all!
	Bad year of manufacture
