edid-decode (hex):

00 ff ff ff ff ff ff 00 3c 54 10 05 01 04 00 00
12 1f 01 04 a5 34 1f 78 02 80 42 ac 51 30 b4 25
10 50 53 00 00 00 01 01 01 01 01 01 01 01 01 01
01 01 01 01 01 01 48 39 80 18 71 38 1f 40 50 20
35 00 0f 28 21 00 00 1a bd 2f 80 18 71 38 1f 40
50 20 35 00 0f 28 21 00 00 1a 00 00 00 fe 00 0a
20 20 20 20 20 20 20 20 20 20 20 20 00 00 00 fe
00 31 39 32 30 78 31 30 38 30 0a 20 20 20 00 51

00 ff ff ff ff ff ff 00 3c 54 10 05 01 04 00 00
12 1f 01 04 a5 34 1f 78 02 80 42 ac 51 30 b4 25
10 50 53 00 00 00 01 01 01 01 01 01 01 01 01 01
01 01 01 01 01 01 48 39 80 18 71 38 1f 40 50 20
35 00 0f 28 21 00 00 1a bd 2f 80 18 71 38 1f 40
50 20 35 00 0f 28 21 00 00 1a 00 00 00 fe 00 0a
20 20 20 20 20 20 20 20 20 20 20 20 00 00 00 fe
00 31 39 32 30 78 31 30 38 30 0a 20 20 20 00 51

----------------

Block 0, Base EDID:
  EDID Structure Version & Revision: 1.4
  Vendor & Product Identification:
    Manufacturer: OBT
    Model: 1296
    Serial Number: ...
    Made in: week 18 of 2021
  Basic Display Parameters & Features:
    Digital display
    Bits per primary color channel: 8
    DisplayPort interface
    Maximum image size: 52 cm x 31 cm
    Gamma: 2.20
    Supported color formats: RGB 4:4:4
    First detailed timing includes the native pixel format and preferred refresh rate
  Color Characteristics:
    Red  : 0.6738, 0.3164
    Green: 0.1875, 0.7031
    Blue : 0.1455, 0.0625
    White: 0.3125, 0.3261
  Established Timings I & II: none
  Standard Timings: none
  Detailed Timing Descriptors:
    DTD 1:  1920x1080   59.995090 Hz  16:9     66.655 kHz    146.640000 MHz (527 mm x 296 mm)
                 Hfront   80 Hsync  32 Hback  168 Hpol P
                 Vfront    3 Vsync   5 Vback   23 Vpol N
    DTD 2:  1920x1080   50.000000 Hz  16:9     55.550 kHz    122.210000 MHz (527 mm x 296 mm)
                 Hfront   80 Hsync  32 Hback  168 Hpol P
                 Vfront    3 Vsync   5 Vback   23 Vpol N
    Alphanumeric Data String: ''
    Alphanumeric Data String: '1920x1080'
Checksum: 0x51

----------------

Block 1, Unknown EDID Extension Block 0x00:
  00 ff ff ff ff ff ff 00 3c 54 10 05 01 04 00 00 '........<T......'
  12 1f 01 04 a5 34 1f 78 02 80 42 ac 51 30 b4 25 '.....4.x..B.Q0.%'
  10 50 53 00 00 00 01 01 01 01 01 01 01 01 01 01 '.PS.............'
  01 01 01 01 01 01 48 39 80 18 71 38 1f 40 50 20 '......H9..q8.@P '
  35 00 0f 28 21 00 00 1a bd 2f 80 18 71 38 1f 40 '5..(!..../..q8.@'
  50 20 35 00 0f 28 21 00 00 1a 00 00 00 fe 00 0a 'P 5..(!.........'
  20 20 20 20 20 20 20 20 20 20 20 20 00 00 00 fe '            ....'
  00 31 39 32 30 78 31 30 38 30 0a 20 20 20 00 51 '.1920x1080.   .Q'
Checksum: 0x51

----------------

Warnings:

Block 0, Base EDID:
  Missing Display Product Name.

Failures:

Block 0, Base EDID:
  Alphanumeric Data String: Empty string.
Block 1, Base EDID:
  Unknown Extension Block.
EDID:
  Base EDID: EDID specified 0 extension block(s), but found 1 extension block(s).

EDID conformity: FAIL
