
EDID (hex):
00ffffffffffff000e14851700000000
1c120103801e13780aad0f9653508a27
20505400000001010101010101010101
010101010101c71b00a0502017303020
360030be100000180000000f00202020
20202020202020202020000000fe0043
505420202020202020202020000000fe
00434c414131343157423035412000bc

Extracted contents:
header:          00 ff ff ff ff ff ff 00
serial number:   0e 14 85 17 00 00 00 00 1c 12
version:         01 03
basic params:    80 1e 13 78 0a
chroma info:     ad 0f 96 53 50 8a 27 20 50 54
established:     00 00 00
standard:        01 01 01 01 01 01 01 01 01 01 01 01 01 01 01 01
descriptor 1:    c7 1b 00 a0 50 20 17 30 30 20 36 00 30 be 10 00 00 18
descriptor 2:    00 00 00 0f 00 20 20 20 20 20 20 20 20 20 20 20 20 20
descriptor 3:    00 00 00 fe 00 43 50 54 20 20 20 20 20 20 20 20 20 20
descriptor 4:    00 00 00 fe 00 43 4c 41 41 31 34 31 57 42 30 35 41 20
extensions:      00
checksum:        bc

EDID version: 1.3
Manufacturer: CPT Model 1785 Serial Number --
Made in week 28 of 2008
Digital display
Maximum image size: 30 cm x 19 cm
Gamma: 2.20
RGB color display
First detailed timing is preferred timing
Display x,y Chromaticity:
  Red:   0.5878, 0.3261
  Green: 0.3154, 0.5400
  Blue:  0.1523, 0.1250
  White: 0.3154, 0.3310
Established timings supported:
Standard timings supported:
Detailed mode: Clock 71.110 MHz, 304 mm x 190 mm
               1280 1328 1360 1440 hborder 0
                800  803  809  823 vborder 0
               -hsync -vsync 
               VertFreq: 60 Hz, HorFreq: 49381 Hz
Manufacturer-specified data, tag 15
ASCII string: CPT          
ASCII string: CLAA141WB05A 
Checksum: 0xbc (valid)
EDID block does NOT conform to EDID 1.3!
	Missing name descriptor
	Missing monitor ranges
