
EDID (hex):
00ffffffffffff002034301301010101
0b1e0103801d1178eade50a3544c9926
0f50542108008180a940d1c08b000101
010101010101023a801871382d40582c
450026a51000001e000000ff00000a20
20202020202020202020000000fc004b
616d7661732031330a202020000000fd
0031411e5111000a20202020202001f8
02030081402067030c001000382d80e3
050301023a801871382d40582c450006
442100001e011d007251d01e206e2855
0006442100001e8c0ad08a20e02d1010
3e960006442100001800000000000000
00000000000000000000000000000000
00000000000000000000000000000000
00000000000000000000000000000090

Extracted contents:
header:          00 ff ff ff ff ff ff 00
serial number:   20 34 30 13 01 01 01 01 0b 1e
version:         01 03
basic params:    80 1d 11 78 ea
chroma info:     de 50 a3 54 4c 99 26 0f 50 54
established:     21 08 00
standard:        81 80 a9 40 d1 c0 8b 00 01 01 01 01 01 01 01 01
descriptor 1:    02 3a 80 18 71 38 2d 40 58 2c 45 00 26 a5 10 00 00 1e
descriptor 2:    00 00 00 ff 00 00 0a 20 20 20 20 20 20 20 20 20 20 20
descriptor 3:    00 00 00 fc 00 4b 61 6d 76 61 73 20 31 33 0a 20 20 20
descriptor 4:    00 00 00 fd 00 31 41 1e 51 11 00 0a 20 20 20 20 20 20
extensions:      01
checksum:        f8

EDID version: 1.3
Manufacturer: HAT Model 1330 Serial Number --
Made in week 11 of 2020
Digital display
Maximum image size: 29 cm x 17 cm
Gamma: 2.20
DPMS levels: Standby Suspend Off
RGB color display
First detailed timing is preferred timing
Display x,y Chromaticity:
  Red:   0.6396, 0.3291
  Green: 0.2998, 0.5996
  Blue:  0.1494, 0.0595
  White: 0.3125, 0.3281
Established timings supported:
  640x480@60Hz 4:3 HorFreq: 31469 Hz Clock: 25.175 MHz
  800x600@60Hz 4:3 HorFreq: 37900 Hz Clock: 40.000 MHz
  1024x768@60Hz 4:3 HorFreq: 48400 Hz Clock: 65.000 MHz
Standard timings supported:
  1280x1024@60Hz 5:4 HorFreq: 64000 Hz Clock: 108.000 MHz
  1600x1200@60Hz 4:3 HorFreq: 75000 Hz Clock: 162.000 MHz
  1920x1080@60Hz 16:9
  1360x850@60Hz 16:10
Detailed mode: Clock 148.500 MHz, 294 mm x 165 mm
               1920 2008 2052 2200 hborder 0
               1080 1084 1089 1125 vborder 0
               +hsync +vsync 
               VertFreq: 60 Hz, HorFreq: 67500 Hz
Serial number: 
-- name: Kamvas 13
Monitor ranges (GTF): 49-65Hz V, 30-81kHz H, max dotclock 170MHz
Has 1 extension blocks
Checksum: 0xf8 (valid)

CTA extension block
Extension version: 3
Checksum: 0x90 (valid)

EDID block does NOT conform to EDID 1.3!
	Detailed block string not properly terminated
EDID block does not conform at all!
	Both the serial number and the serial string are set


