edid-decode (hex):

00 ff ff ff ff ff ff 00 06 af 8f 10 00 00 00 00
00 1e 01 04 a5 1e 14 78 03 70 a5 a4 53 4c 9e 27
10 50 54 00 00 00 01 01 01 01 01 01 01 01 01 01
01 01 01 01 01 01 08 52 70 ac 80 a0 3c 50 30 20
36 00 28 c5 10 00 00 18 00 00 00 fd 00 30 3c 5a
5a 15 01 0a 20 20 20 20 20 20 00 00 00 fe 00 47
31 34 30 4a 41 4e 30 31 2e 30 00 00 00 00 00 fe
00 31 48 32 42 42 55 4c 36 53 52 5a 5a 00 00 d3

00 ff ff ff ff ff ff 00 06 af 8f 10 00 00 00 00
00 1e 01 04 a5 1e 14 78 03 70 a5 a4 53 4c 9e 27
10 50 54 00 00 00 01 01 01 01 01 01 01 01 01 01
01 01 01 01 01 01 08 52 70 ac 80 a0 3c 50 30 20
36 00 28 c5 10 00 00 18 00 00 00 fd 00 30 3c 5a
5a 15 01 0a 20 20 20 20 20 20 00 00 00 fe 00 47
31 34 30 4a 41 4e 30 31 2e 30 00 00 00 00 00 fe
00 31 48 32 42 42 55 4c 36 53 52 5a 5a 00 00 d3

----------------

Block 0, Base EDID:
  EDID Structure Version & Revision: 1.4
  Vendor & Product Identification:
    Manufacturer: AUO
    Model: 4239
    Made in: 2020
  Basic Display Parameters & Features:
    Digital display
    Bits per primary color channel: 8
    DisplayPort interface
    Maximum image size: 30 cm x 20 cm
    Gamma: 2.20
    Supported color formats: RGB 4:4:4
    First detailed timing includes the native pixel format and preferred refresh rate
    Display is continuous frequency
  Color Characteristics:
    Red  : 0.6416, 0.3271
    Green: 0.2968, 0.6171
    Blue : 0.1542, 0.0644
    White: 0.3134, 0.3291
  Established Timings I & II: none
  Standard Timings: none
  Detailed Timing Descriptors:
    DTD 1:  2160x1440   60.034305 Hz   3:2     90.051 kHz    210.000000 MHz (296 mm x 197 mm)
                 Hfront   48 Hsync  32 Hback   92 Hpol N
                 Vfront    3 Vsync   6 Vback   51 Vpol N
    Display Range Limits:
      Monitor ranges (Bare Limits): 48-60 Hz V, 90-90 kHz H, max dotclock 210 MHz
    Alphanumeric Data String: 'G140JAN01.0'
    Alphanumeric Data String: '1H2BBUL6SRZZ'
Checksum: 0xd3

----------------

Block 1, Unknown EDID Extension Block 0x00:
  00 ff ff ff ff ff ff 00 06 af 8f 10 00 00 00 00 '................'
  00 1e 01 04 a5 1e 14 78 03 70 a5 a4 53 4c 9e 27 '.......x.p..SL.''
  10 50 54 00 00 00 01 01 01 01 01 01 01 01 01 01 '.PT.............'
  01 01 01 01 01 01 08 52 70 ac 80 a0 3c 50 30 20 '.......Rp...<P0 '
  36 00 28 c5 10 00 00 18 00 00 00 fd 00 30 3c 5a '6.(..........0<Z'
  5a 15 01 0a 20 20 20 20 20 20 00 00 00 fe 00 47 'Z...      .....G'
  31 34 30 4a 41 4e 30 31 2e 30 00 00 00 00 00 fe '140JAN01.0......'
  00 31 48 32 42 42 55 4c 36 53 52 5a 5a 00 00 d3 '.1H2BBUL6SRZZ...'
Checksum: 0xd3

----------------

Warnings:

Block 0, Base EDID:
  Missing Display Product Name.

Failures:

Block 0, Base EDID:
  Alphanumeric Data String: Non-printable character.
  Alphanumeric Data String: Non-printable character.
Block 1, Base EDID:
  Unknown Extension Block.
EDID:
  Base EDID: EDID specified 0 extension block(s), but found 1 extension block(s).

EDID conformity: FAIL
