
EDID (hex):
00ffffffffffff004d108e1300000000
00000103801e1778ca71809955508d26
255054000000a9400101010101010101
010101010101803e400062b0324040c0
130030e4100000180000001000000000
00000000000000000a20000000100000
000000000000000000000a2000000010
0000000000000000000000000a2000ec

Extracted contents:
header:          00 ff ff ff ff ff ff 00
serial number:   4d 10 8e 13 00 00 00 00 00 00
version:         01 03
basic params:    80 1e 17 78 ca
chroma info:     71 80 99 55 50 8d 26 25 50 54
established:     00 00 00
standard:        a9 40 01 01 01 01 01 01 01 01 01 01 01 01 01 01
descriptor 1:    80 3e 40 00 62 b0 32 40 40 c0 13 00 30 e4 10 00 00 18
descriptor 2:    00 00 00 10 00 00 00 00 00 00 00 00 00 00 00 00 0a 20
descriptor 3:    00 00 00 10 00 00 00 00 00 00 00 00 00 00 00 00 0a 20
descriptor 4:    00 00 00 10 00 00 00 00 00 00 00 00 00 00 00 00 0a 20
extensions:      00
checksum:        ec

EDID version: 1.3
Manufacturer: SHP Model 138e Serial Number --
Digital display
Maximum image size: 30 cm x 23 cm
Gamma: 2.20
DPMS levels: Standby Suspend
RGB color display
First detailed timing is preferred timing
Display x,y Chromaticity:
  Red:   0.5986, 0.3349
  Green: 0.3125, 0.5517
  Blue:  0.1503, 0.1445
  White: 0.3125, 0.3281
Established timings supported:
Standard timings supported:
  1600x1200@60Hz 4:3 HorFreq: 75000 Hz Clock: 162.000 MHz
Detailed mode: Clock 160.000 MHz, 304 mm x 228 mm
               1600 1664 1856 2112 hborder 0
               1200 1201 1204 1250 vborder 0
               -hsync -vsync 
               VertFreq: 60 Hz, HorFreq: 75757 Hz
Dummy block
Dummy block
Dummy block
Checksum: 0xec (valid)
EDID block does NOT conform to EDID 1.3!
	Missing name descriptor
	Missing monitor ranges
EDID block does not conform at all!
	Bad year of manufacture
	Dummy block filled with garbage
