edid-decode (hex):

00 ff ff ff ff ff ff 00 36 47 31 31 00 88 88 88
20 1c 01 03 80 0c 07 78 0a 0d c9 a0 57 47 98 27
12 48 4c 00 00 00 01 01 01 01 01 01 01 01 01 01
01 01 01 01 01 01 02 3a 80 18 71 38 2d 40 58 2c
45 00 80 38 74 00 00 1e 02 3a 80 18 71 38 2d 40
58 2c 45 00 80 38 74 00 00 1e 00 00 00 fd 00 1e
4b 32 5a 10 00 0a 20 20 20 20 20 20 00 00 00 fc
00 4c 69 67 68 74 0a 20 20 20 20 20 20 20 00 0d

00 ff ff ff ff ff ff 00 36 47 31 31 00 88 88 88
20 1c 01 03 80 0c 07 78 0a 0d c9 a0 57 47 98 27
12 48 4c 00 00 00 01 01 01 01 01 01 01 01 01 01
01 01 01 01 01 01 02 3a 80 18 71 38 2d 40 58 2c
45 00 80 38 74 00 00 1e 02 3a 80 18 71 38 2d 40
58 2c 45 00 80 38 74 00 00 1e 00 00 00 fd 00 1e
4b 32 5a 10 00 0a 20 20 20 20 20 20 00 00 00 fc
00 4c 69 67 68 74 0a 20 20 20 20 20 20 20 00 0d

----------------

Block 0, Base EDID:
  EDID Structure Version & Revision: 1.3
  Vendor & Product Identification:
    Manufacturer: MRG
    Model: 12593
    Serial Number: ...
    Made in: week 32 of 2018
  Basic Display Parameters & Features:
    Digital display
    Maximum image size: 12 cm x 7 cm
    Gamma: 2.20
    RGB color display
    First detailed timing is the preferred timing
  Color Characteristics:
    Red  : 0.6250, 0.3398
    Green: 0.2802, 0.5947
    Blue : 0.1552, 0.0703
    White: 0.2832, 0.2978
  Established Timings I & II: none
  Standard Timings: none
  Detailed Timing Descriptors:
    DTD 1:  1920x1080   60.000000 Hz  16:9     67.500 kHz    148.500000 MHz (1920 mm x 1080 mm)
                 Hfront   88 Hsync  44 Hback  148 Hpol P
                 Vfront    4 Vsync   5 Vback   36 Vpol P
    DTD 2:  1920x1080   60.000000 Hz  16:9     67.500 kHz    148.500000 MHz (1920 mm x 1080 mm)
                 Hfront   88 Hsync  44 Hback  148 Hpol P
                 Vfront    4 Vsync   5 Vback   36 Vpol P
    Display Range Limits:
      Monitor ranges (GTF): 30-75 Hz V, 50-90 kHz H, max dotclock 160 MHz
    Display Product Name: 'Light'
Checksum: 0x0d

----------------

Block 1, Unknown EDID Extension Block 0x00:
  00 ff ff ff ff ff ff 00 36 47 31 31 00 88 88 88 '........6G11....'
  20 1c 01 03 80 0c 07 78 0a 0d c9 a0 57 47 98 27 ' ......x....WG.''
  12 48 4c 00 00 00 01 01 01 01 01 01 01 01 01 01 '.HL.............'
  01 01 01 01 01 01 02 3a 80 18 71 38 2d 40 58 2c '.......:..q8-@X,'
  45 00 80 38 74 00 00 1e 02 3a 80 18 71 38 2d 40 'E..8t....:..q8-@'
  58 2c 45 00 80 38 74 00 00 1e 00 00 00 fd 00 1e 'X,E..8t.........'
  4b 32 5a 10 00 0a 20 20 20 20 20 20 00 00 00 fc 'K2Z...      ....'
  00 4c 69 67 68 74 0a 20 20 20 20 20 20 20 00 0d '.Light.       ..'
Checksum: 0x0d

----------------

Warnings:

Block 0, Base EDID:
  Basic Display Parameters & Features: Dubious maximum image size (12x7 is smaller than 10x10 cm).

Failures:

Block 0, Base EDID:
  Detailed Timing Descriptor #1: Mismatch of image size 1920x1080 mm vs display size 120x70 mm.
  Detailed Timing Descriptor #2: Mismatch of image size 1920x1080 mm vs display size 120x70 mm.
Block 1, Base EDID:
  Unknown Extension Block.
EDID:
  Base EDID: The DTD max image size is 1920x1080mm, which is larger than the display size 120.0x70.0mm.
  Base EDID: EDID specified 0 extension block(s), but found 1 extension block(s).

EDID conformity: FAIL
