
EDID (hex):
00ffffffffffff00318c010001000000
1b140103680000ffeabbb9a352469824
0f484cafce0101010101010101010101
010101010101d020009851201e30d080
470468221100001c4826009851201e30
d080470468221100001c362900985120
1e30d080470468221100001c000000fc
004c4344202020202020202020200060

Extracted contents:
header:          00 ff ff ff ff ff ff 00
serial number:   31 8c 01 00 01 00 00 00 1b 14
version:         01 03
basic params:    68 00 00 ff ea
chroma info:     bb b9 a3 52 46 98 24 0f 48 4c
established:     af ce 01
standard:        01 01 01 01 01 01 01 01 01 01 01 01 01 01 01 01
descriptor 1:    d0 20 00 98 51 20 1e 30 d0 80 47 04 68 22 11 00 00 1c
descriptor 2:    48 26 00 98 51 20 1e 30 d0 80 47 04 68 22 11 00 00 1c
descriptor 3:    36 29 00 98 51 20 1e 30 d0 80 47 04 68 22 11 00 00 1c
descriptor 4:    00 00 00 fc 00 4c 43 44 20 20 20 20 20 20 20 20 20 20
extensions:      00
checksum:        60

EDID version: 1.3
Manufacturer: LLL Model 1 Serial Number --
Made in week 27 of 2010
Analog display, Input voltage level: 0.7/0.7 V
Sync: Separate 
Image size is variable
Gamma: 1.0
DPMS levels: Standby Suspend Off
RGB color display
First detailed timing is preferred timing
Display x,y Chromaticity:
  Red:   0.6386, 0.3232
  Green: 0.2753, 0.5966
  Blue:  0.1425, 0.0615
  White: 0.2832, 0.2978
Established timings supported:
  720x400@70Hz 9:5 HorFreq: 31469 Hz Clock: 28.320 MHz
  640x480@60Hz 4:3 HorFreq: 31469 Hz Clock: 25.175 MHz
  640x480@72Hz 4:3 HorFreq: 37900 Hz Clock: 31.500 MHz
  640x480@75Hz 4:3 HorFreq: 37500 Hz Clock: 31.500 MHz
  800x600@56Hz 4:3 HorFreq: 35200 Hz Clock: 36.000 MHz
  800x600@60Hz 4:3 HorFreq: 37900 Hz Clock: 40.000 MHz
  800x600@72Hz 4:3 HorFreq: 48100 Hz Clock: 50.000 MHz
  800x600@75Hz 4:3 HorFreq: 46900 Hz Clock: 49.500 MHz
  1024x768@60Hz 4:3 HorFreq: 48400 Hz Clock: 65.000 MHz
  1024x768@70Hz 4:3 HorFreq: 56500 Hz Clock: 75.000 MHz
  1024x768@75Hz 4:3 HorFreq: 60000 Hz Clock: 78.750 MHz
Standard timings supported:
Detailed mode: Clock 84.000 MHz, 360 mm x 290 mm
               1280 1488 1616 1688 hborder 0
                800  820  827  830 vborder 0
               -hsync +vsync 
               VertFreq: 59 Hz, HorFreq: 49763 Hz
Detailed mode: Clock 98.000 MHz, 360 mm x 290 mm
               1280 1488 1616 1688 hborder 0
                800  820  827  830 vborder 0
               -hsync +vsync 
               VertFreq: 69 Hz, HorFreq: 58056 Hz
Detailed mode: Clock 105.500 MHz, 360 mm x 290 mm
               1280 1488 1616 1688 hborder 0
                800  820  827  830 vborder 0
               -hsync +vsync 
               VertFreq: 75 Hz, HorFreq: 62500 Hz
Checksum: 0x60 (valid)
EDID block does NOT conform to EDID 1.3!
	Name descriptor not terminated with a newline
	Missing monitor ranges
