
EDID (hex):
00ffffffffffff00318c010001000000
1b140103080000008e00000000000000
000000adce0000000000000000000000
000000000000342150b051001b304070
360020560000001e992156aa51002030
468f3300205600000018641900404100
2630188836002056000000180e1f0080
510020304080370020560000001a001a

Extracted contents:
header:          00 ff ff ff ff ff ff 00
serial number:   31 8c 01 00 01 00 00 00 1b 14
version:         01 03
basic params:    08 00 00 00 8e
chroma info:     00 00 00 00 00 00 00 00 00 00
established:     ad ce 00
standard:        00 00 00 00 00 00 00 00 00 00 00 00 00 00 00 00
descriptor 1:    34 21 50 b0 51 00 1b 30 40 70 36 00 20 56 00 00 00 1e
descriptor 2:    99 21 56 aa 51 00 20 30 46 8f 33 00 20 56 00 00 00 18
descriptor 3:    64 19 00 40 41 00 26 30 18 88 36 00 20 56 00 00 00 18
descriptor 4:    0e 1f 00 80 51 00 20 30 40 80 37 00 20 56 00 00 00 1a
extensions:      00
checksum:        1a

EDID version: 1.3
Manufacturer: LLL Model 1 Serial Number --
Made in week 27 of 2010
Analog display, Input voltage level: 0.7/0.3 V
Sync: Separate 
Image size is variable
Gamma: 1.00
DPMS levels: Standby
RGB color display
Default (sRGB) color space is primary color space
First detailed timing is preferred timing
Display x,y Chromaticity:
  Red:   0.0000, 0.0000
  Green: 0.0000, 0.0000
  Blue:  0.0000, 0.0000
  White: 0.0000, 0.0000
Established timings supported:
  720x400@70Hz 9:5 HorFreq: 31469 Hz Clock: 28.320 MHz
  640x480@60Hz 4:3 HorFreq: 31469 Hz Clock: 25.175 MHz
  640x480@72Hz 4:3 HorFreq: 37900 Hz Clock: 31.500 MHz
  640x480@75Hz 4:3 HorFreq: 37500 Hz Clock: 31.500 MHz
  800x600@60Hz 4:3 HorFreq: 37900 Hz Clock: 40.000 MHz
  800x600@72Hz 4:3 HorFreq: 48100 Hz Clock: 50.000 MHz
  800x600@75Hz 4:3 HorFreq: 46900 Hz Clock: 49.500 MHz
  1024x768@60Hz 4:3 HorFreq: 48400 Hz Clock: 65.000 MHz
  1024x768@70Hz 4:3 HorFreq: 56500 Hz Clock: 75.000 MHz
  1024x768@75Hz 4:3 HorFreq: 60000 Hz Clock: 78.750 MHz
Standard timings supported:
non-conformant standard timing (0 horiz)
non-conformant standard timing (0 horiz)
non-conformant standard timing (0 horiz)
non-conformant standard timing (0 horiz)
non-conformant standard timing (0 horiz)
non-conformant standard timing (0 horiz)
non-conformant standard timing (0 horiz)
non-conformant standard timing (0 horiz)
Detailed mode: Clock 85.000 MHz, 32 mm x 86 mm
               1360 1424 1536 1792 hborder 0
                768  771  777  795 vborder 0
               +hsync +vsync 
               VertFreq: 59 Hz, HorFreq: 47433 Hz
Detailed mode: Clock 86.010 MHz, 32 mm x 86 mm
               1366 1436 1579 1792 hborder 0
                768  771  774  800 vborder 0
               -hsync -vsync 
               VertFreq: 59 Hz, HorFreq: 47996 Hz
Detailed mode: Clock 65.000 MHz, 32 mm x 86 mm
               1024 1048 1184 1344 hborder 0
                768  771  777  806 vborder 0
               -hsync -vsync 
               VertFreq: 60 Hz, HorFreq: 48363 Hz
Detailed mode: Clock 79.500 MHz, 32 mm x 86 mm
               1280 1344 1472 1664 hborder 0
                768  771  778  800 vborder 0
               +hsync -vsync 
               VertFreq: 59 Hz, HorFreq: 47776 Hz
Checksum: 0x1a (valid)
EDID block does NOT conform to EDID 1.3!
	sRGB is signaled, but the chromaticities do not match
	Missing name descriptor
	Missing monitor ranges
