
EDID (hex):
00ffffffffffff00318c010000000000
0c150103085831780aee9da3544c9926
0f4f54ab080081c08180814001010101
010101010101293680a070381f402020
1300c48e2100001e662150b051001b30
4070360070ea3100001e542e40106284
203070a0360020462100001ad42156b0
510023304070360070ea3100001e00d8

Extracted contents:
header:          00 ff ff ff ff ff ff 00
serial number:   31 8c 01 00 00 00 00 00 0c 15
version:         01 03
basic params:    08 58 31 78 0a
chroma info:     ee 9d a3 54 4c 99 26 0f 4f 54
established:     ab 08 00
standard:        81 c0 81 80 81 40 01 01 01 01 01 01 01 01 01 01
descriptor 1:    29 36 80 a0 70 38 1f 40 20 20 13 00 c4 8e 21 00 00 1e
descriptor 2:    66 21 50 b0 51 00 1b 30 40 70 36 00 70 ea 31 00 00 1e
descriptor 3:    54 2e 40 10 62 84 20 30 70 a0 36 00 20 46 21 00 00 1a
descriptor 4:    d4 21 56 b0 51 00 23 30 40 70 36 00 70 ea 31 00 00 1e
extensions:      00
checksum:        d8

EDID version: 1.3
Manufacturer: LLL Model 1 Serial Number --
Made in week 12 of 2011
Analog display, Input voltage level: 0.7/0.3 V
Sync: Separate 
Maximum image size: 88 cm x 49 cm
Gamma: 2.20
RGB color display
First detailed timing is preferred timing
Display x,y Chromaticity:
  Red:   0.6396, 0.3300
  Green: 0.2998, 0.5996
  Blue:  0.1503, 0.0595
  White: 0.3115, 0.3291
Established timings supported:
  720x400@70Hz 9:5 HorFreq: 31469 Hz Clock: 28.320 MHz
  640x480@60Hz 4:3 HorFreq: 31469 Hz Clock: 25.175 MHz
  640x480@72Hz 4:3 HorFreq: 37900 Hz Clock: 31.500 MHz
  800x600@56Hz 4:3 HorFreq: 35200 Hz Clock: 36.000 MHz
  800x600@60Hz 4:3 HorFreq: 37900 Hz Clock: 40.000 MHz
  1024x768@60Hz 4:3 HorFreq: 48400 Hz Clock: 65.000 MHz
Standard timings supported:
  1280x720@60Hz 16:9
  1280x1024@60Hz 5:4 HorFreq: 64000 Hz Clock: 108.000 MHz
  1280x960@60Hz 4:3 HorFreq: 60000 Hz Clock: 108.000 MHz
Detailed mode: Clock 138.650 MHz, 708 mm x 398 mm
               1920 1952 1984 2080 hborder 0
               1080 1081 1084 1111 vborder 0
               +hsync +vsync 
               VertFreq: 59 Hz, HorFreq: 66658 Hz
Detailed mode: Clock 85.500 MHz, 880 mm x 490 mm
               1360 1424 1536 1792 hborder 0
                768  771  777  795 vborder 0
               +hsync +vsync 
               VertFreq: 60 Hz, HorFreq: 47712 Hz
Detailed mode: Clock 118.600 MHz, 544 mm x 326 mm
               1600 1712 1872 2128 hborder 0
                900  903  909  932 vborder 0
               +hsync -vsync 
               VertFreq: 59 Hz, HorFreq: 55733 Hz
Detailed mode: Clock 86.600 MHz, 880 mm x 490 mm
               1366 1430 1542 1798 hborder 0
                768  771  777  803 vborder 0
               +hsync +vsync 
               VertFreq: 59 Hz, HorFreq: 48164 Hz
Checksum: 0xd8 (valid)
EDID block does NOT conform to EDID 1.3!
	Missing name descriptor
	Missing monitor ranges
