
EDID (hex):
00ffffffffffff0009e5e00500000000
01170104951c107802d4e09759569129
1f505400000001010101010101010101
0101010101013e1c56a0500016303020
4400159c1000001a3e1c56a050001630
30204400159c1000001a000000fe0042
4f452048460a202020202020000000fe
0048423132355758312d3230300a0095

Extracted contents:
header:          00 ff ff ff ff ff ff 00
serial number:   09 e5 e0 05 00 00 00 00 01 17
version:         01 04
basic params:    95 1c 10 78 02
chroma info:     d4 e0 97 59 56 91 29 1f 50 54
established:     00 00 00
standard:        01 01 01 01 01 01 01 01 01 01 01 01 01 01 01 01
descriptor 1:    3e 1c 56 a0 50 00 16 30 30 20 44 00 15 9c 10 00 00 1a
descriptor 2:    3e 1c 56 a0 50 00 16 30 30 20 44 00 15 9c 10 00 00 1a
descriptor 3:    00 00 00 fe 00 42 4f 45 20 48 46 0a 20 20 20 20 20 20
descriptor 4:    00 00 00 fe 00 48 42 31 32 35 57 58 31 2d 32 30 30 0a
extensions:      00
checksum:        95

EDID version: 1.4
Manufacturer: BOE Model 5e0 Serial Number --
Made in week 1 of 2013
Digital display
6 bits per primary color channel
DisplayPort interface
Maximum image size: 28 cm x 16 cm
Gamma: 2.20
Supported color formats: RGB 4:4:4
First detailed timing includes the native pixel format and preferred refresh rate
Display x,y Chromaticity:
  Red:   0.5927, 0.3486
  Green: 0.3369, 0.5664
  Blue:  0.1630, 0.1230
  White: 0.3125, 0.3281
Established timings supported:
Standard timings supported:
Detailed mode: Clock 72.300 MHz, 277 mm x 156 mm
               1366 1414 1446 1526 hborder 0
                768  772  776  790 vborder 0
               +hsync -vsync 
               VertFreq: 59 Hz, HorFreq: 47378 Hz
Detailed mode: Clock 72.300 MHz, 277 mm x 156 mm
               1366 1414 1446 1526 hborder 0
                768  772  776  790 vborder 0
               +hsync -vsync 
               VertFreq: 59 Hz, HorFreq: 47378 Hz
ASCII string: BOE HF
ASCII string: HB125WX1-200
Checksum: 0x95 (valid)
EDID block does NOT conform to EDID 1.4!
	Missing name descriptor
	Missing monitor ranges
