
EDID (hex):
00ffffffffffff0009e5d00600000000
011a0104a51a1178023373aa5245a926
124e5200000001010101010101010101
0101010101013e8a40a0b08014703020
84000ab11000001a265c40a0b0801470
302084000ab11000001a000000fe0042
4f452048460a202020202020000000fe
004e5631323641314d2d4e35320a004a

Extracted contents:
header:          00 ff ff ff ff ff ff 00
serial number:   09 e5 d0 06 00 00 00 00 01 1a
version:         01 04
basic params:    a5 1a 11 78 02
chroma info:     33 73 aa 52 45 a9 26 12 4e 52
established:     00 00 00
standard:        01 01 01 01 01 01 01 01 01 01 01 01 01 01 01 01
descriptor 1:    3e 8a 40 a0 b0 80 14 70 30 20 84 00 0a b1 10 00 00 1a
descriptor 2:    26 5c 40 a0 b0 80 14 70 30 20 84 00 0a b1 10 00 00 1a
descriptor 3:    00 00 00 fe 00 42 4f 45 20 48 46 0a 20 20 20 20 20 20
descriptor 4:    00 00 00 fe 00 4e 56 31 32 36 41 31 4d 2d 4e 35 32 0a
extensions:      00
checksum:        4a

EDID version: 1.4
Manufacturer: BOE Model 6d0 Serial Number --
Made in week 1 of 2016
Digital display
8 bits per primary color channel
DisplayPort interface
Maximum image size: 26 cm x 17 cm
Gamma: 2.20
Supported color formats: RGB 4:4:4
First detailed timing includes the native pixel format and preferred refresh rate
Display x,y Chromaticity:
  Red:   0.6640, 0.3232
  Green: 0.2695, 0.6630
  Blue:  0.1494, 0.0732
  White: 0.3046, 0.3232
Established timings supported:
Standard timings supported:
Detailed mode: Clock 353.900 MHz, 266 mm x 177 mm
               2880 2928 2960 3040 hborder 0
               1920 1928 1932 1940 vborder 0
               +hsync -vsync 
               VertFreq: 60 Hz, HorFreq: 116414 Hz
Detailed mode: Clock 235.900 MHz, 266 mm x 177 mm
               2880 2928 2960 3040 hborder 0
               1920 1928 1932 1940 vborder 0
               +hsync -vsync 
               VertFreq: 39 Hz, HorFreq: 77598 Hz
ASCII string: BOE HF
ASCII string: NV126A1M-N52
Checksum: 0x4a (valid)
EDID block does NOT conform to EDID 1.4!
	Missing name descriptor
	Missing monitor ranges
