
EDID (hex):
00ffffffffffff0026cde446502d3101
1e11010381211b78eaaea5a6544c9926
145054bfef0081800101010101010101
0101010101019e20009051201f304880
3600510e1100001c000000fc0048444d
490a0a0a0a0a0a0a0a0a000000fd0037
4c1d520e000a202020202020000000ff
003538363637333030303030310a01d6
00ffffffffffff0012e51018502d3101
15120103812213782ab370a255489827
155054bfee005940614c81c001010101
010101010101662156aa51001e30468f
330029170000001e000000ff00300a0a
0a0a0a0a0a0a0a0a0a0a000000fd0037
4b1e3c08000a202020202020000000fc
0048444d490a0a0a0a0a0a0a0a0a0146

edid-decode (hex):

00 ff ff ff ff ff ff 00 26 cd e4 46 50 2d 31 01
1e 11 01 03 81 21 1b 78 ea ae a5 a6 54 4c 99 26
14 50 54 bf ef 00 81 80 01 01 01 01 01 01 01 01
01 01 01 01 01 01 9e 20 00 90 51 20 1f 30 48 80
36 00 51 0e 11 00 00 1c 00 00 00 fc 00 48 44 4d
49 0a 0a 0a 0a 0a 0a 0a 0a 0a 00 00 00 fd 00 37
4c 1d 52 0e 00 0a 20 20 20 20 20 20 00 00 00 ff
00 35 38 36 36 37 33 30 30 30 30 30 31 0a 01 d6

00 ff ff ff ff ff ff 00 12 e5 10 18 50 2d 31 01
15 12 01 03 81 22 13 78 2a b3 70 a2 55 48 98 27
15 50 54 bf ee 00 59 40 61 4c 81 c0 01 01 01 01
01 01 01 01 01 01 66 21 56 aa 51 00 1e 30 46 8f
33 00 29 17 00 00 00 1e 00 00 00 ff 00 30 0a 0a
0a 0a 0a 0a 0a 0a 0a 0a 0a 0a 00 00 00 fd 00 37
4b 1e 3c 08 00 0a 20 20 20 20 20 20 00 00 00 fc
00 48 44 4d 49 0a 0a 0a 0a 0a 0a 0a 0a 0a 01 46

----------------

Block 0, Base EDID:
  EDID Structure Version & Revision: 1.3
  Vendor & Product Identification:
    Manufacturer: IVM
    Model: 18148
    Serial Number: 20000080
    Made in: week 30 of 2007
  Basic Display Parameters & Features:
    Digital display
    DFP 1.x compatible TMDS
    Maximum image size: 33 cm x 27 cm
    Gamma: 2.20
    DPMS levels: Standby Suspend Off
    RGB color display
    First detailed timing is the preferred timing
  Color Characteristics:
    Red  : 0.6503, 0.3300
    Green: 0.2998, 0.5996
    Blue : 0.1503, 0.0800
    White: 0.3134, 0.3291
  Established Timings I & II:
    IBM     :   720x400    70.081663 Hz   9:5     31.467 kHz     28.320000 MHz
    DMT 0x04:   640x480    59.940476 Hz   4:3     31.469 kHz     25.175000 MHz
    Apple   :   640x480    66.666667 Hz   4:3     35.000 kHz     30.240000 MHz
    DMT 0x05:   640x480    72.808802 Hz   4:3     37.861 kHz     31.500000 MHz
    DMT 0x06:   640x480    75.000000 Hz   4:3     37.500 kHz     31.500000 MHz
    DMT 0x08:   800x600    56.250000 Hz   4:3     35.156 kHz     36.000000 MHz
    DMT 0x09:   800x600    60.316541 Hz   4:3     37.879 kHz     40.000000 MHz
    DMT 0x0a:   800x600    72.187572 Hz   4:3     48.077 kHz     50.000000 MHz
    DMT 0x0b:   800x600    75.000000 Hz   4:3     46.875 kHz     49.500000 MHz
    Apple   :   832x624    74.551266 Hz   4:3     49.726 kHz     57.284000 MHz
    DMT 0x10:  1024x768    60.003840 Hz   4:3     48.363 kHz     65.000000 MHz
    DMT 0x11:  1024x768    70.069359 Hz   4:3     56.476 kHz     75.000000 MHz
    DMT 0x12:  1024x768    75.028582 Hz   4:3     60.023 kHz     78.750000 MHz
    DMT 0x24:  1280x1024   75.024675 Hz   5:4     79.976 kHz    135.000000 MHz
  Standard Timings:
    DMT 0x23:  1280x1024   60.019740 Hz   5:4     63.981 kHz    108.000000 MHz
  Detailed Timing Descriptors:
    DTD 1:  1280x800    59.810326 Hz  16:10    49.702 kHz     83.500000 MHz (337 mm x 270 mm)
                 Hfront   72 Hsync 128 Hback  200 Hpol N
                 Vfront    3 Vsync   6 Vback   22 Vpol P
    Display Product Name: 'HDMI'
    Display Range Limits:
      Monitor ranges (GTF): 55-76 Hz V, 29-82 kHz H, max dotclock 140 MHz
    Display Product Serial Number: '586673000001'
  Extension blocks: 1
Checksum: 0xd6

----------------

Block 1, Unknown EDID Extension Block 0x00:
  00 ff ff ff ff ff ff 00 12 e5 10 18 50 2d 31 01 '............P-1.'
  15 12 01 03 81 22 13 78 2a b3 70 a2 55 48 98 27 '.....".x*.p.UH.''
  15 50 54 bf ee 00 59 40 61 4c 81 c0 01 01 01 01 '.PT...Y@aL......'
  01 01 01 01 01 01 66 21 56 aa 51 00 1e 30 46 8f '......f!V.Q..0F.'
  33 00 29 17 00 00 00 1e 00 00 00 ff 00 30 0a 0a '3.)..........0..'
  0a 0a 0a 0a 0a 0a 0a 0a 0a 0a 00 00 00 fd 00 37 '...............7'
  4b 1e 3c 08 00 0a 20 20 20 20 20 20 00 00 00 fc 'K.<...      ....'
  00 48 44 4d 49 0a 0a 0a 0a 0a 0a 0a 0a 0a 01 46 '.HDMI..........F'
Checksum: 0x46
