
EDID (hex):
00ffffffffffff0026cde446502d3101
1e11010381211b78eaaea5a6544c9926
145054bfef0081800101010101010101
0101010101019e20009051201f304880
3600510e1100001c000000fc0048444d
490a0a0a0a0a0a0a0a0a000000fd0037
4c1d520e000a202020202020000000ff
003538363637333030303030310a01d6

Extracted contents:
header:          00 ff ff ff ff ff ff 00
serial number:   26 cd e4 46 50 2d 31 01 1e 11
version:         01 03
basic params:    81 21 1b 78 ea
chroma info:     ae a5 a6 54 4c 99 26 14 50 54
established:     bf ef 00
standard:        81 80 01 01 01 01 01 01 01 01 01 01 01 01 01 01
descriptor 1:    9e 20 00 90 51 20 1f 30 48 80 36 00 51 0e 11 00 00 1c
descriptor 2:    00 00 00 fc 00 48 44 4d 49 0a 0a 0a 0a 0a 0a 0a 0a 0a
descriptor 3:    00 00 00 fd 00 37 4c 1d 52 0e 00 0a 20 20 20 20 20 20
descriptor 4:    00 00 00 ff 00 35 38 36 36 37 33 30 30 30 30 30 31 0a
extensions:      01
checksum:        d6

EDID version: 1.3
Manufacturer: IVM Model 46e4 Serial Number --
Made in week 30 of 2007
Digital display
DFP 1.x compatible TMDS
Maximum image size: 33 cm x 27 cm
Gamma: 2.20
DPMS levels: Standby Suspend Off
RGB color display
First detailed timing is preferred timing
Display x,y Chromaticity:
  Red:   0.6503, 0.3300
  Green: 0.2998, 0.5996
  Blue:  0.1503, 0.0800
  White: 0.3134, 0.3291
Established timings supported:
  720x400@70Hz 9:5 HorFreq: 31469 Hz Clock: 28.320 MHz
  640x480@60Hz 4:3 HorFreq: 31469 Hz Clock: 25.175 MHz
  640x480@67Hz 4:3 HorFreq: 35000 Hz Clock: 30.240 MHz
  640x480@72Hz 4:3 HorFreq: 37900 Hz Clock: 31.500 MHz
  640x480@75Hz 4:3 HorFreq: 37500 Hz Clock: 31.500 MHz
  800x600@56Hz 4:3 HorFreq: 35200 Hz Clock: 36.000 MHz
  800x600@60Hz 4:3 HorFreq: 37900 Hz Clock: 40.000 MHz
  800x600@72Hz 4:3 HorFreq: 48100 Hz Clock: 50.000 MHz
  800x600@75Hz 4:3 HorFreq: 46900 Hz Clock: 49.500 MHz
  832x624@75Hz 4:3 HorFreq: 49726 Hz Clock: 57.284 MHz
  1024x768@60Hz 4:3 HorFreq: 48400 Hz Clock: 65.000 MHz
  1024x768@70Hz 4:3 HorFreq: 56500 Hz Clock: 75.000 MHz
  1024x768@75Hz 4:3 HorFreq: 60000 Hz Clock: 78.750 MHz
  1280x1024@75Hz 5:4 HorFreq: 80000 Hz Clock: 135.000 MHz
Standard timings supported:
  1280x1024@60Hz 5:4 HorFreq: 64000 Hz Clock: 108.000 MHz
Detailed mode: Clock 83.500 MHz, 337 mm x 270 mm
               1280 1352 1480 1680 hborder 0
                800  803  809  831 vborder 0
               -hsync +vsync 
               VertFreq: 59 Hz, HorFreq: 49702 Hz
Monitor name: HDMI
Monitor ranges (GTF): 55-76Hz V, 29-82kHz H, max dotclock 140MHz
Serial number: --
Has 1 extension blocks
Checksum: 0xd6 (valid)
EDID block does NOT conform to EDID 1.3!
	Detailed block string not properly terminated


