
EDID (hex):
00ffffffffffff00052f380201010101
141b010380351d78ead6a5a2594a9524
145054a50f00810081409040a9c08180
81c09500b300023a801871382d40582c
450009252100001e000000ff00000a20
20202020202020202020000000fd0038
4b1e5312000a202020202020000000fc
00000a20202020202020202020200087

Extracted contents:
header:          00 ff ff ff ff ff ff 00
serial number:   05 2f 38 02 01 01 01 01 14 1b
version:         01 03
basic params:    80 35 1d 78 ea
chroma info:     d6 a5 a2 59 4a 95 24 14 50 54
established:     a5 0f 00
standard:        81 00 81 40 90 40 a9 c0 81 80 81 c0 95 00 b3 00
descriptor 1:    02 3a 80 18 71 38 2d 40 58 2c 45 00 09 25 21 00 00 1e
descriptor 2:    00 00 00 ff 00 00 0a 20 20 20 20 20 20 20 20 20 20 20
descriptor 3:    00 00 00 fd 00 38 4b 1e 53 12 00 0a 20 20 20 20 20 20
descriptor 4:    00 00 00 fc 00 00 0a 20 20 20 20 20 20 20 20 20 20 20
extensions:      00
checksum:        87

EDID version: 1.3
Manufacturer: AIO Model 238 Serial Number --
Made in week 20 of 2017
Digital display
Maximum image size: 53 cm x 29 cm
Gamma: 2.20
DPMS levels: Standby Suspend Off
RGB color display
First detailed timing is preferred timing
Display x,y Chromaticity:
  Red:   0.6357, 0.3486
  Green: 0.2900, 0.5839
  Blue:  0.1425, 0.0800
  White: 0.3134, 0.3291
Established timings supported:
  720x400@70Hz 9:5 HorFreq: 31469 Hz Clock: 28.320 MHz
  640x480@60Hz 4:3 HorFreq: 31469 Hz Clock: 25.175 MHz
  640x480@75Hz 4:3 HorFreq: 37500 Hz Clock: 31.500 MHz
  800x600@60Hz 4:3 HorFreq: 37900 Hz Clock: 40.000 MHz
  1024x768@60Hz 4:3 HorFreq: 48400 Hz Clock: 65.000 MHz
  1024x768@70Hz 4:3 HorFreq: 56500 Hz Clock: 75.000 MHz
  1024x768@75Hz 4:3 HorFreq: 60000 Hz Clock: 78.750 MHz
  1280x1024@75Hz 5:4 HorFreq: 80000 Hz Clock: 135.000 MHz
Standard timings supported:
  1280x800@60Hz 16:10
  1280x960@60Hz 4:3 HorFreq: 60000 Hz Clock: 108.000 MHz
  1400x1050@60Hz 4:3 HorFreq: 64700 Hz Clock: 101.000 MHz
  1600x900@60Hz 16:9
  1280x1024@60Hz 5:4 HorFreq: 64000 Hz Clock: 108.000 MHz
  1280x720@60Hz 16:9
  1440x900@60Hz 16:10 HorFreq: 55500 Hz Clock: 88.750 MHz
  1680x1050@60Hz 16:10 HorFreq: 64700 Hz Clock: 119.000 MHz
Detailed mode: Clock 148.500 MHz, 521 mm x 293 mm
               1920 2008 2052 2200 hborder 0
               1080 1084 1089 1125 vborder 0
               +hsync +vsync 
               VertFreq: 60 Hz, HorFreq: 67500 Hz
Serial number: 
-- ranges (GTF): 56-75Hz V, 30-83kHz H, max dotclock 180MHz
Checksum: 0x87 (valid)
EDID block does NOT conform to EDID 1.3!
	Name descriptor not terminated with a newline
	Detailed block string not properly terminated
