
EDID (hex):
00ffffffffffff003b07200d6e040000
34130103682c19782eee91a3544c9926
0f5054bfee00714fa9c0010101010101
010101010101302a40c8608464301850
1300bbf91000001e000000ff000a2020
20202020202020202020000000fd0038
4c1e5310000a202020202020000000fc
004348494d454920323052440a2000f8

Extracted contents:
header:          00 ff ff ff ff ff ff 00
serial number:   3b 07 20 0d 6e 04 00 00 34 13
version:         01 03
basic params:    68 2c 19 78 2e
chroma info:     ee 91 a3 54 4c 99 26 0f 50 54
established:     bf ee 00
standard:        71 4f a9 c0 01 01 01 01 01 01 01 01 01 01 01 01
descriptor 1:    30 2a 40 c8 60 84 64 30 18 50 13 00 bb f9 10 00 00 1e
descriptor 2:    00 00 00 ff 00 0a 20 20 20 20 20 20 20 20 20 20 20 20
descriptor 3:    00 00 00 fd 00 38 4c 1e 53 10 00 0a 20 20 20 20 20 20
descriptor 4:    00 00 00 fc 00 43 48 49 4d 45 49 20 32 30 52 44 0a 20
extensions:      00
checksum:        f8

EDID version: 1.3
Manufacturer: NXG Model d20 Serial Number --
Made in week 52 of 2009
Analog display, Input voltage level: 0.7/0.7 V
Sync: Separate 
Maximum image size: 44 cm x 25 cm
Gamma: 2.20
DPMS levels: Off
RGB color display
Default (sRGB) color space is primary color space
First detailed timing is preferred timing
Display x,y Chromaticity:
  Red:   0.6396, 0.3300
  Green: 0.2998, 0.5996
  Blue:  0.1503, 0.0595
  White: 0.3125, 0.3291
Established timings supported:
  720x400@70Hz 9:5 HorFreq: 31469 Hz Clock: 28.320 MHz
  640x480@60Hz 4:3 HorFreq: 31469 Hz Clock: 25.175 MHz
  640x480@67Hz 4:3 HorFreq: 35000 Hz Clock: 30.240 MHz
  640x480@72Hz 4:3 HorFreq: 37900 Hz Clock: 31.500 MHz
  640x480@75Hz 4:3 HorFreq: 37500 Hz Clock: 31.500 MHz
  800x600@56Hz 4:3 HorFreq: 35200 Hz Clock: 36.000 MHz
  800x600@60Hz 4:3 HorFreq: 37900 Hz Clock: 40.000 MHz
  800x600@72Hz 4:3 HorFreq: 48100 Hz Clock: 50.000 MHz
  800x600@75Hz 4:3 HorFreq: 46900 Hz Clock: 49.500 MHz
  832x624@75Hz 4:3 HorFreq: 49726 Hz Clock: 57.284 MHz
  1024x768@60Hz 4:3 HorFreq: 48400 Hz Clock: 65.000 MHz
  1024x768@70Hz 4:3 HorFreq: 56500 Hz Clock: 75.000 MHz
  1024x768@75Hz 4:3 HorFreq: 60000 Hz Clock: 78.750 MHz
Standard timings supported:
  1152x864@75Hz 4:3 HorFreq: 67500 Hz Clock: 108.000 MHz
  1600x900@60Hz 16:9
Detailed mode: Clock 108.000 MHz, 443 mm x 249 mm
               1600 1624 1704 1800 hborder 0
                900  901  904 1000 vborder 0
               +hsync +vsync 
               VertFreq: 60 Hz, HorFreq: 60000 Hz
Serial number: 
-- ranges (GTF): 56-76Hz V, 30-83kHz H, max dotclock 160MHz
Monitor name: CHIMEI 20RD
Checksum: 0xf8 (valid)
