
EDID (hex):
00ffffffffffff004c2d200200000000
330f0103686e3e780aee91a3544c9926
0f5054bfce0031594559010101010101
0101010101011a1d008051d01c204080
3500536f4200001c6419004041002630
18883600536f42000018000000fd0038
551e3d08000a202020202020000000fc
0053414d53554e4720444c500a200030

Extracted contents:
header:          00 ff ff ff ff ff ff 00
serial number:   4c 2d 20 02 00 00 00 00 33 0f
version:         01 03
basic params:    68 6e 3e 78 0a
chroma info:     ee 91 a3 54 4c 99 26 0f 50 54
established:     bf ce 00
standard:        31 59 45 59 01 01 01 01 01 01 01 01 01 01 01 01
descriptor 1:    1a 1d 00 80 51 d0 1c 20 40 80 35 00 53 6f 42 00 00 1c
descriptor 2:    64 19 00 40 41 00 26 30 18 88 36 00 53 6f 42 00 00 18
descriptor 3:    00 00 00 fd 00 38 55 1e 3d 08 00 0a 20 20 20 20 20 20
descriptor 4:    00 00 00 fc 00 53 41 4d 53 55 4e 47 20 44 4c 50 0a 20
extensions:      00
checksum:        30

EDID version: 1.3
Manufacturer: SAM Model 220 Serial Number --
Analog display, Input voltage level: 0.7/0.7 V
Sync: Separate 
Maximum image size: 110 cm x 62 cm
Gamma: 2.20
RGB color display
First detailed timing is preferred timing
Display x,y Chromaticity:
  Red:   0.6396, 0.3300
  Green: 0.2998, 0.5996
  Blue:  0.1503, 0.0595
  White: 0.3125, 0.3291
Established timings supported:
  720x400@70Hz 9:5 HorFreq: 31469 Hz Clock: 28.320 MHz
  640x480@60Hz 4:3 HorFreq: 31469 Hz Clock: 25.175 MHz
  640x480@67Hz 4:3 HorFreq: 35000 Hz Clock: 30.240 MHz
  640x480@72Hz 4:3 HorFreq: 37900 Hz Clock: 31.500 MHz
  640x480@75Hz 4:3 HorFreq: 37500 Hz Clock: 31.500 MHz
  800x600@56Hz 4:3 HorFreq: 35200 Hz Clock: 36.000 MHz
  800x600@60Hz 4:3 HorFreq: 37900 Hz Clock: 40.000 MHz
  800x600@72Hz 4:3 HorFreq: 48100 Hz Clock: 50.000 MHz
  800x600@75Hz 4:3 HorFreq: 46900 Hz Clock: 49.500 MHz
  1024x768@60Hz 4:3 HorFreq: 48400 Hz Clock: 65.000 MHz
  1024x768@70Hz 4:3 HorFreq: 56500 Hz Clock: 75.000 MHz
  1024x768@75Hz 4:3 HorFreq: 60000 Hz Clock: 78.750 MHz
Standard timings supported:
  640x480@85Hz 4:3 HorFreq: 43300 Hz Clock: 36.000 MHz
  800x600@85Hz 4:3 HorFreq: 53700 Hz Clock: 56.250 MHz
Detailed mode: Clock 74.500 MHz, 1107 mm x 623 mm
               1280 1344 1472 1664 hborder 0
                720  723  728  748 vborder 0
               -hsync +vsync 
               VertFreq: 59 Hz, HorFreq: 44771 Hz
Detailed mode: Clock 65.000 MHz, 1107 mm x 623 mm
               1024 1048 1184 1344 hborder 0
                768  771  777  806 vborder 0
               -hsync -vsync 
               VertFreq: 60 Hz, HorFreq: 48363 Hz
Monitor ranges (GTF): 56-85Hz V, 30-61kHz H, max dotclock 80MHz
Monitor name: SAMSUNG DLP
Checksum: 0x30 (valid)
EDID block does not conform at all!
	Bad year of manufacture
