
EDID (hex):
00ffffffffffff00320c00ab00000000
00120103802115780a14659859538b28
23505400000001010101010101010101
010101010101121b0088502010303018
36004bcf10000019000000fc004c5031
35345758342d544c4339000000fd0036
3e2f3207000a202020202020000000fe
004c503135345758342d544c43390001

Extracted contents:
header:          00 ff ff ff ff ff ff 00
serial number:   32 0c 00 ab 00 00 00 00 00 12
version:         01 03
basic params:    80 21 15 78 0a
chroma info:     14 65 98 59 53 8b 28 23 50 54
established:     00 00 00
standard:        01 01 01 01 01 01 01 01 01 01 01 01 01 01 01 01
descriptor 1:    12 1b 00 88 50 20 10 30 30 18 36 00 4b cf 10 00 00 19
descriptor 2:    00 00 00 fc 00 4c 50 31 35 34 57 58 34 2d 54 4c 43 39
descriptor 3:    00 00 00 fd 00 36 3e 2f 32 07 00 0a 20 20 20 20 20 20
descriptor 4:    00 00 00 fe 00 4c 50 31 35 34 57 58 34 2d 54 4c 43 39
extensions:      00
checksum:        01

EDID version: 1.3
Manufacturer: LPL Model ab00 Serial Number --
Made in year 2008
Digital display
Maximum image size: 33 cm x 21 cm
Gamma: 2.20
RGB color display
First detailed timing is preferred timing
Display x,y Chromaticity:
  Red:   0.5937, 0.3486
  Green: 0.3251, 0.5429
  Blue:  0.1572, 0.1386
  White: 0.3134, 0.3291
Established timings supported:
Standard timings supported:
Detailed mode: Clock 69.300 MHz, 331 mm x 207 mm
               1280 1328 1352 1416 hborder 0
                800  803  809  816 vborder 0
               -hsync -vsync 
               VertFreq: 59 Hz, HorFreq: 48940 Hz
Monitor ranges (GTF): 54-62Hz V, 47-50kHz H, max dotclock 70MHz
ASCII string: LP154WX4-TLC9
Checksum: 0x1 (valid)
EDID block does NOT conform to EDID 1.3!
	Name descriptor not terminated with a newline
