edid-decode (hex):

00 ff ff ff ff ff ff 00 32 0c 00 ab 00 00 00 00
00 0f 01 03 80 21 15 78 0a c8 e5 95 55 52 8b 27
22 50 54 00 00 00 01 01 01 01 01 01 01 01 01 01
01 01 01 01 01 01 48 3f 80 f0 70 b0 32 40 64 58
13 00 4b cf 10 00 00 19 48 3f 80 f0 70 b0 32 40
64 58 13 00 4b cf 10 00 00 00 00 00 00 fe 00 59
43 34 37 35 01 31 35 34 57 55 31 0a 00 00 00 fe
00 2c 41 4f 58 7e b1 db ff 02 01 0a 20 20 00 20

00 ff ff ff ff ff ff 00 32 0c 00 ab 00 00 00 00
00 0f 01 03 80 21 15 78 0a c8 e5 95 55 52 8b 27
22 50 54 00 00 00 01 01 01 01 01 01 01 01 01 01
01 01 01 01 01 01 48 3f 80 f0 70 b0 32 40 64 58
13 00 4b cf 10 00 00 19 48 3f 80 f0 70 b0 32 40
64 58 13 00 4b cf 10 00 00 00 00 00 00 fe 00 59
43 34 37 35 01 31 35 34 57 55 31 0a 00 00 00 fe
00 2c 41 4f 58 7e b1 db ff 02 01 0a 20 20 00 20

----------------

Block 0, Base EDID:
  EDID Structure Version & Revision: 1.3
  Vendor & Product Identification:
    Manufacturer: LPL
    Model: 43776
    Made in: 2005
  Basic Display Parameters & Features:
    Digital display
    Maximum image size: 33 cm x 21 cm
    Gamma: 2.20
    RGB color display
    First detailed timing is the preferred timing
  Color Characteristics:
    Red  : 0.5849, 0.3320
    Green: 0.3222, 0.5429
    Blue : 0.1552, 0.1347
    White: 0.3134, 0.3291
  Established Timings I & II: none
  Standard Timings: none
  Detailed Timing Descriptors:
    DTD 1:  1920x1200   60.000000 Hz  16:10    75.000 kHz    162.000000 MHz (DE timing only, 331 mm x 207 mm)
                 Hfront  100 Hsync  88 Hback   52 Hpol N
                 Vfront    1 Vsync   3 Vback   46 Vpol N
    DTD 2:  1920x1200   60.000000 Hz  16:10    75.000 kHz    162.000000 MHz (DE timing only, 331 mm x 207 mm)
                 Hfront  100 Hsync  88 Hback   52 Hpol N
                 Vfront    1 Vsync   3 Vback   46 Vpol N
    SPWG Module Revision: 0
    SPWG Descriptor #3:
      SPWG PC Maker P/N: 'YC475'
      SPWG LCD Supplier EEDID Revision: 1
      SPWG Manufacturer P/N: '154WU1'
    SPWG Descriptor #4:
      SMBUS Values: 0x2c 0x41 0x4f 0x58 0x7e 0xb1 0xdb 0xff
      LVDS Channels: 2
      Panel Self Test Present
Checksum: 0x20

----------------

Block 1, Unknown EDID Extension Block 0x00:
  00 ff ff ff ff ff ff 00 32 0c 00 ab 00 00 00 00 '........2.......'
  00 0f 01 03 80 21 15 78 0a c8 e5 95 55 52 8b 27 '.....!.x....UR.''
  22 50 54 00 00 00 01 01 01 01 01 01 01 01 01 01 '"PT.............'
  01 01 01 01 01 01 48 3f 80 f0 70 b0 32 40 64 58 '......H?..p.2@dX'
  13 00 4b cf 10 00 00 19 48 3f 80 f0 70 b0 32 40 '..K.....H?..p.2@'
  64 58 13 00 4b cf 10 00 00 00 00 00 00 fe 00 59 'dX..K..........Y'
  43 34 37 35 01 31 35 34 57 55 31 0a 00 00 00 fe 'C475.154WU1.....'
  00 2c 41 4f 58 7e b1 db ff 02 01 0a 20 20 00 20 '.,AOX~......  . '
Checksum: 0x20

----------------

Failures:

Block 0, Base EDID:
  Missing Display Product Name.
  Missing Display Range Limits Descriptor.
Block 1, Base EDID:
  Unknown Extension Block.
EDID:
  Base EDID: EDID specified 0 extension block(s), but found 1 extension block(s).

EDID conformity: FAIL
