
EDID (hex):
00ffffffffffff0030e4e20500000000
001c0104a526157802e085a3544e9b26
0e505400000001010101010101010101
0101010101015e8780a070384d403020
35007ed71000001a0000000000000000
00000000000000000000000000fe0059
574a4a36803137335746470a00000000
0002410f9e001000000b010a2020004e

Extracted contents:
header:          00 ff ff ff ff ff ff 00
serial number:   30 e4 e2 05 00 00 00 00 00 1c
version:         01 04
basic params:    a5 26 15 78 02
chroma info:     e0 85 a3 54 4e 9b 26 0e 50 54
established:     00 00 00
standard:        01 01 01 01 01 01 01 01 01 01 01 01 01 01 01 01
descriptor 1:    5e 87 80 a0 70 38 4d 40 30 20 35 00 7e d7 10 00 00 1a
descriptor 2:    00 00 00 00 00 00 00 00 00 00 00 00 00 00 00 00 00 00
descriptor 3:    00 00 00 fe 00 59 57 4a 4a 36 80 31 37 33 57 46 47 0a
descriptor 4:    00 00 00 00 00 02 41 0f 9e 00 10 00 00 0b 01 0a 20 20
extensions:      00
checksum:        4e

EDID version: 1.4
Manufacturer: LGD Model 5e2 Serial Number --
Made in year 2018
Digital display
8 bits per primary color channel
DisplayPort interface
Maximum image size: 38 cm x 21 cm
Gamma: 2.20
Supported color formats: RGB 4:4:4
First detailed timing includes the native pixel format and preferred refresh rate
Display x,y Chromaticity:
  Red:   0.6396, 0.3300
  Green: 0.3046, 0.6054
  Blue:  0.1503, 0.0546
  White: 0.3134, 0.3291
Established timings supported:
Standard timings supported:
Detailed mode: Clock 346.540 MHz, 382 mm x 215 mm
               1920 1968 2000 2080 hborder 0
               1080 1083 1088 1157 vborder 0
               +hsync -vsync 
               VertFreq: 143 Hz, HorFreq: 166605 Hz
Manufacturer-specified data, tag 0
ASCII string: YWJJ6
Manufacturer-specified data, tag 0
Checksum: 0x4e (valid)
EDID block does NOT conform to EDID 1.4!
	Missing name descriptor
	Missing monitor ranges
	Detailed block string not properly terminated


