
EDID (hex):
00ffffffffffff001e6dc85901010101
0117010368341d78ea534da3564f9e26
0f474aa1080001404540614071408100
81c001010101662156aa51001e30468f
33003f432100001e000000fd00383d1e
4509000a202020202020000000fc0032
44204844204c472054560a20000000ff
000a2020202020202020202020200067

Extracted contents:
header:          00 ff ff ff ff ff ff 00
serial number:   1e 6d c8 59 01 01 01 01 01 17
version:         01 03
basic params:    68 34 1d 78 ea
chroma info:     53 4d a3 56 4f 9e 26 0f 47 4a
established:     a1 08 00
standard:        01 40 45 40 61 40 71 40 81 00 81 c0 01 01 01 01
descriptor 1:    66 21 56 aa 51 00 1e 30 46 8f 33 00 3f 43 21 00 00 1e
descriptor 2:    00 00 00 fd 00 38 3d 1e 45 09 00 0a 20 20 20 20 20 20
descriptor 3:    00 00 00 fc 00 32 44 20 48 44 20 4c 47 20 54 56 0a 20
descriptor 4:    00 00 00 ff 00 0a 20 20 20 20 20 20 20 20 20 20 20 20
extensions:      00
checksum:        67

EDID version: 1.3
Manufacturer: GSM Model 59c8 Serial Number --
Made in week 1 of 2013
Analog display, Input voltage level: 0.7/0.7 V
Sync: Separate 
Maximum image size: 52 cm x 29 cm
Gamma: 2.20
DPMS levels: Standby Suspend Off
RGB color display
First detailed timing is preferred timing
Display x,y Chromaticity:
  Red:   0.6376, 0.3369
  Green: 0.3085, 0.6201
  Blue:  0.1494, 0.0585
  White: 0.2802, 0.2900
Established timings supported:
  720x400@70Hz 9:5 HorFreq: 31469 Hz Clock: 28.320 MHz
  640x480@60Hz 4:3 HorFreq: 31469 Hz Clock: 25.175 MHz
  800x600@60Hz 4:3 HorFreq: 37900 Hz Clock: 40.000 MHz
  1024x768@60Hz 4:3 HorFreq: 48400 Hz Clock: 65.000 MHz
Standard timings supported:
  256x192@60Hz 4:3
  800x600@60Hz 4:3 HorFreq: 37900 Hz Clock: 40.000 MHz
  1024x768@60Hz 4:3 HorFreq: 48400 Hz Clock: 65.000 MHz
  1152x864@60Hz 4:3
  1280x800@60Hz 16:10
  1280x720@60Hz 16:9
Detailed mode: Clock 85.500 MHz, 575 mm x 323 mm
               1366 1436 1579 1792 hborder 0
                768  771  774  798 vborder 0
               +hsync +vsync 
               VertFreq: 59 Hz, HorFreq: 47712 Hz
Monitor ranges (GTF): 56-61Hz V, 30-69kHz H, max dotclock 90MHz
Monitor name: 2D HD LG TV
Serial number: 
-- 0x67 (valid)
One or more of the timings is out of range of the Monitor Ranges:
  Vertical Freq: 59 - 70 Hz
  Horizontal Freq: 31469 - 48400 Hz
  Maximum Clock: 85.500 MHz
