
EDID (hex):
00ffffffffffff0006af741401010101
010f0103802115780aa7e599594f8c27
1d505400000001010101010101010101
010101010101c71b00a0502017301520
44004bcf100000180000000000000000
00000000000000000000000000fe0057
443331380042313534455731000000fe
00e0d0c0b89868380001010a202000ac

Extracted contents:
header:          00 ff ff ff ff ff ff 00
serial number:   06 af 74 14 01 01 01 01 01 0f
version:         01 03
basic params:    80 21 15 78 0a
chroma info:     a7 e5 99 59 4f 8c 27 1d 50 54
established:     00 00 00
standard:        01 01 01 01 01 01 01 01 01 01 01 01 01 01 01 01
descriptor 1:    c7 1b 00 a0 50 20 17 30 15 20 44 00 4b cf 10 00 00 18
descriptor 2:    00 00 00 00 00 00 00 00 00 00 00 00 00 00 00 00 00 00
descriptor 3:    00 00 00 fe 00 57 44 33 31 38 00 42 31 35 34 45 57 31
descriptor 4:    00 00 00 fe 00 e0 d0 c0 b8 98 68 38 00 01 01 0a 20 20
extensions:      00
checksum:        ac

EDID version: 1.3
Manufacturer: AUO Model 1474 Serial Number --
Digital display
Maximum image size: 33 cm x 21 cm
Gamma: 2.20
RGB color display
First detailed timing is preferred timing
Display x,y Chromaticity:
  Red:   0.5996, 0.3496
  Green: 0.3095, 0.5498
  Blue:  0.1552, 0.1152
  White: 0.3134, 0.3291
Established timings supported:
Standard timings supported:
Detailed mode: Clock 71.110 MHz, 331 mm x 207 mm
               1280 1301 1333 1440 hborder 0
                800  804  808  823 vborder 0
               -hsync -vsync 
               VertFreq: 60 Hz, HorFreq: 49381 Hz
Manufacturer-specified data, tag 0
ASCII string: WD318
ASCII string: 
Checksum: 0xac (valid)
EDID block does NOT conform to EDID 1.3!
	Missing name descriptor
	Missing monitor ranges
	Detailed block string not properly terminated
EDID block does not conform at all!
	Bad year of manufacture
