
EDID (hex):
00ffffffffffff0022f0372801010101
34130103682213782a54159b54539527
16505421080081c08180010101010101
010101010101662156aa51001e30468f
330058c21000001e000000fd00393f18
530e000a202020202020000000fc0048
50204c5631353631770a2020000000ff
00434e433935324e5248470a20200071

Extracted contents:
header:          00 ff ff ff ff ff ff 00
serial number:   22 f0 37 28 01 01 01 01 34 13
version:         01 03
basic params:    68 22 13 78 2a
chroma info:     54 15 9b 54 53 95 27 16 50 54
established:     21 08 00
standard:        81 c0 81 80 01 01 01 01 01 01 01 01 01 01 01 01
descriptor 1:    66 21 56 aa 51 00 1e 30 46 8f 33 00 58 c2 10 00 00 1e
descriptor 2:    00 00 00 fd 00 39 3f 18 53 0e 00 0a 20 20 20 20 20 20
descriptor 3:    00 00 00 fc 00 48 50 20 4c 56 31 35 36 31 77 0a 20 20
descriptor 4:    00 00 00 ff 00 43 4e 43 39 35 32 4e 52 48 47 0a 20 20
extensions:      00
checksum:        71

EDID version: 1.3
Manufacturer: HWP Model 2837 Serial Number --
Made in week 52 of 2009
Analog display, Input voltage level: 0.7/0.7 V
Sync: Separate 
Maximum image size: 34 cm x 19 cm
Gamma: 2.20
DPMS levels: Off
RGB color display
First detailed timing is preferred timing
Display x,y Chromaticity:
  Red:   0.6064, 0.3291
  Green: 0.3251, 0.5820
  Blue:  0.1523, 0.0869
  White: 0.3134, 0.3291
Established timings supported:
  640x480@60Hz 4:3 HorFreq: 31469 Hz Clock: 25.175 MHz
  800x600@60Hz 4:3 HorFreq: 37900 Hz Clock: 40.000 MHz
  1024x768@60Hz 4:3 HorFreq: 48400 Hz Clock: 65.000 MHz
Standard timings supported:
  1280x720@60Hz 16:9
  1280x1024@60Hz 5:4 HorFreq: 64000 Hz Clock: 108.000 MHz
Detailed mode: Clock 85.500 MHz, 344 mm x 194 mm
               1366 1436 1579 1792 hborder 0
                768  771  774  798 vborder 0
               +hsync +vsync 
               VertFreq: 59 Hz, HorFreq: 47712 Hz
Monitor ranges (GTF): 57-63Hz V, 24-83kHz H, max dotclock 140MHz
Monitor name: HP LV1561w
Serial number: --
Checksum: 0x71 (valid)
