
EDID (hex):
00ffffffffffff0030e4014600000000
00120113901d12780a1e85965a558c26
1f505400000001010101010101010101
010101010101f41a0082502010303020
36001eb310000018841200a050201730
302036001eb310000018000000fe0057
55393733813133335758320a000000fe
00080e1419335d7fff01010a202000c1

Extracted contents:
header:          00 ff ff ff ff ff ff 00
serial number:   30 e4 01 46 00 00 00 00 00 12
version:         01 13
basic params:    90 1d 12 78 0a
chroma info:     1e 85 96 5a 55 8c 26 1f 50 54
established:     00 00 00
standard:        01 01 01 01 01 01 01 01 01 01 01 01 01 01 01 01
descriptor 1:    f4 1a 00 82 50 20 10 30 30 20 36 00 1e b3 10 00 00 18
descriptor 2:    84 12 00 a0 50 20 17 30 30 20 36 00 1e b3 10 00 00 18
descriptor 3:    00 00 00 fe 00 57 55 39 37 33 81 31 33 33 57 58 32 0a
descriptor 4:    00 00 00 fe 00 08 0e 14 19 33 5d 7f ff 01 01 0a 20 20
extensions:      00
checksum:        c1

EDID version: 1.19
Claims > 1.4, assuming 1.4 conformance
Manufacturer: LGD Model 4601 Serial Number --
Made in year 2008
Digital display
6 bits per primary color channel
Digital interface is not defined
Maximum image size: 29 cm x 18 cm
Gamma: 2.20
Supported color formats: RGB 4:4:4, YCrCb 4:4:4
First detailed timing includes the native pixel format and preferred refresh rate
Display x,y Chromaticity:
  Red:   0.5859, 0.3525
  Green: 0.3349, 0.5488
  Blue:  0.1503, 0.1210
  White: 0.3134, 0.3291
Established timings supported:
Standard timings supported:
Detailed mode: Clock 69.000 MHz, 286 mm x 179 mm
               1280 1328 1360 1410 hborder 0
                800  803  809  816 vborder 0
               -hsync -vsync 
               VertFreq: 59 Hz, HorFreq: 48936 Hz
Detailed mode: Clock 47.400 MHz, 286 mm x 179 mm
               1280 1328 1360 1440 hborder 0
                800  803  809  823 vborder 0
               -hsync -vsync 
               VertFreq: 39 Hz, HorFreq: 32916 Hz
ASCII string: WU973
ASCII string: 
Checksum: 0xc1 (should be 0xd0)
EDID block does NOT conform to EDID 1.4!
	Missing name descriptor
	Missing monitor ranges
	Detailed block string not properly terminated
EDID block does not conform at all!
	Block has broken checksum
