
EDID (hex):
00ffffffffffff0006af14a100000000
01120103901a10780a50c59858528e27
25505400000001010101010101010101
010101010101ea1a007e502010303020
360005a31000001aea1a007e50201030
3020360005a31000001a000000fe0046
33323546804231323145573000000000
00000000000000000001010a202000be

Extracted contents:
header:          00 ff ff ff ff ff ff 00
serial number:   06 af 14 a1 00 00 00 00 01 12
version:         01 03
basic params:    90 1a 10 78 0a
chroma info:     50 c5 98 58 52 8e 27 25 50 54
established:     00 00 00
standard:        01 01 01 01 01 01 01 01 01 01 01 01 01 01 01 01
descriptor 1:    ea 1a 00 7e 50 20 10 30 30 20 36 00 05 a3 10 00 00 1a
descriptor 2:    ea 1a 00 7e 50 20 10 30 30 20 36 00 05 a3 10 00 00 1a
descriptor 3:    00 00 00 fe 00 46 33 32 35 46 80 42 31 32 31 45 57 30
descriptor 4:    00 00 00 00 00 00 00 00 00 00 00 00 00 01 01 0a 20 20
extensions:      00
checksum:        be

EDID version: 1.3
Manufacturer: AUO Model a114 Serial Number --
Made in week 1 of 2008
Digital display
Maximum image size: 26 cm x 16 cm
Gamma: 2.20
RGB color display
First detailed timing is preferred timing
Display x,y Chromaticity:
  Red:   0.5947, 0.3447
  Green: 0.3203, 0.5546
  Blue:  0.1552, 0.1445
  White: 0.3134, 0.3291
Established timings supported:
Standard timings supported:
Detailed mode: Clock 68.900 MHz, 261 mm x 163 mm
               1280 1328 1360 1406 hborder 0
                800  803  809  816 vborder 0
               +hsync -vsync 
               VertFreq: 60 Hz, HorFreq: 49004 Hz
Detailed mode: Clock 68.900 MHz, 261 mm x 163 mm
               1280 1328 1360 1406 hborder 0
                800  803  809  816 vborder 0
               +hsync -vsync 
               VertFreq: 60 Hz, HorFreq: 49004 Hz
ASCII string: F325F
Manufacturer-specified data, tag 0
Checksum: 0xbe (valid)
EDID block does NOT conform to EDID 1.3!
	Digital display field contains garbage: 10
	Missing name descriptor
	Missing monitor ranges
	Detailed block string not properly terminated
