edid-decode (hex):

00 ff ff ff ff ff ff 00 30 ae d1 40 00 00 00 00
01 13 01 03 80 1a 0e 78 ea 99 85 95 55 56 92 28
22 50 54 00 00 00 01 01 01 01 01 01 01 01 01 01
01 01 01 01 01 01 8c 19 56 26 50 00 08 30 18 0e
24 00 00 90 10 00 00 18 4a 15 56 26 50 00 08 30
18 0e 24 00 00 90 10 00 00 18 00 00 00 0f 00 8b
09 32 8b 09 28 14 09 00 06 af 56 31 00 00 00 fe
00 42 31 31 36 58 57 30 32 20 56 31 20 0a 00 53

----------------

Block 0, Base EDID:
  EDID Structure Version & Revision: 1.3
  Vendor & Product Identification:
    Manufacturer: LEN
    Model: 16593
    Made in: week 1 of 2009
  Basic Display Parameters & Features:
    Digital display
    Maximum image size: 26 cm x 14 cm
    Gamma: 2.20
    DPMS levels: Standby Suspend Off
    RGB color display
    First detailed timing is the preferred timing
  Color Characteristics:
    Red  : 0.5839, 0.3330
    Green: 0.3378, 0.5712
    Blue : 0.1582, 0.1328
    White: 0.3134, 0.3291
  Established Timings I & II: none
  Standard Timings: none
  Detailed Timing Descriptors:
    DTD 1:  1366x768    60.027315 Hz 683:384   46.581 kHz     65.400000 MHz (256 mm x 144 mm)
                 Hfront   24 Hsync  14 Hback    0 Hpol N
                 Vfront    2 Vsync   4 Vback    2 Vpol N
    DTD 2:  1366x768    50.022763 Hz 683:384   38.818 kHz     54.500000 MHz (256 mm x 144 mm)
                 Hfront   24 Hsync  14 Hback    0 Hpol N
                 Vfront    2 Vsync   4 Vback    2 Vpol N
    Manufacturer-Specified Display Descriptor (0x0f): 00 0f 00 8b 09 32 8b 09 28 14 09 00 06 af 56 31 '.....2..(.....V1'
    Alphanumeric Data String: 'B116XW02 V1 '
Checksum: 0x53

----------------

Failures:

Block 0, Base EDID:
  Detailed Timing Descriptor #1: 0 or negative horizontal back porch.
  Detailed Timing Descriptor #2: 0 or negative horizontal back porch.
  Alphanumeric Data String: One or more trailing spaces.
  Missing Display Product Name.
  Missing Display Range Limits Descriptor.

EDID conformity: FAIL
