
EDID (hex):
00ffffffffffff0030aed14000000000
01150103801a0e78ea99859555569228
22505400000001010101010101010101
010101010101581b563c500032301810
2400009010000018c916563c50003230
181024000090100000180000000f008c
093c8c093214090006af5631000000fe
004231313658573032205631200a0069

Extracted contents:
header:          00 ff ff ff ff ff ff 00
serial number:   30 ae d1 40 00 00 00 00 01 15
version:         01 03
basic params:    80 1a 0e 78 ea
chroma info:     99 85 95 55 56 92 28 22 50 54
established:     00 00 00
standard:        01 01 01 01 01 01 01 01 01 01 01 01 01 01 01 01
descriptor 1:    58 1b 56 3c 50 00 32 30 18 10 24 00 00 90 10 00 00 18
descriptor 2:    c9 16 56 3c 50 00 32 30 18 10 24 00 00 90 10 00 00 18
descriptor 3:    00 00 00 0f 00 8c 09 3c 8c 09 32 14 09 00 06 af 56 31
descriptor 4:    00 00 00 fe 00 42 31 31 36 58 57 30 32 20 56 31 20 0a
extensions:      00
checksum:        69

EDID version: 1.3
Manufacturer: LEN Model 40d1 Serial Number --
Made in week 1 of 2011
Digital display
Maximum image size: 26 cm x 14 cm
Gamma: 2.20
DPMS levels: Standby Suspend Off
RGB color display
First detailed timing is preferred timing
Display x,y Chromaticity:
  Red:   0.5839, 0.3330
  Green: 0.3378, 0.5712
  Blue:  0.1582, 0.1328
  White: 0.3134, 0.3291
Established timings supported:
Standard timings supported:
Detailed mode: Clock 70.000 MHz, 256 mm x 144 mm
               1366 1390 1406 1426 hborder 0
                768  770  774  818 vborder 0
               -hsync -vsync 
               VertFreq: 60 Hz, HorFreq: 49088 Hz
Detailed mode: Clock 58.330 MHz, 256 mm x 144 mm
               1366 1390 1406 1426 hborder 0
                768  770  774  818 vborder 0
               -hsync -vsync 
               VertFreq: 50 Hz, HorFreq: 40904 Hz
Manufacturer-specified data, tag 15
ASCII string: B116XW02 V1 
Checksum: 0x69 (valid)
EDID block does NOT conform to EDID 1.3!
	Missing name descriptor
	Missing monitor ranges
