
EDID (hex):
00ffffffffffff0030aed14000000000
00170104901a0e78ea12309156539228
1e505400000001010101010101010101
010101010101d51c56a6500023302820
3c00009010000019071856a650002330
28203c000090100000190000000f008c
09328c093214090026cf8904000000fe
004d3131364e575231205237200a00f7

Extracted contents:
header:          00 ff ff ff ff ff ff 00
serial number:   30 ae d1 40 00 00 00 00 00 17
version:         01 04
basic params:    90 1a 0e 78 ea
chroma info:     12 30 91 56 53 92 28 1e 50 54
established:     00 00 00
standard:        01 01 01 01 01 01 01 01 01 01 01 01 01 01 01 01
descriptor 1:    d5 1c 56 a6 50 00 23 30 28 20 3c 00 00 90 10 00 00 19
descriptor 2:    07 18 56 a6 50 00 23 30 28 20 3c 00 00 90 10 00 00 19
descriptor 3:    00 00 00 0f 00 8c 09 32 8c 09 32 14 09 00 26 cf 89 04
descriptor 4:    00 00 00 fe 00 4d 31 31 36 4e 57 52 31 20 52 37 20 0a
extensions:      00
checksum:        f7

EDID version: 1.4
Manufacturer: LEN Model 40d1 Serial Number --
Made in year 2013
Digital display
6 bits per primary color channel
Digital interface is not defined
Maximum image size: 26 cm x 14 cm
Gamma: 2.20
DPMS levels: Standby Suspend Off
Supported color formats: RGB 4:4:4, YCrCb 4:4:4
First detailed timing includes the native pixel format and preferred refresh rate
Display x,y Chromaticity:
  Red:   0.5664, 0.3369
  Green: 0.3242, 0.5722
  Blue:  0.1562, 0.1201
  White: 0.3125, 0.3281
Established timings supported:
Standard timings supported:
Detailed mode: Clock 73.810 MHz, 256 mm x 144 mm
               1366 1406 1438 1532 hborder 0
                768  771  783  803 vborder 0
               -hsync -vsync 
               VertFreq: 59 Hz, HorFreq: 48178 Hz
Detailed mode: Clock 61.510 MHz, 256 mm x 144 mm
               1366 1406 1438 1532 hborder 0
                768  771  783  803 vborder 0
               -hsync -vsync 
               VertFreq: 50 Hz, HorFreq: 40150 Hz
Manufacturer-specified data, tag 15
ASCII string: M116NWR1 R7 
Checksum: 0xf7 (valid)
EDID block does NOT conform to EDID 1.4!
	Missing name descriptor
	Missing monitor ranges
