
EDID (hex):
00ffffffffffff0030aed14000000000
00140103801a0e78ea99859555569228
22505400000001010101010101010101
010101010101121b565a500019303020
36000090100000188f16565a50001930
302036000090100000180000000f008c
09328c092814090006af5631000000fe
004231313658573033205631200a0080

Extracted contents:
header:          00 ff ff ff ff ff ff 00
serial number:   30 ae d1 40 00 00 00 00 00 14
version:         01 03
basic params:    80 1a 0e 78 ea
chroma info:     99 85 95 55 56 92 28 22 50 54
established:     00 00 00
standard:        01 01 01 01 01 01 01 01 01 01 01 01 01 01 01 01
descriptor 1:    12 1b 56 5a 50 00 19 30 30 20 36 00 00 90 10 00 00 18
descriptor 2:    8f 16 56 5a 50 00 19 30 30 20 36 00 00 90 10 00 00 18
descriptor 3:    00 00 00 0f 00 8c 09 32 8c 09 28 14 09 00 06 af 56 31
descriptor 4:    00 00 00 fe 00 42 31 31 36 58 57 30 33 20 56 31 20 0a
extensions:      00
checksum:        80

EDID version: 1.3
Manufacturer: LEN Model 40d1 Serial Number --
Made in year 2010
Digital display
Maximum image size: 26 cm x 14 cm
Gamma: 2.20
DPMS levels: Standby Suspend Off
RGB color display
First detailed timing is preferred timing
Display x,y Chromaticity:
  Red:   0.5839, 0.3330
  Green: 0.3378, 0.5712
  Blue:  0.1582, 0.1328
  White: 0.3134, 0.3291
Established timings supported:
Standard timings supported:
Detailed mode: Clock 69.300 MHz, 256 mm x 144 mm
               1366 1414 1446 1456 hborder 0
                768  771  777  793 vborder 0
               -hsync -vsync 
               VertFreq: 60 Hz, HorFreq: 47596 Hz
Detailed mode: Clock 57.750 MHz, 256 mm x 144 mm
               1366 1414 1446 1456 hborder 0
                768  771  777  793 vborder 0
               -hsync -vsync 
               VertFreq: 50 Hz, HorFreq: 39663 Hz
Manufacturer-specified data, tag 15
ASCII string: B116XW03 V1 
Checksum: 0x80 (valid)
EDID block does NOT conform to EDID 1.3!
	Missing name descriptor
	Missing monitor ranges
