edid-decode (hex):

00 ff ff ff ff ff ff 00 30 ae d1 40 00 00 00 00
00 13 01 03 80 1a 0e 78 ea bf 45 95 58 52 8a 28
25 50 54 00 00 00 01 01 01 01 01 01 01 01 01 01
01 01 01 01 01 01 e2 1d 56 dc 50 00 23 30 38 28
78 00 00 90 10 00 00 1b e0 18 56 dc 50 00 23 30
38 28 78 00 00 90 10 00 00 1b 00 00 00 0f 00 8c
09 3c 8c 09 32 14 09 00 30 e4 76 02 00 00 00 fe
00 4c 50 31 31 36 57 48 31 2d 54 4c 42 31 00 cf

----------------

Block 0, Base EDID:
  EDID Structure Version & Revision: 1.3
  Vendor & Product Identification:
    Manufacturer: LEN
    Model: 16593
    Made in: 2009
  Basic Display Parameters & Features:
    Digital display
    Maximum image size: 26 cm x 14 cm
    Gamma: 2.20
    DPMS levels: Standby Suspend Off
    RGB color display
    First detailed timing is preferred timing
  Color Characteristics:
    Red  : 0.5839, 0.3466
    Green: 0.3232, 0.5419
    Blue : 0.1572, 0.1445
    White: 0.3134, 0.3291
  Established Timings I & II: none
  Standard Timings: none
  Detailed Timing Descriptors:
    DTD 1:  1366x768    60.068 Hz 683:384  48.235 kHz  76.500 MHz (256 mm x 144 mm)
                 Hfront   56 Hsync  40 Hback 124 Hpol P
                 Vfront    7 Vsync   8 Vback  20 Vpol N
    DTD 2:  1366x768    50.002 Hz 683:384  40.151 kHz  63.680 MHz (256 mm x 144 mm)
                 Hfront   56 Hsync  40 Hback 124 Hpol P
                 Vfront    7 Vsync   8 Vback  20 Vpol N
    Manufacturer-Specified Display Descriptor (0x0f): 00 0f 00 8c 09 3c 8c 09 32 14 09 00 30 e4 76 02 '.....<..2...0.v.'
    Alphanumeric Data String: 'LP116WH1-TLB1'
Checksum: 0xcf

----------------

Failures:

Block 0, Base EDID:
  Missing Display Product Name.
  Missing Display Range Limits Descriptor.

EDID conformity: FAIL
