
EDID (hex):
00ffffffffffff0030aed14000000000
00130103801a0e78ea35259356558e29
1d505400000001010101010101010101
010101010101ef1f5662510018303020
25000090100000190d17568050001630
302025000090100000190000000f008c
093c8c09321409004ca34154000000fe
004c544e313136415430313430310034

Extracted contents:
header:          00 ff ff ff ff ff ff 00
serial number:   30 ae d1 40 00 00 00 00 00 13
version:         01 03
basic params:    80 1a 0e 78 ea
chroma info:     35 25 93 56 55 8e 29 1d 50 54
established:     00 00 00
standard:        01 01 01 01 01 01 01 01 01 01 01 01 01 01 01 01
descriptor 1:    ef 1f 56 62 51 00 18 30 30 20 25 00 00 90 10 00 00 19
descriptor 2:    0d 17 56 80 50 00 16 30 30 20 25 00 00 90 10 00 00 19
descriptor 3:    00 00 00 0f 00 8c 09 3c 8c 09 32 14 09 00 4c a3 41 54
descriptor 4:    00 00 00 fe 00 4c 54 4e 31 31 36 41 54 30 31 34 30 31
extensions:      00
checksum:        34

EDID version: 1.3
Manufacturer: LEN Model 40d1 Serial Number --
Made in year 2009
Digital display
Maximum image size: 26 cm x 14 cm
Gamma: 2.20
DPMS levels: Standby Suspend Off
RGB color display
First detailed timing is preferred timing
Display x,y Chromaticity:
  Red:   0.5742, 0.3388
  Green: 0.3330, 0.5556
  Blue:  0.1601, 0.1152
  White: 0.3134, 0.3291
Established timings supported:
Standard timings supported:
Detailed mode: Clock 81.750 MHz, 256 mm x 144 mm
               1366 1414 1446 1720 hborder 0
                768  770  775  792 vborder 0
               -hsync -vsync 
               VertFreq: 60 Hz, HorFreq: 47529 Hz
Detailed mode: Clock 59.010 MHz, 256 mm x 144 mm
               1366 1414 1446 1494 hborder 0
                768  770  775  790 vborder 0
               -hsync -vsync 
               VertFreq: 49 Hz, HorFreq: 39497 Hz
Manufacturer-specified data, tag 15
ASCII string: LTN116AT01401
Checksum: 0x34 (valid)
EDID block does NOT conform to EDID 1.3!
	Missing name descriptor
	Missing monitor ranges
