
EDID (hex):
00ffffffffffff0030e4da0200000000
00140104902616780af195a35552a126
0f505400000001010101010101010101
010101010101b03680b0703821403020
35007cdc10000018b03680b070382140
302035007cdc10000018000000fe0056
43563146813137335746310a00000000
000041319e0000000002010a20200058

Extracted contents:
header:          00 ff ff ff ff ff ff 00
serial number:   30 e4 da 02 00 00 00 00 00 14
version:         01 04
basic params:    90 26 16 78 0a
chroma info:     f1 95 a3 55 52 a1 26 0f 50 54
established:     00 00 00
standard:        01 01 01 01 01 01 01 01 01 01 01 01 01 01 01 01
descriptor 1:    b0 36 80 b0 70 38 21 40 30 20 35 00 7c dc 10 00 00 18
descriptor 2:    b0 36 80 b0 70 38 21 40 30 20 35 00 7c dc 10 00 00 18
descriptor 3:    00 00 00 fe 00 56 43 56 31 46 81 31 37 33 57 46 31 0a
descriptor 4:    00 00 00 00 00 00 41 31 9e 00 00 00 00 02 01 0a 20 20
extensions:      00
checksum:        58

EDID version: 1.4
Manufacturer: LGD Model 2da Serial Number --
Made in year 2010
Digital display
6 bits per primary color channel
Digital interface is not defined
Maximum image size: 38 cm x 22 cm
Gamma: 2.20
Supported color formats: RGB 4:4:4, YCrCb 4:4:4
First detailed timing includes the native pixel format and preferred refresh rate
Display x,y Chromaticity:
  Red:   0.6396, 0.3349
  Green: 0.3203, 0.6298
  Blue:  0.1503, 0.0595
  White: 0.3134, 0.3291
Established timings supported:
Standard timings supported:
Detailed mode: Clock 140.000 MHz, 380 mm x 220 mm
               1920 1968 2000 2096 hborder 0
               1080 1083 1088 1113 vborder 0
               -hsync -vsync 
               VertFreq: 60 Hz, HorFreq: 66793 Hz
Detailed mode: Clock 140.000 MHz, 380 mm x 220 mm
               1920 1968 2000 2096 hborder 0
               1080 1083 1088 1113 vborder 0
               -hsync -vsync 
               VertFreq: 60 Hz, HorFreq: 66793 Hz
ASCII string: VCV1F
Manufacturer-specified data, tag 0
Checksum: 0x58 (valid)
EDID block does NOT conform to EDID 1.4!
	Missing name descriptor
	Missing monitor ranges
	Detailed block string not properly terminated
