edid-decode (hex):

00 ff ff ff ff ff ff 00 30 e4 da 02 00 00 00 00
00 14 01 04 90 26 15 78 0a f1 95 a3 55 52 a1 26
0f 50 54 00 00 00 01 01 01 01 01 01 01 01 01 01
01 01 01 01 01 01 ee 39 80 2e 71 38 20 40 30 20
35 00 7e d7 10 00 00 18 ee 39 80 2e 71 38 20 40
30 20 35 00 7e d7 10 00 00 18 00 00 00 fe 00 44
33 57 43 46 80 31 37 33 57 46 31 0a 00 00 00 00
00 00 41 33 9e 00 00 00 00 02 01 0a 20 20 00 ef

----------------

Block 0, Base EDID:
  EDID Structure Version & Revision: 1.4
  Vendor & Product Identification:
    Manufacturer: LGD
    Model: 730
    Made in: 2010
  Basic Display Parameters & Features:
    Digital display
    Bits per primary color channel: 6
    Digital interface is not defined
    Maximum image size: 38 cm x 21 cm
    Gamma: 2.20
    Supported color formats: RGB 4:4:4, YCrCb 4:4:4
    First detailed timing includes the native pixel format and preferred refresh rate
  Color Characteristics:
    Red  : 0.6396, 0.3349
    Green: 0.3203, 0.6298
    Blue : 0.1503, 0.0595
    White: 0.3134, 0.3291
  Established Timings I & II: none
  Standard Timings: none
  Detailed Timing Descriptors:
    DTD 1:  1920x1080   60.019 Hz  16:9    66.742 kHz 148.300 MHz (382 mm x 215 mm)
                 Hfront   48 Hsync  32 Hback 222 Hpol N
                 Vfront    3 Vsync   5 Vback  24 Vpol N
    DTD 2:  1920x1080   60.019 Hz  16:9    66.742 kHz 148.300 MHz (382 mm x 215 mm)
                 Hfront   48 Hsync  32 Hback 222 Hpol N
                 Vfront    3 Vsync   5 Vback  24 Vpol N
    Alphanumeric Data String: 'D3WCF'
    Manufacturer-Specified Display Descriptor (0x00): 00 00 00 00 41 33 9e 00 00 00 00 02 01 0a 20 20 '....A3........  '
Checksum: 0xef

----------------

Failures:

Block 0, Base EDID:
  Alphanumeric Data String: Non-printable character.
  Missing Display Product Name.

EDID conformity: FAIL
