
EDID (hex):
00ffffffffffff000daf041500000000
240e0103802115780acaa5955b4c9527
22505400000001010101010101010101
010101010101bc1b00a0502017303020
36004bcf10000018000000fe004e3135
3449312d4c30390a2020000000fe0043
4d4f0a202020202020202020000000fe
004e31353449312d4c30390a20200071

Extracted contents:
header:          00 ff ff ff ff ff ff 00
serial number:   0d af 04 15 00 00 00 00 24 0e
version:         01 03
basic params:    80 21 15 78 0a
chroma info:     ca a5 95 5b 4c 95 27 22 50 54
established:     00 00 00
standard:        01 01 01 01 01 01 01 01 01 01 01 01 01 01 01 01
descriptor 1:    bc 1b 00 a0 50 20 17 30 30 20 36 00 4b cf 10 00 00 18
descriptor 2:    00 00 00 fe 00 4e 31 35 34 49 31 2d 4c 30 39 0a 20 20
descriptor 3:    00 00 00 fe 00 43 4d 4f 0a 20 20 20 20 20 20 20 20 20
descriptor 4:    00 00 00 fe 00 4e 31 35 34 49 31 2d 4c 30 39 0a 20 20
extensions:      00
checksum:        71

EDID version: 1.3
Manufacturer: CMO Model 1504 Serial Number --
Digital display
Maximum image size: 33 cm x 21 cm
Gamma: 2.20
RGB color display
First detailed timing is preferred timing
Display x,y Chromaticity:
  Red:   0.5849, 0.3554
  Green: 0.2988, 0.5839
  Blue:  0.1542, 0.1347
  White: 0.3134, 0.3291
Established timings supported:
Standard timings supported:
Detailed mode: Clock 71.000 MHz, 331 mm x 207 mm
               1280 1328 1360 1440 hborder 0
                800  803  809  823 vborder 0
               -hsync -vsync 
               VertFreq: 59 Hz, HorFreq: 49305 Hz
ASCII string: N154I1-L09
ASCII string: CMO
ASCII string: N154I1-L09
Checksum: 0x71 (valid)
EDID block does NOT conform to EDID 1.3!
	Missing name descriptor
	Missing monitor ranges
EDID block does not conform at all!
	Bad year of manufacture
