edid-decode (hex):

00 ff ff ff ff ff ff 00 52 cc 83 24 01 00 00 00
12 1c 01 03 82 0f 09 78 ea f7 c5 a3 55 4c 9b 25
12 50 54 a4 00 00 01 01 01 01 01 01 01 01 01 01
01 01 01 01 01 01 fe 0c 20 00 31 e0 2d 10 80 38
a2 00 9a 5d 00 00 00 1a 00 00 00 fd 00 37 37 1f
3e 08 02 00 00 00 00 00 00 00 00 00 00 fe 00 4d
4f 4e 49 54 4f 52 5f 48 44 4d 49 0a 00 00 00 fc
00 4d 4f 4e 49 54 4f 52 5f 48 44 4d 49 0a 01 d2

02 03 14 f2 41 83 23 09 07 07 83 01 00 00 65 03
0c 00 10 00 8c 0a d0 14 21 e0 2d 10 10 3a 96 00
f0 be 00 00 00 18 00 00 00 00 00 00 00 00 00 00
00 00 00 00 00 00 00 00 00 00 00 00 00 00 00 00
00 00 00 00 00 00 00 00 00 00 00 00 00 00 00 00
00 00 00 00 00 00 00 00 00 00 00 00 00 00 00 00
00 00 00 00 00 00 00 00 00 00 00 00 00 00 00 00
00 00 00 00 00 00 00 00 00 00 00 00 00 00 00 91

----------------

Block 0, Base EDID:
  EDID Structure Version & Revision: 1.3
  Vendor & Product Identification:
    Manufacturer: TVL
    Model: 9347
    Serial Number: ...
    Made in: week 18 of 2018
  Basic Display Parameters & Features:
    Digital display
    Maximum image size: 15 cm x 9 cm
    Gamma: 2.20
    DPMS levels: Standby Suspend Off
    RGB color display
    First detailed timing is the preferred timing
  Color Characteristics:
    Red  : 0.6396, 0.3349
    Green: 0.2978, 0.6083
    Blue : 0.1474, 0.0703
    White: 0.3134, 0.3291
  Established Timings I & II:
    IBM     :   720x400    70.081663 Hz   9:5     31.467 kHz     28.320000 MHz
    DMT 0x04:   640x480    59.940476 Hz   4:3     31.469 kHz     25.175000 MHz
    DMT 0x06:   640x480    75.000000 Hz   4:3     37.500 kHz     31.500000 MHz
  Standard Timings: none
  Detailed Timing Descriptors:
    DTD 1:   800x480    59.992785 Hz   5:3     31.496 kHz     33.260000 MHz (154 mm x 93 mm)
                 Hfront  128 Hsync  56 Hback   72 Hpol P
                 Vfront   10 Vsync   2 Vback   33 Vpol N
    Display Range Limits:
      Monitor ranges (Secondary GTF): 55-55 Hz V, 31-62 kHz H, max dotclock 80 MHz
    Alphanumeric Data String: 'MONITOR_HDMI'
    Display Product Name: 'MONITOR_HDMI'
  Extension blocks: 1
Checksum: 0xd2

----------------

Block 1, CTA-861 Extension Block:
  Revision: 3
  Underscans IT Video Formats by default
  Basic audio support
  Supports YCbCr 4:4:4
  Supports YCbCr 4:2:2
  Native detailed modes: 2
  Video Data Block:
    VIC   3:   720x480    59.940060 Hz  16:9     31.469 kHz     27.000000 MHz (native)
  Audio Data Block:
    Linear PCM:
      Max channels: 2
      Supported sample rates (kHz): 48 44.1 32
      Supported sample sizes (bits): 24 20 16
  Speaker Allocation Data Block:
    FL/FR - Front Left/Right
  Vendor-Specific Data Block (HDMI), OUI 00-0C-03:
    Source physical address: 1.0.0.0
  Detailed Timing Descriptors:
    DTD 2:   720x480    51.635112 Hz   3:2     27.108 kHz     27.000000 MHz (240 mm x 190 mm)
                 Hfront   16 Hsync  58 Hback  202 Hpol N
                 Vfront    9 Vsync   6 Vback   30 Vpol N
Checksum: 0x91

----------------

Warnings:

Block 0, Base EDID:
  Basic Display Parameters & Features: Dubious maximum image size (15x9 is smaller than 10x10 cm).

Failures:

Block 0, Base EDID:
  Basic Display Parameters & Features: Digital Video Interface Standard set to reserved value 0x02.
  Display Range Limits: Zeroed Secondary Curve Block.
Block 1, CTA-861 Extension Block:
  Detailed Timing Descriptor #2: Mismatch of image size 240x190 mm vs display size 150x90 mm.
  Missing VCDB, needed for Set Selectable RGB Quantization to avoid interop issues.
EDID:
  Base EDID: Some timings are out of range of the Monitor Ranges:
    Vertical Freq: 51.635 - 75.000 Hz (Monitor: 55.000 - 55.000 Hz)
    Horizontal Freq: 27.108 - 37.500 kHz (Monitor: 31.000 - 62.000 kHz)
  Base EDID: The DTD max image size is 240x190mm, which is larger than the display size 150.0x90.0mm.
  CTA-861: Native progressive timings are a mix of several resolutions.

EDID conformity: FAIL
