
EDID (hex):
00ffffffffffff0006af9db300000000
011f0104a52213780359259358599329
1d505400000001010101010101010101
010101010101fa3780c870382e406c30
aa0058c210000018182e000000000000
0000000058c210000018000000fd0028
3c44440e010a202020202020000000fe
004231353648414b30322e34200a0039

edid-decode (hex):

00 ff ff ff ff ff ff 00 06 af 9d b3 00 00 00 00
01 1f 01 04 a5 22 13 78 03 59 25 93 58 59 93 29
1d 50 54 00 00 00 01 01 01 01 01 01 01 01 01 01
01 01 01 01 01 01 fa 37 80 c8 70 38 2e 40 6c 30
aa 00 58 c2 10 00 00 18 18 2e 00 00 00 00 00 00
00 00 00 00 58 c2 10 00 00 18 00 00 00 fd 00 28
3c 44 44 0e 01 0a 20 20 20 20 20 20 00 00 00 fe
00 42 31 35 36 48 41 4b 30 32 2e 34 20 0a 00 39

----------------

Block 0, Base EDID:
  EDID Structure Version & Revision: 1.4
  Vendor & Product Identification:
    Manufacturer: AUO
    Model: 45981
    Made in: week 1 of 2021
  Basic Display Parameters & Features:
    Digital display
    Bits per primary color channel: 8
    DisplayPort interface
    Maximum image size: 34 cm x 19 cm
    Gamma: 2.20
    Supported color formats: RGB 4:4:4
    First detailed timing includes the native pixel format and preferred refresh rate
    Display is continuous frequency
  Color Characteristics:
    Red  : 0.5751, 0.3447
    Green: 0.3496, 0.5751
    Blue : 0.1601, 0.1152
    White: 0.3134, 0.3291
  Established Timings I & II: none
  Standard Timings: none
  Detailed Timing Descriptors:
    DTD 1:  1920x1080   60.030497 Hz  16:9     67.594 kHz    143.300000 MHz (344 mm x 194 mm)
                 Hfront  108 Hsync  48 Hback   44 Hpol N
                 Vfront   10 Vsync  10 Vback   26 Vpol N
    DTD 2:     0x0            inf Hz   0:0      0.000 kHz    118.000000 MHz (344 mm x 194 mm)
                 Hfront    0 Hsync   0 Hback    0 Hpol N
                 Vfront    0 Vsync   0 Vback    0 Vpol N
                   18 2e 00 00 00 00 00 00 00 00 00 00 58 c2 10 00 00 18 '............X.....'
    Display Range Limits:
      Monitor ranges (Bare Limits): 40-60 Hz V, 68-68 kHz H, max dotclock 140 MHz
    Alphanumeric Data String: 'B156HAK02.4 '
Checksum: 0x39


