edid-decode (hex):

00 ff ff ff ff ff ff 00 06 af c2 11 00 00 00 00
01 12 01 03 90 14 0b 78 0a fa 56 92 56 54 98 24
1a 4f 54 00 00 00 01 01 01 01 01 01 01 01 01 01
01 01 01 01 01 01 ec 13 00 48 41 58 1c 20 18 88
31 00 c3 71 00 00 00 1a ec 13 00 48 41 58 1c 20
18 88 31 00 c3 71 00 00 00 1a 00 00 00 fe 00 52
38 32 30 47 81 42 30 38 39 41 57 31 00 00 00 00
00 00 00 00 00 00 00 00 00 01 01 0a 20 20 00 01

----------------

Block 0, Base EDID:
  EDID Structure Version & Revision: 1.3
  Vendor & Product Identification:
    Manufacturer: AUO
    Model: 4546
    Made in: week 1 of 2008
  Basic Display Parameters & Features:
    Digital display
    Maximum image size: 20 cm x 11 cm
    Gamma: 2.20
    RGB color display
    First detailed timing is preferred timing
  Color Characteristics:
    Red  : 0.5732, 0.3388
    Green: 0.3300, 0.5957
    Blue : 0.1416, 0.1025
    White: 0.3095, 0.3300
  Established Timings I & II: none
  Standard Timings: none
  Detailed Timing Descriptors:
    DTD 1:  1024x600    60.067 Hz 128:75   37.722 kHz  51.000 MHz (195 mm x 113 mm)
                 Hfront   24 Hsync 136 Hback 168 Hpol P
                 Vfront    3 Vsync   1 Vback  24 Vpol N
    DTD 2:  1024x600    60.067 Hz 128:75   37.722 kHz  51.000 MHz (195 mm x 113 mm)
                 Hfront   24 Hsync 136 Hback 168 Hpol P
                 Vfront    3 Vsync   1 Vback  24 Vpol N
    Alphanumeric Data String: 'R820G'
    Manufacturer-Specified Display Descriptor (0x00): 00 00 00 00 00 00 00 00 00 00 00 01 01 0a 20 20 '..............  '
Checksum: 0x1
