edid-decode (hex):

00 ff ff ff ff ff ff 00 06 af ed 10 00 00 00 00
1f 1a 01 04 95 22 13 78 02 cc 45 93 58 58 8e 29
20 50 54 00 00 00 01 01 01 01 01 01 01 01 01 01
01 01 01 01 01 01 78 37 80 b4 70 38 2e 40 6c 0a
aa 00 58 c1 10 00 00 1a 60 2c 80 b4 70 38 2e 40
6c 0a aa 00 58 c1 10 00 00 1a 00 00 00 fe 00 46
4e 44 43 36 80 42 31 35 36 48 54 4b 00 00 00 00
00 00 41 02 96 01 10 00 00 0a 01 0a 20 20 00 8b

----------------

Block 0, Base EDID:
  EDID Structure Version & Revision: 1.4
  Vendor & Product Identification:
    Manufacturer: AUO
    Model: 4333
    Made in: week 31 of 2016
  Basic Display Parameters & Features:
    Digital display
    Bits per primary color channel: 6
    DisplayPort interface
    Maximum image size: 34 cm x 19 cm
    Gamma: 2.20
    Supported color formats: RGB 4:4:4
    First detailed timing includes the native pixel format and preferred refresh rate
  Color Characteristics:
    Red  : 0.5771, 0.3437
    Green: 0.3466, 0.5546
    Blue : 0.1611, 0.1250
    White: 0.3134, 0.3291
  Established Timings I & II: none
  Standard Timings: none
  Detailed Timing Descriptors:
    DTD 1:  1920x1080   60.052 Hz  16:9    67.619 kHz 142.000 MHz (344 mm x 193 mm)
                 Hfront  108 Hsync  10 Hback  62 Hpol P
                 Vfront   10 Vsync  10 Vback  26 Vpol N
    DTD 2:  1920x1080   48.042 Hz  16:9    54.095 kHz 113.600 MHz (344 mm x 193 mm)
                 Hfront  108 Hsync  10 Hback  62 Hpol P
                 Vfront   10 Vsync  10 Vback  26 Vpol N
    Alphanumeric Data String: 'FNDC6'
    Manufacturer-Specified Display Descriptor (0x00): 00 00 00 00 41 02 96 01 10 00 00 0a 01 0a 20 20 '....A.........  '
Checksum: 0x8b

----------------

Failures:

Block 0, Base EDID:
  Alphanumeric Data String: Non-printable character.
  Missing Display Product Name.

EDID conformity: FAIL
