edid-decode (hex):

00 ff ff ff ff ff ff 00 06 af ed 10 00 00 00 00
00 18 01 04 95 22 13 78 02 e2 95 a3 54 52 99 26
0f 50 54 00 00 00 01 01 01 01 01 01 01 01 01 01
01 01 01 01 01 01 14 37 80 b8 70 38 24 40 10 10
3e 00 58 c1 10 00 00 1a 10 2c 80 b8 70 38 24 40
10 10 3e 00 58 c1 10 00 00 1a 00 00 00 fe 00 4e
35 31 56 46 80 42 31 35 36 48 41 54 00 00 00 00
00 00 41 22 9e 01 10 00 00 0a 01 0a 20 20 00 70

00 ff ff ff ff ff ff 00 06 af ed 10 00 00 00 00
00 18 01 04 95 22 13 78 02 e2 95 a3 54 52 99 26
0f 50 54 00 00 00 01 01 01 01 01 01 01 01 01 01
01 01 01 01 01 01 14 37 80 b8 70 38 24 40 10 10
3e 00 58 c1 10 00 00 1a 10 2c 80 b8 70 38 24 40
10 10 3e 00 58 c1 10 00 00 1a 00 00 00 fe 00 4e
35 31 56 46 80 42 31 35 36 48 41 54 00 00 00 00
00 00 41 22 9e 01 10 00 00 0a 01 0a 20 20 00 70

----------------

Block 0, Base EDID:
  EDID Structure Version & Revision: 1.4
  Vendor & Product Identification:
    Manufacturer: AUO
    Model: 4333
    Made in: 2014
  Basic Display Parameters & Features:
    Digital display
    Bits per primary color channel: 6
    DisplayPort interface
    Maximum image size: 34 cm x 19 cm
    Gamma: 2.20
    Supported color formats: RGB 4:4:4
    First detailed timing includes the native pixel format and preferred refresh rate
  Color Characteristics:
    Red  : 0.6396, 0.3300
    Green: 0.3203, 0.5996
    Blue : 0.1503, 0.0595
    White: 0.3134, 0.3291
  Established Timings I & II: none
  Standard Timings: none
  Detailed Timing Descriptors:
    DTD 1:  1920x1080   60.049471 Hz  16:9     67.015 kHz    141.000000 MHz (344 mm x 193 mm)
                 Hfront   16 Hsync  16 Hback  152 Hpol P
                 Vfront    3 Vsync  14 Vback   19 Vpol N
    DTD 2:  1920x1080   48.039576 Hz  16:9     53.612 kHz    112.800000 MHz (344 mm x 193 mm)
                 Hfront   16 Hsync  16 Hback  152 Hpol P
                 Vfront    3 Vsync  14 Vback   19 Vpol N
    Alphanumeric Data String: 'N51VF'
    Manufacturer-Specified Display Descriptor (0x00): 00 00 00 00 41 22 9e 01 10 00 00 0a 01 0a 20 20 '....A"........  '
Checksum: 0x70

----------------

Block 1, Unknown EDID Extension Block 0x00:
  00 ff ff ff ff ff ff 00 06 af ed 10 00 00 00 00 '................'
  00 18 01 04 95 22 13 78 02 e2 95 a3 54 52 99 26 '.....".x....TR.&'
  0f 50 54 00 00 00 01 01 01 01 01 01 01 01 01 01 '.PT.............'
  01 01 01 01 01 01 14 37 80 b8 70 38 24 40 10 10 '.......7..p8$@..'
  3e 00 58 c1 10 00 00 1a 10 2c 80 b8 70 38 24 40 '>.X......,..p8$@'
  10 10 3e 00 58 c1 10 00 00 1a 00 00 00 fe 00 4e '..>.X..........N'
  35 31 56 46 80 42 31 35 36 48 41 54 00 00 00 00 '51VF.B156HAT....'
  00 00 41 22 9e 01 10 00 00 0a 01 0a 20 20 00 70 '..A"........  .p'
Checksum: 0x70

----------------

Warnings:

Block 0, Base EDID:
  Missing Display Product Name.

Failures:

Block 0, Base EDID:
  Alphanumeric Data String: Non-printable character.
Block 1, Base EDID:
  Unknown Extension Block.
EDID:
  Base EDID: EDID specified 0 extension block(s), but found 1 extension block(s).

EDID conformity: FAIL
