
EDID (hex):
00ffffffffffff0026cf7e0500000000
00190104951f11780ada109758519727
1e505400000001010101010101010101
010101010101261c567c500026302024
8e0035ae100000190000000000000000
00000000000000000000000000fe0049
6e666f566973696f6e0a2020000000fe
004d3134304e575236205231200a00b1

Extracted contents:
header:          00 ff ff ff ff ff ff 00
serial number:   26 cf 7e 05 00 00 00 00 00 19
version:         01 04
basic params:    95 1f 11 78 0a
chroma info:     da 10 97 58 51 97 27 1e 50 54
established:     00 00 00
standard:        01 01 01 01 01 01 01 01 01 01 01 01 01 01 01 01
descriptor 1:    26 1c 56 7c 50 00 26 30 20 24 8e 00 35 ae 10 00 00 19
descriptor 2:    00 00 00 00 00 00 00 00 00 00 00 00 00 00 00 00 00 00
descriptor 3:    00 00 00 fe 00 49 6e 66 6f 56 69 73 69 6f 6e 0a 20 20
descriptor 4:    00 00 00 fe 00 4d 31 34 30 4e 57 52 36 20 52 31 20 0a
extensions:      00
checksum:        b1

EDID version: 1.4
Manufacturer: IVO Model 57e Serial Number --
Made in year 2015
Digital display
6 bits per primary color channel
DisplayPort interface
Maximum image size: 31 cm x 17 cm
Gamma: 2.20
Supported color formats: RGB 4:4:4, YCrCb 4:4:4
First detailed timing includes the native pixel format and preferred refresh rate
Display x,y Chromaticity:
  Red:   0.5927, 0.3447
  Green: 0.3183, 0.5917
  Blue:  0.1523, 0.1181
  White: 0.3125, 0.3281
Established timings supported:
Standard timings supported:
Detailed mode: Clock 72.060 MHz, 309 mm x 174 mm
               1366 1398 1434 1490 hborder 0
                768  776  790  806 vborder 0
               -hsync -vsync 
               VertFreq: 60 Hz, HorFreq: 48362 Hz
Manufacturer-specified data, tag 0
ASCII string: InfoVision
ASCII string: M140NWR6 R1 
Checksum: 0xb1 (valid)
EDID block does NOT conform to EDID 1.4!
	Missing name descriptor
	Missing monitor ranges
