edid-decode (hex):

00 ff ff ff ff ff ff 00 4d 10 a3 21 01 01 01 01
21 15 01 03 0e 29 1a 78 ea ee d5 a5 55 48 9b 26
12 50 54 bf ee 80 8b c0 71 4f 61 46 01 01 01 01
01 01 01 01 01 01 9a 29 a0 d0 51 84 22 30 50 98
36 00 98 ff 10 00 00 1c 00 00 00 fc 00 4c 4c 2d
57 31 39 31 2d 57 0a 20 20 20 00 00 00 fd 00 37
4d 18 54 11 00 0a 20 20 20 20 20 20 00 00 00 ff
00 31 53 30 30 31 36 34 38 0a 20 20 20 20 00 ab

00 ff ff ff ff ff ff 00 4d 10 a3 21 01 01 01 01
21 15 01 03 0e 29 1a 78 ea ee d5 a5 55 48 9b 26
12 50 54 bf ee 80 8b c0 71 4f 61 46 01 01 01 01
01 01 01 01 01 01 9a 29 a0 d0 51 84 22 30 50 98
36 00 98 ff 10 00 00 1c 00 00 00 fc 00 4c 4c 2d
57 31 39 31 2d 57 0a 20 20 20 00 00 00 fd 00 37
4d 18 54 11 00 0a 20 20 20 20 20 20 00 00 00 ff
00 31 53 30 30 31 36 34 38 0a 20 20 20 20 00 ab

----------------

Block 0, Base EDID:
  EDID Structure Version & Revision: 1.3
  Vendor & Product Identification:
    Manufacturer: SHP
    Model: 8611
    Serial Number: ...
    Made in: week 33 of 2011
  Basic Display Parameters & Features:
    Analog display
    Signal Level Standard: 0.700 : 0.300 : 1.000 V p-p
    Blank level equals black level
    Sync: Separate Composite SyncOnGreen
    Maximum image size: 41 cm x 26 cm
    Gamma: 2.20
    DPMS levels: Standby Suspend Off
    RGB color display
    First detailed timing is the preferred timing
  Color Characteristics:
    Red  : 0.6474, 0.3339
    Green: 0.2841, 0.6074
    Blue : 0.1513, 0.0712
    White: 0.3134, 0.3291
  Established Timings I & II:
    IBM     :   720x400    70.081663 Hz   9:5     31.467 kHz     28.320000 MHz
    DMT 0x04:   640x480    59.940476 Hz   4:3     31.469 kHz     25.175000 MHz
    Apple   :   640x480    66.666667 Hz   4:3     35.000 kHz     30.240000 MHz
    DMT 0x05:   640x480    72.808802 Hz   4:3     37.861 kHz     31.500000 MHz
    DMT 0x06:   640x480    75.000000 Hz   4:3     37.500 kHz     31.500000 MHz
    DMT 0x08:   800x600    56.250000 Hz   4:3     35.156 kHz     36.000000 MHz
    DMT 0x09:   800x600    60.316541 Hz   4:3     37.879 kHz     40.000000 MHz
    DMT 0x0a:   800x600    72.187572 Hz   4:3     48.077 kHz     50.000000 MHz
    DMT 0x0b:   800x600    75.000000 Hz   4:3     46.875 kHz     49.500000 MHz
    Apple   :   832x624    74.551266 Hz   4:3     49.726 kHz     57.284000 MHz
    DMT 0x10:  1024x768    60.003840 Hz   4:3     48.363 kHz     65.000000 MHz
    DMT 0x11:  1024x768    70.069359 Hz   4:3     56.476 kHz     75.000000 MHz
    DMT 0x12:  1024x768    75.028582 Hz   4:3     60.023 kHz     78.750000 MHz
    Apple   :  1152x870    75.061550 Hz 192:145   68.681 kHz    100.000000 MHz
  Standard Timings:
    GTF     :  1360x765    60.000341 Hz  16:9     47.520 kHz     84.396000 MHz
    DMT 0x15:  1152x864    75.000000 Hz   4:3     67.500 kHz    108.000000 MHz
    GTF     :  1024x768    65.999558 Hz   4:3     52.668 kHz     71.628000 MHz
  Detailed Timing Descriptors:
    DTD 1:  1440x900    59.887445 Hz  16:10    55.935 kHz    106.500000 MHz (408 mm x 255 mm)
                 Hfront   80 Hsync 152 Hback  232 Hpol N
                 Vfront    3 Vsync   6 Vback   25 Vpol P
    Display Product Name: 'LL-W191-W'
    Display Range Limits:
      Monitor ranges (GTF): 55-77 Hz V, 24-84 kHz H, max dotclock 170 MHz
    Display Product Serial Number: ...
Checksum: 0xab

----------------

Block 1, Unknown EDID Extension Block 0x00:
  00 ff ff ff ff ff ff 00 4d 10 a3 21 01 01 01 01 '........M..!....'
  21 15 01 03 0e 29 1a 78 ea ee d5 a5 55 48 9b 26 '!....).x....UH.&'
  12 50 54 bf ee 80 8b c0 71 4f 61 46 01 01 01 01 '.PT.....qOaF....'
  01 01 01 01 01 01 9a 29 a0 d0 51 84 22 30 50 98 '.......)..Q."0P.'
  36 00 98 ff 10 00 00 1c 00 00 00 fc 00 4c 4c 2d '6............LL-'
  57 31 39 31 2d 57 0a 20 20 20 00 00 00 fd 00 37 'W191-W.   .....7'
  4d 18 54 11 00 0a 20 20 20 20 20 20 00 00 00 ff 'M.T...      ....'
  00 31 53 30 30 31 36 34 38 0a 20 20 20 20 00 ab '.1S001648.    ..'
Checksum: 0xab

----------------

Warnings:

Block 0, Base EDID:
  Standard Timings: Standard Timing 1360x765 has a dubious odd vertical resolution.

Failures:

Block 1, Base EDID:
  Unknown Extension Block.
EDID:
  Base EDID: EDID specified 0 extension block(s), but found 1 extension block(s).

EDID conformity: FAIL
