
EDID (hex):
00ffffffffffff00410c75d001010101
001301031c4627782eeebda354479926
0c474a2dcc0081c09500b30081800101
010101010101f51e008051001e304080
3700ba8821000018662150b051001b30
40703600ba882100001c000000fc0050
4849333250464c353430340a000000fd
00384c1e530f000a2020202020200068

Extracted contents:
header:          00 ff ff ff ff ff ff 00
serial number:   41 0c 75 d0 01 01 01 01 00 13
version:         01 03
basic params:    1c 46 27 78 2e
chroma info:     ee bd a3 54 47 99 26 0c 47 4a
established:     2d cc 00
standard:        81 c0 95 00 b3 00 81 80 01 01 01 01 01 01 01 01
descriptor 1:    f5 1e 00 80 51 00 1e 30 40 80 37 00 ba 88 21 00 00 18
descriptor 2:    66 21 50 b0 51 00 1b 30 40 70 36 00 ba 88 21 00 00 1c
descriptor 3:    00 00 00 fc 00 50 48 49 33 32 50 46 4c 35 34 30 34 0a
descriptor 4:    00 00 00 fd 00 38 4c 1e 53 0f 00 0a 20 20 20 20 20 20
extensions:      00
checksum:        68

EDID version: 1.3
Manufacturer: PHL Model d075 Serial Number --
Made in year 2009
Analog display, Input voltage level: 0.7/0.3 V
Configurable signal levels
Sync: Separate Composite 
Maximum image size: 70 cm x 39 cm
Gamma: 2.20
DPMS levels: Off
RGB color display
Default (sRGB) color space is primary color space
First detailed timing is preferred timing
Display x,y Chromaticity:
  Red:   0.6396, 0.3300
  Green: 0.2802, 0.5996
  Blue:  0.1503, 0.0498
  White: 0.2802, 0.2900
Established timings supported:
  640x480@60Hz 4:3 HorFreq: 31469 Hz Clock: 25.175 MHz
  640x480@72Hz 4:3 HorFreq: 37900 Hz Clock: 31.500 MHz
  640x480@75Hz 4:3 HorFreq: 37500 Hz Clock: 31.500 MHz
  800x600@60Hz 4:3 HorFreq: 37900 Hz Clock: 40.000 MHz
  800x600@72Hz 4:3 HorFreq: 48100 Hz Clock: 50.000 MHz
  800x600@75Hz 4:3 HorFreq: 46900 Hz Clock: 49.500 MHz
  1024x768@60Hz 4:3 HorFreq: 48400 Hz Clock: 65.000 MHz
  1024x768@70Hz 4:3 HorFreq: 56500 Hz Clock: 75.000 MHz
Standard timings supported:
  1280x720@60Hz 16:9
  1440x900@60Hz 16:10 HorFreq: 55500 Hz Clock: 88.750 MHz
  1680x1050@60Hz 16:10 HorFreq: 64700 Hz Clock: 119.000 MHz
  1280x1024@60Hz 5:4 HorFreq: 64000 Hz Clock: 108.000 MHz
Detailed mode: Clock 79.250 MHz, 698 mm x 392 mm
               1280 1344 1472 1664 hborder 0
                768  771  778  798 vborder 0
               -hsync -vsync 
               VertFreq: 59 Hz, HorFreq: 47626 Hz
Detailed mode: Clock 85.500 MHz, 698 mm x 392 mm
               1360 1424 1536 1792 hborder 0
                768  771  777  795 vborder 0
               -hsync +vsync 
               VertFreq: 60 Hz, HorFreq: 47712 Hz
Monitor name: PHI32PFL5404
Monitor ranges (GTF): 56-76Hz V, 30-83kHz H, max dotclock 150MHz
Checksum: 0x68 (valid)
EDID block does NOT conform to EDID 1.3!
	sRGB is signaled, but the chromaticities do not match
