
EDID (hex):
00ffffffffffff0006af9b3200000000
001d0104b5261578029125a45435b626
0e505400000001010101010101010101
01010101010166d000a0f0703e803020
35007dd6100000180000000f00000000
00000000000000000020000000fe0041
554f0a202020202020202020000000fe
00423137335a414e30332e32200a0195
02030f00e3058000e60605016b6b2300
00000000000000000000000000000000
00000000000000000000000000000000
00000000000000000000000000000000
00000000000000000000000000000000
00000000000000000000000000000000
00000000000000000000000000000000
00000000000000000000000000000099

Extracted contents:
header:          00 ff ff ff ff ff ff 00
serial number:   06 af 9b 32 00 00 00 00 00 1d
version:         01 04
basic params:    b5 26 15 78 02
chroma info:     91 25 a4 54 35 b6 26 0e 50 54
established:     00 00 00
standard:        01 01 01 01 01 01 01 01 01 01 01 01 01 01 01 01
descriptor 1:    66 d0 00 a0 f0 70 3e 80 30 20 35 00 7d d6 10 00 00 18
descriptor 2:    00 00 00 0f 00 00 00 00 00 00 00 00 00 00 00 00 00 20
descriptor 3:    00 00 00 fe 00 41 55 4f 0a 20 20 20 20 20 20 20 20 20
descriptor 4:    00 00 00 fe 00 42 31 37 33 5a 41 4e 30 33 2e 32 20 0a
extensions:      01
checksum:        95

EDID version: 1.4
Manufacturer: AUO Model 329b Serial Number --
Made in year 2019
Digital display
10 bits per primary color channel
DisplayPort interface
Maximum image size: 38 cm x 21 cm
Gamma: 2.20
Supported color formats: RGB 4:4:4
First detailed timing includes the native pixel format and preferred refresh rate
Display x,y Chromaticity:
  Red:   0.6425, 0.3291
  Green: 0.2070, 0.7119
  Blue:  0.1484, 0.0566
  White: 0.3134, 0.3291
Established timings supported:
Standard timings supported:
Detailed mode: Clock 533.500 MHz, 381 mm x 214 mm
               3840 3888 3920 4000 hborder 0
               2160 2163 2168 2222 vborder 0
               -hsync -vsync 
               VertFreq: 60 Hz, HorFreq: 133375 Hz
Manufacturer-specified data, tag 15
ASCII string: AUO
ASCII string: B173ZAN03.2 
Has 1 extension blocks
Checksum: 0x95 (valid)

CTA extension block
Extension version: 3
11 bytes of CTA data
  Extended tag: Colorimetry data block
    BT2020RGB
  Extended tag: HDR static metadata data block
    Electro optical transfer functions:
      Traditional gamma - SDR luminance range
      SMPTE ST2084
    Supported static metadata descriptors:
      Static metadata type 1
    Desired content max luminance: 107 (507.620 cd/m^2)
    Desired content max frame-average luminance: 107 (507.620 cd/m^2)
    Desired content min luminance: 35 (0.096 cd/m^2)
0 native detailed modes
Checksum: 0x99 (valid)

EDID block does NOT conform to EDID 1.4!
	Required 640x480p60 timings are missing in the established timings
	and/or in the SVD list (VIC 1)
	Missing name descriptor
	Missing monitor ranges
