
EDID (hex):
00ffffffffffff001ab3af0701010101
25120103682f1e782a9285a75538ab26
0f5054a54b00818081c08100810f9500
950fa940010121399030621a274068b0
3600da281100001c7c2e90a0601a1e40
30203600da281100001a000000fc004c
584c2033323230570a202020000000ff
00594538513030343333300a202000aa

Extracted contents:
header:          00 ff ff ff ff ff ff 00
serial number:   1a b3 af 07 01 01 01 01 25 12
version:         01 03
basic params:    68 2f 1e 78 2a
chroma info:     92 85 a7 55 38 ab 26 0f 50 54
established:     a5 4b 00
standard:        81 80 81 c0 81 00 81 0f 95 00 95 0f a9 40 01 01
descriptor 1:    21 39 90 30 62 1a 27 40 68 b0 36 00 da 28 11 00 00 1c
descriptor 2:    7c 2e 90 a0 60 1a 1e 40 30 20 36 00 da 28 11 00 00 1a
descriptor 3:    00 00 00 fc 00 4c 58 4c 20 33 32 32 30 57 0a 20 20 20
descriptor 4:    00 00 00 ff 00 59 45 38 51 30 30 34 33 33 30 0a 20 20
extensions:      00
checksum:        aa

EDID version: 1.3
Manufacturer: FUS Model 7af Serial Number --
Made in week 37 of 2008
Analog display, Input voltage level: 0.7/0.7 V
Sync: Separate 
Maximum image size: 47 cm x 30 cm
Gamma: 2.20
DPMS levels: Off
RGB color display
First detailed timing is preferred timing
Display x,y Chromaticity:
  Red:   0.6542, 0.3330
  Green: 0.2187, 0.6699
  Blue:  0.1503, 0.0585
  White: 0.3134, 0.3291
Established timings supported:
  720x400@70Hz 9:5 HorFreq: 31469 Hz Clock: 28.320 MHz
  640x480@60Hz 4:3 HorFreq: 31469 Hz Clock: 25.175 MHz
  640x480@75Hz 4:3 HorFreq: 37500 Hz Clock: 31.500 MHz
  800x600@60Hz 4:3 HorFreq: 37900 Hz Clock: 40.000 MHz
  800x600@75Hz 4:3 HorFreq: 46900 Hz Clock: 49.500 MHz
  1024x768@60Hz 4:3 HorFreq: 48400 Hz Clock: 65.000 MHz
  1024x768@75Hz 4:3 HorFreq: 60000 Hz Clock: 78.750 MHz
  1280x1024@75Hz 5:4 HorFreq: 80000 Hz Clock: 135.000 MHz
Standard timings supported:
  1280x1024@60Hz 5:4 HorFreq: 64000 Hz Clock: 108.000 MHz
  1280x720@60Hz 16:9
  1280x800@60Hz 16:10
  1280x800@75Hz 16:10
  1440x900@60Hz 16:10 HorFreq: 55500 Hz Clock: 88.750 MHz
  1440x900@75Hz 16:10 HorFreq: 82300 Hz Clock: 156.000 MHz
  1600x1200@60Hz 4:3 HorFreq: 75000 Hz Clock: 162.000 MHz
Detailed mode: Clock 146.250 MHz, 474 mm x 296 mm
               1680 1784 1960 2240 hborder 0
               1050 1053 1059 1089 vborder 0
               -hsync +vsync 
               VertFreq: 59 Hz, HorFreq: 65290 Hz
Detailed mode: Clock 119.000 MHz, 474 mm x 296 mm
               1680 1728 1760 1840 hborder 0
               1050 1053 1059 1080 vborder 0
               +hsync -vsync 
               VertFreq: 59 Hz, HorFreq: 64673 Hz
Monitor name: LXL 3220W
Serial number: --
Checksum: 0xaa (valid)
EDID block does NOT conform to EDID 1.3!
	Missing monitor ranges
