edid-decode (hex):

00 ff ff ff ff ff ff 00 41 0c 37 15 c7 33 00 00
33 10 01 03 68 1e 17 b6 2a e4 de 9e 54 4a 97 23
1c 4c 54 bf ee 00 61 40 61 4a 61 4f 45 40 45 4f
31 40 31 4f 01 01 64 19 00 40 41 00 26 30 18 88
36 00 30 e4 10 00 00 18 00 00 00 ff 00 55 31 41
30 36 35 31 30 31 33 32 35 35 00 00 00 fc 00 31
35 4d 46 34 30 30 54 2f 33 37 0a 20 00 00 00 fd
00 38 4b 1f 3c 08 00 0a 20 20 20 20 20 20 00 11

00 ff ff ff ff ff ff 00 41 0c 37 15 c7 33 00 00
33 10 01 03 68 1e 17 b6 2a e4 de 9e 54 4a 97 23
1c 4c 54 bf ee 00 61 40 61 4a 61 4f 45 40 45 4f
31 40 31 4f 01 01 64 19 00 40 41 00 26 30 18 88
36 00 30 e4 10 00 00 18 00 00 00 ff 00 55 31 41
30 36 35 31 30 31 33 32 35 35 00 00 00 fc 00 31
35 4d 46 34 30 30 54 2f 33 37 0a 20 00 00 00 fd
00 38 4b 1f 3c 08 00 0a 20 20 20 20 20 20 00 11

----------------

Block 0, Base EDID:
  EDID Structure Version & Revision: 1.3
  Vendor & Product Identification:
    Manufacturer: PHL
    Model: 5431
    Serial Number: ...
    Made in: week 51 of 2006
  Basic Display Parameters & Features:
    Analog display
    Signal Level Standard: 0.700 : 0.000 : 0.700 V p-p
    Blank level equals black level
    Sync: Separate
    Maximum image size: 30 cm x 23 cm
    Gamma: 2.82
    DPMS levels: Off
    RGB color display
    First detailed timing is the preferred timing
  Color Characteristics:
    Red  : 0.6201, 0.3300
    Green: 0.2900, 0.5898
    Blue : 0.1396, 0.1103
    White: 0.2998, 0.3300
  Established Timings I & II:
    IBM     :   720x400    70.081663 Hz   9:5     31.467 kHz     28.320000 MHz
    DMT 0x04:   640x480    59.940476 Hz   4:3     31.469 kHz     25.175000 MHz
    Apple   :   640x480    66.666667 Hz   4:3     35.000 kHz     30.240000 MHz
    DMT 0x05:   640x480    72.808802 Hz   4:3     37.861 kHz     31.500000 MHz
    DMT 0x06:   640x480    75.000000 Hz   4:3     37.500 kHz     31.500000 MHz
    DMT 0x08:   800x600    56.250000 Hz   4:3     35.156 kHz     36.000000 MHz
    DMT 0x09:   800x600    60.316541 Hz   4:3     37.879 kHz     40.000000 MHz
    DMT 0x0a:   800x600    72.187572 Hz   4:3     48.077 kHz     50.000000 MHz
    DMT 0x0b:   800x600    75.000000 Hz   4:3     46.875 kHz     49.500000 MHz
    Apple   :   832x624    74.551266 Hz   4:3     49.726 kHz     57.284000 MHz
    DMT 0x10:  1024x768    60.003840 Hz   4:3     48.363 kHz     65.000000 MHz
    DMT 0x11:  1024x768    70.069359 Hz   4:3     56.476 kHz     75.000000 MHz
    DMT 0x12:  1024x768    75.028582 Hz   4:3     60.023 kHz     78.750000 MHz
  Standard Timings:
    DMT 0x10:  1024x768    60.003840 Hz   4:3     48.363 kHz     65.000000 MHz
    GTF     :  1024x768    70.000000 Hz   4:3     56.000 kHz     76.160000 MHz
    DMT 0x12:  1024x768    75.028582 Hz   4:3     60.023 kHz     78.750000 MHz
    DMT 0x09:   800x600    60.316541 Hz   4:3     37.879 kHz     40.000000 MHz
    DMT 0x0b:   800x600    75.000000 Hz   4:3     46.875 kHz     49.500000 MHz
    DMT 0x04:   640x480    59.940476 Hz   4:3     31.469 kHz     25.175000 MHz
    DMT 0x06:   640x480    75.000000 Hz   4:3     37.500 kHz     31.500000 MHz
  Detailed Timing Descriptors:
    DTD 1:  1024x768    60.003840 Hz   4:3     48.363 kHz     65.000000 MHz (304 mm x 228 mm)
                 Hfront   24 Hsync 136 Hback  160 Hpol N
                 Vfront    3 Vsync   6 Vback   29 Vpol N
    Display Product Serial Number: ...
    Display Product Name: '15MF400T/37'
    Display Range Limits:
      Monitor ranges (GTF): 56-75 Hz V, 31-60 kHz H, max dotclock 80 MHz
Checksum: 0x11

----------------

Block 1, Unknown EDID Extension Block 0x00:
  00 ff ff ff ff ff ff 00 41 0c 37 15 c7 33 00 00 '........A.7..3..'
  33 10 01 03 68 1e 17 b6 2a e4 de 9e 54 4a 97 23 '3...h...*...TJ.#'
  1c 4c 54 bf ee 00 61 40 61 4a 61 4f 45 40 45 4f '.LT...a@aJaOE@EO'
  31 40 31 4f 01 01 64 19 00 40 41 00 26 30 18 88 '1@1O..d..@A.&0..'
  36 00 30 e4 10 00 00 18 00 00 00 ff 00 55 31 41 '6.0..........U1A'
  30 36 35 31 30 31 33 32 35 35 00 00 00 fc 00 31 '0651013255.....1'
  35 4d 46 34 30 30 54 2f 33 37 0a 20 00 00 00 fd '5MF400T/37. ....'
  00 38 4b 1f 3c 08 00 0a 20 20 20 20 20 20 00 11 '.8K.<...      ..'
Checksum: 0x11

----------------

Failures:

Block 1, Base EDID:
  Unknown Extension Block.
EDID:
  Base EDID: EDID specified 0 extension block(s), but found 1 extension block(s).

EDID conformity: FAIL
