edid-decode (hex):

00 ff ff ff ff ff ff 00 5d f2 20 02 01 01 01 01
2c 12 01 03 68 30 1e 78 2a 04 05 a5 56 47 9e 25
15 50 54 bf ef 80 81 80 71 4f 81 40 b3 00 95 00
01 01 01 01 01 01 21 39 90 30 62 1a 27 40 68 b0
36 00 d1 23 11 00 00 1c 00 00 00 ff 00 37 38 34
34 54 45 30 30 31 35 34 39 0a 00 00 00 fd 00 37
4c 1d 51 0f 00 0a 20 20 20 20 20 20 00 00 00 fc
00 4d 41 47 49 43 20 4c 43 44 32 32 30 0a 00 65

00 ff ff ff ff ff ff 00 5d f2 20 02 01 01 01 01
2c 12 01 03 68 30 1e 78 2a 04 05 a5 56 47 9e 25
15 50 54 bf ef 80 81 80 71 4f 81 40 b3 00 95 00
01 01 01 01 01 01 21 39 90 30 62 1a 27 40 68 b0
36 00 d1 23 11 00 00 1c 00 00 00 ff 00 37 38 34
34 54 45 30 30 31 35 34 39 0a 00 00 00 fd 00 37
4c 1d 51 0f 00 0a 20 20 20 20 20 20 00 00 00 fc
00 4d 41 47 49 43 20 4c 43 44 32 32 30 0a 00 65

----------------

Block 0, Base EDID:
  EDID Structure Version & Revision: 1.3
  Vendor & Product Identification:
    Manufacturer: WOR
    Model: 544
    Serial Number: ...
    Made in: week 44 of 2008
  Basic Display Parameters & Features:
    Analog display
    Signal Level Standard: 0.700 : 0.000 : 0.700 V p-p
    Blank level equals black level
    Sync: Separate
    Maximum image size: 48 cm x 30 cm
    Gamma: 2.20
    DPMS levels: Off
    RGB color display
    First detailed timing is the preferred timing
  Color Characteristics:
    Red  : 0.6445, 0.3359
    Green: 0.2783, 0.6171
    Blue : 0.1445, 0.0820
    White: 0.3134, 0.3291
  Established Timings I & II:
    IBM     :   720x400    70.081663 Hz   9:5     31.467 kHz     28.320000 MHz
    DMT 0x04:   640x480    59.940476 Hz   4:3     31.469 kHz     25.175000 MHz
    Apple   :   640x480    66.666667 Hz   4:3     35.000 kHz     30.240000 MHz
    DMT 0x05:   640x480    72.808802 Hz   4:3     37.861 kHz     31.500000 MHz
    DMT 0x06:   640x480    75.000000 Hz   4:3     37.500 kHz     31.500000 MHz
    DMT 0x08:   800x600    56.250000 Hz   4:3     35.156 kHz     36.000000 MHz
    DMT 0x09:   800x600    60.316541 Hz   4:3     37.879 kHz     40.000000 MHz
    DMT 0x0a:   800x600    72.187572 Hz   4:3     48.077 kHz     50.000000 MHz
    DMT 0x0b:   800x600    75.000000 Hz   4:3     46.875 kHz     49.500000 MHz
    Apple   :   832x624    74.551266 Hz   4:3     49.726 kHz     57.284000 MHz
    DMT 0x10:  1024x768    60.003840 Hz   4:3     48.363 kHz     65.000000 MHz
    DMT 0x11:  1024x768    70.069359 Hz   4:3     56.476 kHz     75.000000 MHz
    DMT 0x12:  1024x768    75.028582 Hz   4:3     60.023 kHz     78.750000 MHz
    DMT 0x24:  1280x1024   75.024675 Hz   5:4     79.976 kHz    135.000000 MHz
    Apple   :  1152x870    75.061550 Hz 192:145   68.681 kHz    100.000000 MHz
  Standard Timings:
    DMT 0x23:  1280x1024   60.019740 Hz   5:4     63.981 kHz    108.000000 MHz
    DMT 0x15:  1152x864    75.000000 Hz   4:3     67.500 kHz    108.000000 MHz
    DMT 0x20:  1280x960    60.000000 Hz   4:3     60.000 kHz    108.000000 MHz
    DMT 0x3a:  1680x1050   59.954250 Hz  16:10    65.290 kHz    146.250000 MHz
    DMT 0x2f:  1440x900    59.887445 Hz  16:10    55.935 kHz    106.500000 MHz
  Detailed Timing Descriptors:
    DTD 1:  1680x1050   59.954250 Hz  16:10    65.290 kHz    146.250000 MHz (465 mm x 291 mm)
                 Hfront  104 Hsync 176 Hback  280 Hpol N
                 Vfront    3 Vsync   6 Vback   30 Vpol P
    Display Product Serial Number: ...
    Display Range Limits:
      Monitor ranges (GTF): 55-76 Hz V, 29-81 kHz H, max dotclock 150 MHz
    Display Product Name: 'MAGIC LCD220'
Checksum: 0x65

----------------

Block 1, Unknown EDID Extension Block 0x00:
  00 ff ff ff ff ff ff 00 5d f2 20 02 01 01 01 01 '........]. .....'
  2c 12 01 03 68 30 1e 78 2a 04 05 a5 56 47 9e 25 ',...h0.x*...VG.%'
  15 50 54 bf ef 80 81 80 71 4f 81 40 b3 00 95 00 '.PT.....qO.@....'
  01 01 01 01 01 01 21 39 90 30 62 1a 27 40 68 b0 '......!9.0b.'@h.'
  36 00 d1 23 11 00 00 1c 00 00 00 ff 00 37 38 34 '6..#.........784'
  34 54 45 30 30 31 35 34 39 0a 00 00 00 fd 00 37 '4TE001549......7'
  4c 1d 51 0f 00 0a 20 20 20 20 20 20 00 00 00 fc 'L.Q...      ....'
  00 4d 41 47 49 43 20 4c 43 44 32 32 30 0a 00 65 '.MAGIC LCD220..e'
Checksum: 0x65

----------------

Failures:

Block 1, Base EDID:
  Unknown Extension Block.
EDID:
  Base EDID: EDID specified 0 extension block(s), but found 1 extension block(s).

EDID conformity: FAIL
