
EDID (hex):
00ffffffffffff005df2052170030000
28150104a5000078e28042ac5130b425
10505300000001010101010101010101
0101010101011a3680a070381f403020
350007442100001a152d80a070381f40
3020350007442100001a000000fd0038
4c1e5311000a202020202020000000fc
0032312e35222041494f2050430a00f5

Extracted contents:
header:          00 ff ff ff ff ff ff 00
serial number:   5d f2 05 21 70 03 00 00 28 15
version:         01 04
basic params:    a5 00 00 78 e2
chroma info:     80 42 ac 51 30 b4 25 10 50 53
established:     00 00 00
standard:        01 01 01 01 01 01 01 01 01 01 01 01 01 01 01 01
descriptor 1:    1a 36 80 a0 70 38 1f 40 30 20 35 00 07 44 21 00 00 1a
descriptor 2:    15 2d 80 a0 70 38 1f 40 30 20 35 00 07 44 21 00 00 1a
descriptor 3:    00 00 00 fd 00 38 4c 1e 53 11 00 0a 20 20 20 20 20 20
descriptor 4:    00 00 00 fc 00 32 31 2e 35 22 20 41 49 4f 20 50 43 0a
extensions:      00
checksum:        f5

EDID version: 1.4
Manufacturer: WOR Model 2105 Serial Number --
Made in week 40 of 2011
Digital display
8 bits per primary color channel
DisplayPort interface
Image size is variable
Gamma: 2.20
DPMS levels: Standby Suspend Off
Supported color formats: RGB 4:4:4
First detailed timing includes the native pixel format and preferred refresh rate
Display x,y Chromaticity:
  Red:   0.6738, 0.3164
  Green: 0.1875, 0.7031
  Blue:  0.1455, 0.0625
  White: 0.3125, 0.3261
Established timings supported:
Standard timings supported:
Detailed mode: Clock 138.500 MHz, 519 mm x 324 mm
               1920 1968 2000 2080 hborder 0
               1080 1083 1088 1111 vborder 0
               +hsync -vsync 
               VertFreq: 59 Hz, HorFreq: 66586 Hz
Detailed mode: Clock 115.410 MHz, 519 mm x 324 mm
               1920 1968 2000 2080 hborder 0
               1080 1083 1088 1111 vborder 0
               +hsync -vsync 
               VertFreq: 49 Hz, HorFreq: 55485 Hz
Monitor ranges (GTF): 56-76Hz V, 30-83kHz H, max dotclock 170MHz
Monitor name: 21.5" AIO PC
Checksum: 0xf5 (valid)
Warning: One or more of the timings is out of range of the Monitor Ranges:
  Vertical Freq: 49 - 59 Hz
  Horizontal Freq: 55485 - 66586 Hz
  Maximum Clock: 138.500 MHz
