
EDID (hex):
00ffffffffffff0038a3e46701010101
2715010380331d78ea4065a3564c9e25
11505420000001c101c101c101c101c1
01c101c101c1f339801871382d40582c
4500fe1f1100001e011d00bc52d01e20
b8285540fe1f1100001e000000fd0031
3d1b460f000a202020202020000000fc
005041323331570a2020202020200104
020104008c0ad08a20e02d10103e9600
fe1f110000188c0ad090204031200c40
5500fe1f11000018f91c007251d01e20
6e285500fe1f1100001e023a80d07238
2d40102c4580fe1f1100001e00000000
00000000000000000000000000000000
00000000000000000000000000000000
00000000000000000000000000000007

Extracted contents:
header:          00 ff ff ff ff ff ff 00
serial number:   38 a3 e4 67 01 01 01 01 27 15
version:         01 03
basic params:    80 33 1d 78 ea
chroma info:     40 65 a3 56 4c 9e 25 11 50 54
established:     20 00 00
standard:        01 c1 01 c1 01 c1 01 c1 01 c1 01 c1 01 c1 01 c1
descriptor 1:    f3 39 80 18 71 38 2d 40 58 2c 45 00 fe 1f 11 00 00 1e
descriptor 2:    01 1d 00 bc 52 d0 1e 20 b8 28 55 40 fe 1f 11 00 00 1e
descriptor 3:    00 00 00 fd 00 31 3d 1b 46 0f 00 0a 20 20 20 20 20 20
descriptor 4:    00 00 00 fc 00 50 41 32 33 31 57 0a 20 20 20 20 20 20
extensions:      01
checksum:        04

EDID version: 1.3
Manufacturer: NEC Model 67e4 Serial Number --
Made in week 39 of 2011
Digital display
Maximum image size: 51 cm x 29 cm
Gamma: 2.20
DPMS levels: Standby Suspend Off
RGB color display
First detailed timing is preferred timing
Display x,y Chromaticity:
  Red:   0.6376, 0.3359
  Green: 0.2968, 0.6171
  Blue:  0.1455, 0.0683
  White: 0.3134, 0.3291
Established timings supported:
  640x480@60Hz 4:3 HorFreq: 31469 Hz Clock: 25.175 MHz
Standard timings supported:
  256x144@61Hz 16:9
  256x144@61Hz 16:9
  256x144@61Hz 16:9
  256x144@61Hz 16:9
  256x144@61Hz 16:9
  256x144@61Hz 16:9
  256x144@61Hz 16:9
  256x144@61Hz 16:9
Detailed mode: Clock 148.350 MHz, 510 mm x 287 mm
               1920 2008 2052 2200 hborder 0
               1080 1084 1089 1125 vborder 0
               +hsync +vsync 
               VertFreq: 59 Hz, HorFreq: 67431 Hz
Detailed mode: Clock 74.250 MHz, 510 mm x 287 mm
               1280 1720 1760 1980 hborder 0
                720  725  730  750 vborder 0
               +hsync +vsync 
               VertFreq: 50 Hz, HorFreq: 37500 Hz
Monitor ranges (GTF): 49-61Hz V, 27-70kHz H, max dotclock 150MHz
Monitor name: PA231W
Has 1 extension blocks
Checksum: 0x4 (valid)

CTA extension block
Extension version: 1
0 8-byte timing descriptors
Detailed mode: Clock 27.000 MHz, 510 mm x 287 mm
                720  736  798  858 hborder 0
                480  489  495  525 vborder 0
               -hsync -vsync 
               VertFreq: 59 Hz, HorFreq: 31468 Hz
Detailed mode: Clock 27.000 MHz, 510 mm x 287 mm
                720  732  796  864 hborder 0
                576  581  586  625 vborder 0
               -hsync -vsync 
               VertFreq: 50 Hz, HorFreq: 31250 Hz
Detailed mode: Clock 74.170 MHz, 510 mm x 287 mm
               1280 1390 1430 1650 hborder 0
                720  725  730  750 vborder 0
               +hsync +vsync 
               VertFreq: 59 Hz, HorFreq: 44951 Hz
Detailed mode: Clock 148.500 MHz, 510 mm x 287 mm
               1920 2448 2492 2640 hborder 0
               1080 1084 1089 1125 vborder 0
               +hsync +vsync 
               VertFreq: 50 Hz, HorFreq: 56250 Hz
Checksum: 0x7 (valid)
