
EDID (hex):
00ffffffffffff0058b3000000000000
011701031f2f1d78caba55a554499b26
135054afcf0001010101010101010101
0101010101016c3a80b0723843401058
4580803874000018302a009851002a40
3070130000005400001e0e1f00805100
1e304080370000005300001c000000fc
003332575f4c43445f54560a202000a6

Extracted contents:
header:          00 ff ff ff ff ff ff 00
serial number:   58 b3 00 00 00 00 00 00 01 17
version:         01 03
basic params:    1f 2f 1d 78 ca
chroma info:     ba 55 a5 54 49 9b 26 13 50 54
established:     af cf 00
standard:        01 01 01 01 01 01 01 01 01 01 01 01 01 01 01 01
descriptor 1:    6c 3a 80 b0 72 38 43 40 10 58 45 80 80 38 74 00 00 18
descriptor 2:    30 2a 00 98 51 00 2a 40 30 70 13 00 00 00 54 00 00 1e
descriptor 3:    0e 1f 00 80 51 00 1e 30 40 80 37 00 00 00 53 00 00 1c
descriptor 4:    00 00 00 fc 00 33 32 57 5f 4c 43 44 5f 54 56 0a 20 20
extensions:      00
checksum:        a6

EDID version: 1.3
Manufacturer: VES Model 0 Serial Number --
Made in week 1 of 2013
Analog display, Input voltage level: 0.7/0.3 V
Configurable signal levels
Sync: Separate Composite SyncOnGreen Serration 
Maximum image size: 47 cm x 29 cm
Gamma: 2.20
DPMS levels: Standby Suspend
RGB color display
First detailed timing is preferred timing
Display x,y Chromaticity:
  Red:   0.6464, 0.3310
  Green: 0.2871, 0.6074
  Blue:  0.1494, 0.0751
  White: 0.3134, 0.3291
Established timings supported:
  720x400@70Hz 9:5 HorFreq: 31469 Hz Clock: 28.320 MHz
  640x480@60Hz 4:3 HorFreq: 31469 Hz Clock: 25.175 MHz
  640x480@72Hz 4:3 HorFreq: 37900 Hz Clock: 31.500 MHz
  640x480@75Hz 4:3 HorFreq: 37500 Hz Clock: 31.500 MHz
  800x600@56Hz 4:3 HorFreq: 35200 Hz Clock: 36.000 MHz
  800x600@60Hz 4:3 HorFreq: 37900 Hz Clock: 40.000 MHz
  800x600@72Hz 4:3 HorFreq: 48100 Hz Clock: 50.000 MHz
  800x600@75Hz 4:3 HorFreq: 46900 Hz Clock: 49.500 MHz
  1024x768@60Hz 4:3 HorFreq: 48400 Hz Clock: 65.000 MHz
  1024x768@70Hz 4:3 HorFreq: 56500 Hz Clock: 75.000 MHz
  1024x768@75Hz 4:3 HorFreq: 60000 Hz Clock: 78.750 MHz
  1280x1024@75Hz 5:4 HorFreq: 80000 Hz Clock: 135.000 MHz
Standard timings supported:
Detailed mode: Clock 149.560 MHz, 1920 mm x 1080 mm
               1920 2448 2536 2608 hborder 0
               1080 1084 1089 1147 vborder 0
               -hsync -vsync 
               VertFreq: 49 Hz, HorFreq: 57346 Hz
Detailed mode: Clock 108.000 MHz, 1280 mm x 1024 mm
               1280 1328 1440 1688 hborder 0
               1024 1025 1028 1066 vborder 0
               +hsync +vsync 
               VertFreq: 60 Hz, HorFreq: 63981 Hz
Detailed mode: Clock 79.500 MHz, 1280 mm x 768 mm
               1280 1344 1472 1664 hborder 0
                768  771  778  798 vborder 0
               -hsync +vsync 
               VertFreq: 59 Hz, HorFreq: 47776 Hz
Monitor name: 32W_LCD_TV
Checksum: 0xa6 (valid)
EDID block does NOT conform to EDID 1.3!
	Missing monitor ranges
