
EDID (hex):
00ffffffffffff0009e5c90700000000
011c0104a51e117802fb90955d599429
23505400000001010101010101010101
010101010101393780de703814403020
360035ad1000001a2d2c80de70381440
3020360035ad1000001a000000fe0042
4f452043510a202020202020000000fe
004e5631343046484d2d4e34380a0078

Extracted contents:
header:          00 ff ff ff ff ff ff 00
serial number:   09 e5 c9 07 00 00 00 00 01 1c
version:         01 04
basic params:    a5 1e 11 78 02
chroma info:     fb 90 95 5d 59 94 29 23 50 54
established:     00 00 00
standard:        01 01 01 01 01 01 01 01 01 01 01 01 01 01 01 01
descriptor 1:    39 37 80 de 70 38 14 40 30 20 36 00 35 ad 10 00 00 1a
descriptor 2:    2d 2c 80 de 70 38 14 40 30 20 36 00 35 ad 10 00 00 1a
descriptor 3:    00 00 00 fe 00 42 4f 45 20 43 51 0a 20 20 20 20 20 20
descriptor 4:    00 00 00 fe 00 4e 56 31 34 30 46 48 4d 2d 4e 34 38 0a
extensions:      00
checksum:        78

EDID version: 1.4
Manufacturer: BOE Model 7c9 Serial Number --
Made in week 1 of 2018
Digital display
8 bits per primary color channel
DisplayPort interface
Maximum image size: 30 cm x 17 cm
Gamma: 2.20
Supported color formats: RGB 4:4:4
First detailed timing includes the native pixel format and preferred refresh rate
Display x,y Chromaticity:
  Red:   0.5849, 0.3662
  Green: 0.3496, 0.5810
  Blue:  0.1621, 0.1376
  White: 0.3125, 0.3281
Established timings supported:
Standard timings supported:
Detailed mode: Clock 141.370 MHz, 309 mm x 173 mm
               1920 1968 2000 2142 hborder 0
               1080 1083 1089 1100 vborder 0
               +hsync -vsync 
               VertFreq: 59 Hz, HorFreq: 65999 Hz
Detailed mode: Clock 113.090 MHz, 309 mm x 173 mm
               1920 1968 2000 2142 hborder 0
               1080 1083 1089 1100 vborder 0
               +hsync -vsync 
               VertFreq: 47 Hz, HorFreq: 52796 Hz
ASCII string: BOE CQ
ASCII string: NV140FHM-N48
Checksum: 0x78 (valid)
EDID block does NOT conform to EDID 1.4!
	Missing name descriptor
	Missing monitor ranges


