
EDID (hex):
00ffffffffffff004ca3414100000000
00120103802213780ac8959e57549226
0f505400000001010101010101010101
010101010101911d56e7500016303020
250058c1100000190000000f00000000
00000000001eb4027400000000fe0053
414d53554e470a2020202020000000fe
00313536415430322d4130310a200048

edid-decode (hex):

00 ff ff ff ff ff ff 00 4c a3 41 41 00 00 00 00
00 12 01 03 80 22 13 78 0a c8 95 9e 57 54 92 26
0f 50 54 00 00 00 01 01 01 01 01 01 01 01 01 01
01 01 01 01 01 01 91 1d 56 e7 50 00 16 30 30 20
25 00 58 c1 10 00 00 19 00 00 00 0f 00 00 00 00
00 00 00 00 00 1e b4 02 74 00 00 00 00 fe 00 53
41 4d 53 55 4e 47 0a 20 20 20 20 20 00 00 00 fe
00 31 35 36 41 54 30 32 2d 41 30 31 0a 20 00 48

----------------

Block 0, Base EDID:
  EDID Structure Version & Revision: 1.3
  Vendor & Product Identification:
    Manufacturer: SEC
    Model: 16705
    Made in: 2008
  Basic Display Parameters & Features:
    Digital display
    Maximum image size: 34 cm x 19 cm
    Gamma: 2.20
    RGB color display
    First detailed timing is the preferred timing
  Color Characteristics:
    Red  : 0.6201, 0.3398
    Green: 0.3300, 0.5703
    Blue : 0.1503, 0.0595
    White: 0.3134, 0.3291
  Established Timings I & II: none
  Standard Timings: none
  Detailed Timing Descriptors:
    DTD 1:  1366x768    59.993818 Hz 683:384   47.395 kHz     75.690000 MHz (344 mm x 193 mm)
                 Hfront   48 Hsync  32 Hback  151 Hpol N
                 Vfront    2 Vsync   5 Vback   15 Vpol N
    Manufacturer-Specified Display Descriptor (0x0f): 00 0f 00 00 00 00 00 00 00 00 00 1e b4 02 74 00 '..............t.'
    Alphanumeric Data String: 'SAMSUNG'
    Alphanumeric Data String: '156AT02-A01'
Checksum: 0x48
