
EDID (hex):
00ffffffffffff0009e5990a00000000
1e1f0104a5241678032605a8534d9825
0e505400000001010101010101010101
010101010101347000a0a040a0603020
35006ee51000001a000000fd0c3cf0a6
a673010a202020202020000000000000
000000000000000000000000000000fe
004e4531373051444d2d4e5a310a01e6
7013790000030114cdc00185ff099f00
2f001f003f069f000200040000000000
00000000000000000000000000000000
00000000000000000000000000000000
00000000000000000000000000000000
00000000000000000000000000000000
00000000000000000000000000000000
00000000000000000000000000006a90

edid-decode (hex):

00 ff ff ff ff ff ff 00 09 e5 99 0a 00 00 00 00
1e 1f 01 04 a5 24 16 78 03 26 05 a8 53 4d 98 25
0e 50 54 00 00 00 01 01 01 01 01 01 01 01 01 01
01 01 01 01 01 01 34 70 00 a0 a0 40 a0 60 30 20
35 00 6e e5 10 00 00 1a 00 00 00 fd 0c 3c f0 a6
a6 73 01 0a 20 20 20 20 20 20 00 00 00 00 00 00
00 00 00 00 00 00 00 00 00 00 00 00 00 00 00 fe
00 4e 45 31 37 30 51 44 4d 2d 4e 5a 31 0a 01 e6

70 13 79 00 00 03 01 14 cd c0 01 85 ff 09 9f 00
2f 00 1f 00 3f 06 9f 00 02 00 04 00 00 00 00 00
00 00 00 00 00 00 00 00 00 00 00 00 00 00 00 00
00 00 00 00 00 00 00 00 00 00 00 00 00 00 00 00
00 00 00 00 00 00 00 00 00 00 00 00 00 00 00 00
00 00 00 00 00 00 00 00 00 00 00 00 00 00 00 00
00 00 00 00 00 00 00 00 00 00 00 00 00 00 00 00
00 00 00 00 00 00 00 00 00 00 00 00 00 00 6a 90

----------------

Block 0, Base EDID:
  EDID Structure Version & Revision: 1.4
  Vendor & Product Identification:
    Manufacturer: BOE
    Model: 2713
    Made in: week 30 of 2021
  Basic Display Parameters & Features:
    Digital display
    Bits per primary color channel: 8
    DisplayPort interface
    Maximum image size: 36 cm x 22 cm
    Gamma: 2.20
    Supported color formats: RGB 4:4:4
    First detailed timing includes the native pixel format and preferred refresh rate
    Display is continuous frequency
  Color Characteristics:
    Red  : 0.6562, 0.3261
    Green: 0.3017, 0.5957
    Blue : 0.1445, 0.0546
    White: 0.3134, 0.3291
  Established Timings I & II: none
  Standard Timings: none
  Detailed Timing Descriptors:
    DTD 1:  2560x1600   60.001671 Hz  16:10   105.603 kHz    287.240000 MHz (366 mm x 229 mm)
                 Hfront   48 Hsync  32 Hback   80 Hpol P
                 Vfront    3 Vsync   5 Vback  152 Vpol N
    Display Range Limits:
      Monitor ranges (Bare Limits): 60-240 Hz V, 421-421 kHz H, max dotclock 1150 MHz
    Empty Descriptor
    Alphanumeric Data String: 'NE170QDM-NZ1'
  Extension blocks: 1
Checksum: 0xe6

----------------

Block 1, DisplayID Extension Block:
  Version: 1.3
  Extension Count: 0
  Display Product Type: Extension Section
  Video Timing Modes Type 1 - Detailed Timings Data Block:
    DTD:  2560x1600  240.002507 Hz  16:10   422.404 kHz   1148.940000 MHz (aspect 16:10, no 3D stereo, preferred)
               Hfront   48 Hsync  32 Hback   80 Hpol N
               Vfront    3 Vsync   5 Vback  152 Vpol N
  Checksum: 0x6a
Checksum: 0x90
