edid-decode (hex):

00 ff ff ff ff ff ff 00 36 74 50 21 01 00 00 00
12 13 01 03 68 30 1b 78 ca d6 a5 a2 59 4a 95 24
14 50 54 ad cf 00 81 80 01 01 01 01 01 01 01 01
01 01 01 01 01 01 7b 43 80 90 72 38 28 40 80 c8
35 00 70 cf 10 00 00 1c 21 39 90 30 62 1a 27 40
68 b0 36 00 55 00 11 00 00 1c 9a 29 a0 d0 51 84
22 30 50 98 36 00 54 ff 10 00 00 1c 00 00 00 fc
00 41 4e 41 4c 4f 47 0a 20 20 20 20 20 20 00 0c

----------------

Block 0, Base EDID:
  EDID Structure Version & Revision: 1.3
  Vendor & Product Identification:
    Manufacturer: MST
    Model: 8528
    Serial Number: ...
    Made in: week 18 of 2009
  Basic Display Parameters & Features:
    Analog display
    Input voltage level: 0.7/0.7 V
    Blank level equals black level
    Sync: Separate
    Maximum image size: 48 cm x 27 cm
    Gamma: 2.20
    DPMS levels: Standby Suspend
    RGB color display
    First detailed timing is the preferred timing
  Color Characteristics:
    Red  : 0.6357, 0.3486
    Green: 0.2900, 0.5839
    Blue : 0.1425, 0.0800
    White: 0.3134, 0.3291
  Established Timings I & II:
    IBM     :   720x400    70.082 Hz   9:5    31.467 kHz  28.320 MHz
    DMT 0x04:   640x480    59.940 Hz   4:3    31.469 kHz  25.175 MHz
    DMT 0x05:   640x480    72.809 Hz   4:3    37.861 kHz  31.500 MHz
    DMT 0x06:   640x480    75.000 Hz   4:3    37.500 kHz  31.500 MHz
    DMT 0x09:   800x600    60.317 Hz   4:3    37.879 kHz  40.000 MHz
    DMT 0x0a:   800x600    72.188 Hz   4:3    48.077 kHz  50.000 MHz
    DMT 0x0b:   800x600    75.000 Hz   4:3    46.875 kHz  49.500 MHz
    DMT 0x10:  1024x768    60.004 Hz   4:3    48.363 kHz  65.000 MHz
    DMT 0x11:  1024x768    70.069 Hz   4:3    56.476 kHz  75.000 MHz
    DMT 0x12:  1024x768    75.029 Hz   4:3    60.023 kHz  78.750 MHz
    DMT 0x24:  1280x1024   75.025 Hz   5:4    79.976 kHz 135.000 MHz
  Standard Timings:
    DMT 0x23:  1280x1024   60.020 Hz   5:4    63.981 kHz 108.000 MHz
  Detailed Timing Descriptors:
    DTD 1:  1920x1080   59.876 Hz  16:9    67.061 kHz 172.750 MHz (368 mm x 207 mm)
                 Hfront  128 Hsync 200 Hback 328 Hpol N
                 Vfront    3 Vsync   5 Vback  32 Vpol P
    DTD 2:  1680x1050   59.954 Hz   8:5    65.290 kHz 146.250 MHz (341 mm x 256 mm)
                 Hfront  104 Hsync 176 Hback 280 Hpol N
                 Vfront    3 Vsync   6 Vback  30 Vpol P
    DTD 3:  1440x900    59.887 Hz   8:5    55.935 kHz 106.500 MHz (340 mm x 255 mm)
                 Hfront   80 Hsync 152 Hback 232 Hpol N
                 Vfront    3 Vsync   6 Vback  25 Vpol P
    Display Product Name: 'ANALOG'
Checksum: 0x0c

----------------

Failures:

Block 0, Base EDID:
  Detailed Timing Descriptor #1: Mismatch of image size 368x207 mm vs display size 480x270 mm.
  Detailed Timing Descriptor #2: Mismatch of image size 341x256 mm vs display size 480x270 mm.
  Detailed Timing Descriptor #3: Mismatch of image size 340x255 mm vs display size 480x270 mm.
  Missing Display Range Limits Descriptor.

EDID conformity: FAIL
