
EDID (hex):
00ffffffffffff00320c007900000000
000f0102802115780a0f109758528828
23505400000001010101010101010101
010101010101ea1a0080502010301820
44004bcf100000190000000000000000
00000000000000000000000000fe004c
475068696c6970734c43440a000000fe
004c503135345730312d544c423600b3

Extracted contents:
header:          00 ff ff ff ff ff ff 00
serial number:   32 0c 00 79 00 00 00 00 00 0f
version:         01 02
basic params:    80 21 15 78 0a
chroma info:     0f 10 97 58 52 88 28 23 50 54
established:     00 00 00
standard:        01 01 01 01 01 01 01 01 01 01 01 01 01 01 01 01
descriptor 1:    ea 1a 00 80 50 20 10 30 18 20 44 00 4b cf 10 00 00 19
descriptor 2:    00 00 00 00 00 00 00 00 00 00 00 00 00 00 00 00 00 00
descriptor 3:    00 00 00 fe 00 4c 47 50 68 69 6c 69 70 73 4c 43 44 0a
descriptor 4:    00 00 00 fe 00 4c 50 31 35 34 57 30 31 2d 54 4c 42 36
extensions:      00
checksum:        b3

EDID version: 1.2
Manufacturer: LPL Model 7900 Serial Number --
Digital display
Maximum image size: 33 cm x 21 cm
Gamma: 2.20
RGB color display
First detailed timing is preferred timing
Display x,y Chromaticity:
  Red:   0.5898, 0.3437
  Green: 0.3232, 0.5341
  Blue:  0.1562, 0.1376
  White: 0.3125, 0.3281
Established timings supported:
Standard timings supported:
Detailed mode: Clock 68.900 MHz, 331 mm x 207 mm
               1280 1304 1336 1408 hborder 0
                800  804  808  816 vborder 0
               -hsync -vsync 
               VertFreq: 59 Hz, HorFreq: 48934 Hz
Manufacturer-specified data, tag 0
ASCII string: LGPhilipsLCD
ASCII string: LP154W01-TLB6
Checksum: 0xb3 (valid)
EDID block does not conform at all!
	Bad year of manufacture
