
EDID (hex):
00ffffffffffff000e14ce2200000000
1912010380150c780a08c19a57559325
1a4f5500000001010101010101010101
010101010101941100b0405817203020
3600d27f000000190000000f00000000
00000000003f71051400000000fe0043
505420202020202020202020000000fe
00434c41413038394e4130412020000c

Extracted contents:
header:          00 ff ff ff ff ff ff 00
serial number:   0e 14 ce 22 00 00 00 00 19 12
version:         01 03
basic params:    80 15 0c 78 0a
chroma info:     08 c1 9a 57 55 93 25 1a 4f 55
established:     00 00 00
standard:        01 01 01 01 01 01 01 01 01 01 01 01 01 01 01 01
descriptor 1:    94 11 00 b0 40 58 17 20 30 20 36 00 d2 7f 00 00 00 19
descriptor 2:    00 00 00 0f 00 00 00 00 00 00 00 00 00 3f 71 05 14 00
descriptor 3:    00 00 00 fe 00 43 50 54 20 20 20 20 20 20 20 20 20 20
descriptor 4:    00 00 00 fe 00 43 4c 41 41 30 38 39 4e 41 30 41 20 20
extensions:      00
checksum:        0c

EDID version: 1.3
Manufacturer: CPT Model 22ce Serial Number --
Made in week 25 of 2008
Digital display
Maximum image size: 21 cm x 12 cm
Gamma: 2.20
RGB color display
First detailed timing is preferred timing
Display x,y Chromaticity:
  Red:   0.6015, 0.3398
  Green: 0.3339, 0.5742
  Blue:  0.1474, 0.1015
  White: 0.3085, 0.3330
Established timings supported:
Standard timings supported:
Detailed mode: Clock 45.000 MHz, 210 mm x 127 mm
               1024 1072 1104 1200 hborder 0
                600  603  609  623 vborder 0
               -hsync -vsync 
               VertFreq: 60 Hz, HorFreq: 37500 Hz
Manufacturer-specified data, tag 15
ASCII string: CPT          
ASCII string: CLAA089NA0A  
Checksum: 0xc (valid)
EDID block does NOT conform to EDID 1.3!
	Missing name descriptor
	Missing monitor ranges
