
EDID (hex):
00ffffffffffff0051b8021600000000
281f0104b5221578075dd5a3534b9824
0f505400000001010101010101010101
01010101010126ae80a070b063403020
360059d7100000180000001000b01049
3020750458d710000018000000fd0030
a5d7d72d010a202020202020000000fc
00544c31363056444d5030310a200001

Extracted contents:
header:          00 ff ff ff ff ff ff 00
serial number:   51 b8 02 16 00 00 00 00 28 1f
version:         01 04
basic params:    b5 22 15 78 07
chroma info:     5d d5 a3 53 4b 98 24 0f 50 54
established:     00 00 00
standard:        01 01 01 01 01 01 01 01 01 01 01 01 01 01 01 01
descriptor 1:    26 ae 80 a0 70 b0 63 40 30 20 36 00 59 d7 10 00 00 18
descriptor 2:    00 00 00 10 00 b0 10 49 30 20 75 04 58 d7 10 00 00 18
descriptor 3:    00 00 00 fd 00 30 a5 d7 d7 2d 01 0a 20 20 20 20 20 20
descriptor 4:    00 00 00 fc 00 54 4c 31 36 30 56 44 4d 50 30 31 0a 20
extensions:      00
checksum:        01

EDID version: 1.4
Manufacturer: TMX Model 1602 Serial Number --
Made in week 40 of 2021
Digital display
10 bits per primary color channel
DisplayPort interface
Maximum image size: 34 cm x 21 cm
Gamma: 2.20
Supported color formats: RGB 4:4:4
Default (sRGB) color space is primary color space
First detailed timing includes the native pixel format and preferred refresh rate
Display is continuous frequency
Display x,y Chromaticity:
  Red:   0.6376, 0.3251
  Green: 0.2958, 0.5947
  Blue:  0.1435, 0.0595
  White: 0.3134, 0.3291
Established timings supported:
Standard timings supported:
Detailed mode: Clock 445.820 MHz, 345 mm x 215 mm
               1920 1968 2000 2080 hborder 0
               1200 1203 1209 1299 vborder 0
               -hsync -vsync 
               VertFreq: 165 Hz, HorFreq: 214336 Hz
Dummy block
Monitor ranges (bare limits): 48-165Hz V, 215-215kHz H, max dotclock 450MHz
Monitor name: TL160VDMP01
Checksum: 0x1 (valid)
EDID block does NOT conform to EDID 1.4!
	sRGB is signaled, but the chromaticities do not match
Warning: One or more of the timings is out of range of the Monitor Ranges:
  Vertical Freq: 165 - 165 Hz
  Horizontal Freq: 214336 - 214336 Hz
  Maximum Clock: 445.820 MHz
EDID block does not conform at all!
	Dummy block filled with garbage
