
EDID (hex):
00ffffffffffff000dae411400000000
281f0104a51e13780328659759548e27
1e505400000001010101010101010101
010101010101423c80a070b024403020
a6002dbc10000018353080a070b02440
3020a6002dbc10000018000000fd0028
3c4b4b10010a202020202020000000fe
004e3134304a43412d454c4b0a200113
02030d00681a00000101283c00000000
00000000000000000000000000000000
00000000000000000000000000000000
00000000000000000000000000000000
00000000000000000000000000000000
00000000000000000000000000000000
00000000000000000000000000000000
00000000000000000000000000000006

Extracted contents:
header:          00 ff ff ff ff ff ff 00
serial number:   0d ae 41 14 00 00 00 00 28 1f
version:         01 04
basic params:    a5 1e 13 78 03
chroma info:     28 65 97 59 54 8e 27 1e 50 54
established:     00 00 00
standard:        01 01 01 01 01 01 01 01 01 01 01 01 01 01 01 01
descriptor 1:    42 3c 80 a0 70 b0 24 40 30 20 a6 00 2d bc 10 00 00 18
descriptor 2:    35 30 80 a0 70 b0 24 40 30 20 a6 00 2d bc 10 00 00 18
descriptor 3:    00 00 00 fd 00 28 3c 4b 4b 10 01 0a 20 20 20 20 20 20
descriptor 4:    00 00 00 fe 00 4e 31 34 30 4a 43 41 2d 45 4c 4b 0a 20
extensions:      01
checksum:        13

EDID version: 1.4
Manufacturer: CMN Model 1441 Serial Number --
Made in week 40 of 2021
Digital display
8 bits per primary color channel
DisplayPort interface
Maximum image size: 30 cm x 19 cm
Gamma: 2.20
Supported color formats: RGB 4:4:4
First detailed timing includes the native pixel format and preferred refresh rate
Display is continuous frequency
Display x,y Chromaticity:
  Red:   0.5898, 0.3496
  Green: 0.3300, 0.5546
  Blue:  0.1533, 0.1191
  White: 0.3134, 0.3291
Established timings supported:
Standard timings supported:
Detailed mode: Clock 154.260 MHz, 301 mm x 188 mm
               1920 1968 2000 2080 hborder 0
               1200 1210 1216 1236 vborder 0
               -hsync -vsync 
               VertFreq: 60 Hz, HorFreq: 74163 Hz
Detailed mode: Clock 123.410 MHz, 301 mm x 188 mm
               1920 1968 2000 2080 hborder 0
               1200 1210 1216 1236 vborder 0
               -hsync -vsync 
               VertFreq: 48 Hz, HorFreq: 59331 Hz
Monitor ranges (bare limits): 40-60Hz V, 75-75kHz H, max dotclock 160MHz
ASCII string: N140JCA-ELK
Has 1 extension blocks
Checksum: 0x13 (valid)

CTA extension block
Extension version: 3
9 bytes of CTA data
  Vendor-specific data block, OUI 00001a
0 native detailed modes
Checksum: 0x6 (valid)

EDID block does NOT conform to EDID 1.4!
	Required 640x480p60 timings are missing in the established timings
	and/or in the SVD list (VIC 1)
	Missing name descriptor
Warning: One or more of the timings is out of range of the Monitor Ranges:
  Vertical Freq: 48 - 60 Hz
  Horizontal Freq: 59331 - 74163 Hz
  Maximum Clock: 154.260 MHz
