
EDID (hex):
00ffffffffffff0030e48c0400000000
00180104a51d1178022a059358559129
1e505400000001010101010101010101
0101010101012e3680a070381f403020
350026a5100000190000000000000000
00000000000000000000000000000000
00000000000000000000000000000002
000f44ff0f3c6e1c0f1e6e0000000035

Extracted contents:
header:          00 ff ff ff ff ff ff 00
serial number:   30 e4 8c 04 00 00 00 00 00 18
version:         01 04
basic params:    a5 1d 11 78 02
chroma info:     2a 05 93 58 55 91 29 1e 50 54
established:     00 00 00
standard:        01 01 01 01 01 01 01 01 01 01 01 01 01 01 01 01
descriptor 1:    2e 36 80 a0 70 38 1f 40 30 20 35 00 26 a5 10 00 00 19
descriptor 2:    00 00 00 00 00 00 00 00 00 00 00 00 00 00 00 00 00 00
descriptor 3:    00 00 00 00 00 00 00 00 00 00 00 00 00 00 00 00 00 00
descriptor 4:    00 00 00 02 00 0f 44 ff 0f 3c 6e 1c 0f 1e 6e 00 00 00
extensions:      00
checksum:        35

EDID version: 1.4
Manufacturer: LGD Model 48c Serial Number --
Made in year 2014
Digital display
8 bits per primary color channel
DisplayPort interface
Maximum image size: 29 cm x 17 cm
Gamma: 2.20
Supported color formats: RGB 4:4:4
First detailed timing includes the native pixel format and preferred refresh rate
Display x,y Chromaticity:
  Red:   0.5742, 0.3457
  Green: 0.3339, 0.5683
  Blue:  0.1601, 0.1171
  White: 0.3134, 0.3291
Established timings supported:
Standard timings supported:
Detailed mode: Clock 138.700 MHz, 294 mm x 165 mm
               1920 1968 2000 2080 hborder 0
               1080 1083 1088 1111 vborder 0
               -hsync -vsync 
               VertFreq: 60 Hz, HorFreq: 66682 Hz
Manufacturer-specified data, tag 0
Manufacturer-specified data, tag 0
Manufacturer-specified data, tag 2
Checksum: 0x35 (valid)
EDID block does NOT conform to EDID 1.4!
	Missing name descriptor
	Missing monitor ranges
