edid-decode (hex):

00 ff ff ff ff ff ff 00 06 14 7d 00 00 00 00 00
01 23 01 03 68 35 1d 78 ea d7 a5 a2 59 4a 96 24
14 50 54 ff ff 80 71 4f 81 00 81 80 81 40 81 c0
b3 00 a9 c0 95 00 02 3a 80 18 71 38 2d 40 58 2c
45 00 0f 28 21 00 00 06 30 44 80 a0 70 38 27 40
30 20 35 00 0f 28 21 00 00 06 57 30 80 18 71 38
2d 40 58 2c 45 00 0f 28 21 00 00 06 00 00 00 fc
00 41 32 34 4d 54 2d 30 31 32 35 0a 20 20 00 0f

00 ff ff ff ff ff ff 00 06 14 7d 00 00 00 00 00
01 23 01 03 68 35 1d 78 ea d7 a5 a2 59 4a 96 24
14 50 54 ff ff 80 71 4f 81 00 81 80 81 40 81 c0
b3 00 a9 c0 95 00 02 3a 80 18 71 38 2d 40 58 2c
45 00 0f 28 21 00 00 06 30 44 80 a0 70 38 27 40
30 20 35 00 0f 28 21 00 00 06 57 30 80 18 71 38
2d 40 58 2c 45 00 0f 28 21 00 00 06 00 00 00 fc
00 41 32 34 4d 54 2d 30 31 32 35 0a 20 20 00 0f

----------------

Block 0, Base EDID:
  EDID Structure Version & Revision: 1.3
  Vendor & Product Identification:
    Manufacturer: APT
    Model: 125
    Made in: week 1 of 2025
  Basic Display Parameters & Features:
    Analog display
    Signal Level Standard: 0.700 : 0.000 : 0.700 V p-p
    Blank level equals black level
    Sync: Separate
    Maximum image size: 53 cm x 29 cm
    Gamma: 2.20
    DPMS levels: Standby Suspend Off
    RGB color display
    First detailed timing is the preferred timing
  Color Characteristics:
    Red  : 0.6357, 0.3486
    Green: 0.2900, 0.5888
    Blue : 0.1425, 0.0800
    White: 0.3134, 0.3291
  Established Timings I & II:
    IBM     :   720x400    70.081663 Hz   9:5     31.467 kHz     28.320000 MHz
    IBM     :   720x400    87.849542 Hz   9:5     39.444 kHz     35.500000 MHz
    DMT 0x04:   640x480    59.940476 Hz   4:3     31.469 kHz     25.175000 MHz
    Apple   :   640x480    66.666667 Hz   4:3     35.000 kHz     30.240000 MHz
    DMT 0x05:   640x480    72.808802 Hz   4:3     37.861 kHz     31.500000 MHz
    DMT 0x06:   640x480    75.000000 Hz   4:3     37.500 kHz     31.500000 MHz
    DMT 0x08:   800x600    56.250000 Hz   4:3     35.156 kHz     36.000000 MHz
    DMT 0x09:   800x600    60.316541 Hz   4:3     37.879 kHz     40.000000 MHz
    DMT 0x0a:   800x600    72.187572 Hz   4:3     48.077 kHz     50.000000 MHz
    DMT 0x0b:   800x600    75.000000 Hz   4:3     46.875 kHz     49.500000 MHz
    Apple   :   832x624    74.551266 Hz   4:3     49.726 kHz     57.284000 MHz
    DMT 0x0f:  1024x768i   86.957532 Hz   4:3     35.522 kHz     44.900000 MHz
    DMT 0x10:  1024x768    60.003840 Hz   4:3     48.363 kHz     65.000000 MHz
    DMT 0x11:  1024x768    70.069359 Hz   4:3     56.476 kHz     75.000000 MHz
    DMT 0x12:  1024x768    75.028582 Hz   4:3     60.023 kHz     78.750000 MHz
    DMT 0x24:  1280x1024   75.024675 Hz   5:4     79.976 kHz    135.000000 MHz
    Apple   :  1152x870    75.061550 Hz 192:145   68.681 kHz    100.000000 MHz
  Standard Timings:
    DMT 0x15:  1152x864    75.000000 Hz   4:3     67.500 kHz    108.000000 MHz
    DMT 0x1c:  1280x800    59.810326 Hz  16:10    49.702 kHz     83.500000 MHz
    DMT 0x23:  1280x1024   60.019740 Hz   5:4     63.981 kHz    108.000000 MHz
    DMT 0x20:  1280x960    60.000000 Hz   4:3     60.000 kHz    108.000000 MHz
    DMT 0x55:  1280x720    60.000000 Hz  16:9     45.000 kHz     74.250000 MHz
    DMT 0x3a:  1680x1050   59.954250 Hz  16:10    65.290 kHz    146.250000 MHz
    DMT 0x53:  1600x900    60.000000 Hz  16:9     60.000 kHz    108.000000 MHz (RB)
    DMT 0x2f:  1440x900    59.887445 Hz  16:10    55.935 kHz    106.500000 MHz
  Detailed Timing Descriptors:
    DTD 1:  1920x1080   60.000000 Hz  16:9     67.500 kHz    148.500000 MHz (analog composite, serrate, 527 mm x 296 mm)
                 Hfront   88 Hsync  44 Hback  148 Hpol N
                 Vfront    4 Vsync   5 Vback   36 Vpol N
    DTD 2:  1920x1080   74.998281 Hz  16:9     83.923 kHz    174.560000 MHz (analog composite, serrate, 527 mm x 296 mm)
                 Hfront   48 Hsync  32 Hback   80 Hpol N
                 Vfront    3 Vsync   5 Vback   31 Vpol N
    DTD 3:  1920x1080   50.000000 Hz  16:9     56.250 kHz    123.750000 MHz (analog composite, serrate, 527 mm x 296 mm)
                 Hfront   88 Hsync  44 Hback  148 Hpol N
                 Vfront    4 Vsync   5 Vback   36 Vpol N
    Display Product Name: 'A24MT-0125'
Checksum: 0x0f

----------------

Block 1, Unknown EDID Extension Block 0x00:
  00 ff ff ff ff ff ff 00 06 14 7d 00 00 00 00 00 '..........}.....'
  01 23 01 03 68 35 1d 78 ea d7 a5 a2 59 4a 96 24 '.#..h5.x....YJ.$'
  14 50 54 ff ff 80 71 4f 81 00 81 80 81 40 81 c0 '.PT...qO.....@..'
  b3 00 a9 c0 95 00 02 3a 80 18 71 38 2d 40 58 2c '.......:..q8-@X,'
  45 00 0f 28 21 00 00 06 30 44 80 a0 70 38 27 40 'E..(!...0D..p8'@'
  30 20 35 00 0f 28 21 00 00 06 57 30 80 18 71 38 '0 5..(!...W0..q8'
  2d 40 58 2c 45 00 0f 28 21 00 00 06 00 00 00 fc '-@X,E..(!.......'
  00 41 32 34 4d 54 2d 30 31 32 35 0a 20 20 00 0f '.A24MT-0125.  ..'
Checksum: 0x0f

----------------

Warnings:

Block 0, Base EDID:
  Detailed Timing Descriptor #1: DTD is similar but not identical to VIC 16.

Failures:

Block 0, Base EDID:
  Missing Display Range Limits Descriptor.
Block 1, Base EDID:
  Unknown Extension Block.
EDID:
  Base EDID: EDID specified 0 extension block(s), but found 1 extension block(s).

EDID conformity: FAIL
