
EDID (hex):
00ffffffffffff001c4d301501010101
350d01020e1f1778ea05b5a2564b9d25
185054a56e003b400101010101010101
01010101010164190040410026301888
360037ea1000007f000000fd00314c1d
3d0a000a202020202020000000fc0046
3135330a2020202020202020000000ff
0030303535370a202020202020200001

Extracted contents:
header:          00 ff ff ff ff ff ff 00
serial number:   1c 4d 30 15 01 01 01 01 35 0d
version:         01 02
basic params:    0e 1f 17 78 ea
chroma info:     05 b5 a2 56 4b 9d 25 18 50 54
established:     a5 6e 00
standard:        3b 40 01 01 01 01 01 01 01 01 01 01 01 01 01 01
descriptor 1:    64 19 00 40 41 00 26 30 18 88 36 00 37 ea 10 00 00 7f
descriptor 2:    00 00 00 fd 00 31 4c 1d 3d 0a 00 0a 20 20 20 20 20 20
descriptor 3:    00 00 00 fc 00 46 31 35 33 0a 20 20 20 20 20 20 20 20
descriptor 4:    00 00 00 ff 00 30 30 35 35 37 0a 20 20 20 20 20 20 20
extensions:      00
checksum:        01

EDID version: 1.2
Manufacturer: GBM Model 1530 Serial Number --
Analog display, Input voltage level: 0.7/0.3 V
Sync: Separate Composite SyncOnGreen 
Maximum image size: 31 cm x 23 cm
Gamma: 2.20
DPMS levels: Standby Suspend Off
RGB color display
First detailed timing is preferred timing
Display x,y Chromaticity:
  Red:   0.6328, 0.3359
  Green: 0.2939, 0.6142
  Blue:  0.1464, 0.0966
  White: 0.3134, 0.3291
Established timings supported:
  720x400@70Hz 9:5 HorFreq: 31469 Hz Clock: 28.320 MHz
  640x480@60Hz 4:3 HorFreq: 31469 Hz Clock: 25.175 MHz
  640x480@75Hz 4:3 HorFreq: 37500 Hz Clock: 31.500 MHz
  800x600@60Hz 4:3 HorFreq: 37900 Hz Clock: 40.000 MHz
  800x600@75Hz 4:3 HorFreq: 46900 Hz Clock: 49.500 MHz
  832x624@75Hz 4:3 HorFreq: 49726 Hz Clock: 57.284 MHz
  1024x768@60Hz 4:3 HorFreq: 48400 Hz Clock: 65.000 MHz
  1024x768@70Hz 4:3 HorFreq: 56500 Hz Clock: 75.000 MHz
  1024x768@75Hz 4:3 HorFreq: 60000 Hz Clock: 78.750 MHz
Standard timings supported:
  720x540@60Hz 4:3
Detailed mode: Clock 65.000 MHz, 311 mm x 234 mm
               1024 1048 1184 1344 hborder 0
                768  771  777  806 vborder 0
               +hsync +vsync side by side interleaved
               VertFreq: 60 Hz, HorFreq: 48363 Hz
Monitor ranges (GTF): 49-76Hz V, 29-61kHz H, max dotclock 100MHz
Monitor name: F153
Serial number: --
Checksum: 0x1 (valid)
EDID block does not conform at all!
	Bad year of manufacture


