edid-decode (hex):

00 ff ff ff ff ff ff 00 4c 2d 27 00 37 31 51 41
07 0c 01 03 80 20 18 6b 2a 12 69 a5 52 49 99 24
0e 48 4c ff fe 80 31 59 45 59 58 05 3f fd fd fd
fd fd fd fd fd fd fd fd fd fd fd fd fd fd fd fd
fd fd fd fd fd fd fd fd fd fd fd fd fd fd fd fd
fd fd fd fd fd fd fd fd fd fd fd fd fd fd fd fd
fd fd fd fd fd fd fd fd fd fd fd fd fd fd fd fd
fd fd fd fd fd fd fd fd fd fd fd fd fd fd 01 9f

02 03 1b 61 23 09 07 07 83 01 00 00 67 03 0c 00
20 00 80 2d 43 90 84 02 e2 00 0f 8c 0a d0 8a 20
e0 2d 10 10 3e 96 00 a0 5a 00 00 00 00 00 00 00
00 00 00 00 00 00 00 00 00 00 00 00 00 00 00 00
00 00 00 00 00 00 00 00 00 00 00 00 00 00 00 00
00 00 00 00 00 00 00 00 00 00 00 00 00 00 00 00
00 00 00 00 00 00 00 00 00 00 00 00 00 00 00 00
00 00 00 00 00 00 00 00 00 00 00 00 00 00 00 29

----------------

Block 0, Base EDID:
  EDID Structure Version & Revision: 1.3
  Vendor & Product Identification:
    Manufacturer: SAM
    Model: 39
    Serial Number: ...
    Made in: week 7 of 2002
  Basic Display Parameters & Features:
    Digital display
    Maximum image size: 32 cm x 24 cm
    Gamma: 2.07
    DPMS levels: Off
    RGB color display
    First detailed timing is the preferred timing
  Color Characteristics:
    Red  : 0.6445, 0.3212
    Green: 0.2851, 0.5996
    Blue : 0.1416, 0.0566
    White: 0.2832, 0.2978
  Established Timings I & II:
    IBM     :   720x400    70.081663 Hz   9:5     31.467 kHz     28.320000 MHz
    IBM     :   720x400    87.849542 Hz   9:5     39.444 kHz     35.500000 MHz
    DMT 0x04:   640x480    59.940476 Hz   4:3     31.469 kHz     25.175000 MHz
    Apple   :   640x480    66.666667 Hz   4:3     35.000 kHz     30.240000 MHz
    DMT 0x05:   640x480    72.808802 Hz   4:3     37.861 kHz     31.500000 MHz
    DMT 0x06:   640x480    75.000000 Hz   4:3     37.500 kHz     31.500000 MHz
    DMT 0x08:   800x600    56.250000 Hz   4:3     35.156 kHz     36.000000 MHz
    DMT 0x09:   800x600    60.316541 Hz   4:3     37.879 kHz     40.000000 MHz
    DMT 0x0a:   800x600    72.187572 Hz   4:3     48.077 kHz     50.000000 MHz
    DMT 0x0b:   800x600    75.000000 Hz   4:3     46.875 kHz     49.500000 MHz
    Apple   :   832x624    74.551266 Hz   4:3     49.726 kHz     57.284000 MHz
    DMT 0x0f:  1024x768i   86.957532 Hz   4:3     35.522 kHz     44.900000 MHz
    DMT 0x10:  1024x768    60.003840 Hz   4:3     48.363 kHz     65.000000 MHz
    DMT 0x11:  1024x768    70.069359 Hz   4:3     56.476 kHz     75.000000 MHz
    DMT 0x12:  1024x768    75.028582 Hz   4:3     60.023 kHz     78.750000 MHz
    Apple   :  1152x870    75.061550 Hz 192:145   68.681 kHz    100.000000 MHz
  Standard Timings:
    DMT 0x07:   640x480    85.008312 Hz   4:3     43.269 kHz     36.000000 MHz
    DMT 0x0c:   800x600    85.061274 Hz   4:3     53.674 kHz     56.250000 MHz
    GTF     :   952x595    64.999894 Hz  16:10    40.170 kHz     49.168000 MHz
    GTF     :   752x423   121.001048 Hz  16:9     54.934 kHz     54.495000 MHz
    GTF     :  2272x1278  120.999917 Hz  16:9    165.770 kHz    525.159000 MHz
    GTF     :  2272x1278  120.999917 Hz  16:9    165.770 kHz    525.159000 MHz
    GTF     :  2272x1278  120.999917 Hz  16:9    165.770 kHz    525.159000 MHz
    GTF     :  2272x1278  120.999917 Hz  16:9    165.770 kHz    525.159000 MHz
  Detailed Timing Descriptors:
    DTD 1:  4093x8186i  11.819621 Hz   1:2     84.729 kHz    650.210000 MHz (side by side interleaved, 4093 mm x 3581 mm)
                 Hfront 1021 Hsync 1021 Hback 1033 Hpol N Hborder 253
                 Vfront   63 Vsync  29 Vback 2983 Vpol P Vborder 253 Vfront +0.5 Odd Field
                 Vfront   63 Vsync  29 Vback 2983 Vpol P Vborder 253 Vback  +0.5 Even Field
    DTD 2:  4093x8186i  11.819621 Hz   1:2     84.729 kHz    650.210000 MHz (side by side interleaved, 4093 mm x 3581 mm)
                 Hfront 1021 Hsync 1021 Hback 1033 Hpol N Hborder 253
                 Vfront   63 Vsync  29 Vback 2983 Vpol P Vborder 253 Vfront +0.5 Odd Field
                 Vfront   63 Vsync  29 Vback 2983 Vpol P Vborder 253 Vback  +0.5 Even Field
    DTD 3:  4093x8186i  11.819621 Hz   1:2     84.729 kHz    650.210000 MHz (side by side interleaved, 4093 mm x 3581 mm)
                 Hfront 1021 Hsync 1021 Hback 1033 Hpol N Hborder 253
                 Vfront   63 Vsync  29 Vback 2983 Vpol P Vborder 253 Vfront +0.5 Odd Field
                 Vfront   63 Vsync  29 Vback 2983 Vpol P Vborder 253 Vback  +0.5 Even Field
    DTD 4:  4093x8186i  11.819621 Hz   1:2     84.729 kHz    650.210000 MHz (side by side interleaved, 4093 mm x 3581 mm)
                 Hfront 1021 Hsync 1021 Hback 1033 Hpol N Hborder 253
                 Vfront   63 Vsync  29 Vback 2983 Vpol P Vborder 253 Vfront +0.5 Odd Field
                 Vfront   63 Vsync  29 Vback 2983 Vpol P Vborder 253 Vback  +0.5 Even Field
  Extension blocks: 1
Checksum: 0x9f

----------------

Block 1, CTA-861 Extension Block:
  Revision: 3
  Basic audio support
  Supports YCbCr 4:4:4
  Native detailed modes: 1
  Audio Data Block:
    Linear PCM:
      Max channels: 2
      Supported sample rates (kHz): 48 44.1 32
      Supported sample sizes (bits): 24 20 16
  Speaker Allocation Data Block:
    FL/FR - Front Left/Right
  Vendor-Specific Data Block (HDMI), OUI 00-0C-03:
    Source physical address: 2.0.0.0
    Supports_AI
    Maximum TMDS clock: 225 MHz
  Video Data Block:
    VIC  16:  1920x1080   60.000000 Hz  16:9     67.500 kHz    148.500000 MHz (native)
    VIC   4:  1280x720    60.000000 Hz  16:9     45.000 kHz     74.250000 MHz (native)
    VIC   2:   720x480    59.940060 Hz   4:3     31.469 kHz     27.000000 MHz
  Video Capability Data Block:
    YCbCr quantization: No Data
    RGB quantization: No Data
    PT scan behavior: No Data
    IT scan behavior: Supports both over- and underscan
    CE scan behavior: Supports both over- and underscan
  Detailed Timing Descriptors:
    DTD 5:   720x480    59.940060 Hz   3:2     31.469 kHz     27.000000 MHz (analog composite, sync-on-green, 160 mm x 90 mm)
                 Hfront   16 Hsync  62 Hback   60 Hpol N
                 Vfront    9 Vsync   6 Vback   30 Vpol N
Checksum: 0x29  Unused space in Extension Block: 82 bytes

----------------

Warnings:

Block 0, Base EDID:
  Standard Timings: Standard Timing 952x595 has a dubious odd vertical resolution.
  Standard Timings: Standard Timing 752x423 has a dubious odd vertical resolution.
  Detailed Timing Descriptor #1: The use of non-zero borders in a DTD is not recommended.
  Detailed Timing Descriptor #2: The use of non-zero borders in a DTD is not recommended.
  Detailed Timing Descriptor #3: The use of non-zero borders in a DTD is not recommended.
  Detailed Timing Descriptor #4: The use of non-zero borders in a DTD is not recommended.
Block 1, CTA-861 Extension Block:
  IT Video Formats are overscanned by default, but normally this should be underscanned.
  Video Capability Data Block: Set Selectable YCbCr Quantization to avoid interop issues.
  Add a Colorimetry Data Block with the sRGB colorimetry bit set to avoid interop issues.

Failures:

Block 0, Base EDID:
  Detailed Timing Descriptor #1: Mismatch of image size 4093x3581 mm vs display size 320x240 mm.
  Detailed Timing Descriptor #2: Mismatch of image size 4093x3581 mm vs display size 320x240 mm.
  Detailed Timing Descriptor #3: Mismatch of image size 4093x3581 mm vs display size 320x240 mm.
  Detailed Timing Descriptor #4: Mismatch of image size 4093x3581 mm vs display size 320x240 mm.
  Missing Display Product Name.
  Missing Display Range Limits Descriptor.
Block 1, CTA-861 Extension Block:
  Video Capability Data Block: Set Selectable RGB Quantization to avoid interop issues.
  Detailed Timing Descriptor #5: Mismatch of image size 160x90 mm vs display size 320x240 mm.
EDID:
  Base EDID: The DTD max image size is 4093x3581mm, which is larger than the display size 320.0x240.0mm.
  CTA-861: Native progressive timings are a mix of several resolutions.

EDID conformity: FAIL
