
EDID (hex):
00ffffffffffff004c2d270037315141
070c01038020186b2a1269a552499924
0e484cfffe803159455958053ffdfdfd
fdfdfdfdfdfdfdfdfdfdfdfdfdfdfdfd
fdfdfdfdfdfdfdfdfdfdfdfdfdfdfdfd
fdfdfdfdfdfdfdfdfdfdfdfdfdfdfdfd
fdfdfdfdfdfdfdfdfdfdfdfdfdfdfdfd
fdfdfdfdfdfdfdfdfdfdfdfdfdfd019f
02031b61230907078301000067030c00
2000802d43908402e2000f8c0ad08a20
e02d10103e9600a05a00000000000000
00000000000000000000000000000000
00000000000000000000000000000000
00000000000000000000000000000000
00000000000000000000000000000000
00000000000000000000000000000029

Extracted contents:
header:          00 ff ff ff ff ff ff 00
serial number:   4c 2d 27 00 37 31 51 41 07 0c
version:         01 03
basic params:    80 20 18 6b 2a
chroma info:     12 69 a5 52 49 99 24 0e 48 4c
established:     ff fe 80
standard:        31 59 45 59 58 05 3f fd fd fd fd fd fd fd fd fd
descriptor 1:    fd fd fd fd fd fd fd fd fd fd fd fd fd fd fd fd fd fd
descriptor 2:    fd fd fd fd fd fd fd fd fd fd fd fd fd fd fd fd fd fd
descriptor 3:    fd fd fd fd fd fd fd fd fd fd fd fd fd fd fd fd fd fd
descriptor 4:    fd fd fd fd fd fd fd fd fd fd fd fd fd fd fd fd fd fd
extensions:      01
checksum:        9f

EDID version: 1.3
Manufacturer: SAM Model 27 Serial Number --
Digital display
Maximum image size: 32 cm x 24 cm
Gamma: 2.07
DPMS levels: Off
RGB color display
First detailed timing is preferred timing
Display x,y Chromaticity:
  Red:   0.6445, 0.3212
  Green: 0.2851, 0.5996
  Blue:  0.1416, 0.0566
  White: 0.2832, 0.2978
Established timings supported:
  720x400@70Hz 9:5 HorFreq: 31469 Hz Clock: 28.320 MHz
  720x400@88Hz 9:5 HorFreq: 39500 Hz Clock: 35.500 MHz
  640x480@60Hz 4:3 HorFreq: 31469 Hz Clock: 25.175 MHz
  640x480@67Hz 4:3 HorFreq: 35000 Hz Clock: 30.240 MHz
  640x480@72Hz 4:3 HorFreq: 37900 Hz Clock: 31.500 MHz
  640x480@75Hz 4:3 HorFreq: 37500 Hz Clock: 31.500 MHz
  800x600@56Hz 4:3 HorFreq: 35200 Hz Clock: 36.000 MHz
  800x600@60Hz 4:3 HorFreq: 37900 Hz Clock: 40.000 MHz
  800x600@72Hz 4:3 HorFreq: 48100 Hz Clock: 50.000 MHz
  800x600@75Hz 4:3 HorFreq: 46900 Hz Clock: 49.500 MHz
  832x624@75Hz 4:3 HorFreq: 49726 Hz Clock: 57.284 MHz
  1280x768i@87Hz 5:3 HorFreq: 35522 Hz Clock: 44.900 MHz
  1024x768@60Hz 4:3 HorFreq: 48400 Hz Clock: 65.000 MHz
  1024x768@70Hz 4:3 HorFreq: 56500 Hz Clock: 75.000 MHz
  1024x768@75Hz 4:3 HorFreq: 60000 Hz Clock: 78.750 MHz
  1152x870@75Hz 192:145 HorFreq: 67500 Hz Clock: 108.000 MHz
Standard timings supported:
  640x480@85Hz 4:3 HorFreq: 43300 Hz Clock: 36.000 MHz
  800x600@85Hz 4:3 HorFreq: 53700 Hz Clock: 56.250 MHz
  952x595@65Hz 16:10
  752x423@121Hz 16:9
  2272x1278@121Hz 16:9
  2272x1278@121Hz 16:9
  2272x1278@121Hz 16:9
  2272x1278@121Hz 16:9
Detailed mode: Clock 650.210 MHz, 4093 mm x 3581 mm
               4093 5114 6135 7674 hborder 253
               4093 4156 4185 7674 vborder 253
               -hsync +vsync interlaced side by side interleaved
               VertFreq: 11 Hz, HorFreq: 84728 Hz
Detailed mode: Clock 650.210 MHz, 4093 mm x 3581 mm
               4093 5114 6135 7674 hborder 253
               4093 4156 4185 7674 vborder 253
               -hsync +vsync interlaced side by side interleaved
               VertFreq: 11 Hz, HorFreq: 84728 Hz
Detailed mode: Clock 650.210 MHz, 4093 mm x 3581 mm
               4093 5114 6135 7674 hborder 253
               4093 4156 4185 7674 vborder 253
               -hsync +vsync interlaced side by side interleaved
               VertFreq: 11 Hz, HorFreq: 84728 Hz
Detailed mode: Clock 650.210 MHz, 4093 mm x 3581 mm
               4093 5114 6135 7674 hborder 253
               4093 4156 4185 7674 vborder 253
               -hsync +vsync interlaced side by side interleaved
               VertFreq: 11 Hz, HorFreq: 84728 Hz
Has 1 extension blocks
Checksum: 0x9f (valid)

CTA extension block
Extension version: 3
23 bytes of CTA data
  Audio data block
    Linear PCM, max channels 2
      Supported sample rates (kHz): 48 44.1 32
      Supported sample sizes (bits): 24 20 16
  Speaker allocation data block
    Speaker map:
      FL/FR - Front Left/Right
  Vendor-specific data block, OUI 000c03 (HDMI)
    Source physical address 2.0.0.0
    Supports_AI
    Maximum TMDS clock: 225MHz
  Video data block
    VIC  16 1920x1080@60Hz 16:9 (native) HorFreq: 67500 Hz Clock: 148.500 MHz
    VIC   4 1280x720@60Hz 16:9 (native) HorFreq: 45000 Hz Clock: 74.250 MHz
    VIC   2 720x480@60Hz 4:3  HorFreq: 31469 Hz Clock: 27.000 MHz
  Extended tag: Video capability data block
    YCbCr quantization: No Data (0)
    RGB quantization: No Data (0)
    PT scan behaviour: No Data (0)
    IT scan behaviour: Support both over- and underscan (3)
    CE scan behaviour: Support both over- and underscan (3)
Basic audio support
Supports YCbCr 4:4:4
1 native detailed modes
Detailed mode: Clock 27.000 MHz, 160 mm x 90 mm
                720  736  798  858 hborder 0
                480  489  495  525 vborder 0
               -hsync -vsync analog composite 
               VertFreq: 59 Hz, HorFreq: 31468 Hz
Checksum: 0x29 (valid)

EDID block does NOT conform to EDID 1.3!
	Missing name descriptor
	Missing monitor ranges
EDID block does not conform at all!
	Bad year of manufacture
