
EDID (hex):
00ffffffffffff000e6f091400000000
001f0104a51f117803ee95a3544c9926
0f505400000001010101010101010101
0101010101012a3680a070381f403020
350035ae100000181c2480a070381f40
3020350035ae10000018000000000000
00000000000000000000000000000003
000c26ff103cc80a0614c8000000006e

Extracted contents:
header:          00 ff ff ff ff ff ff 00
serial number:   0e 6f 09 14 00 00 00 00 00 1f
version:         01 04
basic params:    a5 1f 11 78 03
chroma info:     ee 95 a3 54 4c 99 26 0f 50 54
established:     00 00 00
standard:        01 01 01 01 01 01 01 01 01 01 01 01 01 01 01 01
descriptor 1:    2a 36 80 a0 70 38 1f 40 30 20 35 00 35 ae 10 00 00 18
descriptor 2:    1c 24 80 a0 70 38 1f 40 30 20 35 00 35 ae 10 00 00 18
descriptor 3:    00 00 00 00 00 00 00 00 00 00 00 00 00 00 00 00 00 00
descriptor 4:    00 00 00 03 00 0c 26 ff 10 3c c8 0a 06 14 c8 00 00 00
extensions:      00
checksum:        6e

EDID version: 1.4
Manufacturer: CSO Model 1409 Serial Number --
Made in year 2021
Digital display
8 bits per primary color channel
DisplayPort interface
Maximum image size: 31 cm x 17 cm
Gamma: 2.20
Supported color formats: RGB 4:4:4
First detailed timing includes the native pixel format and preferred refresh rate
Display is continuous frequency
Display x,y Chromaticity:
  Red:   0.6396, 0.3300
  Green: 0.2998, 0.5996
  Blue:  0.1503, 0.0595
  White: 0.3134, 0.3291
Established timings supported:
Standard timings supported:
Detailed mode: Clock 138.660 MHz, 309 mm x 174 mm
               1920 1968 2000 2080 hborder 0
               1080 1083 1088 1111 vborder 0
               -hsync -vsync 
               VertFreq: 60 Hz, HorFreq: 66663 Hz
Detailed mode: Clock 92.440 MHz, 309 mm x 174 mm
               1920 1968 2000 2080 hborder 0
               1080 1083 1088 1111 vborder 0
               -hsync -vsync 
               VertFreq: 40 Hz, HorFreq: 44442 Hz
Manufacturer-specified data, tag 0
Manufacturer-specified data, tag 3
Checksum: 0x6e (valid)
EDID block does NOT conform to EDID 1.4!
	Missing name descriptor
	Missing monitor ranges
