
EDID (hex):
00ffffffffffff0034a4413901010101
10160103682e1b782aec85a2544da127
125054bfef808180714f8140950f9500
0101010101012f2640a060841a303020
3500ce101100001a000000ff00563231
364c583330313739350a000000fd0037
4c1e520f000a202020202020000000fc
004d4432303332380a2020202020004d

Extracted contents:
header:          00 ff ff ff ff ff ff 00
serial number:   34 a4 41 39 01 01 01 01 10 16
version:         01 03
basic params:    68 2e 1b 78 2a
chroma info:     ec 85 a2 54 4d a1 27 12 50 54
established:     bf ef 80
standard:        81 80 71 4f 81 40 95 0f 95 00 01 01 01 01 01 01
descriptor 1:    2f 26 40 a0 60 84 1a 30 30 20 35 00 ce 10 11 00 00 1a
descriptor 2:    00 00 00 ff 00 56 32 31 36 4c 58 33 30 31 37 39 35 0a
descriptor 3:    00 00 00 fd 00 37 4c 1e 52 0f 00 0a 20 20 20 20 20 20
descriptor 4:    00 00 00 fc 00 4d 44 32 30 33 32 38 0a 20 20 20 20 20
extensions:      00
checksum:        4d

EDID version: 1.3
Manufacturer: MED Model 3941 Serial Number --
Made in week 16 of 2012
Analog display, Input voltage level: 0.7/0.7 V
Sync: Separate 
Maximum image size: 46 cm x 27 cm
Gamma: 2.20
DPMS levels: Off
RGB color display
First detailed timing is preferred timing
Display x,y Chromaticity:
  Red:   0.6357, 0.3300
  Green: 0.3037, 0.6289
  Blue:  0.1542, 0.0703
  White: 0.3134, 0.3291
Established timings supported:
  720x400@70Hz 9:5 HorFreq: 31469 Hz Clock: 28.320 MHz
  640x480@60Hz 4:3 HorFreq: 31469 Hz Clock: 25.175 MHz
  640x480@67Hz 4:3 HorFreq: 35000 Hz Clock: 30.240 MHz
  640x480@72Hz 4:3 HorFreq: 37900 Hz Clock: 31.500 MHz
  640x480@75Hz 4:3 HorFreq: 37500 Hz Clock: 31.500 MHz
  800x600@56Hz 4:3 HorFreq: 35200 Hz Clock: 36.000 MHz
  800x600@60Hz 4:3 HorFreq: 37900 Hz Clock: 40.000 MHz
  800x600@72Hz 4:3 HorFreq: 48100 Hz Clock: 50.000 MHz
  800x600@75Hz 4:3 HorFreq: 46900 Hz Clock: 49.500 MHz
  832x624@75Hz 4:3 HorFreq: 49726 Hz Clock: 57.284 MHz
  1024x768@60Hz 4:3 HorFreq: 48400 Hz Clock: 65.000 MHz
  1024x768@70Hz 4:3 HorFreq: 56500 Hz Clock: 75.000 MHz
  1024x768@75Hz 4:3 HorFreq: 60000 Hz Clock: 78.750 MHz
  1280x1024@75Hz 5:4 HorFreq: 80000 Hz Clock: 135.000 MHz
  1152x870@75Hz 192:145 HorFreq: 67500 Hz Clock: 108.000 MHz
Standard timings supported:
  1280x1024@60Hz 5:4 HorFreq: 64000 Hz Clock: 108.000 MHz
  1152x864@75Hz 4:3 HorFreq: 67500 Hz Clock: 108.000 MHz
  1280x960@60Hz 4:3 HorFreq: 60000 Hz Clock: 108.000 MHz
  1440x900@75Hz 16:10 HorFreq: 82300 Hz Clock: 156.000 MHz
  1440x900@60Hz 16:10 HorFreq: 55500 Hz Clock: 88.750 MHz
Detailed mode: Clock 97.750 MHz, 462 mm x 272 mm
               1600 1648 1680 1760 hborder 0
                900  903  908  926 vborder 0
               +hsync -vsync 
               VertFreq: 59 Hz, HorFreq: 55539 Hz
Serial number: --
Monitor ranges (GTF): 55-76Hz V, 30-82kHz H, max dotclock 150MHz
Monitor name: MD20328
Checksum: 0x4d (valid)
One or more of the timings is out of range of the Monitor Ranges:
  Vertical Freq: 56 - 75 Hz
  Horizontal Freq: 31469 - 82300 Hz
  Maximum Clock: 156.000 MHz
