
EDID (hex):
00ffffffffffff002e83521856010000
0d150103a029177822f0659857519127
215054adce0001010101010101010101
010101010101662150b051001b304070
36009ae61000001e000000fd00384b1f
3c09000a202020202020000000fc0057
3930323353350a2020202020000000fe
000a2020202020202020202020200017

Extracted contents:
header:          00 ff ff ff ff ff ff 00
serial number:   2e 83 52 18 56 01 00 00 0d 15
version:         01 03
basic params:    a0 29 17 78 22
chroma info:     f0 65 98 57 51 91 27 21 50 54
established:     ad ce 00
standard:        01 01 01 01 01 01 01 01 01 01 01 01 01 01 01 01
descriptor 1:    66 21 50 b0 51 00 1b 30 40 70 36 00 9a e6 10 00 00 1e
descriptor 2:    00 00 00 fd 00 38 4b 1f 3c 09 00 0a 20 20 20 20 20 20
descriptor 3:    00 00 00 fc 00 57 39 30 32 33 53 35 0a 20 20 20 20 20
descriptor 4:    00 00 00 fe 00 0a 20 20 20 20 20 20 20 20 20 20 20 20
extensions:      00
checksum:        17

EDID version: 1.3
Manufacturer: KTC Model 1852 Serial Number --
Made in week 13 of 2011
Digital display
Maximum image size: 41 cm x 23 cm
Gamma: 2.20
DPMS levels: Off
Monochrome or grayscale display
First detailed timing is preferred timing
Display x,y Chromaticity:
  Red:   0.5966, 0.3427
  Green: 0.3164, 0.5664
  Blue:  0.1533, 0.1308
  White: 0.3134, 0.3291
Established timings supported:
  720x400@70Hz 9:5 HorFreq: 31469 Hz Clock: 28.320 MHz
  640x480@60Hz 4:3 HorFreq: 31469 Hz Clock: 25.175 MHz
  640x480@72Hz 4:3 HorFreq: 37900 Hz Clock: 31.500 MHz
  640x480@75Hz 4:3 HorFreq: 37500 Hz Clock: 31.500 MHz
  800x600@60Hz 4:3 HorFreq: 37900 Hz Clock: 40.000 MHz
  800x600@72Hz 4:3 HorFreq: 48100 Hz Clock: 50.000 MHz
  800x600@75Hz 4:3 HorFreq: 46900 Hz Clock: 49.500 MHz
  1024x768@60Hz 4:3 HorFreq: 48400 Hz Clock: 65.000 MHz
  1024x768@70Hz 4:3 HorFreq: 56500 Hz Clock: 75.000 MHz
  1024x768@75Hz 4:3 HorFreq: 60000 Hz Clock: 78.750 MHz
Standard timings supported:
Detailed mode: Clock 85.500 MHz, 410 mm x 230 mm
               1360 1424 1536 1792 hborder 0
                768  771  777  795 vborder 0
               +hsync +vsync 
               VertFreq: 60 Hz, HorFreq: 47712 Hz
Monitor ranges (GTF): 56-75Hz V, 31-60kHz H, max dotclock 90MHz
Monitor name: W9023S5
ASCII string: 
Checksum: 0x17 (valid)
EDID block does NOT conform to EDID 1.3!
	Digital display field contains garbage: 20


