
EDID (hex):
00ffffffffffff004ca3473100000000
00150103802112780a09e59757548a27
22505400000001010101010101010101
010101010101382740c0608420303020
25004cbb100000190000000f00000000
00000000004080091600000000fe0053
414d53554e470a2020202020000000fe
004c544e3135304b543032380a2000c9

Extracted contents:
header:          00 ff ff ff ff ff ff 00
serial number:   4c a3 47 31 00 00 00 00 00 15
version:         01 03
basic params:    80 21 12 78 0a
chroma info:     09 e5 97 57 54 8a 27 22 50 54
established:     00 00 00
standard:        01 01 01 01 01 01 01 01 01 01 01 01 01 01 01 01
descriptor 1:    38 27 40 c0 60 84 20 30 30 20 25 00 4c bb 10 00 00 19
descriptor 2:    00 00 00 0f 00 00 00 00 00 00 00 00 00 40 80 09 16 00
descriptor 3:    00 00 00 fe 00 53 41 4d 53 55 4e 47 0a 20 20 20 20 20
descriptor 4:    00 00 00 fe 00 4c 54 4e 31 35 30 4b 54 30 32 38 0a 20
extensions:      00
checksum:        c9

EDID version: 1.3
Manufacturer: SEC Model 3147 Serial Number --
Made in year 2011
Digital display
Maximum image size: 33 cm x 18 cm
Gamma: 2.20
RGB color display
First detailed timing is preferred timing
Display x,y Chromaticity:
  Red:   0.5898, 0.3398
  Green: 0.3300, 0.5400
  Blue:  0.1552, 0.1347
  White: 0.3134, 0.3291
Established timings supported:
Standard timings supported:
Detailed mode: Clock 100.400 MHz, 332 mm x 187 mm
               1600 1648 1680 1792 hborder 0
                900  902  907  932 vborder 0
               -hsync -vsync 
               VertFreq: 60 Hz, HorFreq: 56026 Hz
Manufacturer-specified data, tag 15
ASCII string: SAMSUNG
ASCII string: LTN150KT028
Checksum: 0xc9 (valid)
EDID block does NOT conform to EDID 1.3!
	Missing name descriptor
	Missing monitor ranges
