
EDID (hex):
00ffffffffffff0010ace4a153535530
1f200104b55123783ba8b1b14d3db825
0e505421080001010101010101010101
010101010101e77c70a0d0a029503020
150829623100001a000000ff00234737
51594d78677741427054000000fd0001
afffff63010a202020202020000000fc
0044656c6c20415733343233445702d4
020320f12309070183010000654b0400
0101e305c000e2006ae6060501634b00
4ed470a0d0a046503020e50c29623100
001a0000000000000000000000000000
00000000000000000000000000000000
00000000000000000000000000000000
00000000000000000000000000000000
00000000000000000000000000000099
70127903000f000aa4140e0e07012045
000002010d31196b4dd9f3b757b20e01
455403013c520101046f0d9f002f801f
009f0554004c000400663801046f0d9f
002f801f009f0566005e0004008b8101
046f0d9f002f801f009f057e00760004
00000000000000000000000000000000
00000000000000000000000000007b90

Extracted contents:
header:          00 ff ff ff ff ff ff 00
serial number:   10 ac e4 a1 53 53 55 30 1f 20
version:         01 04
basic params:    b5 51 23 78 3b
chroma info:     a8 b1 b1 4d 3d b8 25 0e 50 54
established:     21 08 00
standard:        01 01 01 01 01 01 01 01 01 01 01 01 01 01 01 01
descriptor 1:    e7 7c 70 a0 d0 a0 29 50 30 20 15 08 29 62 31 00 00 1a
descriptor 2:    00 00 00 ff 00 23 47 37 51 59 4d 78 67 77 41 42 70 54
descriptor 3:    00 00 00 fd 00 01 af ff ff 63 01 0a 20 20 20 20 20 20
descriptor 4:    00 00 00 fc 00 44 65 6c 6c 20 41 57 33 34 32 33 44 57
extensions:      02
checksum:        d4

EDID version: 1.4
Manufacturer: DEL Model a1e4 Serial Number --
Made in week 31 of 2022
Digital display
10 bits per primary color channel
DisplayPort interface
Maximum image size: 81 cm x 35 cm
Gamma: 2.20
DPMS levels: Off
Supported color formats: RGB 4:4:4, YCrCb 4:4:4, YCrCb 4:2:2
First detailed timing includes the native pixel format and preferred refresh rate
Display is continuous frequency
Display x,y Chromaticity:
  Red:   0.6933, 0.3027
  Green: 0.2402, 0.7187
  Blue:  0.1464, 0.0576
  White: 0.3125, 0.3291
Established timings supported:
  640x480@60Hz 4:3 HorFreq: 31469 Hz Clock: 25.175 MHz
  800x600@60Hz 4:3 HorFreq: 37900 Hz Clock: 40.000 MHz
  1024x768@60Hz 4:3 HorFreq: 48400 Hz Clock: 65.000 MHz
Standard timings supported:
Detailed mode: Clock 319.750 MHz, 809 mm x 354 mm
               3440 3488 3520 3600 hborder 0
               1440 1473 1478 1481 vborder 0
               +hsync -vsync 
               VertFreq: 59 Hz, HorFreq: 88819 Hz
Serial number: --
Monitor ranges (bare limits): 1-175Hz V, 255-255kHz H, max dotclock 990MHz
Has 2 extension blocks
Checksum: 0xd4 (valid)

CTA extension block
Extension version: 3
28 bytes of CTA data
  Audio data block
    Linear PCM, max channels 2
      Supported sample rates (kHz): 48 44.1 32
      Supported sample sizes (bits): 16
  Speaker allocation data block
    Speaker map:
      FL/FR - Front Left/Right
  Vendor-specific data block, OUI 00044b
  Extended tag: Colorimetry data block
    BT2020YCC
    BT2020RGB
  Extended tag: Video capability data block
    YCbCr quantization: No Data (0)
    RGB quantization: Selectable (via AVI Q) (1)
    PT scan behaviour: Always Underscanned (2)
    IT scan behaviour: Always Underscanned (2)
    CE scan behaviour: Always Underscanned (2)
  Extended tag: HDR static metadata data block
    Electro optical transfer functions:
      Traditional gamma - SDR luminance range
      SMPTE ST2084
    Supported static metadata descriptors:
      Static metadata type 1
    Desired content max luminance: 99 (426.856 cd/m^2)
    Desired content max frame-average luminance: 75 (253.810 cd/m^2)
    Desired content min luminance: 0 (0.000 cd/m^2)
Underscans PC formats by default
Basic audio support
Supports YCbCr 4:4:4
Supports YCbCr 4:2:2
1 native detailed modes
Detailed mode: Clock 543.500 MHz, 809 mm x 354 mm
               3440 3488 3520 3600 hborder 0
               1440 1502 1507 1510 vborder 0
               +hsync -vsync 
               VertFreq: 99 Hz, HorFreq: 150972 Hz
Checksum: 0x99 (valid)


DisplayID extension block
Extension version: 18
Length 121, version 18, extension count 0
Checksum: 0x7b (valid)
Display interface
Color characteristics block
Type 1 detailed timing: aspect: 16:9,  
Detailed mode: Clock 658.740 MHz, 0 mm x 0 mm
               3439 3486 3517 3598
               1439 1515 1519 1523
               +hsync -vsync
Type 1 detailed timing: aspect: 16:9,  
Detailed mode: Clock 799.740 MHz, 0 mm x 0 mm
               3439 3486 3517 3598
               1439 1533 1537 1541
               +hsync -vsync
Type 1 detailed timing: aspect: 16:9,  
Detailed mode: Clock 986.990 MHz, 0 mm x 0 mm
               3439 3486 3517 3598
               1439 1557 1561 1565
               +hsync -vsync

EDID block does NOT conform to EDID 1.4!
	Name descriptor not terminated with a newline
Warning: One or more of the timings is out of range of the Monitor Ranges:
  Vertical Freq: 59 - 99 Hz
  Horizontal Freq: 31469 - 150972 Hz
  Maximum Clock: 543.500 MHz
EDID block does not conform at all!
	Both the serial number and the serial string are set
