edid-decode (hex):

00 ff ff ff ff ff ff 00 42 93 04 03 51 60 03 00
05 0e 01 03 08 20 18 1b e8 5c 11 9e 59 47 9b 27
10 48 4f a1 4a 00 31 59 01 01 45 59 45 68 61 59
81 80 00 00 00 00 d2 0f 80 a0 20 e0 1a 10 10 40
13 00 36 e6 10 00 00 18 f9 15 20 f8 30 58 1f 20
20 40 13 00 36 e6 10 00 00 1e 00 00 00 fd 00 32
a0 1e 46 0b 00 0a 20 20 20 20 20 20 00 00 00 ff
00 46 41 56 4a 34 31 30 32 32 31 32 36 35 00 1a

00 ff ff ff ff ff ff 00 42 93 04 03 51 60 03 00
05 0e 01 03 08 20 18 1b e8 5c 11 9e 59 47 9b 27
10 48 4f a1 4a 00 31 59 01 01 45 59 45 68 61 59
81 80 00 00 00 00 d2 0f 80 a0 20 e0 1a 10 10 40
13 00 36 e6 10 00 00 18 f9 15 20 f8 30 58 1f 20
20 40 13 00 36 e6 10 00 00 1e 00 00 00 fd 00 32
a0 1e 46 0b 00 0a 20 20 20 20 20 20 00 00 00 ff
00 46 41 56 4a 34 31 30 32 32 31 32 36 35 00 1a

----------------

Block 0, Base EDID:
  EDID Structure Version & Revision: 1.3
  Vendor & Product Identification:
    Manufacturer: PTS
    Model: 772
    Serial Number: ...
    Made in: week 5 of 2004
  Basic Display Parameters & Features:
    Analog display
    Signal Level Standard: 0.700 : 0.300 : 1.000 V p-p
    Blank level equals black level
    Sync: Separate
    Maximum image size: 32 cm x 24 cm
    Gamma: 1.27
    DPMS levels: Standby Suspend Off
    RGB color display
  Color Characteristics:
    Red  : 0.6181, 0.3486
    Green: 0.2802, 0.6054
    Blue : 0.1523, 0.0634
    White: 0.2812, 0.3095
  Established Timings I & II:
    IBM     :   720x400    70.081663 Hz   9:5     31.467 kHz     28.320000 MHz
    DMT 0x04:   640x480    59.940476 Hz   4:3     31.469 kHz     25.175000 MHz
    DMT 0x09:   800x600    60.316541 Hz   4:3     37.879 kHz     40.000000 MHz
    DMT 0x0b:   800x600    75.000000 Hz   4:3     46.875 kHz     49.500000 MHz
    DMT 0x10:  1024x768    60.003840 Hz   4:3     48.363 kHz     65.000000 MHz
    DMT 0x12:  1024x768    75.028582 Hz   4:3     60.023 kHz     78.750000 MHz
  Standard Timings:
    DMT 0x07:   640x480    85.008312 Hz   4:3     43.269 kHz     36.000000 MHz
    DMT 0x0c:   800x600    85.061274 Hz   4:3     53.674 kHz     56.250000 MHz
    GTF     :   800x600    99.999707 Hz   4:3     63.600 kHz     68.179000 MHz
    DMT 0x13:  1024x768    84.996690 Hz   4:3     68.677 kHz     94.500000 MHz
    DMT 0x23:  1280x1024   60.019740 Hz   5:4     63.981 kHz    108.000000 MHz
  Detailed Timing Descriptors:
    DTD 1:   640x480   100.049407 Hz   4:3     50.625 kHz     40.500000 MHz (310 mm x 230 mm)
                 Hfront   16 Hsync  64 Hback   80 Hpol N
                 Vfront    1 Vsync   3 Vback   22 Vpol N
    DTD 2:   800x600    85.061274 Hz   4:3     53.674 kHz     56.250000 MHz (310 mm x 230 mm)
                 Hfront   32 Hsync  64 Hback  152 Hpol P
                 Vfront    1 Vsync   3 Vback   27 Vpol P
    Display Range Limits:
      Monitor ranges (GTF): 50-160 Hz V, 30-70 kHz H, max dotclock 110 MHz
    Display Product Serial Number: ...
Checksum: 0x1a

----------------

Block 1, Unknown EDID Extension Block 0x00:
  00 ff ff ff ff ff ff 00 42 93 04 03 51 60 03 00 '........B...Q`..'
  05 0e 01 03 08 20 18 1b e8 5c 11 9e 59 47 9b 27 '..... ...\..YG.''
  10 48 4f a1 4a 00 31 59 01 01 45 59 45 68 61 59 '.HO.J.1Y..EYEhaY'
  81 80 00 00 00 00 d2 0f 80 a0 20 e0 1a 10 10 40 '.......... ....@'
  13 00 36 e6 10 00 00 18 f9 15 20 f8 30 58 1f 20 '..6....... .0X. '
  20 40 13 00 36 e6 10 00 00 1e 00 00 00 fd 00 32 ' @..6..........2'
  a0 1e 46 0b 00 0a 20 20 20 20 20 20 00 00 00 ff '..F...      ....'
  00 46 41 56 4a 34 31 30 32 32 31 32 36 35 00 1a '.FAVJ410221265..'
Checksum: 0x1a

----------------

Failures:

Block 0, Base EDID:
  Basic Display Parameters & Features: EDID 1.3 requires that the first detailed timing is the preferred timing.
  Standard Timings: Use 0x0101 as the invalid Standard Timings code, not 0x0000.
  Standard Timings: Use 0x0101 as the invalid Standard Timings code, not 0x0000.
  Detailed Timing Descriptor #1: Mismatch of image size 310x230 mm vs display size 320x240 mm.
  Detailed Timing Descriptor #2: Mismatch of image size 310x230 mm vs display size 320x240 mm.
  Missing Display Product Name.
Block 1, Base EDID:
  Unknown Extension Block.
EDID:
  Base EDID: EDID specified 0 extension block(s), but found 1 extension block(s).

EDID conformity: FAIL
