
EDID (hex):
00ffffffffffff000859000000000000
111d0103805832780a32319d564c9125
114248afce0081c08100810f81408180
9500b3000101662150b051001b304070
3600ba882100001aa91a00a050001630
30203700c48e2100001a000000fc004e
532d3430443432304e413230000000fd
00384b204411000a20202020202001cd

Extracted contents:
header:          00 ff ff ff ff ff ff 00
serial number:   08 59 00 00 00 00 00 00 11 1d
version:         01 03
basic params:    80 58 32 78 0a
chroma info:     32 31 9d 56 4c 91 25 11 42 48
established:     af ce 00
standard:        81 c0 81 00 81 0f 81 40 81 80 95 00 b3 00 01 01
descriptor 1:    66 21 50 b0 51 00 1b 30 40 70 36 00 ba 88 21 00 00 1a
descriptor 2:    a9 1a 00 a0 50 00 16 30 30 20 37 00 c4 8e 21 00 00 1a
descriptor 3:    00 00 00 fc 00 4e 53 2d 34 30 44 34 32 30 4e 41 32 30
descriptor 4:    00 00 00 fd 00 38 4b 20 44 11 00 0a 20 20 20 20 20 20
extensions:      01
checksum:        cd

EDID version: 1.3
Manufacturer: BBY Model 0 Serial Number --
Made in week 17 of 2019
Digital display
Maximum image size: 88 cm x 50 cm
Gamma: 2.20
RGB color display
First detailed timing is preferred timing
Display x,y Chromaticity:
  Red:   0.6132, 0.3388
  Green: 0.2968, 0.5683
  Blue:  0.1445, 0.0693
  White: 0.2578, 0.2822
Established timings supported:
  720x400@70Hz 9:5 HorFreq: 31469 Hz Clock: 28.320 MHz
  640x480@60Hz 4:3 HorFreq: 31469 Hz Clock: 25.175 MHz
  640x480@72Hz 4:3 HorFreq: 37900 Hz Clock: 31.500 MHz
  640x480@75Hz 4:3 HorFreq: 37500 Hz Clock: 31.500 MHz
  800x600@56Hz 4:3 HorFreq: 35200 Hz Clock: 36.000 MHz
  800x600@60Hz 4:3 HorFreq: 37900 Hz Clock: 40.000 MHz
  800x600@72Hz 4:3 HorFreq: 48100 Hz Clock: 50.000 MHz
  800x600@75Hz 4:3 HorFreq: 46900 Hz Clock: 49.500 MHz
  1024x768@60Hz 4:3 HorFreq: 48400 Hz Clock: 65.000 MHz
  1024x768@70Hz 4:3 HorFreq: 56500 Hz Clock: 75.000 MHz
  1024x768@75Hz 4:3 HorFreq: 60000 Hz Clock: 78.750 MHz
Standard timings supported:
  1280x720@60Hz 16:9
  1280x800@60Hz 16:10
  1280x800@75Hz 16:10
  1280x960@60Hz 4:3 HorFreq: 60000 Hz Clock: 108.000 MHz
  1280x1024@60Hz 5:4 HorFreq: 64000 Hz Clock: 108.000 MHz
  1440x900@60Hz 16:10 HorFreq: 55500 Hz Clock: 88.750 MHz
  1680x1050@60Hz 16:10 HorFreq: 64700 Hz Clock: 119.000 MHz
Detailed mode: Clock 85.500 MHz, 698 mm x 392 mm
               1360 1424 1536 1792 hborder 0
                768  771  777  795 vborder 0
               +hsync -vsync 
               VertFreq: 60 Hz, HorFreq: 47712 Hz
Detailed mode: Clock 68.250 MHz, 708 mm x 398 mm
               1280 1328 1360 1440 hborder 0
                768  771  778  790 vborder 0
               +hsync -vsync 
               VertFreq: 59 Hz, HorFreq: 47395 Hz
Monitor ranges (GTF): 56-75Hz V, 32-68kHz H, max dotclock 170MHz
Has 1 extension blocks
Checksum: 0xcd (valid)
EDID block does NOT conform to EDID 1.3!
	Name descriptor not terminated with a newline
One or more of the timings is out of range of the Monitor Ranges:
  Vertical Freq: 56 - 75 Hz
  Horizontal Freq: 31469 - 64700 Hz
  Maximum Clock: 119.000 MHz
