
EDID (hex):
00ffffffffffff0030e4620300000000
00150103801f117802a3e59659558e27
1f505400000001010101010101010101
0101010101011c2a4040618424303020
350035ae100000190000000000000000
00000000000000000000000000fe004c
4720446973706c61790a2020000000fe
004c503134305744322d544c44320056

Extracted contents:
header:          00 ff ff ff ff ff ff 00
serial number:   30 e4 62 03 00 00 00 00 00 15
version:         01 03
basic params:    80 1f 11 78 02
chroma info:     a3 e5 96 59 55 8e 27 1f 50 54
established:     00 00 00
standard:        01 01 01 01 01 01 01 01 01 01 01 01 01 01 01 01
descriptor 1:    1c 2a 40 40 61 84 24 30 30 20 35 00 35 ae 10 00 00 19
descriptor 2:    00 00 00 00 00 00 00 00 00 00 00 00 00 00 00 00 00 00
descriptor 3:    00 00 00 fe 00 4c 47 20 44 69 73 70 6c 61 79 0a 20 20
descriptor 4:    00 00 00 fe 00 4c 50 31 34 30 57 44 32 2d 54 4c 44 32
extensions:      00
checksum:        56

EDID version: 1.3
Manufacturer: LGD Model 362 Serial Number --
Made in year 2011
Digital display
Maximum image size: 31 cm x 17 cm
Gamma: 2.20
Monochrome or grayscale display
First detailed timing is preferred timing
Display x,y Chromaticity:
  Red:   0.5878, 0.3496
  Green: 0.3320, 0.5576
  Blue:  0.1552, 0.1230
  White: 0.3134, 0.3291
Established timings supported:
Standard timings supported:
Detailed mode: Clock 107.800 MHz, 309 mm x 174 mm
               1600 1648 1680 1920 hborder 0
                900  903  908  936 vborder 0
               -hsync -vsync 
               VertFreq: 59 Hz, HorFreq: 56145 Hz
Manufacturer-specified data, tag 0
ASCII string: LG Display
ASCII string: LP140WD2-TLD2
Checksum: 0x56 (valid)
EDID block does NOT conform to EDID 1.3!
	Missing name descriptor
	Missing monitor ranges
