
EDID (hex):
00ffffffffffff000daf571500000000
20120103902213780a87f594574f8c27
27505400000001010101010101010101
0101010101017e1d56c2500026301f41
4c0058c11000001a7e1d56c250002630
1f414c0058c11000001a000000fe0047
373332470a4e31353642330a00000000
00000000000000000001020a202000a5

Extracted contents:
header:          00 ff ff ff ff ff ff 00
serial number:   0d af 57 15 00 00 00 00 20 12
version:         01 03
basic params:    90 22 13 78 0a
chroma info:     87 f5 94 57 4f 8c 27 27 50 54
established:     00 00 00
standard:        01 01 01 01 01 01 01 01 01 01 01 01 01 01 01 01
descriptor 1:    7e 1d 56 c2 50 00 26 30 1f 41 4c 00 58 c1 10 00 00 1a
descriptor 2:    7e 1d 56 c2 50 00 26 30 1f 41 4c 00 58 c1 10 00 00 1a
descriptor 3:    00 00 00 fe 00 47 37 33 32 47 0a 4e 31 35 36 42 33 0a
descriptor 4:    00 00 00 00 00 00 00 00 00 00 00 00 00 01 02 0a 20 20
extensions:      00
checksum:        a5

EDID version: 1.3
Manufacturer: CMO Model 1557 Serial Number --
Made in week 32 of 2008
Digital display
Maximum image size: 34 cm x 19 cm
Gamma: 2.20
RGB color display
First detailed timing is preferred timing
Display x,y Chromaticity:
  Red:   0.5800, 0.3398
  Green: 0.3095, 0.5498
  Blue:  0.1552, 0.1552
  White: 0.3134, 0.3291
Established timings supported:
Standard timings supported:
Detailed mode: Clock 75.500 MHz, 344 mm x 193 mm
               1366 1397 1462 1560 hborder 0
                768  772  784  806 vborder 0
               +hsync -vsync 
               VertFreq: 60 Hz, HorFreq: 48397 Hz
Detailed mode: Clock 75.500 MHz, 344 mm x 193 mm
               1366 1397 1462 1560 hborder 0
                768  772  784  806 vborder 0
               +hsync -vsync 
               VertFreq: 60 Hz, HorFreq: 48397 Hz
ASCII string: G732G
Manufacturer-specified data, tag 0
Checksum: 0xa5 (valid)
EDID block does NOT conform to EDID 1.3!
	Digital display field contains garbage: 10
	Missing name descriptor
	Missing monitor ranges
	Detailed block string not properly terminated
