edid-decode (hex):

00 ff ff ff ff ff ff 00 0d af 57 15 00 00 00 00
20 12 01 03 90 22 13 78 0a 87 f5 94 57 4f 8c 27
27 50 54 00 00 00 01 01 01 01 01 01 01 01 01 01
01 01 01 01 01 01 7e 1d 56 c2 50 00 26 30 1f 41
4c 00 58 c1 10 00 00 1a 7e 1d 56 c2 50 00 26 30
1f 41 4c 00 58 c1 10 00 00 1a 00 00 00 fe 00 47
37 33 32 47 0a 4e 31 35 36 42 33 0a 00 00 00 00
00 00 00 00 00 00 00 00 00 01 02 0a 20 20 00 a5

----------------

Block 0, Base EDID:
  EDID Structure Version & Revision: 1.3
  Vendor & Product Identification:
    Manufacturer: CMO
    Model: 5463
    Made in: week 32 of 2008
  Basic Display Parameters & Features:
    Digital display
    Maximum image size: 34 cm x 19 cm
    Gamma: 2.20
    RGB color display
    First detailed timing is the preferred timing
  Color Characteristics:
    Red  : 0.5800, 0.3398
    Green: 0.3095, 0.5498
    Blue : 0.1552, 0.1552
    White: 0.3134, 0.3291
  Established Timings I & II: none
  Standard Timings: none
  Detailed Timing Descriptors:
    DTD 1:  1366x768    60.046447 Hz 683:384   48.397 kHz     75.500000 MHz (344 mm x 193 mm)
                 Hfront   31 Hsync  65 Hback   98 Hpol P
                 Vfront    4 Vsync  12 Vback   22 Vpol N
    DTD 2:  1366x768    60.046447 Hz 683:384   48.397 kHz     75.500000 MHz (344 mm x 193 mm)
                 Hfront   31 Hsync  65 Hback   98 Hpol P
                 Vfront    4 Vsync  12 Vback   22 Vpol N
    Alphanumeric Data String: 'G732G'
    Manufacturer-Specified Display Descriptor (0x00): 00 00 00 00 00 00 00 00 00 00 00 01 02 0a 20 20 '..............  '
Checksum: 0xa5

----------------

Failures:

Block 0, Base EDID:
  Basic Display Parameters & Features: Digital Video Interface Standard set to reserved value 0x10.
  Alphanumeric Data String: Non-space after newline.
  Missing Display Product Name.
  Missing Display Range Limits Descriptor.

EDID conformity: FAIL
