
EDID (hex):
00ffffffffffff0009e54e0800000000
2f1c0104a5261578039e05945c59952b
23505400000001010101010101010101
0101010101013b3880de703828403020
36007ed71000001a3b3880de70385842
302036007ed71000001a000000fd0028
3c43430f010a202020202020000000fe
004e5631373346484d2d4e34390a00cb

Extracted contents:
header:          00 ff ff ff ff ff ff 00
serial number:   09 e5 4e 08 00 00 00 00 2f 1c
version:         01 04
basic params:    a5 26 15 78 03
chroma info:     9e 05 94 5c 59 95 2b 23 50 54
established:     00 00 00
standard:        01 01 01 01 01 01 01 01 01 01 01 01 01 01 01 01
descriptor 1:    3b 38 80 de 70 38 28 40 30 20 36 00 7e d7 10 00 00 1a
descriptor 2:    3b 38 80 de 70 38 58 42 30 20 36 00 7e d7 10 00 00 1a
descriptor 3:    00 00 00 fd 00 28 3c 43 43 0f 01 0a 20 20 20 20 20 20
descriptor 4:    00 00 00 fe 00 4e 56 31 37 33 46 48 4d 2d 4e 34 39 0a
extensions:      00
checksum:        cb

EDID version: 1.4
Manufacturer: BOE Model 84e Serial Number --
Made in week 47 of 2018
Digital display
8 bits per primary color channel
DisplayPort interface
Maximum image size: 38 cm x 21 cm
Gamma: 2.20
Supported color formats: RGB 4:4:4
First detailed timing includes the native pixel format and preferred refresh rate
Display is continuous frequency
Display x,y Chromaticity:
  Red:   0.5800, 0.3603
  Green: 0.3505, 0.5839
  Blue:  0.1679, 0.1367
  White: 0.3134, 0.3291
Established timings supported:
Standard timings supported:
Detailed mode: Clock 143.950 MHz, 382 mm x 215 mm
               1920 1968 2000 2142 hborder 0
               1080 1083 1089 1120 vborder 0
               +hsync -vsync 
               VertFreq: 60 Hz, HorFreq: 67203 Hz
Detailed mode: Clock 143.950 MHz, 382 mm x 215 mm
               1920 1968 2000 2142 hborder 0
               1080 1083 1089 1680 vborder 0
               +hsync -vsync 
               VertFreq: 40 Hz, HorFreq: 67203 Hz
Monitor ranges (bare limits): 40-60Hz V, 67-67kHz H, max dotclock 150MHz
ASCII string: NV173FHM-N49
Checksum: 0xcb (valid)
EDID block does NOT conform to EDID 1.4!
	Missing name descriptor
Warning: One or more of the timings is out of range of the Monitor Ranges:
  Vertical Freq: 40 - 60 Hz
  Horizontal Freq: 67203 - 67203 Hz
  Maximum Clock: 143.950 MHz
