
EDID (hex):
00ffffffffffff0009e5bf0a00000000
261f0104b52213780754a5a7544c9b26
0f505400000001010101010101010101
010101010101fe3880a0703859403020
360058c21000001a000000fd0030a5c1
c128010a202020202020000000fe0042
4f452043510a202020202020000000fe
004e5631353646484d2d4e59300a01b6
7013790000030114b99c00847f079f00
2f001f00370458000200050000000000
00000000000000000000000000000000
00000000000000000000000000000000
00000000000000000000000000000000
00000000000000000000000000000000
00000000000000000000000000000000
00000000000000000000000000007690

Extracted contents:
header:          00 ff ff ff ff ff ff 00
serial number:   09 e5 bf 0a 00 00 00 00 26 1f
version:         01 04
basic params:    b5 22 13 78 07
chroma info:     54 a5 a7 54 4c 9b 26 0f 50 54
established:     00 00 00
standard:        01 01 01 01 01 01 01 01 01 01 01 01 01 01 01 01
descriptor 1:    fe 38 80 a0 70 38 59 40 30 20 36 00 58 c2 10 00 00 1a
descriptor 2:    00 00 00 fd 00 30 a5 c1 c1 28 01 0a 20 20 20 20 20 20
descriptor 3:    00 00 00 fe 00 42 4f 45 20 43 51 0a 20 20 20 20 20 20
descriptor 4:    00 00 00 fe 00 4e 56 31 35 36 46 48 4d 2d 4e 59 30 0a
extensions:      01
checksum:        b6

EDID version: 1.4
Manufacturer: BOE Model abf Serial Number --
Made in week 38 of 2021
Digital display
10 bits per primary color channel
DisplayPort interface
Maximum image size: 34 cm x 19 cm
Gamma: 2.20
Supported color formats: RGB 4:4:4
Default (sRGB) color space is primary color space
First detailed timing includes the native pixel format and preferred refresh rate
Display is continuous frequency
Display x,y Chromaticity:
  Red:   0.6533, 0.3291
  Green: 0.2978, 0.6054
  Blue:  0.1503, 0.0605
  White: 0.3134, 0.3291
Established timings supported:
Standard timings supported:
Detailed mode: Clock 145.900 MHz, 344 mm x 194 mm
               1920 1968 2000 2080 hborder 0
               1080 1083 1089 1169 vborder 0
               +hsync -vsync 
               VertFreq: 60 Hz, HorFreq: 70144 Hz
Monitor ranges (bare limits): 48-165Hz V, 193-193kHz H, max dotclock 400MHz
ASCII string: BOE CQ
ASCII string: NV156FHM-NY0
Has 1 extension blocks
Checksum: 0xb6 (valid)

DisplayID extension block
Extension version: 19
Length 121, version 19, extension count 0
Checksum: 0x76 (valid)
Type 1 detailed timing: aspect: 16:9, Preferred  
Detailed mode: Clock 401.210 MHz, 0 mm x 0 mm
               1919 1966 1997 2078
               1079 1081 1086 1167
               -hsync -vsync

EDID block does NOT conform to EDID 1.4!
	sRGB is signaled, but the chromaticities do not match
	Missing name descriptor
Warning: One or more of the timings is out of range of the Monitor Ranges:
  Vertical Freq: 60 - 60 Hz
  Horizontal Freq: 70144 - 70144 Hz
  Maximum Clock: 145.900 MHz
EDID block does not conform at all!
	Has 1241513984 nonconformant extension block(s)
