edid-decode (hex):

00 ff ff ff ff ff ff 00 1a b3 40 05 01 00 00 00
29 0e 01 03 68 1f 17 78 2a 06 1a a2 5a 4c 96 25
19 4f 54 a5 4a 00 31 4f 45 4f 61 4f 01 01 01 01
01 01 01 01 01 01 64 19 00 40 41 00 26 30 18 88
36 00 30 e4 10 00 00 18 00 00 00 fc 00 54 31 35
2d 31 0a 20 20 20 20 20 20 20 00 00 00 fd 00 37
4e 1c 3f 08 00 0a 20 20 20 20 20 20 00 00 00 ff
00 59 45 45 46 30 33 30 30 39 31 0a 20 20 00 2a

00 ff ff ff ff ff ff 00 1a b3 40 05 01 00 00 00
29 0e 01 03 68 1f 17 78 2a 06 1a a2 5a 4c 96 25
19 4f 54 a5 4a 00 31 4f 45 4f 61 4f 01 01 01 01
01 01 01 01 01 01 64 19 00 40 41 00 26 30 18 88
36 00 30 e4 10 00 00 18 00 00 00 fc 00 54 31 35
2d 31 0a 20 20 20 20 20 20 20 00 00 00 fd 00 37
4e 1c 3f 08 00 0a 20 20 20 20 20 20 00 00 00 ff
00 59 45 45 46 30 33 30 30 39 31 0a 20 20 00 2a

----------------

Block 0, Base EDID:
  EDID Structure Version & Revision: 1.3
  Vendor & Product Identification:
    Manufacturer: FUS
    Model: 1344
    Serial Number: ...
    Made in: week 41 of 2004
  Basic Display Parameters & Features:
    Analog display
    Signal Level Standard: 0.700 : 0.000 : 0.700 V p-p
    Blank level equals black level
    Sync: Separate
    Maximum image size: 31 cm x 23 cm
    Gamma: 2.20
    DPMS levels: Off
    RGB color display
    First detailed timing is the preferred timing
  Color Characteristics:
    Red  : 0.6328, 0.3515
    Green: 0.2978, 0.5878
    Blue : 0.1445, 0.0986
    White: 0.3105, 0.3300
  Established Timings I & II:
    IBM     :   720x400    70.081663 Hz   9:5     31.467 kHz     28.320000 MHz
    DMT 0x04:   640x480    59.940476 Hz   4:3     31.469 kHz     25.175000 MHz
    DMT 0x06:   640x480    75.000000 Hz   4:3     37.500 kHz     31.500000 MHz
    DMT 0x09:   800x600    60.316541 Hz   4:3     37.879 kHz     40.000000 MHz
    DMT 0x0b:   800x600    75.000000 Hz   4:3     46.875 kHz     49.500000 MHz
    DMT 0x10:  1024x768    60.003840 Hz   4:3     48.363 kHz     65.000000 MHz
    DMT 0x12:  1024x768    75.028582 Hz   4:3     60.023 kHz     78.750000 MHz
  Standard Timings:
    DMT 0x06:   640x480    75.000000 Hz   4:3     37.500 kHz     31.500000 MHz
    DMT 0x0b:   800x600    75.000000 Hz   4:3     46.875 kHz     49.500000 MHz
    DMT 0x12:  1024x768    75.028582 Hz   4:3     60.023 kHz     78.750000 MHz
  Detailed Timing Descriptors:
    DTD 1:  1024x768    60.003840 Hz   4:3     48.363 kHz     65.000000 MHz (304 mm x 228 mm)
                 Hfront   24 Hsync 136 Hback  160 Hpol N
                 Vfront    3 Vsync   6 Vback   29 Vpol N
    Display Product Name: 'T15-1'
    Display Range Limits:
      Monitor ranges (GTF): 55-78 Hz V, 28-63 kHz H, max dotclock 80 MHz
    Display Product Serial Number: ...
Checksum: 0x2a

----------------

Block 1, Unknown EDID Extension Block 0x00:
  00 ff ff ff ff ff ff 00 1a b3 40 05 01 00 00 00 '..........@.....'
  29 0e 01 03 68 1f 17 78 2a 06 1a a2 5a 4c 96 25 ')...h..x*...ZL.%'
  19 4f 54 a5 4a 00 31 4f 45 4f 61 4f 01 01 01 01 '.OT.J.1OEOaO....'
  01 01 01 01 01 01 64 19 00 40 41 00 26 30 18 88 '......d..@A.&0..'
  36 00 30 e4 10 00 00 18 00 00 00 fc 00 54 31 35 '6.0..........T15'
  2d 31 0a 20 20 20 20 20 20 20 00 00 00 fd 00 37 '-1.       .....7'
  4e 1c 3f 08 00 0a 20 20 20 20 20 20 00 00 00 ff 'N.?...      ....'
  00 59 45 45 46 30 33 30 30 39 31 0a 20 20 00 2a '.YEEF030091.  .*'
Checksum: 0x2a

----------------

Failures:

Block 1, Base EDID:
  Unknown Extension Block.
EDID:
  Base EDID: EDID specified 0 extension block(s), but found 1 extension block(s).

EDID conformity: FAIL
