edid-decode (hex):

00 ff ff ff ff ff ff 00 2c 83 09 01 00 00 00 00
02 1b 01 04 95 1a 0e 78 02 b0 90 97 58 54 92 26
1d 50 54 00 00 00 01 01 01 01 01 01 01 01 01 01
01 01 01 01 01 01 ce 1d 56 f4 50 00 16 30 30 20
36 00 00 90 10 00 00 1a e2 13 56 f4 50 00 16 30
30 20 36 00 00 90 10 00 00 00 00 00 00 00 00 00
00 00 00 00 00 00 00 00 00 00 00 00 00 00 00 fe
00 4b 44 31 31 36 4e 30 35 33 30 42 30 37 00 fe

----------------

Block 0, Base EDID:
  EDID Structure Version & Revision: 1.4
  Vendor & Product Identification:
    Manufacturer: KDC
    Model: 265
    Made in: week 2 of 2017
  Basic Display Parameters & Features:
    Digital display
    Bits per primary color channel: 6
    DisplayPort interface
    Maximum image size: 26 cm x 14 cm
    Gamma: 2.20
    Supported color formats: RGB 4:4:4
    First detailed timing includes the native pixel format and preferred refresh rate
  Color Characteristics:
    Red  : 0.5917, 0.3466
    Green: 0.3281, 0.5703
    Blue : 0.1503, 0.1142
    White: 0.3125, 0.3281
  Established Timings I & II: none
  Standard Timings: none
  Detailed Timing Descriptors:
    DTD 1:  1366x768    59.989 Hz 683:384  47.391 kHz  76.300 MHz (256 mm x 144 mm)
                 Hfront   48 Hsync  32 Hback 164 Hpol P
                 Vfront    3 Vsync   6 Vback  13 Vpol N
    DTD 2:  1366x768    40.019 Hz 683:384  31.615 kHz  50.900 MHz (analog composite, sync-on-green, 256 mm x 144 mm)
                 Hfront   48 Hsync  32 Hback 164 Hpol N
                 Vfront    3 Vsync   6 Vback  13 Vpol N
    Empty Descriptor
    Alphanumeric Data String: 'KD116N0530B07'
Checksum: 0xfe
