
EDID (hex):
00ffffffffffff0012e5950150195019
10170103802b18782ac905a3574b9c25
125054bfce009500810081c06140810f
614f4540454f7c2e401062841c3060a8
1300b0f01000001e9a29a0d051842230
50983600b0f01000001c000000fd0038
4b1e510e000a202020202020000000fc
0031392e35206d6f6e69746f720a0094

Extracted contents:
header:          00 ff ff ff ff ff ff 00
serial number:   12 e5 95 01 50 19 50 19 10 17
version:         01 03
basic params:    80 2b 18 78 2a
chroma info:     c9 05 a3 57 4b 9c 25 12 50 54
established:     bf ce 00
standard:        95 00 81 00 81 c0 61 40 81 0f 61 4f 45 40 45 4f
descriptor 1:    7c 2e 40 10 62 84 1c 30 60 a8 13 00 b0 f0 10 00 00 1e
descriptor 2:    9a 29 a0 d0 51 84 22 30 50 98 36 00 b0 f0 10 00 00 1c
descriptor 3:    00 00 00 fd 00 38 4b 1e 51 0e 00 0a 20 20 20 20 20 20
descriptor 4:    00 00 00 fc 00 31 39 2e 35 20 6d 6f 6e 69 74 6f 72 0a
extensions:      00
checksum:        94

EDID version: 1.3
Manufacturer: DWE Model 195 Serial Number --
Made in week 16 of 2013
Digital display
Maximum image size: 43 cm x 24 cm
Gamma: 2.20
DPMS levels: Off
RGB color display
First detailed timing is preferred timing
Display x,y Chromaticity:
  Red:   0.6396, 0.3398
  Green: 0.2949, 0.6103
  Blue:  0.1445, 0.0703
  White: 0.3134, 0.3291
Established timings supported:
  720x400@70Hz 9:5 HorFreq: 31469 Hz Clock: 28.320 MHz
  640x480@60Hz 4:3 HorFreq: 31469 Hz Clock: 25.175 MHz
  640x480@67Hz 4:3 HorFreq: 35000 Hz Clock: 30.240 MHz
  640x480@72Hz 4:3 HorFreq: 37900 Hz Clock: 31.500 MHz
  640x480@75Hz 4:3 HorFreq: 37500 Hz Clock: 31.500 MHz
  800x600@56Hz 4:3 HorFreq: 35200 Hz Clock: 36.000 MHz
  800x600@60Hz 4:3 HorFreq: 37900 Hz Clock: 40.000 MHz
  800x600@72Hz 4:3 HorFreq: 48100 Hz Clock: 50.000 MHz
  800x600@75Hz 4:3 HorFreq: 46900 Hz Clock: 49.500 MHz
  1024x768@60Hz 4:3 HorFreq: 48400 Hz Clock: 65.000 MHz
  1024x768@70Hz 4:3 HorFreq: 56500 Hz Clock: 75.000 MHz
  1024x768@75Hz 4:3 HorFreq: 60000 Hz Clock: 78.750 MHz
Standard timings supported:
  1440x900@60Hz 16:10 HorFreq: 55500 Hz Clock: 88.750 MHz
  1280x800@60Hz 16:10
  1280x720@60Hz 16:9
  1024x768@60Hz 4:3 HorFreq: 48400 Hz Clock: 65.000 MHz
  1280x800@75Hz 16:10
  1024x768@75Hz 4:3 HorFreq: 60000 Hz Clock: 78.750 MHz
  800x600@60Hz 4:3 HorFreq: 37900 Hz Clock: 40.000 MHz
  800x600@75Hz 4:3 HorFreq: 46900 Hz Clock: 49.500 MHz
Detailed mode: Clock 119.000 MHz, 432 mm x 240 mm
               1600 1696 1864 2128 hborder 0
                900  901  904  928 vborder 0
               +hsync +vsync 
               VertFreq: 60 Hz, HorFreq: 55921 Hz
Detailed mode: Clock 106.500 MHz, 432 mm x 240 mm
               1440 1520 1672 1904 hborder 0
                900  903  909  934 vborder 0
               -hsync +vsync 
               VertFreq: 59 Hz, HorFreq: 55934 Hz
Monitor ranges (GTF): 56-75Hz V, 30-81kHz H, max dotclock 140MHz
Monitor name: 19.5 monitor
Checksum: 0x94 (valid)
