
EDID (hex):
00ffffffffffff0026cf4a8500000000
001f0104a51d12780376909455549027
21505400000001010101010101010101
010101010101103c80a070b020401830
3c001eb310000019000000fd00283c4a
4a0f010a202020202020000000fe0049
6e666f566973696f6e0a2020000000fe
004d3133334e57344a205234200a00a6

Extracted contents:
header:          00 ff ff ff ff ff ff 00
serial number:   26 cf 4a 85 00 00 00 00 00 1f
version:         01 04
basic params:    a5 1d 12 78 03
chroma info:     76 90 94 55 54 90 27 21 50 54
established:     00 00 00
standard:        01 01 01 01 01 01 01 01 01 01 01 01 01 01 01 01
descriptor 1:    10 3c 80 a0 70 b0 20 40 18 30 3c 00 1e b3 10 00 00 19
descriptor 2:    00 00 00 fd 00 28 3c 4a 4a 0f 01 0a 20 20 20 20 20 20
descriptor 3:    00 00 00 fe 00 49 6e 66 6f 56 69 73 69 6f 6e 0a 20 20
descriptor 4:    00 00 00 fe 00 4d 31 33 33 4e 57 34 4a 20 52 34 20 0a
extensions:      00
checksum:        a6

EDID version: 1.4
Manufacturer: IVO Model 854a Serial Number --
Made in year 2021
Digital display
8 bits per primary color channel
DisplayPort interface
Maximum image size: 29 cm x 18 cm
Gamma: 2.20
Supported color formats: RGB 4:4:4
First detailed timing includes the native pixel format and preferred refresh rate
Display is continuous frequency
Display x,y Chromaticity:
  Red:   0.5791, 0.3349
  Green: 0.3291, 0.5644
  Blue:  0.1542, 0.1298
  White: 0.3125, 0.3281
Established timings supported:
Standard timings supported:
Detailed mode: Clock 153.760 MHz, 286 mm x 179 mm
               1920 1944 1992 2080 hborder 0
               1200 1203 1215 1232 vborder 0
               -hsync -vsync 
               VertFreq: 60 Hz, HorFreq: 73923 Hz
Monitor ranges (bare limits): 40-60Hz V, 74-74kHz H, max dotclock 150MHz
ASCII string: InfoVision
ASCII string: M133NW4J R4 
Checksum: 0xa6 (valid)
EDID block does NOT conform to EDID 1.4!
	Missing name descriptor
Warning: One or more of the timings is out of range of the Monitor Ranges:
  Vertical Freq: 60 - 60 Hz
  Horizontal Freq: 73923 - 73923 Hz
  Maximum Clock: 153.760 MHz


