edid-decode (hex):

00 ff ff ff ff ff ff 00 22 f0 12 42 01 00 00 00
19 16 01 03 80 33 1d 78 0a e9 90 a2 54 4d a0 26
11 50 54 00 00 00 01 01 01 01 01 01 01 01 01 01
01 01 01 01 01 01 21 38 80 00 71 38 14 40 60 40
84 00 fe 1f 11 00 00 18 00 00 00 fe 00 56 30 36
0a 20 20 20 20 20 20 20 20 20 00 00 00 fc 00 48
50 51 20 38 33 30 30 20 41 69 4f 0a 00 00 00 fe
00 4c 4d 32 33 30 57 46 35 2d 54 4c 46 32 00 79

----------------

Block 0, Base EDID:
  EDID Structure Version & Revision: 1.3
  Vendor & Product Identification:
    Manufacturer: HWP
    Model: 16914
    Serial Number: ...
    Made in: week 25 of 2012
  Basic Display Parameters & Features:
    Digital display
    Maximum image size: 51 cm x 29 cm
    Gamma: 2.20
    RGB color display
    First detailed timing is the preferred timing
  Color Characteristics:
    Red  : 0.6357, 0.3300
    Green: 0.3027, 0.6259
    Blue : 0.1503, 0.0673
    White: 0.3125, 0.3281
  Established Timings I & II: none
  Standard Timings: none
  Detailed Timing Descriptors:
    DTD 1:  1920x1080   60.031 Hz  16:9    66.034 kHz 143.690 MHz (510 mm x 287 mm)
                 Hfront   96 Hsync  64 Hback  96 Hpol N
                 Vfront    8 Vsync   4 Vback   8 Vpol N
    Alphanumeric Data String: 'V06'
    Display Product Name: 'HPQ 8300 AiO'
    Alphanumeric Data String: 'LM230WF5-TLF2'
Checksum: 0x79

----------------

Failures:

Block 0, Base EDID:
  Missing Display Range Limits Descriptor.

EDID conformity: FAIL
