
EDID (hex):
00ffffffffffff004ca3445000000000
011401049526157802a0558d515a962a
1c505400000001010101010101010101
0101010101015f3980dc703840403020
35007ed71000001b0000000f00000000
00000000003c9610fe00000000fe0053
414d53554e470a2020202020000000fc
00313733485430322d5430310a2001ea
02010400f25c80a07038404030203500
7ed71000001b3d6680a0703840403020
35007ed71000001b896f80a070384040
302035007ed71000001b000000000000
00000000000000000000000000000000
00000000000000000000000000000000
00000000000000000000000000000000
00000000000000000000000000000029

Extracted contents:
header:          00 ff ff ff ff ff ff 00
serial number:   4c a3 44 50 00 00 00 00 01 14
version:         01 04
basic params:    95 26 15 78 02
chroma info:     a0 55 8d 51 5a 96 2a 1c 50 54
established:     00 00 00
standard:        01 01 01 01 01 01 01 01 01 01 01 01 01 01 01 01
descriptor 1:    5f 39 80 dc 70 38 40 40 30 20 35 00 7e d7 10 00 00 1b
descriptor 2:    00 00 00 0f 00 00 00 00 00 00 00 00 00 3c 96 10 fe 00
descriptor 3:    00 00 00 fe 00 53 41 4d 53 55 4e 47 0a 20 20 20 20 20
descriptor 4:    00 00 00 fc 00 31 37 33 48 54 30 32 2d 54 30 31 0a 20
extensions:      01
checksum:        ea

EDID version: 1.4
Manufacturer: SEC Model 5044 Serial Number --
Made in week 1 of 2010
Digital display
6 bits per primary color channel
DisplayPort interface
Maximum image size: 38 cm x 21 cm
Gamma: 2.20
Supported color formats: RGB 4:4:4
First detailed timing includes the native pixel format and preferred refresh rate
Display x,y Chromaticity:
  Red:   0.5527, 0.3183
  Green: 0.3515, 0.5859
  Blue:  0.1650, 0.1103
  White: 0.3134, 0.3291
Established timings supported:
Standard timings supported:
Detailed mode: Clock 146.870 MHz, 382 mm x 215 mm
               1920 1968 2000 2140 hborder 0
               1080 1083 1088 1144 vborder 0
               +hsync -vsync 
               VertFreq: 59 Hz, HorFreq: 68630 Hz
Manufacturer-specified data, tag 15
ASCII string: SAMSUNG
Monitor name: 173HT02-T01
Has 1 extension blocks
Checksum: 0xea (valid)

CTA extension block
Extension version: 1
0 8-byte timing descriptors
Detailed mode: Clock 237.940 MHz, 382 mm x 215 mm
               1920 1968 2000 2080 hborder 0
               1080 1083 1088 1144 vborder 0
               +hsync -vsync 
               VertFreq: 99 Hz, HorFreq: 114394 Hz
Detailed mode: Clock 261.730 MHz, 382 mm x 215 mm
               1920 1968 2000 2080 hborder 0
               1080 1083 1088 1144 vborder 0
               +hsync -vsync 
               VertFreq: 109 Hz, HorFreq: 125831 Hz
Detailed mode: Clock 285.530 MHz, 382 mm x 215 mm
               1920 1968 2000 2080 hborder 0
               1080 1083 1088 1144 vborder 0
               +hsync -vsync 
               VertFreq: 119 Hz, HorFreq: 137274 Hz
Checksum: 0x29 (valid)

EDID block does NOT conform to EDID 1.4!
	Required 640x480p60 timings are missing in the established timings
	and/or in the SVD list (VIC 1)
	Missing monitor ranges
