
EDID (hex):
00ffffffffffff004ca3445000000000
01140104952615780287f594574f8c27
27505400000001010101010101010101
0101010101015f3980dc703840403020
35007ed71000001b0000000f00000000
00000000003c9610fe00000000fe0053
414d53554e470a2020202020000000fe
004c544e3137334854303250303101ce
02010400f25c80a07038404030203500
7ed71000001b3d6680a0703840403020
35007ed71000001b896f80a070384040
302035007ed71000001b000000000000
00000000000000000000000000000000
00000000000000000000000000000000
00000000000000000000000000000000
00000000000000000000000000000029

Extracted contents:
header:          00 ff ff ff ff ff ff 00
serial number:   4c a3 44 50 00 00 00 00 01 14
version:         01 04
basic params:    95 26 15 78 02
chroma info:     87 f5 94 57 4f 8c 27 27 50 54
established:     00 00 00
standard:        01 01 01 01 01 01 01 01 01 01 01 01 01 01 01 01
descriptor 1:    5f 39 80 dc 70 38 40 40 30 20 35 00 7e d7 10 00 00 1b
descriptor 2:    00 00 00 0f 00 00 00 00 00 00 00 00 00 3c 96 10 fe 00
descriptor 3:    00 00 00 fe 00 53 41 4d 53 55 4e 47 0a 20 20 20 20 20
descriptor 4:    00 00 00 fe 00 4c 54 4e 31 37 33 48 54 30 32 50 30 31
extensions:      01
checksum:        ce

EDID version: 1.4
Manufacturer: SEC Model 5044 Serial Number --
Made in week 1 of 2010
Digital display
6 bits per primary color channel
DisplayPort interface
Maximum image size: 38 cm x 21 cm
Gamma: 2.20
Supported color formats: RGB 4:4:4
First detailed timing includes the native pixel format and preferred refresh rate
Display x,y Chromaticity:
  Red:   0.5800, 0.3398
  Green: 0.3095, 0.5498
  Blue:  0.1552, 0.1552
  White: 0.3134, 0.3291
Established timings supported:
Standard timings supported:
Detailed mode: Clock 146.870 MHz, 382 mm x 215 mm
               1920 1968 2000 2140 hborder 0
               1080 1083 1088 1144 vborder 0
               +hsync -vsync 
               VertFreq: 59 Hz, HorFreq: 68630 Hz
Manufacturer-specified data, tag 15
ASCII string: SAMSUNG
ASCII string: LTN173HT02P01
Has 1 extension blocks
Checksum: 0xce (valid)

CTA extension block
Extension version: 1
0 8-byte timing descriptors
Detailed mode: Clock 237.940 MHz, 382 mm x 215 mm
               1920 1968 2000 2080 hborder 0
               1080 1083 1088 1144 vborder 0
               +hsync -vsync 
               VertFreq: 99 Hz, HorFreq: 114394 Hz
Detailed mode: Clock 261.730 MHz, 382 mm x 215 mm
               1920 1968 2000 2080 hborder 0
               1080 1083 1088 1144 vborder 0
               +hsync -vsync 
               VertFreq: 109 Hz, HorFreq: 125831 Hz
Detailed mode: Clock 285.530 MHz, 382 mm x 215 mm
               1920 1968 2000 2080 hborder 0
               1080 1083 1088 1144 vborder 0
               +hsync -vsync 
               VertFreq: 119 Hz, HorFreq: 137274 Hz
Checksum: 0x29 (valid)

EDID block does NOT conform to EDID 1.4!
	Required 640x480p60 timings are missing in the established timings
	and/or in the SVD list (VIC 1)
	Missing name descriptor
	Missing monitor ranges
