edid-decode (hex):

00 ff ff ff ff ff ff 00 04 69 aa 20 00 00 00 00
25 15 01 03 80 2c 19 78 ea d2 85 a3 58 53 9e 26
0f 50 54 bf ef 00 71 4f 81 40 81 80 81 c0 81 00
a9 c0 01 01 01 01 31 2e 40 00 62 84 22 30 58 a8
35 00 bb f9 10 00 00 1d 00 00 00 fd 00 37 4b 1f
55 11 00 0a 20 20 20 20 20 20 00 00 00 ff 00 42
39 4c 4d 49 42 35 32 32 39 30 30 0a 00 00 00 fc
00 41 53 55 53 20 56 53 32 30 38 0a 20 20 00 75

00 ff ff ff ff ff ff 00 04 69 aa 20 00 00 00 00
25 15 01 03 80 2c 19 78 ea d2 85 a3 58 53 9e 26
0f 50 54 bf ef 00 71 4f 81 40 81 80 81 c0 81 00
a9 c0 01 01 01 01 31 2e 40 00 62 84 22 30 58 a8
35 00 bb f9 10 00 00 1d 00 00 00 fd 00 37 4b 1f
55 11 00 0a 20 20 20 20 20 20 00 00 00 ff 00 42
39 4c 4d 49 42 35 32 32 39 30 30 0a 00 00 00 fc
00 41 53 55 53 20 56 53 32 30 38 0a 20 20 00 75

----------------

Block 0, Base EDID:
  EDID Structure Version & Revision: 1.3
  Vendor & Product Identification:
    Manufacturer: ACI
    Model: 8362
    Made in: week 37 of 2011
  Basic Display Parameters & Features:
    Digital display
    Maximum image size: 44 cm x 25 cm
    Gamma: 2.20
    DPMS levels: Standby Suspend Off
    RGB color display
    First detailed timing is the preferred timing
  Color Characteristics:
    Red  : 0.6396, 0.3447
    Green: 0.3242, 0.6191
    Blue : 0.1503, 0.0585
    White: 0.3134, 0.3291
  Established Timings I & II:
    IBM     :   720x400    70.081663 Hz   9:5     31.467 kHz     28.320000 MHz
    DMT 0x04:   640x480    59.940476 Hz   4:3     31.469 kHz     25.175000 MHz
    Apple   :   640x480    66.666667 Hz   4:3     35.000 kHz     30.240000 MHz
    DMT 0x05:   640x480    72.808802 Hz   4:3     37.861 kHz     31.500000 MHz
    DMT 0x06:   640x480    75.000000 Hz   4:3     37.500 kHz     31.500000 MHz
    DMT 0x08:   800x600    56.250000 Hz   4:3     35.156 kHz     36.000000 MHz
    DMT 0x09:   800x600    60.316541 Hz   4:3     37.879 kHz     40.000000 MHz
    DMT 0x0a:   800x600    72.187572 Hz   4:3     48.077 kHz     50.000000 MHz
    DMT 0x0b:   800x600    75.000000 Hz   4:3     46.875 kHz     49.500000 MHz
    Apple   :   832x624    74.551266 Hz   4:3     49.726 kHz     57.284000 MHz
    DMT 0x10:  1024x768    60.003840 Hz   4:3     48.363 kHz     65.000000 MHz
    DMT 0x11:  1024x768    70.069359 Hz   4:3     56.476 kHz     75.000000 MHz
    DMT 0x12:  1024x768    75.028582 Hz   4:3     60.023 kHz     78.750000 MHz
    DMT 0x24:  1280x1024   75.024675 Hz   5:4     79.976 kHz    135.000000 MHz
  Standard Timings:
    DMT 0x15:  1152x864    75.000000 Hz   4:3     67.500 kHz    108.000000 MHz
    DMT 0x20:  1280x960    60.000000 Hz   4:3     60.000 kHz    108.000000 MHz
    DMT 0x23:  1280x1024   60.019740 Hz   5:4     63.981 kHz    108.000000 MHz
    DMT 0x55:  1280x720    60.000000 Hz  16:9     45.000 kHz     74.250000 MHz
    DMT 0x1c:  1280x800    59.810326 Hz  16:10    49.702 kHz     83.500000 MHz
    DMT 0x53:  1600x900    60.000000 Hz  16:9     60.000 kHz    108.000000 MHz (RB)
  Detailed Timing Descriptors:
    DTD 1:  1600x900    59.946021 Hz  16:9     55.990 kHz    118.250000 MHz (443 mm x 249 mm)
                 Hfront   88 Hsync 168 Hback  256 Hpol N
                 Vfront    3 Vsync   5 Vback   26 Vpol P
    Display Range Limits:
      Monitor ranges (GTF): 55-75 Hz V, 31-85 kHz H, max dotclock 170 MHz
    Display Product Serial Number: ...
    Display Product Name: 'ASUS VS208'
Checksum: 0x75

----------------

Block 1, Unknown EDID Extension Block 0x00:
  00 ff ff ff ff ff ff 00 04 69 aa 20 00 00 00 00 '.........i. ....'
  25 15 01 03 80 2c 19 78 ea d2 85 a3 58 53 9e 26 '%....,.x....XS.&'
  0f 50 54 bf ef 00 71 4f 81 40 81 80 81 c0 81 00 '.PT...qO.@......'
  a9 c0 01 01 01 01 31 2e 40 00 62 84 22 30 58 a8 '......1.@.b."0X.'
  35 00 bb f9 10 00 00 1d 00 00 00 fd 00 37 4b 1f '5............7K.'
  55 11 00 0a 20 20 20 20 20 20 00 00 00 ff 00 42 'U...      .....B'
  39 4c 4d 49 42 35 32 32 39 30 30 0a 00 00 00 fc '9LMIB522900.....'
  00 41 53 55 53 20 56 53 32 30 38 0a 20 20 00 75 '.ASUS VS208.  .u'
Checksum: 0x75

----------------

Failures:

Block 1, Base EDID:
  Unknown Extension Block.
EDID:
  Base EDID: EDID specified 0 extension block(s), but found 1 extension block(s).

EDID conformity: FAIL
