
EDID (hex):
00ffffffffffff0025cc070000000000
00130103802213780ac8859e57549b26
12505400000001010101010101010101
010101010101121b5666500013301911
330058c2100000190000000000000000
00000000000000000000000000fe0049
4e4c446973706c61790a2020000000fc
0042543135364757303100562e3300a2

Extracted contents:
header:          00 ff ff ff ff ff ff 00
serial number:   25 cc 07 00 00 00 00 00 00 13
version:         01 03
basic params:    80 22 13 78 0a
chroma info:     c8 85 9e 57 54 9b 26 12 50 54
established:     00 00 00
standard:        01 01 01 01 01 01 01 01 01 01 01 01 01 01 01 01
descriptor 1:    12 1b 56 66 50 00 13 30 19 11 33 00 58 c2 10 00 00 19
descriptor 2:    00 00 00 00 00 00 00 00 00 00 00 00 00 00 00 00 00 00
descriptor 3:    00 00 00 fe 00 49 4e 4c 44 69 73 70 6c 61 79 0a 20 20
descriptor 4:    00 00 00 fc 00 42 54 31 35 36 47 57 30 31 00 56 2e 33
extensions:      00
checksum:        a2

EDID version: 1.3
Manufacturer: INL Model 7 Serial Number --
Made in year 2009
Digital display
Maximum image size: 34 cm x 19 cm
Gamma: 2.20
RGB color display
First detailed timing is preferred timing
Display x,y Chromaticity:
  Red:   0.6201, 0.3398
  Green: 0.3300, 0.6054
  Blue:  0.1503, 0.0703
  White: 0.3134, 0.3291
Established timings supported:
Standard timings supported:
Detailed mode: Clock 69.300 MHz, 344 mm x 194 mm
               1366 1391 1408 1468 hborder 0
                768  771  774  787 vborder 0
               -hsync -vsync 
               VertFreq: 59 Hz, HorFreq: 47207 Hz
Manufacturer-specified data, tag 0
ASCII string: INLDisplay
Checksum: 0xa2 (valid)
EDID block does NOT conform to EDID 1.3!
	Name descriptor not terminated with a newline
	Missing monitor ranges
