
EDID (hex):
00ffffffffffff0030e48a0400000000
00170104951c1078024bb59b5b548e25
1e505400000001010101010101010101
010101010101143780c270381f403c2e
3500149c1000001b0000000000000000
00000000000000000000000000000000
00000000000000000000000000000002
000c33ff0f3c961c0f2496000000002a

Extracted contents:
header:          00 ff ff ff ff ff ff 00
serial number:   30 e4 8a 04 00 00 00 00 00 17
version:         01 04
basic params:    95 1c 10 78 02
chroma info:     4b b5 9b 5b 54 8e 25 1e 50 54
established:     00 00 00
standard:        01 01 01 01 01 01 01 01 01 01 01 01 01 01 01 01
descriptor 1:    14 37 80 c2 70 38 1f 40 3c 2e 35 00 14 9c 10 00 00 1b
descriptor 2:    00 00 00 00 00 00 00 00 00 00 00 00 00 00 00 00 00 00
descriptor 3:    00 00 00 00 00 00 00 00 00 00 00 00 00 00 00 00 00 00
descriptor 4:    00 00 00 02 00 0c 33 ff 0f 3c 96 1c 0f 24 96 00 00 00
extensions:      00
checksum:        2a

EDID version: 1.4
Manufacturer: LGD Model 48a Serial Number --
Made in year 2013
Digital display
6 bits per primary color channel
DisplayPort interface
Maximum image size: 28 cm x 16 cm
Gamma: 2.20
Supported color formats: RGB 4:4:4
First detailed timing includes the native pixel format and preferred refresh rate
Display x,y Chromaticity:
  Red:   0.6064, 0.3554
  Green: 0.3300, 0.5576
  Blue:  0.1464, 0.1201
  White: 0.3134, 0.3291
Established timings supported:
Standard timings supported:
Detailed mode: Clock 141.000 MHz, 276 mm x 156 mm
               1920 1980 2026 2114 hborder 0
               1080 1083 1088 1111 vborder 0
               +hsync -vsync 
               VertFreq: 60 Hz, HorFreq: 66698 Hz
Manufacturer-specified data, tag 0
Manufacturer-specified data, tag 0
Manufacturer-specified data, tag 2
Checksum: 0x2a (valid)
EDID block does NOT conform to EDID 1.4!
	Missing name descriptor
	Missing monitor ranges
