edid-decode (hex):

00 ff ff ff ff ff ff 00 06 af 07 0f 00 00 00 00
01 0e 01 02 80 1f 17 78 0a 5b 20 93 53 50 8a 26
22 50 54 00 00 00 01 01 01 01 01 01 01 01 01 01
01 01 01 01 01 01 64 19 00 40 41 00 26 30 18 88
36 00 30 e4 10 00 00 18 00 00 00 0f 00 42 31 35
30 58 47 30 32 56 31 0a 20 01 00 00 00 fe 00 41
55 4f 0a 20 20 20 20 20 20 20 20 20 00 00 00 fe
00 42 31 35 30 58 47 30 32 56 31 0a 20 20 00 05

----------------

Block 0, Base EDID:
  EDID Structure Version & Revision: 1.2
  Vendor & Product Identification:
    Manufacturer: AUO
    Model: 3847
    Made in: week 1 of 2004
  Basic Display Parameters & Features:
    Digital display
    Maximum image size: 31 cm x 23 cm
    Gamma: 2.20
    RGB color display
    First detailed timing is preferred timing
  Color Characteristics:
    Red  : 0.5751, 0.3251
    Green: 0.3144, 0.5419
    Blue : 0.1484, 0.1347
    White: 0.3125, 0.3281
  Established Timings I & II: none
  Standard Timings: none
  Detailed Timing Descriptors:
    DTD 1:  1024x768    60.004 Hz   4:3    48.363 kHz  65.000 MHz (304 mm x 228 mm)
                 Hfront   24 Hsync 136 Hback 160 Hpol N
                 Vfront    3 Vsync   6 Vback  29 Vpol N
    Manufacturer-Specified Display Descriptor (0x0f): 00 0f 00 42 31 35 30 58 47 30 32 56 31 0a 20 01 '...B150XG02V1. .'
    Alphanumeric Data String: 'AUO'
    Alphanumeric Data String: 'B150XG02V1'
Checksum: 0x5

----------------

Warnings:

Block 0, Base EDID:
  EDID Structure Version & Revision: EDID 1.2 is deprecated, do not use.

EDID conformity: PASS
