
EDID (hex):
00ffffffffffff004a8b341278563412
2818010381341d78ea64b5ab5238ab25
13505400000001010101010101010101
010101010101023a801871382d405a5a
ff0009252100001e0000001000000000
00000000000000000000000000100044
4833425530310a202020202000000010
000000000000000000000000000000df

edid-decode (hex):

00 ff ff ff ff ff ff 00 4a 8b 34 12 78 56 34 12
28 18 01 03 81 34 1d 78 ea 64 b5 ab 52 38 ab 25
13 50 54 00 00 00 01 01 01 01 01 01 01 01 01 01
01 01 01 01 01 01 02 3a 80 18 71 38 2d 40 5a 5a
ff 00 09 25 21 00 00 1e 00 00 00 10 00 00 00 00
00 00 00 00 00 00 00 00 00 00 00 00 00 10 00 44
48 33 42 55 30 31 0a 20 20 20 20 20 00 00 00 10
00 00 00 00 00 00 00 00 00 00 00 00 00 00 00 df

----------------

Block 0, Base EDID:
  EDID Structure Version & Revision: 1.3
  Vendor & Product Identification:
    Manufacturer: RTK
    Model: 4660
    Serial Number: 305419896
    Made in: week 40 of 2014
  Basic Display Parameters & Features:
    Digital display
    DFP 1.x compatible TMDS
    Maximum image size: 52 cm x 29 cm
    Gamma: 2.20
    DPMS levels: Standby Suspend Off
    RGB color display
    First detailed timing is the preferred timing
  Color Characteristics:
    Red  : 0.6689, 0.3222
    Green: 0.2197, 0.6679
    Blue : 0.1464, 0.0771
    White: 0.3134, 0.3291
  Established Timings I & II: none
  Standard Timings: none
  Detailed Timing Descriptors:
    DTD 1:  1920x1080   60.000000 Hz  16:9     67.500 kHz    148.500000 MHz (521 mm x 293 mm)
                 Hfront   90 Hsync  90 Hback  100 Hpol P
                 Vfront   15 Vsync  15 Vback   15 Vpol P
    Dummy Descriptor:
    Dummy Descriptor:
    Dummy Descriptor:
Checksum: 0xdf
