
EDID (hex):
00ffffffffffff0010ac0fd156533030
1b1f0104a5462878fb2176a953449423
1c4d5aa54b00a9c0b300d100714fa940
8180d1c00101565e00a0a0a029503020
3500b9882100001a000000ff00353330
4c5436330a2020202020000000fc0044
454c4c20533332323244474d000000fd
0030a5fafa41010a20202020202001d5
020324f149900403020111131f3f2309
0707830100006d1a0000020130a50000
00000000d88380a07038304030203500
b9882100001a7d9780a0703832403020
3a00b9882100001a6fc200a0a0a05550
30203500b9882100001a40e7006aa0a0
675008209804b9882100001af4fb0050
a0a0285008206800b9882100001a00fa

Extracted contents:
header:          00 ff ff ff ff ff ff 00
serial number:   10 ac 0f d1 56 53 30 30 1b 1f
version:         01 04
basic params:    a5 46 28 78 fb
chroma info:     21 76 a9 53 44 94 23 1c 4d 5a
established:     a5 4b 00
standard:        a9 c0 b3 00 d1 00 71 4f a9 40 81 80 d1 c0 01 01
descriptor 1:    56 5e 00 a0 a0 a0 29 50 30 20 35 00 b9 88 21 00 00 1a
descriptor 2:    00 00 00 ff 00 35 33 30 4c 54 36 33 0a 20 20 20 20 20
descriptor 3:    00 00 00 fc 00 44 45 4c 4c 20 53 33 32 32 32 44 47 4d
descriptor 4:    00 00 00 fd 00 30 a5 fa fa 41 01 0a 20 20 20 20 20 20
extensions:      01
checksum:        d5

EDID version: 1.4
Manufacturer: DEL Model d10f Serial Number --
Made in week 27 of 2021
Digital display
8 bits per primary color channel
DisplayPort interface
Maximum image size: 70 cm x 40 cm
Gamma: 2.20
DPMS levels: Standby Suspend Off
Supported color formats: RGB 4:4:4, YCrCb 4:4:4, YCrCb 4:2:2
First detailed timing includes the native pixel format and preferred refresh rate
Display is continuous frequency
Display x,y Chromaticity:
  Red:   0.6601, 0.3261
  Green: 0.2656, 0.5791
  Blue:  0.1376, 0.1123
  White: 0.3017, 0.3535
Established timings supported:
  720x400@70Hz 9:5 HorFreq: 31469 Hz Clock: 28.320 MHz
  640x480@60Hz 4:3 HorFreq: 31469 Hz Clock: 25.175 MHz
  640x480@75Hz 4:3 HorFreq: 37500 Hz Clock: 31.500 MHz
  800x600@60Hz 4:3 HorFreq: 37900 Hz Clock: 40.000 MHz
  800x600@75Hz 4:3 HorFreq: 46900 Hz Clock: 49.500 MHz
  1024x768@60Hz 4:3 HorFreq: 48400 Hz Clock: 65.000 MHz
  1024x768@75Hz 4:3 HorFreq: 60000 Hz Clock: 78.750 MHz
  1280x1024@75Hz 5:4 HorFreq: 80000 Hz Clock: 135.000 MHz
Standard timings supported:
  1600x900@60Hz 16:9
  1680x1050@60Hz 16:10 HorFreq: 64700 Hz Clock: 119.000 MHz
  1920x1200@60Hz 16:10 HorFreq: 74000 Hz Clock: 154.000 MHz
  1152x864@75Hz 4:3 HorFreq: 67500 Hz Clock: 108.000 MHz
  1600x1200@60Hz 4:3 HorFreq: 75000 Hz Clock: 162.000 MHz
  1280x1024@60Hz 5:4 HorFreq: 64000 Hz Clock: 108.000 MHz
  1920x1080@60Hz 16:9
Detailed mode: Clock 241.500 MHz, 697 mm x 392 mm
               2560 2608 2640 2720 hborder 0
               1440 1443 1448 1481 vborder 0
               +hsync -vsync 
               VertFreq: 59 Hz, HorFreq: 88786 Hz
Serial number: --
Monitor ranges (bare limits): 48-165Hz V, 250-250kHz H, max dotclock 650MHz
Has 1 extension blocks
Checksum: 0xd5 (valid)

CTA extension block
Extension version: 3
32 bytes of CTA data
  Video data block
    VIC  16 1920x1080@60Hz 16:9 (native) HorFreq: 67500 Hz Clock: 148.500 MHz
    VIC   4 1280x720@60Hz 16:9  HorFreq: 45000 Hz Clock: 74.250 MHz
    VIC   3 720x480@60Hz 16:9  HorFreq: 31469 Hz Clock: 27.000 MHz
    VIC   2 720x480@60Hz 4:3  HorFreq: 31469 Hz Clock: 27.000 MHz
    VIC   1 640x480@60Hz 4:3  HorFreq: 31469 Hz Clock: 25.175 MHz
    VIC  17 720x576@50Hz 4:3  HorFreq: 31250 Hz Clock: 27.000 MHz
    VIC  19 1280x720@50Hz 16:9  HorFreq: 37500 Hz Clock: 74.250 MHz
    VIC  31 1920x1080@50Hz 16:9  HorFreq: 56250 Hz Clock: 148.500 MHz
    VIC  63 1920x1080@120Hz 16:9  HorFreq: 135000 Hz Clock: 297.000 MHz
  Audio data block
    Linear PCM, max channels 2
      Supported sample rates (kHz): 48 44.1 32
      Supported sample sizes (bits): 24 20 16
  Speaker allocation data block
    Speaker map:
      FL/FR - Front Left/Right
  Vendor-specific data block, OUI 00001a
Underscans PC formats by default
Basic audio support
Supports YCbCr 4:4:4
Supports YCbCr 4:2:2
1 native detailed modes
Detailed mode: Clock 337.520 MHz, 697 mm x 392 mm
               1920 1968 2000 2080 hborder 0
               1080 1083 1088 1128 vborder 0
               +hsync -vsync 
               VertFreq: 143 Hz, HorFreq: 162269 Hz
Detailed mode: Clock 387.810 MHz, 697 mm x 392 mm
               1920 1968 2000 2080 hborder 0
               1080 1083 1093 1130 vborder 0
               +hsync -vsync 
               VertFreq: 164 Hz, HorFreq: 186447 Hz
Detailed mode: Clock 497.750 MHz, 697 mm x 392 mm
               2560 2608 2640 2720 hborder 0
               1440 1443 1448 1525 vborder 0
               +hsync -vsync 
               VertFreq: 119 Hz, HorFreq: 182996 Hz
Detailed mode: Clock 592.000 MHz, 697 mm x 392 mm
               2560 2568 2600 2666 hborder 0
               1440 1465 1473 1543 vborder 0
               +hsync -vsync 
               VertFreq: 143 Hz, HorFreq: 222055 Hz
Detailed mode: Clock 645.000 MHz, 697 mm x 392 mm
               2560 2568 2600 2640 hborder 0
               1440 1446 1454 1480 vborder 0
               +hsync -vsync 
               VertFreq: 165 Hz, HorFreq: 244318 Hz
Checksum: 0xfa (valid)

EDID block does NOT conform to EDID 1.4!
	Name descriptor not terminated with a newline
Warning: One or more of the timings is out of range of the Monitor Ranges:
  Vertical Freq: 50 - 165 Hz
  Horizontal Freq: 31250 - 244318 Hz
  Maximum Clock: 645.000 MHz
EDID block does not conform at all!
	Both the serial number and the serial string are set


