
EDID (hex):
00ffffffffffff0034ac13327f040000
301601030e0000780ad18aa557589623
175060bdef80317c457c617c81598199
95009040a94064190040410026301888
3600000000000018000000fd0030781f
6311000a2020202020209e2000905120
1f304880360000000000001c000000fc
0045583332310a202020202020200017

Extracted contents:
header:          00 ff ff ff ff ff ff 00
serial number:   34 ac 13 32 7f 04 00 00 30 16
version:         01 03
basic params:    0e 00 00 78 0a
chroma info:     d1 8a a5 57 58 96 23 17 50 60
established:     bd ef 80
standard:        31 7c 45 7c 61 7c 81 59 81 99 95 00 90 40 a9 40
descriptor 1:    64 19 00 40 41 00 26 30 18 88 36 00 00 00 00 00 00 18
descriptor 2:    00 00 00 fd 00 30 78 1f 63 11 00 0a 20 20 20 20 20 20
descriptor 3:    9e 20 00 90 51 20 1f 30 48 80 36 00 00 00 00 00 00 1c
descriptor 4:    00 00 00 fc 00 45 58 33 32 31 0a 20 20 20 20 20 20 20
extensions:      00
checksum:        17

EDID version: 1.3
Manufacturer: MEL Model 3213 Serial Number --
Made in week 48 of 2012
Analog display, Input voltage level: 0.7/0.3 V
Sync: Separate Composite SyncOnGreen 
Image size is variable
Gamma: 2.20
RGB color display
First detailed timing is preferred timing
Display x,y Chromaticity:
  Red:   0.6474, 0.3408
  Green: 0.3437, 0.5869
  Blue:  0.1386, 0.0898
  White: 0.3144, 0.3769
Established timings supported:
  720x400@70Hz 9:5 HorFreq: 31469 Hz Clock: 28.320 MHz
  640x480@60Hz 4:3 HorFreq: 31469 Hz Clock: 25.175 MHz
  640x480@67Hz 4:3 HorFreq: 35000 Hz Clock: 30.240 MHz
  640x480@72Hz 4:3 HorFreq: 37900 Hz Clock: 31.500 MHz
  640x480@75Hz 4:3 HorFreq: 37500 Hz Clock: 31.500 MHz
  800x600@60Hz 4:3 HorFreq: 37900 Hz Clock: 40.000 MHz
  800x600@72Hz 4:3 HorFreq: 48100 Hz Clock: 50.000 MHz
  800x600@75Hz 4:3 HorFreq: 46900 Hz Clock: 49.500 MHz
  832x624@75Hz 4:3 HorFreq: 49726 Hz Clock: 57.284 MHz
  1024x768@60Hz 4:3 HorFreq: 48400 Hz Clock: 65.000 MHz
  1024x768@70Hz 4:3 HorFreq: 56500 Hz Clock: 75.000 MHz
  1024x768@75Hz 4:3 HorFreq: 60000 Hz Clock: 78.750 MHz
  1280x1024@75Hz 5:4 HorFreq: 80000 Hz Clock: 135.000 MHz
  1152x870@75Hz 192:145 HorFreq: 67500 Hz Clock: 108.000 MHz
Standard timings supported:
  640x480@120Hz 4:3
  800x600@120Hz 4:3
  1024x768@120Hz 4:3
  1280x960@85Hz 4:3 HorFreq: 85900 Hz Clock: 148.500 MHz
  1280x1024@85Hz 5:4 HorFreq: 91100 Hz Clock: 157.500 MHz
  1440x900@60Hz 16:10 HorFreq: 55500 Hz Clock: 88.750 MHz
  1400x1050@60Hz 4:3 HorFreq: 64700 Hz Clock: 101.000 MHz
  1600x1200@60Hz 4:3 HorFreq: 75000 Hz Clock: 162.000 MHz
Detailed mode: Clock 65.000 MHz, 0 mm x 0 mm
               1024 1048 1184 1344 hborder 0
                768  771  777  806 vborder 0
               -hsync -vsync 
               VertFreq: 60 Hz, HorFreq: 48363 Hz
Monitor ranges (GTF): 48-120Hz V, 31-99kHz H, max dotclock 170MHz
Detailed mode: Clock 83.500 MHz, 0 mm x 0 mm
               1280 1352 1480 1680 hborder 0
                800  803  809  831 vborder 0
               -hsync +vsync 
               VertFreq: 59 Hz, HorFreq: 49702 Hz
Monitor name: EX321
Checksum: 0x17 (valid)
EDID block does not conform at all!
	Invalid detailed timing descriptor ordering
