
EDID (hex):
00ffffffffffff0030e4a10400000000
00190104951d1178022a059358559129
1e505400000001010101010101010101
0101010101012e3680a070381f403020
350026a51000001a5c2b80a070381f40
3020350026a51000001a000000fe0052
52444b58803133335746320a00000000
0000413196001000000a010a202000e4

Extracted contents:
header:          00 ff ff ff ff ff ff 00
serial number:   30 e4 a1 04 00 00 00 00 00 19
version:         01 04
basic params:    95 1d 11 78 02
chroma info:     2a 05 93 58 55 91 29 1e 50 54
established:     00 00 00
standard:        01 01 01 01 01 01 01 01 01 01 01 01 01 01 01 01
descriptor 1:    2e 36 80 a0 70 38 1f 40 30 20 35 00 26 a5 10 00 00 1a
descriptor 2:    5c 2b 80 a0 70 38 1f 40 30 20 35 00 26 a5 10 00 00 1a
descriptor 3:    00 00 00 fe 00 52 52 44 4b 58 80 31 33 33 57 46 32 0a
descriptor 4:    00 00 00 00 00 00 41 31 96 00 10 00 00 0a 01 0a 20 20
extensions:      00
checksum:        e4

EDID version: 1.4
Manufacturer: LGD Model 4a1 Serial Number --
Made in year 2015
Digital display
6 bits per primary color channel
DisplayPort interface
Maximum image size: 29 cm x 17 cm
Gamma: 2.20
Supported color formats: RGB 4:4:4
First detailed timing includes the native pixel format and preferred refresh rate
Display x,y Chromaticity:
  Red:   0.5742, 0.3457
  Green: 0.3339, 0.5683
  Blue:  0.1601, 0.1171
  White: 0.3134, 0.3291
Established timings supported:
Standard timings supported:
Detailed mode: Clock 138.700 MHz, 294 mm x 165 mm
               1920 1968 2000 2080 hborder 0
               1080 1083 1088 1111 vborder 0
               +hsync -vsync 
               VertFreq: 60 Hz, HorFreq: 66682 Hz
Detailed mode: Clock 111.000 MHz, 294 mm x 165 mm
               1920 1968 2000 2080 hborder 0
               1080 1083 1088 1111 vborder 0
               +hsync -vsync 
               VertFreq: 48 Hz, HorFreq: 53365 Hz
ASCII string: RRDKX
Manufacturer-specified data, tag 0
Checksum: 0xe4 (valid)
EDID block does NOT conform to EDID 1.4!
	Missing name descriptor
	Missing monitor ranges
	Detailed block string not properly terminated
