edid-decode (hex):

00 ff ff ff ff ff ff 00 22 0e 40 4e 00 00 00 00
00 1f 01 04 b5 50 22 78 0e 71 65 ad 4f 45 ae 26
0d 50 54 00 00 00 01 01 01 01 01 01 01 01 01 01
01 01 01 01 01 01 a7 8d 00 a0 a0 70 3e 80 30 20
3a 00 1c 50 31 00 00 1a 00 00 00 00 00 00 00 00
00 00 00 00 00 00 00 00 00 00 00 00 00 fe 00 4c
47 20 44 69 73 70 6c 61 79 0a 20 20 00 00 00 fc
00 48 50 20 41 4c 4c 2d 69 6e 2d 4f 6e 65 01 36

70 12 79 00 00 12 00 16 82 10 10 00 ff 09 6f 08
00 00 00 00 00 48 50 4e 40 4e 00 00 00 00 03 00
14 a6 8d 00 88 ff 09 9f 00 2f 00 1f 00 6f 08 3d
00 02 00 09 00 00 00 00 00 00 00 00 00 00 00 00
00 00 00 00 00 00 00 00 00 00 00 00 00 00 00 00
00 00 00 00 00 00 00 00 00 00 00 00 00 00 00 00
00 00 00 00 00 00 00 00 00 00 00 00 00 00 00 00
00 00 00 00 00 00 00 00 00 00 00 00 00 00 32 90

00 ff ff ff ff ff ff 00 22 0e 40 4e 00 00 00 00
00 1f 01 04 b5 50 22 78 0e 71 65 ad 4f 45 ae 26
0d 50 54 00 00 00 01 01 01 01 01 01 01 01 01 01
01 01 01 01 01 01 a7 8d 00 a0 a0 70 3e 80 30 20
3a 00 1c 50 31 00 00 1a 00 00 00 00 00 00 00 00
00 00 00 00 00 00 00 00 00 00 00 00 00 fe 00 4c
47 20 44 69 73 70 6c 61 79 0a 20 20 00 00 00 fc
00 48 50 20 41 4c 4c 2d 69 6e 2d 4f 6e 65 01 36

70 12 79 00 00 12 00 16 82 10 10 00 ff 09 6f 08
00 00 00 00 00 48 50 4e 40 4e 00 00 00 00 03 00
14 a6 8d 00 88 ff 09 9f 00 2f 00 1f 00 6f 08 3d
00 02 00 09 00 00 00 00 00 00 00 00 00 00 00 00
00 00 00 00 00 00 00 00 00 00 00 00 00 00 00 00
00 00 00 00 00 00 00 00 00 00 00 00 00 00 00 00
00 00 00 00 00 00 00 00 00 00 00 00 00 00 00 00
00 00 00 00 00 00 00 00 00 00 00 00 00 00 32 90

----------------

Block 0, Base EDID:
  EDID Structure Version & Revision: 1.4
  Vendor & Product Identification:
    Manufacturer: HPN
    Model: 20032
    Made in: 2021
  Basic Display Parameters & Features:
    Digital display
    Bits per primary color channel: 10
    DisplayPort interface
    Maximum image size: 80 cm x 34 cm
    Gamma: 2.20
    Supported color formats: RGB 4:4:4, YCrCb 4:4:4
    Default (sRGB) color space is primary color space
    First detailed timing includes the native pixel format and preferred refresh rate
  Color Characteristics:
    Red  : 0.6767, 0.3115
    Green: 0.2695, 0.6806
    Blue : 0.1494, 0.0527
    White: 0.3134, 0.3291
  Established Timings I & II: none
  Standard Timings: none
  Detailed Timing Descriptors:
    DTD 1:  2560x2160   59.999934 Hz  32:27   133.320 kHz    362.630000 MHz (796 mm x 336 mm)
                 Hfront   48 Hsync  32 Hback   80 Hpol P
                 Vfront    3 Vsync  10 Vback   49 Vpol N
    Empty Descriptor
    Alphanumeric Data String: 'LG Display'
    Display Product Name: 'HP ALL-in-One'
  Extension blocks: 1
Checksum: 0x36

----------------

Block 1, DisplayID Extension Block:
  Version: 1.2
  Extension Count: 0
  Display Product Type: Extension Section
  Tiled Display Topology Data Block (0x12):
    Capabilities:
      Behavior if it is the only tile: Image is scaled to fit the entire tiled display
      Behavior if more than one tile and fewer than total number of tiles: Undefined
    Tiled display consists of a single physical display enclosure
    Num horizontal tiles: 2 Num vertical tiles: 1
    Tile location: 1, 0
    Tile resolution: 2560x2160
    Tiled Display Manufacturer/Vendor ID: HPN
    Tiled Display Product ID Code: 20032
  Video Timing Modes Type 1 - Detailed Timings Data Block:
    DTD:  2560x2160   59.999934 Hz   0:0    133.320 kHz    362.630000 MHz (aspect undefined, no 3D stereo, preferred)
               Hfront   48 Hsync  32 Hback   80 Hpol N
               Vfront    3 Vsync  10 Vback   49 Vpol N
  Checksum: 0x32
Checksum: 0x90

----------------

Block 2, Unknown EDID Extension Block 0x00:
  00 ff ff ff ff ff ff 00 22 0e 40 4e 00 00 00 00 '........".@N....'
  00 1f 01 04 b5 50 22 78 0e 71 65 ad 4f 45 ae 26 '.....P"x.qe.OE.&'
  0d 50 54 00 00 00 01 01 01 01 01 01 01 01 01 01 '.PT.............'
  01 01 01 01 01 01 a7 8d 00 a0 a0 70 3e 80 30 20 '...........p>.0 '
  3a 00 1c 50 31 00 00 1a 00 00 00 00 00 00 00 00 ':..P1...........'
  00 00 00 00 00 00 00 00 00 00 00 00 00 fe 00 4c '...............L'
  47 20 44 69 73 70 6c 61 79 0a 20 20 00 00 00 fc 'G Display.  ....'
  00 48 50 20 41 4c 4c 2d 69 6e 2d 4f 6e 65 01 36 '.HP ALL-in-One.6'
Checksum: 0x36

----------------

Block 3, DisplayID Extension Block:
  Version: 1.2
  Extension Count: 0
  Tiled Display Topology Data Block (0x12):
    Capabilities:
      Behavior if it is the only tile: Image is scaled to fit the entire tiled display
      Behavior if more than one tile and fewer than total number of tiles: Undefined
    Tiled display consists of a single physical display enclosure
    Num horizontal tiles: 2 Num vertical tiles: 1
    Tile location: 1, 0
    Tile resolution: 2560x2160
    Tiled Display Manufacturer/Vendor ID: HPN
    Tiled Display Product ID Code: 20032
  Video Timing Modes Type 1 - Detailed Timings Data Block:
    DTD:  2560x2160   59.999934 Hz   0:0    133.320 kHz    362.630000 MHz (aspect undefined, no 3D stereo, preferred)
               Hfront   48 Hsync  32 Hback   80 Hpol N
               Vfront    3 Vsync  10 Vback   49 Vpol N
  Checksum: 0x32
Checksum: 0x90

----------------

Failures:

Block 0, Base EDID:
  Basic Display Parameters & Features: sRGB is signaled, but the chromaticities do not match.
  Empty Descriptor: Use Dummy Descriptor instead of all zeroes.
Block 1, DisplayID Extension Block:
  DisplayID Base Block has no product type.
  Expected 0 DisplayID Extension Block, but got 1.
  Tiled Display Topology Data Block (0x12): Tiled Display Serial Number must be non-zero.
Block 2, Base EDID:
  Unknown Extension Block.
Block 3, DisplayID Extension Block:
  Tiled Display Topology Data Block (0x12): Tiled Display Serial Number must be non-zero.
EDID:
  Base EDID: EDID specified 1 extension block(s), but found 3 extension block(s).
  DisplayID: Missing DisplayID Product Identification Data Block.

EDID conformity: FAIL
