
EDID (hex):
00ffffffffffff00220e404e00000000
001f0104b55022780e7165ad4f45ae26
0d505400000001010101010101010101
010101010101a78d00a0a0703e803020
3a001c503100001a0000000000000000
00000000000000000000000000fe004c
4720446973706c61790a2020000000fc
00485020414c4c2d696e2d4f6e650136
701279000012001682101000ff096f08
000000000048504e404e000000000300
14a68d0088ff099f002f001f006f083d
00020009000000000000000000000000
00000000000000000000000000000000
00000000000000000000000000000000
00000000000000000000000000000000
00000000000000000000000000003290

edid-decode (hex):

00 ff ff ff ff ff ff 00 22 0e 40 4e 00 00 00 00
00 1f 01 04 b5 50 22 78 0e 71 65 ad 4f 45 ae 26
0d 50 54 00 00 00 01 01 01 01 01 01 01 01 01 01
01 01 01 01 01 01 a7 8d 00 a0 a0 70 3e 80 30 20
3a 00 1c 50 31 00 00 1a 00 00 00 00 00 00 00 00
00 00 00 00 00 00 00 00 00 00 00 00 00 fe 00 4c
47 20 44 69 73 70 6c 61 79 0a 20 20 00 00 00 fc
00 48 50 20 41 4c 4c 2d 69 6e 2d 4f 6e 65 01 36

70 12 79 00 00 12 00 16 82 10 10 00 ff 09 6f 08
00 00 00 00 00 48 50 4e 40 4e 00 00 00 00 03 00
14 a6 8d 00 88 ff 09 9f 00 2f 00 1f 00 6f 08 3d
00 02 00 09 00 00 00 00 00 00 00 00 00 00 00 00
00 00 00 00 00 00 00 00 00 00 00 00 00 00 00 00
00 00 00 00 00 00 00 00 00 00 00 00 00 00 00 00
00 00 00 00 00 00 00 00 00 00 00 00 00 00 00 00
00 00 00 00 00 00 00 00 00 00 00 00 00 00 32 90

----------------

Block 0, Base EDID:
  EDID Structure Version & Revision: 1.4
  Vendor & Product Identification:
    Manufacturer: HPN
    Model: 20032
    Made in: 2021
  Basic Display Parameters & Features:
    Digital display
    Bits per primary color channel: 10
    DisplayPort interface
    Maximum image size: 80 cm x 34 cm
    Gamma: 2.20
    Supported color formats: RGB 4:4:4, YCrCb 4:4:4
    Default (sRGB) color space is primary color space
    First detailed timing includes the native pixel format and preferred refresh rate
  Color Characteristics:
    Red  : 0.6767, 0.3115
    Green: 0.2695, 0.6806
    Blue : 0.1494, 0.0527
    White: 0.3134, 0.3291
  Established Timings I & II: none
  Standard Timings: none
  Detailed Timing Descriptors:
    DTD 1:  2560x2160   59.999934 Hz  32:27   133.320 kHz    362.630000 MHz (796 mm x 336 mm)
                 Hfront   48 Hsync  32 Hback   80 Hpol P
                 Vfront    3 Vsync  10 Vback   49 Vpol N
    Empty Descriptor
    Alphanumeric Data String: 'LG Display'
    Display Product Name: 'HP ALL-in-One'
  Extension blocks: 1
Checksum: 0x36

----------------

Block 1, DisplayID Extension Block:
  Version: 1.2
  Extension Count: 0
  Display Product Type: Extension Section
  Tiled Display Topology Data Block (0x12):
    Capabilities:
      Behavior if it is the only tile: Image is scaled to fit the entire tiled display
      Behavior if more than one tile and fewer than total number of tiles: Undefined
    Tiled display consists of a single physical display enclosure
    Num horizontal tiles: 2 Num vertical tiles: 1
    Tile location: 1, 0
    Tile resolution: 2560x2160
    Tiled Display Manufacturer/Vendor ID: HPN
    Tiled Display Product ID Code: 20032
  Video Timing Modes Type 1 - Detailed Timings Data Block:
    DTD:  2560x2160   59.999934 Hz   0:0    133.320 kHz    362.630000 MHz (aspect undefined, no 3D stereo, preferred)
               Hfront   48 Hsync  32 Hback   80 Hpol N
               Vfront    3 Vsync  10 Vback   49 Vpol N
  Checksum: 0x32
Checksum: 0x90
