
EDID (hex):
00ffffffffffff00047297007be34093
22130103802c19782aee91a3544c9926
0f5054bfcf80714f8140818081c08100
0101010101012f2640a060841a303020
3500bbf91000001a000000fd00384b1f
5010000a202020202020000000ff004c
464b3038303138343232320a000000fc
00414345522058323033480a202000a6

Extracted contents:
header:          00 ff ff ff ff ff ff 00
serial number:   04 72 97 00 7b e3 40 93 22 13
version:         01 03
basic params:    80 2c 19 78 2a
chroma info:     ee 91 a3 54 4c 99 26 0f 50 54
established:     bf cf 80
standard:        71 4f 81 40 81 80 81 c0 81 00 01 01 01 01 01 01
descriptor 1:    2f 26 40 a0 60 84 1a 30 30 20 35 00 bb f9 10 00 00 1a
descriptor 2:    00 00 00 fd 00 38 4b 1f 50 10 00 0a 20 20 20 20 20 20
descriptor 3:    00 00 00 ff 00 4c 46 4b 30 38 30 31 38 34 32 32 32 0a
descriptor 4:    00 00 00 fc 00 41 43 45 52 20 58 32 30 33 48 0a 20 20
extensions:      00
checksum:        a6

EDID version: 1.3
Manufacturer: ACR Model 97 Serial Number --
Made in week 34 of 2009
Digital display
Maximum image size: 44 cm x 25 cm
Gamma: 2.20
DPMS levels: Off
RGB color display
First detailed timing is preferred timing
Display x,y Chromaticity:
  Red:   0.6396, 0.3300
  Green: 0.2998, 0.5996
  Blue:  0.1503, 0.0595
  White: 0.3125, 0.3291
Established timings supported:
  720x400@70Hz 9:5 HorFreq: 31469 Hz Clock: 28.320 MHz
  640x480@60Hz 4:3 HorFreq: 31469 Hz Clock: 25.175 MHz
  640x480@67Hz 4:3 HorFreq: 35000 Hz Clock: 30.240 MHz
  640x480@72Hz 4:3 HorFreq: 37900 Hz Clock: 31.500 MHz
  640x480@75Hz 4:3 HorFreq: 37500 Hz Clock: 31.500 MHz
  800x600@56Hz 4:3 HorFreq: 35200 Hz Clock: 36.000 MHz
  800x600@60Hz 4:3 HorFreq: 37900 Hz Clock: 40.000 MHz
  800x600@72Hz 4:3 HorFreq: 48100 Hz Clock: 50.000 MHz
  800x600@75Hz 4:3 HorFreq: 46900 Hz Clock: 49.500 MHz
  1024x768@60Hz 4:3 HorFreq: 48400 Hz Clock: 65.000 MHz
  1024x768@70Hz 4:3 HorFreq: 56500 Hz Clock: 75.000 MHz
  1024x768@75Hz 4:3 HorFreq: 60000 Hz Clock: 78.750 MHz
  1280x1024@75Hz 5:4 HorFreq: 80000 Hz Clock: 135.000 MHz
  1152x870@75Hz 192:145 HorFreq: 67500 Hz Clock: 108.000 MHz
Standard timings supported:
  1152x864@75Hz 4:3 HorFreq: 67500 Hz Clock: 108.000 MHz
  1280x960@60Hz 4:3 HorFreq: 60000 Hz Clock: 108.000 MHz
  1280x1024@60Hz 5:4 HorFreq: 64000 Hz Clock: 108.000 MHz
  1280x720@60Hz 16:9
  1280x800@60Hz 16:10
Detailed mode: Clock 97.750 MHz, 443 mm x 249 mm
               1600 1648 1680 1760 hborder 0
                900  903  908  926 vborder 0
               +hsync -vsync 
               VertFreq: 59 Hz, HorFreq: 55539 Hz
Monitor ranges (GTF): 56-75Hz V, 31-80kHz H, max dotclock 160MHz
Serial number: --
Monitor name: ACER X203H
Checksum: 0xa6 (valid)
