
EDID (hex):
00ffffffffffff0030e4c50200000000
0114010495261578025f35a458569e26
0f505400000001010101010101010101
010101010101023a801871382d40582c
45007ed71000001bd49a80c873382441
302035007ed71000001bd49a80c87338
a840302035007ed71000001bd49a80c8
73384040302035007ed71000001b0127
00000400000000000000000000000000
00000000000000000000000000000000
00000000000000000000000000000000
00000000000000000000000000000000
00000000000000000000000000000000
00000000000000000000000000000000
00000000000000000000000000000000
000000000000000000000000000000fc

Extracted contents:
header:          00 ff ff ff ff ff ff 00
serial number:   30 e4 c5 02 00 00 00 00 01 14
version:         01 04
basic params:    95 26 15 78 02
chroma info:     5f 35 a4 58 56 9e 26 0f 50 54
established:     00 00 00
standard:        01 01 01 01 01 01 01 01 01 01 01 01 01 01 01 01
descriptor 1:    02 3a 80 18 71 38 2d 40 58 2c 45 00 7e d7 10 00 00 1b
descriptor 2:    d4 9a 80 c8 73 38 24 41 30 20 35 00 7e d7 10 00 00 1b
descriptor 3:    d4 9a 80 c8 73 38 a8 40 30 20 35 00 7e d7 10 00 00 1b
descriptor 4:    d4 9a 80 c8 73 38 40 40 30 20 35 00 7e d7 10 00 00 1b
extensions:      01
checksum:        27

EDID version: 1.4
Manufacturer: LGD Model 2c5 Serial Number --
Made in week 1 of 2010
Digital display
6 bits per primary color channel
DisplayPort interface
Maximum image size: 38 cm x 21 cm
Gamma: 2.20
Supported color formats: RGB 4:4:4
First detailed timing includes the native pixel format and preferred refresh rate
Display x,y Chromaticity:
  Red:   0.6416, 0.3447
  Green: 0.3388, 0.6201
  Blue:  0.1484, 0.0615
  White: 0.3134, 0.3291
Established timings supported:
Standard timings supported:
Detailed mode: Clock 148.500 MHz, 382 mm x 215 mm
               1920 2008 2052 2200 hborder 0
               1080 1084 1089 1125 vborder 0
               +hsync -vsync 
               VertFreq: 60 Hz, HorFreq: 67500 Hz
Detailed mode: Clock 396.360 MHz, 382 mm x 215 mm
               1920 1968 2000 2888 hborder 0
               1080 1083 1088 1372 vborder 0
               +hsync -vsync 
               VertFreq: 100 Hz, HorFreq: 137243 Hz
Detailed mode: Clock 396.360 MHz, 382 mm x 215 mm
               1920 1968 2000 2888 hborder 0
               1080 1083 1088 1248 vborder 0
               +hsync -vsync 
               VertFreq: 109 Hz, HorFreq: 137243 Hz
Detailed mode: Clock 396.360 MHz, 382 mm x 215 mm
               1920 1968 2000 2888 hborder 0
               1080 1083 1088 1144 vborder 0
               +hsync -vsync 
               VertFreq: 119 Hz, HorFreq: 137243 Hz
Has 1 extension blocks
Checksum: 0x27 (valid)

Unknown extension block

EDID block does NOT conform to EDID 1.4!
	Missing name descriptor
	Missing monitor ranges
EDID block does not conform at all!
	Has -654311424 nonconformant extension block(s)
