edid-decode (hex):

00 ff ff ff ff ff ff 00 0d 0f 80 23 00 00 00 00
03 22 01 03 68 34 1d 78 ea d7 a5 a2 59 4a 96 24
14 50 54 21 08 00 b3 00 95 00 81 80 81 c0 01 01
81 40 a9 c0 01 01 02 3a 80 18 71 38 2d 40 58 2c
45 00 0f 28 21 00 00 06 66 21 56 aa 51 00 1e 30
46 8f 33 00 0f 28 21 00 00 06 bc 1b 00 a0 50 20
17 30 30 20 36 00 0f 28 21 00 00 06 00 00 00 fc
00 4d 4e 54 0a 20 20 20 20 20 20 20 20 20 00 2b

00 ff ff ff ff ff ff 00 0d 0f 80 23 00 00 00 00
03 22 01 03 68 34 1d 78 ea d7 a5 a2 59 4a 96 24
14 50 54 21 08 00 b3 00 95 00 81 80 81 c0 01 01
81 40 a9 c0 01 01 02 3a 80 18 71 38 2d 40 58 2c
45 00 0f 28 21 00 00 06 66 21 56 aa 51 00 1e 30
46 8f 33 00 0f 28 21 00 00 06 bc 1b 00 a0 50 20
17 30 30 20 36 00 0f 28 21 00 00 06 00 00 00 fc
00 4d 4e 54 0a 20 20 20 20 20 20 20 20 20 00 2b

----------------

Block 0, Base EDID:
  EDID Structure Version & Revision: 1.3
  Vendor & Product Identification:
    Manufacturer: CHO
    Model: 9088
    Made in: week 3 of 2024
  Basic Display Parameters & Features:
    Analog display
    Signal Level Standard: 0.700 : 0.000 : 0.700 V p-p
    Blank level equals black level
    Sync: Separate
    Maximum image size: 52 cm x 29 cm
    Gamma: 2.20
    DPMS levels: Standby Suspend Off
    RGB color display
    First detailed timing is the preferred timing
  Color Characteristics:
    Red  : 0.6357, 0.3486
    Green: 0.2900, 0.5888
    Blue : 0.1425, 0.0800
    White: 0.3134, 0.3291
  Established Timings I & II:
    DMT 0x04:   640x480    59.940476 Hz   4:3     31.469 kHz     25.175000 MHz
    DMT 0x09:   800x600    60.316541 Hz   4:3     37.879 kHz     40.000000 MHz
    DMT 0x10:  1024x768    60.003840 Hz   4:3     48.363 kHz     65.000000 MHz
  Standard Timings:
    DMT 0x3a:  1680x1050   59.954250 Hz  16:10    65.290 kHz    146.250000 MHz
    DMT 0x2f:  1440x900    59.887445 Hz  16:10    55.935 kHz    106.500000 MHz
    DMT 0x23:  1280x1024   60.019740 Hz   5:4     63.981 kHz    108.000000 MHz
    DMT 0x55:  1280x720    60.000000 Hz  16:9     45.000 kHz     74.250000 MHz
    DMT 0x20:  1280x960    60.000000 Hz   4:3     60.000 kHz    108.000000 MHz
    DMT 0x53:  1600x900    60.000000 Hz  16:9     60.000 kHz    108.000000 MHz (RB)
  Detailed Timing Descriptors:
    DTD 1:  1920x1080   60.000000 Hz  16:9     67.500 kHz    148.500000 MHz (analog composite, serrate, 527 mm x 296 mm)
                 Hfront   88 Hsync  44 Hback  148 Hpol N
                 Vfront    4 Vsync   5 Vback   36 Vpol N
    DTD 2:  1366x768    59.789541 Hz 683:384   47.712 kHz     85.500000 MHz (analog composite, serrate, 527 mm x 296 mm)
                 Hfront   70 Hsync 143 Hback  213 Hpol N
                 Vfront    3 Vsync   3 Vback   24 Vpol N
    DTD 3:  1280x800    59.909545 Hz  16:10    49.306 kHz     71.000000 MHz (analog composite, serrate, 527 mm x 296 mm)
                 Hfront   48 Hsync  32 Hback   80 Hpol N
                 Vfront    3 Vsync   6 Vback   14 Vpol N
    Display Product Name: 'MNT'
Checksum: 0x2b

----------------

Block 1, Unknown EDID Extension Block 0x00:
  00 ff ff ff ff ff ff 00 0d 0f 80 23 00 00 00 00 '...........#....'
  03 22 01 03 68 34 1d 78 ea d7 a5 a2 59 4a 96 24 '."..h4.x....YJ.$'
  14 50 54 21 08 00 b3 00 95 00 81 80 81 c0 01 01 '.PT!............'
  81 40 a9 c0 01 01 02 3a 80 18 71 38 2d 40 58 2c '.@.....:..q8-@X,'
  45 00 0f 28 21 00 00 06 66 21 56 aa 51 00 1e 30 'E..(!...f!V.Q..0'
  46 8f 33 00 0f 28 21 00 00 06 bc 1b 00 a0 50 20 'F.3..(!.......P '
  17 30 30 20 36 00 0f 28 21 00 00 06 00 00 00 fc '.00 6..(!.......'
  00 4d 4e 54 0a 20 20 20 20 20 20 20 20 20 00 2b '.MNT.         .+'
Checksum: 0x2b

----------------

Warnings:

Block 0, Base EDID:
  Detailed Timing Descriptor #1: DTD is similar but not identical to VIC 16.
  Detailed Timing Descriptor #2: DTD is similar but not identical to DMT 0x51.
  Detailed Timing Descriptor #3: DTD is similar but not identical to DMT 0x1b.

Failures:

Block 0, Base EDID:
  Missing Display Range Limits Descriptor.
Block 1, Base EDID:
  Unknown Extension Block.
EDID:
  Base EDID: EDID specified 0 extension block(s), but found 1 extension block(s).

EDID conformity: FAIL
