
EDID (hex):
00ffffffffffff0034a9a29600000000
ff170104a02213780212a1a754539926
0b505400000001010101010101010101
0101010101012a7640c4b05414602c04
910058c11000001e2a7640c4b0545b61
2c04910058c11000001e000000fd002a
3d60641e010a202020202020000000fc
005656583136543032394430300a0063

Extracted contents:
header:          00 ff ff ff ff ff ff 00
serial number:   34 a9 a2 96 00 00 00 00 ff 17
version:         01 04
basic params:    a0 22 13 78 02
chroma info:     12 a1 a7 54 53 99 26 0b 50 54
established:     00 00 00
standard:        01 01 01 01 01 01 01 01 01 01 01 01 01 01 01 01
descriptor 1:    2a 76 40 c4 b0 54 14 60 2c 04 91 00 58 c1 10 00 00 1e
descriptor 2:    2a 76 40 c4 b0 54 5b 61 2c 04 91 00 58 c1 10 00 00 1e
descriptor 3:    00 00 00 fd 00 2a 3d 60 64 1e 01 0a 20 20 20 20 20 20
descriptor 4:    00 00 00 fc 00 56 56 58 31 36 54 30 32 39 44 30 30 0a
extensions:      00
checksum:        63

EDID version: 1.4
Manufacturer: MEI Model 96a2 Serial Number --
Model year 2013
Digital display
8 bits per primary color channel
Digital interface is not defined
Maximum image size: 34 cm x 19 cm
Gamma: 2.20
Supported color formats: RGB 4:4:4
First detailed timing includes the native pixel format and preferred refresh rate
Display x,y Chromaticity:
  Red:   0.6523, 0.3291
  Green: 0.3242, 0.5996
  Blue:  0.1503, 0.0449
  White: 0.3125, 0.3291
Established timings supported:
Standard timings supported:
Detailed mode: Clock 302.500 MHz, 344 mm x 193 mm
               2880 2924 2928 3076 hborder 0
               1620 1629 1630 1640 vborder 0
               +hsync +vsync 
               VertFreq: 59 Hz, HorFreq: 98342 Hz
Detailed mode: Clock 302.500 MHz, 344 mm x 193 mm
               2880 2924 2928 3076 hborder 0
               1620 1629 1630 1967 vborder 0
               +hsync +vsync 
               VertFreq: 49 Hz, HorFreq: 98342 Hz
Monitor ranges (bare limits): 42-61Hz V, 96-100kHz H, max dotclock 300MHz
Monitor name: VVX16T029D00
Checksum: 0x63 (valid)
Warning: One or more of the timings is out of range of the Monitor Ranges:
  Vertical Freq: 49 - 59 Hz
  Horizontal Freq: 98342 - 98342 Hz
  Maximum Clock: 302.500 MHz
