edid-decode (hex):

00 ff ff ff ff ff ff 00 22 67 c5 18 01 01 01 01
07 13 01 03 0a 2d 19 78 ea b8 15 a6 55 4b 9b 25
13 50 54 a5 6b 00 81 80 90 40 01 01 01 01 01 01
01 01 01 01 01 01 2f 26 40 a0 60 84 1a 30 30 20
35 00 bb f9 10 00 00 1a 00 00 00 fc 00 48 46 32
30 37 0a 20 20 20 20 20 20 20 00 00 00 fd 00 38
4c 15 53 10 00 0a 20 20 20 20 20 20 00 00 00 ff
00 39 30 37 43 4d 33 58 59 30 30 34 39 36 00 a9

00 ff ff ff ff ff ff 00 22 67 c5 18 01 01 01 01
07 13 01 03 0a 2d 19 78 ea b8 15 a6 55 4b 9b 25
13 50 54 a5 6b 00 81 80 90 40 01 01 01 01 01 01
01 01 01 01 01 01 2f 26 40 a0 60 84 1a 30 30 20
35 00 bb f9 10 00 00 1a 00 00 00 fc 00 48 46 32
30 37 0a 20 20 20 20 20 20 20 00 00 00 fd 00 38
4c 15 53 10 00 0a 20 20 20 20 20 20 00 00 00 ff
00 39 30 37 43 4d 33 58 59 30 30 34 39 36 00 a9

----------------

Block 0, Base EDID:
  EDID Structure Version & Revision: 1.3
  Vendor & Product Identification:
    Manufacturer: HSG
    Model: 6341
    Serial Number: ...
    Made in: week 7 of 2009
  Basic Display Parameters & Features:
    Analog display
    Signal Level Standard: 0.700 : 0.300 : 1.000 V p-p
    Blank level equals black level
    Sync: Separate SyncOnGreen
    Maximum image size: 45 cm x 25 cm
    Gamma: 2.20
    DPMS levels: Standby Suspend Off
    RGB color display
    First detailed timing is the preferred timing
  Color Characteristics:
    Red  : 0.6503, 0.3349
    Green: 0.2949, 0.6054
    Blue : 0.1445, 0.0751
    White: 0.3134, 0.3291
  Established Timings I & II:
    IBM     :   720x400    70.081663 Hz   9:5     31.467 kHz     28.320000 MHz
    DMT 0x04:   640x480    59.940476 Hz   4:3     31.469 kHz     25.175000 MHz
    DMT 0x06:   640x480    75.000000 Hz   4:3     37.500 kHz     31.500000 MHz
    DMT 0x09:   800x600    60.316541 Hz   4:3     37.879 kHz     40.000000 MHz
    DMT 0x0b:   800x600    75.000000 Hz   4:3     46.875 kHz     49.500000 MHz
    Apple   :   832x624    74.551266 Hz   4:3     49.726 kHz     57.284000 MHz
    DMT 0x10:  1024x768    60.003840 Hz   4:3     48.363 kHz     65.000000 MHz
    DMT 0x12:  1024x768    75.028582 Hz   4:3     60.023 kHz     78.750000 MHz
    DMT 0x24:  1280x1024   75.024675 Hz   5:4     79.976 kHz    135.000000 MHz
  Standard Timings:
    DMT 0x23:  1280x1024   60.019740 Hz   5:4     63.981 kHz    108.000000 MHz
    DMT 0x2a:  1400x1050   59.978442 Hz   4:3     65.317 kHz    121.750000 MHz
  Detailed Timing Descriptors:
    DTD 1:  1600x900    59.978156 Hz  16:9     55.540 kHz     97.750000 MHz (443 mm x 249 mm)
                 Hfront   48 Hsync  32 Hback   80 Hpol P
                 Vfront    3 Vsync   5 Vback   18 Vpol N
    Display Product Name: 'HF207'
    Display Range Limits:
      Monitor ranges (GTF): 56-76 Hz V, 21-83 kHz H, max dotclock 160 MHz
    Display Product Serial Number: ...
Checksum: 0xa9

----------------

Block 1, Unknown EDID Extension Block 0x00:
  00 ff ff ff ff ff ff 00 22 67 c5 18 01 01 01 01 '........"g......'
  07 13 01 03 0a 2d 19 78 ea b8 15 a6 55 4b 9b 25 '.....-.x....UK.%'
  13 50 54 a5 6b 00 81 80 90 40 01 01 01 01 01 01 '.PT.k....@......'
  01 01 01 01 01 01 2f 26 40 a0 60 84 1a 30 30 20 '....../&@.`..00 '
  35 00 bb f9 10 00 00 1a 00 00 00 fc 00 48 46 32 '5............HF2'
  30 37 0a 20 20 20 20 20 20 20 00 00 00 fd 00 38 '07.       .....8'
  4c 15 53 10 00 0a 20 20 20 20 20 20 00 00 00 ff 'L.S...      ....'
  00 39 30 37 43 4d 33 58 59 30 30 34 39 36 00 a9 '.907CM3XY00496..'
Checksum: 0xa9

----------------

Failures:

Block 1, Base EDID:
  Unknown Extension Block.
EDID:
  Base EDID: EDID specified 0 extension block(s), but found 1 extension block(s).

EDID conformity: FAIL
