
EDID (hex):
00ffffffffffff004ca3494100000000
00150104901c11780a859599574f8f26
21505400000001010101010101010101
010101010101ed1d56d8500027300e38
130024ae10000019f31356d850002730
0e38130024ae10000019000000000000
00000000000000000000000000000002
000c42f20b3c6914111e6e000000004c

Extracted contents:
header:          00 ff ff ff ff ff ff 00
serial number:   4c a3 49 41 00 00 00 00 00 15
version:         01 04
basic params:    90 1c 11 78 0a
chroma info:     85 95 99 57 4f 8f 26 21 50 54
established:     00 00 00
standard:        01 01 01 01 01 01 01 01 01 01 01 01 01 01 01 01
descriptor 1:    ed 1d 56 d8 50 00 27 30 0e 38 13 00 24 ae 10 00 00 19
descriptor 2:    f3 13 56 d8 50 00 27 30 0e 38 13 00 24 ae 10 00 00 19
descriptor 3:    00 00 00 00 00 00 00 00 00 00 00 00 00 00 00 00 00 00
descriptor 4:    00 00 00 02 00 0c 42 f2 0b 3c 69 14 11 1e 6e 00 00 00
extensions:      00
checksum:        4c

EDID version: 1.4
Manufacturer: SEC Model 4149 Serial Number --
Made in year 2011
Digital display
6 bits per primary color channel
Digital interface is not defined
Maximum image size: 28 cm x 17 cm
Gamma: 2.20
Supported color formats: RGB 4:4:4, YCrCb 4:4:4
First detailed timing includes the native pixel format and preferred refresh rate
Display x,y Chromaticity:
  Red:   0.5996, 0.3398
  Green: 0.3095, 0.5595
  Blue:  0.1503, 0.1298
  White: 0.3134, 0.3291
Established timings supported:
Standard timings supported:
Detailed mode: Clock 76.610 MHz, 292 mm x 174 mm
               1366 1380 1436 1582 hborder 0
                768  769  772  807 vborder 0
               -hsync -vsync 
               VertFreq: 60 Hz, HorFreq: 48426 Hz
Detailed mode: Clock 51.070 MHz, 292 mm x 174 mm
               1366 1380 1436 1582 hborder 0
                768  769  772  807 vborder 0
               -hsync -vsync 
               VertFreq: 40 Hz, HorFreq: 32281 Hz
Manufacturer-specified data, tag 0
Manufacturer-specified data, tag 2
Checksum: 0x4c (valid)
EDID block does NOT conform to EDID 1.4!
	Missing name descriptor
	Missing monitor ranges
