
EDID (hex):
00ffffffffffff004d10631500000000
171f0104a526157807de50a3544c9926
0f505400000001010101010101010101
0101010101019a3680a0703828403020
35007ed710000018000000fd0e3c6995
9554010a202020202020000000100000
000000000000000000000000000000fc
004c513137334d314a5731320a2001b8
70137900000301149a4701847f079f00
2f001f00370427000200040000000000
00000000000000000000000000000000
00000000000000000000000000000000
00000000000000000000000000000000
00000000000000000000000000000000
00000000000000000000000000000000
00000000000000000000000000001b90

Extracted contents:
header:          00 ff ff ff ff ff ff 00
serial number:   4d 10 63 15 00 00 00 00 17 1f
version:         01 04
basic params:    a5 26 15 78 07
chroma info:     de 50 a3 54 4c 99 26 0f 50 54
established:     00 00 00
standard:        01 01 01 01 01 01 01 01 01 01 01 01 01 01 01 01
descriptor 1:    9a 36 80 a0 70 38 28 40 30 20 35 00 7e d7 10 00 00 18
descriptor 2:    00 00 00 fd 0e 3c 69 95 95 54 01 0a 20 20 20 20 20 20
descriptor 3:    00 00 00 10 00 00 00 00 00 00 00 00 00 00 00 00 00 00
descriptor 4:    00 00 00 fc 00 4c 51 31 37 33 4d 31 4a 57 31 32 0a 20
extensions:      01
checksum:        b8

EDID version: 1.4
Manufacturer: SHP Model 1563 Serial Number --
Made in week 23 of 2021
Digital display
8 bits per primary color channel
DisplayPort interface
Maximum image size: 38 cm x 21 cm
Gamma: 2.20
Supported color formats: RGB 4:4:4
Default (sRGB) color space is primary color space
First detailed timing includes the native pixel format and preferred refresh rate
Display is continuous frequency
Display x,y Chromaticity:
  Red:   0.6396, 0.3291
  Green: 0.2998, 0.5996
  Blue:  0.1494, 0.0595
  White: 0.3125, 0.3281
Established timings supported:
Standard timings supported:
Detailed mode: Clock 139.780 MHz, 382 mm x 215 mm
               1920 1968 2000 2080 hborder 0
               1080 1083 1088 1120 vborder 0
               -hsync -vsync 
               VertFreq: 60 Hz, HorFreq: 67201 Hz
Monitor ranges (bare limits): 60-360Hz V, 404-404kHz H, max dotclock 840MHz
Dummy block
Monitor name: LQ173M1JW12
Has 1 extension blocks
Checksum: 0xb8 (valid)

DisplayID extension block
Extension version: 19
Length 121, version 19, extension count 0
Checksum: 0x1b (valid)
Type 1 detailed timing: aspect: 16:9, Preferred  
Detailed mode: Clock 838.660 MHz, 0 mm x 0 mm
               1919 1966 1997 2078
               1079 1081 1085 1118
               -hsync -vsync

EDID block does NOT conform to EDID 1.4!
	sRGB is signaled, but the chromaticities do not match
Warning: One or more of the timings is out of range of the Monitor Ranges:
  Vertical Freq: 60 - 60 Hz
  Horizontal Freq: 67201 - 67201 Hz
  Maximum Clock: 139.780 MHz
EDID block does not conform at all!
	Has 1207959552 nonconformant extension block(s)
