
EDID (hex):
00ffffffffffff0010acf993f2062200
1c1b010380351e780afe40a555529a26
12505400000001010101010101010101
0101010101019434806470381f401e14
35000f292100001e000000fc00496e73
7069726f6e2033343737000000100000
0a202020202020202020202000000010
00000a2020202020202021202020003b

Extracted contents:
header:          00 ff ff ff ff ff ff 00
serial number:   10 ac f9 93 f2 06 22 00 1c 1b
version:         01 03
basic params:    80 35 1e 78 0a
chroma info:     fe 40 a5 55 52 9a 26 12 50 54
established:     00 00 00
standard:        01 01 01 01 01 01 01 01 01 01 01 01 01 01 01 01
descriptor 1:    94 34 80 64 70 38 1f 40 1e 14 35 00 0f 29 21 00 00 1e
descriptor 2:    00 00 00 fc 00 49 6e 73 70 69 72 6f 6e 20 33 34 37 37
descriptor 3:    00 00 00 10 00 00 0a 20 20 20 20 20 20 20 20 20 20 20
descriptor 4:    00 00 00 10 00 00 0a 20 20 20 20 20 20 20 21 20 20 20
extensions:      00
checksum:        3b

EDID version: 1.3
Manufacturer: DEL Model 93f9 Serial Number --
Made in week 28 of 2017
Digital display
Maximum image size: 53 cm x 30 cm
Gamma: 2.20
RGB color display
First detailed timing is preferred timing
Display x,y Chromaticity:
  Red:   0.6474, 0.3349
  Green: 0.3232, 0.6035
  Blue:  0.1494, 0.0703
  White: 0.3125, 0.3281
Established timings supported:
Standard timings supported:
Detailed mode: Clock 134.600 MHz, 527 mm x 297 mm
               1920 1950 1970 2020 hborder 0
               1080 1083 1088 1111 vborder 0
               +hsync +vsync 
               VertFreq: 59 Hz, HorFreq: 66633 Hz
Dummy block
Dummy block
Checksum: 0x3b (valid)
EDID block does NOT conform to EDID 1.3!
	Name descriptor not terminated with a newline
	Missing monitor ranges
EDID block does not conform at all!
	Dummy block filled with garbage
