
EDID (hex):
00ffffffffffff0051b8811400000000
1d1f0104a51e1378070f91ae5243b026
0f505400000001010101010101010101
010101010101c0d800a0a04064602b20
75042dbc10000018606c00a0a0406460
2b2075042dbc10000018000000fd0030
78cece38010a202020202020000000fc
00544c3134304144585030310a200093

Extracted contents:
header:          00 ff ff ff ff ff ff 00
serial number:   51 b8 81 14 00 00 00 00 1d 1f
version:         01 04
basic params:    a5 1e 13 78 07
chroma info:     0f 91 ae 52 43 b0 26 0f 50 54
established:     00 00 00
standard:        01 01 01 01 01 01 01 01 01 01 01 01 01 01 01 01
descriptor 1:    c0 d8 00 a0 a0 40 64 60 2b 20 75 04 2d bc 10 00 00 18
descriptor 2:    60 6c 00 a0 a0 40 64 60 2b 20 75 04 2d bc 10 00 00 18
descriptor 3:    00 00 00 fd 00 30 78 ce ce 38 01 0a 20 20 20 20 20 20
descriptor 4:    00 00 00 fc 00 54 4c 31 34 30 41 44 58 50 30 31 0a 20
extensions:      00
checksum:        93

EDID version: 1.4
Manufacturer: TMX Model 1481 Serial Number --
Made in week 29 of 2021
Digital display
8 bits per primary color channel
DisplayPort interface
Maximum image size: 30 cm x 19 cm
Gamma: 2.20
Supported color formats: RGB 4:4:4
Default (sRGB) color space is primary color space
First detailed timing includes the native pixel format and preferred refresh rate
Display is continuous frequency
Display x,y Chromaticity:
  Red:   0.6796, 0.3203
  Green: 0.2646, 0.6904
  Blue:  0.1503, 0.0595
  White: 0.3125, 0.3291
Established timings supported:
Standard timings supported:
Detailed mode: Clock 554.880 MHz, 301 mm x 188 mm
               2560 2603 2635 2720 hborder 0
               1600 1623 1628 1700 vborder 0
               -hsync -vsync 
               VertFreq: 120 Hz, HorFreq: 204000 Hz
Detailed mode: Clock 277.440 MHz, 301 mm x 188 mm
               2560 2603 2635 2720 hborder 0
               1600 1623 1628 1700 vborder 0
               -hsync -vsync 
               VertFreq: 60 Hz, HorFreq: 102000 Hz
Monitor ranges (bare limits): 48-120Hz V, 206-206kHz H, max dotclock 560MHz
Monitor name: TL140ADXP01
Checksum: 0x93 (valid)
EDID block does NOT conform to EDID 1.4!
	sRGB is signaled, but the chromaticities do not match
Warning: One or more of the timings is out of range of the Monitor Ranges:
  Vertical Freq: 60 - 120 Hz
  Horizontal Freq: 102000 - 204000 Hz
  Maximum Clock: 554.880 MHz
