
EDID (hex):
00ffffffffffff004c2e050101010101
ff150103085932782afedba255489d24
10474a21080081808bc0010101010101
010101010101662150b051001b304070
360076f23100001e000000fc0053414e
594f2d54560a20202020000000fd003b
3d1f400b000a202020202020000000ff
003030303030303030300a20202000d1

Extracted contents:
header:          00 ff ff ff ff ff ff 00
serial number:   4c 2e 05 01 01 01 01 01 ff 15
version:         01 03
basic params:    08 59 32 78 2a
chroma info:     fe db a2 55 48 9d 24 10 47 4a
established:     21 08 00
standard:        81 80 8b c0 01 01 01 01 01 01 01 01 01 01 01 01
descriptor 1:    66 21 50 b0 51 00 1b 30 40 70 36 00 76 f2 31 00 00 1e
descriptor 2:    00 00 00 fc 00 53 41 4e 59 4f 2d 54 56 0a 20 20 20 20
descriptor 3:    00 00 00 fd 00 3b 3d 1f 40 0b 00 0a 20 20 20 20 20 20
descriptor 4:    00 00 00 ff 00 30 30 30 30 30 30 30 30 30 0a 20 20 20
extensions:      00
checksum:        d1

EDID version: 1.3
Manufacturer: SAN Model 105 Serial Number --
Analog display, Input voltage level: 0.7/0.3 V
Sync: Separate 
Maximum image size: 89 cm x 50 cm
Gamma: 2.20
DPMS levels: Off
RGB color display
First detailed timing is preferred timing
Display x,y Chromaticity:
  Red:   0.6357, 0.3349
  Green: 0.2841, 0.6152
  Blue:  0.1435, 0.0634
  White: 0.2792, 0.2919
Established timings supported:
  640x480@60Hz 4:3 HorFreq: 31469 Hz Clock: 25.175 MHz
  800x600@60Hz 4:3 HorFreq: 37900 Hz Clock: 40.000 MHz
  1024x768@60Hz 4:3 HorFreq: 48400 Hz Clock: 65.000 MHz
Standard timings supported:
  1280x1024@60Hz 5:4 HorFreq: 64000 Hz Clock: 108.000 MHz
  1360x765@60Hz 16:9
Detailed mode: Clock 85.500 MHz, 886 mm x 498 mm
               1360 1424 1536 1792 hborder 0
                768  771  777  795 vborder 0
               +hsync +vsync 
               VertFreq: 60 Hz, HorFreq: 47712 Hz
Monitor name: SANYO-TV
Monitor ranges (GTF): 59-61Hz V, 31-64kHz H, max dotclock 110MHz
Serial number: --
Checksum: 0xd1 (valid)
EDID block does not conform at all!
	Bad year of manufacture
	Bad week of manufacture
