
EDID (hex):
00ffffffffffff004c83523700000000
00180104952213780ab995a2554b9c26
0f505400000001010101010101010101
010101010101d23780a2703840403020
250058c2100000190000000f00000000
00000000001e82105200000000fe0053
414d53554e470a204c83484c000000fe
004c544e313536484c30393430310051

Extracted contents:
header:          00 ff ff ff ff ff ff 00
serial number:   4c 83 52 37 00 00 00 00 00 18
version:         01 04
basic params:    95 22 13 78 0a
chroma info:     b9 95 a2 55 4b 9c 26 0f 50 54
established:     00 00 00
standard:        01 01 01 01 01 01 01 01 01 01 01 01 01 01 01 01
descriptor 1:    d2 37 80 a2 70 38 40 40 30 20 25 00 58 c2 10 00 00 19
descriptor 2:    00 00 00 0f 00 00 00 00 00 00 00 00 00 1e 82 10 52 00
descriptor 3:    00 00 00 fe 00 53 41 4d 53 55 4e 47 0a 20 4c 83 48 4c
descriptor 4:    00 00 00 fe 00 4c 54 4e 31 35 36 48 4c 30 39 34 30 31
extensions:      00
checksum:        51

EDID version: 1.4
Manufacturer: SDC Model 3752 Serial Number --
Made in year 2014
Digital display
6 bits per primary color channel
DisplayPort interface
Maximum image size: 34 cm x 19 cm
Gamma: 2.20
Supported color formats: RGB 4:4:4, YCrCb 4:4:4
First detailed timing includes the native pixel format and preferred refresh rate
Display x,y Chromaticity:
  Red:   0.6347, 0.3349
  Green: 0.2949, 0.6103
  Blue:  0.1503, 0.0595
  White: 0.3134, 0.3291
Established timings supported:
Standard timings supported:
Detailed mode: Clock 142.900 MHz, 344 mm x 194 mm
               1920 1968 2000 2082 hborder 0
               1080 1082 1087 1144 vborder 0
               -hsync -vsync 
               VertFreq: 59 Hz, HorFreq: 68635 Hz
Manufacturer-specified data, tag 15
ASCII string: SAMSUNG
ASCII string: LTN156HL09401
Checksum: 0x51 (valid)
EDID block does NOT conform to EDID 1.4!
	Missing name descriptor
	Missing monitor ranges
	Detailed block string not properly terminated
