
EDID (hex):
00ffffffffffff0030aecc6001010101
221a01036c2f1e78eec545a357529f27
0d5054bdcf00714f8180818c9500950f
8100b30f010121399030621a274068b0
3600da281100001c000000fd00324b1e
5115000a202020202020000000fc004c
454e20543232353470430a20000000ff
00564e2d4131385847570a20202001de
02010400662156aa51001e30468f3300
da281100001e302a40c8608464301850
1300da281100001ea91a00a050001630
30203700da281100001a9a29a0d05184
223050983600da281100001c662150b0
51001b3040703600da281100001e0000
00000000000000000000000000000000
00000000000000000000000000000086

Extracted contents:
header:          00 ff ff ff ff ff ff 00
serial number:   30 ae cc 60 01 01 01 01 22 1a
version:         01 03
basic params:    6c 2f 1e 78 ee
chroma info:     c5 45 a3 57 52 9f 27 0d 50 54
established:     bd cf 00
standard:        71 4f 81 80 81 8c 95 00 95 0f 81 00 b3 0f 01 01
descriptor 1:    21 39 90 30 62 1a 27 40 68 b0 36 00 da 28 11 00 00 1c
descriptor 2:    00 00 00 fd 00 32 4b 1e 51 15 00 0a 20 20 20 20 20 20
descriptor 3:    00 00 00 fc 00 4c 45 4e 20 54 32 32 35 34 70 43 0a 20
descriptor 4:    00 00 00 ff 00 56 4e 2d 41 31 38 58 47 57 0a 20 20 20
extensions:      01
checksum:        de

EDID version: 1.3
Manufacturer: LEN Model 60cc Serial Number --
Made in week 34 of 2016
Analog display, Input voltage level: 0.7/0.7 V
Sync: Separate Composite 
Maximum image size: 47 cm x 30 cm
Gamma: 2.20
DPMS levels: Standby Suspend Off
RGB color display
Default (sRGB) color space is primary color space
First detailed timing is preferred timing
Display x,y Chromaticity:
  Red:   0.6396, 0.3398
  Green: 0.3212, 0.6220
  Blue:  0.1533, 0.0507
  White: 0.3134, 0.3291
Established timings supported:
  720x400@70Hz 9:5 HorFreq: 31469 Hz Clock: 28.320 MHz
  640x480@60Hz 4:3 HorFreq: 31469 Hz Clock: 25.175 MHz
  640x480@67Hz 4:3 HorFreq: 35000 Hz Clock: 30.240 MHz
  640x480@72Hz 4:3 HorFreq: 37900 Hz Clock: 31.500 MHz
  640x480@75Hz 4:3 HorFreq: 37500 Hz Clock: 31.500 MHz
  800x600@60Hz 4:3 HorFreq: 37900 Hz Clock: 40.000 MHz
  800x600@72Hz 4:3 HorFreq: 48100 Hz Clock: 50.000 MHz
  800x600@75Hz 4:3 HorFreq: 46900 Hz Clock: 49.500 MHz
  1024x768@60Hz 4:3 HorFreq: 48400 Hz Clock: 65.000 MHz
  1024x768@70Hz 4:3 HorFreq: 56500 Hz Clock: 75.000 MHz
  1024x768@75Hz 4:3 HorFreq: 60000 Hz Clock: 78.750 MHz
  1280x1024@75Hz 5:4 HorFreq: 80000 Hz Clock: 135.000 MHz
Standard timings supported:
  1152x864@75Hz 4:3 HorFreq: 67500 Hz Clock: 108.000 MHz
  1280x1024@60Hz 5:4 HorFreq: 64000 Hz Clock: 108.000 MHz
  1280x1024@72Hz 5:4
  1440x900@60Hz 16:10 HorFreq: 55500 Hz Clock: 88.750 MHz
  1440x900@75Hz 16:10 HorFreq: 82300 Hz Clock: 156.000 MHz
  1280x800@60Hz 16:10
  1680x1050@75Hz 16:10 HorFreq: 82300 Hz Clock: 187.000 MHz
Detailed mode: Clock 146.250 MHz, 474 mm x 296 mm
               1680 1784 1960 2240 hborder 0
               1050 1053 1059 1089 vborder 0
               -hsync +vsync 
               VertFreq: 59 Hz, HorFreq: 65290 Hz
Monitor ranges (GTF): 50-75Hz V, 30-81kHz H, max dotclock 210MHz
Monitor name: LEN T2254pC
Serial number: --
Has 1 extension blocks
Checksum: 0xde (valid)

CTA extension block
Extension version: 1
0 8-byte timing descriptors
Detailed mode: Clock 85.500 MHz, 474 mm x 296 mm
               1366 1436 1579 1792 hborder 0
                768  771  774  798 vborder 0
               +hsync +vsync 
               VertFreq: 59 Hz, HorFreq: 47712 Hz
Detailed mode: Clock 108.000 MHz, 474 mm x 296 mm
               1600 1624 1704 1800 hborder 0
                900  901  904 1000 vborder 0
               +hsync +vsync 
               VertFreq: 60 Hz, HorFreq: 60000 Hz
Detailed mode: Clock 68.250 MHz, 474 mm x 296 mm
               1280 1328 1360 1440 hborder 0
                768  771  778  790 vborder 0
               +hsync -vsync 
               VertFreq: 59 Hz, HorFreq: 47395 Hz
Detailed mode: Clock 106.500 MHz, 474 mm x 296 mm
               1440 1520 1672 1904 hborder 0
                900  903  909  934 vborder 0
               -hsync +vsync 
               VertFreq: 59 Hz, HorFreq: 55934 Hz
Detailed mode: Clock 85.500 MHz, 474 mm x 296 mm
               1360 1424 1536 1792 hborder 0
                768  771  777  795 vborder 0
               +hsync +vsync 
               VertFreq: 60 Hz, HorFreq: 47712 Hz
Checksum: 0x86 (valid)

EDID block does NOT conform to EDID 1.3!
	sRGB is signaled, but the chromaticities do not match
One or more of the timings is out of range of the Monitor Ranges:
  Vertical Freq: 59 - 75 Hz
  Horizontal Freq: 31469 - 82300 Hz
  Maximum Clock: 187.000 MHz
EDID block does not conform at all!
	Both the serial number and the serial string are set


