edid-decode (hex):

00 ff ff ff ff ff ff 00 10 ac f1 93 f2 06 22 00
35 18 01 03 80 2b 18 78 0a c5 b0 a4 55 52 9f 27
0e 50 54 00 00 00 01 01 01 01 01 01 01 01 01 01
01 01 01 01 01 01 44 2f 40 30 62 84 22 30 18 50
13 00 b2 ec 10 00 00 1e 00 00 00 fc 00 4f 70 74
69 50 6c 65 78 20 33 30 35 30 00 00 00 10 00 00
0a 20 20 20 20 20 20 20 20 20 20 20 00 00 00 10
00 00 0a 20 20 20 20 20 20 20 21 20 20 20 00 5e

----------------

Block 0, Base EDID:
  EDID Structure Version & Revision: 1.3
  Vendor & Product Identification:
    Manufacturer: DEL
    Model: 37873
    Serial Number: ...
    Made in: week 53 of 2014
  Basic Display Parameters & Features:
    Digital display
    Maximum image size: 43 cm x 24 cm
    Gamma: 2.20
    RGB color display
    First detailed timing is preferred timing
  Color Characteristics:
    Red  : 0.6435, 0.3320
    Green: 0.3212, 0.6220
    Blue : 0.1542, 0.0576
    White: 0.3125, 0.3281
  Established Timings I & II: none
  Standard Timings: none
  Detailed Timing Descriptors:
    DTD 1:  1600x900    59.977 Hz  16:9    56.019 kHz 121.000 MHz (434 mm x 236 mm)
                 Hfront   24 Hsync  80 Hback 456 Hpol P
                 Vfront    1 Vsync   3 Vback  30 Vpol P
    Display Product Name: 'OptiPlex 3050'
    Dummy Descriptor:
    Dummy Descriptor:
Checksum: 0x5e

----------------

Failures:

Block 0, Base EDID:
  Dummy Descriptor: Dummy block filled with garbage.
  Dummy Descriptor: Dummy block filled with garbage.
  Missing Display Range Limits Descriptor.

EDID conformity: FAIL
