edid-decode (hex):

00 ff ff ff ff ff ff 00 22 f0 00 76 00 00 00 00
0c 10 01 03 68 25 17 78 ea 01 76 9c 58 50 8c 26
1e 51 54 ad cf 00 01 01 01 01 01 01 01 01 01 01
01 01 01 01 01 01 9a 29 a0 d0 51 84 22 30 50 98
36 00 6f e6 10 00 00 1c 00 00 00 fd 00 3c 4b 1e
41 0b 00 0a 20 20 20 20 20 20 00 00 00 fc 00 48
50 20 54 46 54 37 36 30 30 0a 0a 0a 00 00 00 ff
00 41 47 30 35 32 41 0a 0a 0a 0a 0a 0a 0a 00 b9

00 ff ff ff ff ff ff 00 22 f0 00 76 00 00 00 00
0c 10 01 03 68 25 17 78 ea 01 76 9c 58 50 8c 26
1e 51 54 ad cf 00 01 01 01 01 01 01 01 01 01 01
01 01 01 01 01 01 9a 29 a0 d0 51 84 22 30 50 98
36 00 6f e6 10 00 00 1c 00 00 00 fd 00 3c 4b 1e
41 0b 00 0a 20 20 20 20 20 20 00 00 00 fc 00 48
50 20 54 46 54 37 36 30 30 0a 0a 0a 00 00 00 ff
00 41 47 30 35 32 41 0a 0a 0a 0a 0a 0a 0a 00 b9

----------------

Block 0, Base EDID:
  EDID Structure Version & Revision: 1.3
  Vendor & Product Identification:
    Manufacturer: HWP
    Model: 30208
    Made in: week 12 of 2006
  Basic Display Parameters & Features:
    Analog display
    Signal Level Standard: 0.700 : 0.000 : 0.700 V p-p
    Blank level equals black level
    Sync: Separate
    Maximum image size: 37 cm x 23 cm
    Gamma: 2.20
    DPMS levels: Standby Suspend Off
    RGB color display
    First detailed timing is the preferred timing
  Color Characteristics:
    Red  : 0.6093, 0.3437
    Green: 0.3125, 0.5478
    Blue : 0.1494, 0.1201
    White: 0.3173, 0.3300
  Established Timings I & II:
    IBM     :   720x400    70.081663 Hz   9:5     31.467 kHz     28.320000 MHz
    DMT 0x04:   640x480    59.940476 Hz   4:3     31.469 kHz     25.175000 MHz
    DMT 0x05:   640x480    72.808802 Hz   4:3     37.861 kHz     31.500000 MHz
    DMT 0x06:   640x480    75.000000 Hz   4:3     37.500 kHz     31.500000 MHz
    DMT 0x09:   800x600    60.316541 Hz   4:3     37.879 kHz     40.000000 MHz
    DMT 0x0a:   800x600    72.187572 Hz   4:3     48.077 kHz     50.000000 MHz
    DMT 0x0b:   800x600    75.000000 Hz   4:3     46.875 kHz     49.500000 MHz
    DMT 0x10:  1024x768    60.003840 Hz   4:3     48.363 kHz     65.000000 MHz
    DMT 0x11:  1024x768    70.069359 Hz   4:3     56.476 kHz     75.000000 MHz
    DMT 0x12:  1024x768    75.028582 Hz   4:3     60.023 kHz     78.750000 MHz
    DMT 0x24:  1280x1024   75.024675 Hz   5:4     79.976 kHz    135.000000 MHz
  Standard Timings: none
  Detailed Timing Descriptors:
    DTD 1:  1440x900    59.887445 Hz  16:10    55.935 kHz    106.500000 MHz (367 mm x 230 mm)
                 Hfront   80 Hsync 152 Hback  232 Hpol N
                 Vfront    3 Vsync   6 Vback   25 Vpol P
    Display Range Limits:
      Monitor ranges (GTF): 60-75 Hz V, 30-65 kHz H, max dotclock 110 MHz
    Display Product Name: 'HP TFT7600'
    Display Product Serial Number: ...
Checksum: 0xb9

----------------

Block 1, Unknown EDID Extension Block 0x00:
  00 ff ff ff ff ff ff 00 22 f0 00 76 00 00 00 00 '........"..v....'
  0c 10 01 03 68 25 17 78 ea 01 76 9c 58 50 8c 26 '....h%.x..v.XP.&'
  1e 51 54 ad cf 00 01 01 01 01 01 01 01 01 01 01 '.QT.............'
  01 01 01 01 01 01 9a 29 a0 d0 51 84 22 30 50 98 '.......)..Q."0P.'
  36 00 6f e6 10 00 00 1c 00 00 00 fd 00 3c 4b 1e '6.o..........<K.'
  41 0b 00 0a 20 20 20 20 20 20 00 00 00 fc 00 48 'A...      .....H'
  50 20 54 46 54 37 36 30 30 0a 0a 0a 00 00 00 ff 'P TFT7600.......'
  00 41 47 30 35 32 41 0a 0a 0a 0a 0a 0a 0a 00 b9 '.AG052A.........'
Checksum: 0xb9

----------------

Failures:

Block 0, Base EDID:
  Display Product Name: Non-space after newline.
  Display Product Serial Number: ...
Block 1, Base EDID:
  Unknown Extension Block.
EDID:
  Base EDID: Some timings are out of range of the Monitor Ranges:
    Horizontal Freq: 31.466 - 79.976 kHz (Monitor: 30.000 - 65.000 kHz)
    Maximum Clock: 135.000 MHz (Monitor: 110.000 MHz)
  Base EDID: EDID specified 0 extension block(s), but found 1 extension block(s).

EDID conformity: FAIL
