edid-decode (hex):

00 ff ff ff ff ff ff 00 0d af 01 12 00 00 00 00
00 00 01 03 80 1a 10 78 0a bb 80 92 56 53 90 26
20 50 54 00 00 00 01 01 01 01 01 01 01 01 01 01
01 01 01 01 01 01 bc 1b 00 a0 50 20 17 30 30 20
36 00 05 a3 10 00 00 18 00 00 00 fe 00 4e 31 32
31 49 31 0a 20 20 20 20 20 20 00 00 00 fe 00 4e
31 32 31 49 31 0a 20 20 20 20 20 20 00 00 00 fc
00 43 6f 6c 6f 72 20 4c 43 44 0a 20 20 20 00 e3

----------------

Block 0, Base EDID:
  EDID Structure Version & Revision: 1.3
  Vendor & Product Identification:
    Manufacturer: CMO
    Model: 4609
    Made in: 1990
  Basic Display Parameters & Features:
    Digital display
    Maximum image size: 26 cm x 16 cm
    Gamma: 2.20
    RGB color display
    First detailed timing is preferred timing
  Color Characteristics:
    Red  : 0.5722, 0.3388
    Green: 0.3261, 0.5654
    Blue : 0.1503, 0.1250
    White: 0.3125, 0.3281
  Established Timings I & II: none
  Standard Timings: none
  Detailed Timing Descriptors:
    DTD 1:  1280x800    59.910 Hz   8:5    49.306 kHz  71.000 MHz (261 mm x 163 mm)
                 Hfront   48 Hsync  32 Hback  80 Hpol N
                 Vfront    3 Vsync   6 Vback  14 Vpol N
    Alphanumeric Data String: 'N121I1'
    Alphanumeric Data String: 'N121I1'
    Display Product Name: 'Color LCD'
Checksum: 0xe3

----------------

Failures:

Block 0, Base EDID:
  Missing Display Range Limits Descriptor.

EDID conformity: FAIL
