
EDID (hex):
00ffffffffffff00046930e301010101
1016010380301b78eee984a555489b26
125054a10800814081809500b3000101
010101010101023a801871382d40582c
4500df0d1100001e000000fd00304c18
640a000a202020202020000000fc0045
5432323230490a2020202020000000ff
004153555332303132303531340a008d

Extracted contents:
header:          00 ff ff ff ff ff ff 00
serial number:   04 69 30 e3 01 01 01 01 10 16
version:         01 03
basic params:    80 30 1b 78 ee
chroma info:     e9 84 a5 55 48 9b 26 12 50 54
established:     a1 08 00
standard:        81 40 81 80 95 00 b3 00 01 01 01 01 01 01 01 01
descriptor 1:    02 3a 80 18 71 38 2d 40 58 2c 45 00 df 0d 11 00 00 1e
descriptor 2:    00 00 00 fd 00 30 4c 18 64 0a 00 0a 20 20 20 20 20 20
descriptor 3:    00 00 00 fc 00 45 54 32 32 32 30 49 0a 20 20 20 20 20
descriptor 4:    00 00 00 ff 00 41 53 55 53 32 30 31 32 30 35 31 34 0a
extensions:      00
checksum:        8d

EDID version: 1.3
Manufacturer: ACI Model e330 Serial Number --
Made in week 16 of 2012
Digital display
Maximum image size: 48 cm x 27 cm
Gamma: 2.20
DPMS levels: Standby Suspend Off
RGB color display
Default (sRGB) color space is primary color space
First detailed timing is preferred timing
Display x,y Chromaticity:
  Red:   0.6474, 0.3339
  Green: 0.2832, 0.6064
  Blue:  0.1503, 0.0703
  White: 0.3134, 0.3281
Established timings supported:
  720x400@70Hz 9:5 HorFreq: 31469 Hz Clock: 28.320 MHz
  640x480@60Hz 4:3 HorFreq: 31469 Hz Clock: 25.175 MHz
  800x600@60Hz 4:3 HorFreq: 37900 Hz Clock: 40.000 MHz
  1024x768@60Hz 4:3 HorFreq: 48400 Hz Clock: 65.000 MHz
Standard timings supported:
  1280x960@60Hz 4:3 HorFreq: 60000 Hz Clock: 108.000 MHz
  1280x1024@60Hz 5:4 HorFreq: 64000 Hz Clock: 108.000 MHz
  1440x900@60Hz 16:10 HorFreq: 55500 Hz Clock: 88.750 MHz
  1680x1050@60Hz 16:10 HorFreq: 64700 Hz Clock: 119.000 MHz
Detailed mode: Clock 148.500 MHz, 479 mm x 269 mm
               1920 2008 2052 2200 hborder 0
               1080 1084 1089 1125 vborder 0
               +hsync +vsync 
               VertFreq: 60 Hz, HorFreq: 67500 Hz
Monitor ranges (GTF): 48-76Hz V, 24-100kHz H, max dotclock 100MHz
Monitor name: ET2220I
Serial number: --
Checksum: 0x8d (valid)
EDID block does NOT conform to EDID 1.3!
	sRGB is signaled, but the chromaticities do not match
One or more of the timings is out of range of the Monitor Ranges:
  Vertical Freq: 60 - 70 Hz
  Horizontal Freq: 31469 - 67500 Hz
  Maximum Clock: 148.500 MHz
