
EDID (hex):
00ffffffffffff0030ae170001000000
1d1a0104a53420780abc95a85133aa26
0f505400000001010101010101010101
0101010101018c28a090518428305898
36000000000000180000001000061030
11010000000000000a20000000fe0041
494f3331300a202020202020000000fc
004c454e2d41494f3331302d4520002c

Extracted contents:
header:          00 ff ff ff ff ff ff 00
serial number:   30 ae 17 00 01 00 00 00 1d 1a
version:         01 04
basic params:    a5 34 20 78 0a
chroma info:     bc 95 a8 51 33 aa 26 0f 50 54
established:     00 00 00
standard:        01 01 01 01 01 01 01 01 01 01 01 01 01 01 01 01
descriptor 1:    8c 28 a0 90 51 84 28 30 58 98 36 00 00 00 00 00 00 18
descriptor 2:    00 00 00 10 00 06 10 30 11 01 00 00 00 00 00 00 0a 20
descriptor 3:    00 00 00 fe 00 41 49 4f 33 31 30 0a 20 20 20 20 20 20
descriptor 4:    00 00 00 fc 00 4c 45 4e 2d 41 49 4f 33 31 30 2d 45 20
extensions:      00
checksum:        2c

EDID version: 1.4
Manufacturer: LEN Model 17 Serial Number --
Made in week 29 of 2016
Digital display
8 bits per primary color channel
DisplayPort interface
Maximum image size: 52 cm x 32 cm
Gamma: 2.20
Supported color formats: RGB 4:4:4, YCrCb 4:4:4
First detailed timing includes the native pixel format and preferred refresh rate
Display x,y Chromaticity:
  Red:   0.6582, 0.3193
  Green: 0.2021, 0.6640
  Blue:  0.1503, 0.0595
  White: 0.3134, 0.3291
Established timings supported:
Standard timings supported:
Detailed mode: Clock 103.800 MHz, 0 mm x 0 mm
               1440 1528 1680 1840 hborder 0
                900  903  909  940 vborder 0
               -hsync -vsync 
               VertFreq: 60 Hz, HorFreq: 56413 Hz
Dummy block
ASCII string: AIO310
Checksum: 0x2c (valid)
EDID block does NOT conform to EDID 1.4!
	Name descriptor not terminated with a newline
	Missing monitor ranges
EDID block does not conform at all!
	Dummy block filled with garbage
