
EDID (hex):
00ffffffffffff00406c0305fba63101
340d0104a51e1664e037259e584a9726
195054ad4e0001010101010101010101
010101010101c31e0020410020301060
130030e41000001e000000fd00384b1f
3cff000a202020202020000000fc0050
726573746967696f0a202020000000fc
0020503135310a2020202020202000f7

Extracted contents:
header:          00 ff ff ff ff ff ff 00
serial number:   40 6c 03 05 fb a6 31 01 34 0d
version:         01 04
basic params:    a5 1e 16 64 e0
chroma info:     37 25 9e 58 4a 97 26 19 50 54
established:     ad 4e 00
standard:        01 01 01 01 01 01 01 01 01 01 01 01 01 01 01 01
descriptor 1:    c3 1e 00 20 41 00 20 30 10 60 13 00 30 e4 10 00 00 1e
descriptor 2:    00 00 00 fd 00 38 4b 1f 3c ff 00 0a 20 20 20 20 20 20
descriptor 3:    00 00 00 fc 00 50 72 65 73 74 69 67 69 6f 0a 20 20 20
descriptor 4:    00 00 00 fc 00 20 50 31 35 31 0a 20 20 20 20 20 20 20
extensions:      00
checksum:        f7

EDID version: 1.4
Manufacturer: PCL Model 503 Serial Number --
Digital display
8 bits per primary color channel
DisplayPort interface
Maximum image size: 30 cm x 22 cm
Gamma: 2.00
DPMS levels: Standby Suspend Off
Supported color formats: RGB 4:4:4
Display x,y Chromaticity:
  Red:   0.6171, 0.3466
  Green: 0.2900, 0.5927
  Blue:  0.1484, 0.0996
  White: 0.3134, 0.3291
Established timings supported:
  720x400@70Hz 9:5 HorFreq: 31469 Hz Clock: 28.320 MHz
  640x480@60Hz 4:3 HorFreq: 31469 Hz Clock: 25.175 MHz
  640x480@72Hz 4:3 HorFreq: 37900 Hz Clock: 31.500 MHz
  640x480@75Hz 4:3 HorFreq: 37500 Hz Clock: 31.500 MHz
  800x600@60Hz 4:3 HorFreq: 37900 Hz Clock: 40.000 MHz
  800x600@75Hz 4:3 HorFreq: 46900 Hz Clock: 49.500 MHz
  1024x768@60Hz 4:3 HorFreq: 48400 Hz Clock: 65.000 MHz
  1024x768@70Hz 4:3 HorFreq: 56500 Hz Clock: 75.000 MHz
  1024x768@75Hz 4:3 HorFreq: 60000 Hz Clock: 78.750 MHz
Standard timings supported:
Detailed mode: Clock 78.750 MHz, 304 mm x 228 mm
               1024 1040 1136 1312 hborder 0
                768  769  772  800 vborder 0
               +hsync +vsync 
               VertFreq: 75 Hz, HorFreq: 60022 Hz
Monitor ranges (GTF): 56-75Hz V, 31-60kHz H, max dotclock 2550MHz
Monitor name: Prestigio
Checksum: 0xf7 (valid)
Warning: One or more of the timings is out of range of the Monitor Ranges:
  Vertical Freq: 60 - 75 Hz
  Horizontal Freq: 31469 - 60022 Hz
  Maximum Clock: 78.750 MHz
EDID block does not conform at all!
	Bad year of manufacture
