
EDID (hex):
00ffffffffffff004dd97105c9185c00
160c01020e2118962b0cc9a057479b27
12484cffff803159455961597159814f
81598199a94fea240060410028303060
130038ea1000001e000000fd0030aa1e
6016000a202020202020000000fc0043
50442d473232300a20202020000000ff
00363033353635370a202020202000f2

Extracted contents:
header:          00 ff ff ff ff ff ff 00
serial number:   4d d9 71 05 c9 18 5c 00 16 0c
version:         01 02
basic params:    0e 21 18 96 2b
chroma info:     0c c9 a0 57 47 9b 27 12 48 4c
established:     ff ff 80
standard:        31 59 45 59 61 59 71 59 81 4f 81 59 81 99 a9 4f
descriptor 1:    ea 24 00 60 41 00 28 30 30 60 13 00 38 ea 10 00 00 1e
descriptor 2:    00 00 00 fd 00 30 aa 1e 60 16 00 0a 20 20 20 20 20 20
descriptor 3:    00 00 00 fc 00 43 50 44 2d 47 32 32 30 0a 20 20 20 20
descriptor 4:    00 00 00 ff 00 36 30 33 35 36 35 37 0a 20 20 20 20 20
extensions:      00
checksum:        f2

EDID version: 1.2
Manufacturer: SNY Model 571 Serial Number --
Analog display, Input voltage level: 0.7/0.3 V
Sync: Separate Composite SyncOnGreen 
Maximum image size: 33 cm x 24 cm
Gamma: 2.50
DPMS levels: Off
RGB color display
First detailed timing is preferred timing
Supports GTF timings within operating range
Display x,y Chromaticity:
  Red:   0.6250, 0.3398
  Green: 0.2802, 0.6054
  Blue:  0.1552, 0.0703
  White: 0.2832, 0.2978
Established timings supported:
  720x400@70Hz 9:5 HorFreq: 31469 Hz Clock: 28.320 MHz
  720x400@88Hz 9:5 HorFreq: 39500 Hz Clock: 35.500 MHz
  640x480@60Hz 4:3 HorFreq: 31469 Hz Clock: 25.175 MHz
  640x480@67Hz 4:3 HorFreq: 35000 Hz Clock: 30.240 MHz
  640x480@72Hz 4:3 HorFreq: 37900 Hz Clock: 31.500 MHz
  640x480@75Hz 4:3 HorFreq: 37500 Hz Clock: 31.500 MHz
  800x600@56Hz 4:3 HorFreq: 35200 Hz Clock: 36.000 MHz
  800x600@60Hz 4:3 HorFreq: 37900 Hz Clock: 40.000 MHz
  800x600@72Hz 4:3 HorFreq: 48100 Hz Clock: 50.000 MHz
  800x600@75Hz 4:3 HorFreq: 46900 Hz Clock: 49.500 MHz
  832x624@75Hz 4:3 HorFreq: 49726 Hz Clock: 57.284 MHz
  1280x768i@87Hz 5:3 HorFreq: 35522 Hz Clock: 44.900 MHz
  1024x768@60Hz 4:3 HorFreq: 48400 Hz Clock: 65.000 MHz
  1024x768@70Hz 4:3 HorFreq: 56500 Hz Clock: 75.000 MHz
  1024x768@75Hz 4:3 HorFreq: 60000 Hz Clock: 78.750 MHz
  1280x1024@75Hz 5:4 HorFreq: 80000 Hz Clock: 135.000 MHz
  1152x870@75Hz 192:145 HorFreq: 67500 Hz Clock: 108.000 MHz
Standard timings supported:
  640x480@85Hz 4:3 HorFreq: 43300 Hz Clock: 36.000 MHz
  800x600@85Hz 4:3 HorFreq: 53700 Hz Clock: 56.250 MHz
  1024x768@85Hz 4:3 HorFreq: 68700 Hz Clock: 94.500 MHz
  1152x864@85Hz 4:3
  1280x960@75Hz 4:3
  1280x960@85Hz 4:3 HorFreq: 85900 Hz Clock: 148.500 MHz
  1280x1024@85Hz 5:4 HorFreq: 91100 Hz Clock: 157.500 MHz
  1600x1200@75Hz 4:3 HorFreq: 93800 Hz Clock: 202.500 MHz
Detailed mode: Clock 94.500 MHz, 312 mm x 234 mm
               1024 1072 1168 1376 hborder 0
                768  769  772  808 vborder 0
               +hsync +vsync 
               VertFreq: 84 Hz, HorFreq: 68677 Hz
Monitor ranges (GTF): 48-170Hz V, 30-96kHz H, max dotclock 220MHz
Monitor name: CPD-G220
Serial number: --
Checksum: 0xf2 (valid)
EDID block does not conform at all!
	Bad year of manufacture
