edid-decode (hex):

00 ff ff ff ff ff ff 00 22 83 40 9c 00 00 00 00
14 0b 01 01 68 21 19 7a e8 26 a2 9c 57 6c 96 26
10 48 4f ff fe 80 31 59 45 59 61 59 31 4a 81 40
61 40 01 01 01 01 30 2a 80 c0 41 60 24 30 40 80
13 00 2c e1 10 00 00 1e 30 2a 00 98 51 00 2a 40
30 70 13 00 2c e1 10 00 00 1e 00 00 00 fd 00 32
a0 1e 46 ff 00 0a 20 20 20 20 20 20 00 00 00 fc
00 43 4d 36 32 31 46 0a 20 20 20 20 20 20 00 2d

00 ff ff ff ff ff ff 00 22 83 40 9c 00 00 00 00
14 0b 01 01 68 21 19 7a e8 26 a2 9c 57 6c 96 26
10 48 4f ff fe 80 31 59 45 59 61 59 31 4a 81 40
61 40 01 01 01 01 30 2a 80 c0 41 60 24 30 40 80
13 00 2c e1 10 00 00 1e 30 2a 00 98 51 00 2a 40
30 70 13 00 2c e1 10 00 00 1e 00 00 00 fd 00 32
a0 1e 46 ff 00 0a 20 20 20 20 20 20 00 00 00 fc
00 43 4d 36 32 31 46 0a 20 20 20 20 20 20 00 2d

----------------

Block 0, Base EDID:
  EDID Structure Version & Revision: 1.1
  Vendor & Product Identification:
    Manufacturer: HTC
    Model: 40000
    Made in: week 20 of 2001
  Basic Display Parameters & Features:
    Analog display
    Signal Level Standard: 0.700 : 0.000 : 0.700 V p-p
    Blank level equals black level
    Sync: Separate
    Maximum image size: 33 cm x 25 cm
    Gamma: 2.22
    DPMS levels: Standby Suspend Off
    RGB color display
  Color Characteristics:
    Red  : 0.6093, 0.3417
    Green: 0.4228, 0.5878
    Blue : 0.1503, 0.0644
    White: 0.2812, 0.3105
  Established Timings I & II:
    IBM     :   720x400    70.081663 Hz   9:5     31.467 kHz     28.320000 MHz
    IBM     :   720x400    87.849542 Hz   9:5     39.444 kHz     35.500000 MHz
    DMT 0x04:   640x480    59.940476 Hz   4:3     31.469 kHz     25.175000 MHz
    Apple   :   640x480    66.666667 Hz   4:3     35.000 kHz     30.240000 MHz
    DMT 0x05:   640x480    72.808802 Hz   4:3     37.861 kHz     31.500000 MHz
    DMT 0x06:   640x480    75.000000 Hz   4:3     37.500 kHz     31.500000 MHz
    DMT 0x08:   800x600    56.250000 Hz   4:3     35.156 kHz     36.000000 MHz
    DMT 0x09:   800x600    60.316541 Hz   4:3     37.879 kHz     40.000000 MHz
    DMT 0x0a:   800x600    72.187572 Hz   4:3     48.077 kHz     50.000000 MHz
    DMT 0x0b:   800x600    75.000000 Hz   4:3     46.875 kHz     49.500000 MHz
    Apple   :   832x624    74.551266 Hz   4:3     49.726 kHz     57.284000 MHz
    DMT 0x0f:  1024x768i   86.957532 Hz   4:3     35.522 kHz     44.900000 MHz
    DMT 0x10:  1024x768    60.003840 Hz   4:3     48.363 kHz     65.000000 MHz
    DMT 0x11:  1024x768    70.069359 Hz   4:3     56.476 kHz     75.000000 MHz
    DMT 0x12:  1024x768    75.028582 Hz   4:3     60.023 kHz     78.750000 MHz
    Apple   :  1152x870    75.061550 Hz 192:145   68.681 kHz    100.000000 MHz
  Standard Timings:
    DMT 0x07:   640x480    85.008312 Hz   4:3     43.269 kHz     36.000000 MHz
    DMT 0x0c:   800x600    85.061274 Hz   4:3     53.674 kHz     56.250000 MHz
    DMT 0x13:  1024x768    84.996690 Hz   4:3     68.677 kHz     94.500000 MHz
    Unknown :   640x480    70.000 Hz   4:3
    DMT 0x20:  1280x960    60.000000 Hz   4:3     60.000 kHz    108.000000 MHz
    DMT 0x10:  1024x768    60.003840 Hz   4:3     48.363 kHz     65.000000 MHz
  Detailed Timing Descriptors:
    DTD 1:  1152x864    75.000000 Hz   4:3     67.500 kHz    108.000000 MHz (300 mm x 225 mm)
                 Hfront   64 Hsync 128 Hback  256 Hpol P
                 Vfront    1 Vsync   3 Vback   32 Vpol P
    DTD 2:  1280x1024   60.019740 Hz   5:4     63.981 kHz    108.000000 MHz (300 mm x 225 mm)
                 Hfront   48 Hsync 112 Hback  248 Hpol P
                 Vfront    1 Vsync   3 Vback   38 Vpol P
    Display Range Limits:
      Monitor ranges (GTF): 50-160 Hz V, 30-70 kHz H, max dotclock 2550 MHz
    Display Product Name: 'CM621F'
Checksum: 0x2d

----------------

Block 1, Unknown EDID Extension Block 0x00:
  00 ff ff ff ff ff ff 00 22 83 40 9c 00 00 00 00 '........".@.....'
  14 0b 01 01 68 21 19 7a e8 26 a2 9c 57 6c 96 26 '....h!.z.&..Wl.&'
  10 48 4f ff fe 80 31 59 45 59 61 59 31 4a 81 40 '.HO...1YEYaY1J.@'
  61 40 01 01 01 01 30 2a 80 c0 41 60 24 30 40 80 'a@....0*..A`$0@.'
  13 00 2c e1 10 00 00 1e 30 2a 00 98 51 00 2a 40 '..,.....0*..Q.*@'
  30 70 13 00 2c e1 10 00 00 1e 00 00 00 fd 00 32 '0p..,..........2'
  a0 1e 46 ff 00 0a 20 20 20 20 20 20 00 00 00 fc '..F...      ....'
  00 43 4d 36 32 31 46 0a 20 20 20 20 20 20 00 2d '.CM621F.      .-'
Checksum: 0x2d

----------------

Warnings:

Block 0, Base EDID:
  EDID Structure Version & Revision: EDID 1.1 is deprecated, do not use.

Failures:

Block 0, Base EDID:
  Detailed Timing Descriptor #1: Mismatch of image size 300x225 mm vs display size 330x250 mm.
  Detailed Timing Descriptor #2: Mismatch of image size 300x225 mm vs display size 330x250 mm.
Block 1, Base EDID:
  Unknown Extension Block.
EDID:
  Base EDID: EDID specified 0 extension block(s), but found 1 extension block(s).

EDID conformity: FAIL
