
EDID (hex):
00ffffffffffff0034387e07161c0600
240f01030e261e96ea1145a45a4aa024
145054afcf0001010101614c81800101
010101010101d60980a0205e63103060
0200782d1100001e000000ff00353336
41413033343030343036000000fc0031
30313931310a202020202020000000fd
00384b1f530e000a20202020202000bf

Extracted contents:
header:          00 ff ff ff ff ff ff 00
serial number:   34 38 7e 07 16 1c 06 00 24 0f
version:         01 03
basic params:    0e 26 1e 96 ea
chroma info:     11 45 a4 5a 4a a0 24 14 50 54
established:     af cf 00
standard:        01 01 01 01 61 4c 81 80 01 01 01 01 01 01 01 01
descriptor 1:    d6 09 80 a0 20 5e 63 10 30 60 02 00 78 2d 11 00 00 1e
descriptor 2:    00 00 00 ff 00 35 33 36 41 41 30 33 34 30 30 34 30 36
descriptor 3:    00 00 00 fc 00 31 30 31 39 31 31 0a 20 20 20 20 20 20
descriptor 4:    00 00 00 fd 00 38 4b 1f 53 0e 00 0a 20 20 20 20 20 20
extensions:      00
checksum:        bf

EDID version: 1.3
Manufacturer: MAX Model 77e Serial Number --
Analog display, Input voltage level: 0.7/0.3 V
Sync: Separate Composite SyncOnGreen 
Maximum image size: 38 cm x 30 cm
Gamma: 2.50
DPMS levels: Standby Suspend Off
RGB color display
First detailed timing is preferred timing
Display x,y Chromaticity:
  Red:   0.6406, 0.3525
  Green: 0.2890, 0.6259
  Blue:  0.1416, 0.0781
  White: 0.3134, 0.3291
Established timings supported:
  720x400@70Hz 9:5 HorFreq: 31469 Hz Clock: 28.320 MHz
  640x480@60Hz 4:3 HorFreq: 31469 Hz Clock: 25.175 MHz
  640x480@72Hz 4:3 HorFreq: 37900 Hz Clock: 31.500 MHz
  640x480@75Hz 4:3 HorFreq: 37500 Hz Clock: 31.500 MHz
  800x600@56Hz 4:3 HorFreq: 35200 Hz Clock: 36.000 MHz
  800x600@60Hz 4:3 HorFreq: 37900 Hz Clock: 40.000 MHz
  800x600@72Hz 4:3 HorFreq: 48100 Hz Clock: 50.000 MHz
  800x600@75Hz 4:3 HorFreq: 46900 Hz Clock: 49.500 MHz
  1024x768@60Hz 4:3 HorFreq: 48400 Hz Clock: 65.000 MHz
  1024x768@70Hz 4:3 HorFreq: 56500 Hz Clock: 75.000 MHz
  1024x768@75Hz 4:3 HorFreq: 60000 Hz Clock: 78.750 MHz
  1280x1024@75Hz 5:4 HorFreq: 80000 Hz Clock: 135.000 MHz
Standard timings supported:
  1024x768@72Hz 4:3
  1280x1024@60Hz 5:4 HorFreq: 64000 Hz Clock: 108.000 MHz
Detailed mode: Clock 25.180 MHz, 376 mm x 301 mm
                640  688  784  800 hborder 0
                350  350  352  449 vborder 0
               +hsync +vsync 
               VertFreq: 70 Hz, HorFreq: 31475 Hz
Serial number: --
Monitor name: 101911
Monitor ranges (GTF): 56-75Hz V, 31-83kHz H, max dotclock 140MHz
Checksum: 0xbf (valid)
EDID block does not conform at all!
	Bad year of manufacture
