
EDID (hex):
00ffffffffffff0009e5d10900000000
211e0104951f11780328659759548e27
1e505400000001010101010101010101
0101010101018e3880cc703838403020
360035ae1000001ab42580cc70383840
3020360035ae1000001a000000000000
00000000000000000000000000000002
000d40ff0a3c7d1611217d00000000ef

Extracted contents:
header:          00 ff ff ff ff ff ff 00
serial number:   09 e5 d1 09 00 00 00 00 21 1e
version:         01 04
basic params:    95 1f 11 78 03
chroma info:     28 65 97 59 54 8e 27 1e 50 54
established:     00 00 00
standard:        01 01 01 01 01 01 01 01 01 01 01 01 01 01 01 01
descriptor 1:    8e 38 80 cc 70 38 38 40 30 20 36 00 35 ae 10 00 00 1a
descriptor 2:    b4 25 80 cc 70 38 38 40 30 20 36 00 35 ae 10 00 00 1a
descriptor 3:    00 00 00 00 00 00 00 00 00 00 00 00 00 00 00 00 00 00
descriptor 4:    00 00 00 02 00 0d 40 ff 0a 3c 7d 16 11 21 7d 00 00 00
extensions:      00
checksum:        ef

EDID version: 1.4
Manufacturer: BOE Model 9d1 Serial Number --
Made in week 33 of 2020
Digital display
6 bits per primary color channel
DisplayPort interface
Maximum image size: 31 cm x 17 cm
Gamma: 2.20
Supported color formats: RGB 4:4:4
First detailed timing includes the native pixel format and preferred refresh rate
Display is continuous frequency
Display x,y Chromaticity:
  Red:   0.5898, 0.3496
  Green: 0.3300, 0.5546
  Blue:  0.1533, 0.1191
  White: 0.3134, 0.3291
Established timings supported:
Standard timings supported:
Detailed mode: Clock 144.780 MHz, 309 mm x 174 mm
               1920 1968 2000 2124 hborder 0
               1080 1083 1089 1136 vborder 0
               +hsync -vsync 
               VertFreq: 60 Hz, HorFreq: 68163 Hz
Detailed mode: Clock 96.520 MHz, 309 mm x 174 mm
               1920 1968 2000 2124 hborder 0
               1080 1083 1089 1136 vborder 0
               +hsync -vsync 
               VertFreq: 40 Hz, HorFreq: 45442 Hz
Manufacturer-specified data, tag 0
Manufacturer-specified data, tag 2
Checksum: 0xef (valid)
EDID block does NOT conform to EDID 1.4!
	Missing name descriptor
	Missing monitor ranges
