edid-decode (hex):

00 ff ff ff ff ff ff 00 22 f0 0b 40 02 00 00 00
18 13 01 03 80 2c 19 78 ee 76 f0 a6 55 48 9a 26
11 50 54 01 08 00 a9 c0 95 00 8b c0 81 c0 81 80
01 01 01 01 01 01 3b 2e 40 00 62 84 22 30 18 50
13 00 bb f9 10 00 00 1e 3b 2e 40 00 62 84 22 30
18 50 13 00 bb f9 10 00 00 1e 00 00 00 fc 00 48
50 20 54 6f 75 63 68 53 6d 61 72 74 00 00 00 fd
00 37 41 1a 41 0d 00 0a 20 20 20 20 20 20 00 b4

----------------

Block 0, Base EDID:
  EDID Structure Version & Revision: 1.3
  Vendor & Product Identification:
    Manufacturer: HWP
    Model: 16395
    Serial Number: ...
    Made in: week 24 of 2009
  Basic Display Parameters & Features:
    Digital display
    Maximum image size: 44 cm x 25 cm
    Gamma: 2.20
    DPMS levels: Standby Suspend Off
    RGB color display
    Default (sRGB) color space is primary color space
    First detailed timing is preferred timing
  Color Characteristics:
    Red  : 0.6494, 0.3349
    Green: 0.2822, 0.6035
    Blue : 0.1513, 0.0693
    White: 0.3125, 0.3281
  Established Timings I & II:
    DMT 0x09:   800x600    60.317 Hz   4:3    37.879 kHz  40.000 MHz
    DMT 0x10:  1024x768    60.004 Hz   4:3    48.363 kHz  65.000 MHz
  Standard Timings:
    DMT 0x53:  1600x900    60.000 Hz  16:9    60.000 kHz 108.000 MHz (RB)
    DMT 0x2f:  1440x900    59.887 Hz  16:10   55.935 kHz 106.500 MHz
    GTF     :  1360x768    60.000 Hz  16:9    47.700 kHz  84.715 MHz
    DMT 0x55:  1280x720    60.000 Hz  16:9    45.000 kHz  74.250 MHz
    DMT 0x23:  1280x1024   60.020 Hz   5:4    63.981 kHz 108.000 MHz
  Detailed Timing Descriptors:
    DTD 1:  1600x900    59.997 Hz  16:9    56.037 kHz 118.350 MHz (443 mm x 249 mm)
                 Hfront   24 Hsync  80 Hback 408 Hpol P
                 Vfront    1 Vsync   3 Vback  30 Vpol P
    DTD 2:  1600x900    59.997 Hz  16:9    56.037 kHz 118.350 MHz (443 mm x 249 mm)
                 Hfront   24 Hsync  80 Hback 408 Hpol P
                 Vfront    1 Vsync   3 Vback  30 Vpol P
    Display Product Name: 'HP TouchSmart'
  Display Range Limits:
    Monitor ranges (GTF): 55-65 Hz V, 26-65 kHz H, max dotclock 130 MHz
Checksum: 0xb4

----------------

Failures:

Block 0, Base EDID:
  Basic Display Parameters & Features: sRGB is signaled, but the chromaticities do not match.

EDID conformity: FAIL
