edid-decode (hex):

00 ff ff ff ff ff ff 00 4d d9 70 17 63 cb 47 00
13 0b 01 02 0c 21 18 96 2a 0c c9 a0 57 47 9b 27
12 48 4c ff ff 80 71 59 61 59 45 59 31 59 a9 45
81 80 81 40 01 01 ea 24 00 60 41 00 28 30 30 60
13 00 38 ea 10 00 00 1e 00 00 00 fd 00 30 78 1e
55 14 00 0a 20 20 20 20 20 20 00 00 00 fc 00 43
50 44 2d 45 32 32 30 45 0a 20 20 20 00 00 00 ff
00 34 37 30 35 31 32 33 0a 20 20 20 20 20 00 e0

00 ff ff ff ff ff ff 00 4d d9 70 17 63 cb 47 00
13 0b 01 02 0c 21 18 96 2a 0c c9 a0 57 47 9b 27
12 48 4c ff ff 80 71 59 61 59 45 59 31 59 a9 45
81 80 81 40 01 01 ea 24 00 60 41 00 28 30 30 60
13 00 38 ea 10 00 00 1e 00 00 00 fd 00 30 78 1e
55 14 00 0a 20 20 20 20 20 20 00 00 00 fc 00 43
50 44 2d 45 32 32 30 45 0a 20 20 20 00 00 00 ff
00 34 37 30 35 31 32 33 0a 20 20 20 20 20 00 e0

----------------

Block 0, Base EDID:
  EDID Structure Version & Revision: 1.2
  Vendor & Product Identification:
    Manufacturer: SNY
    Model: 6000
    Serial Number: ...
    Made in: week 19 of 2001
  Basic Display Parameters & Features:
    Analog display
    Signal Level Standard: 0.700 : 0.300 : 1.000 V p-p
    Blank level equals black level
    Sync: Separate Composite
    Maximum image size: 33 cm x 24 cm
    Gamma: 2.50
    DPMS levels: Off
    RGB color display
    First detailed timing is the preferred timing
  Color Characteristics:
    Red  : 0.6250, 0.3398
    Green: 0.2802, 0.6054
    Blue : 0.1552, 0.0703
    White: 0.2832, 0.2978
  Established Timings I & II:
    IBM     :   720x400    70.081663 Hz   9:5     31.467 kHz     28.320000 MHz
    IBM     :   720x400    87.849542 Hz   9:5     39.444 kHz     35.500000 MHz
    DMT 0x04:   640x480    59.940476 Hz   4:3     31.469 kHz     25.175000 MHz
    Apple   :   640x480    66.666667 Hz   4:3     35.000 kHz     30.240000 MHz
    DMT 0x05:   640x480    72.808802 Hz   4:3     37.861 kHz     31.500000 MHz
    DMT 0x06:   640x480    75.000000 Hz   4:3     37.500 kHz     31.500000 MHz
    DMT 0x08:   800x600    56.250000 Hz   4:3     35.156 kHz     36.000000 MHz
    DMT 0x09:   800x600    60.316541 Hz   4:3     37.879 kHz     40.000000 MHz
    DMT 0x0a:   800x600    72.187572 Hz   4:3     48.077 kHz     50.000000 MHz
    DMT 0x0b:   800x600    75.000000 Hz   4:3     46.875 kHz     49.500000 MHz
    Apple   :   832x624    74.551266 Hz   4:3     49.726 kHz     57.284000 MHz
    DMT 0x0f:  1024x768i   86.957532 Hz   4:3     35.522 kHz     44.900000 MHz
    DMT 0x10:  1024x768    60.003840 Hz   4:3     48.363 kHz     65.000000 MHz
    DMT 0x11:  1024x768    70.069359 Hz   4:3     56.476 kHz     75.000000 MHz
    DMT 0x12:  1024x768    75.028582 Hz   4:3     60.023 kHz     78.750000 MHz
    DMT 0x24:  1280x1024   75.024675 Hz   5:4     79.976 kHz    135.000000 MHz
    Apple   :  1152x870    75.061550 Hz 192:145   68.681 kHz    100.000000 MHz
  Standard Timings:
    GTF     :  1152x864    84.999687 Hz   4:3     77.095 kHz    119.651000 MHz
    DMT 0x13:  1024x768    84.996690 Hz   4:3     68.677 kHz     94.500000 MHz
    DMT 0x0c:   800x600    85.061274 Hz   4:3     53.674 kHz     56.250000 MHz
    DMT 0x07:   640x480    85.008312 Hz   4:3     43.269 kHz     36.000000 MHz
    DMT 0x34:  1600x1200   65.000000 Hz   4:3     81.250 kHz    175.500000 MHz
    DMT 0x23:  1280x1024   60.019740 Hz   5:4     63.981 kHz    108.000000 MHz
    DMT 0x20:  1280x960    60.000000 Hz   4:3     60.000 kHz    108.000000 MHz
  Detailed Timing Descriptors:
    DTD 1:  1024x768    84.996690 Hz   4:3     68.677 kHz     94.500000 MHz (312 mm x 234 mm)
                 Hfront   48 Hsync  96 Hback  208 Hpol P
                 Vfront    1 Vsync   3 Vback   36 Vpol P
    Display Range Limits:
      Monitor ranges (GTF): 48-120 Hz V, 30-85 kHz H, max dotclock 200 MHz
    Display Product Name: 'CPD-E220E'
    Display Product Serial Number: ...
Checksum: 0xe0

----------------

Block 1, Unknown EDID Extension Block 0x00:
  00 ff ff ff ff ff ff 00 4d d9 70 17 63 cb 47 00 '........M.p.c.G.'
  13 0b 01 02 0c 21 18 96 2a 0c c9 a0 57 47 9b 27 '.....!..*...WG.''
  12 48 4c ff ff 80 71 59 61 59 45 59 31 59 a9 45 '.HL...qYaYEY1Y.E'
  81 80 81 40 01 01 ea 24 00 60 41 00 28 30 30 60 '...@...$.`A.(00`'
  13 00 38 ea 10 00 00 1e 00 00 00 fd 00 30 78 1e '..8..........0x.'
  55 14 00 0a 20 20 20 20 20 20 00 00 00 fc 00 43 'U...      .....C'
  50 44 2d 45 32 32 30 45 0a 20 20 20 00 00 00 ff 'PD-E220E.   ....'
  00 34 37 30 35 31 32 33 0a 20 20 20 20 20 00 e0 '.4705123.     ..'
Checksum: 0xe0

----------------

Warnings:

Block 0, Base EDID:
  EDID Structure Version & Revision: EDID 1.2 is deprecated, do not use.

Failures:

Block 1, Base EDID:
  Unknown Extension Block.
EDID:
  Base EDID: EDID specified 0 extension block(s), but found 1 extension block(s).

EDID conformity: FAIL
