
EDID (hex):
00ffffffffffff000daebc1300000000
271e0104951d11780328659759548e27
1e505400000001010101010101010101
010101010101a43880e670382c403020
350025a51000001ac32580e670382c40
3020350025a51000001a000000000000
00000000000000000000000000000002
000c3dff0d3c7d120d1c7d000000002a

Extracted contents:
header:          00 ff ff ff ff ff ff 00
serial number:   0d ae bc 13 00 00 00 00 27 1e
version:         01 04
basic params:    95 1d 11 78 03
chroma info:     28 65 97 59 54 8e 27 1e 50 54
established:     00 00 00
standard:        01 01 01 01 01 01 01 01 01 01 01 01 01 01 01 01
descriptor 1:    a4 38 80 e6 70 38 2c 40 30 20 35 00 25 a5 10 00 00 1a
descriptor 2:    c3 25 80 e6 70 38 2c 40 30 20 35 00 25 a5 10 00 00 1a
descriptor 3:    00 00 00 00 00 00 00 00 00 00 00 00 00 00 00 00 00 00
descriptor 4:    00 00 00 02 00 0c 3d ff 0d 3c 7d 12 0d 1c 7d 00 00 00
extensions:      00
checksum:        2a

EDID version: 1.4
Manufacturer: CMN Model 13bc Serial Number --
Made in week 39 of 2020
Digital display
6 bits per primary color channel
DisplayPort interface
Maximum image size: 29 cm x 17 cm
Gamma: 2.20
Supported color formats: RGB 4:4:4
First detailed timing includes the native pixel format and preferred refresh rate
Display is continuous frequency
Display x,y Chromaticity:
  Red:   0.5898, 0.3496
  Green: 0.3300, 0.5546
  Blue:  0.1533, 0.1191
  White: 0.3134, 0.3291
Established timings supported:
Standard timings supported:
Detailed mode: Clock 145.000 MHz, 293 mm x 165 mm
               1920 1968 2000 2150 hborder 0
               1080 1083 1088 1124 vborder 0
               +hsync -vsync 
               VertFreq: 60 Hz, HorFreq: 67441 Hz
Detailed mode: Clock 96.670 MHz, 293 mm x 165 mm
               1920 1968 2000 2150 hborder 0
               1080 1083 1088 1124 vborder 0
               +hsync -vsync 
               VertFreq: 40 Hz, HorFreq: 44962 Hz
Manufacturer-specified data, tag 0
Manufacturer-specified data, tag 2
Checksum: 0x2a (valid)
EDID block does NOT conform to EDID 1.4!
	Missing name descriptor
	Missing monitor ranges
