
EDID (hex):
00ffffffffffff006993f20801010101
1919010380462778ea2d36a75438ae26
0d4f54210800d1c0b30095008180a9c0
810071408140023a801871382d40582c
4500ba882100001e662150b051001b30
407036009ae61000001e000000fd003c
421e530f000a202020202020000000fc
00453238313954564d0a2020202000c8

Extracted contents:
header:          00 ff ff ff ff ff ff 00
serial number:   69 93 f2 08 01 01 01 01 19 19
version:         01 03
basic params:    80 46 27 78 ea
chroma info:     2d 36 a7 54 38 ae 26 0d 4f 54
established:     21 08 00
standard:        d1 c0 b3 00 95 00 81 80 a9 c0 81 00 71 40 81 40
descriptor 1:    02 3a 80 18 71 38 2d 40 58 2c 45 00 ba 88 21 00 00 1e
descriptor 2:    66 21 50 b0 51 00 1b 30 40 70 36 00 9a e6 10 00 00 1e
descriptor 3:    00 00 00 fd 00 3c 42 1e 53 0f 00 0a 20 20 20 20 20 20
descriptor 4:    00 00 00 fc 00 45 32 38 31 39 54 56 4d 0a 20 20 20 20
extensions:      00
checksum:        c8

EDID version: 1.3
Manufacturer: ZLS Model 8f2 Serial Number --
Made in week 25 of 2015
Digital display
Maximum image size: 70 cm x 39 cm
Gamma: 2.20
DPMS levels: Standby Suspend Off
RGB color display
First detailed timing is preferred timing
Display x,y Chromaticity:
  Red:   0.6523, 0.3300
  Green: 0.2216, 0.6806
  Blue:  0.1484, 0.0537
  White: 0.3095, 0.3300
Established timings supported:
  640x480@60Hz 4:3 HorFreq: 31469 Hz Clock: 25.175 MHz
  800x600@60Hz 4:3 HorFreq: 37900 Hz Clock: 40.000 MHz
  1024x768@60Hz 4:3 HorFreq: 48400 Hz Clock: 65.000 MHz
Standard timings supported:
  1920x1080@60Hz 16:9
  1680x1050@60Hz 16:10 HorFreq: 64700 Hz Clock: 119.000 MHz
  1440x900@60Hz 16:10 HorFreq: 55500 Hz Clock: 88.750 MHz
  1280x1024@60Hz 5:4 HorFreq: 64000 Hz Clock: 108.000 MHz
  1600x900@60Hz 16:9
  1280x800@60Hz 16:10
  1152x864@60Hz 4:3
  1280x960@60Hz 4:3 HorFreq: 60000 Hz Clock: 108.000 MHz
Detailed mode: Clock 148.500 MHz, 698 mm x 392 mm
               1920 2008 2052 2200 hborder 0
               1080 1084 1089 1125 vborder 0
               +hsync +vsync 
               VertFreq: 60 Hz, HorFreq: 67500 Hz
Detailed mode: Clock 85.500 MHz, 410 mm x 230 mm
               1360 1424 1536 1792 hborder 0
                768  771  777  795 vborder 0
               +hsync +vsync 
               VertFreq: 60 Hz, HorFreq: 47712 Hz
Monitor ranges (GTF): 60-66Hz V, 30-83kHz H, max dotclock 150MHz
Monitor name: E2819TVM
Checksum: 0xc8 (valid)
