
EDID (hex):
00ffffffffffff003ac4000800000000
2d0c010380201400eaa8e099574b9225
1c505400000001010101010101010101
010101010101421d000051200c30c430
530042c910000018000000fc004e7669
6469612044656661756c000000fc0074
20466c61742050616e656c00000000fd
00003d1d310800002020202020000036

Extracted contents:
header:          00 ff ff ff ff ff ff 00
serial number:   3a c4 00 08 00 00 00 00 2d 0c
version:         01 03
basic params:    80 20 14 00 ea
chroma info:     a8 e0 99 57 4b 92 25 1c 50 54
established:     00 00 00
standard:        01 01 01 01 01 01 01 01 01 01 01 01 01 01 01 01
descriptor 1:    42 1d 00 00 51 20 0c 30 c4 30 53 00 42 c9 10 00 00 18
descriptor 2:    00 00 00 fc 00 4e 76 69 64 69 61 20 44 65 66 61 75 6c
descriptor 3:    00 00 00 fc 00 74 20 46 6c 61 74 20 50 61 6e 65 6c 00
descriptor 4:    00 00 00 fd 00 00 3d 1d 31 08 00 00 20 20 20 20 20 00
extensions:      00
checksum:        36

EDID version: 1.3
Manufacturer: NVD Model 800 Serial Number --
Digital display
Maximum image size: 32 cm x 20 cm
Gamma: 1.00
DPMS levels: Standby Suspend Off
RGB color display
First detailed timing is preferred timing
Display x,y Chromaticity:
  Red:   0.5996, 0.3417
  Green: 0.2949, 0.5703
  Blue:  0.1474, 0.1113
  White: 0.3125, 0.3281
Established timings supported:
Standard timings supported:
Detailed mode: Clock 74.900 MHz, 322 mm x 201 mm
               1280 1476 1524 1536 hborder 0
                800  805  808  812 vborder 0
               -hsync -vsync 
               VertFreq: 60 Hz, HorFreq: 48763 Hz
Monitor ranges (GTF): 0-61Hz V, 29-49kHz H, max dotclock 80MHz
Checksum: 0x36 (valid)
EDID block does NOT conform to EDID 1.3!
	Name descriptor not terminated with a newline
EDID block does not conform at all!
	Bad year of manufacture
