
EDID (hex):
00ffffffffffff0030ae104000000000
1b120103801a1078eae59593564f9028
28505400000001010101010101010101
0101010101016a1d00e850201e301030
220005a310000018261700a050201730
3020360005a3100000180000000f0081
0a3c810a3216010030640055000000fe
004c5444313231455756420a20200085

Extracted contents:
header:          00 ff ff ff ff ff ff 00
serial number:   30 ae 10 40 00 00 00 00 1b 12
version:         01 03
basic params:    80 1a 10 78 ea
chroma info:     e5 95 93 56 4f 90 28 28 50 54
established:     00 00 00
standard:        01 01 01 01 01 01 01 01 01 01 01 01 01 01 01 01
descriptor 1:    6a 1d 00 e8 50 20 1e 30 10 30 22 00 05 a3 10 00 00 18
descriptor 2:    26 17 00 a0 50 20 17 30 30 20 36 00 05 a3 10 00 00 18
descriptor 3:    00 00 00 0f 00 81 0a 3c 81 0a 32 16 01 00 30 64 00 55
descriptor 4:    00 00 00 fe 00 4c 54 44 31 32 31 45 57 56 42 0a 20 20
extensions:      00
checksum:        85

EDID version: 1.3
Manufacturer: LEN Model 4010 Serial Number --
Made in week 27 of 2008
Digital display
Maximum image size: 26 cm x 16 cm
Gamma: 2.20
DPMS levels: Standby Suspend Off
RGB color display
First detailed timing is preferred timing
Display x,y Chromaticity:
  Red:   0.5771, 0.3378
  Green: 0.3095, 0.5634
  Blue:  0.1582, 0.1572
  White: 0.3134, 0.3291
Established timings supported:
Standard timings supported:
Detailed mode: Clock 75.300 MHz, 261 mm x 163 mm
               1280 1296 1344 1512 hborder 0
                800  802  804  830 vborder 0
               -hsync -vsync 
               VertFreq: 60 Hz, HorFreq: 49801 Hz
Detailed mode: Clock 59.260 MHz, 261 mm x 163 mm
               1280 1328 1360 1440 hborder 0
                800  803  809  823 vborder 0
               -hsync -vsync 
               VertFreq: 50 Hz, HorFreq: 41152 Hz
Manufacturer-specified data, tag 15
ASCII string: LTD121EWVB
Checksum: 0x85 (valid)
EDID block does NOT conform to EDID 1.3!
	Missing name descriptor
	Missing monitor ranges
