
EDID (hex):
00ffffffffffff0030ae104000000000
2d120103801a1078ea18559a56548b27
20505400000001010101010101010101
010101010101601d0000512010301030
330005a310000019601d000051201030
1030330005a3100000190000000f0081
0a3c810a3c1500004ca35731000000fe
004c544e313231415030323030310041

Extracted contents:
header:          00 ff ff ff ff ff ff 00
serial number:   30 ae 10 40 00 00 00 00 2d 12
version:         01 03
basic params:    80 1a 10 78 ea
chroma info:     18 55 9a 56 54 8b 27 20 50 54
established:     00 00 00
standard:        01 01 01 01 01 01 01 01 01 01 01 01 01 01 01 01
descriptor 1:    60 1d 00 00 51 20 10 30 10 30 33 00 05 a3 10 00 00 19
descriptor 2:    60 1d 00 00 51 20 10 30 10 30 33 00 05 a3 10 00 00 19
descriptor 3:    00 00 00 0f 00 81 0a 3c 81 0a 3c 15 00 00 4c a3 57 31
descriptor 4:    00 00 00 fe 00 4c 54 4e 31 32 31 41 50 30 32 30 30 31
extensions:      00
checksum:        41

EDID version: 1.3
Manufacturer: LEN Model 4010 Serial Number --
Made in week 45 of 2008
Digital display
Maximum image size: 26 cm x 16 cm
Gamma: 2.20
DPMS levels: Standby Suspend Off
RGB color display
First detailed timing is preferred timing
Display x,y Chromaticity:
  Red:   0.6015, 0.3369
  Green: 0.3300, 0.5429
  Blue:  0.1533, 0.1259
  White: 0.3134, 0.3291
Established timings supported:
Standard timings supported:
Detailed mode: Clock 75.200 MHz, 261 mm x 163 mm
               1280 1296 1344 1536 hborder 0
                800  803  806  816 vborder 0
               -hsync -vsync 
               VertFreq: 59 Hz, HorFreq: 48958 Hz
Detailed mode: Clock 75.200 MHz, 261 mm x 163 mm
               1280 1296 1344 1536 hborder 0
                800  803  806  816 vborder 0
               -hsync -vsync 
               VertFreq: 59 Hz, HorFreq: 48958 Hz
Manufacturer-specified data, tag 15
ASCII string: LTN121AP02001
Checksum: 0x41 (valid)
EDID block does NOT conform to EDID 1.3!
	Missing name descriptor
	Missing monitor ranges
