
EDID (hex):
00ffffffffffff0038a3486900000000
2d170104b53c2278e2ef95a35435b526
0f5054bfef8081c0818090408bc09500
a9c0a940d1c0565e00a0a0a029503020
3500544f2100001a000000fd0032551f
a019000a202020202020000000fc0050
41323732570a202020202020000000ff
00335931303135383554570a202001ef
1001050000e73100a050a0295030203a
002a4f1100001c5131a0a05000255030
203a004f2a1100001cf339801871382d
40582c4500544f2100001e023a80d072
382d40102c4580544f2100001e283c80
a070b0234030203600544f2100001c00
00000000000000000000000000000000
0000000000000000000000000000006a

Extracted contents:
header:          00 ff ff ff ff ff ff 00
serial number:   38 a3 48 69 00 00 00 00 2d 17
version:         01 04
basic params:    b5 3c 22 78 e2
chroma info:     ef 95 a3 54 35 b5 26 0f 50 54
established:     bf ef 80
standard:        81 c0 81 80 90 40 8b c0 95 00 a9 c0 a9 40 d1 c0
descriptor 1:    56 5e 00 a0 a0 a0 29 50 30 20 35 00 54 4f 21 00 00 1a
descriptor 2:    00 00 00 fd 00 32 55 1f a0 19 00 0a 20 20 20 20 20 20
descriptor 3:    00 00 00 fc 00 50 41 32 37 32 57 0a 20 20 20 20 20 20
descriptor 4:    00 00 00 ff 00 33 59 31 30 31 35 38 35 54 57 0a 20 20
extensions:      01
checksum:        ef

EDID version: 1.4
Manufacturer: NEC Model 6948 Serial Number --
Made in week 45 of 2013
Digital display
10 bits per primary color channel
DisplayPort interface
Maximum image size: 60 cm x 34 cm
Gamma: 2.20
DPMS levels: Standby Suspend Off
Supported color formats: RGB 4:4:4
First detailed timing includes the native pixel format and preferred refresh rate
Display x,y Chromaticity:
  Red:   0.6396, 0.3300
  Green: 0.2099, 0.7099
  Blue:  0.1503, 0.0595
  White: 0.3134, 0.3291
Established timings supported:
  720x400@70Hz 9:5 HorFreq: 31469 Hz Clock: 28.320 MHz
  640x480@60Hz 4:3 HorFreq: 31469 Hz Clock: 25.175 MHz
  640x480@67Hz 4:3 HorFreq: 35000 Hz Clock: 30.240 MHz
  640x480@72Hz 4:3 HorFreq: 37900 Hz Clock: 31.500 MHz
  640x480@75Hz 4:3 HorFreq: 37500 Hz Clock: 31.500 MHz
  800x600@56Hz 4:3 HorFreq: 35200 Hz Clock: 36.000 MHz
  800x600@60Hz 4:3 HorFreq: 37900 Hz Clock: 40.000 MHz
  800x600@72Hz 4:3 HorFreq: 48100 Hz Clock: 50.000 MHz
  800x600@75Hz 4:3 HorFreq: 46900 Hz Clock: 49.500 MHz
  832x624@75Hz 4:3 HorFreq: 49726 Hz Clock: 57.284 MHz
  1024x768@60Hz 4:3 HorFreq: 48400 Hz Clock: 65.000 MHz
  1024x768@70Hz 4:3 HorFreq: 56500 Hz Clock: 75.000 MHz
  1024x768@75Hz 4:3 HorFreq: 60000 Hz Clock: 78.750 MHz
  1280x1024@75Hz 5:4 HorFreq: 80000 Hz Clock: 135.000 MHz
  1152x870@75Hz 192:145 HorFreq: 67500 Hz Clock: 108.000 MHz
Standard timings supported:
  1280x720@60Hz 16:9
  1280x1024@60Hz 5:4 HorFreq: 64000 Hz Clock: 108.000 MHz
  1400x1050@60Hz 4:3 HorFreq: 64700 Hz Clock: 101.000 MHz
  1360x765@60Hz 16:9
  1440x900@60Hz 16:10 HorFreq: 55500 Hz Clock: 88.750 MHz
  1600x900@60Hz 16:9
  1600x1200@60Hz 4:3 HorFreq: 75000 Hz Clock: 162.000 MHz
  1920x1080@60Hz 16:9
Detailed mode: Clock 241.500 MHz, 596 mm x 335 mm
               2560 2608 2640 2720 hborder 0
               1440 1443 1448 1481 vborder 0
               +hsync -vsync 
               VertFreq: 59 Hz, HorFreq: 88786 Hz
Monitor ranges (GTF): 50-85Hz V, 31-160kHz H, max dotclock 250MHz
Monitor name: PA272W
Serial number: --
Has 1 extension blocks
Checksum: 0xef (valid)

VTB extension block

EDID block does not conform at all!
	Has 285212672 nonconformant extension block(s)
