
EDID (hex):
00ffffffffffff000dae671300000000
24190104a51d1178028785a457509b27
0d505400000001010101010101010101
010101010101363680a0703820402e1e
240025a51000001a363680a070382040
2e1e240025a51000001a000000fe0034
59525254803133334843450a00000000
000141019e001000000a010a202000be

Extracted contents:
header:          00 ff ff ff ff ff ff 00
serial number:   0d ae 67 13 00 00 00 00 24 19
version:         01 04
basic params:    a5 1d 11 78 02
chroma info:     87 85 a4 57 50 9b 27 0d 50 54
established:     00 00 00
standard:        01 01 01 01 01 01 01 01 01 01 01 01 01 01 01 01
descriptor 1:    36 36 80 a0 70 38 20 40 2e 1e 24 00 25 a5 10 00 00 1a
descriptor 2:    36 36 80 a0 70 38 20 40 2e 1e 24 00 25 a5 10 00 00 1a
descriptor 3:    00 00 00 fe 00 34 59 52 52 54 80 31 33 33 48 43 45 0a
descriptor 4:    00 00 00 00 00 01 41 01 9e 00 10 00 00 0a 01 0a 20 20
extensions:      00
checksum:        be

EDID version: 1.4
Manufacturer: CMN Model 1367 Serial Number --
Made in week 36 of 2015
Digital display
8 bits per primary color channel
DisplayPort interface
Maximum image size: 29 cm x 17 cm
Gamma: 2.20
Supported color formats: RGB 4:4:4
First detailed timing includes the native pixel format and preferred refresh rate
Display x,y Chromaticity:
  Red:   0.6425, 0.3398
  Green: 0.3134, 0.6083
  Blue:  0.1542, 0.0507
  White: 0.3134, 0.3291
Established timings supported:
Standard timings supported:
Detailed mode: Clock 138.780 MHz, 293 mm x 165 mm
               1920 1966 1996 2080 hborder 0
               1080 1082 1086 1112 vborder 0
               +hsync -vsync 
               VertFreq: 60 Hz, HorFreq: 66721 Hz
Detailed mode: Clock 138.780 MHz, 293 mm x 165 mm
               1920 1966 1996 2080 hborder 0
               1080 1082 1086 1112 vborder 0
               +hsync -vsync 
               VertFreq: 60 Hz, HorFreq: 66721 Hz
ASCII string: 4YRRT
Manufacturer-specified data, tag 0
Checksum: 0xbe (valid)
EDID block does NOT conform to EDID 1.4!
	Missing name descriptor
	Missing monitor ranges
	Detailed block string not properly terminated
