edid-decode (hex):

00 ff ff ff ff ff ff 00 0d af 28 10 00 00 00 00
30 14 01 04 90 16 0c 78 02 e6 c1 95 57 53 91 27
25 50 54 00 00 00 01 01 01 01 01 01 01 01 01 01
01 01 01 01 01 01 9e 1b 56 81 50 00 14 30 17 30
38 00 de 7d 00 00 00 1a 9e 1b 56 81 50 00 14 30
17 30 38 00 de 7d 00 00 00 1a 00 00 00 fe 00 32
33 34 46 52 80 31 30 31 42 47 45 0a 00 00 00 00
00 00 41 01 97 00 00 00 00 01 01 0a 20 20 00 b8

----------------

Block 0, Base EDID:
  EDID Structure Version & Revision: 1.4
  Vendor & Product Identification:
    Manufacturer: CMO
    Model: 4136
    Made in: week 48 of 2010
  Basic Display Parameters & Features:
    Digital display
    Bits per primary color channel: 6
    Digital interface is not defined
    Maximum image size: 22 cm x 12 cm
    Gamma: 2.20
    Supported color formats: RGB 4:4:4
    First detailed timing includes the native pixel format and preferred refresh rate
  Color Characteristics:
    Red  : 0.5849, 0.3417
    Green: 0.3251, 0.5683
    Blue : 0.1552, 0.1445
    White: 0.3125, 0.3291
  Established Timings I & II: none
  Standard Timings: none
  Detailed Timing Descriptors:
    DTD 1:  1366x768    60.013921 Hz 683:384   47.291 kHz     70.700000 MHz (222 mm x 125 mm)
                 Hfront   23 Hsync  48 Hback   58 Hpol P
                 Vfront    3 Vsync   8 Vback    9 Vpol N
    DTD 2:  1366x768    60.013921 Hz 683:384   47.291 kHz     70.700000 MHz (222 mm x 125 mm)
                 Hfront   23 Hsync  48 Hback   58 Hpol P
                 Vfront    3 Vsync   8 Vback    9 Vpol N
    Alphanumeric Data String: '234FR'
    Manufacturer-Specified Display Descriptor (0x00): 00 00 00 00 41 01 97 00 00 00 00 01 01 0a 20 20 '....A.........  '
Checksum: 0xb8

----------------

Warnings:

Block 0, Base EDID:
  Missing Display Product Name.

Failures:

Block 0, Base EDID:
  Alphanumeric Data String: Non-printable character.

EDID conformity: FAIL
