edid-decode (hex):

00 ff ff ff ff ff ff 00 0d af 38 15 00 00 00 00
28 10 01 03 80 21 15 78 0a d5 40 97 57 51 8a 26
25 50 54 00 00 00 01 01 01 01 01 01 01 01 01 01
01 01 01 01 01 01 ab 22 a0 a0 50 84 1a 30 30 20
36 00 4c cf 10 00 00 18 cf 1c a0 a0 50 84 16 30
30 20 36 00 4c cf 10 00 00 00 00 00 00 fe 00 58
55 32 39 37 32 4e 31 35 34 43 31 0a 00 00 00 fe
00 1f 2b 34 3a 55 6f 8b f4 02 01 0a 20 20 00 97

00 ff ff ff ff ff ff 00 0d af 38 15 00 00 00 00
28 10 01 03 80 21 15 78 0a d5 40 97 57 51 8a 26
25 50 54 00 00 00 01 01 01 01 01 01 01 01 01 01
01 01 01 01 01 01 ab 22 a0 a0 50 84 1a 30 30 20
36 00 4c cf 10 00 00 18 cf 1c a0 a0 50 84 16 30
30 20 36 00 4c cf 10 00 00 00 00 00 00 fe 00 58
55 32 39 37 32 4e 31 35 34 43 31 0a 00 00 00 fe
00 1f 2b 34 3a 55 6f 8b f4 02 01 0a 20 20 00 97

----------------

Block 0, Base EDID:
  EDID Structure Version & Revision: 1.3
  Vendor & Product Identification:
    Manufacturer: CMO
    Model: 5432
    Made in: week 40 of 2006
  Basic Display Parameters & Features:
    Digital display
    Maximum image size: 33 cm x 21 cm
    Gamma: 2.20
    RGB color display
    First detailed timing is the preferred timing
  Color Characteristics:
    Red  : 0.5927, 0.3408
    Green: 0.3173, 0.5400
    Blue : 0.1494, 0.1445
    White: 0.3125, 0.3281
  Established Timings I & II: none
  Standard Timings: none
  Detailed Timing Descriptors:
    DTD 1:  1440x900    59.901458 Hz  16:10    55.469 kHz     88.750000 MHz (332 mm x 207 mm)
                 Hfront   48 Hsync  32 Hback   80 Hpol N
                 Vfront    3 Vsync   6 Vback   17 Vpol N
    DTD 2:  1440x900    49.993221 Hz  16:10    46.094 kHz     73.750000 MHz (332 mm x 207 mm)
                 Hfront   48 Hsync  32 Hback   80 Hpol N
                 Vfront    3 Vsync   6 Vback   13 Vpol N
    SPWG Module Revision: 0
    SPWG Descriptor #3:
      SPWG PC Maker P/N: 'XU297'
      SPWG LCD Supplier EEDID Revision: 50
      SPWG Manufacturer P/N: 'N154C1'
    SPWG Descriptor #4:
      SMBUS Values: 0x1f 0x2b 0x34 0x3a 0x55 0x6f 0x8b 0xf4
      LVDS Channels: 2
      Panel Self Test Present
Checksum: 0x97

----------------

Block 1, Unknown EDID Extension Block 0x00:
  00 ff ff ff ff ff ff 00 0d af 38 15 00 00 00 00 '..........8.....'
  28 10 01 03 80 21 15 78 0a d5 40 97 57 51 8a 26 '(....!.x..@.WQ.&'
  25 50 54 00 00 00 01 01 01 01 01 01 01 01 01 01 '%PT.............'
  01 01 01 01 01 01 ab 22 a0 a0 50 84 1a 30 30 20 '......."..P..00 '
  36 00 4c cf 10 00 00 18 cf 1c a0 a0 50 84 16 30 '6.L.........P..0'
  30 20 36 00 4c cf 10 00 00 00 00 00 00 fe 00 58 '0 6.L..........X'
  55 32 39 37 32 4e 31 35 34 43 31 0a 00 00 00 fe 'U2972N154C1.....'
  00 1f 2b 34 3a 55 6f 8b f4 02 01 0a 20 20 00 97 '..+4:Uo.....  ..'
Checksum: 0x97

----------------

Warnings:

Block 0, Base EDID:
  Detailed Timing Descriptor #1: DTD is similar but not identical to DMT 0x2e.

Failures:

Block 0, Base EDID:
  Missing Display Product Name.
  Missing Display Range Limits Descriptor.
Block 1, Base EDID:
  Unknown Extension Block.
EDID:
  Base EDID: EDID specified 0 extension block(s), but found 1 extension block(s).

EDID conformity: FAIL
