edid-decode (hex):

00 ff ff ff ff ff ff 00 0d af 38 15 00 00 00 00
30 10 01 03 80 21 15 78 0a d5 70 97 57 51 8a 26
22 50 54 00 00 00 01 01 01 01 01 01 01 01 01 01
01 01 01 01 01 01 ab 22 a0 a0 50 84 1a 30 30 20
36 00 4c cf 10 00 00 19 cf 1c a0 a0 50 84 16 30
30 20 36 00 4c cf 10 00 00 00 00 00 00 fe 00 55
59 33 37 31 33 4e 31 35 34 43 31 0a 00 00 00 fe
00 21 2d 36 3c 58 78 a5 e4 02 01 0a 20 20 00 48

----------------

Block 0, Base EDID:
  EDID Structure Version & Revision: 1.3
  Vendor & Product Identification:
    Manufacturer: CMO
    Model: 5432
    Made in: week 48 of 2006
  Basic Display Parameters & Features:
    Digital display
    Maximum image size: 33 cm x 21 cm
    Gamma: 2.20
    RGB color display
    First detailed timing is the preferred timing
  Color Characteristics:
    Red  : 0.5927, 0.3408
    Green: 0.3173, 0.5400
    Blue : 0.1494, 0.1357
    White: 0.3125, 0.3281
  Established Timings I & II: none
  Standard Timings: none
  Detailed Timing Descriptors:
    DTD 1:  1440x900    59.901458 Hz   8:5     55.469 kHz     88.750000 MHz (DE timing only, 332 mm x 207 mm)
                 Hfront   48 Hsync  32 Hback   80 Hpol N
                 Vfront    3 Vsync   6 Vback   17 Vpol N
    DTD 2:  1440x900    49.993221 Hz   8:5     46.094 kHz     73.750000 MHz (DE timing only, 332 mm x 207 mm)
                 Hfront   48 Hsync  32 Hback   80 Hpol N
                 Vfront    3 Vsync   6 Vback   13 Vpol N
    SPWG Module Revision: 0
    SPWG Descriptor #3:
      SPWG PC Maker P/N: 'UY371'
      SPWG LCD Supplier EEDID Revision: 51
      SPWG Manufacturer P/N: 'N154C1'
    SPWG Descriptor #4:
      SMBUS Values: 0x21 0x2d 0x36 0x3c 0x58 0x78 0xa5 0xe4
      LVDS Channels: 2
      Panel Self Test Present
Checksum: 0x48

----------------

Warnings:

Block 0, Base EDID:
  Detailed Timing Descriptor #1: DTD is similar but not identical to DMT 0x2e.

Failures:

Block 0, Base EDID:
  Missing Display Product Name.
  Missing Display Range Limits Descriptor.

EDID conformity: FAIL
