
EDID (hex):
00ffffffffffff0022f04f3201010101
20190104a5321d78263b85a554509d26
9a5054a10800d1c081c0a9c09500b300
810081800101023a801871382d40582c
4500f0241100001e000000fd00324c18
5011000a202020202020000000fc0048
5020323275680a2020202020000000ff
00434e4b35333230544a510a202000b4

Extracted contents:
header:          00 ff ff ff ff ff ff 00
serial number:   22 f0 4f 32 01 01 01 01 20 19
version:         01 04
basic params:    a5 32 1d 78 26
chroma info:     3b 85 a5 54 50 9d 26 9a 50 54
established:     a1 08 00
standard:        d1 c0 81 c0 a9 c0 95 00 b3 00 81 00 81 80 01 01
descriptor 1:    02 3a 80 18 71 38 2d 40 58 2c 45 00 f0 24 11 00 00 1e
descriptor 2:    00 00 00 fd 00 32 4c 18 50 11 00 0a 20 20 20 20 20 20
descriptor 3:    00 00 00 fc 00 48 50 20 32 32 75 68 0a 20 20 20 20 20
descriptor 4:    00 00 00 ff 00 43 4e 4b 35 33 32 30 54 4a 51 0a 20 20
extensions:      00
checksum:        b4

EDID version: 1.4
Manufacturer: HWP Model 324f Serial Number --
Made in week 32 of 2015
Digital display
8 bits per primary color channel
DisplayPort interface
Maximum image size: 50 cm x 29 cm
Gamma: 2.20
DPMS levels: Off
Supported color formats: RGB 4:4:4
Default (sRGB) color space is primary color space
First detailed timing includes the native pixel format and preferred refresh rate
Display x,y Chromaticity:
  Red:   0.6445, 0.3310
  Green: 0.3144, 0.6162
  Blue:  0.1503, 0.6015
  White: 0.3134, 0.3291
Established timings supported:
  720x400@70Hz 9:5 HorFreq: 31469 Hz Clock: 28.320 MHz
  640x480@60Hz 4:3 HorFreq: 31469 Hz Clock: 25.175 MHz
  800x600@60Hz 4:3 HorFreq: 37900 Hz Clock: 40.000 MHz
  1024x768@60Hz 4:3 HorFreq: 48400 Hz Clock: 65.000 MHz
Standard timings supported:
  1920x1080@60Hz 16:9
  1280x720@60Hz 16:9
  1600x900@60Hz 16:9
  1440x900@60Hz 16:10 HorFreq: 55500 Hz Clock: 88.750 MHz
  1680x1050@60Hz 16:10 HorFreq: 64700 Hz Clock: 119.000 MHz
  1280x800@60Hz 16:10
  1280x1024@60Hz 5:4 HorFreq: 64000 Hz Clock: 108.000 MHz
Detailed mode: Clock 148.500 MHz, 496 mm x 292 mm
               1920 2008 2052 2200 hborder 0
               1080 1084 1089 1125 vborder 0
               +hsync +vsync 
               VertFreq: 60 Hz, HorFreq: 67500 Hz
Monitor ranges (GTF): 50-76Hz V, 24-80kHz H, max dotclock 170MHz
Monitor name: HP 22uh
Serial number: --
Checksum: 0xb4 (valid)
EDID block does NOT conform to EDID 1.4!
	sRGB is signaled, but the chromaticities do not match
