
EDID (hex):
00ffffffffffff0030aee96100000000
311e0103803c22782e6665a9544c9d26
105054a1080081809500b300d1c0d100
a9c081c08100565e00a0a0a029503020
3500615d2100001a000000fc00503237
682d32300a2020202020000000fd0032
4c1e5a22000a202020202020000000ff
0056393037305848310affffffff0140
02031ff14c01020304051413901f120e
0f23090f078301000065030c00100001
1d007251d01e206e2855005550210000
1e8c0ad08a20e02d10103e9600555021
00001800000000000000000000000000
00000000000000000000000000000000
00000000000000000000000000000000
00000000000000000000000000000094

Extracted contents:
header:          00 ff ff ff ff ff ff 00
serial number:   30 ae e9 61 00 00 00 00 31 1e
version:         01 03
basic params:    80 3c 22 78 2e
chroma info:     66 65 a9 54 4c 9d 26 10 50 54
established:     a1 08 00
standard:        81 80 95 00 b3 00 d1 c0 d1 00 a9 c0 81 c0 81 00
descriptor 1:    56 5e 00 a0 a0 a0 29 50 30 20 35 00 61 5d 21 00 00 1a
descriptor 2:    00 00 00 fc 00 50 32 37 68 2d 32 30 0a 20 20 20 20 20
descriptor 3:    00 00 00 fd 00 32 4c 1e 5a 22 00 0a 20 20 20 20 20 20
descriptor 4:    00 00 00 ff 00 56 39 30 37 30 58 48 31 0a ff ff ff ff
extensions:      01
checksum:        40

EDID version: 1.3
Manufacturer: LEN Model 61e9 Serial Number --
Made in week 49 of 2020
Digital display
Maximum image size: 60 cm x 34 cm
Gamma: 2.20
DPMS levels: Off
RGB color display
Default (sRGB) color space is primary color space
First detailed timing is preferred timing
Display x,y Chromaticity:
  Red:   0.6611, 0.3300
  Green: 0.2978, 0.6152
  Blue:  0.1494, 0.0644
  White: 0.3134, 0.3291
Established timings supported:
  720x400@70Hz 9:5 HorFreq: 31469 Hz Clock: 28.320 MHz
  640x480@60Hz 4:3 HorFreq: 31469 Hz Clock: 25.175 MHz
  800x600@60Hz 4:3 HorFreq: 37900 Hz Clock: 40.000 MHz
  1024x768@60Hz 4:3 HorFreq: 48400 Hz Clock: 65.000 MHz
Standard timings supported:
  1280x1024@60Hz 5:4 HorFreq: 64000 Hz Clock: 108.000 MHz
  1440x900@60Hz 16:10 HorFreq: 55500 Hz Clock: 88.750 MHz
  1680x1050@60Hz 16:10 HorFreq: 64700 Hz Clock: 119.000 MHz
  1920x1080@60Hz 16:9
  1920x1200@60Hz 16:10 HorFreq: 74000 Hz Clock: 154.000 MHz
  1600x900@60Hz 16:9
  1280x720@60Hz 16:9
  1280x800@60Hz 16:10
Detailed mode: Clock 241.500 MHz, 609 mm x 349 mm
               2560 2608 2640 2720 hborder 0
               1440 1443 1448 1481 vborder 0
               +hsync -vsync 
               VertFreq: 59 Hz, HorFreq: 88786 Hz
Monitor name: P27h-20
Monitor ranges (GTF): 50-76Hz V, 30-90kHz H, max dotclock 340MHz
Serial number: --
Has 1 extension blocks
Checksum: 0x40 (valid)

CTA extension block
Extension version: 3
27 bytes of CTA data
  Video data block
    VIC   1 640x480@60Hz 4:3  HorFreq: 31469 Hz Clock: 25.175 MHz
    VIC   2 720x480@60Hz 4:3  HorFreq: 31469 Hz Clock: 27.000 MHz
    VIC   3 720x480@60Hz 16:9  HorFreq: 31469 Hz Clock: 27.000 MHz
    VIC   4 1280x720@60Hz 16:9  HorFreq: 45000 Hz Clock: 74.250 MHz
    VIC   5 1920x1080i@60Hz 16:9  HorFreq: 33750 Hz Clock: 74.250 MHz
    VIC  20 1920x1080i@50Hz 16:9  HorFreq: 28125 Hz Clock: 74.250 MHz
    VIC  19 1280x720@50Hz 16:9  HorFreq: 37500 Hz Clock: 74.250 MHz
    VIC  16 1920x1080@60Hz 16:9 (native) HorFreq: 67500 Hz Clock: 148.500 MHz
    VIC  31 1920x1080@50Hz 16:9  HorFreq: 56250 Hz Clock: 148.500 MHz
    VIC  18 720x576@50Hz 16:9  HorFreq: 31250 Hz Clock: 27.000 MHz
    VIC  14 1440x480@60Hz 4:3  HorFreq: 31469 Hz Clock: 54.000 MHz
    VIC  15 1440x480@60Hz 16:9  HorFreq: 31469 Hz Clock: 54.000 MHz
  Audio data block
    Linear PCM, max channels 2
      Supported sample rates (kHz): 88.2 48 44.1 32
      Supported sample sizes (bits): 24 20 16
  Speaker allocation data block
    Speaker map:
      FL/FR - Front Left/Right
  Vendor-specific data block, OUI 000c03 (HDMI)
    Source physical address 1.0.0.0
Underscans PC formats by default
Basic audio support
Supports YCbCr 4:4:4
Supports YCbCr 4:2:2
1 native detailed modes
Detailed mode: Clock 74.250 MHz, 597 mm x 336 mm
               1280 1390 1430 1650 hborder 0
                720  725  730  750 vborder 0
               +hsync +vsync 
               VertFreq: 60 Hz, HorFreq: 45000 Hz
Detailed mode: Clock 27.000 MHz, 597 mm x 336 mm
                720  736  798  858 hborder 0
                480  489  495  525 vborder 0
               -hsync -vsync 
               VertFreq: 59 Hz, HorFreq: 31468 Hz
Checksum: 0x94 (valid)

EDID block does NOT conform to EDID 1.3!
	sRGB is signaled, but the chromaticities do not match
	Detailed block string not properly terminated
One or more of the timings is out of range of the Monitor Ranges:
  Vertical Freq: 50 - 70 Hz
  Horizontal Freq: 28125 - 88786 Hz
  Maximum Clock: 241.500 MHz
