
EDID (hex):
00ffffffffffff0004722b0601000000
071b0104b57944783a2770a3554d9b25
0e494bbfef80d1c0b300950081808140
810081c0714f4dd000a0f0703e803020
3500baa84200001e286800a0f0703e80
0890650cbaa84200001a000000fd0017
4c0f883c000a202020202020000000fc
0045423535304b0a2020202020200123

Extracted contents:
header:          00 ff ff ff ff ff ff 00
serial number:   04 72 2b 06 01 00 00 00 07 1b
version:         01 04
basic params:    b5 79 44 78 3a
chroma info:     27 70 a3 55 4d 9b 25 0e 49 4b
established:     bf ef 80
standard:        d1 c0 b3 00 95 00 81 80 81 40 81 00 81 c0 71 4f
descriptor 1:    4d d0 00 a0 f0 70 3e 80 30 20 35 00 ba a8 42 00 00 1e
descriptor 2:    28 68 00 a0 f0 70 3e 80 08 90 65 0c ba a8 42 00 00 1a
descriptor 3:    00 00 00 fd 00 17 4c 0f 88 3c 00 0a 20 20 20 20 20 20
descriptor 4:    00 00 00 fc 00 45 42 35 35 30 4b 0a 20 20 20 20 20 20
extensions:      01
checksum:        23

EDID version: 1.4
Manufacturer: ACR Model 62b Serial Number --
Made in week 7 of 2017
Digital display
10 bits per primary color channel
DisplayPort interface
Maximum image size: 121 cm x 68 cm
Gamma: 2.20
DPMS levels: Off
Supported color formats: RGB 4:4:4, YCrCb 4:4:4, YCrCb 4:2:2
First detailed timing includes the native pixel format and preferred refresh rate
Display x,y Chromaticity:
  Red:   0.6367, 0.3339
  Green: 0.3017, 0.6083
  Blue:  0.1455, 0.0576
  White: 0.2851, 0.2929
Established timings supported:
  720x400@70Hz 9:5 HorFreq: 31469 Hz Clock: 28.320 MHz
  640x480@60Hz 4:3 HorFreq: 31469 Hz Clock: 25.175 MHz
  640x480@67Hz 4:3 HorFreq: 35000 Hz Clock: 30.240 MHz
  640x480@72Hz 4:3 HorFreq: 37900 Hz Clock: 31.500 MHz
  640x480@75Hz 4:3 HorFreq: 37500 Hz Clock: 31.500 MHz
  800x600@56Hz 4:3 HorFreq: 35200 Hz Clock: 36.000 MHz
  800x600@60Hz 4:3 HorFreq: 37900 Hz Clock: 40.000 MHz
  800x600@72Hz 4:3 HorFreq: 48100 Hz Clock: 50.000 MHz
  800x600@75Hz 4:3 HorFreq: 46900 Hz Clock: 49.500 MHz
  832x624@75Hz 4:3 HorFreq: 49726 Hz Clock: 57.284 MHz
  1024x768@60Hz 4:3 HorFreq: 48400 Hz Clock: 65.000 MHz
  1024x768@70Hz 4:3 HorFreq: 56500 Hz Clock: 75.000 MHz
  1024x768@75Hz 4:3 HorFreq: 60000 Hz Clock: 78.750 MHz
  1280x1024@75Hz 5:4 HorFreq: 80000 Hz Clock: 135.000 MHz
  1152x870@75Hz 192:145 HorFreq: 67500 Hz Clock: 108.000 MHz
Standard timings supported:
  1920x1080@60Hz 16:9
  1680x1050@60Hz 16:10 HorFreq: 64700 Hz Clock: 119.000 MHz
  1440x900@60Hz 16:10 HorFreq: 55500 Hz Clock: 88.750 MHz
  1280x1024@60Hz 5:4 HorFreq: 64000 Hz Clock: 108.000 MHz
  1280x960@60Hz 4:3 HorFreq: 60000 Hz Clock: 108.000 MHz
  1280x800@60Hz 16:10
  1280x720@60Hz 16:9
  1152x864@75Hz 4:3 HorFreq: 67500 Hz Clock: 108.000 MHz
Detailed mode: Clock 533.250 MHz, 1210 mm x 680 mm
               3840 3888 3920 4000 hborder 0
               2160 2163 2168 2222 vborder 0
               +hsync +vsync 
               VertFreq: 59 Hz, HorFreq: 133312 Hz
Detailed mode: Clock 266.640 MHz, 1210 mm x 680 mm
               3840 3848 3992 4000 hborder 0
               2160 2214 2219 2222 vborder 0
               +hsync -vsync 
               VertFreq: 30 Hz, HorFreq: 66660 Hz
Monitor ranges (GTF): 23-76Hz V, 15-136kHz H, max dotclock 600MHz
Monitor name: EB550K
Has 1 extension blocks
Checksum: 0x23 (valid)
