edid-decode (hex):

00 ff ff ff ff ff ff 00 30 e4 c9 07 00 00 00 00
00 22 01 04 b5 1e 13 78 07 ae 05 a6 54 4c 99 25
0e 50 54 00 00 00 01 01 01 01 01 01 01 01 01 01
01 01 01 01 01 01 5f d8 00 a0 a0 40 61 60 30 20
66 00 2e bd 10 00 00 1a 8d 56 00 a0 a0 40 61 60
30 20 66 00 2e bd 10 00 00 1a 00 00 00 fe 00 50
48 43 57 54 80 31 34 30 57 51 32 0a 00 00 00 00
00 03 41 1d 9e 00 01 00 00 0b 41 0a 20 20 01 d7

70 20 79 02 00 20 00 13 3c e6 24 c9 07 00 00 00
00 00 18 07 31 34 30 57 51 32 0a 21 00 1d c8 0b
5d 07 00 0a 40 06 80 66 8a 54 cd a4 99 52 12 0e
02 45 54 00 80 00 80 00 80 13 78 22 00 14 b5 73
08 85 ff 09 9f 00 2f 80 1f 00 3f 06 60 00 05 00
05 00 25 01 09 b5 73 08 b5 73 08 30 78 80 81 00
10 6f 1a 00 00 03 51 30 78 00 00 53 4a 53 4a 78
00 00 00 00 00 00 00 00 00 00 00 00 00 00 4b 90

00 ff ff ff ff ff ff 00 30 e4 c9 07 00 00 00 00
00 22 01 04 b5 1e 13 78 07 ae 05 a6 54 4c 99 25
0e 50 54 00 00 00 01 01 01 01 01 01 01 01 01 01
01 01 01 01 01 01 5f d8 00 a0 a0 40 61 60 30 20
66 00 2e bd 10 00 00 1a 8d 56 00 a0 a0 40 61 60
30 20 66 00 2e bd 10 00 00 1a 00 00 00 fe 00 50
48 43 57 54 80 31 34 30 57 51 32 0a 00 00 00 00
00 03 41 1d 9e 00 01 00 00 0b 41 0a 20 20 01 d7

70 20 79 02 00 20 00 13 3c e6 24 c9 07 00 00 00
00 00 18 07 31 34 30 57 51 32 0a 21 00 1d c8 0b
5d 07 00 0a 40 06 80 66 8a 54 cd a4 99 52 12 0e
02 45 54 00 80 00 80 00 80 13 78 22 00 14 b5 73
08 85 ff 09 9f 00 2f 80 1f 00 3f 06 60 00 05 00
05 00 25 01 09 b5 73 08 b5 73 08 30 78 80 81 00
10 6f 1a 00 00 03 51 30 78 00 00 53 4a 53 4a 78
00 00 00 00 00 00 00 00 00 00 00 00 00 00 4b 90

----------------

Block 0, Base EDID:
  EDID Structure Version & Revision: 1.4
  Vendor & Product Identification:
    Manufacturer: LGD
    Model: 1993
    Made in: 2024
  Basic Display Parameters & Features:
    Digital display
    Bits per primary color channel: 10
    DisplayPort interface
    Maximum image size: 30 cm x 19 cm
    Gamma: 2.20
    Supported color formats: RGB 4:4:4
    Default (sRGB) color space is primary color space
    First detailed timing includes the native pixel format and preferred refresh rate
    Display is continuous frequency
  Color Characteristics:
    Red  : 0.6503, 0.3300
    Green: 0.2998, 0.5996
    Blue : 0.1445, 0.0546
    White: 0.3134, 0.3291
  Established Timings I & II: none
  Standard Timings: none
  Detailed Timing Descriptors:
    DTD 1:  2560x1600  120.001993 Hz  16:10   203.643 kHz    553.910000 MHz (302 mm x 189 mm)
                 Hfront   48 Hsync  32 Hback   80 Hpol P
                 Vfront    6 Vsync   6 Vback   85 Vpol N
    DTD 2:  2560x1600   48.002097 Hz  16:10    81.460 kHz    221.570000 MHz (302 mm x 189 mm)
                 Hfront   48 Hsync  32 Hback   80 Hpol P
                 Vfront    6 Vsync   6 Vback   85 Vpol N
    Alphanumeric Data String: 'PHCWT'
    Manufacturer-Specified Display Descriptor (0x00): 00 00 00 03 41 1d 9e 00 01 00 00 0b 41 0a 20 20 '....A.......A.  '
  Extension blocks: 1
Checksum: 0xd7

----------------

Block 1, DisplayID Extension Block:
  Version: 2.0
  Extension Count: 0
  Display Product Primary Use Case: None of the listed primary use cases; generic display
  Product Identification Data Block (0x20), OUI 3C-E6-24:
    Product Code: 1993
    Year of Manufacture: 2024
    Product ID: 140WQ2

  Display Parameters Data Block (0x21):
    Image size: 301.6 mm x 188.5 mm
    Display native pixel format: 2560x1600
    Scan Orientation: Left to Right, Top to Bottom
    Luminance Information: Minimum guaranteed value
    Color Information: CIE 1931
    Audio Speaker Information: not integrated
    Native Color Chromaticity:
      Primary #1:  (0.649902, 0.330078)
      Primary #2:  (0.300049, 0.600098)
      Primary #3:  (0.145020, 0.054932)
      White Point: (0.312988, 0.329102)
    Native Maximum Luminance (Full Coverage): do not use
    Native Maximum Luminance (10% Rectangular Coverage): do not use
    Native Minimum Luminance: do not use
    Native Color Depth: 12 bpc
    Display Device Technology: Active Matrix LCD
    Native Gamma EOTF: 2.20
  Video Timing Modes Type 7 - Detailed Timings Data Block:
    DTD:  2560x1600  120.001993 Hz  16:10   203.643 kHz    553.910000 MHz (aspect 16:10, no 3D stereo, preferred)
               Hfront   48 Hsync  32 Hback   80 Hpol P
               Vfront    6 Vsync   6 Vback   85 Vpol N
  Dynamic Video Timing Range Limits Data Block:
    Minimum Pixel Clock: 553910 kHz
    Maximum Pixel Clock: 553910 kHz
    Minimum Vertical Refresh Rate: 48 Hz
    Maximum Vertical Refresh Rate: 120 Hz
    Seamless Dynamic Video Timing Support: Yes
  CTA-861 DisplayID Data Block:
  Vendor-Specific Data Block (AMD), OUI 00-00-1A:
    Version: 3.81
    Minimum Refresh Rate: 48 Hz
    Maximum Refresh Rate: 120 Hz
    Flags 1.x: 0x00
    Flags 2.x: 0x00
    Maximum luminance: 83 (301.833 cd/m^2)
    Minimum luminance: 74 (0.254 cd/m^2)
    Unknown: 0x53 0x4a
  Checksum: 0x4b
Checksum: 0x90

----------------

Block 2, Unknown EDID Extension Block 0x00:
  00 ff ff ff ff ff ff 00 30 e4 c9 07 00 00 00 00 '........0.......'
  00 22 01 04 b5 1e 13 78 07 ae 05 a6 54 4c 99 25 '.".....x....TL.%'
  0e 50 54 00 00 00 01 01 01 01 01 01 01 01 01 01 '.PT.............'
  01 01 01 01 01 01 5f d8 00 a0 a0 40 61 60 30 20 '......_....@a`0 '
  66 00 2e bd 10 00 00 1a 8d 56 00 a0 a0 40 61 60 'f........V...@a`'
  30 20 66 00 2e bd 10 00 00 1a 00 00 00 fe 00 50 '0 f............P'
  48 43 57 54 80 31 34 30 57 51 32 0a 00 00 00 00 'HCWT.140WQ2.....'
  00 03 41 1d 9e 00 01 00 00 0b 41 0a 20 20 01 d7 '..A.......A.  ..'
Checksum: 0xd7

----------------

Block 3, DisplayID Extension Block:
  Version: 2.0
  Extension Count: 0
  Product Identification Data Block (0x20), OUI 3C-E6-24:
    Product Code: 1993
    Year of Manufacture: 2024
    Product ID: 140WQ2

  Display Parameters Data Block (0x21):
    Image size: 301.6 mm x 188.5 mm
    Display native pixel format: 2560x1600
    Scan Orientation: Left to Right, Top to Bottom
    Luminance Information: Minimum guaranteed value
    Color Information: CIE 1931
    Audio Speaker Information: not integrated
    Native Color Chromaticity:
      Primary #1:  (0.649902, 0.330078)
      Primary #2:  (0.300049, 0.600098)
      Primary #3:  (0.145020, 0.054932)
      White Point: (0.312988, 0.329102)
    Native Maximum Luminance (Full Coverage): do not use
    Native Maximum Luminance (10% Rectangular Coverage): do not use
    Native Minimum Luminance: do not use
    Native Color Depth: 12 bpc
    Display Device Technology: Active Matrix LCD
    Native Gamma EOTF: 2.20
  Video Timing Modes Type 7 - Detailed Timings Data Block:
    DTD:  2560x1600  120.001993 Hz  16:10   203.643 kHz    553.910000 MHz (aspect 16:10, no 3D stereo, preferred)
               Hfront   48 Hsync  32 Hback   80 Hpol P
               Vfront    6 Vsync   6 Vback   85 Vpol N
  Dynamic Video Timing Range Limits Data Block:
    Minimum Pixel Clock: 553910 kHz
    Maximum Pixel Clock: 553910 kHz
    Minimum Vertical Refresh Rate: 48 Hz
    Maximum Vertical Refresh Rate: 120 Hz
    Seamless Dynamic Video Timing Support: Yes
  CTA-861 DisplayID Data Block:
  Vendor-Specific Data Block (AMD), OUI 00-00-1A:
    Version: 3.81
    Minimum Refresh Rate: 48 Hz
    Maximum Refresh Rate: 120 Hz
    Flags 1.x: 0x00
    Flags 2.x: 0x00
    Maximum luminance: 83 (301.833 cd/m^2)
    Minimum luminance: 74 (0.254 cd/m^2)
    Unknown: 0x53 0x4a
  Checksum: 0x4b
Checksum: 0x90

----------------

Warnings:

Block 0, Base EDID:
  Missing Display Product Name.
Block 1, DisplayID Extension Block:
  Product Identification Data Block (0x20), OUI 3C-E6-24: Unknown OUI 3C-E6-24.
Block 3, DisplayID Extension Block:
  Product Identification Data Block (0x20), OUI 3C-E6-24: Unknown OUI 3C-E6-24.

Failures:

Block 0, Base EDID:
  Basic Display Parameters & Features: sRGB is signaled, but the chromaticities do not match.
  Alphanumeric Data String: Non-printable character.
  Missing Display Range Limits Descriptor.
Block 1, DisplayID Extension Block:
  Expected 0 DisplayID Extension Block, but got 1.
Block 2, Base EDID:
  Unknown Extension Block.
Block 3, DisplayID Extension Block:
  Product Type should be 0 in extension block.
  Product Identification Data Block (0x20), OUI 3C-E6-24: Product Identification Data Block (0x20), OUI 3C-E6-24 is required to be the first DisplayID Data Block.
  Display Parameters Data Block (0x21): Duplicate Display Parameters Data Block.
EDID:
  Base EDID: EDID specified 1 extension block(s), but found 3 extension block(s).
  DisplayID: Missing DisplayID Display Interface Features Data Block.

EDID conformity: FAIL
