edid-decode (hex):

00 ff ff ff ff ff ff 00 26 cf f4 03 00 00 00 00
1a 1b 01 03 80 22 13 78 0a e0 db 95 5d 51 8f 25
1a 48 4f 00 00 00 01 01 01 01 01 01 01 01 01 01
01 01 01 01 01 01 02 3a 80 18 71 38 2d 40 5a 2d
aa 00 58 c1 10 00 00 19 00 00 00 0f 00 00 00 00
00 00 00 00 00 00 00 00 00 01 00 00 00 fe 00 53
54 41 52 52 59 0a 20 20 20 20 20 20 00 00 00 fe
00 42 48 31 35 36 45 41 32 53 52 42 20 0a 00 30

----------------

Block 0, Base EDID:
  EDID Structure Version & Revision: 1.3
  Vendor & Product Identification:
    Manufacturer: IVO
    Model: 1012
    Made in: week 26 of 2017
  Basic Display Parameters & Features:
    Digital display
    Maximum image size: 34 cm x 19 cm
    Gamma: 2.20
    RGB color display
    First detailed timing is the preferred timing
  Color Characteristics:
    Red  : 0.5849, 0.3652
    Green: 0.3164, 0.5585
    Blue : 0.1474, 0.1025
    White: 0.2832, 0.3115
  Established Timings I & II: none
  Standard Timings: none
  Detailed Timing Descriptors:
    DTD 1:  1920x1080   60.000000 Hz  16:9     67.500 kHz    148.500000 MHz (344 mm x 193 mm)
                 Hfront   90 Hsync  45 Hback  145 Hpol N
                 Vfront   10 Vsync  10 Vback   25 Vpol N
    Manufacturer-Specified Display Descriptor (0x0f): 00 0f 00 00 00 00 00 00 00 00 00 00 00 00 00 01 '................'
    Alphanumeric Data String: 'STARRY'
    Alphanumeric Data String: 'BH156EA2SRB '
Checksum: 0x30

----------------

Warnings:

Block 0, Base EDID:
  Detailed Timing Descriptor #1: DTD is similar but not identical to VIC 16.

Failures:

Block 0, Base EDID:
  Alphanumeric Data String: One or more trailing spaces.
  Missing Display Product Name.
  Missing Display Range Limits Descriptor.

EDID conformity: FAIL
