
EDID (hex):
00ffffffffffff0026cff40300000000
131b0103951e11780ab38b925d559527
214e5900000001010101010101010101
010101010101c71d56e250001e302616
360035ad100000190000000f00000000
00000000000000000001000000fe0053
54415252590a202020202020000000fe
004248313430454131535241200a00b4

edid-decode (hex):

00 ff ff ff ff ff ff 00 26 cf f4 03 00 00 00 00
13 1b 01 03 95 1e 11 78 0a b3 8b 92 5d 55 95 27
21 4e 59 00 00 00 01 01 01 01 01 01 01 01 01 01
01 01 01 01 01 01 c7 1d 56 e2 50 00 1e 30 26 16
36 00 35 ad 10 00 00 19 00 00 00 0f 00 00 00 00
00 00 00 00 00 00 00 00 00 01 00 00 00 fe 00 53
54 41 52 52 59 0a 20 20 20 20 20 20 00 00 00 fe
00 42 48 31 34 30 45 41 31 53 52 41 20 0a 00 b4

----------------

Block 0, Base EDID:
  EDID Structure Version & Revision: 1.3
  Vendor & Product Identification:
    Manufacturer: IVO
    Model: 1012
    Made in: week 19 of 2017
  Basic Display Parameters & Features:
    Digital display
    DFP 1.x compatible TMDS
    Maximum image size: 30 cm x 17 cm
    Gamma: 2.20
    RGB color display
    First detailed timing is the preferred timing
  Color Characteristics:
    Red  : 0.5722, 0.3662
    Green: 0.3320, 0.5849
    Blue : 0.1542, 0.1289
    White: 0.3066, 0.3505
  Established Timings I & II: none
  Standard Timings: none
  Detailed Timing Descriptors:
    DTD 1:  1366x768    60.003967 Hz 683:384   47.883 kHz     76.230000 MHz (309 mm x 173 mm)
                 Hfront   38 Hsync  22 Hback  166 Hpol N
                 Vfront    3 Vsync   6 Vback   21 Vpol N
    Manufacturer-Specified Display Descriptor (0x0f): 00 0f 00 00 00 00 00 00 00 00 00 00 00 00 00 01 '................'
    Alphanumeric Data String: 'STARRY'
    Alphanumeric Data String: 'BH140EA1SRA '
Checksum: 0xb4
