
EDID (hex):
00ffffffffffff002034601501010101
111e010380221378eab9e5a55852a127
0f5054230800d1c0b300a940a9c09040
8180814081401a3680a070381f403020
250059c31000001a662156aa51001e30
468f330059c31000001a000000fd0030
4b1e5312000a202020202020000000fc
004b616d7661732031360a20202001b7
020300b1402067030c001000382d80e3
050301023a801871382d40582c450006
442100001e011d007251d01e206e2855
0006442100001e8c0ad08a20e02d1010
3e960006442100001800000000000000
00000000000000000000000000000000
00000000000000000000000000000000
00000000000000000000000000000060

Extracted contents:
header:          00 ff ff ff ff ff ff 00
serial number:   20 34 60 15 01 01 01 01 11 1e
version:         01 03
basic params:    80 22 13 78 ea
chroma info:     b9 e5 a5 58 52 a1 27 0f 50 54
established:     23 08 00
standard:        d1 c0 b3 00 a9 40 a9 c0 90 40 81 80 81 40 81 40
descriptor 1:    1a 36 80 a0 70 38 1f 40 30 20 25 00 59 c3 10 00 00 1a
descriptor 2:    66 21 56 aa 51 00 1e 30 46 8f 33 00 59 c3 10 00 00 1a
descriptor 3:    00 00 00 fd 00 30 4b 1e 53 12 00 0a 20 20 20 20 20 20
descriptor 4:    00 00 00 fc 00 4b 61 6d 76 61 73 20 31 36 0a 20 20 20
extensions:      01
checksum:        b7

EDID version: 1.3
Manufacturer: HAT Model 1560 Serial Number --
Made in week 17 of 2020
Digital display
Maximum image size: 34 cm x 19 cm
Gamma: 2.20
DPMS levels: Standby Suspend Off
RGB color display
First detailed timing is preferred timing
Display x,y Chromaticity:
  Red:   0.6464, 0.3466
  Green: 0.3222, 0.6298
  Blue:  0.1552, 0.0605
  White: 0.3134, 0.3291
Established timings supported:
  640x480@60Hz 4:3 HorFreq: 31469 Hz Clock: 25.175 MHz
  800x600@56Hz 4:3 HorFreq: 35200 Hz Clock: 36.000 MHz
  800x600@60Hz 4:3 HorFreq: 37900 Hz Clock: 40.000 MHz
  1024x768@60Hz 4:3 HorFreq: 48400 Hz Clock: 65.000 MHz
Standard timings supported:
  1920x1080@60Hz 16:9
  1680x1050@60Hz 16:10 HorFreq: 64700 Hz Clock: 119.000 MHz
  1600x1200@60Hz 4:3 HorFreq: 75000 Hz Clock: 162.000 MHz
  1600x900@60Hz 16:9
  1400x1050@60Hz 4:3 HorFreq: 64700 Hz Clock: 101.000 MHz
  1280x1024@60Hz 5:4 HorFreq: 64000 Hz Clock: 108.000 MHz
  1280x960@60Hz 4:3 HorFreq: 60000 Hz Clock: 108.000 MHz
  1280x960@60Hz 4:3 HorFreq: 60000 Hz Clock: 108.000 MHz
Detailed mode: Clock 138.500 MHz, 345 mm x 195 mm
               1920 1968 2000 2080 hborder 0
               1080 1082 1087 1111 vborder 0
               +hsync -vsync 
               VertFreq: 59 Hz, HorFreq: 66586 Hz
Detailed mode: Clock 85.500 MHz, 345 mm x 195 mm
               1366 1436 1579 1792 hborder 0
                768  771  774  798 vborder 0
               +hsync -vsync 
               VertFreq: 59 Hz, HorFreq: 47712 Hz
Monitor ranges (GTF): 48-75Hz V, 30-83kHz H, max dotclock 180MHz
Monitor name: Kamvas 16
Has 1 extension blocks
Checksum: 0xb7 (valid)

CTA extension block
Extension version: 3
Checksum: 0x60 (valid)
