
EDID (hex):
00ffffffffffff004c2d551e35315247
100b0103801e17612a60d1a0584f9224
1a5253a5480061404540314001010101
01010101010164190040410026301888
360030e410000018000000fd00324b1e
3007000a202020202020000000fc0053
796e634d61737465720a2020000000ff
00483456523430313131320a2020005d

Extracted contents:
header:          00 ff ff ff ff ff ff 00
serial number:   4c 2d 55 1e 35 31 52 47 10 0b
version:         01 03
basic params:    80 1e 17 61 2a
chroma info:     60 d1 a0 58 4f 92 24 1a 52 53
established:     a5 48 00
standard:        61 40 45 40 31 40 01 01 01 01 01 01 01 01 01 01
descriptor 1:    64 19 00 40 41 00 26 30 18 88 36 00 30 e4 10 00 00 18
descriptor 2:    00 00 00 fd 00 32 4b 1e 30 07 00 0a 20 20 20 20 20 20
descriptor 3:    00 00 00 fc 00 53 79 6e 63 4d 61 73 74 65 72 0a 20 20
descriptor 4:    00 00 00 ff 00 48 34 56 52 34 30 31 31 31 32 0a 20 20
extensions:      00
checksum:        5d

EDID version: 1.3
Manufacturer: SAM Model 1e55 Serial Number --
Digital display
Maximum image size: 30 cm x 23 cm
Gamma: 1.97
DPMS levels: Off
RGB color display
First detailed timing is preferred timing
Display x,y Chromaticity:
  Red:   0.6259, 0.3457
  Green: 0.3085, 0.5703
  Blue:  0.1435, 0.1025
  White: 0.3203, 0.3251
Established timings supported:
  720x400@70Hz 9:5 HorFreq: 31469 Hz Clock: 28.320 MHz
  640x480@60Hz 4:3 HorFreq: 31469 Hz Clock: 25.175 MHz
  640x480@75Hz 4:3 HorFreq: 37500 Hz Clock: 31.500 MHz
  800x600@60Hz 4:3 HorFreq: 37900 Hz Clock: 40.000 MHz
  800x600@75Hz 4:3 HorFreq: 46900 Hz Clock: 49.500 MHz
  1024x768@60Hz 4:3 HorFreq: 48400 Hz Clock: 65.000 MHz
Standard timings supported:
  1024x768@60Hz 4:3 HorFreq: 48400 Hz Clock: 65.000 MHz
  800x600@60Hz 4:3 HorFreq: 37900 Hz Clock: 40.000 MHz
  640x480@60Hz 4:3 HorFreq: 31469 Hz Clock: 25.175 MHz
Detailed mode: Clock 65.000 MHz, 304 mm x 228 mm
               1024 1048 1184 1344 hborder 0
                768  771  777  806 vborder 0
               -hsync -vsync 
               VertFreq: 60 Hz, HorFreq: 48363 Hz
Monitor ranges (GTF): 50-75Hz V, 30-48kHz H, max dotclock 70MHz
Monitor name: SyncMaster
Serial number: --
Checksum: 0x5d (valid)
One or more of the timings is out of range of the Monitor Ranges:
  Vertical Freq: 60 - 75 Hz
  Horizontal Freq: 31469 - 48400 Hz
  Maximum Clock: 65.000 MHz
EDID block does not conform at all!
	Bad year of manufacture
