edid-decode (hex):

00 ff ff ff ff ff ff 00 06 af 3d 10 00 00 00 00
09 19 01 04 95 1f 11 78 02 fb 05 a4 55 50 a0 28
0f 50 54 00 00 00 01 01 01 01 01 01 01 01 01 01
01 01 01 01 01 01 14 37 80 b8 70 38 24 40 10 10
3e 00 35 ad 10 00 00 1a 10 2c 80 b8 70 38 24 40
10 10 3e 00 35 ad 10 00 00 1a 00 00 00 fe 00 50
59 57 38 59 80 42 31 34 30 48 41 54 00 00 00 00
00 00 41 22 9b 01 10 00 00 0a 01 0a 20 20 00 c0

----------------

Block 0, Base EDID:
  EDID Structure Version & Revision: 1.4
  Vendor & Product Identification:
    Manufacturer: AUO
    Model: 4157
    Made in: week 9 of 2015
  Basic Display Parameters & Features:
    Digital display
    Bits per primary color channel: 6
    DisplayPort interface
    Maximum image size: 31 cm x 17 cm
    Gamma: 2.20
    Supported color formats: RGB 4:4:4
    First detailed timing includes the native pixel format and preferred refresh rate
  Color Characteristics:
    Red  : 0.6435, 0.3349
    Green: 0.3144, 0.6279
    Blue : 0.1562, 0.0585
    White: 0.3134, 0.3291
  Established Timings I & II: none
  Standard Timings: none
  Detailed Timing Descriptors:
    DTD 1:  1920x1080   60.049 Hz  16:9    67.015 kHz 141.000 MHz (309 mm x 173 mm)
                 Hfront   16 Hsync  16 Hback 152 Hpol P
                 Vfront    3 Vsync  14 Vback  19 Vpol N
    DTD 2:  1920x1080   48.040 Hz  16:9    53.612 kHz 112.800 MHz (309 mm x 173 mm)
                 Hfront   16 Hsync  16 Hback 152 Hpol P
                 Vfront    3 Vsync  14 Vback  19 Vpol N
    Alphanumeric Data String: 'PYW8Y'
    Manufacturer-Specified Display Descriptor (0x00): 00 00 00 00 41 22 9b 01 10 00 00 0a 01 0a 20 20 '....A"........  '
Checksum: 0xc0

----------------

Failures:

Block 0, Base EDID:
  Alphanumeric Data String: Non-printable character.
  Missing Display Product Name.

EDID conformity: FAIL
