
EDID (hex):
00ffffffffffff000dae411000000000
1d17010380160e780a85bc97574f9426
204e5300000001010101010101010101
010101010101c71b00a0502017303020
3600d88700000018000000fe004e3130
314943472d4c31310a20000000fe0043
4d4e0a202020202020202020000000fe
004e3130314943472d4c31310a2000eb

Extracted contents:
header:          00 ff ff ff ff ff ff 00
serial number:   0d ae 41 10 00 00 00 00 1d 17
version:         01 03
basic params:    80 16 0e 78 0a
chroma info:     85 bc 97 57 4f 94 26 20 4e 53
established:     00 00 00
standard:        01 01 01 01 01 01 01 01 01 01 01 01 01 01 01 01
descriptor 1:    c7 1b 00 a0 50 20 17 30 30 20 36 00 d8 87 00 00 00 18
descriptor 2:    00 00 00 fe 00 4e 31 30 31 49 43 47 2d 4c 31 31 0a 20
descriptor 3:    00 00 00 fe 00 43 4d 4e 0a 20 20 20 20 20 20 20 20 20
descriptor 4:    00 00 00 fe 00 4e 31 30 31 49 43 47 2d 4c 31 31 0a 20
extensions:      00
checksum:        eb

EDID version: 1.3
Manufacturer: CMN Model 1041 Serial Number --
Made in week 29 of 2013
Digital display
Maximum image size: 22 cm x 14 cm
Gamma: 2.20
RGB color display
First detailed timing is preferred timing
Display x,y Chromaticity:
  Red:   0.5917, 0.3398
  Green: 0.3095, 0.5791
  Blue:  0.1503, 0.1279
  White: 0.3076, 0.3242
Established timings supported:
Standard timings supported:
Detailed mode: Clock 71.110 MHz, 216 mm x 135 mm
               1280 1328 1360 1440 hborder 0
                800  803  809  823 vborder 0
               -hsync -vsync 
               VertFreq: 60 Hz, HorFreq: 49381 Hz
ASCII string: N101ICG-L11
ASCII string: CMN
ASCII string: N101ICG-L11
Checksum: 0xeb (valid)
EDID block does NOT conform to EDID 1.3!
	Missing name descriptor
	Missing monitor ranges
