
EDID (hex):
00ffffffffffff004c2d7e7051524130
2e1f010300351e782adfd5a35b4da125
0d5054bfef8081c0810081809500a9c0
b300714fd1cf023a801871382d40582c
450010292100001e000000fd00384b1e
5412000a202020202020000000fc004c
4632345433350a2020202020000000ff
0048434e524231323330390a202000c5

Extracted contents:
header:          00 ff ff ff ff ff ff 00
serial number:   4c 2d 7e 70 51 52 41 30 2e 1f
version:         01 03
basic params:    00 35 1e 78 2a
chroma info:     df d5 a3 5b 4d a1 25 0d 50 54
established:     bf ef 80
standard:        81 c0 81 00 81 80 95 00 a9 c0 b3 00 71 4f d1 cf
descriptor 1:    02 3a 80 18 71 38 2d 40 58 2c 45 00 10 29 21 00 00 1e
descriptor 2:    00 00 00 fd 00 38 4b 1e 54 12 00 0a 20 20 20 20 20 20
descriptor 3:    00 00 00 fc 00 4c 46 32 34 54 33 35 0a 20 20 20 20 20
descriptor 4:    00 00 00 ff 00 48 43 4e 52 42 31 32 33 30 39 0a 20 20
extensions:      00
checksum:        c5

EDID version: 1.3
Manufacturer: SAM Model 707e Serial Number --
Made in week 46 of 2021
Analog display, Input voltage level: 0.7/0.3 V
Sync: 
Maximum image size: 53 cm x 30 cm
Gamma: 2.20
DPMS levels: Off
RGB color display
First detailed timing is preferred timing
Display x,y Chromaticity:
  Red:   0.6396, 0.3564
  Green: 0.3037, 0.6318
  Blue:  0.1474, 0.0517
  White: 0.3134, 0.3291
Established timings supported:
  720x400@70Hz 9:5 HorFreq: 31469 Hz Clock: 28.320 MHz
  640x480@60Hz 4:3 HorFreq: 31469 Hz Clock: 25.175 MHz
  640x480@67Hz 4:3 HorFreq: 35000 Hz Clock: 30.240 MHz
  640x480@72Hz 4:3 HorFreq: 37900 Hz Clock: 31.500 MHz
  640x480@75Hz 4:3 HorFreq: 37500 Hz Clock: 31.500 MHz
  800x600@56Hz 4:3 HorFreq: 35200 Hz Clock: 36.000 MHz
  800x600@60Hz 4:3 HorFreq: 37900 Hz Clock: 40.000 MHz
  800x600@72Hz 4:3 HorFreq: 48100 Hz Clock: 50.000 MHz
  800x600@75Hz 4:3 HorFreq: 46900 Hz Clock: 49.500 MHz
  832x624@75Hz 4:3 HorFreq: 49726 Hz Clock: 57.284 MHz
  1024x768@60Hz 4:3 HorFreq: 48400 Hz Clock: 65.000 MHz
  1024x768@70Hz 4:3 HorFreq: 56500 Hz Clock: 75.000 MHz
  1024x768@75Hz 4:3 HorFreq: 60000 Hz Clock: 78.750 MHz
  1280x1024@75Hz 5:4 HorFreq: 80000 Hz Clock: 135.000 MHz
  1152x870@75Hz 192:145 HorFreq: 67500 Hz Clock: 108.000 MHz
Standard timings supported:
  1280x720@60Hz 16:9
  1280x800@60Hz 16:10
  1280x1024@60Hz 5:4 HorFreq: 64000 Hz Clock: 108.000 MHz
  1440x900@60Hz 16:10 HorFreq: 55500 Hz Clock: 88.750 MHz
  1600x900@60Hz 16:9
  1680x1050@60Hz 16:10 HorFreq: 64700 Hz Clock: 119.000 MHz
  1152x864@75Hz 4:3 HorFreq: 67500 Hz Clock: 108.000 MHz
  1920x1080@75Hz 16:9
Detailed mode: Clock 148.500 MHz, 528 mm x 297 mm
               1920 2008 2052 2200 hborder 0
               1080 1084 1089 1125 vborder 0
               +hsync +vsync 
               VertFreq: 60 Hz, HorFreq: 67500 Hz
Monitor ranges (GTF): 56-75Hz V, 30-84kHz H, max dotclock 180MHz
Monitor name: LF24T35
Serial number: --
Checksum: 0xc5 (valid)
