edid-decode (hex):

00 ff ff ff ff ff ff 00 09 e5 9f 0a 00 00 00 00
1e 1f 01 04 a5 22 13 78 03 01 25 a5 53 4b a0 27
0e 50 54 00 00 00 01 01 01 01 01 01 01 01 01 01
01 01 01 01 01 01 a8 c5 00 cd a0 a0 55 50 30 20
36 00 58 c2 10 00 00 1a d4 62 00 cd a0 a0 55 50
30 20 36 00 58 c2 10 00 00 1a 00 00 00 fd 00 3c
78 b7 b7 33 01 0a 20 20 20 20 20 20 00 00 00 03
00 0d 36 ff 0a 3c 96 24 14 31 96 00 00 00 01 0d

70 20 79 00 00 25 01 09 45 dc 03 8a b8 07 3c 78
80 81 00 13 72 1a 00 00 03 01 3c 78 00 00 00 00
00 00 78 00 00 00 00 00 00 00 00 00 00 00 00 00
00 00 00 00 00 00 00 00 00 00 00 00 00 00 00 00
00 00 00 00 00 00 00 00 00 00 00 00 00 00 00 00
00 00 00 00 00 00 00 00 00 00 00 00 00 00 00 00
00 00 00 00 00 00 00 00 00 00 00 00 00 00 00 00
00 00 00 00 00 00 00 00 00 00 00 00 00 00 47 90

----------------

Block 0, Base EDID:
  EDID Structure Version & Revision: 1.4
  Vendor & Product Identification:
    Manufacturer: BOE
    Model: 2719
    Made in: week 30 of 2021
  Basic Display Parameters & Features:
    Digital display
    Bits per primary color channel: 8
    DisplayPort interface
    Maximum image size: 34 cm x 19 cm
    Gamma: 2.20
    Supported color formats: RGB 4:4:4
    First detailed timing includes the native pixel format and preferred refresh rate
    Display is continuous frequency
  Color Characteristics:
    Red  : 0.6445, 0.3242
    Green: 0.2929, 0.6259
    Blue : 0.1523, 0.0566
    White: 0.3134, 0.3291
  Established Timings I & II: none
  Standard Timings: none
  Detailed Timing Descriptors:
    DTD 1:  2560x1440  120.001186 Hz  16:9    183.002 kHz    506.000000 MHz (344 mm x 194 mm)
                 Hfront   48 Hsync  32 Hback  125 Hpol P
                 Vfront    3 Vsync   6 Vback   76 Vpol N
    DTD 2:  2560x1440   60.000593 Hz  16:9     91.501 kHz    253.000000 MHz (344 mm x 194 mm)
                 Hfront   48 Hsync  32 Hback  125 Hpol P
                 Vfront    3 Vsync   6 Vback   76 Vpol N
    Display Range Limits:
      Monitor ranges (Bare Limits): 60-120 Hz V, 183-183 kHz H, max dotclock 510 MHz
    Manufacturer-Specified Display Descriptor (0x03): 00 03 00 0d 36 ff 0a 3c 96 24 14 31 96 00 00 00 '....6..<.$.1....'
  Extension blocks: 1
Checksum: 0x0d

----------------

Block 1, DisplayID Extension Block:
  Version: 2.0
  Extension Count: 0
  Display Product Primary Use Case: Same primary use case as the base section
  Dynamic Video Timing Range Limits Data Block:
    Minimum Pixel Clock: 252998 kHz
    Maximum Pixel Clock: 505995 kHz
    Minimum Vertical Refresh Rate: 60 Hz
    Maximum Vertical Refresh Rate: 120 Hz
    Seamless Dynamic Video Timing Support: Yes
  CTA-861 DisplayID Data Block:
  Vendor-Specific Data Block (AMD), OUI 00-00-1A:
    Version: 3.1
    Minimum Refresh Rate: 60 Hz
    Maximum Refresh Rate: 120 Hz
    Flags 1.x: 0x00
    Flags 2.x: 0x00
    Maximum luminance: 0 (50.000 cd/m^2)
    Minimum luminance: 0 (0.000 cd/m^2)
    Unknown: 0x00 0x00
  Checksum: 0x47
Checksum: 0x90

----------------

Warnings:

Block 0, Base EDID:
  Missing Display Product Name.
EDID:
  Base EDID: Some timings are out of range of the Monitor Ranges:
    Horizontal Freq: 91.500 - 183.001 kHz (Monitor: 183.000 - 183.000 kHz)

Failures:

Block 1, DisplayID Extension Block:
  DisplayID Base Block has no product type.
EDID:
  DisplayID: Missing DisplayID Product Identification Data Block.
  DisplayID: DisplayID expects at least one preferred timing.

EDID conformity: FAIL
