
EDID (hex):
00ffffffffffff004a842320be090000
320f0104a51f1723e2269e9c574c9626
10474fbfcf0001010101010101010101
01010101010164190040410026301888
360033e610000018000000ff00303030
30303030303032343934000000fc004c
523736320a20202020202020000000fd
00384b1f500e000a202020202020002e

Extracted contents:
header:          00 ff ff ff ff ff ff 00
serial number:   4a 84 23 20 be 09 00 00 32 0f
version:         01 04
basic params:    a5 1f 17 23 e2
chroma info:     26 9e 9c 57 4c 96 26 10 47 4f
established:     bf cf 00
standard:        01 01 01 01 01 01 01 01 01 01 01 01 01 01 01 01
descriptor 1:    64 19 00 40 41 00 26 30 18 88 36 00 33 e6 10 00 00 18
descriptor 2:    00 00 00 ff 00 30 30 30 30 30 30 30 30 30 32 34 39 34
descriptor 3:    00 00 00 fc 00 4c 52 37 36 32 0a 20 20 20 20 20 20 20
descriptor 4:    00 00 00 fd 00 38 4b 1f 50 0e 00 0a 20 20 20 20 20 20
extensions:      00
checksum:        2e

EDID version: 1.4
Manufacturer: RTD Model 2023 Serial Number --
Digital display
8 bits per primary color channel
DisplayPort interface
Maximum image size: 31 cm x 23 cm
Gamma: 1.35
DPMS levels: Standby Suspend Off
Supported color formats: RGB 4:4:4
First detailed timing includes the native pixel format and preferred refresh rate
Display x,y Chromaticity:
  Red:   0.6093, 0.3417
  Green: 0.2978, 0.5878
  Blue:  0.1503, 0.0634
  White: 0.2802, 0.3105
Established timings supported:
  720x400@70Hz 9:5 HorFreq: 31469 Hz Clock: 28.320 MHz
  640x480@60Hz 4:3 HorFreq: 31469 Hz Clock: 25.175 MHz
  640x480@67Hz 4:3 HorFreq: 35000 Hz Clock: 30.240 MHz
  640x480@72Hz 4:3 HorFreq: 37900 Hz Clock: 31.500 MHz
  640x480@75Hz 4:3 HorFreq: 37500 Hz Clock: 31.500 MHz
  800x600@56Hz 4:3 HorFreq: 35200 Hz Clock: 36.000 MHz
  800x600@60Hz 4:3 HorFreq: 37900 Hz Clock: 40.000 MHz
  800x600@72Hz 4:3 HorFreq: 48100 Hz Clock: 50.000 MHz
  800x600@75Hz 4:3 HorFreq: 46900 Hz Clock: 49.500 MHz
  1024x768@60Hz 4:3 HorFreq: 48400 Hz Clock: 65.000 MHz
  1024x768@70Hz 4:3 HorFreq: 56500 Hz Clock: 75.000 MHz
  1024x768@75Hz 4:3 HorFreq: 60000 Hz Clock: 78.750 MHz
  1280x1024@75Hz 5:4 HorFreq: 80000 Hz Clock: 135.000 MHz
Standard timings supported:
Detailed mode: Clock 65.000 MHz, 307 mm x 230 mm
               1024 1048 1184 1344 hborder 0
                768  771  777  806 vborder 0
               -hsync -vsync 
               VertFreq: 60 Hz, HorFreq: 48363 Hz
Serial number: --
Monitor name: LR762
Monitor ranges (GTF): 56-75Hz V, 31-80kHz H, max dotclock 140MHz
Checksum: 0x2e (valid)
EDID block does not conform at all!
	Bad year of manufacture


