
EDID (hex):
00ffffffffffff004a8b000001010101
1e0c01010e241b78e88a019a58528b28
1e50540108006140614061406140a9c0
a9c06140a9c00e1f008051001e304080
3700202063000006f41f807041602130
407834002020630000060e1f00805100
1e30408037002020630000060e1f0080
51001e30408037002020630000060059

Extracted contents:
header:          00 ff ff ff ff ff ff 00
serial number:   4a 8b 00 00 01 01 01 01 1e 0c
version:         01 01
basic params:    0e 24 1b 78 e8
chroma info:     8a 01 9a 58 52 8b 28 1e 50 54
established:     01 08 00
standard:        61 40 61 40 61 40 61 40 a9 c0 a9 c0 61 40 a9 c0
descriptor 1:    0e 1f 00 80 51 00 1e 30 40 80 37 00 20 20 63 00 00 06
descriptor 2:    f4 1f 80 70 41 60 21 30 40 78 34 00 20 20 63 00 00 06
descriptor 3:    0e 1f 00 80 51 00 1e 30 40 80 37 00 20 20 63 00 00 06
descriptor 4:    0e 1f 00 80 51 00 1e 30 40 80 37 00 20 20 63 00 00 06
extensions:      00
checksum:        59

EDID version: 1.1
Manufacturer: RTK Model 0 Serial Number --
Analog display, Input voltage level: 0.7/0.3 V
Sync: Separate Composite SyncOnGreen 
Maximum image size: 36 cm x 27 cm
Gamma: 2.20
DPMS levels: Standby Suspend Off
RGB color display
Display x,y Chromaticity:
  Red:   0.6035, 0.3437
  Green: 0.3222, 0.5449
  Blue:  0.1562, 0.1171
  White: 0.3125, 0.3291
Established timings supported:
  800x600@60Hz 4:3 HorFreq: 37900 Hz Clock: 40.000 MHz
  1024x768@60Hz 4:3 HorFreq: 48400 Hz Clock: 65.000 MHz
Standard timings supported:
  1024x768@60Hz 4:3 HorFreq: 48400 Hz Clock: 65.000 MHz
  1024x768@60Hz 4:3 HorFreq: 48400 Hz Clock: 65.000 MHz
  1024x768@60Hz 4:3 HorFreq: 48400 Hz Clock: 65.000 MHz
  1024x768@60Hz 4:3 HorFreq: 48400 Hz Clock: 65.000 MHz
  1600x900@60Hz 16:9
  1600x900@60Hz 16:9
  1024x768@60Hz 4:3 HorFreq: 48400 Hz Clock: 65.000 MHz
  1600x900@60Hz 16:9
Detailed mode: Clock 79.500 MHz, 1568 mm x 800 mm
               1280 1344 1472 1664 hborder 0
                768  771  778  798 vborder 0
               +hsync +vsync analog composite 
               VertFreq: 59 Hz, HorFreq: 47776 Hz
Detailed mode: Clock 81.800 MHz, 1568 mm x 800 mm
               1152 1216 1336 1520 hborder 0
                864  867  871  897 vborder 0
               +hsync +vsync analog composite 
               VertFreq: 59 Hz, HorFreq: 53815 Hz
Detailed mode: Clock 79.500 MHz, 1568 mm x 800 mm
               1280 1344 1472 1664 hborder 0
                768  771  778  798 vborder 0
               +hsync +vsync analog composite 
               VertFreq: 59 Hz, HorFreq: 47776 Hz
Detailed mode: Clock 79.500 MHz, 1568 mm x 800 mm
               1280 1344 1472 1664 hborder 0
                768  771  778  798 vborder 0
               +hsync +vsync analog composite 
               VertFreq: 59 Hz, HorFreq: 47776 Hz
Checksum: 0x59 (valid)
EDID block does not conform at all!
	Bad year of manufacture
