edid-decode (hex):

00 ff ff ff ff ff ff 00 4e 14 05 0a 00 00 00 00
2f 1d 01 04 a5 38 1e 78 03 1d f5 ae 4f 35 b3 25
0d 50 54 ad cf 00 d1 c0 d1 fc b3 00 b3 3c a9 c0
a9 fc d1 c0 01 01 4e 96 80 c8 70 38 14 40 18 20
35 00 55 50 21 00 00 1a 30 8f 90 68 61 1a 27 40
68 b0 36 00 ba 89 21 00 00 1c 00 00 00 fc 00 53
63 65 70 74 72 65 20 4d 32 35 0a 20 00 00 00 fd
00 30 a5 b6 b6 27 01 0a 20 20 20 20 20 20 01 07

02 03 1e f1 50 90 05 04 03 02 07 16 01 06 11 12
15 13 14 1f 20 23 09 1f 07 83 01 00 00 03 2b 5c
56 aa 51 00 1e 30 46 8f 33 00 55 89 21 00 00 1e
08 43 56 aa 51 00 1e 30 46 8f 33 00 20 89 21 00
00 1e 84 21 56 aa 51 00 1e 30 46 8f 33 00 20 89
21 00 00 1e 04 74 40 c8 60 84 64 30 18 50 13 00
20 89 21 00 00 1e 00 00 00 00 00 00 00 00 00 00
00 00 00 00 00 00 00 00 00 00 00 00 00 00 00 af

----------------

Block 0, Base EDID:
  EDID Structure Version & Revision: 1.4
  Vendor & Product Identification:
    Manufacturer: SPT
    Model: 2565
    Made in: week 47 of 2019
  Basic Display Parameters & Features:
    Digital display
    Bits per primary color channel: 8
    DisplayPort interface
    Maximum image size: 56 cm x 30 cm
    Gamma: 2.20
    Supported color formats: RGB 4:4:4
    First detailed timing includes the native pixel format and preferred refresh rate
    Display is continuous frequency
  Color Characteristics:
    Red  : 0.6796, 0.3095
    Green: 0.2099, 0.7001
    Blue : 0.1474, 0.0537
    White: 0.3134, 0.3291
  Established Timings I & II:
    IBM     :   720x400    70.082 Hz   9:5    31.467 kHz  28.320 MHz
    DMT 0x04:   640x480    59.940 Hz   4:3    31.469 kHz  25.175 MHz
    DMT 0x05:   640x480    72.809 Hz   4:3    37.861 kHz  31.500 MHz
    DMT 0x06:   640x480    75.000 Hz   4:3    37.500 kHz  31.500 MHz
    DMT 0x09:   800x600    60.317 Hz   4:3    37.879 kHz  40.000 MHz
    DMT 0x0a:   800x600    72.188 Hz   4:3    48.077 kHz  50.000 MHz
    DMT 0x0b:   800x600    75.000 Hz   4:3    46.875 kHz  49.500 MHz
    DMT 0x10:  1024x768    60.004 Hz   4:3    48.363 kHz  65.000 MHz
    DMT 0x11:  1024x768    70.069 Hz   4:3    56.476 kHz  75.000 MHz
    DMT 0x12:  1024x768    75.029 Hz   4:3    60.023 kHz  78.750 MHz
    DMT 0x24:  1280x1024   75.025 Hz   5:4    79.976 kHz 135.000 MHz
  Standard Timings:
    DMT 0x52:  1920x1080   60.000 Hz  16:9    67.500 kHz 148.500 MHz
    CVT     :  1920x1080  119.930 Hz  16:9   139.119 kHz 369.500 MHz (EDID 1.4 source)
    GTF     :  1920x1080  120.000 Hz  16:9   138.840 kHz 368.759 MHz (EDID 1.3 source)
    DMT 0x3a:  1680x1050   59.954 Hz  16:10   65.290 kHz 146.250 MHz
    CVT     :  1680x1056  119.922 Hz  16:10  135.991 kHz 315.500 MHz (EDID 1.4 source)
    GTF     :  1680x1056  120.000 Hz  16:10  135.840 kHz 315.149 MHz (EDID 1.3 source)
    DMT 0x53:  1600x900    60.000 Hz  16:9    60.000 kHz 108.000 MHz (RB)
    CVT     :  1600x904   119.801 Hz  16:9   116.446 kHz 255.250 MHz (EDID 1.4 source)
    GTF     :  1600x904   120.000 Hz  16:9   116.280 kHz 256.746 MHz (EDID 1.3 source)
    DMT 0x52:  1920x1080   60.000 Hz  16:9    67.500 kHz 148.500 MHz
  Detailed Timing Descriptors:
    DTD 1:  1920x1080  165.000 Hz  16:9   181.500 kHz 384.780 MHz (597 mm x 336 mm)
                 Hfront   24 Hsync  32 Hback 144 Hpol P
                 Vfront    3 Vsync   5 Vback  12 Vpol N
    DTD 2:  1680x1050  165.001 Hz   8:5   179.686 kHz 366.560 MHz (698 mm x 393 mm)
                 Hfront  104 Hsync 176 Hback  80 Hpol N
                 Vfront    3 Vsync   6 Vback  30 Vpol P
    Display Product Name: 'Sceptre M25'
  Display Range Limits:
    Monitor ranges (Bare Limits): 48-165 Hz V, 182-182 kHz H, max dotclock 390 MHz
  Extension blocks: 1
Checksum: 0x07

----------------

Block 1, CTA-861 Extension Block:
  Revision: 3
  Underscans IT Video Formats by default
  Basic audio support
  Supports YCbCr 4:4:4
  Supports YCbCr 4:2:2
  Native detailed modes: 1
  Video Data Block:
    VIC  16:  1920x1080   60.000 Hz  16:9    67.500 kHz 148.500 MHz (native)
    VIC   5:  1920x1080i  60.000 Hz  16:9    33.750 kHz  74.250 MHz
    VIC   4:  1280x720    60.000 Hz  16:9    45.000 kHz  74.250 MHz
    VIC   3:   720x480    59.940 Hz  16:9    31.469 kHz  27.000 MHz
    VIC   2:   720x480    59.940 Hz   4:3    31.469 kHz  27.000 MHz
    VIC   7:  1440x480i   59.940 Hz  16:9    15.734 kHz  27.000 MHz
    VIC  22:  1440x576i   50.000 Hz  16:9    15.625 kHz  27.000 MHz
    VIC   1:   640x480    59.940 Hz   4:3    31.469 kHz  25.175 MHz
    VIC   6:  1440x480i   59.940 Hz   4:3    15.734 kHz  27.000 MHz
    VIC  17:   720x576    50.000 Hz   4:3    31.250 kHz  27.000 MHz
    VIC  18:   720x576    50.000 Hz  16:9    31.250 kHz  27.000 MHz
    VIC  21:  1440x576i   50.000 Hz   4:3    15.625 kHz  27.000 MHz
    VIC  19:  1280x720    50.000 Hz  16:9    37.500 kHz  74.250 MHz
    VIC  20:  1920x1080i  50.000 Hz  16:9    28.125 kHz  74.250 MHz
    VIC  31:  1920x1080   50.000 Hz  16:9    56.250 kHz 148.500 MHz
    VIC  32:  1920x1080   24.000 Hz  16:9    27.000 kHz  74.250 MHz
  Audio Data Block:
    Linear PCM:
      Max channels: 2
      Supported sample rates (kHz): 96 88.2 48 44.1 32
      Supported sample sizes (bits): 24 20 16
  Speaker Allocation Data Block:
    FL/FR - Front Left/Right
  Unknown CTA-861 tag 0x00, length 3
    2b 5c 56                                        '+\V'
  Detailed Timing Descriptors:
    DTD 3:  1366x768   164.998 Hz 683:384 131.669 kHz 235.950 MHz (597 mm x 393 mm)
                 Hfront   70 Hsync 143 Hback 213 Hpol P
                 Vfront    3 Vsync   3 Vback  24 Vpol P
    DTD 4:  1366x768   119.999 Hz 683:384  95.759 kHz 171.600 MHz (544 mm x 393 mm)
                 Hfront   70 Hsync 143 Hback 213 Hpol P
                 Vfront    3 Vsync   3 Vback  24 Vpol P
    DTD 5:  1366x768    59.999 Hz 683:384  47.879 kHz  85.800 MHz (544 mm x 393 mm)
                 Hfront   70 Hsync 143 Hback 213 Hpol P
                 Vfront    3 Vsync   3 Vback  24 Vpol P
    DTD 6:  1600x900   165.000 Hz  16:9   165.000 kHz 297.000 MHz (544 mm x 393 mm)
                 Hfront   24 Hsync  80 Hback  96 Hpol P
                 Vfront    1 Vsync   3 Vback  96 Vpol P
Checksum: 0xaf

----------------

Warnings:

Block 1, CTA-861 Extension Block:
  Unknown CTA-861 Data Block 0.
  Missing VCDB, needed for Set Selectable RGB Quantization to avoid interop issues.
EDID:
  Base EDID: Some timings are out of range of the Monitor Ranges:
    Vertical Freq: 24.000 - 165.001 Hz (Monitor: 48.000 - 165.000 Hz)
    Horizontal Freq: 15.625 - 181.500 kHz (Monitor: 182.000 - 182.000 kHz)
  CTA-861: Multiple native progressive timings are defined.

Failures:

Block 0, Base EDID:
  Detailed Timing Descriptor #1: Mismatch of image size 597x336 mm vs display size 560x300 mm.
  Detailed Timing Descriptor #2: Mismatch of image size 698x393 mm vs display size 560x300 mm.
Block 1, CTA-861 Extension Block:
  Offset is 30, but should be 33.
  Detailed Timing Descriptor #3: Mismatch of image size 597x393 mm vs display size 560x300 mm.
  Detailed Timing Descriptor #4: Mismatch of image size 544x393 mm vs display size 560x300 mm.
  Detailed Timing Descriptor #5: Mismatch of image size 544x393 mm vs display size 560x300 mm.
  Detailed Timing Descriptor #6: Mismatch of image size 544x393 mm vs display size 560x300 mm.
EDID:
  Base EDID: GTF timings are used, but the EDID does not signal GTF support.
  Base EDID: CVT timings are used, but the EDID does not signal CVT support.

EDID conformity: FAIL
