
EDID (hex):
00ffffffffffff0006b3e14353380300
0c1f0104b55e35783bba35ae4f47aa27
105054bfcf00d1c0b3009500818081c0
714f814001014dd000a0f0703e803020
3500ad113200001a0d68805070703e80
0820080cad113200001a000000fd0030
78ffff6c010a202020202020000000fc
00415355532058473433380a2020023d
020346f150010304131f120211900f0e
1d1e60613f230907078301000067030c
001000384067d85dc4017880006d1a00
000203307800057428082ee305e001e6
060701735a170d68805070703e800820
080cad113200001af8650050f0381f40
08201804ad113200001a000000000000
000000000000000000000000000000c1
70127900000301289aa00104ff0e9f00
2f803f006f083d0002000400714f0109
ff0ebb000f003d006f08190013000600
00000000000000000000000000000000
00000000000000000000000000000000
00000000000000000000000000000000
00000000000000000000000000000000
00000000000000000000000000002f90

Extracted contents:
header:          00 ff ff ff ff ff ff 00
serial number:   06 b3 e1 43 53 38 03 00 0c 1f
version:         01 04
basic params:    b5 5e 35 78 3b
chroma info:     ba 35 ae 4f 47 aa 27 10 50 54
established:     bf cf 00
standard:        d1 c0 b3 00 95 00 81 80 81 c0 71 4f 81 40 01 01
descriptor 1:    4d d0 00 a0 f0 70 3e 80 30 20 35 00 ad 11 32 00 00 1a
descriptor 2:    0d 68 80 50 70 70 3e 80 08 20 08 0c ad 11 32 00 00 1a
descriptor 3:    00 00 00 fd 00 30 78 ff ff 6c 01 0a 20 20 20 20 20 20
descriptor 4:    00 00 00 fc 00 41 53 55 53 20 58 47 34 33 38 0a 20 20
extensions:      02
checksum:        3d

EDID version: 1.4
Manufacturer: AUS Model 43e1 Serial Number --
Made in week 12 of 2021
Digital display
10 bits per primary color channel
DisplayPort interface
Maximum image size: 94 cm x 53 cm
Gamma: 2.20
DPMS levels: Off
Supported color formats: RGB 4:4:4, YCrCb 4:4:4, YCrCb 4:2:2
First detailed timing includes the native pixel format and preferred refresh rate
Display is continuous frequency
Display x,y Chromaticity:
  Red:   0.6816, 0.3115
  Green: 0.2792, 0.6660
  Blue:  0.1523, 0.0654
  White: 0.3134, 0.3291
Established timings supported:
  720x400@70Hz 9:5 HorFreq: 31469 Hz Clock: 28.320 MHz
  640x480@60Hz 4:3 HorFreq: 31469 Hz Clock: 25.175 MHz
  640x480@67Hz 4:3 HorFreq: 35000 Hz Clock: 30.240 MHz
  640x480@72Hz 4:3 HorFreq: 37900 Hz Clock: 31.500 MHz
  640x480@75Hz 4:3 HorFreq: 37500 Hz Clock: 31.500 MHz
  800x600@56Hz 4:3 HorFreq: 35200 Hz Clock: 36.000 MHz
  800x600@60Hz 4:3 HorFreq: 37900 Hz Clock: 40.000 MHz
  800x600@72Hz 4:3 HorFreq: 48100 Hz Clock: 50.000 MHz
  800x600@75Hz 4:3 HorFreq: 46900 Hz Clock: 49.500 MHz
  1024x768@60Hz 4:3 HorFreq: 48400 Hz Clock: 65.000 MHz
  1024x768@70Hz 4:3 HorFreq: 56500 Hz Clock: 75.000 MHz
  1024x768@75Hz 4:3 HorFreq: 60000 Hz Clock: 78.750 MHz
  1280x1024@75Hz 5:4 HorFreq: 80000 Hz Clock: 135.000 MHz
Standard timings supported:
  1920x1080@60Hz 16:9
  1680x1050@60Hz 16:10 HorFreq: 64700 Hz Clock: 119.000 MHz
  1440x900@60Hz 16:10 HorFreq: 55500 Hz Clock: 88.750 MHz
  1280x1024@60Hz 5:4 HorFreq: 64000 Hz Clock: 108.000 MHz
  1280x720@60Hz 16:9
  1152x864@75Hz 4:3 HorFreq: 67500 Hz Clock: 108.000 MHz
  1280x960@60Hz 4:3 HorFreq: 60000 Hz Clock: 108.000 MHz
Detailed mode: Clock 533.250 MHz, 941 mm x 529 mm
               3840 3888 3920 4000 hborder 0
               2160 2163 2168 2222 vborder 0
               +hsync -vsync 
               VertFreq: 59 Hz, HorFreq: 133312 Hz
Detailed mode: Clock 266.370 MHz, 941 mm x 529 mm
               1920 1928 1960 2000 hborder 0
               2160 2208 2216 2222 vborder 0
               +hsync -vsync 
               VertFreq: 59 Hz, HorFreq: 133185 Hz
Monitor ranges (bare limits): 48-120Hz V, 255-255kHz H, max dotclock 1080MHz
Monitor name: ASUS XG438
Has 2 extension blocks
Checksum: 0x3d (valid)

CTA extension block
Extension version: 3
66 bytes of CTA data
  Video data block
    VIC   1 640x480@60Hz 4:3  HorFreq: 31469 Hz Clock: 25.175 MHz
    VIC   3 720x480@60Hz 16:9  HorFreq: 31469 Hz Clock: 27.000 MHz
    VIC   4 1280x720@60Hz 16:9  HorFreq: 45000 Hz Clock: 74.250 MHz
    VIC  19 1280x720@50Hz 16:9  HorFreq: 37500 Hz Clock: 74.250 MHz
    VIC  31 1920x1080@50Hz 16:9  HorFreq: 56250 Hz Clock: 148.500 MHz
    VIC  18 720x576@50Hz 16:9  HorFreq: 31250 Hz Clock: 27.000 MHz
    VIC   2 720x480@60Hz 4:3  HorFreq: 31469 Hz Clock: 27.000 MHz
    VIC  17 720x576@50Hz 4:3  HorFreq: 31250 Hz Clock: 27.000 MHz
    VIC  16 1920x1080@60Hz 16:9 (native) HorFreq: 67500 Hz Clock: 148.500 MHz
    VIC  15 1440x480@60Hz 16:9  HorFreq: 31469 Hz Clock: 54.000 MHz
    VIC  14 1440x480@60Hz 4:3  HorFreq: 31469 Hz Clock: 54.000 MHz
    VIC  29 1440x576@50Hz 4:3  HorFreq: 31250 Hz Clock: 54.000 MHz
    VIC  30 1440x576@50Hz 16:9  HorFreq: 31250 Hz Clock: 54.000 MHz
    VIC  96 3840x2160@50Hz 16:9  HorFreq: 112500 Hz Clock: 594.000 MHz
    VIC  97 3840x2160@60Hz 16:9  HorFreq: 135000 Hz Clock: 594.000 MHz
    VIC  63 1920x1080@120Hz 16:9  HorFreq: 135000 Hz Clock: 297.000 MHz
  Audio data block
    Linear PCM, max channels 2
      Supported sample rates (kHz): 48 44.1 32
      Supported sample sizes (bits): 24 20 16
  Speaker allocation data block
    Speaker map:
      FL/FR - Front Left/Right
  Vendor-specific data block, OUI 000c03 (HDMI)
    Source physical address 1.0.0.0
    DC_36bit
    DC_30bit
    DC_Y444
    Maximum TMDS clock: 320MHz
  Vendor-specific data block, OUI c45dd8 (HDMI Forum)
    Version: 1
    Maximum TMDS Character Rate: 600MHz
    SCDC Present
  Vendor-specific data block, OUI 00001a
  Extended tag: Colorimetry data block
    BT2020cYCC
    BT2020YCC
    BT2020RGB
  Extended tag: HDR static metadata data block
    Electro optical transfer functions:
      Traditional gamma - SDR luminance range
      Traditional gamma - HDR luminance range
      SMPTE ST2084
    Supported static metadata descriptors:
      Static metadata type 1
    Desired content max luminance: 115 (603.666 cd/m^2)
    Desired content max frame-average luminance: 90 (351.250 cd/m^2)
    Desired content min luminance: 23 (0.049 cd/m^2)
Underscans PC formats by default
Basic audio support
Supports YCbCr 4:4:4
Supports YCbCr 4:2:2
1 native detailed modes
Detailed mode: Clock 266.370 MHz, 941 mm x 529 mm
               1920 1928 1960 2000 hborder 0
               2160 2208 2216 2222 vborder 0
               +hsync -vsync 
               VertFreq: 59 Hz, HorFreq: 133185 Hz
Detailed mode: Clock 261.040 MHz, 941 mm x 529 mm
               3840 3848 3880 3920 hborder 0
               1080 1097 1105 1111 vborder 0
               +hsync -vsync 
               VertFreq: 59 Hz, HorFreq: 66591 Hz
Checksum: 0xc1 (valid)


DisplayID extension block
Extension version: 18
Length 121, version 18, extension count 0
Checksum: 0x2f (valid)
Type 1 detailed timing: aspect: 16:9,  
Detailed mode: Clock 1066.500 MHz, 0 mm x 0 mm
               3839 3886 3949 3998
               2159 2161 2165 2220
               +hsync -vsync
Type 1 detailed timing: aspect: undefined,  
Detailed mode: Clock 858.730 MHz, 0 mm x 0 mm
               3839 3854 3915 4026
               2159 2178 2184 2184
               -hsync -vsync

Warning: One or more of the timings is out of range of the Monitor Ranges:
  Vertical Freq: 50 - 120 Hz
  Horizontal Freq: 31250 - 135000 Hz
  Maximum Clock: 594.000 MHz
