edid-decode (hex):

00 ff ff ff ff ff ff 00 1e 6d 4d 4b 03 05 00 00
02 12 01 03 08 29 1a 78 0a 9b b6 a4 53 4b 9d 24
14 4f 54 21 08 00 81 80 01 01 01 01 01 01 01 01
01 01 01 01 01 01 9a 29 a0 d0 51 84 22 30 50 98
36 00 98 ff 10 00 00 1c 00 00 00 fd 00 3a 3f 1c
53 0e 00 0a 20 20 20 20 20 20 00 00 00 fc 00 31
39 4c 53 34 52 0a 20 20 20 20 20 20 00 00 00 fc
00 0a 20 20 20 20 20 20 20 20 20 20 20 20 00 e0

00 ff ff ff ff ff ff 00 1e 6d 4d 4b 03 05 00 00
02 12 01 03 08 29 1a 78 0a 9b b6 a4 53 4b 9d 24
14 4f 54 21 08 00 81 80 01 01 01 01 01 01 01 01
01 01 01 01 01 01 9a 29 a0 d0 51 84 22 30 50 98
36 00 98 ff 10 00 00 1c 00 00 00 fd 00 3a 3f 1c
53 0e 00 0a 20 20 20 20 20 20 00 00 00 fc 00 31
39 4c 53 34 52 0a 20 20 20 20 20 20 00 00 00 fc
00 0a 20 20 20 20 20 20 20 20 20 20 20 20 00 e0

----------------

Block 0, Base EDID:
  EDID Structure Version & Revision: 1.3
  Vendor & Product Identification:
    Manufacturer: GSM
    Model: 19277
    Serial Number: ...
    Made in: week 2 of 2008
  Basic Display Parameters & Features:
    Analog display
    Signal Level Standard: 0.700 : 0.300 : 1.000 V p-p
    Blank level equals black level
    Sync: Separate
    Maximum image size: 41 cm x 26 cm
    Gamma: 2.20
    RGB color display
    First detailed timing is the preferred timing
  Color Characteristics:
    Red  : 0.6425, 0.3251
    Green: 0.2949, 0.6162
    Blue : 0.1425, 0.0810
    White: 0.3095, 0.3300
  Established Timings I & II:
    DMT 0x04:   640x480    59.940476 Hz   4:3     31.469 kHz     25.175000 MHz
    DMT 0x09:   800x600    60.316541 Hz   4:3     37.879 kHz     40.000000 MHz
    DMT 0x10:  1024x768    60.003840 Hz   4:3     48.363 kHz     65.000000 MHz
  Standard Timings:
    DMT 0x23:  1280x1024   60.019740 Hz   5:4     63.981 kHz    108.000000 MHz
  Detailed Timing Descriptors:
    DTD 1:  1440x900    59.887445 Hz  16:10    55.935 kHz    106.500000 MHz (408 mm x 255 mm)
                 Hfront   80 Hsync 152 Hback  232 Hpol N
                 Vfront    3 Vsync   6 Vback   25 Vpol P
    Display Range Limits:
      Monitor ranges (GTF): 58-63 Hz V, 28-83 kHz H, max dotclock 140 MHz
    Display Product Name: '19LS4R'
    Display Product Name: ''
Checksum: 0xe0

----------------

Block 1, Unknown EDID Extension Block 0x00:
  00 ff ff ff ff ff ff 00 1e 6d 4d 4b 03 05 00 00 '.........mMK....'
  02 12 01 03 08 29 1a 78 0a 9b b6 a4 53 4b 9d 24 '.....).x....SK.$'
  14 4f 54 21 08 00 81 80 01 01 01 01 01 01 01 01 '.OT!............'
  01 01 01 01 01 01 9a 29 a0 d0 51 84 22 30 50 98 '.......)..Q."0P.'
  36 00 98 ff 10 00 00 1c 00 00 00 fd 00 3a 3f 1c '6............:?.'
  53 0e 00 0a 20 20 20 20 20 20 00 00 00 fc 00 31 'S...      .....1'
  39 4c 53 34 52 0a 20 20 20 20 20 20 00 00 00 fc '9LS4R.      ....'
  00 0a 20 20 20 20 20 20 20 20 20 20 20 20 00 e0 '..            ..'
Checksum: 0xe0

----------------

Failures:

Block 0, Base EDID:
  Display Product Name: Empty string.
Block 1, Base EDID:
  Unknown Extension Block.
EDID:
  Base EDID: EDID specified 0 extension block(s), but found 1 extension block(s).

EDID conformity: FAIL
