
EDID (hex):
00ffffffffffff004c2d250833363133
0d180103803420782a73a1a4544d9926
0f50542308008100814081809500a940
b30001010101283c80a070b023403020
360006442100001a000000fd00383c1e
5111000a202020202020000000fc0053
4d533234413835300a202020000000ff
00484c4e463330303134300a20200083

Extracted contents:
header:          00 ff ff ff ff ff ff 00
serial number:   4c 2d 25 08 33 36 31 33 0d 18
version:         01 03
basic params:    80 34 20 78 2a
chroma info:     73 a1 a4 54 4d 99 26 0f 50 54
established:     23 08 00
standard:        81 00 81 40 81 80 95 00 a9 40 b3 00 01 01 01 01
descriptor 1:    28 3c 80 a0 70 b0 23 40 30 20 36 00 06 44 21 00 00 1a
descriptor 2:    00 00 00 fd 00 38 3c 1e 51 11 00 0a 20 20 20 20 20 20
descriptor 3:    00 00 00 fc 00 53 4d 53 32 34 41 38 35 30 0a 20 20 20
descriptor 4:    00 00 00 ff 00 48 4c 4e 46 33 30 30 31 34 30 0a 20 20
extensions:      00
checksum:        83

EDID version: 1.3
Manufacturer: SAM Model 825 Serial Number --
Made in week 13 of 2014
Digital display
Maximum image size: 52 cm x 32 cm
Gamma: 2.20
DPMS levels: Off
RGB color display
First detailed timing is preferred timing
Display x,y Chromaticity:
  Red:   0.6416, 0.3310
  Green: 0.3007, 0.6005
  Blue:  0.1503, 0.0605
  White: 0.3125, 0.3291
Established timings supported:
  640x480@60Hz 4:3 HorFreq: 31469 Hz Clock: 25.175 MHz
  800x600@56Hz 4:3 HorFreq: 35200 Hz Clock: 36.000 MHz
  800x600@60Hz 4:3 HorFreq: 37900 Hz Clock: 40.000 MHz
  1024x768@60Hz 4:3 HorFreq: 48400 Hz Clock: 65.000 MHz
Standard timings supported:
  1280x800@60Hz 16:10
  1280x960@60Hz 4:3 HorFreq: 60000 Hz Clock: 108.000 MHz
  1280x1024@60Hz 5:4 HorFreq: 64000 Hz Clock: 108.000 MHz
  1440x900@60Hz 16:10 HorFreq: 55500 Hz Clock: 88.750 MHz
  1600x1200@60Hz 4:3 HorFreq: 75000 Hz Clock: 162.000 MHz
  1680x1050@60Hz 16:10 HorFreq: 64700 Hz Clock: 119.000 MHz
Detailed mode: Clock 154.000 MHz, 518 mm x 324 mm
               1920 1968 2000 2080 hborder 0
               1200 1203 1209 1235 vborder 0
               +hsync -vsync 
               VertFreq: 59 Hz, HorFreq: 74038 Hz
Monitor ranges (GTF): 56-60Hz V, 30-81kHz H, max dotclock 170MHz
Monitor name: SMS24A850
Serial number: --
Checksum: 0x83 (valid)
