
EDID (hex):
00ffffffffffff004ca3303100000000
0014010380160d780aa0558d515a962a
1c505400000001010101010101010101
0101010101012c150040415846201888
3600df7d000000190000000f00000000
00000000002387026400000000fe0053
414d53554e470a2020202020000000fe
003130314e5430362d3230320a200089

Extracted contents:
header:          00 ff ff ff ff ff ff 00
serial number:   4c a3 30 31 00 00 00 00 00 14
version:         01 03
basic params:    80 16 0d 78 0a
chroma info:     a0 55 8d 51 5a 96 2a 1c 50 54
established:     00 00 00
standard:        01 01 01 01 01 01 01 01 01 01 01 01 01 01 01 01
descriptor 1:    2c 15 00 40 41 58 46 20 18 88 36 00 df 7d 00 00 00 19
descriptor 2:    00 00 00 0f 00 00 00 00 00 00 00 00 00 23 87 02 64 00
descriptor 3:    00 00 00 fe 00 53 41 4d 53 55 4e 47 0a 20 20 20 20 20
descriptor 4:    00 00 00 fe 00 31 30 31 4e 54 30 36 2d 32 30 32 0a 20
extensions:      00
checksum:        89

EDID version: 1.3
Manufacturer: SEC Model 3130 Serial Number --
Made in year 2010
Digital display
Maximum image size: 22 cm x 13 cm
Gamma: 2.20
RGB color display
First detailed timing is preferred timing
Display x,y Chromaticity:
  Red:   0.5527, 0.3183
  Green: 0.3515, 0.5859
  Blue:  0.1650, 0.1103
  White: 0.3134, 0.3291
Established timings supported:
Standard timings supported:
Detailed mode: Clock 54.200 MHz, 223 mm x 125 mm
               1024 1048 1184 1344 hborder 0
                600  603  609  670 vborder 0
               -hsync -vsync 
               VertFreq: 60 Hz, HorFreq: 40327 Hz
Manufacturer-specified data, tag 15
ASCII string: SAMSUNG
ASCII string: 101NT06-202
Checksum: 0x89 (valid)
EDID block does NOT conform to EDID 1.3!
	Missing name descriptor
	Missing monitor ranges
