
EDID (hex):
00ffffffffffff00410c0800602e0200
180c01036c241ba7e87a689f56479926
12484cadef80d140c14fa94f81998180
615945593159a659403062b0324040c0
1300630911000018000000ff0020425a
20203134323934340a20000000fc0050
48494c495053203130395034000000fd
0032a01e6f1a000a202020202020007f

Extracted contents:
header:          00 ff ff ff ff ff ff 00
serial number:   41 0c 08 00 60 2e 02 00 18 0c
version:         01 03
basic params:    6c 24 1b a7 e8
chroma info:     7a 68 9f 56 47 99 26 12 48 4c
established:     ad ef 80
standard:        d1 40 c1 4f a9 4f 81 99 81 80 61 59 45 59 31 59
descriptor 1:    a6 59 40 30 62 b0 32 40 40 c0 13 00 63 09 11 00 00 18
descriptor 2:    00 00 00 ff 00 20 42 5a 20 20 31 34 32 39 34 34 0a 20
descriptor 3:    00 00 00 fc 00 50 48 49 4c 49 50 53 20 31 30 39 50 34
descriptor 4:    00 00 00 fd 00 32 a0 1e 6f 1a 00 0a 20 20 20 20 20 20
extensions:      00
checksum:        7f

EDID version: 1.3
Manufacturer: PHL Model 8 Serial Number --
Analog display, Input voltage level: 0.7/0.7 V
Sync: Separate Composite 
Maximum image size: 36 cm x 27 cm
Gamma: 2.67
DPMS levels: Standby Suspend Off
RGB color display
Display x,y Chromaticity:
  Red:   0.6220, 0.3388
  Green: 0.2792, 0.5996
  Blue:  0.1494, 0.0722
  White: 0.2832, 0.2968
Established timings supported:
  720x400@70Hz 9:5 HorFreq: 31469 Hz Clock: 28.320 MHz
  640x480@60Hz 4:3 HorFreq: 31469 Hz Clock: 25.175 MHz
  640x480@72Hz 4:3 HorFreq: 37900 Hz Clock: 31.500 MHz
  640x480@75Hz 4:3 HorFreq: 37500 Hz Clock: 31.500 MHz
  800x600@60Hz 4:3 HorFreq: 37900 Hz Clock: 40.000 MHz
  800x600@72Hz 4:3 HorFreq: 48100 Hz Clock: 50.000 MHz
  800x600@75Hz 4:3 HorFreq: 46900 Hz Clock: 49.500 MHz
  832x624@75Hz 4:3 HorFreq: 49726 Hz Clock: 57.284 MHz
  1024x768@60Hz 4:3 HorFreq: 48400 Hz Clock: 65.000 MHz
  1024x768@70Hz 4:3 HorFreq: 56500 Hz Clock: 75.000 MHz
  1024x768@75Hz 4:3 HorFreq: 60000 Hz Clock: 78.750 MHz
  1280x1024@75Hz 5:4 HorFreq: 80000 Hz Clock: 135.000 MHz
  1152x870@75Hz 192:145 HorFreq: 67500 Hz Clock: 108.000 MHz
Standard timings supported:
  1920x1440@60Hz 4:3 HorFreq: 90000 Hz Clock: 234.000 MHz
  1792x1344@75Hz 4:3 HorFreq: 106300 Hz Clock: 261.000 MHz
  1600x1200@75Hz 4:3 HorFreq: 93800 Hz Clock: 202.500 MHz
  1280x1024@85Hz 5:4 HorFreq: 91100 Hz Clock: 157.500 MHz
  1280x1024@60Hz 5:4 HorFreq: 64000 Hz Clock: 108.000 MHz
  1024x768@85Hz 4:3 HorFreq: 68700 Hz Clock: 94.500 MHz
  800x600@85Hz 4:3 HorFreq: 53700 Hz Clock: 56.250 MHz
  640x480@85Hz 4:3 HorFreq: 43300 Hz Clock: 36.000 MHz
Detailed mode: Clock 229.500 MHz, 355 mm x 265 mm
               1600 1664 1856 2160 hborder 0
               1200 1201 1204 1250 vborder 0
               -hsync -vsync 
               VertFreq: 85 Hz, HorFreq: 106250 Hz
Serial number:  --  142944
Monitor ranges (GTF): 50-160Hz V, 30-111kHz H, max dotclock 260MHz
Checksum: 0x7f (valid)
EDID block does NOT conform to EDID 1.3!
	Name descriptor not terminated with a newline
	Missing preferred timing
One or more of the timings is out of range of the Monitor Ranges:
  Vertical Freq: 60 - 85 Hz
  Horizontal Freq: 31469 - 106300 Hz
  Maximum Clock: 261.000 MHz
EDID block does not conform at all!
	Bad year of manufacture
