
EDID (hex):
00ffffffffffff0010ac674157394241
1e1c0103803c2278ea0415a9544da626
095054a54b00714f8180a940d1c00101
010101010101565e00a0a0a029503020
350055502100001a000000ff00314b44
54344e320a2020202020000000fc0044
454c4c205332373139444d0a000000fd
002f4b1e8c3c000a20202020202001f9

Extracted contents:
header:          00 ff ff ff ff ff ff 00
serial number:   10 ac 67 41 57 39 42 41 1e 1c
version:         01 03
basic params:    80 3c 22 78 ea
chroma info:     04 15 a9 54 4d a6 26 09 50 54
established:     a5 4b 00
standard:        71 4f 81 80 a9 40 d1 c0 01 01 01 01 01 01 01 01
descriptor 1:    56 5e 00 a0 a0 a0 29 50 30 20 35 00 55 50 21 00 00 1a
descriptor 2:    00 00 00 ff 00 31 4b 44 54 34 4e 32 0a 20 20 20 20 20
descriptor 3:    00 00 00 fc 00 44 45 4c 4c 20 53 32 37 31 39 44 4d 0a
descriptor 4:    00 00 00 fd 00 2f 4b 1e 8c 3c 00 0a 20 20 20 20 20 20
extensions:      01
checksum:        f9

EDID version: 1.3
Manufacturer: DEL Model 4167 Serial Number --
Made in week 30 of 2018
Digital display
Maximum image size: 60 cm x 34 cm
Gamma: 2.20
DPMS levels: Standby Suspend Off
RGB color display
First detailed timing is preferred timing
Display x,y Chromaticity:
  Red:   0.6601, 0.3281
  Green: 0.3017, 0.6484
  Blue:  0.1484, 0.0361
  White: 0.3134, 0.3291
Established timings supported:
  720x400@70Hz 9:5 HorFreq: 31469 Hz Clock: 28.320 MHz
  640x480@60Hz 4:3 HorFreq: 31469 Hz Clock: 25.175 MHz
  640x480@75Hz 4:3 HorFreq: 37500 Hz Clock: 31.500 MHz
  800x600@60Hz 4:3 HorFreq: 37900 Hz Clock: 40.000 MHz
  800x600@75Hz 4:3 HorFreq: 46900 Hz Clock: 49.500 MHz
  1024x768@60Hz 4:3 HorFreq: 48400 Hz Clock: 65.000 MHz
  1024x768@75Hz 4:3 HorFreq: 60000 Hz Clock: 78.750 MHz
  1280x1024@75Hz 5:4 HorFreq: 80000 Hz Clock: 135.000 MHz
Standard timings supported:
  1152x864@75Hz 4:3 HorFreq: 67500 Hz Clock: 108.000 MHz
  1280x1024@60Hz 5:4 HorFreq: 64000 Hz Clock: 108.000 MHz
  1600x1200@60Hz 4:3 HorFreq: 75000 Hz Clock: 162.000 MHz
  1920x1080@60Hz 16:9
Detailed mode: Clock 241.500 MHz, 597 mm x 336 mm
               2560 2608 2640 2720 hborder 0
               1440 1443 1448 1481 vborder 0
               +hsync -vsync 
               VertFreq: 59 Hz, HorFreq: 88786 Hz
Serial number: --
Monitor name: DELL S2719DM
Monitor ranges (GTF): 47-75Hz V, 30-140kHz H, max dotclock 600MHz
Has 1 extension blocks
Checksum: 0xf9 (valid)


