edid-decode (hex):

00 ff ff ff ff ff ff 00 06 af ec 42 00 00 00 00
31 17 01 04 90 22 13 78 02 bb f5 94 55 54 90 27
23 50 54 00 00 00 01 01 01 01 01 01 01 01 01 01
01 01 01 01 01 01 28 1e 56 d2 50 00 30 30 08 0a
31 00 58 c1 10 00 00 18 1b 14 56 d2 50 00 30 30
08 0a 31 00 58 c1 10 00 00 18 00 00 00 fe 00 41
55 4f 0a 20 20 20 20 20 20 20 20 20 00 00 00 fe
00 42 31 35 36 58 54 4e 30 34 2e 32 20 0a 00 1e

----------------

Block 0, Base EDID:
  EDID Structure Version & Revision: 1.4
  Vendor & Product Identification:
    Manufacturer: AUO
    Model: 17132
    Made in: week 49 of 2013
  Basic Display Parameters & Features:
    Digital display
    Bits per primary color channel: 6
    Digital interface is not defined
    Maximum image size: 34 cm x 19 cm
    Gamma: 2.20
    Supported color formats: RGB 4:4:4
    First detailed timing includes the native pixel format and preferred refresh rate
  Color Characteristics:
    Red  : 0.5800, 0.3349
    Green: 0.3300, 0.5654
    Blue : 0.1552, 0.1396
    White: 0.3134, 0.3291
  Established Timings I & II: none
  Standard Timings: none
  Detailed Timing Descriptors:
    DTD 1:  1366x768    60.030 Hz 683:384  48.985 kHz  77.200 MHz (344 mm x 193 mm)
                 Hfront    8 Hsync  10 Hback 192 Hpol N
                 Vfront    3 Vsync   1 Vback  44 Vpol N
    DTD 2:  1366x768    40.023 Hz 683:384  32.659 kHz  51.470 MHz (344 mm x 193 mm)
                 Hfront    8 Hsync  10 Hback 192 Hpol N
                 Vfront    3 Vsync   1 Vback  44 Vpol N
    Alphanumeric Data String: 'AUO'
    Alphanumeric Data String: 'B156XTN04.2 '
Checksum: 0x1e

----------------

Failures:

Block 0, Base EDID:
  Alphanumeric Data String: One or more trailing spaces.
  Missing Display Product Name.

EDID conformity: FAIL
