edid-decode (hex):

00 ff ff ff ff ff ff 00 4d 10 bd 13 00 00 00 00
0a 11 01 03 80 21 15 78 0a bb 50 97 54 50 8e 26
22 50 54 00 00 00 01 01 01 01 01 01 01 01 01 01
01 01 01 01 01 01 2f 3f 80 08 71 b0 23 40 64 20
26 00 4b cf 10 00 00 19 00 00 00 0f 00 00 00 00
00 00 00 00 00 28 92 02 50 01 00 00 00 fe 00 43
44 35 31 35 01 9a 4d 31 4c 57 32 41 00 00 00 fe
00 20 30 38 40 60 88 b0 ff 02 01 0a 20 20 00 36

----------------

Block 0, Base EDID:
  EDID Structure Version & Revision: 1.3
  Vendor & Product Identification:
    Manufacturer: SHP
    Model: 5053
    Made in: week 10 of 2007
  Basic Display Parameters & Features:
    Digital display
    Maximum image size: 33 cm x 21 cm
    Gamma: 2.20
    RGB color display
    First detailed timing is the preferred timing
  Color Characteristics:
    Red  : 0.5917, 0.3310
    Green: 0.3144, 0.5576
    Blue : 0.1494, 0.1337
    White: 0.3125, 0.3281
  Established Timings I & II: none
  Standard Timings: none
  Detailed Timing Descriptors:
    DTD 1:  1920x1200   59.969 Hz   8:5    74.061 kHz 161.750 MHz (331 mm x 207 mm)
                 Hfront  100 Hsync  32 Hback 132 Hpol N
                 Vfront    2 Vsync   6 Vback  27 Vpol N
    Manufacturer-Specified Display Descriptor (0x0f): 00 0f 00 00 00 00 00 00 00 00 00 28 92 02 50 01 '...........(..P.'
    Alphanumeric Data String: 'CD515'
    Alphanumeric Data String: ' 08@`'
Checksum: 0x36

----------------

Failures:

Block 0, Base EDID:
  Alphanumeric Data String: Non-printable character.
  Alphanumeric Data String: Non-printable character.
  Missing Display Product Name.
  Missing Display Range Limits Descriptor.

EDID conformity: FAIL
