
EDID (hex):
00ffffffffffff0022f0223001010101
3216010380261e782efd25a2584f9f26
0d5054a1081081800101010101010101
010101010101302a009851002a403070
1300782d1100001e000000fd00324c18
5311000a202020202020000000fc0048
50204c4131393536780a2020000000ff
00334351323530324d47470a202000be

Extracted contents:
header:          00 ff ff ff ff ff ff 00
serial number:   22 f0 22 30 01 01 01 01 32 16
version:         01 03
basic params:    80 26 1e 78 2e
chroma info:     fd 25 a2 58 4f 9f 26 0d 50 54
established:     a1 08 10
standard:        81 80 01 01 01 01 01 01 01 01 01 01 01 01 01 01
descriptor 1:    30 2a 00 98 51 00 2a 40 30 70 13 00 78 2d 11 00 00 1e
descriptor 2:    00 00 00 fd 00 32 4c 18 53 11 00 0a 20 20 20 20 20 20
descriptor 3:    00 00 00 fc 00 48 50 20 4c 41 31 39 35 36 78 0a 20 20
descriptor 4:    00 00 00 ff 00 33 43 51 32 35 30 32 4d 47 47 0a 20 20
extensions:      00
checksum:        be

EDID version: 1.3
Manufacturer: HWP Model 3022 Serial Number --
Made in week 50 of 2012
Digital display
Maximum image size: 38 cm x 30 cm
Gamma: 2.20
DPMS levels: Off
RGB color display
Default (sRGB) color space is primary color space
First detailed timing is preferred timing
Display x,y Chromaticity:
  Red:   0.6357, 0.3466
  Green: 0.3115, 0.6220
  Blue:  0.1484, 0.0527
  White: 0.3134, 0.3291
Established timings supported:
  720x400@70Hz 9:5 HorFreq: 31469 Hz Clock: 28.320 MHz
  640x480@60Hz 4:3 HorFreq: 31469 Hz Clock: 25.175 MHz
  800x600@60Hz 4:3 HorFreq: 37900 Hz Clock: 40.000 MHz
  1024x768@60Hz 4:3 HorFreq: 48400 Hz Clock: 65.000 MHz
Standard timings supported:
  1280x1024@60Hz 5:4 HorFreq: 64000 Hz Clock: 108.000 MHz
Detailed mode: Clock 108.000 MHz, 376 mm x 301 mm
               1280 1328 1440 1688 hborder 0
               1024 1025 1028 1066 vborder 0
               +hsync +vsync 
               VertFreq: 60 Hz, HorFreq: 63981 Hz
Monitor ranges (GTF): 50-76Hz V, 24-83kHz H, max dotclock 170MHz
Monitor name: HP LA1956x
Serial number: --
Checksum: 0xbe (valid)
EDID block does NOT conform to EDID 1.3!
	sRGB is signaled, but the chromaticities do not match


