edid-decode (hex):

00 ff ff ff ff ff ff 00 39 f6 05 04 13 04 11 00
10 17 01 03 81 1e 17 b4 ea c1 e5 a3 57 4e 9c 23
1d 50 54 21 08 00 01 01 01 01 01 01 01 01 01 01
01 01 01 01 01 01 5b 36 80 a0 70 38 23 40 30 20
36 00 cb 28 11 00 00 1e 00 00 00 ff 00 4e 4f 56
41 53 54 41 52 4d 33 00 00 00 00 00 00 fc 00 4e
4f 56 41 20 48 44 20 43 41 52 44 00 00 00 00 fd
00 30 7b 1c c8 11 00 0a 20 20 20 20 20 20 01 b1

02 03 3d 41 4d 82 05 04 04 10 11 14 13 1f 06 15
03 12 3e 0f 7f 01 17 1f 38 1f 07 00 00 00 10 00
00 00 00 00 00 00 00 00 00 00 00 00 00 00 00 00
00 83 4f 00 00 67 03 0c 00 10 00 b8 2d 01 1d 00
72 00 d0 1e 00 6e 28 00 00 81 49 00 00 00 1e d6
09 80 a0 00 e0 2d 00 10 60 00 00 81 60 00 08 08
18 8c 0a d0 90 00 40 31 00 0c 40 00 00 81 60 00
00 00 18 00 00 00 00 00 00 00 00 00 00 00 00 2f

----------------

Block 0, Base EDID:
  EDID Structure Version & Revision: 1.3
  Vendor & Product Identification:
    Manufacturer: NOV
    Model: 1029
    Serial Number: ...
    Made in: week 16 of 2013
  Basic Display Parameters & Features:
    Digital display
    DFP 1.x compatible TMDS
    Maximum image size: 30 cm x 23 cm
    Gamma: 2.80
    DPMS levels: Standby Suspend Off
    RGB color display
    First detailed timing is preferred timing
  Color Characteristics:
    Red  : 0.6396, 0.3398
    Green: 0.3046, 0.6103
    Blue : 0.1396, 0.1152
    White: 0.3134, 0.3291
  Established Timings I & II:
    DMT 0x04:   640x480    59.940 Hz   4:3    31.469 kHz  25.175 MHz
    DMT 0x09:   800x600    60.317 Hz   4:3    37.879 kHz  40.000 MHz
    DMT 0x10:  1024x768    60.004 Hz   4:3    48.363 kHz  65.000 MHz
  Standard Timings: none
  Detailed Timing Descriptors:
    DTD 1:  1920x1080   59.999 Hz  16:9    66.899 kHz 139.150 MHz (459 mm x 296 mm)
                 Hfront   48 Hsync  32 Hback  80 Hpol P
                 Vfront    3 Vsync   6 Vback  26 Vpol P
    Display Product Serial Number: ...
    Display Product Name: 'NOVA HD CARD'
  Display Range Limits:
    Monitor ranges (GTF): 48-123 Hz V, 28-200 kHz H, max dotclock 170 MHz
  Extension blocks: 1
Checksum: 0xb1

----------------

Block 1, CTA-861 Extension Block:
  Revision: 3
  Basic audio support
  Native detailed modes: 1
  Video Data Block:
    VIC   2:   720x480    59.940 Hz   4:3    31.469 kHz  27.000 MHz (native)
    VIC   5:  1920x1080i  60.000 Hz  16:9    33.750 kHz  74.250 MHz
    VIC   4:  1280x720    60.000 Hz  16:9    45.000 kHz  74.250 MHz
    VIC   4:  1280x720    60.000 Hz  16:9    45.000 kHz  74.250 MHz
    VIC  16:  1920x1080   60.000 Hz  16:9    67.500 kHz 148.500 MHz
    VIC  17:   720x576    50.000 Hz   4:3    31.250 kHz  27.000 MHz
    VIC  20:  1920x1080i  50.000 Hz  16:9    28.125 kHz  74.250 MHz
    VIC  19:  1280x720    50.000 Hz  16:9    37.500 kHz  74.250 MHz
    VIC  31:  1920x1080   50.000 Hz  16:9    56.250 kHz 148.500 MHz
    VIC   6:  1440x480i   59.940 Hz   4:3    15.734 kHz  27.000 MHz
    VIC  21:  1440x576i   50.000 Hz   4:3    15.625 kHz  27.000 MHz
    VIC   3:   720x480    59.940 Hz  16:9    31.469 kHz  27.000 MHz
    VIC  18:   720x576    50.000 Hz  16:9    31.250 kHz  27.000 MHz
  Audio Data Block:
    Linear PCM:
      Max channels: 8
      Supported sample rates (kHz): 192 176.4 96 88.2 48 44.1 32
      Supported sample sizes (bits): 16
    AC-3:
      Max channels: 8
      Supported sample rates (kHz): 96 88.2 48 44.1 32
      Maximum bit rate: 448 kb/s
    MPEG 1 (Layers 1 & 2):
      Max channels: 8
      Supported sample rates (kHz): 48 44.1 32
      Maximum bit rate: 0 kb/s
    Reserved (0x00)
    Reserved (0x00)
    Reserved (0x00)
    Reserved (0x00)
    Reserved (0x00)
    Reserved (0x00)
    Reserved (0x00)
  Speaker Allocation Data Block:
    FL/FR - Front Left/Right
    LFE1 - Low Frequency Effects 1
    FC - Front Center
    BL/BR - Back Left/Right
    RLC/RRC - Rear Left/Right of Center (Deprecated)
  Vendor-Specific Data Block (HDMI), OUI 00-0C-03:
    Source physical address: 1.0.0.0
    Supports_AI
    DC_36bit
    DC_30bit
    DC_Y444
    Maximum TMDS clock: 225 MHz
  Detailed Timing Descriptors:
    DTD 2:     0x208   2736.621 Hz   0:1   651.316 kHz  74.250 MHz (129 mm x 73 mm)
                 Hfront  110 Hsync  40 Hback -36 Hpol P
                 Vfront    0 Vsync   0 Vback  30 Vpol P
                   01 1d 00 72 00 d0 1e 00 6e 28 00 00 81 49 00 00 00 1e '...r....n(...I....'
    DTD 3:   128x224   325.021 Hz   4:7    87.431 kHz  25.180 MHz (129 mm x 96 mm)
                 Hfront   16 Hsync  96 Hback  48 Hpol N Hborder 8
                 Vfront    0 Vsync   0 Vback  45 Vpol N Vborder 8
                   d6 09 80 a0 00 e0 2d 00 10 60 00 00 81 60 00 08 08 18 '......-..`...`....'
    DTD 4:   208x64    678.801 Hz  13:4    76.705 kHz  27.000 MHz (129 mm x 96 mm)
                 Hfront   12 Hsync  64 Hback  68 Hpol N
                 Vfront    0 Vsync   0 Vback  49 Vpol N
                   8c 0a d0 90 00 40 31 00 0c 40 00 00 81 60 00 00 00 18 '.....@1..@...`....'
Checksum: 0x2f

----------------

Warnings:

Block 1, CTA-861 Extension Block:
  Display Product Serial Number is set, so the Serial Number in the Base EDID should be 0.

Failures:

Block 0, Base EDID:
  Detailed Timing Descriptor #1: Mismatch of image size 459x296 mm vs display size 300x230 mm.
  Display Product Serial Number: Non-printable character.
  Display Product Name: Non-printable character.
Block 1, CTA-861 Extension Block:
  Video Data Block: Duplicate VIC 4.
  Audio Data Block: Audio Format Code 0x00 is reserved
  Audio Data Block: Audio Format Code 0x00 is reserved
  Audio Data Block: Audio Format Code 0x00 is reserved
  Audio Data Block: Audio Format Code 0x00 is reserved
  Audio Data Block: Audio Format Code 0x00 is reserved
  Audio Data Block: Audio Format Code 0x00 is reserved
  Audio Data Block: Audio Format Code 0x00 is reserved
  Detailed Timing Descriptor #2: 0 values in the video timing:
    Horizontal Active/Blanking 0/114
    Horizontal Frontporch/Sync Width 110/40
    Vertical Active/Blanking 208/30
    Vertical Frontporch/Sync Width 0/0
  Detailed Timing Descriptor #2: 0 or negative horizontal back porch.
  Detailed Timing Descriptor #2: Mismatch of image size 129x73 mm vs display size 300x230 mm.
  Detailed Timing Descriptor #3: 0 values in the video timing:
    Horizontal Active/Blanking 128/160
    Horizontal Frontporch/Sync Width 16/96
    Vertical Active/Blanking 224/45
    Vertical Frontporch/Sync Width 0/0
  Detailed Timing Descriptor #3: Mismatch of image size 129x96 mm vs display size 300x230 mm.
  Detailed Timing Descriptor #4: 0 values in the video timing:
    Horizontal Active/Blanking 208/144
    Horizontal Frontporch/Sync Width 12/64
    Vertical Active/Blanking 64/49
    Vertical Frontporch/Sync Width 0/0
  Detailed Timing Descriptor #4: Mismatch of image size 129x96 mm vs display size 300x230 mm.
All Blocks:
  Some timings are out of range of the Monitor Ranges:
    Vertical Freq: 50.000 - 2736.621 Hz (Monitor: 48.000 - 123.000 Hz)
    Horizontal Freq: 15.625 - 651.315 kHz (Monitor: 28.000 - 200.000 kHz)

EDID conformity: FAIL
