
EDID (hex):
00ffffffffffff0006af5d3300000000
01180104a51a0e7802d1159e59539b27
1e505400000001010101010101010101
010101010101f435808470382a403032
42000090100000180000000000000000
00000000000000000000000000fe0041
554f0a202020202020202020000000fe
004231313648414e30332e33200a0053

Extracted contents:
header:          00 ff ff ff ff ff ff 00
serial number:   06 af 5d 33 00 00 00 00 01 18
version:         01 04
basic params:    a5 1a 0e 78 02
chroma info:     d1 15 9e 59 53 9b 27 1e 50 54
established:     00 00 00
standard:        01 01 01 01 01 01 01 01 01 01 01 01 01 01 01 01
descriptor 1:    f4 35 80 84 70 38 2a 40 30 32 42 00 00 90 10 00 00 18
descriptor 2:    00 00 00 00 00 00 00 00 00 00 00 00 00 00 00 00 00 00
descriptor 3:    00 00 00 fe 00 41 55 4f 0a 20 20 20 20 20 20 20 20 20
descriptor 4:    00 00 00 fe 00 42 31 31 36 48 41 4e 30 33 2e 33 20 0a
extensions:      00
checksum:        53

EDID version: 1.4
Manufacturer: AUO Model 335d Serial Number --
Made in week 1 of 2014
Digital display
8 bits per primary color channel
DisplayPort interface
Maximum image size: 26 cm x 14 cm
Gamma: 2.20
Supported color formats: RGB 4:4:4
First detailed timing includes the native pixel format and preferred refresh rate
Display x,y Chromaticity:
  Red:   0.6201, 0.3486
  Green: 0.3242, 0.6064
  Blue:  0.1523, 0.1181
  White: 0.3134, 0.3291
Established timings supported:
Standard timings supported:
Detailed mode: Clock 138.120 MHz, 256 mm x 144 mm
               1920 1968 2018 2052 hborder 0
               1080 1084 1086 1122 vborder 0
               -hsync -vsync 
               VertFreq: 59 Hz, HorFreq: 67309 Hz
Manufacturer-specified data, tag 0
ASCII string: AUO
ASCII string: B116HAN03.3 
Checksum: 0x53 (valid)
EDID block does NOT conform to EDID 1.4!
	Missing name descriptor
	Missing monitor ranges
