
EDID (hex):
00ffffffffffff0030e4a30300000000
00160103801c1078ea10a59658578f28
20505400000001010101010101010101
0101010101013a1b5668500016303020
2500159c1000001b0000000000000000
00000000000000000000000000fe004c
4720446973706c61790a2020000000fe
004c503132355748322d544c42320090

Extracted contents:
header:          00 ff ff ff ff ff ff 00
serial number:   30 e4 a3 03 00 00 00 00 00 16
version:         01 03
basic params:    80 1c 10 78 ea
chroma info:     10 a5 96 58 57 8f 28 20 50 54
established:     00 00 00
standard:        01 01 01 01 01 01 01 01 01 01 01 01 01 01 01 01
descriptor 1:    3a 1b 56 68 50 00 16 30 30 20 25 00 15 9c 10 00 00 1b
descriptor 2:    00 00 00 00 00 00 00 00 00 00 00 00 00 00 00 00 00 00
descriptor 3:    00 00 00 fe 00 4c 47 20 44 69 73 70 6c 61 79 0a 20 20
descriptor 4:    00 00 00 fe 00 4c 50 31 32 35 57 48 32 2d 54 4c 42 32
extensions:      00
checksum:        90

EDID version: 1.3
Manufacturer: LGD Model 3a3 Serial Number --
Made in year 2012
Digital display
Maximum image size: 28 cm x 16 cm
Gamma: 2.20
DPMS levels: Standby Suspend Off
RGB color display
First detailed timing is preferred timing
Display x,y Chromaticity:
  Red:   0.5859, 0.3447
  Green: 0.3398, 0.5585
  Blue:  0.1582, 0.1269
  White: 0.3134, 0.3291
Established timings supported:
Standard timings supported:
Detailed mode: Clock 69.700 MHz, 277 mm x 156 mm
               1366 1414 1446 1470 hborder 0
                768  770  775  790 vborder 0
               +hsync -vsync 
               VertFreq: 60 Hz, HorFreq: 47414 Hz
Manufacturer-specified data, tag 0
ASCII string: LG Display
ASCII string: LP125WH2-TLB2
Checksum: 0x90 (valid)
EDID block does NOT conform to EDID 1.3!
	Missing name descriptor
	Missing monitor ranges


