
EDID (hex):
00ffffffffffff000e6f0d1600000000
001f0104a52216780321c5a6544c9d24
0e505400000001010101010101010101
010101010101353c80a070b023403020
360058d710000018000000fd00303c4a
4a0f010a202020202020000000fe0043
534f542054330a2020202020000000fe
004d4e473030374a41312d330a20002e

Extracted contents:
header:          00 ff ff ff ff ff ff 00
serial number:   0e 6f 0d 16 00 00 00 00 00 1f
version:         01 04
basic params:    a5 22 16 78 03
chroma info:     21 c5 a6 54 4c 9d 24 0e 50 54
established:     00 00 00
standard:        01 01 01 01 01 01 01 01 01 01 01 01 01 01 01 01
descriptor 1:    35 3c 80 a0 70 b0 23 40 30 20 36 00 58 d7 10 00 00 18
descriptor 2:    00 00 00 fd 00 30 3c 4a 4a 0f 01 0a 20 20 20 20 20 20
descriptor 3:    00 00 00 fe 00 43 53 4f 54 20 54 33 0a 20 20 20 20 20
descriptor 4:    00 00 00 fe 00 4d 4e 47 30 30 37 4a 41 31 2d 33 0a 20
extensions:      00
checksum:        2e

EDID version: 1.4
Manufacturer: CSO Model 160d Serial Number --
Made in year 2021
Digital display
8 bits per primary color channel
DisplayPort interface
Maximum image size: 34 cm x 22 cm
Gamma: 2.20
Supported color formats: RGB 4:4:4
First detailed timing includes the native pixel format and preferred refresh rate
Display is continuous frequency
Display x,y Chromaticity:
  Red:   0.6484, 0.3300
  Green: 0.2968, 0.6142
  Blue:  0.1435, 0.0546
  White: 0.3134, 0.3291
Established timings supported:
Standard timings supported:
Detailed mode: Clock 154.130 MHz, 344 mm x 215 mm
               1920 1968 2000 2080 hborder 0
               1200 1203 1209 1235 vborder 0
               -hsync -vsync 
               VertFreq: 60 Hz, HorFreq: 74100 Hz
Monitor ranges (bare limits): 48-60Hz V, 74-74kHz H, max dotclock 150MHz
ASCII string: CSOT T3
ASCII string: MNG007JA1-3
Checksum: 0x2e (valid)
EDID block does NOT conform to EDID 1.4!
	Missing name descriptor
Warning: One or more of the timings is out of range of the Monitor Ranges:
  Vertical Freq: 60 - 60 Hz
  Horizontal Freq: 74100 - 74100 Hz
  Maximum Clock: 154.130 MHz
