
EDID (hex):
00ffffffffffff003669d23d01010101
04220104b5462778eb0ad5af4e3eb524
0e50543fcf003b8081809500b300d1c0
d1fc010101014dd000a0f0703e803020
3500bb8b2100001a000000fd0c30f0ff
ffea010a202020202020000000fc004d
50473332315558204f4c4544000000ff
000a20202020202020202020202002dc
02033661460312042f903f2309070783
010000e200ea741a0000030330f000a0
8c024f02f0000000000000e305e001e6
0605018c6602565e00a0a0a029503020
3500bb8b2100001a6fc200a0a0a05550
30203500bb8b2100001ae8ee80f87038
604030203500bb8b2100001a00000000
00000000000000000000000000000040
7012790300030150ceac0104ff0e9f00
2f801f006f087e0005000900cf7e0304
ff0eff005f801f006f08b20305000900
aa880304ff0eff005f801f006f08c300
05000900adf90104ff096f032f801f00
9f058000050009000000000000000000
00000000000000000000000000000000
0000000000000000000000000000da90

edid-decode (hex):

00 ff ff ff ff ff ff 00 36 69 d2 3d 01 01 01 01
04 22 01 04 b5 46 27 78 eb 0a d5 af 4e 3e b5 24
0e 50 54 3f cf 00 3b 80 81 80 95 00 b3 00 d1 c0
d1 fc 01 01 01 01 4d d0 00 a0 f0 70 3e 80 30 20
35 00 bb 8b 21 00 00 1a 00 00 00 fd 0c 30 f0 ff
ff ea 01 0a 20 20 20 20 20 20 00 00 00 fc 00 4d
50 47 33 32 31 55 58 20 4f 4c 45 44 00 00 00 ff
00 0a 20 20 20 20 20 20 20 20 20 20 20 20 02 dc

02 03 36 61 46 03 12 04 2f 90 3f 23 09 07 07 83
01 00 00 e2 00 ea 74 1a 00 00 03 03 30 f0 00 a0
8c 02 4f 02 f0 00 00 00 00 00 00 e3 05 e0 01 e6
06 05 01 8c 66 02 56 5e 00 a0 a0 a0 29 50 30 20
35 00 bb 8b 21 00 00 1a 6f c2 00 a0 a0 a0 55 50
30 20 35 00 bb 8b 21 00 00 1a e8 ee 80 f8 70 38
60 40 30 20 35 00 bb 8b 21 00 00 1a 00 00 00 00
00 00 00 00 00 00 00 00 00 00 00 00 00 00 00 40

70 12 79 03 00 03 01 50 ce ac 01 04 ff 0e 9f 00
2f 80 1f 00 6f 08 7e 00 05 00 09 00 cf 7e 03 04
ff 0e ff 00 5f 80 1f 00 6f 08 b2 03 05 00 09 00
aa 88 03 04 ff 0e ff 00 5f 80 1f 00 6f 08 c3 00
05 00 09 00 ad f9 01 04 ff 09 6f 03 2f 80 1f 00
9f 05 80 00 05 00 09 00 00 00 00 00 00 00 00 00
00 00 00 00 00 00 00 00 00 00 00 00 00 00 00 00
00 00 00 00 00 00 00 00 00 00 00 00 00 00 da 90

----------------

Block 0, Base EDID:
  EDID Structure Version & Revision: 1.4
  Vendor & Product Identification:
    Manufacturer: MSI
    Model: 15826
    Serial Number: 16843009
    Made in: week 4 of 2024
  Basic Display Parameters & Features:
    Digital display
    Bits per primary color channel: 10
    DisplayPort interface
    Maximum image size: 70 cm x 39 cm
    Gamma: 2.20
    DPMS levels: Standby Suspend Off
    Supported color formats: RGB 4:4:4, YCrCb 4:4:4
    First detailed timing includes the native pixel format and preferred refresh rate
    Display is continuous frequency
  Color Characteristics:
    Red  : 0.6835, 0.3046
    Green: 0.2441, 0.7089
    Blue : 0.1435, 0.0556
    White: 0.3134, 0.3291
  Established Timings I & II:
    DMT 0x04:   640x480    59.940476 Hz   4:3     31.469 kHz     25.175000 MHz
    Apple   :   640x480    66.666667 Hz   4:3     35.000 kHz     30.240000 MHz
    DMT 0x05:   640x480    72.808802 Hz   4:3     37.861 kHz     31.500000 MHz
    DMT 0x06:   640x480    75.000000 Hz   4:3     37.500 kHz     31.500000 MHz
    DMT 0x08:   800x600    56.250000 Hz   4:3     35.156 kHz     36.000000 MHz
    DMT 0x09:   800x600    60.316541 Hz   4:3     37.879 kHz     40.000000 MHz
    DMT 0x0a:   800x600    72.187572 Hz   4:3     48.077 kHz     50.000000 MHz
    DMT 0x0b:   800x600    75.000000 Hz   4:3     46.875 kHz     49.500000 MHz
    DMT 0x10:  1024x768    60.003840 Hz   4:3     48.363 kHz     65.000000 MHz
    DMT 0x11:  1024x768    70.069359 Hz   4:3     56.476 kHz     75.000000 MHz
    DMT 0x12:  1024x768    75.028582 Hz   4:3     60.023 kHz     78.750000 MHz
    DMT 0x24:  1280x1024   75.024675 Hz   5:4     79.976 kHz    135.000000 MHz
  Standard Timings:
    GTF     :   720x576    60.000294 Hz   5:4     35.820 kHz     32.668000 MHz
    DMT 0x23:  1280x1024   60.019740 Hz   5:4     63.981 kHz    108.000000 MHz
    DMT 0x2f:  1440x900    59.887445 Hz  16:10    55.935 kHz    106.500000 MHz
    DMT 0x3a:  1680x1050   59.954250 Hz  16:10    65.290 kHz    146.250000 MHz
    DMT 0x52:  1920x1080   60.000000 Hz  16:9     67.500 kHz    148.500000 MHz
    GTF     :  1920x1080  119.999987 Hz  16:9    138.840 kHz    368.759000 MHz
  Detailed Timing Descriptors:
    DTD 1:  3840x2160   59.996625 Hz  16:9    133.312 kHz    533.250000 MHz (699 mm x 395 mm)
                 Hfront   48 Hsync  32 Hback   80 Hpol P
                 Vfront    3 Vsync   5 Vback   54 Vpol N
    Display Range Limits:
      Monitor ranges (Bare Limits): 48-240 Hz V, 510-510 kHz H, max dotclock 2340 MHz
    Display Product Name: 'MPG321UX OLED'
    Display Product Serial Number: ''
  Extension blocks: 2
Checksum: 0xdc

----------------

Block 1, CTA-861 Extension Block:
  Revision: 3
  Basic audio support
  Supports YCbCr 4:4:4
  Native detailed modes: 1
  Video Data Block:
    VIC   3:   720x480    59.940060 Hz  16:9     31.469 kHz     27.000000 MHz
    VIC  18:   720x576    50.000000 Hz  16:9     31.250 kHz     27.000000 MHz
    VIC   4:  1280x720    60.000000 Hz  16:9     45.000 kHz     74.250000 MHz
    VIC  47:  1280x720   120.000000 Hz  16:9     90.000 kHz    148.500000 MHz
    VIC  16:  1920x1080   60.000000 Hz  16:9     67.500 kHz    148.500000 MHz (native)
    VIC  63:  1920x1080  120.000000 Hz  16:9    135.000 kHz    297.000000 MHz
  Audio Data Block:
    Linear PCM:
      Max channels: 2
      Supported sample rates (kHz): 48 44.1 32
      Supported sample sizes (bits): 24 20 16
  Speaker Allocation Data Block:
    FL/FR - Front Left/Right
  Video Capability Data Block:
    YCbCr quantization: Selectable (via AVI YQ)
    RGB quantization: Selectable (via AVI Q)
    PT scan behavior: Always Underscanned
    IT scan behavior: Always Underscanned
    CE scan behavior: Always Underscanned
  Vendor-Specific Data Block (AMD), OUI 00-00-1A:
    Version: 3.3
    Minimum Refresh Rate: 48 Hz
    Maximum Refresh Rate: 240 Hz
    Flags 1.x: 0x00
    Flags 2.x: 0xa0
    Maximum luminance: 140 (1037.472 cd/m^2)
    Minimum luminance: 2 (0.001 cd/m^2)
    Unknown: 0x4f 0x02
  Colorimetry Data Block:
    BT2020cYCC
    BT2020YCC
    BT2020RGB
    Gamut Boundary Description Metadata Profile P0
  HDR Static Metadata Data Block:
    Electro optical transfer functions:
      Traditional gamma - SDR luminance range
      SMPTE ST2084
    Supported static metadata descriptors:
      Static metadata type 1
    Desired content max luminance: 140 (1037.472 cd/m^2)
    Desired content max frame-average luminance: 102 (455.515 cd/m^2)
    Desired content min luminance: 2 (0.001 cd/m^2)
  Detailed Timing Descriptors:
    DTD 2:  2560x1440   59.950550 Hz  16:9     88.787 kHz    241.500000 MHz (699 mm x 395 mm)
                 Hfront   48 Hsync  32 Hback   80 Hpol P
                 Vfront    3 Vsync   5 Vback   33 Vpol N
    DTD 3:  2560x1440  119.997589 Hz  16:9    182.996 kHz    497.750000 MHz (699 mm x 395 mm)
                 Hfront   48 Hsync  32 Hback   80 Hpol P
                 Vfront    3 Vsync   5 Vback   77 Vpol N
    DTD 4:  1920x1080  239.883776 Hz  16:9    282.103 kHz    611.600000 MHz (699 mm x 395 mm)
                 Hfront   48 Hsync  32 Hback  168 Hpol P
                 Vfront    3 Vsync   5 Vback   88 Vpol N
Checksum: 0x40  Unused space in Extension Block: 19 bytes

----------------

Block 2, DisplayID Extension Block:
  Version: 1.2
  Extension Count: 0
  Display Product Type: Standalone display device
  Video Timing Modes Type 1 - Detailed Timings Data Block:
    DTD:  3840x2160  119.998907 Hz  16:9    274.438 kHz   1097.750000 MHz (aspect 16:9, no 3D stereo)
               Hfront   48 Hsync  32 Hback   80 Hpol P
               Vfront    6 Vsync  10 Vback  111 Vpol N
    DTD:  3840x2160  179.999296 Hz  16:9    559.258 kHz   2290.720000 MHz (aspect 16:9, no 3D stereo)
               Hfront   96 Hsync  32 Hback  128 Hpol P
               Vfront    6 Vsync  10 Vback  931 Vpol N
    DTD:  3840x2160  239.990442 Hz  16:9    565.417 kHz   2315.950000 MHz (aspect 16:9, no 3D stereo)
               Hfront   96 Hsync  32 Hback  128 Hpol P
               Vfront    6 Vsync  10 Vback  180 Vpol N
    DTD:  2560x1440  239.846888 Hz  16:9    376.320 kHz   1294.540000 MHz (aspect 16:9, no 3D stereo)
               Hfront   48 Hsync  32 Hback  800 Hpol P
               Vfront    6 Vsync  10 Vback  113 Vpol N
  Checksum: 0xda
Checksum: 0x90
