
EDID (hex):
00ffffffffffff001e6d1f774dc40600
091c010380502178ea09c1ae5044af26
0e50542108007140818081c0a9c0d1c0
810001010101e77c70a0d0a029503020
3a00204a3100001a9d6770a0d0a02250
30203a00204a3100001a000000fd0030
3d1e873c000a202020202020000000fc
004c472048445220354b0a20202001a7

Extracted contents:
header:          00 ff ff ff ff ff ff 00
serial number:   1e 6d 1f 77 4d c4 06 00 09 1c
version:         01 03
basic params:    80 50 21 78 ea
chroma info:     09 c1 ae 50 44 af 26 0e 50 54
established:     21 08 00
standard:        71 40 81 80 81 c0 a9 c0 d1 c0 81 00 01 01 01 01
descriptor 1:    e7 7c 70 a0 d0 a0 29 50 30 20 3a 00 20 4a 31 00 00 1a
descriptor 2:    9d 67 70 a0 d0 a0 22 50 30 20 3a 00 20 4a 31 00 00 1a
descriptor 3:    00 00 00 fd 00 30 3d 1e 87 3c 00 0a 20 20 20 20 20 20
descriptor 4:    00 00 00 fc 00 4c 47 20 48 44 52 20 35 4b 0a 20 20 20
extensions:      01
checksum:        a7

EDID version: 1.3
Manufacturer: GSM Model 771f Serial Number --
Made in week 9 of 2018
Digital display
Maximum image size: 80 cm x 33 cm
Gamma: 2.20
DPMS levels: Standby Suspend Off
RGB color display
First detailed timing is preferred timing
Display x,y Chromaticity:
  Red:   0.6796, 0.3125
  Green: 0.2675, 0.6845
  Blue:  0.1513, 0.0546
  White: 0.3125, 0.3291
Established timings supported:
  640x480@60Hz 4:3 HorFreq: 31469 Hz Clock: 25.175 MHz
  800x600@60Hz 4:3 HorFreq: 37900 Hz Clock: 40.000 MHz
  1024x768@60Hz 4:3 HorFreq: 48400 Hz Clock: 65.000 MHz
Standard timings supported:
  1152x864@60Hz 4:3
  1280x1024@60Hz 5:4 HorFreq: 64000 Hz Clock: 108.000 MHz
  1280x720@60Hz 16:9
  1600x900@60Hz 16:9
  1920x1080@60Hz 16:9
  1280x800@60Hz 16:10
Detailed mode: Clock 319.750 MHz, 800 mm x 330 mm
               3440 3488 3520 3600 hborder 0
               1440 1443 1453 1481 vborder 0
               +hsync -vsync 
               VertFreq: 59 Hz, HorFreq: 88819 Hz
Detailed mode: Clock 265.250 MHz, 800 mm x 330 mm
               3440 3488 3520 3600 hborder 0
               1440 1443 1453 1474 vborder 0
               +hsync -vsync 
               VertFreq: 49 Hz, HorFreq: 73680 Hz
Monitor ranges (GTF): 48-61Hz V, 30-135kHz H, max dotclock 600MHz
Monitor name: LG HDR 5K
Has 1 extension blocks
Checksum: 0xa7 (valid)
