
EDID (hex):
00ffffffffffff0015c36925c3599603
081b010380342178ea0495a9554d9d26
105054a10800a9408180b300a9c081c0
810001010101283c80a070b023403020
360007442100001a023a801871382d40
582c450007442100001e000000fd003b
3d1f4c11000a202020202020000000fc
004556323435350a2020202020200081

Extracted contents:
header:          00 ff ff ff ff ff ff 00
serial number:   15 c3 69 25 c3 59 96 03 08 1b
version:         01 03
basic params:    80 34 21 78 ea
chroma info:     04 95 a9 55 4d 9d 26 10 50 54
established:     a1 08 00
standard:        a9 40 81 80 b3 00 a9 c0 81 c0 81 00 01 01 01 01
descriptor 1:    28 3c 80 a0 70 b0 23 40 30 20 36 00 07 44 21 00 00 1a
descriptor 2:    02 3a 80 18 71 38 2d 40 58 2c 45 00 07 44 21 00 00 1e
descriptor 3:    00 00 00 fd 00 3b 3d 1f 4c 11 00 0a 20 20 20 20 20 20
descriptor 4:    00 00 00 fc 00 45 56 32 34 35 35 0a 20 20 20 20 20 20
extensions:      00
checksum:        81

EDID version: 1.3
Manufacturer: ENC Model 2569 Serial Number --
Made in week 8 of 2017
Digital display
Maximum image size: 52 cm x 33 cm
Gamma: 2.20
DPMS levels: Standby Suspend Off
RGB color display
First detailed timing is preferred timing
Display x,y Chromaticity:
  Red:   0.6601, 0.3320
  Green: 0.3017, 0.6132
  Blue:  0.1503, 0.0634
  White: 0.3134, 0.3291
Established timings supported:
  720x400@70Hz 9:5 HorFreq: 31469 Hz Clock: 28.320 MHz
  640x480@60Hz 4:3 HorFreq: 31469 Hz Clock: 25.175 MHz
  800x600@60Hz 4:3 HorFreq: 37900 Hz Clock: 40.000 MHz
  1024x768@60Hz 4:3 HorFreq: 48400 Hz Clock: 65.000 MHz
Standard timings supported:
  1600x1200@60Hz 4:3 HorFreq: 75000 Hz Clock: 162.000 MHz
  1280x1024@60Hz 5:4 HorFreq: 64000 Hz Clock: 108.000 MHz
  1680x1050@60Hz 16:10 HorFreq: 64700 Hz Clock: 119.000 MHz
  1600x900@60Hz 16:9
  1280x720@60Hz 16:9
  1280x800@60Hz 16:10
Detailed mode: Clock 154.000 MHz, 519 mm x 324 mm
               1920 1968 2000 2080 hborder 0
               1200 1203 1209 1235 vborder 0
               +hsync -vsync 
               VertFreq: 59 Hz, HorFreq: 74038 Hz
Detailed mode: Clock 148.500 MHz, 519 mm x 324 mm
               1920 2008 2052 2200 hborder 0
               1080 1084 1089 1125 vborder 0
               +hsync +vsync 
               VertFreq: 60 Hz, HorFreq: 67500 Hz
Monitor ranges (GTF): 59-61Hz V, 31-76kHz H, max dotclock 170MHz
Monitor name: EV2455
Checksum: 0x81 (valid)
One or more of the timings is out of range of the Monitor Ranges:
  Vertical Freq: 59 - 70 Hz
  Horizontal Freq: 31469 - 75000 Hz
  Maximum Clock: 162.000 MHz


