
EDID (hex):
00ffffffffffff000daf451500000000
25100103802115780add689756508726
1e4e5100000001010101010101010101
010101010101ab22a0a050841a303020
36004ccf10000018000000fe004e3135
3443312d4c30310a2020000000fe0043
4d4f0a202020202020202020000000fe
004e31353443312d4c30310a2020008c

Extracted contents:
header:          00 ff ff ff ff ff ff 00
serial number:   0d af 45 15 00 00 00 00 25 10
version:         01 03
basic params:    80 21 15 78 0a
chroma info:     dd 68 97 56 50 87 26 1e 4e 51
established:     00 00 00
standard:        01 01 01 01 01 01 01 01 01 01 01 01 01 01 01 01
descriptor 1:    ab 22 a0 a0 50 84 1a 30 30 20 36 00 4c cf 10 00 00 18
descriptor 2:    00 00 00 fe 00 4e 31 35 34 43 31 2d 4c 30 31 0a 20 20
descriptor 3:    00 00 00 fe 00 43 4d 4f 0a 20 20 20 20 20 20 20 20 20
descriptor 4:    00 00 00 fe 00 4e 31 35 34 43 31 2d 4c 30 31 0a 20 20
extensions:      00
checksum:        8c

EDID version: 1.3
Manufacturer: CMO Model 1545 Serial Number --
Made in week 37 of 2006
Digital display
Maximum image size: 33 cm x 21 cm
Gamma: 2.20
RGB color display
First detailed timing is preferred timing
Display x,y Chromaticity:
  Red:   0.5927, 0.3369
  Green: 0.3154, 0.5283
  Blue:  0.1494, 0.1191
  White: 0.3066, 0.3164
Established timings supported:
Standard timings supported:
Detailed mode: Clock 88.750 MHz, 332 mm x 207 mm
               1440 1488 1520 1600 hborder 0
                900  903  909  926 vborder 0
               -hsync -vsync 
               VertFreq: 59 Hz, HorFreq: 55468 Hz
ASCII string: N154C1-L01
ASCII string: CMO
ASCII string: N154C1-L01
Checksum: 0x8c (valid)
EDID block does NOT conform to EDID 1.3!
	Missing name descriptor
	Missing monitor ranges
