
EDID (hex):
00ffffffffffff0006afeb4100000000
221c0104b522137802af95a65435b526
0f505400000001010101010101010101
01010101010152d000a0f0703e803020
350058c11000001a52d000a0f0706882
3020350025a51000001a000000fe0037
5837314880423135365a414e00000000
00054122b2001200000b010a20200139
02030f00e3058000e606050160602800
00000000000000000000000000000000
00000000000000000000000000000000
00000000000000000000000000000000
00000000000000000000000000000000
00000000000000000000000000000000
00000000000000000000000000000000
000000000000000000000000000000aa

Extracted contents:
header:          00 ff ff ff ff ff ff 00
serial number:   06 af eb 41 00 00 00 00 22 1c
version:         01 04
basic params:    b5 22 13 78 02
chroma info:     af 95 a6 54 35 b5 26 0f 50 54
established:     00 00 00
standard:        01 01 01 01 01 01 01 01 01 01 01 01 01 01 01 01
descriptor 1:    52 d0 00 a0 f0 70 3e 80 30 20 35 00 58 c1 10 00 00 1a
descriptor 2:    52 d0 00 a0 f0 70 68 82 30 20 35 00 25 a5 10 00 00 1a
descriptor 3:    00 00 00 fe 00 37 58 37 31 48 80 42 31 35 36 5a 41 4e
descriptor 4:    00 00 00 00 00 05 41 22 b2 00 12 00 00 0b 01 0a 20 20
extensions:      01
checksum:        39

EDID version: 1.4
Manufacturer: AUO Model 41eb Serial Number --
Made in week 34 of 2018
Digital display
10 bits per primary color channel
DisplayPort interface
Maximum image size: 34 cm x 19 cm
Gamma: 2.20
Supported color formats: RGB 4:4:4
First detailed timing includes the native pixel format and preferred refresh rate
Display x,y Chromaticity:
  Red:   0.6503, 0.3300
  Green: 0.2099, 0.7099
  Blue:  0.1503, 0.0595
  White: 0.3134, 0.3291
Established timings supported:
Standard timings supported:
Detailed mode: Clock 533.300 MHz, 344 mm x 193 mm
               3840 3888 3920 4000 hborder 0
               2160 2163 2168 2222 vborder 0
               +hsync -vsync 
               VertFreq: 60 Hz, HorFreq: 133325 Hz
Detailed mode: Clock 533.300 MHz, 293 mm x 165 mm
               3840 3888 3920 4000 hborder 0
               2160 2163 2168 2776 vborder 0
               +hsync -vsync 
               VertFreq: 48 Hz, HorFreq: 133325 Hz
ASCII string: 7X71H
Manufacturer-specified data, tag 0
Has 1 extension blocks
Checksum: 0x39 (valid)

CTA extension block
Extension version: 3
11 bytes of CTA data
  Extended tag: Colorimetry data block
    BT2020RGB
  Extended tag: HDR static metadata data block
    Electro optical transfer functions:
      Traditional gamma - SDR luminance range
      SMPTE ST2084
    Supported static metadata descriptors:
      Static metadata type 1
    Desired content max luminance: 96 (400.000 cd/m^2)
    Desired content max frame-average luminance: 96 (400.000 cd/m^2)
    Desired content min luminance: 40 (0.098 cd/m^2)
0 native detailed modes
Checksum: 0xaa (valid)

EDID block does NOT conform to EDID 1.4!
	Required 640x480p60 timings are missing in the established timings
	and/or in the SVD list (VIC 1)
	Missing name descriptor
	Missing monitor ranges
	Detailed block string not properly terminated
