
EDID (hex):
00ffffffffffff004cf4000000000000
2a1c0104b5341e783bca75a954459822
1f5054a54a0001013168317c4568457c
6168617cd1c0023a801871382d40582c
45000a252100001e000000fd003090b4
b43c010a202020202020000000fc0044
500a20202020202020202020000000ff
002020202020202020202020200a0136
020333f24990010203041112131f00e2
00c0e305c00023097f0783010000e50f
00000c0067d85dc401788801e6060500
69694ffd8180a070381f40302035000a
252100001e8a6f80a07038404030203a
000a252100001e0e5c80a07038354030
203a000a252100001e00000000000000
0000000000000000000000000000003a

Extracted contents:
header:          00 ff ff ff ff ff ff 00
serial number:   4c f4 00 00 00 00 00 00 2a 1c
version:         01 04
basic params:    b5 34 1e 78 3b
chroma info:     ca 75 a9 54 45 98 22 1f 50 54
established:     a5 4a 00
standard:        01 01 31 68 31 7c 45 68 45 7c 61 68 61 7c d1 c0
descriptor 1:    02 3a 80 18 71 38 2d 40 58 2c 45 00 0a 25 21 00 00 1e
descriptor 2:    00 00 00 fd 00 30 90 b4 b4 3c 01 0a 20 20 20 20 20 20
descriptor 3:    00 00 00 fc 00 44 50 0a 20 20 20 20 20 20 20 20 20 20
descriptor 4:    00 00 00 ff 00 20 20 20 20 20 20 20 20 20 20 20 20 0a
extensions:      01
checksum:        36

EDID version: 1.4
Manufacturer: SGT Model 0 Serial Number --
Made in week 42 of 2018
Digital display
10 bits per primary color channel
DisplayPort interface
Maximum image size: 52 cm x 30 cm
Gamma: 2.20
DPMS levels: Off
Supported color formats: RGB 4:4:4, YCrCb 4:4:4, YCrCb 4:2:2
First detailed timing includes the native pixel format and preferred refresh rate
Display is continuous frequency
Display x,y Chromaticity:
  Red:   0.6630, 0.3281
  Green: 0.2714, 0.5957
  Blue:  0.1337, 0.1240
  White: 0.3134, 0.3291
Established timings supported:
  720x400@70Hz 9:5 HorFreq: 31469 Hz Clock: 28.320 MHz
  640x480@60Hz 4:3 HorFreq: 31469 Hz Clock: 25.175 MHz
  640x480@75Hz 4:3 HorFreq: 37500 Hz Clock: 31.500 MHz
  800x600@60Hz 4:3 HorFreq: 37900 Hz Clock: 40.000 MHz
  800x600@75Hz 4:3 HorFreq: 46900 Hz Clock: 49.500 MHz
  1024x768@60Hz 4:3 HorFreq: 48400 Hz Clock: 65.000 MHz
  1024x768@75Hz 4:3 HorFreq: 60000 Hz Clock: 78.750 MHz
Standard timings supported:
  640x480@100Hz 4:3
  640x480@120Hz 4:3
  800x600@100Hz 4:3
  800x600@120Hz 4:3
  1024x768@100Hz 4:3
  1024x768@120Hz 4:3
  1920x1080@60Hz 16:9
Detailed mode: Clock 148.500 MHz, 522 mm x 293 mm
               1920 2008 2052 2200 hborder 0
               1080 1084 1089 1125 vborder 0
               +hsync +vsync 
               VertFreq: 60 Hz, HorFreq: 67500 Hz
Monitor ranges (bare limits): 48-144Hz V, 180-180kHz H, max dotclock 600MHz
Monitor name: DP
Serial number:             
-- 1 extension blocks
Checksum: 0x36 (valid)

CTA extension block
Extension version: 3
47 bytes of CTA data
  Video data block
    VIC  16 1920x1080@60Hz 16:9 (native) HorFreq: 67500 Hz Clock: 148.500 MHz
    VIC   1 640x480@60Hz 4:3  HorFreq: 31469 Hz Clock: 25.175 MHz
    VIC   2 720x480@60Hz 4:3  HorFreq: 31469 Hz Clock: 27.000 MHz
    VIC   3 720x480@60Hz 16:9  HorFreq: 31469 Hz Clock: 27.000 MHz
    VIC   4 1280x720@60Hz 16:9  HorFreq: 45000 Hz Clock: 74.250 MHz
    VIC  17 720x576@50Hz 4:3  HorFreq: 31250 Hz Clock: 27.000 MHz
    VIC  18 720x576@50Hz 16:9  HorFreq: 31250 Hz Clock: 27.000 MHz
    VIC  19 1280x720@50Hz 16:9  HorFreq: 37500 Hz Clock: 74.250 MHz
    VIC  31 1920x1080@50Hz 16:9  HorFreq: 56250 Hz Clock: 148.500 MHz
  Unknown tag 0, length 0 (raw 00)
  Extended tag: Video capability data block
    YCbCr quantization: Selectable (via AVI YQ) (1)
    RGB quantization: Selectable (via AVI Q) (1)
    PT scan behaviour: No Data (0)
    IT scan behaviour: IT video formats not supported (0)
    CE scan behaviour: CE video formats not supported (0)
  Extended tag: Colorimetry data block
    BT2020YCC
    BT2020RGB
  Audio data block
    Linear PCM, max channels 2
      Supported sample rates (kHz): 192 176.4 96 88.2 48 44.1 32
      Supported sample sizes (bits): 24 20 16
  Speaker allocation data block
    Speaker map:
      FL/FR - Front Left/Right
  Extended tag: YCbCr 4:2:0 capability map data block
    VSD Index 18
    VSD Index 19
  Vendor-specific data block, OUI c45dd8 (HDMI Forum)
    Version: 1
    Maximum TMDS Character Rate: 600MHz
    SCDC Present
    Supports scrambling for <= 340 Mcsc
    Supports 10-bits/component Deep Color 4:2:0 Pixel Encoding
  Extended tag: HDR static metadata data block
    Electro optical transfer functions:
      Traditional gamma - SDR luminance range
      SMPTE ST2084
    Supported static metadata descriptors:
    Desired content max luminance: 105 (486.099 cd/m^2)
    Desired content max frame-average luminance: 105 (486.099 cd/m^2)
    Desired content min luminance: 79 (0.467 cd/m^2)
Underscans PC formats by default
Basic audio support
Supports YCbCr 4:4:4
Supports YCbCr 4:2:2
2 native detailed modes
Detailed mode: Clock 332.770 MHz, 522 mm x 293 mm
               1920 1968 2000 2080 hborder 0
               1080 1083 1088 1111 vborder 0
               +hsync +vsync 
               VertFreq: 144 Hz, HorFreq: 159985 Hz
Detailed mode: Clock 285.540 MHz, 522 mm x 293 mm
               1920 1968 2000 2080 hborder 0
               1080 1083 1093 1144 vborder 0
               +hsync +vsync 
               VertFreq: 119 Hz, HorFreq: 137278 Hz
Detailed mode: Clock 235.660 MHz, 522 mm x 293 mm
               1920 1968 2000 2080 hborder 0
               1080 1083 1093 1133 vborder 0
               +hsync +vsync 
               VertFreq: 99 Hz, HorFreq: 113298 Hz
Checksum: 0x3a (valid)

EDID block does NOT conform to EDID 1.4!
	HDMI Forum VSDB did not immediately follow the HDMI VSDB
Warning: One or more of the timings is out of range of the Monitor Ranges:
  Vertical Freq: 50 - 144 Hz
  Horizontal Freq: 31250 - 159985 Hz
  Maximum Clock: 332.770 MHz
