
EDID (hex):
00ffffffffffff0025ce003201081620
201a010380462778ea1ec5ae4f34b126
0e5054a108008180b300d1c0a9c09500
010101010101023a801871382d40582c
4500ba892100001e7f2156aa51001e30
468f3300ba892100001e000000fd0031
481e5311000a202020202020000000fc
004b334138462048444d490a20200100
020329f15090ffffffffffffffffffff
ffffffffffffffffffffffffffffffff
ffffffffffffffffffffffffffffffff
ffffffffffffffffffffffffffffffff
ffffffffffffffffffffffffffffffff
ffffffffffffffffffffffffffffffff
ffffffffffffffffffffffffffffffff
ffffffffffffffffffffffffffffffff

Extracted contents:
header:          00 ff ff ff ff ff ff 00
serial number:   25 ce 00 32 01 08 16 20 20 1a
version:         01 03
basic params:    80 46 27 78 ea
chroma info:     1e c5 ae 4f 34 b1 26 0e 50 54
established:     a1 08 00
standard:        81 80 b3 00 d1 c0 a9 c0 95 00 01 01 01 01 01 01
descriptor 1:    02 3a 80 18 71 38 2d 40 58 2c 45 00 ba 89 21 00 00 1e
descriptor 2:    7f 21 56 aa 51 00 1e 30 46 8f 33 00 ba 89 21 00 00 1e
descriptor 3:    00 00 00 fd 00 31 48 1e 53 11 00 0a 20 20 20 20 20 20
descriptor 4:    00 00 00 fc 00 4b 33 41 38 46 20 48 44 4d 49 0a 20 20
extensions:      01
checksum:        00

EDID version: 1.3
Manufacturer: INN Model 3200 Serial Number --
Made in week 32 of 2016
Digital display
Maximum image size: 70 cm x 39 cm
Gamma: 2.20
DPMS levels: Standby Suspend Off
RGB color display
First detailed timing is preferred timing
Display x,y Chromaticity:
  Red:   0.6796, 0.3095
  Green: 0.2060, 0.6933
  Blue:  0.1513, 0.0546
  White: 0.3134, 0.3291
Established timings supported:
  720x400@70Hz 9:5 HorFreq: 31469 Hz Clock: 28.320 MHz
  640x480@60Hz 4:3 HorFreq: 31469 Hz Clock: 25.175 MHz
  800x600@60Hz 4:3 HorFreq: 37900 Hz Clock: 40.000 MHz
  1024x768@60Hz 4:3 HorFreq: 48400 Hz Clock: 65.000 MHz
Standard timings supported:
  1280x1024@60Hz 5:4 HorFreq: 64000 Hz Clock: 108.000 MHz
  1680x1050@60Hz 16:10 HorFreq: 64700 Hz Clock: 119.000 MHz
  1920x1080@60Hz 16:9
  1600x900@60Hz 16:9
  1440x900@60Hz 16:10 HorFreq: 55500 Hz Clock: 88.750 MHz
Detailed mode: Clock 148.500 MHz, 698 mm x 393 mm
               1920 2008 2052 2200 hborder 0
               1080 1084 1089 1125 vborder 0
               +hsync +vsync 
               VertFreq: 60 Hz, HorFreq: 67500 Hz
Detailed mode: Clock 85.750 MHz, 698 mm x 393 mm
               1366 1436 1579 1792 hborder 0
                768  771  774  798 vborder 0
               +hsync +vsync 
               VertFreq: 59 Hz, HorFreq: 47851 Hz
Monitor ranges (GTF): 49-72Hz V, 30-83kHz H, max dotclock 170MHz
Monitor name: K3A8F HDMI
Has 1 extension blocks
Checksum: 0x0 (valid)

CTA extension block
Extension version: 3
37 bytes of CTA data
  Video data block
    VIC  16 1920x1080@60Hz 16:9 (native) HorFreq: 67500 Hz Clock: 148.500 MHz
    VIC 255 Unknown mode  HorFreq: 0 Hz Clock: 0.000 MHz
    VIC 255 Unknown mode  HorFreq: 0 Hz Clock: 0.000 MHz
    VIC 255 Unknown mode  HorFreq: 0 Hz Clock: 0.000 MHz
    VIC 255 Unknown mode  HorFreq: 0 Hz Clock: 0.000 MHz
    VIC 255 Unknown mode  HorFreq: 0 Hz Clock: 0.000 MHz
    VIC 255 Unknown mode  HorFreq: 0 Hz Clock: 0.000 MHz
    VIC 255 Unknown mode  HorFreq: 0 Hz Clock: 0.000 MHz
    VIC 255 Unknown mode  HorFreq: 0 Hz Clock: 0.000 MHz
    VIC 255 Unknown mode  HorFreq: 0 Hz Clock: 0.000 MHz
    VIC 255 Unknown mode  HorFreq: 0 Hz Clock: 0.000 MHz
    VIC 255 Unknown mode  HorFreq: 0 Hz Clock: 0.000 MHz
    VIC 255 Unknown mode  HorFreq: 0 Hz Clock: 0.000 MHz
    VIC 255 Unknown mode  HorFreq: 0 Hz Clock: 0.000 MHz
    VIC 255 Unknown mode  HorFreq: 0 Hz Clock: 0.000 MHz
    VIC 255 Unknown mode  HorFreq: 0 Hz Clock: 0.000 MHz
  Extended tag: Reserved (ff)
Underscans PC formats by default
Basic audio support
Supports YCbCr 4:4:4
Supports YCbCr 4:2:2
1 native detailed modes
Detailed mode: Clock 655.350 MHz, 4095 mm x 4095 mm
               4095 5118 6141 8190 hborder 255
               4095 4158 4221 8190 vborder 255
               +hsync +vsync interlaced side by side interleaved
               VertFreq: 9 Hz, HorFreq: 80018 Hz
Detailed mode: Clock 655.350 MHz, 4095 mm x 4095 mm
               4095 5118 6141 8190 hborder 255
               4095 4158 4221 8190 vborder 255
               +hsync +vsync interlaced side by side interleaved
               VertFreq: 9 Hz, HorFreq: 80018 Hz
Detailed mode: Clock 655.350 MHz, 4095 mm x 4095 mm
               4095 5118 6141 8190 hborder 255
               4095 4158 4221 8190 vborder 255
               +hsync +vsync interlaced side by side interleaved
               VertFreq: 9 Hz, HorFreq: 80018 Hz
Detailed mode: Clock 655.350 MHz, 4095 mm x 4095 mm
               4095 5118 6141 8190 hborder 255
               4095 4158 4221 8190 vborder 255
               +hsync +vsync interlaced side by side interleaved
               VertFreq: 9 Hz, HorFreq: 80018 Hz
Checksum: 0xff (should be 0x7a)

One or more of the timings is out of range of the Monitor Ranges:
  Vertical Freq: 9 - 70 Hz
  Horizontal Freq: 31469 - 80018 Hz
  Maximum Clock: 655.350 MHz
CTA extension block does not conform
	Block has broken checksum
