edid-decode (hex):

00 ff ff ff ff ff ff 00 30 e4 a7 02 00 00 00 00
00 14 01 03 80 1f 11 78 0a 4a 05 9e 5b 54 95 25
18 50 54 00 00 00 01 01 01 01 01 01 01 01 01 01
01 01 01 01 01 01 9e 1b 56 80 50 00 15 30 28 20
35 00 36 ae 10 00 00 19 00 00 00 00 00 00 00 00
00 00 00 00 00 00 00 00 00 00 00 00 00 fe 00 4c
47 20 44 69 73 70 6c 61 79 0a 20 20 00 00 00 fe
00 4c 50 31 34 30 57 48 31 2d 54 4c 45 33 00 1a

----------------

Block 0, Base EDID:
  EDID Structure Version & Revision: 1.3
  Vendor & Product Identification:
    Manufacturer: LGD
    Model: 679
    Made in: 2010
  Basic Display Parameters & Features:
    Digital display
    Maximum image size: 31 cm x 17 cm
    Gamma: 2.20
    RGB color display
    First detailed timing is preferred timing
  Color Characteristics:
    Red  : 0.6181, 0.3554
    Green: 0.3300, 0.5839
    Blue : 0.1445, 0.0937
    White: 0.3134, 0.3291
  Established Timings I & II: none
  Standard Timings: none
  Detailed Timing Descriptors:
    DTD 1:  1366x768    59.978 Hz 683:384  47.323 kHz  70.700 MHz (310 mm x 174 mm)
                 Hfront   40 Hsync  32 Hback  56 Hpol N
                 Vfront    3 Vsync   5 Vback  13 Vpol N
    Empty Descriptor
    Alphanumeric Data String: 'LG Display'
    Alphanumeric Data String: 'LP140WH1-TLE3'
Checksum: 0x1a
