
EDID (hex):
00ffffffffffff00410cd2c072010000
041801036e3c22782ab205a3564f9e28
0f5054b10800d1c0b300950081c08180
010101010101023a801871382d40582c
450056502100001e000000ff00554b35
31343034303030333730000000fc0050
484c2032373356350a202020000000fd
0038471e5311000a202020202020001c

Extracted contents:
header:          00 ff ff ff ff ff ff 00
serial number:   41 0c d2 c0 72 01 00 00 04 18
version:         01 03
basic params:    6e 3c 22 78 2a
chroma info:     b2 05 a3 56 4f 9e 28 0f 50 54
established:     b1 08 00
standard:        d1 c0 b3 00 95 00 81 c0 81 80 01 01 01 01 01 01
descriptor 1:    02 3a 80 18 71 38 2d 40 58 2c 45 00 56 50 21 00 00 1e
descriptor 2:    00 00 00 ff 00 55 4b 35 31 34 30 34 30 30 30 33 37 30
descriptor 3:    00 00 00 fc 00 50 48 4c 20 32 37 33 56 35 0a 20 20 20
descriptor 4:    00 00 00 fd 00 38 47 1e 53 11 00 0a 20 20 20 20 20 20
extensions:      00
checksum:        1c

EDID version: 1.3
Manufacturer: PHL Model c0d2 Serial Number --
Made in week 4 of 2014
Analog display, Input voltage level: 0.7/0.7 V
Sync: Separate Composite SyncOnGreen 
Maximum image size: 60 cm x 34 cm
Gamma: 2.20
DPMS levels: Off
RGB color display
First detailed timing is preferred timing
Display x,y Chromaticity:
  Red:   0.6386, 0.3388
  Green: 0.3085, 0.6191
  Blue:  0.1562, 0.0585
  White: 0.3134, 0.3291
Established timings supported:
  720x400@70Hz 9:5 HorFreq: 31469 Hz Clock: 28.320 MHz
  640x480@60Hz 4:3 HorFreq: 31469 Hz Clock: 25.175 MHz
  640x480@67Hz 4:3 HorFreq: 35000 Hz Clock: 30.240 MHz
  800x600@60Hz 4:3 HorFreq: 37900 Hz Clock: 40.000 MHz
  1024x768@60Hz 4:3 HorFreq: 48400 Hz Clock: 65.000 MHz
Standard timings supported:
  1920x1080@60Hz 16:9
  1680x1050@60Hz 16:10 HorFreq: 64700 Hz Clock: 119.000 MHz
  1440x900@60Hz 16:10 HorFreq: 55500 Hz Clock: 88.750 MHz
  1280x720@60Hz 16:9
  1280x1024@60Hz 5:4 HorFreq: 64000 Hz Clock: 108.000 MHz
Detailed mode: Clock 148.500 MHz, 598 mm x 336 mm
               1920 2008 2052 2200 hborder 0
               1080 1084 1089 1125 vborder 0
               +hsync +vsync 
               VertFreq: 60 Hz, HorFreq: 67500 Hz
Serial number: --
Monitor name: PHL 273V5
Monitor ranges (GTF): 56-71Hz V, 30-83kHz H, max dotclock 170MHz
Checksum: 0x1c (valid)
