
EDID (hex):
00ffffffffffff0006afa20b00000000
311f0104a51f117803f4f5a4544d9c27
0f505400000001010101010101010101
010101010101e65f00a0a0a040503020
350035ae10000018b84c00a0a0a04050
3020350035ae10000018000000fd0030
3c585819010a202020202020000000fe
004231343051414e30322e33200a0063

Extracted contents:
header:          00 ff ff ff ff ff ff 00
serial number:   06 af a2 0b 00 00 00 00 31 1f
version:         01 04
basic params:    a5 1f 11 78 03
chroma info:     f4 f5 a4 54 4d 9c 27 0f 50 54
established:     00 00 00
standard:        01 01 01 01 01 01 01 01 01 01 01 01 01 01 01 01
descriptor 1:    e6 5f 00 a0 a0 a0 40 50 30 20 35 00 35 ae 10 00 00 18
descriptor 2:    b8 4c 00 a0 a0 a0 40 50 30 20 35 00 35 ae 10 00 00 18
descriptor 3:    00 00 00 fd 00 30 3c 58 58 19 01 0a 20 20 20 20 20 20
descriptor 4:    00 00 00 fe 00 42 31 34 30 51 41 4e 30 32 2e 33 20 0a
extensions:      00
checksum:        63

EDID version: 1.4
Manufacturer: AUO Model ba2 Serial Number --
Made in week 49 of 2021
Digital display
8 bits per primary color channel
DisplayPort interface
Maximum image size: 31 cm x 17 cm
Gamma: 2.20
Supported color formats: RGB 4:4:4
First detailed timing includes the native pixel format and preferred refresh rate
Display is continuous frequency
Display x,y Chromaticity:
  Red:   0.6435, 0.3310
  Green: 0.3017, 0.6093
  Blue:  0.1552, 0.0615
  White: 0.3134, 0.3291
Established timings supported:
Standard timings supported:
Detailed mode: Clock 245.500 MHz, 309 mm x 174 mm
               2560 2608 2640 2720 hborder 0
               1440 1443 1448 1504 vborder 0
               -hsync -vsync 
               VertFreq: 60 Hz, HorFreq: 90257 Hz
Detailed mode: Clock 196.400 MHz, 309 mm x 174 mm
               2560 2608 2640 2720 hborder 0
               1440 1443 1448 1504 vborder 0
               -hsync -vsync 
               VertFreq: 48 Hz, HorFreq: 72205 Hz
Monitor ranges (bare limits): 48-60Hz V, 88-88kHz H, max dotclock 250MHz
ASCII string: B140QAN02.3 
Checksum: 0x63 (valid)
EDID block does NOT conform to EDID 1.4!
	Missing name descriptor
Warning: One or more of the timings is out of range of the Monitor Ranges:
  Vertical Freq: 48 - 60 Hz
  Horizontal Freq: 72205 - 90257 Hz
  Maximum Clock: 245.500 MHz
