
EDID (hex):
00ffffffffffff004dd9014201000000
0112010318472878ee3c48a05647982a
12484ca54e0031404540614001010101
010101010101662150b051001b303c70
360047280000001e0e1f008051001e30
46803700472800100d1c000000fd0032
550f390a000a202020202020000000fc
00534f4e592054560a202020202000ff

Extracted contents:
header:          00 ff ff ff ff ff ff 00
serial number:   4d d9 01 42 01 00 00 00 01 12
version:         01 03
basic params:    18 47 28 78 ee
chroma info:     3c 48 a0 56 47 98 2a 12 48 4c
established:     a5 4e 00
standard:        31 40 45 40 61 40 01 01 01 01 01 01 01 01 01 01
descriptor 1:    66 21 50 b0 51 00 1b 30 3c 70 36 00 47 28 00 00 00 1e
descriptor 2:    0e 1f 00 80 51 00 1e 30 46 80 37 00 47 28 00 10 0d 1c
descriptor 3:    00 00 00 fd 00 32 55 0f 39 0a 00 0a 20 20 20 20 20 20
descriptor 4:    00 00 00 fc 00 53 4f 4e 59 20 54 56 0a 20 20 20 20 20
extensions:      00
checksum:        ff

EDID version: 1.3
Manufacturer: SNY Model 4201 Serial Number --
Made in week 1 of 2008
Analog display, Input voltage level: 0.7/0.3 V
Configurable signal levels
Sync: Separate 
Maximum image size: 71 cm x 40 cm
Gamma: 2.20
DPMS levels: Standby Suspend Off
RGB color display
Default (sRGB) color space is primary color space
First detailed timing is preferred timing
Display x,y Chromaticity:
  Red:   0.6250, 0.3388
  Green: 0.2802, 0.5937
  Blue:  0.1650, 0.0703
  White: 0.2832, 0.2968
Established timings supported:
  720x400@70Hz 9:5 HorFreq: 31469 Hz Clock: 28.320 MHz
  640x480@60Hz 4:3 HorFreq: 31469 Hz Clock: 25.175 MHz
  640x480@75Hz 4:3 HorFreq: 37500 Hz Clock: 31.500 MHz
  800x600@60Hz 4:3 HorFreq: 37900 Hz Clock: 40.000 MHz
  800x600@75Hz 4:3 HorFreq: 46900 Hz Clock: 49.500 MHz
  1024x768@60Hz 4:3 HorFreq: 48400 Hz Clock: 65.000 MHz
  1024x768@70Hz 4:3 HorFreq: 56500 Hz Clock: 75.000 MHz
  1024x768@75Hz 4:3 HorFreq: 60000 Hz Clock: 78.750 MHz
Standard timings supported:
  640x480@60Hz 4:3 HorFreq: 31469 Hz Clock: 25.175 MHz
  800x600@60Hz 4:3 HorFreq: 37900 Hz Clock: 40.000 MHz
  1024x768@60Hz 4:3 HorFreq: 48400 Hz Clock: 65.000 MHz
Detailed mode: Clock 85.500 MHz, 71 mm x 40 mm
               1360 1420 1532 1792 hborder 0
                768  771  777  795 vborder 0
               +hsync +vsync 
               VertFreq: 60 Hz, HorFreq: 47712 Hz
Detailed mode: Clock 79.500 MHz, 71 mm x 40 mm
               1280 1350 1478 1664 hborder 16
                768  771  778  798 vborder 13
               -hsync +vsync 
               VertFreq: 59 Hz, HorFreq: 47776 Hz
Monitor ranges (GTF): 50-85Hz V, 15-57kHz H, max dotclock 100MHz
Monitor name: SONY TV
Checksum: 0xff (valid)
EDID block does NOT conform to EDID 1.3!
	sRGB is signaled, but the chromaticities do not match
One or more of the timings is out of range of the Monitor Ranges:
  Vertical Freq: 59 - 75 Hz
  Horizontal Freq: 31469 - 60000 Hz
  Maximum Clock: 85.500 MHz


