
EDID (hex):
00ffffffffffff000daf261200000000
2d100103801a11780a9f059656508827
20505400000001010101010101010101
0101010101011b1b008450201330281a
250004aa10000018000000fe004e3132
3149412d4c30320a2020000000fe0043
4d4f0a202020202020202020000000fe
004e31323149412d4c30320a20200072

Extracted contents:
header:          00 ff ff ff ff ff ff 00
serial number:   0d af 26 12 00 00 00 00 2d 10
version:         01 03
basic params:    80 1a 11 78 0a
chroma info:     9f 05 96 56 50 88 27 20 50 54
established:     00 00 00
standard:        01 01 01 01 01 01 01 01 01 01 01 01 01 01 01 01
descriptor 1:    1b 1b 00 84 50 20 13 30 28 1a 25 00 04 aa 10 00 00 18
descriptor 2:    00 00 00 fe 00 4e 31 32 31 49 41 2d 4c 30 32 0a 20 20
descriptor 3:    00 00 00 fe 00 43 4d 4f 0a 20 20 20 20 20 20 20 20 20
descriptor 4:    00 00 00 fe 00 4e 31 32 31 49 41 2d 4c 30 32 0a 20 20
extensions:      00
checksum:        72

EDID version: 1.3
Manufacturer: CMO Model 1226 Serial Number --
Made in week 45 of 2006
Digital display
Maximum image size: 26 cm x 17 cm
Gamma: 2.20
RGB color display
First detailed timing is preferred timing
Display x,y Chromaticity:
  Red:   0.5878, 0.3369
  Green: 0.3154, 0.5341
  Blue:  0.1523, 0.1250
  White: 0.3134, 0.3291
Established timings supported:
Standard timings supported:
Detailed mode: Clock 69.390 MHz, 260 mm x 170 mm
               1280 1320 1346 1412 hborder 0
                800  802  807  819 vborder 0
               -hsync -vsync 
               VertFreq: 60 Hz, HorFreq: 49143 Hz
ASCII string: N121IA-L02
ASCII string: CMO
ASCII string: N121IA-L02
Checksum: 0x72 (valid)
EDID block does NOT conform to EDID 1.3!
	Missing name descriptor
	Missing monitor ranges
