
EDID (hex):
00ffffffffffff000dae3b1400000000
0d1f0104a51e13780228659759548e27
1e505400000001010101010101010101
010101010101423c80a070b024403020
a6002dbc1000001a353080a070b02440
3020a6002dbc1000001a000000fe0054
36335234803134304a43410a00000000
0001413199001000000a010a20200047

Extracted contents:
header:          00 ff ff ff ff ff ff 00
serial number:   0d ae 3b 14 00 00 00 00 0d 1f
version:         01 04
basic params:    a5 1e 13 78 02
chroma info:     28 65 97 59 54 8e 27 1e 50 54
established:     00 00 00
standard:        01 01 01 01 01 01 01 01 01 01 01 01 01 01 01 01
descriptor 1:    42 3c 80 a0 70 b0 24 40 30 20 a6 00 2d bc 10 00 00 1a
descriptor 2:    35 30 80 a0 70 b0 24 40 30 20 a6 00 2d bc 10 00 00 1a
descriptor 3:    00 00 00 fe 00 54 36 33 52 34 80 31 34 30 4a 43 41 0a
descriptor 4:    00 00 00 00 00 01 41 31 99 00 10 00 00 0a 01 0a 20 20
extensions:      00
checksum:        47

EDID version: 1.4
Manufacturer: CMN Model 143b Serial Number --
Made in week 13 of 2021
Digital display
8 bits per primary color channel
DisplayPort interface
Maximum image size: 30 cm x 19 cm
Gamma: 2.20
Supported color formats: RGB 4:4:4
First detailed timing includes the native pixel format and preferred refresh rate
Display x,y Chromaticity:
  Red:   0.5898, 0.3496
  Green: 0.3300, 0.5546
  Blue:  0.1533, 0.1191
  White: 0.3134, 0.3291
Established timings supported:
Standard timings supported:
Detailed mode: Clock 154.260 MHz, 301 mm x 188 mm
               1920 1968 2000 2080 hborder 0
               1200 1210 1216 1236 vborder 0
               +hsync -vsync 
               VertFreq: 60 Hz, HorFreq: 74163 Hz
Detailed mode: Clock 123.410 MHz, 301 mm x 188 mm
               1920 1968 2000 2080 hborder 0
               1200 1210 1216 1236 vborder 0
               +hsync -vsync 
               VertFreq: 48 Hz, HorFreq: 59331 Hz
ASCII string: T63R4
Manufacturer-specified data, tag 0
Checksum: 0x47 (valid)
EDID block does NOT conform to EDID 1.4!
	Missing name descriptor
	Missing monitor ranges
	Detailed block string not properly terminated
