
EDID (hex):
00ffffffffffff0030e4db0500000000
001c0104a51d1178068ed5a4544d9b27
0c505400000001010101010101010101
0101010101012e3680a070381f403020
350026a51000001a5c2b80a070381f40
3020350026a51000001a000000fe0059
54394737803133335746370a00000000
000141319e001100000a010a2020007b

Extracted contents:
header:          00 ff ff ff ff ff ff 00
serial number:   30 e4 db 05 00 00 00 00 00 1c
version:         01 04
basic params:    a5 1d 11 78 06
chroma info:     8e d5 a4 54 4d 9b 27 0c 50 54
established:     00 00 00
standard:        01 01 01 01 01 01 01 01 01 01 01 01 01 01 01 01
descriptor 1:    2e 36 80 a0 70 38 1f 40 30 20 35 00 26 a5 10 00 00 1a
descriptor 2:    5c 2b 80 a0 70 38 1f 40 30 20 35 00 26 a5 10 00 00 1a
descriptor 3:    00 00 00 fe 00 59 54 39 47 37 80 31 33 33 57 46 37 0a
descriptor 4:    00 00 00 00 00 01 41 31 9e 00 11 00 00 0a 01 0a 20 20
extensions:      00
checksum:        7b

EDID version: 1.4
Manufacturer: LGD Model 5db Serial Number --
Made in year 2018
Digital display
8 bits per primary color channel
DisplayPort interface
Maximum image size: 29 cm x 17 cm
Gamma: 2.20
Supported color formats: RGB 4:4:4
Default (sRGB) color space is primary color space
First detailed timing includes the native pixel format and preferred refresh rate
Display x,y Chromaticity:
  Red:   0.6425, 0.3281
  Green: 0.3037, 0.6074
  Blue:  0.1552, 0.0478
  White: 0.3134, 0.3291
Established timings supported:
Standard timings supported:
Detailed mode: Clock 138.700 MHz, 294 mm x 165 mm
               1920 1968 2000 2080 hborder 0
               1080 1083 1088 1111 vborder 0
               +hsync -vsync 
               VertFreq: 60 Hz, HorFreq: 66682 Hz
Detailed mode: Clock 111.000 MHz, 294 mm x 165 mm
               1920 1968 2000 2080 hborder 0
               1080 1083 1088 1111 vborder 0
               +hsync -vsync 
               VertFreq: 48 Hz, HorFreq: 53365 Hz
ASCII string: YT9G7
Manufacturer-specified data, tag 0
Checksum: 0x7b (valid)
EDID block does NOT conform to EDID 1.4!
	sRGB is signaled, but the chromaticities do not match
	Missing name descriptor
	Missing monitor ranges
	Detailed block string not properly terminated
