
EDID (hex):
00ffffffffffff002143021701000000
190d01020c1f176be80c90a057479826
10624cbfef8001010101010101010101
010101010101d43000905100274020a0
0300671f11080618000000fd00374c1e
508c000a202020202020000000000000
00000000000000000000000000000000
00000000000000000000000000000026

Extracted contents:
header:          00 ff ff ff ff ff ff 00
serial number:   21 43 02 17 01 00 00 00 19 0d
version:         01 02
basic params:    0c 1f 17 6b e8
chroma info:     0c 90 a0 57 47 98 26 10 62 4c
established:     bf ef 80
standard:        01 01 01 01 01 01 01 01 01 01 01 01 01 01 01 01
descriptor 1:    d4 30 00 90 51 00 27 40 20 a0 03 00 67 1f 11 08 06 18
descriptor 2:    00 00 00 fd 00 37 4c 1e 50 8c 00 0a 20 20 20 20 20 20
descriptor 3:    00 00 00 00 00 00 00 00 00 00 00 00 00 00 00 00 00 00
descriptor 4:    00 00 00 00 00 00 00 00 00 00 00 00 00 00 00 00 00 00
extensions:      00
checksum:        26

EDID version: 1.2
Manufacturer: HJC Model 1702 Serial Number --
Analog display, Input voltage level: 0.7/0.3 V
Sync: Separate Composite 
Maximum image size: 31 cm x 23 cm
Gamma: 2.07
DPMS levels: Standby Suspend Off
RGB color display
Display x,y Chromaticity:
  Red:   0.6250, 0.3398
  Green: 0.2802, 0.5937
  Blue:  0.1503, 0.0634
  White: 0.3828, 0.2968
Established timings supported:
  720x400@70Hz 9:5 HorFreq: 31469 Hz Clock: 28.320 MHz
  640x480@60Hz 4:3 HorFreq: 31469 Hz Clock: 25.175 MHz
  640x480@67Hz 4:3 HorFreq: 35000 Hz Clock: 30.240 MHz
  640x480@72Hz 4:3 HorFreq: 37900 Hz Clock: 31.500 MHz
  640x480@75Hz 4:3 HorFreq: 37500 Hz Clock: 31.500 MHz
  800x600@56Hz 4:3 HorFreq: 35200 Hz Clock: 36.000 MHz
  800x600@60Hz 4:3 HorFreq: 37900 Hz Clock: 40.000 MHz
  800x600@72Hz 4:3 HorFreq: 48100 Hz Clock: 50.000 MHz
  800x600@75Hz 4:3 HorFreq: 46900 Hz Clock: 49.500 MHz
  832x624@75Hz 4:3 HorFreq: 49726 Hz Clock: 57.284 MHz
  1024x768@60Hz 4:3 HorFreq: 48400 Hz Clock: 65.000 MHz
  1024x768@70Hz 4:3 HorFreq: 56500 Hz Clock: 75.000 MHz
  1024x768@75Hz 4:3 HorFreq: 60000 Hz Clock: 78.750 MHz
  1280x1024@75Hz 5:4 HorFreq: 80000 Hz Clock: 135.000 MHz
  1152x870@75Hz 192:145 HorFreq: 67500 Hz Clock: 108.000 MHz
Standard timings supported:
Detailed mode: Clock 125.000 MHz, 359 mm x 287 mm
               1280 1312 1472 1680 hborder 8
               1024 1024 1027 1063 vborder 6
               -hsync -vsync 
               VertFreq: 69 Hz, HorFreq: 74404 Hz
Monitor ranges (GTF): 55-76Hz V, 30-80kHz H, max dotclock 1400MHz
Manufacturer-specified data, tag 0
Manufacturer-specified data, tag 0
Checksum: 0x26 (valid)
EDID block does not conform at all!
	Bad year of manufacture
