edid-decode (hex):

00 ff ff ff ff ff ff 00 42 93 99 15 1f 5a 05 00
09 0e 01 03 68 1f 17 89 2a b9 99 a2 54 48 97 23
0d 4d 50 21 08 10 01 01 01 01 01 01 01 01 01 01
01 01 01 01 01 01 58 1b 00 78 50 20 21 30 0a 0a
2a 00 4c cf 10 00 00 1e 00 00 00 ff 00 46 46 57
4a 34 32 30 33 35 30 37 35 31 00 00 00 fc 00 50
53 2d 35 37 36 0a 20 20 20 20 20 20 00 00 00 fd
00 3c 3c 1f 32 07 20 20 20 20 20 20 20 20 00 2d

00 ff ff ff ff ff ff 00 42 93 99 15 1f 5a 05 00
09 0e 01 03 68 1f 17 89 2a b9 99 a2 54 48 97 23
0d 4d 50 21 08 10 01 01 01 01 01 01 01 01 01 01
01 01 01 01 01 01 58 1b 00 78 50 20 21 30 0a 0a
2a 00 4c cf 10 00 00 1e 00 00 00 ff 00 46 46 57
4a 34 32 30 33 35 30 37 35 31 00 00 00 fc 00 50
53 2d 35 37 36 0a 20 20 20 20 20 20 00 00 00 fd
00 3c 3c 1f 32 07 20 20 20 20 20 20 20 20 00 2d

----------------

Block 0, Base EDID:
  EDID Structure Version & Revision: 1.3
  Vendor & Product Identification:
    Manufacturer: PTS
    Model: 5529
    Serial Number: ...
    Made in: week 9 of 2004
  Basic Display Parameters & Features:
    Analog display
    Signal Level Standard: 0.700 : 0.000 : 0.700 V p-p
    Blank level equals black level
    Sync: Separate
    Maximum image size: 31 cm x 23 cm
    Gamma: 2.37
    DPMS levels: Off
    RGB color display
    First detailed timing is the preferred timing
  Color Characteristics:
    Red  : 0.6347, 0.3310
    Green: 0.2832, 0.5908
    Blue : 0.1386, 0.0517
    White: 0.3027, 0.3134
  Established Timings I & II:
    DMT 0x04:   640x480    59.940476 Hz   4:3     31.469 kHz     25.175000 MHz
    DMT 0x09:   800x600    60.316541 Hz   4:3     37.879 kHz     40.000000 MHz
    DMT 0x10:  1024x768    60.003840 Hz   4:3     48.363 kHz     65.000000 MHz
  Standard Timings: none
  Detailed Timing Descriptors:
    DTD 1:  1280x800    60.024010 Hz  16:10    50.000 kHz     70.000000 MHz (332 mm x 207 mm)
                 Hfront   10 Hsync  10 Hback  100 Hpol P
                 Vfront    2 Vsync  10 Vback   21 Vpol P
    Display Product Serial Number: ...
    Display Product Name: 'PS-576'
    Display Range Limits:
      Monitor ranges (Unknown (0x20)): 60-60 Hz V, 31-50 kHz H, max dotclock 70 MHz
Checksum: 0x2d

----------------

Block 1, Unknown EDID Extension Block 0x00:
  00 ff ff ff ff ff ff 00 42 93 99 15 1f 5a 05 00 '........B....Z..'
  09 0e 01 03 68 1f 17 89 2a b9 99 a2 54 48 97 23 '....h...*...TH.#'
  0d 4d 50 21 08 10 01 01 01 01 01 01 01 01 01 01 '.MP!............'
  01 01 01 01 01 01 58 1b 00 78 50 20 21 30 0a 0a '......X..xP !0..'
  2a 00 4c cf 10 00 00 1e 00 00 00 ff 00 46 46 57 '*.L..........FFW'
  4a 34 32 30 33 35 30 37 35 31 00 00 00 fc 00 50 'J420350751.....P'
  53 2d 35 37 36 0a 20 20 20 20 20 20 00 00 00 fd 'S-576.      ....'
  00 3c 3c 1f 32 07 20 20 20 20 20 20 20 20 00 2d '.<<.2.        .-'
Checksum: 0x2d

----------------

Failures:

Block 0, Base EDID:
  Detailed Timing Descriptor #1: Mismatch of image size 332x207 mm vs display size 310x230 mm.
  Display Range Limits: Unknown range class (0x20).
  Display Range Limits: Byte 11 is 0x20 instead of 0x0a.
Block 1, Base EDID:
  Unknown Extension Block.
EDID:
  Base EDID: The DTD max image size is 332x207mm, which is larger than the display size 310.0x230.0mm.
  Base EDID: EDID specified 0 extension block(s), but found 1 extension block(s).

EDID conformity: FAIL
