
EDID (hex):
00ffffffffffff003683303101000000
1716010308351e78efee91a3544c9926
0f5054af6e0031404540614081800101
010101010101023a801871382d40582c
450013292100001e21399030621a2740
68b0360033e61000001a662150b05100
1b30407036002ce61000001a000000fc
004d54433138320a20202020202000c1

Extracted contents:
header:          00 ff ff ff ff ff ff 00
serial number:   36 83 30 31 01 00 00 00 17 16
version:         01 03
basic params:    08 35 1e 78 ef
chroma info:     ee 91 a3 54 4c 99 26 0f 50 54
established:     af 6e 00
standard:        31 40 45 40 61 40 81 80 01 01 01 01 01 01 01 01
descriptor 1:    02 3a 80 18 71 38 2d 40 58 2c 45 00 13 29 21 00 00 1e
descriptor 2:    21 39 90 30 62 1a 27 40 68 b0 36 00 33 e6 10 00 00 1a
descriptor 3:    66 21 50 b0 51 00 1b 30 40 70 36 00 2c e6 10 00 00 1a
descriptor 4:    00 00 00 fc 00 4d 54 43 31 38 32 0a 20 20 20 20 20 20
extensions:      00
checksum:        c1

EDID version: 1.3
Manufacturer: MTC Model 3130 Serial Number --
Made in week 23 of 2012
Analog display, Input voltage level: 0.7/0.3 V
Sync: Separate 
Maximum image size: 53 cm x 30 cm
Gamma: 2.20
DPMS levels: Standby Suspend Off
RGB color display
Default (sRGB) color space is primary color space
First detailed timing is preferred timing
Supports GTF timings within operating range
Display x,y Chromaticity:
  Red:   0.6396, 0.3300
  Green: 0.2998, 0.5996
  Blue:  0.1503, 0.0595
  White: 0.3125, 0.3291
Established timings supported:
  720x400@70Hz 9:5 HorFreq: 31469 Hz Clock: 28.320 MHz
  640x480@60Hz 4:3 HorFreq: 31469 Hz Clock: 25.175 MHz
  640x480@72Hz 4:3 HorFreq: 37900 Hz Clock: 31.500 MHz
  640x480@75Hz 4:3 HorFreq: 37500 Hz Clock: 31.500 MHz
  800x600@56Hz 4:3 HorFreq: 35200 Hz Clock: 36.000 MHz
  800x600@60Hz 4:3 HorFreq: 37900 Hz Clock: 40.000 MHz
  800x600@75Hz 4:3 HorFreq: 46900 Hz Clock: 49.500 MHz
  832x624@75Hz 4:3 HorFreq: 49726 Hz Clock: 57.284 MHz
  1024x768@60Hz 4:3 HorFreq: 48400 Hz Clock: 65.000 MHz
  1024x768@70Hz 4:3 HorFreq: 56500 Hz Clock: 75.000 MHz
  1024x768@75Hz 4:3 HorFreq: 60000 Hz Clock: 78.750 MHz
Standard timings supported:
  640x480@60Hz 4:3 HorFreq: 31469 Hz Clock: 25.175 MHz
  800x600@60Hz 4:3 HorFreq: 37900 Hz Clock: 40.000 MHz
  1024x768@60Hz 4:3 HorFreq: 48400 Hz Clock: 65.000 MHz
  1280x1024@60Hz 5:4 HorFreq: 64000 Hz Clock: 108.000 MHz
Detailed mode: Clock 148.500 MHz, 531 mm x 297 mm
               1920 2008 2052 2200 hborder 0
               1080 1084 1089 1125 vborder 0
               +hsync +vsync 
               VertFreq: 60 Hz, HorFreq: 67500 Hz
Detailed mode: Clock 146.250 MHz, 307 mm x 230 mm
               1680 1784 1960 2240 hborder 0
               1050 1053 1059 1089 vborder 0
               +hsync -vsync 
               VertFreq: 59 Hz, HorFreq: 65290 Hz
Detailed mode: Clock 85.500 MHz, 300 mm x 230 mm
               1360 1424 1536 1792 hborder 0
                768  771  777  795 vborder 0
               +hsync -vsync 
               VertFreq: 60 Hz, HorFreq: 47712 Hz
Monitor name: MTC182
Checksum: 0xc1 (valid)
EDID block does NOT conform to EDID 1.3!
	Missing monitor ranges
