edid-decode (hex):

00 ff ff ff ff ff ff 00 1e e4 56 01 00 00 00 00
09 20 01 03 80 73 41 78 0b cf 74 a7 55 46 98 24
10 49 4b 21 08 00 81 80 95 00 90 40 01 01 a9 40
b3 00 61 40 01 01 9c 84 80 94 70 38 3c 40 30 20
e5 04 58 c1 10 00 00 18 55 36 80 94 70 38 3c 40
30 20 e5 04 58 c1 10 00 00 00 00 00 00 fc 00 41
52 5a 4f 50 41 0a 20 20 20 20 20 20 00 00 00 fd
00 30 90 1f aa 24 00 0a 20 20 20 20 20 20 01 15

02 03 2c f3 42 04 00 23 09 07 07 83 01 00 00 68
03 0c 00 10 00 88 48 00 68 1a 00 00 01 01 30 90
e6 e3 05 c0 00 e6 06 05 01 62 62 00 40 37 80 94
70 38 3c 40 30 20 e5 04 58 c1 10 00 00 18 81 6e
80 94 70 38 3c 40 30 20 e5 04 58 c1 10 00 00 18
00 00 00 00 00 00 00 00 00 00 00 00 00 00 00 00
00 00 00 00 00 00 00 00 00 00 00 00 00 00 00 00
00 00 00 00 00 00 00 00 00 00 00 00 00 00 00 2f

00 ff ff ff ff ff ff 00 1e e4 56 01 00 00 00 00
09 20 01 03 80 73 41 78 0b cf 74 a7 55 46 98 24
10 49 4b 21 08 00 81 80 95 00 90 40 01 01 a9 40
b3 00 61 40 01 01 9c 84 80 94 70 38 3c 40 30 20
e5 04 58 c1 10 00 00 18 55 36 80 94 70 38 3c 40
30 20 e5 04 58 c1 10 00 00 00 00 00 00 fc 00 41
52 5a 4f 50 41 0a 20 20 20 20 20 20 00 00 00 fd
00 30 90 1f aa 24 00 0a 20 20 20 20 20 20 01 15

02 03 2c f3 42 04 00 23 09 07 07 83 01 00 00 68
03 0c 00 10 00 88 48 00 68 1a 00 00 01 01 30 90
e6 e3 05 c0 00 e6 06 05 01 62 62 00 40 37 80 94
70 38 3c 40 30 20 e5 04 58 c1 10 00 00 18 81 6e
80 94 70 38 3c 40 30 20 e5 04 58 c1 10 00 00 18
00 00 00 00 00 00 00 00 00 00 00 00 00 00 00 00
00 00 00 00 00 00 00 00 00 00 00 00 00 00 00 00
00 00 00 00 00 00 00 00 00 00 00 00 00 00 00 2f

----------------

Block 0, Base EDID:
  EDID Structure Version & Revision: 1.3
  Vendor & Product Identification:
    Manufacturer: GWD
    Model: 342
    Made in: week 9 of 2022
  Basic Display Parameters & Features:
    Digital display
    Maximum image size: 115 cm x 65 cm
    Gamma: 2.20
    RGB color display
    First detailed timing is the preferred timing
    Supports GTF timings within operating range
  Color Characteristics:
    Red  : 0.6552, 0.3320
    Green: 0.2763, 0.5966
    Blue : 0.1416, 0.0654
    White: 0.2861, 0.2929
  Established Timings I & II:
    DMT 0x04:   640x480    59.940476 Hz   4:3     31.469 kHz     25.175000 MHz
    DMT 0x09:   800x600    60.316541 Hz   4:3     37.879 kHz     40.000000 MHz
    DMT 0x10:  1024x768    60.003840 Hz   4:3     48.363 kHz     65.000000 MHz
  Standard Timings:
    DMT 0x23:  1280x1024   60.019740 Hz   5:4     63.981 kHz    108.000000 MHz
    DMT 0x2f:  1440x900    59.887445 Hz  16:10    55.935 kHz    106.500000 MHz
    DMT 0x2a:  1400x1050   59.978442 Hz   4:3     65.317 kHz    121.750000 MHz
    DMT 0x33:  1600x1200   60.000000 Hz   4:3     75.000 kHz    162.000000 MHz
    DMT 0x3a:  1680x1050   59.954250 Hz  16:10    65.290 kHz    146.250000 MHz
    DMT 0x10:  1024x768    60.003840 Hz   4:3     48.363 kHz     65.000000 MHz
  Detailed Timing Descriptors:
    DTD 1:  1920x1080  143.998778 Hz  16:9    164.159 kHz    339.480000 MHz (344 mm x 193 mm)
                 Hfront   48 Hsync  32 Hback   68 Hpol N
                 Vfront   30 Vsync   5 Vback   25 Vpol N
    DTD 2:  1920x1080   58.998439 Hz  16:9     67.258 kHz    139.090000 MHz (analog composite, sync-on-green, 344 mm x 193 mm)
                 Hfront   48 Hsync  32 Hback   68 Hpol N
                 Vfront   30 Vsync   5 Vback   25 Vpol N
    Display Product Name: 'ARZOPA'
    Display Range Limits:
      Monitor ranges (GTF): 48-144 Hz V, 31-170 kHz H, max dotclock 360 MHz
  Extension blocks: 1
Checksum: 0x15

----------------

Block 1, CTA-861 Extension Block:
  Revision: 3
  Underscans IT Video Formats by default
  Basic audio support
  Supports YCbCr 4:4:4
  Supports YCbCr 4:2:2
  Native detailed modes: 3
  Video Data Block:
    VIC   4:  1280x720    60.000000 Hz  16:9     45.000 kHz     74.250000 MHz
  Audio Data Block:
    Linear PCM:
      Max channels: 2
      Supported sample rates (kHz): 48 44.1 32
      Supported sample sizes (bits): 24 20 16
  Speaker Allocation Data Block:
    FL/FR - Front Left/Right
  Vendor-Specific Data Block (HDMI), OUI 00-0C-03:
    Source physical address: 1.0.0.0
    Supports_AI
    DC_Y444
    Maximum TMDS clock: 360 MHz
  Vendor-Specific Data Block (AMD), OUI 00-00-1A:
    Version: 1.1
    Minimum Refresh Rate: 48 Hz
    Maximum Refresh Rate: 144 Hz
    Flags 1.x: 0xe6 (MCCS)
  Colorimetry Data Block:
    BT2020YCC
    BT2020RGB
  HDR Static Metadata Data Block:
    Electro optical transfer functions:
      Traditional gamma - SDR luminance range
      SMPTE ST2084
    Supported static metadata descriptors:
      Static metadata type 1
    Desired content max luminance: 98 (417.710 cd/m^2)
    Desired content max frame-average luminance: 98 (417.710 cd/m^2)
    Desired content min luminance: 0 (0.000 cd/m^2)
  Detailed Timing Descriptors:
    DTD 3:  1920x1080   59.995249 Hz  16:9     68.395 kHz    141.440000 MHz (344 mm x 193 mm)
                 Hfront   48 Hsync  32 Hback   68 Hpol N
                 Vfront   30 Vsync   5 Vback   25 Vpol N
    DTD 4:  1920x1080  119.994740 Hz  16:9    136.794 kHz    282.890000 MHz (344 mm x 193 mm)
                 Hfront   48 Hsync  32 Hback   68 Hpol N
                 Vfront   30 Vsync   5 Vback   25 Vpol N
Checksum: 0x2f  Unused space in Extension Block: 47 bytes

----------------

Block 2, Unknown EDID Extension Block 0x00:
  00 ff ff ff ff ff ff 00 1e e4 56 01 00 00 00 00 '..........V.....'
  09 20 01 03 80 73 41 78 0b cf 74 a7 55 46 98 24 '. ...sAx..t.UF.$'
  10 49 4b 21 08 00 81 80 95 00 90 40 01 01 a9 40 '.IK!.......@...@'
  b3 00 61 40 01 01 9c 84 80 94 70 38 3c 40 30 20 '..a@......p8<@0 '
  e5 04 58 c1 10 00 00 18 55 36 80 94 70 38 3c 40 '..X.....U6..p8<@'
  30 20 e5 04 58 c1 10 00 00 00 00 00 00 fc 00 41 '0 ..X..........A'
  52 5a 4f 50 41 0a 20 20 20 20 20 20 00 00 00 fd 'RZOPA.      ....'
  00 30 90 1f aa 24 00 0a 20 20 20 20 20 20 01 15 '.0...$..      ..'
Checksum: 0x15

----------------

Block 3, CTA-861 Extension Block:
  Revision: 3
  Underscans IT Video Formats by default
  Basic audio support
  Supports YCbCr 4:4:4
  Supports YCbCr 4:2:2
  Native detailed modes: 3
  Video Data Block:
    VIC   4:  1280x720    60.000000 Hz  16:9     45.000 kHz     74.250000 MHz
  Audio Data Block:
    Linear PCM:
      Max channels: 2
      Supported sample rates (kHz): 48 44.1 32
      Supported sample sizes (bits): 24 20 16
  Speaker Allocation Data Block:
    FL/FR - Front Left/Right
  Vendor-Specific Data Block (HDMI), OUI 00-0C-03:
    Source physical address: 1.0.0.0
    Supports_AI
    DC_Y444
    Maximum TMDS clock: 360 MHz
  Vendor-Specific Data Block (AMD), OUI 00-00-1A:
    Version: 1.1
    Minimum Refresh Rate: 48 Hz
    Maximum Refresh Rate: 144 Hz
    Flags 1.x: 0xe6 (MCCS)
  Colorimetry Data Block:
    BT2020YCC
    BT2020RGB
  HDR Static Metadata Data Block:
    Electro optical transfer functions:
      Traditional gamma - SDR luminance range
      SMPTE ST2084
    Supported static metadata descriptors:
      Static metadata type 1
    Desired content max luminance: 98 (417.710 cd/m^2)
    Desired content max frame-average luminance: 98 (417.710 cd/m^2)
    Desired content min luminance: 0 (0.000 cd/m^2)
  Detailed Timing Descriptors:
    DTD 5:  1920x1080   59.995249 Hz  16:9     68.395 kHz    141.440000 MHz (344 mm x 193 mm)
                 Hfront   48 Hsync  32 Hback   68 Hpol N
                 Vfront   30 Vsync   5 Vback   25 Vpol N
    DTD 6:  1920x1080  119.994740 Hz  16:9    136.794 kHz    282.890000 MHz (344 mm x 193 mm)
                 Hfront   48 Hsync  32 Hback   68 Hpol N
                 Vfront   30 Vsync   5 Vback   25 Vpol N
Checksum: 0x2f  Unused space in Extension Block: 47 bytes

----------------

Warnings:

Block 1, CTA-861 Extension Block:
  Colorimetry Data Block: Set the sRGB colorimetry bit to avoid interop issues.
Block 3, CTA-861 Extension Block:
  Colorimetry Data Block: Set the sRGB colorimetry bit to avoid interop issues.
EDID:
  CTA-861: Multiple native progressive timings are defined.

Failures:

Block 0, Base EDID:
  Detailed Timing Descriptor #1: Mismatch of image size 344x193 mm vs display size 1150x650 mm.
  Detailed Timing Descriptor #2: Mismatch of image size 344x193 mm vs display size 1150x650 mm.
Block 1, CTA-861 Extension Block:
  Vendor-Specific Data Block (HDMI), OUI 00-0C-03: HDMI VSDB Max TMDS rate is > 340.
  Detailed Timing Descriptor #3: Mismatch of image size 344x193 mm vs display size 1150x650 mm.
  Detailed Timing Descriptor #4: Mismatch of image size 344x193 mm vs display size 1150x650 mm.
  Missing VCDB, needed for Set Selectable RGB Quantization to avoid interop issues.
Block 2, Base EDID:
  Unknown Extension Block.
Block 3, CTA-861 Extension Block:
  Video Data Block: Duplicate VIC 4.
  Speaker Allocation Data Block: Only one instance of this Data Block is allowed.
  Vendor-Specific Data Block (HDMI), OUI 00-0C-03: HDMI VSDB Max TMDS rate is > 340.
  Colorimetry Data Block: Only one instance of this Data Block is allowed.
  HDR Static Metadata Data Block: Only one instance of this Data Block is allowed.
  Detailed Timing Descriptor #5: Mismatch of image size 344x193 mm vs display size 1150x650 mm.
  Detailed Timing Descriptor #6: Mismatch of image size 344x193 mm vs display size 1150x650 mm.
  Missing VCDB, needed for Set Selectable RGB Quantization to avoid interop issues.
EDID:
  Base EDID: EDID specified 1 extension block(s), but found 3 extension block(s).
  Base EDID: EDID 1.3 requires a Block Map Extension in Block 1 if there are more than 2 blocks in the EDID.

EDID conformity: FAIL
