edid-decode (hex):

00 ff ff ff ff ff ff 00 6b 5a 35 e4 01 01 01 01
34 1e 01 03 08 28 19 78 2e eb d5 ac 4f 44 a4 22
13 50 54 2d cf 00 01 01 01 01 01 01 01 01 01 01
81 80 01 01 01 01 9a 29 a0 d0 51 84 22 30 50 98
36 00 98 ff 10 00 00 00 00 00 00 ff 00 56 39 55
31 37 30 31 30 30 30 30 31 0a 00 00 00 fd 00 32
3c 18 53 0c 00 0a 20 20 20 20 20 20 00 00 00 fc
00 76 67 61 5f 31 34 34 30 0a 20 20 20 20 00 fa

00 ff ff ff ff ff ff 00 6b 5a 35 e4 01 01 01 01
34 1e 01 03 08 28 19 78 2e eb d5 ac 4f 44 a4 22
13 50 54 2d cf 00 01 01 01 01 01 01 01 01 01 01
81 80 01 01 01 01 9a 29 a0 d0 51 84 22 30 50 98
36 00 98 ff 10 00 00 00 00 00 00 ff 00 56 39 55
31 37 30 31 30 30 30 30 31 0a 00 00 00 fd 00 32
3c 18 53 0c 00 0a 20 20 20 20 20 20 00 00 00 fc
00 76 67 61 5f 31 34 34 30 0a 20 20 20 20 00 fa

----------------

Block 0, Base EDID:
  EDID Structure Version & Revision: 1.3
  Vendor & Product Identification:
    Manufacturer: ZZZ
    Model: 58421
    Serial Number: ...
    Made in: week 52 of 2020
  Basic Display Parameters & Features:
    Analog display
    Signal Level Standard: 0.700 : 0.300 : 1.000 V p-p
    Blank level equals black level
    Sync: Separate
    Maximum image size: 40 cm x 25 cm
    Gamma: 2.20
    DPMS levels: Off
    RGB color display
    Default (sRGB) color space is primary color space
    First detailed timing is the preferred timing
  Color Characteristics:
    Red  : 0.6748, 0.3105
    Green: 0.2675, 0.6435
    Blue : 0.1357, 0.0751
    White: 0.3134, 0.3291
  Established Timings I & II:
    DMT 0x04:   640x480    59.940476 Hz   4:3     31.469 kHz     25.175000 MHz
    DMT 0x05:   640x480    72.808802 Hz   4:3     37.861 kHz     31.500000 MHz
    DMT 0x06:   640x480    75.000000 Hz   4:3     37.500 kHz     31.500000 MHz
    DMT 0x09:   800x600    60.316541 Hz   4:3     37.879 kHz     40.000000 MHz
    DMT 0x0a:   800x600    72.187572 Hz   4:3     48.077 kHz     50.000000 MHz
    DMT 0x0b:   800x600    75.000000 Hz   4:3     46.875 kHz     49.500000 MHz
    DMT 0x10:  1024x768    60.003840 Hz   4:3     48.363 kHz     65.000000 MHz
    DMT 0x11:  1024x768    70.069359 Hz   4:3     56.476 kHz     75.000000 MHz
    DMT 0x12:  1024x768    75.028582 Hz   4:3     60.023 kHz     78.750000 MHz
    DMT 0x24:  1280x1024   75.024675 Hz   5:4     79.976 kHz    135.000000 MHz
  Standard Timings:
    DMT 0x23:  1280x1024   60.019740 Hz   5:4     63.981 kHz    108.000000 MHz
  Detailed Timing Descriptors:
    DTD 1:  1440x900    59.887445 Hz  16:10    55.935 kHz    106.500000 MHz (analog composite, sync-on-green, 408 mm x 255 mm)
                 Hfront   80 Hsync 152 Hback  232 Hpol N
                 Vfront    3 Vsync   6 Vback   25 Vpol N
    Display Product Serial Number: ...
    Display Range Limits:
      Monitor ranges (GTF): 50-60 Hz V, 24-83 kHz H, max dotclock 120 MHz
    Display Product Name: 'vga_1440'
Checksum: 0xfa

----------------

Block 1, Unknown EDID Extension Block 0x00:
  00 ff ff ff ff ff ff 00 6b 5a 35 e4 01 01 01 01 '........kZ5.....'
  34 1e 01 03 08 28 19 78 2e eb d5 ac 4f 44 a4 22 '4....(.x....OD."'
  13 50 54 2d cf 00 01 01 01 01 01 01 01 01 01 01 '.PT-............'
  81 80 01 01 01 01 9a 29 a0 d0 51 84 22 30 50 98 '.......)..Q."0P.'
  36 00 98 ff 10 00 00 00 00 00 00 ff 00 56 39 55 '6............V9U'
  31 37 30 31 30 30 30 30 31 0a 00 00 00 fd 00 32 '170100001......2'
  3c 18 53 0c 00 0a 20 20 20 20 20 20 00 00 00 fc '<.S...      ....'
  00 76 67 61 5f 31 34 34 30 0a 20 20 20 20 00 fa '.vga_1440.    ..'
Checksum: 0xfa

----------------

Warnings:

Block 0, Base EDID:
  Detailed Timing Descriptor #1: DTD is similar but not identical to DMT 0x2f.

Failures:

Block 0, Base EDID:
  Basic Display Parameters & Features: sRGB is signaled, but the chromaticities do not match.
Block 1, Base EDID:
  Unknown Extension Block.
EDID:
  Base EDID: Some timings are out of range of the Monitor Ranges:
    Vertical Freq: 59.887 - 75.029 Hz (Monitor: 50.000 - 60.000 Hz)
    Maximum Clock: 135.000 MHz (Monitor: 120.000 MHz)
  Base EDID: EDID specified 0 extension block(s), but found 1 extension block(s).

EDID conformity: FAIL
