
EDID (hex):
00ffffffffffff001e6d714b47770100
03120103802f1e780aaec5a2574a9c25
125054a56e0081809500d1c0b3010101
0101010101019a29a0d0518422305098
360099e61000001c1a3680a070381f40
302035009ae71000001c000000fd0039
4b1f5412000a202020202020000000fc
0031394c5334442d5a420a2020200029

Extracted contents:
header:          00 ff ff ff ff ff ff 00
serial number:   1e 6d 71 4b 47 77 01 00 03 12
version:         01 03
basic params:    80 2f 1e 78 0a
chroma info:     ae c5 a2 57 4a 9c 25 12 50 54
established:     a5 6e 00
standard:        81 80 95 00 d1 c0 b3 01 01 01 01 01 01 01 01 01
descriptor 1:    9a 29 a0 d0 51 84 22 30 50 98 36 00 99 e6 10 00 00 1c
descriptor 2:    1a 36 80 a0 70 38 1f 40 30 20 35 00 9a e7 10 00 00 1c
descriptor 3:    00 00 00 fd 00 39 4b 1f 54 12 00 0a 20 20 20 20 20 20
descriptor 4:    00 00 00 fc 00 31 39 4c 53 34 44 2d 5a 42 0a 20 20 20
extensions:      00
checksum:        29

EDID version: 1.3
Manufacturer: GSM Model 4b71 Serial Number --
Made in week 3 of 2008
Digital display
Maximum image size: 47 cm x 30 cm
Gamma: 2.20
RGB color display
First detailed timing is preferred timing
Display x,y Chromaticity:
  Red:   0.6347, 0.3417
  Green: 0.2919, 0.6113
  Blue:  0.1474, 0.0703
  White: 0.3134, 0.3291
Established timings supported:
  720x400@70Hz 9:5 HorFreq: 31469 Hz Clock: 28.320 MHz
  640x480@60Hz 4:3 HorFreq: 31469 Hz Clock: 25.175 MHz
  640x480@75Hz 4:3 HorFreq: 37500 Hz Clock: 31.500 MHz
  800x600@60Hz 4:3 HorFreq: 37900 Hz Clock: 40.000 MHz
  800x600@75Hz 4:3 HorFreq: 46900 Hz Clock: 49.500 MHz
  832x624@75Hz 4:3 HorFreq: 49726 Hz Clock: 57.284 MHz
  1024x768@60Hz 4:3 HorFreq: 48400 Hz Clock: 65.000 MHz
  1024x768@70Hz 4:3 HorFreq: 56500 Hz Clock: 75.000 MHz
  1024x768@75Hz 4:3 HorFreq: 60000 Hz Clock: 78.750 MHz
Standard timings supported:
  1280x1024@60Hz 5:4 HorFreq: 64000 Hz Clock: 108.000 MHz
  1440x900@60Hz 16:10 HorFreq: 55500 Hz Clock: 88.750 MHz
  1920x1080@60Hz 16:9
  1680x1050@61Hz 16:10
Detailed mode: Clock 106.500 MHz, 409 mm x 230 mm
               1440 1520 1672 1904 hborder 0
                900  903  909  934 vborder 0
               -hsync +vsync 
               VertFreq: 59 Hz, HorFreq: 55934 Hz
Detailed mode: Clock 138.500 MHz, 410 mm x 231 mm
               1920 1968 2000 2080 hborder 0
               1080 1083 1088 1111 vborder 0
               -hsync +vsync 
               VertFreq: 59 Hz, HorFreq: 66586 Hz
Monitor ranges (GTF): 57-75Hz V, 31-84kHz H, max dotclock 180MHz
Monitor name: 19LS4D-ZB
Checksum: 0x29 (valid)
