
EDID (hex):
00ffffffffffff0006af793400000000
001a0104a51e177802f6a59856549827
0d505400000001010101010101010101
01010101010164190040410026302616
360030e4100000180000000000000000
00000000000000000000000000fe0041
554f0a202020202020202020000000fe
004731353058544e30332e34200a0001

Extracted contents:
header:          00 ff ff ff ff ff ff 00
serial number:   06 af 79 34 00 00 00 00 00 1a
version:         01 04
basic params:    a5 1e 17 78 02
chroma info:     f6 a5 98 56 54 98 27 0d 50 54
established:     00 00 00
standard:        01 01 01 01 01 01 01 01 01 01 01 01 01 01 01 01
descriptor 1:    64 19 00 40 41 00 26 30 26 16 36 00 30 e4 10 00 00 18
descriptor 2:    00 00 00 00 00 00 00 00 00 00 00 00 00 00 00 00 00 00
descriptor 3:    00 00 00 fe 00 41 55 4f 0a 20 20 20 20 20 20 20 20 20
descriptor 4:    00 00 00 fe 00 47 31 35 30 58 54 4e 30 33 2e 34 20 0a
extensions:      00
checksum:        01

EDID version: 1.4
Manufacturer: AUO Model 3479 Serial Number --
Made in year 2016
Digital display
8 bits per primary color channel
DisplayPort interface
Maximum image size: 30 cm x 23 cm
Gamma: 2.20
Supported color formats: RGB 4:4:4
First detailed timing includes the native pixel format and preferred refresh rate
Display x,y Chromaticity:
  Red:   0.5966, 0.3388
  Green: 0.3291, 0.5957
  Blue:  0.1542, 0.0527
  White: 0.3134, 0.3291
Established timings supported:
Standard timings supported:
Detailed mode: Clock 65.000 MHz, 304 mm x 228 mm
               1024 1062 1084 1344 hborder 0
                768  771  777  806 vborder 0
               -hsync -vsync 
               VertFreq: 60 Hz, HorFreq: 48363 Hz
Manufacturer-specified data, tag 0
ASCII string: AUO
ASCII string: G150XTN03.4 
Checksum: 0x1 (valid)
EDID block does NOT conform to EDID 1.4!
	Missing name descriptor
	Missing monitor ranges
