
EDID (hex):
00ffffffffffff0025cc050000000000
00130103802213780ac8859e57549b26
12505400000001010101010101010101
010101010101c61b567f500019301f15
340058c2100000180000000000000000
00000000000000000000000000fe0049
4e4c0a20202020202020202000000000
004254313536475730315632321000a6

Extracted contents:
header:          00 ff ff ff ff ff ff 00
serial number:   25 cc 05 00 00 00 00 00 00 13
version:         01 03
basic params:    80 22 13 78 0a
chroma info:     c8 85 9e 57 54 9b 26 12 50 54
established:     00 00 00
standard:        01 01 01 01 01 01 01 01 01 01 01 01 01 01 01 01
descriptor 1:    c6 1b 56 7f 50 00 19 30 1f 15 34 00 58 c2 10 00 00 18
descriptor 2:    00 00 00 00 00 00 00 00 00 00 00 00 00 00 00 00 00 00
descriptor 3:    00 00 00 fe 00 49 4e 4c 0a 20 20 20 20 20 20 20 20 20
descriptor 4:    00 00 00 00 00 42 54 31 35 36 47 57 30 31 56 32 32 10
extensions:      00
checksum:        a6

EDID version: 1.3
Manufacturer: INL Model 5 Serial Number --
Made in year 2009
Digital display
Maximum image size: 34 cm x 19 cm
Gamma: 2.20
RGB color display
First detailed timing is preferred timing
Display x,y Chromaticity:
  Red:   0.6201, 0.3398
  Green: 0.3300, 0.6054
  Blue:  0.1503, 0.0703
  White: 0.3134, 0.3291
Established timings supported:
Standard timings supported:
Detailed mode: Clock 71.100 MHz, 344 mm x 194 mm
               1366 1397 1418 1493 hborder 0
                768  771  775  793 vborder 0
               -hsync -vsync 
               VertFreq: 60 Hz, HorFreq: 47622 Hz
Manufacturer-specified data, tag 0
ASCII string: INL
Manufacturer-specified data, tag 0
Checksum: 0xa6 (valid)
EDID block does NOT conform to EDID 1.3!
	Missing name descriptor
	Missing monitor ranges
