
EDID (hex):
00ffffffffffff0030e4d90200000000
00140104902213780a15d59e59509826
0e505400000001010101010101010101
0101010101017e3680b070381d403020
350058c210000018542480b070381d40
3020350058c210000018000000fe004d
43364a4e803135365746310a00000000
000041319e0000000002010a20200035

Extracted contents:
header:          00 ff ff ff ff ff ff 00
serial number:   30 e4 d9 02 00 00 00 00 00 14
version:         01 04
basic params:    90 22 13 78 0a
chroma info:     15 d5 9e 59 50 98 26 0e 50 54
established:     00 00 00
standard:        01 01 01 01 01 01 01 01 01 01 01 01 01 01 01 01
descriptor 1:    7e 36 80 b0 70 38 1d 40 30 20 35 00 58 c2 10 00 00 18
descriptor 2:    54 24 80 b0 70 38 1d 40 30 20 35 00 58 c2 10 00 00 18
descriptor 3:    00 00 00 fe 00 4d 43 36 4a 4e 80 31 35 36 57 46 31 0a
descriptor 4:    00 00 00 00 00 00 41 31 9e 00 00 00 00 02 01 0a 20 20
extensions:      00
checksum:        35

EDID version: 1.4
Manufacturer: LGD Model 2d9 Serial Number --
Made in year 2010
Digital display
6 bits per primary color channel
Digital interface is not defined
Maximum image size: 34 cm x 19 cm
Gamma: 2.20
Supported color formats: RGB 4:4:4, YCrCb 4:4:4
First detailed timing includes the native pixel format and preferred refresh rate
Display x,y Chromaticity:
  Red:   0.6171, 0.3486
  Green: 0.3134, 0.5947
  Blue:  0.1513, 0.0556
  White: 0.3134, 0.3291
Established timings supported:
Standard timings supported:
Detailed mode: Clock 139.500 MHz, 344 mm x 194 mm
               1920 1968 2000 2096 hborder 0
               1080 1083 1088 1109 vborder 0
               -hsync -vsync 
               VertFreq: 60 Hz, HorFreq: 66555 Hz
Detailed mode: Clock 93.000 MHz, 344 mm x 194 mm
               1920 1968 2000 2096 hborder 0
               1080 1083 1088 1109 vborder 0
               -hsync -vsync 
               VertFreq: 40 Hz, HorFreq: 44370 Hz
ASCII string: MC6JN
Manufacturer-specified data, tag 0
Checksum: 0x35 (valid)
EDID block does NOT conform to EDID 1.4!
	Missing name descriptor
	Missing monitor ranges
	Detailed block string not properly terminated
