
EDID (hex):
00ffffffffffff00320c00f200000000
0011010380211578eaba709859528c28
2550542108008180a940010101010101
010101010101e33a805a70b032401e1e
13004bcf100000190000000000000000
00000000000000000000000000fe0057
36343947043135345755310a000000fe
00283e4c53739bbaff02010a202000aa

edid-decode (hex):

00 ff ff ff ff ff ff 00 32 0c 00 f2 00 00 00 00
00 11 01 03 80 21 15 78 ea ba 70 98 59 52 8c 28
25 50 54 21 08 00 81 80 a9 40 01 01 01 01 01 01
01 01 01 01 01 01 e3 3a 80 5a 70 b0 32 40 1e 1e
13 00 4b cf 10 00 00 19 00 00 00 00 00 00 00 00
00 00 00 00 00 00 00 00 00 00 00 00 00 fe 00 57
36 34 39 47 04 31 35 34 57 55 31 0a 00 00 00 fe
00 28 3e 4c 53 73 9b ba ff 02 01 0a 20 20 00 aa

----------------

Block 0, Base EDID:
  EDID Structure Version & Revision: 1.3
  Vendor & Product Identification:
    Manufacturer: LPL
    Model: 61952
    Made in: 2007
  Basic Display Parameters & Features:
    Digital display
    Maximum image size: 33 cm x 21 cm
    Gamma: 2.20
    DPMS levels: Standby Suspend Off
    RGB color display
    First detailed timing is the preferred timing
  Color Characteristics:
    Red  : 0.5957, 0.3505
    Green: 0.3222, 0.5488
    Blue : 0.1572, 0.1474
    White: 0.3125, 0.3281
  Established Timings I & II:
    DMT 0x04:   640x480    59.940476 Hz   4:3     31.469 kHz     25.175000 MHz
    DMT 0x09:   800x600    60.316541 Hz   4:3     37.879 kHz     40.000000 MHz
    DMT 0x10:  1024x768    60.003840 Hz   4:3     48.363 kHz     65.000000 MHz
  Standard Timings:
    DMT 0x23:  1280x1024   60.019740 Hz   5:4     63.981 kHz    108.000000 MHz
    DMT 0x33:  1600x1200   60.000000 Hz   4:3     75.000 kHz    162.000000 MHz
  Detailed Timing Descriptors:
    DTD 1:  1920x1200   60.000000 Hz  16:10    75.000 kHz    150.750000 MHz (331 mm x 207 mm)
                 Hfront   30 Hsync  30 Hback   30 Hpol N
                 Vfront    1 Vsync   3 Vback   46 Vpol N
    Empty Descriptor
    Alphanumeric Data String: 'W649G'
    Alphanumeric Data String: '(>LSs'
Checksum: 0xaa
