
EDID (hex):
00ffffffffffff0015c38223b7679b02
1a170104a53c2278c22795a9544f9e26
0a5054a10800d100d1c0a94081808140
81c001010101565e00a0a0a029503020
350055502100001a21390000a3a01c50
7808351055502100001c000000fd003b
3d1f5919000a202020202020000000fc
00455632373336570a20202020200189
020312c045100403020123091f078301
0000023a801871382d40582c45005550
2100001e011d007251d01e206e285500
55502100001e8c0ad08a20e02d10103e
96005550210000188c0ad08a20e02d10
103e9600c05011000018d50980a020e0
2d101060a200c0501100001800000000
000000000000000000000000000000e0

Extracted contents:
header:          00 ff ff ff ff ff ff 00
serial number:   15 c3 82 23 b7 67 9b 02 1a 17
version:         01 04
basic params:    a5 3c 22 78 c2
chroma info:     27 95 a9 54 4f 9e 26 0a 50 54
established:     a1 08 00
standard:        d1 00 d1 c0 a9 40 81 80 81 40 81 c0 01 01 01 01
descriptor 1:    56 5e 00 a0 a0 a0 29 50 30 20 35 00 55 50 21 00 00 1a
descriptor 2:    21 39 00 00 a3 a0 1c 50 78 08 35 10 55 50 21 00 00 1c
descriptor 3:    00 00 00 fd 00 3b 3d 1f 59 19 00 0a 20 20 20 20 20 20
descriptor 4:    00 00 00 fc 00 45 56 32 37 33 36 57 0a 20 20 20 20 20
extensions:      01
checksum:        89

EDID version: 1.4
Manufacturer: ENC Model 2382 Serial Number --
Made in week 26 of 2013
Digital display
8 bits per primary color channel
DisplayPort interface
Maximum image size: 60 cm x 34 cm
Gamma: 2.20
DPMS levels: Standby Suspend
Supported color formats: RGB 4:4:4
First detailed timing includes the native pixel format and preferred refresh rate
Display x,y Chromaticity:
  Red:   0.6601, 0.3300
  Green: 0.3095, 0.6201
  Blue:  0.1503, 0.0400
  White: 0.3134, 0.3291
Established timings supported:
  720x400@70Hz 9:5 HorFreq: 31469 Hz Clock: 28.320 MHz
  640x480@60Hz 4:3 HorFreq: 31469 Hz Clock: 25.175 MHz
  800x600@60Hz 4:3 HorFreq: 37900 Hz Clock: 40.000 MHz
  1024x768@60Hz 4:3 HorFreq: 48400 Hz Clock: 65.000 MHz
Standard timings supported:
  1920x1200@60Hz 16:10 HorFreq: 74000 Hz Clock: 154.000 MHz
  1920x1080@60Hz 16:9
  1600x1200@60Hz 4:3 HorFreq: 75000 Hz Clock: 162.000 MHz
  1280x1024@60Hz 5:4 HorFreq: 64000 Hz Clock: 108.000 MHz
  1280x960@60Hz 4:3 HorFreq: 60000 Hz Clock: 108.000 MHz
  1280x720@60Hz 16:9
Detailed mode: Clock 241.500 MHz, 597 mm x 336 mm
               2560 2608 2640 2720 hborder 0
               1440 1443 1448 1481 vborder 0
               +hsync -vsync 
               VertFreq: 59 Hz, HorFreq: 88786 Hz
Detailed mode: Clock 146.250 MHz, 597 mm x 336 mm
               2560 2680 2944 3328 hborder 0
               1440 1443 1448 1468 vborder 0
               -hsync +vsync 
               VertFreq: 29 Hz, HorFreq: 43945 Hz
Monitor ranges (GTF): 59-61Hz V, 31-89kHz H, max dotclock 250MHz
Monitor name: EV2736W
Has 1 extension blocks
Checksum: 0x89 (valid)

CTA extension block
Extension version: 3
14 bytes of CTA data
  Video data block
    VIC  16 1920x1080@60Hz 16:9  HorFreq: 67500 Hz Clock: 148.500 MHz
    VIC   4 1280x720@60Hz 16:9  HorFreq: 45000 Hz Clock: 74.250 MHz
    VIC   3 720x480@60Hz 16:9  HorFreq: 31469 Hz Clock: 27.000 MHz
    VIC   2 720x480@60Hz 4:3  HorFreq: 31469 Hz Clock: 27.000 MHz
    VIC   1 640x480@60Hz 4:3  HorFreq: 31469 Hz Clock: 25.175 MHz
  Audio data block
    Linear PCM, max channels 2
      Supported sample rates (kHz): 96 88.2 48 44.1 32
      Supported sample sizes (bits): 24 20 16
  Speaker allocation data block
    Speaker map:
      FL/FR - Front Left/Right
Underscans PC formats by default
Basic audio support
0 native detailed modes
Detailed mode: Clock 148.500 MHz, 597 mm x 336 mm
               1920 2008 2052 2200 hborder 0
               1080 1084 1089 1125 vborder 0
               +hsync +vsync 
               VertFreq: 60 Hz, HorFreq: 67500 Hz
Detailed mode: Clock 74.250 MHz, 597 mm x 336 mm
               1280 1390 1430 1650 hborder 0
                720  725  730  750 vborder 0
               +hsync +vsync 
               VertFreq: 60 Hz, HorFreq: 45000 Hz
Detailed mode: Clock 27.000 MHz, 597 mm x 336 mm
                720  736  798  858 hborder 0
                480  489  495  525 vborder 0
               -hsync -vsync 
               VertFreq: 59 Hz, HorFreq: 31468 Hz
Detailed mode: Clock 27.000 MHz, 448 mm x 336 mm
                720  736  798  858 hborder 0
                480  489  495  525 vborder 0
               -hsync -vsync 
               VertFreq: 59 Hz, HorFreq: 31468 Hz
Detailed mode: Clock 25.170 MHz, 448 mm x 336 mm
                640  656  752  800 hborder 0
                480  490  492  525 vborder 0
               -hsync -vsync 
               VertFreq: 59 Hz, HorFreq: 31462 Hz
Checksum: 0xe0 (valid)

Warning: One or more of the timings is out of range of the Monitor Ranges:
  Vertical Freq: 29 - 70 Hz
  Horizontal Freq: 31462 - 88786 Hz
  Maximum Clock: 241.500 MHz
