
EDID (hex):
00ffffffffffff004ca30da001010101
0d1601031e0000780ede50a3544c9926
0f5054bfef80904f81998159811981c0
714f61594559a00f200031581c202880
1400000000000018662156aa51001e30
468f330000000000001e9a29a0d05184
22305098360000000000001c000000fc
004550534f4e20504a0a2020202000b7

Extracted contents:
header:          00 ff ff ff ff ff ff 00
serial number:   4c a3 0d a0 01 01 01 01 0d 16
version:         01 03
basic params:    1e 00 00 78 0e
chroma info:     de 50 a3 54 4c 99 26 0f 50 54
established:     bf ef 80
standard:        90 4f 81 99 81 59 81 19 81 c0 71 4f 61 59 45 59
descriptor 1:    a0 0f 20 00 31 58 1c 20 28 80 14 00 00 00 00 00 00 18
descriptor 2:    66 21 56 aa 51 00 1e 30 46 8f 33 00 00 00 00 00 00 1e
descriptor 3:    9a 29 a0 d0 51 84 22 30 50 98 36 00 00 00 00 00 00 1c
descriptor 4:    00 00 00 fc 00 45 50 53 4f 4e 20 50 4a 0a 20 20 20 20
extensions:      00
checksum:        b7

EDID version: 1.3
Manufacturer: SEC Model a00d Serial Number --
Made in week 13 of 2012
Analog display, Input voltage level: 0.7/0.3 V
Configurable signal levels
Sync: Separate Composite SyncOnGreen 
Image size is variable
Gamma: 2.20
RGB color display
Default (sRGB) color space is primary color space
First detailed timing is preferred timing
Display x,y Chromaticity:
  Red:   0.6396, 0.3291
  Green: 0.2998, 0.5996
  Blue:  0.1494, 0.0595
  White: 0.3125, 0.3281
Established timings supported:
  720x400@70Hz 9:5 HorFreq: 31469 Hz Clock: 28.320 MHz
  640x480@60Hz 4:3 HorFreq: 31469 Hz Clock: 25.175 MHz
  640x480@67Hz 4:3 HorFreq: 35000 Hz Clock: 30.240 MHz
  640x480@72Hz 4:3 HorFreq: 37900 Hz Clock: 31.500 MHz
  640x480@75Hz 4:3 HorFreq: 37500 Hz Clock: 31.500 MHz
  800x600@56Hz 4:3 HorFreq: 35200 Hz Clock: 36.000 MHz
  800x600@60Hz 4:3 HorFreq: 37900 Hz Clock: 40.000 MHz
  800x600@72Hz 4:3 HorFreq: 48100 Hz Clock: 50.000 MHz
  800x600@75Hz 4:3 HorFreq: 46900 Hz Clock: 49.500 MHz
  832x624@75Hz 4:3 HorFreq: 49726 Hz Clock: 57.284 MHz
  1024x768@60Hz 4:3 HorFreq: 48400 Hz Clock: 65.000 MHz
  1024x768@70Hz 4:3 HorFreq: 56500 Hz Clock: 75.000 MHz
  1024x768@75Hz 4:3 HorFreq: 60000 Hz Clock: 78.750 MHz
  1280x1024@75Hz 5:4 HorFreq: 80000 Hz Clock: 135.000 MHz
  1152x870@75Hz 192:145 HorFreq: 67500 Hz Clock: 108.000 MHz
Standard timings supported:
  1400x1050@75Hz 4:3 HorFreq: 82300 Hz Clock: 156.000 MHz
  1280x1024@85Hz 5:4 HorFreq: 91100 Hz Clock: 157.500 MHz
  1280x960@85Hz 4:3 HorFreq: 85900 Hz Clock: 148.500 MHz
  1280x800@85Hz 16:10
  1280x720@60Hz 16:9
  1152x864@75Hz 4:3 HorFreq: 67500 Hz Clock: 108.000 MHz
  1024x768@85Hz 4:3 HorFreq: 68700 Hz Clock: 94.500 MHz
  800x600@85Hz 4:3 HorFreq: 53700 Hz Clock: 56.250 MHz
Detailed mode: Clock 40.000 MHz, 0 mm x 0 mm
                800  840  968 1056 hborder 0
                600  601  605  628 vborder 0
               -hsync -vsync 
               VertFreq: 60 Hz, HorFreq: 37878 Hz
Detailed mode: Clock 85.500 MHz, 0 mm x 0 mm
               1366 1436 1579 1792 hborder 0
                768  771  774  798 vborder 0
               +hsync +vsync 
               VertFreq: 59 Hz, HorFreq: 47712 Hz
Detailed mode: Clock 106.500 MHz, 0 mm x 0 mm
               1440 1520 1672 1904 hborder 0
                900  903  909  934 vborder 0
               -hsync +vsync 
               VertFreq: 59 Hz, HorFreq: 55934 Hz
Monitor name: EPSON PJ
Checksum: 0xb7 (valid)
EDID block does NOT conform to EDID 1.3!
	sRGB is signaled, but the chromaticities do not match
	Missing monitor ranges
