
EDID (hex):
00ffffffffffff0005e380a9c7340000
1f0d010368261e782a4562a1584b9924
134e53bfef00315945596159714f8140
815981808199863d00c05100304040a0
13007c311100001e000000ff00303937
33374a41303133353131000000fd0037
551f5f10000a202020202020000000fc
004c4d3931342f4c4d3931390a20009f

Extracted contents:
header:          00 ff ff ff ff ff ff 00
serial number:   05 e3 80 a9 c7 34 00 00 1f 0d
version:         01 03
basic params:    68 26 1e 78 2a
chroma info:     45 62 a1 58 4b 99 24 13 4e 53
established:     bf ef 00
standard:        31 59 45 59 61 59 71 4f 81 40 81 59 81 80 81 99
descriptor 1:    86 3d 00 c0 51 00 30 40 40 a0 13 00 7c 31 11 00 00 1e
descriptor 2:    00 00 00 ff 00 30 39 37 33 37 4a 41 30 31 33 35 31 31
descriptor 3:    00 00 00 fd 00 37 55 1f 5f 10 00 0a 20 20 20 20 20 20
descriptor 4:    00 00 00 fc 00 4c 4d 39 31 34 2f 4c 4d 39 31 39 0a 20
extensions:      00
checksum:        9f

EDID version: 1.3
Manufacturer: AOC Model a980 Serial Number --
Analog display, Input voltage level: 0.7/0.7 V
Sync: Separate 
Maximum image size: 38 cm x 30 cm
Gamma: 2.20
DPMS levels: Off
RGB color display
First detailed timing is preferred timing
Display x,y Chromaticity:
  Red:   0.6298, 0.3437
  Green: 0.2939, 0.5986
  Blue:  0.1416, 0.0761
  White: 0.3046, 0.3261
Established timings supported:
  720x400@70Hz 9:5 HorFreq: 31469 Hz Clock: 28.320 MHz
  640x480@60Hz 4:3 HorFreq: 31469 Hz Clock: 25.175 MHz
  640x480@67Hz 4:3 HorFreq: 35000 Hz Clock: 30.240 MHz
  640x480@72Hz 4:3 HorFreq: 37900 Hz Clock: 31.500 MHz
  640x480@75Hz 4:3 HorFreq: 37500 Hz Clock: 31.500 MHz
  800x600@56Hz 4:3 HorFreq: 35200 Hz Clock: 36.000 MHz
  800x600@60Hz 4:3 HorFreq: 37900 Hz Clock: 40.000 MHz
  800x600@72Hz 4:3 HorFreq: 48100 Hz Clock: 50.000 MHz
  800x600@75Hz 4:3 HorFreq: 46900 Hz Clock: 49.500 MHz
  832x624@75Hz 4:3 HorFreq: 49726 Hz Clock: 57.284 MHz
  1024x768@60Hz 4:3 HorFreq: 48400 Hz Clock: 65.000 MHz
  1024x768@70Hz 4:3 HorFreq: 56500 Hz Clock: 75.000 MHz
  1024x768@75Hz 4:3 HorFreq: 60000 Hz Clock: 78.750 MHz
  1280x1024@75Hz 5:4 HorFreq: 80000 Hz Clock: 135.000 MHz
Standard timings supported:
  640x480@85Hz 4:3 HorFreq: 43300 Hz Clock: 36.000 MHz
  800x600@85Hz 4:3 HorFreq: 53700 Hz Clock: 56.250 MHz
  1024x768@85Hz 4:3 HorFreq: 68700 Hz Clock: 94.500 MHz
  1152x864@75Hz 4:3 HorFreq: 67500 Hz Clock: 108.000 MHz
  1280x960@60Hz 4:3 HorFreq: 60000 Hz Clock: 108.000 MHz
  1280x960@85Hz 4:3 HorFreq: 85900 Hz Clock: 148.500 MHz
  1280x1024@60Hz 5:4 HorFreq: 64000 Hz Clock: 108.000 MHz
  1280x1024@85Hz 5:4 HorFreq: 91100 Hz Clock: 157.500 MHz
Detailed mode: Clock 157.500 MHz, 380 mm x 305 mm
               1280 1344 1504 1728 hborder 0
               1024 1025 1028 1072 vborder 0
               +hsync +vsync 
               VertFreq: 85 Hz, HorFreq: 91145 Hz
Serial number: --
Monitor ranges (GTF): 55-85Hz V, 31-95kHz H, max dotclock 160MHz
Monitor name: LM914/LM919
Checksum: 0x9f (valid)
EDID block does not conform at all!
	Bad year of manufacture
