
EDID (hex):
00ffffffffffff005e74342c00000001
191b0104a51d13780aee95a3544c9926
0f505400000001010101010101010101
0101010101015456d0a080e014503020
55001dbe100000180000001000000000
00000000000000000000000000fe0057
53540a202020202020202020000000fc
004b4c2e31333530572e3030350a0091

Extracted contents:
header:          00 ff ff ff ff ff ff 00
serial number:   5e 74 34 2c 00 00 00 01 19 1b
version:         01 04
basic params:    a5 1d 13 78 0a
chroma info:     ee 95 a3 54 4c 99 26 0f 50 54
established:     00 00 00
standard:        01 01 01 01 01 01 01 01 01 01 01 01 01 01 01 01
descriptor 1:    54 56 d0 a0 80 e0 14 50 30 20 55 00 1d be 10 00 00 18
descriptor 2:    00 00 00 10 00 00 00 00 00 00 00 00 00 00 00 00 00 00
descriptor 3:    00 00 00 fe 00 57 53 54 0a 20 20 20 20 20 20 20 20 20
descriptor 4:    00 00 00 fc 00 4b 4c 2e 31 33 35 30 57 2e 30 30 35 0a
extensions:      00
checksum:        91

EDID version: 1.4
Manufacturer: WST Model 2c34 Serial Number --
Made in week 25 of 2017
Digital display
8 bits per primary color channel
DisplayPort interface
Maximum image size: 29 cm x 19 cm
Gamma: 2.20
Supported color formats: RGB 4:4:4, YCrCb 4:4:4
First detailed timing includes the native pixel format and preferred refresh rate
Display x,y Chromaticity:
  Red:   0.6396, 0.3300
  Green: 0.2998, 0.5996
  Blue:  0.1503, 0.0595
  White: 0.3134, 0.3291
Established timings supported:
Standard timings supported:
Detailed mode: Clock 221.000 MHz, 285 mm x 190 mm
               2256 2304 2336 2416 hborder 0
               1504 1509 1514 1524 vborder 0
               -hsync -vsync 
               VertFreq: 60 Hz, HorFreq: 91473 Hz
Dummy block
ASCII string: WST
Monitor name: KL.1350W.005
Checksum: 0x91 (valid)
	Missing monitor ranges
