
EDID (hex):
00ffffffffffff00244d477301010101
1c0b01036e1e1778ea5220a054499725
1c4e54afee0031404540614001010101
01010101010164190040410026301888
360030e410000018000000fc0049424d
3935313120543534300a000000fc0054
4654204d6f6e69746f720a20000000ff
0035352d54363936360a2020202000b4

Extracted contents:
header:          00 ff ff ff ff ff ff 00
serial number:   24 4d 47 73 01 01 01 01 1c 0b
version:         01 03
basic params:    6e 1e 17 78 ea
chroma info:     52 20 a0 54 49 97 25 1c 4e 54
established:     af ee 00
standard:        31 40 45 40 61 40 01 01 01 01 01 01 01 01 01 01
descriptor 1:    64 19 00 40 41 00 26 30 18 88 36 00 30 e4 10 00 00 18
descriptor 2:    00 00 00 fc 00 49 42 4d 39 35 31 31 20 54 35 34 30 0a
descriptor 3:    00 00 00 fc 00 54 46 54 20 4d 6f 6e 69 74 6f 72 0a 20
descriptor 4:    00 00 00 ff 00 35 35 2d 54 36 39 36 36 0a 20 20 20 20
extensions:      00
checksum:        b4

EDID version: 1.3
Manufacturer: IBM Model 7347 Serial Number --
Analog display, Input voltage level: 0.7/0.7 V
Sync: Separate Composite SyncOnGreen 
Maximum image size: 30 cm x 23 cm
Gamma: 2.20
DPMS levels: Standby Suspend Off
RGB color display
First detailed timing is preferred timing
Display x,y Chromaticity:
  Red:   0.6259, 0.3291
  Green: 0.2851, 0.5917
  Blue:  0.1445, 0.1113
  White: 0.3046, 0.3281
Established timings supported:
  720x400@70Hz 9:5 HorFreq: 31469 Hz Clock: 28.320 MHz
  640x480@60Hz 4:3 HorFreq: 31469 Hz Clock: 25.175 MHz
  640x480@72Hz 4:3 HorFreq: 37900 Hz Clock: 31.500 MHz
  640x480@75Hz 4:3 HorFreq: 37500 Hz Clock: 31.500 MHz
  800x600@56Hz 4:3 HorFreq: 35200 Hz Clock: 36.000 MHz
  800x600@60Hz 4:3 HorFreq: 37900 Hz Clock: 40.000 MHz
  800x600@72Hz 4:3 HorFreq: 48100 Hz Clock: 50.000 MHz
  800x600@75Hz 4:3 HorFreq: 46900 Hz Clock: 49.500 MHz
  832x624@75Hz 4:3 HorFreq: 49726 Hz Clock: 57.284 MHz
  1024x768@60Hz 4:3 HorFreq: 48400 Hz Clock: 65.000 MHz
  1024x768@70Hz 4:3 HorFreq: 56500 Hz Clock: 75.000 MHz
  1024x768@75Hz 4:3 HorFreq: 60000 Hz Clock: 78.750 MHz
Standard timings supported:
  640x480@60Hz 4:3 HorFreq: 31469 Hz Clock: 25.175 MHz
  800x600@60Hz 4:3 HorFreq: 37900 Hz Clock: 40.000 MHz
  1024x768@60Hz 4:3 HorFreq: 48400 Hz Clock: 65.000 MHz
Detailed mode: Clock 65.000 MHz, 304 mm x 228 mm
               1024 1048 1184 1344 hborder 0
                768  771  777  806 vborder 0
               -hsync -vsync 
               VertFreq: 60 Hz, HorFreq: 48363 Hz
Monitor name: IBM9511 T540
Serial number: --
Checksum: 0xb4 (valid)
EDID block does NOT conform to EDID 1.3!
	Missing monitor ranges
EDID block does not conform at all!
	Bad year of manufacture
