
EDID (hex):
00ffffffffffff0022b9001701000000
1f1b0104a5221b78e2f0649857519127
214f54adcf0081004540714081808140
81c001010101302a009851002a403070
1300680e1100001e0e1f008051001e30
3020370068cf1000001e00000010000a
202020202020202020202020000000fc
004855590a202020202020202020005b

Extracted contents:
header:          00 ff ff ff ff ff ff 00
serial number:   22 b9 00 17 01 00 00 00 1f 1b
version:         01 04
basic params:    a5 22 1b 78 e2
chroma info:     f0 64 98 57 51 91 27 21 4f 54
established:     ad cf 00
standard:        81 00 45 40 71 40 81 80 81 40 81 c0 01 01 01 01
descriptor 1:    30 2a 00 98 51 00 2a 40 30 70 13 00 68 0e 11 00 00 1e
descriptor 2:    0e 1f 00 80 51 00 1e 30 30 20 37 00 68 cf 10 00 00 1e
descriptor 3:    00 00 00 10 00 0a 20 20 20 20 20 20 20 20 20 20 20 20
descriptor 4:    00 00 00 fc 00 48 55 59 0a 20 20 20 20 20 20 20 20 20
extensions:      00
checksum:        5b

EDID version: 1.4
Manufacturer: HUY Model 1700 Serial Number --
Made in week 31 of 2017
Digital display
8 bits per primary color channel
DisplayPort interface
Maximum image size: 34 cm x 27 cm
Gamma: 2.20
DPMS levels: Standby Suspend Off
Supported color formats: RGB 4:4:4
First detailed timing includes the native pixel format and preferred refresh rate
Display x,y Chromaticity:
  Red:   0.5966, 0.3427
  Green: 0.3164, 0.5664
  Blue:  0.1533, 0.1308
  White: 0.3095, 0.3281
Established timings supported:
  720x400@70Hz 9:5 HorFreq: 31469 Hz Clock: 28.320 MHz
  640x480@60Hz 4:3 HorFreq: 31469 Hz Clock: 25.175 MHz
  640x480@72Hz 4:3 HorFreq: 37900 Hz Clock: 31.500 MHz
  640x480@75Hz 4:3 HorFreq: 37500 Hz Clock: 31.500 MHz
  800x600@60Hz 4:3 HorFreq: 37900 Hz Clock: 40.000 MHz
  800x600@72Hz 4:3 HorFreq: 48100 Hz Clock: 50.000 MHz
  800x600@75Hz 4:3 HorFreq: 46900 Hz Clock: 49.500 MHz
  1024x768@60Hz 4:3 HorFreq: 48400 Hz Clock: 65.000 MHz
  1024x768@70Hz 4:3 HorFreq: 56500 Hz Clock: 75.000 MHz
  1024x768@75Hz 4:3 HorFreq: 60000 Hz Clock: 78.750 MHz
  1280x1024@75Hz 5:4 HorFreq: 80000 Hz Clock: 135.000 MHz
Standard timings supported:
  1280x800@60Hz 16:10
  800x600@60Hz 4:3 HorFreq: 37900 Hz Clock: 40.000 MHz
  1152x864@60Hz 4:3
  1280x1024@60Hz 5:4 HorFreq: 64000 Hz Clock: 108.000 MHz
  1280x960@60Hz 4:3 HorFreq: 60000 Hz Clock: 108.000 MHz
  1280x720@60Hz 16:9
Detailed mode: Clock 108.000 MHz, 360 mm x 270 mm
               1280 1328 1440 1688 hborder 0
               1024 1025 1028 1066 vborder 0
               +hsync +vsync 
               VertFreq: 60 Hz, HorFreq: 63981 Hz
Detailed mode: Clock 79.500 MHz, 360 mm x 207 mm
               1280 1328 1360 1664 hborder 0
                768  771  778  798 vborder 0
               +hsync +vsync 
               VertFreq: 59 Hz, HorFreq: 47776 Hz
Dummy block
Monitor name: HUY
Checksum: 0x5b (valid)
	Missing monitor ranges
EDID block does not conform at all!
	Dummy block filled with garbage
