
EDID (hex):
00ffffffffffff002634030537a63101
2c0d0103081e1664e8d5eda05a4a9824
164d53ad4e0001010101010101010101
010101010101c31e0020410020301060
13002cdc1000001e5613200031581920
105013002cdc1000001c000000fd0038
4b1f3cff000a202020202020000000fc
004c3530530a20202020202020200062

Extracted contents:
header:          00 ff ff ff ff ff ff 00
serial number:   26 34 03 05 37 a6 31 01 2c 0d
version:         01 03
basic params:    08 1e 16 64 e8
chroma info:     d5 ed a0 5a 4a 98 24 16 4d 53
established:     ad 4e 00
standard:        01 01 01 01 01 01 01 01 01 01 01 01 01 01 01 01
descriptor 1:    c3 1e 00 20 41 00 20 30 10 60 13 00 2c dc 10 00 00 1e
descriptor 2:    56 13 20 00 31 58 19 20 10 50 13 00 2c dc 10 00 00 1c
descriptor 3:    00 00 00 fd 00 38 4b 1f 3c ff 00 0a 20 20 20 20 20 20
descriptor 4:    00 00 00 fc 00 4c 35 30 53 0a 20 20 20 20 20 20 20 20
extensions:      00
checksum:        62

EDID version: 1.3
Manufacturer: IQT Model 503 Serial Number --
Analog display, Input voltage level: 0.7/0.3 V
Sync: Separate 
Maximum image size: 30 cm x 22 cm
Gamma: 2.00
DPMS levels: Standby Suspend Off
RGB color display
Display x,y Chromaticity:
  Red:   0.6279, 0.3525
  Green: 0.2900, 0.5947
  Blue:  0.1435, 0.0878
  White: 0.3037, 0.3251
Established timings supported:
  720x400@70Hz 9:5 HorFreq: 31469 Hz Clock: 28.320 MHz
  640x480@60Hz 4:3 HorFreq: 31469 Hz Clock: 25.175 MHz
  640x480@72Hz 4:3 HorFreq: 37900 Hz Clock: 31.500 MHz
  640x480@75Hz 4:3 HorFreq: 37500 Hz Clock: 31.500 MHz
  800x600@60Hz 4:3 HorFreq: 37900 Hz Clock: 40.000 MHz
  800x600@75Hz 4:3 HorFreq: 46900 Hz Clock: 49.500 MHz
  1024x768@60Hz 4:3 HorFreq: 48400 Hz Clock: 65.000 MHz
  1024x768@70Hz 4:3 HorFreq: 56500 Hz Clock: 75.000 MHz
  1024x768@75Hz 4:3 HorFreq: 60000 Hz Clock: 78.750 MHz
Standard timings supported:
Detailed mode: Clock 78.750 MHz, 300 mm x 220 mm
               1024 1040 1136 1312 hborder 0
                768  769  772  800 vborder 0
               +hsync +vsync 
               VertFreq: 75 Hz, HorFreq: 60022 Hz
Detailed mode: Clock 49.500 MHz, 300 mm x 220 mm
                800  816  896 1056 hborder 0
                600  601  604  625 vborder 0
               -hsync +vsync 
               VertFreq: 75 Hz, HorFreq: 46875 Hz
Monitor ranges (GTF): 56-75Hz V, 31-60kHz H, max dotclock 2550MHz
Monitor name: L50S
Checksum: 0x62 (valid)
EDID block does NOT conform to EDID 1.3!
	Missing preferred timing
One or more of the timings is out of range of the Monitor Ranges:
  Vertical Freq: 60 - 75 Hz
  Horizontal Freq: 31469 - 60022 Hz
  Maximum Clock: 78.750 MHz
EDID block does not conform at all!
	Bad year of manufacture
