edid-decode (hex):

00 ff ff ff ff ff ff 00 06 af ed 11 00 00 00 00
00 16 01 04 90 22 13 78 02 21 35 ad 50 37 aa 24
11 50 54 00 00 00 01 01 01 01 01 01 01 01 01 01
01 01 01 01 01 01 b6 35 80 7e 70 38 28 40 3c 3c
ee 00 58 c2 10 00 00 18 b6 35 80 7e 70 38 28 40
3c 3c ee 00 58 c2 10 00 00 18 00 00 00 fe 00 41
55 4f 0a 20 20 20 20 20 20 20 20 20 00 00 00 fe
00 42 31 35 36 48 54 4e 30 31 2e 31 20 0a 00 dd

00 ff ff ff ff ff ff 00 06 af ed 11 00 00 00 00
00 16 01 04 90 22 13 78 02 21 35 ad 50 37 aa 24
11 50 54 00 00 00 01 01 01 01 01 01 01 01 01 01
01 01 01 01 01 01 b6 35 80 7e 70 38 28 40 3c 3c
ee 00 58 c2 10 00 00 18 b6 35 80 7e 70 38 28 40
3c 3c ee 00 58 c2 10 00 00 18 00 00 00 fe 00 41
55 4f 0a 20 20 20 20 20 20 20 20 20 00 00 00 fe
00 42 31 35 36 48 54 4e 30 31 2e 31 20 0a 00 dd

----------------

Block 0, Base EDID:
  EDID Structure Version & Revision: 1.4
  Vendor & Product Identification:
    Manufacturer: AUO
    Model: 4589
    Made in: 2012
  Basic Display Parameters & Features:
    Digital display
    Bits per primary color channel: 6
    Digital interface is not defined
    Maximum image size: 34 cm x 19 cm
    Gamma: 2.20
    Supported color formats: RGB 4:4:4
    First detailed timing includes the native pixel format and preferred refresh rate
  Color Characteristics:
    Red  : 0.6757, 0.3144
    Green: 0.2148, 0.6650
    Blue : 0.1406, 0.0693
    White: 0.3134, 0.3291
  Established Timings I & II: none
  Standard Timings: none
  Detailed Timing Descriptors:
    DTD 1:  1920x1080   60.003840 Hz  16:9     67.204 kHz    137.500000 MHz (344 mm x 194 mm)
                 Hfront   60 Hsync  60 Hback    6 Hpol N
                 Vfront   14 Vsync  14 Vback   12 Vpol N
    DTD 2:  1920x1080   60.003840 Hz  16:9     67.204 kHz    137.500000 MHz (344 mm x 194 mm)
                 Hfront   60 Hsync  60 Hback    6 Hpol N
                 Vfront   14 Vsync  14 Vback   12 Vpol N
    Alphanumeric Data String: 'AUO'
    Alphanumeric Data String: 'B156HTN01.1 '
Checksum: 0xdd

----------------

Block 1, Unknown EDID Extension Block 0x00:
  00 ff ff ff ff ff ff 00 06 af ed 11 00 00 00 00 '................'
  00 16 01 04 90 22 13 78 02 21 35 ad 50 37 aa 24 '.....".x.!5.P7.$'
  11 50 54 00 00 00 01 01 01 01 01 01 01 01 01 01 '.PT.............'
  01 01 01 01 01 01 b6 35 80 7e 70 38 28 40 3c 3c '.......5.~p8(@<<'
  ee 00 58 c2 10 00 00 18 b6 35 80 7e 70 38 28 40 '..X......5.~p8(@'
  3c 3c ee 00 58 c2 10 00 00 18 00 00 00 fe 00 41 '<<..X..........A'
  55 4f 0a 20 20 20 20 20 20 20 20 20 00 00 00 fe 'UO.         ....'
  00 42 31 35 36 48 54 4e 30 31 2e 31 20 0a 00 dd '.B156HTN01.1 ...'
Checksum: 0xdd

----------------

Warnings:

Block 0, Base EDID:
  Missing Display Product Name.

Failures:

Block 0, Base EDID:
  Alphanumeric Data String: One or more trailing spaces.
Block 1, Base EDID:
  Unknown Extension Block.
EDID:
  Base EDID: EDID specified 0 extension block(s), but found 1 extension block(s).

EDID conformity: FAIL
