
EDID (hex):
00ffffffffffff0006afed1100000000
0016010490221378022135ad5037aa24
11505400000001010101010101010101
010101010101b635807e703828403c3c
ee0058c210000018b635807e70382840
3c3cee0058c210000018000000fe0041
554f0a202020202020202020000000fe
004231353648544e30312e31200a00dd

edid-decode (hex):

00 ff ff ff ff ff ff 00 06 af ed 11 00 00 00 00
00 16 01 04 90 22 13 78 02 21 35 ad 50 37 aa 24
11 50 54 00 00 00 01 01 01 01 01 01 01 01 01 01
01 01 01 01 01 01 b6 35 80 7e 70 38 28 40 3c 3c
ee 00 58 c2 10 00 00 18 b6 35 80 7e 70 38 28 40
3c 3c ee 00 58 c2 10 00 00 18 00 00 00 fe 00 41
55 4f 0a 20 20 20 20 20 20 20 20 20 00 00 00 fe
00 42 31 35 36 48 54 4e 30 31 2e 31 20 0a 00 dd

----------------

Block 0, Base EDID:
  EDID Structure Version & Revision: 1.4
  Vendor & Product Identification:
    Manufacturer: AUO
    Model: 4589
    Made in: 2012
  Basic Display Parameters & Features:
    Digital display
    Bits per primary color channel: 6
    Digital interface is not defined
    Maximum image size: 34 cm x 19 cm
    Gamma: 2.20
    Supported color formats: RGB 4:4:4
    First detailed timing includes the native pixel format and preferred refresh rate
  Color Characteristics:
    Red  : 0.6757, 0.3144
    Green: 0.2148, 0.6650
    Blue : 0.1406, 0.0693
    White: 0.3134, 0.3291
  Established Timings I & II: none
  Standard Timings: none
  Detailed Timing Descriptors:
    DTD 1:  1920x1080   60.003840 Hz  16:9     67.204 kHz    137.500000 MHz (344 mm x 194 mm)
                 Hfront   60 Hsync  60 Hback    6 Hpol N
                 Vfront   14 Vsync  14 Vback   12 Vpol N
    DTD 2:  1920x1080   60.003840 Hz  16:9     67.204 kHz    137.500000 MHz (344 mm x 194 mm)
                 Hfront   60 Hsync  60 Hback    6 Hpol N
                 Vfront   14 Vsync  14 Vback   12 Vpol N
    Alphanumeric Data String: 'AUO'
    Alphanumeric Data String: 'B156HTN01.1 '
Checksum: 0xdd
