
EDID (hex):
00ffffffffffff000472091213162011
0c1501030e0000780aacd9a15b569225
134f5b3fcf80317c457c617c81c08180
81009500a94064190040410026301888
3600000000000018000000fd0030781f
6311000a202020202020000000fc0053
353230310a20202020202020000000ff
004a43393035303033383430310a0028

Extracted contents:
header:          00 ff ff ff ff ff ff 00
serial number:   04 72 09 12 13 16 20 11 0c 15
version:         01 03
basic params:    0e 00 00 78 0a
chroma info:     ac d9 a1 5b 56 92 25 13 4f 5b
established:     3f cf 80
standard:        31 7c 45 7c 61 7c 81 c0 81 80 81 00 95 00 a9 40
descriptor 1:    64 19 00 40 41 00 26 30 18 88 36 00 00 00 00 00 00 18
descriptor 2:    00 00 00 fd 00 30 78 1f 63 11 00 0a 20 20 20 20 20 20
descriptor 3:    00 00 00 fc 00 53 35 32 30 31 0a 20 20 20 20 20 20 20
descriptor 4:    00 00 00 ff 00 4a 43 39 30 35 30 30 33 38 34 30 31 0a
extensions:      00
checksum:        28

EDID version: 1.3
Manufacturer: ACR Model 1209 Serial Number --
Made in week 12 of 2011
Analog display, Input voltage level: 0.7/0.3 V
Sync: Separate Composite SyncOnGreen 
Image size is variable
Gamma: 2.20
RGB color display
First detailed timing is preferred timing
Display x,y Chromaticity:
  Red:   0.6308, 0.3574
  Green: 0.3388, 0.5703
  Blue:  0.1474, 0.0751
  White: 0.3105, 0.3564
Established timings supported:
  640x480@60Hz 4:3 HorFreq: 31469 Hz Clock: 25.175 MHz
  640x480@67Hz 4:3 HorFreq: 35000 Hz Clock: 30.240 MHz
  640x480@72Hz 4:3 HorFreq: 37900 Hz Clock: 31.500 MHz
  640x480@75Hz 4:3 HorFreq: 37500 Hz Clock: 31.500 MHz
  800x600@56Hz 4:3 HorFreq: 35200 Hz Clock: 36.000 MHz
  800x600@60Hz 4:3 HorFreq: 37900 Hz Clock: 40.000 MHz
  800x600@72Hz 4:3 HorFreq: 48100 Hz Clock: 50.000 MHz
  800x600@75Hz 4:3 HorFreq: 46900 Hz Clock: 49.500 MHz
  1024x768@60Hz 4:3 HorFreq: 48400 Hz Clock: 65.000 MHz
  1024x768@70Hz 4:3 HorFreq: 56500 Hz Clock: 75.000 MHz
  1024x768@75Hz 4:3 HorFreq: 60000 Hz Clock: 78.750 MHz
  1280x1024@75Hz 5:4 HorFreq: 80000 Hz Clock: 135.000 MHz
  1152x870@75Hz 192:145 HorFreq: 67500 Hz Clock: 108.000 MHz
Standard timings supported:
  640x480@120Hz 4:3
  800x600@120Hz 4:3
  1024x768@120Hz 4:3
  1280x720@60Hz 16:9
  1280x1024@60Hz 5:4 HorFreq: 64000 Hz Clock: 108.000 MHz
  1280x800@60Hz 16:10
  1440x900@60Hz 16:10 HorFreq: 55500 Hz Clock: 88.750 MHz
  1600x1200@60Hz 4:3 HorFreq: 75000 Hz Clock: 162.000 MHz
Detailed mode: Clock 65.000 MHz, 0 mm x 0 mm
               1024 1048 1184 1344 hborder 0
                768  771  777  806 vborder 0
               -hsync -vsync 
               VertFreq: 60 Hz, HorFreq: 48363 Hz
Monitor ranges (GTF): 48-120Hz V, 31-99kHz H, max dotclock 170MHz
Monitor name: S5201
Serial number: --
Checksum: 0x28 (valid)
