edid-decode (hex):

00 ff ff ff ff ff ff 00 09 e5 23 08 00 00 00 00
01 1c 01 04 a5 26 15 78 03 de 50 a3 54 4c 99 26
0f 50 54 00 00 00 01 01 01 01 01 01 01 01 01 01
01 01 01 01 01 01 18 8d 80 18 71 38 3c 40 6c 30
aa 00 7e d7 10 00 00 1a 18 8d 80 18 71 38 78 46
6c 30 aa 00 7e d7 10 00 00 1a 00 00 00 00 00 00
00 00 00 00 00 00 00 00 00 00 00 00 00 00 00 02
00 09 32 ff 0a 3c 96 2f 1b 43 96 00 00 00 00 b2

----------------

Block 0, Base EDID:
  EDID Structure Version & Revision: 1.4
  Vendor & Product Identification:
    Manufacturer: BOE
    Model: 2083
    Made in: week 1 of 2018
  Basic Display Parameters & Features:
    Digital display
    Bits per primary color channel: 8
    DisplayPort interface
    Maximum image size: 38 cm x 21 cm
    Gamma: 2.20
    Supported color formats: RGB 4:4:4
    First detailed timing includes the native pixel format and preferred refresh rate
    Display is continuous frequency
  Color Characteristics:
    Red  : 0.6396, 0.3291
    Green: 0.2998, 0.5996
    Blue : 0.1494, 0.0595
    White: 0.3125, 0.3281
  Established Timings I & II: none
  Standard Timings: none
  Detailed Timing Descriptors:
    DTD 1:  1920x1080  144.019 Hz  16:9   164.182 kHz 361.200 MHz (382 mm x 215 mm)
                 Hfront  108 Hsync  48 Hback 124 Hpol P
                 Vfront   10 Vsync  10 Vback  40 Vpol N
    DTD 2:  1920x1080   60.008 Hz  16:9   164.182 kHz 361.200 MHz (382 mm x 215 mm)
                 Hfront  108 Hsync  48 Hback 124 Hpol P
                 Vfront   10 Vsync  10 Vback 1636 Vpol N
    Empty Descriptor
    Manufacturer-Specified Display Descriptor (0x02): 00 02 00 09 32 ff 0a 3c 96 2f 1b 43 96 00 00 00 '....2..<./.C....'
Checksum: 0xb2

----------------

Failures:

Block 0, Base EDID:
  Empty Descriptor: Use Dummy Descriptor instead of all zeroes.
  Missing Display Product Name.
  Missing Display Range Limits Descriptor.

EDID conformity: FAIL
