
EDID (hex):
00ffffffffffff004ca3425000000000
00120103801e13780a07c59757538c27
20505400000001010101010101010101
010101010101141b0088502010300c40
33002fbe100000190000000f00000000
00000000002387026400000000fe0053
414d53554e470a2020202020000000fe
00313431415431332d3130310a200051

Extracted contents:
header:          00 ff ff ff ff ff ff 00
serial number:   4c a3 42 50 00 00 00 00 00 12
version:         01 03
basic params:    80 1e 13 78 0a
chroma info:     07 c5 97 57 53 8c 27 20 50 54
established:     00 00 00
standard:        01 01 01 01 01 01 01 01 01 01 01 01 01 01 01 01
descriptor 1:    14 1b 00 88 50 20 10 30 0c 40 33 00 2f be 10 00 00 19
descriptor 2:    00 00 00 0f 00 00 00 00 00 00 00 00 00 23 87 02 64 00
descriptor 3:    00 00 00 fe 00 53 41 4d 53 55 4e 47 0a 20 20 20 20 20
descriptor 4:    00 00 00 fe 00 31 34 31 41 54 31 33 2d 31 30 31 0a 20
extensions:      00
checksum:        51

EDID version: 1.3
Manufacturer: SEC Model 5042 Serial Number --
Made in year 2008
Digital display
Maximum image size: 30 cm x 19 cm
Gamma: 2.20
RGB color display
First detailed timing is preferred timing
Display x,y Chromaticity:
  Red:   0.5898, 0.3398
  Green: 0.3251, 0.5498
  Blue:  0.1552, 0.1250
  White: 0.3134, 0.3291
Established timings supported:
Standard timings supported:
Detailed mode: Clock 69.320 MHz, 303 mm x 190 mm
               1280 1292 1356 1416 hborder 0
                800  803  806  816 vborder 0
               -hsync -vsync 
               VertFreq: 59 Hz, HorFreq: 48954 Hz
Manufacturer-specified data, tag 15
ASCII string: SAMSUNG
ASCII string: 141AT13-101
Checksum: 0x51 (valid)
EDID block does NOT conform to EDID 1.3!
	Missing name descriptor
	Missing monitor ranges
