
EDID (hex):
00ffffffffffff004ca3425000000000
000f0103801e13780a87f594574f8c27
27505400000001010101010101010101
0101010101010a29a0e051840c303080
63002fbe100000190000000f00000000
0000000000e6fa022301000000fe0053
414d53554e470a2020202020000000fe
004c544e31343157442d4c30340a002f

Extracted contents:
header:          00 ff ff ff ff ff ff 00
serial number:   4c a3 42 50 00 00 00 00 00 0f
version:         01 03
basic params:    80 1e 13 78 0a
chroma info:     87 f5 94 57 4f 8c 27 27 50 54
established:     00 00 00
standard:        01 01 01 01 01 01 01 01 01 01 01 01 01 01 01 01
descriptor 1:    0a 29 a0 e0 51 84 0c 30 30 80 63 00 2f be 10 00 00 19
descriptor 2:    00 00 00 0f 00 00 00 00 00 00 00 00 00 e6 fa 02 23 01
descriptor 3:    00 00 00 fe 00 53 41 4d 53 55 4e 47 0a 20 20 20 20 20
descriptor 4:    00 00 00 fe 00 4c 54 4e 31 34 31 57 44 2d 4c 30 34 0a
extensions:      00
checksum:        2f

EDID version: 1.3
Manufacturer: SEC Model 5042 Serial Number --
Digital display
Maximum image size: 30 cm x 19 cm
Gamma: 2.20
RGB color display
First detailed timing is preferred timing
Display x,y Chromaticity:
  Red:   0.5800, 0.3398
  Green: 0.3095, 0.5498
  Blue:  0.1552, 0.1552
  White: 0.3134, 0.3291
Established timings supported:
Standard timings supported:
Detailed mode: Clock 105.060 MHz, 303 mm x 190 mm
               1440 1488 1616 1920 hborder 0
                900  906  909  912 vborder 0
               -hsync -vsync 
               VertFreq: 59 Hz, HorFreq: 54718 Hz
Manufacturer-specified data, tag 15
ASCII string: SAMSUNG
ASCII string: LTN141WD-L04
Checksum: 0x2f (valid)
EDID block does NOT conform to EDID 1.3!
	Missing name descriptor
	Missing monitor ranges
EDID block does not conform at all!
	Bad year of manufacture
