
EDID (hex):
00ffffffffffff0030e4d10600000000
001f0104a52213780371c5985e5b8f27
1b505400000001010101010101010101
0101010101018b6f80a0703840403020
350058c21000001a000000fd00307889
891d010a202020202020000000fe0056
484b36358131353657464a0a00000000
0002413f99000000000b010a2020011a
7013790000030114c73700047f079f00
2f001f0037043f000200040000000000
00000000000000000000000000000000
00000000000000000000000000000000
00000000000000000000000000000000
00000000000000000000000000000000
00000000000000000000000000000000
00000000000000000000000000006790

Extracted contents:
header:          00 ff ff ff ff ff ff 00
serial number:   30 e4 d1 06 00 00 00 00 00 1f
version:         01 04
basic params:    a5 22 13 78 03
chroma info:     71 c5 98 5e 5b 8f 27 1b 50 54
established:     00 00 00
standard:        01 01 01 01 01 01 01 01 01 01 01 01 01 01 01 01
descriptor 1:    8b 6f 80 a0 70 38 40 40 30 20 35 00 58 c2 10 00 00 1a
descriptor 2:    00 00 00 fd 00 30 78 89 89 1d 01 0a 20 20 20 20 20 20
descriptor 3:    00 00 00 fe 00 56 48 4b 36 35 81 31 35 36 57 46 4a 0a
descriptor 4:    00 00 00 00 00 02 41 3f 99 00 00 00 00 0b 01 0a 20 20
extensions:      01
checksum:        1a

EDID version: 1.4
Manufacturer: LGD Model 6d1 Serial Number --
Made in year 2021
Digital display
8 bits per primary color channel
DisplayPort interface
Maximum image size: 34 cm x 19 cm
Gamma: 2.20
Supported color formats: RGB 4:4:4
First detailed timing includes the native pixel format and preferred refresh rate
Display is continuous frequency
Display x,y Chromaticity:
  Red:   0.5947, 0.3701
  Green: 0.3554, 0.5595
  Blue:  0.1552, 0.1054
  White: 0.3134, 0.3291
Established timings supported:
Standard timings supported:
Detailed mode: Clock 285.550 MHz, 344 mm x 194 mm
               1920 1968 2000 2080 hborder 0
               1080 1083 1088 1144 vborder 0
               +hsync -vsync 
               VertFreq: 120 Hz, HorFreq: 137283 Hz
Monitor ranges (bare limits): 48-120Hz V, 137-137kHz H, max dotclock 290MHz
ASCII string: VHK65
Manufacturer-specified data, tag 0
Has 1 extension blocks
Checksum: 0x1a (valid)

DisplayID extension block
Extension version: 19
Length 121, version 19, extension count 0
Checksum: 0x67 (valid)
Type 1 detailed timing: aspect: 16:9,  
Detailed mode: Clock 142.790 MHz, 0 mm x 0 mm
               1919 1966 1997 2078
               1079 1081 1085 1142
               -hsync -vsync

EDID block does NOT conform to EDID 1.4!
	Missing name descriptor
	Detailed block string not properly terminated
Warning: One or more of the timings is out of range of the Monitor Ranges:
  Vertical Freq: 120 - 120 Hz
  Horizontal Freq: 137283 - 137283 Hz
  Maximum Clock: 285.550 MHz
EDID block does not conform at all!
	Has -436207616 nonconformant extension block(s)
