
EDID (hex):
00ffffffffffff0006af9eb300000000
031e0104a526167803707593585a9429
20505400000001010101010101010101
010101010101ce8f80b6703888403020
a5007ed710000018ce8f80b670382e47
3020a5007ed710000018000000fd003c
90b0b025010a202020202020000000fe
004231373348414e30342e39200a016b
70207902002200140b9e05847f07b500
2f801f0037048700090004002500090b
9e050b9e053c9080810010721a000003
013c9000005352535290000000000000
00000000000000000000000000000000
00000000000000000000000000000000
00000000000000000000000000000000
00000000000000000000000000008890

Extracted contents:
header:          00 ff ff ff ff ff ff 00
serial number:   06 af 9e b3 00 00 00 00 03 1e
version:         01 04
basic params:    a5 26 16 78 03
chroma info:     70 75 93 58 5a 94 29 20 50 54
established:     00 00 00
standard:        01 01 01 01 01 01 01 01 01 01 01 01 01 01 01 01
descriptor 1:    ce 8f 80 b6 70 38 88 40 30 20 a5 00 7e d7 10 00 00 18
descriptor 2:    ce 8f 80 b6 70 38 2e 47 30 20 a5 00 7e d7 10 00 00 18
descriptor 3:    00 00 00 fd 00 3c 90 b0 b0 25 01 0a 20 20 20 20 20 20
descriptor 4:    00 00 00 fe 00 42 31 37 33 48 41 4e 30 34 2e 39 20 0a
extensions:      01
checksum:        6b

EDID version: 1.4
Manufacturer: AUO Model b39e Serial Number --
Made in week 3 of 2020
Digital display
8 bits per primary color channel
DisplayPort interface
Maximum image size: 38 cm x 22 cm
Gamma: 2.20
Supported color formats: RGB 4:4:4
First detailed timing includes the native pixel format and preferred refresh rate
Display is continuous frequency
Display x,y Chromaticity:
  Red:   0.5751, 0.3466
  Green: 0.3515, 0.5781
  Blue:  0.1611, 0.1279
  White: 0.3134, 0.3291
Established timings supported:
Standard timings supported:
Detailed mode: Clock 368.140 MHz, 382 mm x 215 mm
               1920 1968 2000 2102 hborder 0
               1080 1090 1095 1216 vborder 0
               -hsync -vsync 
               VertFreq: 144 Hz, HorFreq: 175137 Hz
Detailed mode: Clock 368.140 MHz, 382 mm x 215 mm
               1920 1968 2000 2102 hborder 0
               1080 1090 1095 2918 vborder 0
               -hsync -vsync 
               VertFreq: 60 Hz, HorFreq: 175137 Hz
Monitor ranges (bare limits): 60-144Hz V, 176-176kHz H, max dotclock 370MHz
ASCII string: B173HAN04.9 
Has 1 extension blocks
Checksum: 0x6b (valid)

DisplayID extension block
Extension version: 32
Length 121, version 32, extension count 0
Checksum: 0x88 (valid)
Unknown displayid data block 0x22
Unknown displayid data block 0x25
Unknown displayid data block 0x81

EDID block does NOT conform to EDID 1.4!
	Missing name descriptor
Warning: One or more of the timings is out of range of the Monitor Ranges:
  Vertical Freq: 60 - 144 Hz
  Horizontal Freq: 175137 - 175137 Hz
  Maximum Clock: 368.140 MHz
EDID block does not conform at all!
	Has -1795162112 nonconformant extension block(s)
