edid-decode (hex):

00 ff ff ff ff ff ff 00 06 af b1 fd 00 00 00 00
0d 22 01 04 a5 22 16 78 02 f6 f5 92 58 58 95 29
1f 50 54 00 00 00 01 01 01 01 01 01 01 01 01 01
01 01 01 01 01 01 c3 3d 80 c8 70 b0 2b 40 6c 30
aa 00 58 d7 10 00 00 1a 69 31 80 c8 70 b0 2b 40
6c 30 aa 00 58 d7 10 00 00 1a 00 00 00 fe 00 48
4a 33 4e 54 80 42 31 36 30 55 41 4e 00 00 00 00
00 01 41 02 9e 00 10 00 00 0a 01 0a 20 20 00 f3

00 ff ff ff ff ff ff 00 06 af b1 fd 00 00 00 00
0d 22 01 04 a5 22 16 78 02 f6 f5 92 58 58 95 29
1f 50 54 00 00 00 01 01 01 01 01 01 01 01 01 01
01 01 01 01 01 01 c3 3d 80 c8 70 b0 2b 40 6c 30
aa 00 58 d7 10 00 00 1a 69 31 80 c8 70 b0 2b 40
6c 30 aa 00 58 d7 10 00 00 1a 00 00 00 fe 00 48
4a 33 4e 54 80 42 31 36 30 55 41 4e 00 00 00 00
00 01 41 02 9e 00 10 00 00 0a 01 0a 20 20 00 f3

----------------

Block 0, Base EDID:
  EDID Structure Version & Revision: 1.4
  Vendor & Product Identification:
    Manufacturer: AUO
    Model: 64945
    Made in: week 13 of 2024
  Basic Display Parameters & Features:
    Digital display
    Bits per primary color channel: 8
    DisplayPort interface
    Maximum image size: 34 cm x 22 cm
    Gamma: 2.20
    Supported color formats: RGB 4:4:4
    First detailed timing includes the native pixel format and preferred refresh rate
  Color Characteristics:
    Red  : 0.5732, 0.3466
    Green: 0.3447, 0.5839
    Blue : 0.1630, 0.1240
    White: 0.3134, 0.3291
  Established Timings I & II: none
  Standard Timings: none
  Detailed Timing Descriptors:
    DTD 1:  1920x1200   60.000152 Hz  16:10    74.580 kHz    158.110000 MHz (344 mm x 215 mm)
                 Hfront  108 Hsync  48 Hback   44 Hpol P
                 Vfront   10 Vsync  10 Vback   23 Vpol N
    DTD 2:  1920x1200   48.000880 Hz  16:10    59.665 kHz    126.490000 MHz (344 mm x 215 mm)
                 Hfront  108 Hsync  48 Hback   44 Hpol P
                 Vfront   10 Vsync  10 Vback   23 Vpol N
    Alphanumeric Data String: 'HJ3NT'
    Manufacturer-Specified Display Descriptor (0x00): 00 00 00 01 41 02 9e 00 10 00 00 0a 01 0a 20 20 '....A.........  '
Checksum: 0xf3

----------------

Block 1, Unknown EDID Extension Block 0x00:
  00 ff ff ff ff ff ff 00 06 af b1 fd 00 00 00 00 '................'
  0d 22 01 04 a5 22 16 78 02 f6 f5 92 58 58 95 29 '."...".x....XX.)'
  1f 50 54 00 00 00 01 01 01 01 01 01 01 01 01 01 '.PT.............'
  01 01 01 01 01 01 c3 3d 80 c8 70 b0 2b 40 6c 30 '.......=..p.+@l0'
  aa 00 58 d7 10 00 00 1a 69 31 80 c8 70 b0 2b 40 '..X.....i1..p.+@'
  6c 30 aa 00 58 d7 10 00 00 1a 00 00 00 fe 00 48 'l0..X..........H'
  4a 33 4e 54 80 42 31 36 30 55 41 4e 00 00 00 00 'J3NT.B160UAN....'
  00 01 41 02 9e 00 10 00 00 0a 01 0a 20 20 00 f3 '..A.........  ..'
Checksum: 0xf3

----------------

Warnings:

Block 0, Base EDID:
  Missing Display Product Name.

Failures:

Block 0, Base EDID:
  Alphanumeric Data String: Non-printable character.
Block 1, Base EDID:
  Unknown Extension Block.
EDID:
  Base EDID: EDID specified 0 extension block(s), but found 1 extension block(s).

EDID conformity: FAIL
