
EDID (hex):
00ffffffffffff001e6d51776a620700
041e010380582578feee91a3544c9926
0f50542108007140818081c0a9c0b300
d1c0810001014c9a00a0f0402e603020
3a006f6e3100001a000000fd00383d1e
6428000a202020202020000000fc004c
472048445220575148440a20000000ff
003030344e54585245373934360a01d7
020342712309070750100403011f1312
05145d5e5f6061d95a83010000e305c0
00e606050152525d6d030c002000b83c
20006001020367d85dc401788003e30f
0030ee7f00a0f040266030203a006f6e
3100001a134c00a0f040176030203a00
6f6e3100001a00000000000000000000
000000000000000000000000000000bb

Extracted contents:
header:          00 ff ff ff ff ff ff 00
serial number:   1e 6d 51 77 6a 62 07 00 04 1e
version:         01 03
basic params:    80 58 25 78 fe
chroma info:     ee 91 a3 54 4c 99 26 0f 50 54
established:     21 08 00
standard:        71 40 81 80 81 c0 a9 c0 b3 00 d1 c0 81 00 01 01
descriptor 1:    4c 9a 00 a0 f0 40 2e 60 30 20 3a 00 6f 6e 31 00 00 1a
descriptor 2:    00 00 00 fd 00 38 3d 1e 64 28 00 0a 20 20 20 20 20 20
descriptor 3:    00 00 00 fc 00 4c 47 20 48 44 52 20 57 51 48 44 0a 20
descriptor 4:    00 00 00 ff 00 30 30 34 4e 54 58 52 45 37 39 34 36 0a
extensions:      01
checksum:        d7

EDID version: 1.3
Manufacturer: GSM Model 7751 Serial Number --
Made in week 4 of 2020
Digital display
Maximum image size: 88 cm x 37 cm
Gamma: 2.20
DPMS levels: Standby Suspend Off
Undefined display color type
Default (sRGB) color space is primary color space
First detailed timing is preferred timing
Display x,y Chromaticity:
  Red:   0.6396, 0.3300
  Green: 0.2998, 0.5996
  Blue:  0.1503, 0.0595
  White: 0.3125, 0.3291
Established timings supported:
  640x480@60Hz 4:3 HorFreq: 31469 Hz Clock: 25.175 MHz
  800x600@60Hz 4:3 HorFreq: 37900 Hz Clock: 40.000 MHz
  1024x768@60Hz 4:3 HorFreq: 48400 Hz Clock: 65.000 MHz
Standard timings supported:
  1152x864@60Hz 4:3
  1280x1024@60Hz 5:4 HorFreq: 64000 Hz Clock: 108.000 MHz
  1280x720@60Hz 16:9
  1600x900@60Hz 16:9
  1680x1050@60Hz 16:10 HorFreq: 64700 Hz Clock: 119.000 MHz
  1920x1080@60Hz 16:9
  1280x800@60Hz 16:10
Detailed mode: Clock 395.000 MHz, 879 mm x 366 mm
               3840 3888 3920 4000 hborder 0
               1600 1603 1613 1646 vborder 0
               +hsync -vsync 
               VertFreq: 59 Hz, HorFreq: 98750 Hz
Monitor ranges (GTF): 56-61Hz V, 30-100kHz H, max dotclock 400MHz
Monitor name: LG HDR WQHD
Serial number: --
Has 1 extension blocks
Checksum: 0xd7 (valid)

CTA extension block
Extension version: 3
62 bytes of CTA data
  Audio data block
    Linear PCM, max channels 2
      Supported sample rates (kHz): 48 44.1 32
      Supported sample sizes (bits): 24 20 16
  Video data block
    VIC  16 1920x1080@60Hz 16:9  HorFreq: 67500 Hz Clock: 148.500 MHz
    VIC   4 1280x720@60Hz 16:9  HorFreq: 45000 Hz Clock: 74.250 MHz
    VIC   3 720x480@60Hz 16:9  HorFreq: 31469 Hz Clock: 27.000 MHz
    VIC   1 640x480@60Hz 4:3  HorFreq: 31469 Hz Clock: 25.175 MHz
    VIC  31 1920x1080@50Hz 16:9  HorFreq: 56250 Hz Clock: 148.500 MHz
    VIC  19 1280x720@50Hz 16:9  HorFreq: 37500 Hz Clock: 74.250 MHz
    VIC  18 720x576@50Hz 16:9  HorFreq: 31250 Hz Clock: 27.000 MHz
    VIC   5 1920x1080i@60Hz 16:9  HorFreq: 33750 Hz Clock: 74.250 MHz
    VIC  20 1920x1080i@50Hz 16:9  HorFreq: 28125 Hz Clock: 74.250 MHz
    VIC  93 3840x2160@24Hz 16:9  HorFreq: 54000 Hz Clock: 297.000 MHz
    VIC  94 3840x2160@25Hz 16:9  HorFreq: 56250 Hz Clock: 297.000 MHz
    VIC  95 3840x2160@30Hz 16:9  HorFreq: 67500 Hz Clock: 297.000 MHz
    VIC  96 3840x2160@50Hz 16:9  HorFreq: 112500 Hz Clock: 594.000 MHz
    VIC  97 3840x2160@60Hz 16:9  HorFreq: 135000 Hz Clock: 594.000 MHz
    VIC 217 10240x4320@120Hz 64:27  HorFreq: 540000 Hz Clock: 5940.000 MHz
    VIC  90 2560x1080@60Hz 64:27  HorFreq: 66000 Hz Clock: 198.000 MHz
  Speaker allocation data block
    Speaker map:
      FL/FR - Front Left/Right
  Extended tag: Colorimetry data block
    BT2020YCC
    BT2020RGB
  Extended tag: HDR static metadata data block
    Electro optical transfer functions:
      Traditional gamma - SDR luminance range
      SMPTE ST2084
    Supported static metadata descriptors:
      Static metadata type 1
    Desired content max luminance: 82 (295.365 cd/m^2)
    Desired content max frame-average luminance: 82 (295.365 cd/m^2)
    Desired content min luminance: 93 (0.393 cd/m^2)
  Vendor-specific data block, OUI 000c03 (HDMI)
    Source physical address 2.0.0.0
    Supports_AI
    DC_36bit
    DC_30bit
    DC_Y444
    Maximum TMDS clock: 300MHz
    Extended HDMI video details:
      HDMI VIC 1 3840x2160@30Hz 16:9 HorFreq: 67500 Hz Clock: 297.000 MHz
      HDMI VIC 2 3840x2160@25Hz 16:9 HorFreq: 56250 Hz Clock: 297.000 MHz
      HDMI VIC 3 3840x2160@24Hz 16:9 HorFreq: 54000 Hz Clock: 297.000 MHz
  Vendor-specific data block, OUI c45dd8 (HDMI Forum)
    Version: 1
    Maximum TMDS Character Rate: 600MHz
    SCDC Present
    Supports 12-bits/component Deep Color 4:2:0 Pixel Encoding
    Supports 10-bits/component Deep Color 4:2:0 Pixel Encoding
  Extended tag: YCbCr 4:2:0 capability map data block
    VSD Index 12
    VSD Index 13
Basic audio support
Supports YCbCr 4:4:4
Supports YCbCr 4:2:2
1 native detailed modes
Detailed mode: Clock 327.500 MHz, 879 mm x 366 mm
               3840 3888 3920 4000 hborder 0
               1600 1603 1613 1638 vborder 0
               +hsync -vsync 
               VertFreq: 49 Hz, HorFreq: 81875 Hz
Detailed mode: Clock 194.750 MHz, 879 mm x 366 mm
               3840 3888 3920 4000 hborder 0
               1600 1603 1613 1623 vborder 0
               +hsync -vsync 
               VertFreq: 29 Hz, HorFreq: 48687 Hz
Checksum: 0xbb (valid)

One or more of the timings is out of range of the Monitor Ranges:
  Vertical Freq: 24 - 120 Hz
  Horizontal Freq: 28125 - 540000 Hz
  Maximum Clock: 5940.000 MHz
EDID block does not conform at all!
	Both the serial number and the serial string are set
