
EDID (hex):
00ffffffffffff0022701c000f000000
13140103803b25782aaff5a6544c9e23
10505421080081809500b300d1000101
010101010101283c80a070b023403020
360051722100001a000000ff00303139
464e3236593030303135000000fc0048
5347313037350a2020202020000000fd
003b3d1f5011000a202020202020016e

Extracted contents:
header:          00 ff ff ff ff ff ff 00
serial number:   22 70 1c 00 0f 00 00 00 13 14
version:         01 03
basic params:    80 3b 25 78 2a
chroma info:     af f5 a6 54 4c 9e 23 10 50 54
established:     21 08 00
standard:        81 80 95 00 b3 00 d1 00 01 01 01 01 01 01 01 01
descriptor 1:    28 3c 80 a0 70 b0 23 40 30 20 36 00 51 72 21 00 00 1a
descriptor 2:    00 00 00 ff 00 30 31 39 46 4e 32 36 59 30 30 30 31 35
descriptor 3:    00 00 00 fc 00 48 53 47 31 30 37 35 0a 20 20 20 20 20
descriptor 4:    00 00 00 fd 00 3b 3d 1f 50 11 00 0a 20 20 20 20 20 20
extensions:      01
checksum:        6e

EDID version: 1.3
Manufacturer: HSP Model 1c Serial Number --
Made in week 19 of 2010
Digital display
Maximum image size: 59 cm x 37 cm
Gamma: 2.20
DPMS levels: Off
RGB color display
First detailed timing is preferred timing
Display x,y Chromaticity:
  Red:   0.6503, 0.3300
  Green: 0.2998, 0.6201
  Blue:  0.1396, 0.0654
  White: 0.3134, 0.3291
Established timings supported:
  640x480@60Hz 4:3 HorFreq: 31469 Hz Clock: 25.175 MHz
  800x600@60Hz 4:3 HorFreq: 37900 Hz Clock: 40.000 MHz
  1024x768@60Hz 4:3 HorFreq: 48400 Hz Clock: 65.000 MHz
Standard timings supported:
  1280x1024@60Hz 5:4 HorFreq: 64000 Hz Clock: 108.000 MHz
  1440x900@60Hz 16:10 HorFreq: 55500 Hz Clock: 88.750 MHz
  1680x1050@60Hz 16:10 HorFreq: 64700 Hz Clock: 119.000 MHz
  1920x1200@60Hz 16:10 HorFreq: 74000 Hz Clock: 154.000 MHz
Detailed mode: Clock 154.000 MHz, 593 mm x 370 mm
               1920 1968 2000 2080 hborder 0
               1200 1203 1209 1235 vborder 0
               +hsync -vsync 
               VertFreq: 59 Hz, HorFreq: 74038 Hz
Serial number: --
Monitor name: HSG1075
Monitor ranges (GTF): 59-61Hz V, 31-80kHz H, max dotclock 170MHz
Has 1 extension blocks
Checksum: 0x6e (valid)


