edid-decode (hex):

00 ff ff ff ff ff ff 00 30 ae a9 40 00 00 00 00
00 1e 01 04 a5 1f 11 78 e2 ad f5 98 5e 59 8b 26
1c 50 54 00 00 00 01 01 01 01 01 01 01 01 01 01
01 01 01 01 01 01 2e 36 80 a0 70 38 1f 40 30 20
35 00 35 ae 10 00 00 1a b6 2c 80 f4 70 38 16 40
30 20 35 00 35 ae 10 00 00 1a 00 00 00 0f 00 d1
09 3c d1 09 30 19 0a 00 30 e4 76 06 00 00 00 fe
00 4c 50 31 34 30 57 46 48 2d 53 50 44 31 00 3d

00 ff ff ff ff ff ff 00 30 ae a9 40 00 00 00 00
00 1e 01 04 a5 1f 11 78 e2 ad f5 98 5e 59 8b 26
1c 50 54 00 00 00 01 01 01 01 01 01 01 01 01 01
01 01 01 01 01 01 2e 36 80 a0 70 38 1f 40 30 20
35 00 35 ae 10 00 00 1a b6 2c 80 f4 70 38 16 40
30 20 35 00 35 ae 10 00 00 1a 00 00 00 0f 00 d1
09 3c d1 09 30 19 0a 00 30 e4 76 06 00 00 00 fe
00 4c 50 31 34 30 57 46 48 2d 53 50 44 31 00 3d

----------------

Block 0, Base EDID:
  EDID Structure Version & Revision: 1.4
  Vendor & Product Identification:
    Manufacturer: LEN
    Model: 16553
    Made in: 2020
  Basic Display Parameters & Features:
    Digital display
    Bits per primary color channel: 8
    DisplayPort interface
    Maximum image size: 31 cm x 17 cm
    Gamma: 2.20
    DPMS levels: Standby Suspend Off
    Supported color formats: RGB 4:4:4
    First detailed timing includes the native pixel format and preferred refresh rate
  Color Characteristics:
    Red  : 0.5957, 0.3691
    Green: 0.3505, 0.5439
    Blue : 0.1513, 0.1123
    White: 0.3134, 0.3291
  Established Timings I & II: none
  Standard Timings: none
  Detailed Timing Descriptors:
    DTD 1:  1920x1080   60.020425 Hz  16:9     66.683 kHz    138.700000 MHz (309 mm x 174 mm)
                 Hfront   48 Hsync  32 Hback   80 Hpol P
                 Vfront    3 Vsync   5 Vback   23 Vpol N
    DTD 2:  1920x1080   47.997088 Hz  16:9     52.893 kHz    114.460000 MHz (309 mm x 174 mm)
                 Hfront   48 Hsync  32 Hback  164 Hpol P
                 Vfront    3 Vsync   5 Vback   14 Vpol N
    Manufacturer-Specified Display Descriptor (0x0f): 00 0f 00 d1 09 3c d1 09 30 19 0a 00 30 e4 76 06 '.....<..0...0.v.'
    Alphanumeric Data String: 'LP140WFH-SPD1'
Checksum: 0x3d

----------------

Block 1, Unknown EDID Extension Block 0x00:
  00 ff ff ff ff ff ff 00 30 ae a9 40 00 00 00 00 '........0..@....'
  00 1e 01 04 a5 1f 11 78 e2 ad f5 98 5e 59 8b 26 '.......x....^Y.&'
  1c 50 54 00 00 00 01 01 01 01 01 01 01 01 01 01 '.PT.............'
  01 01 01 01 01 01 2e 36 80 a0 70 38 1f 40 30 20 '.......6..p8.@0 '
  35 00 35 ae 10 00 00 1a b6 2c 80 f4 70 38 16 40 '5.5......,..p8.@'
  30 20 35 00 35 ae 10 00 00 1a 00 00 00 0f 00 d1 '0 5.5...........'
  09 3c d1 09 30 19 0a 00 30 e4 76 06 00 00 00 fe '.<..0...0.v.....'
  00 4c 50 31 34 30 57 46 48 2d 53 50 44 31 00 3d '.LP140WFH-SPD1.='
Checksum: 0x3d

----------------

Warnings:

Block 0, Base EDID:
  Missing Display Product Name.

Failures:

Block 1, Base EDID:
  Unknown Extension Block.
EDID:
  Base EDID: EDID specified 0 extension block(s), but found 1 extension block(s).

EDID conformity: FAIL
