edid-decode (hex):

00 ff ff ff ff ff ff 00 30 ae a9 40 00 00 00 00
29 1d 01 04 a5 1f 11 78 e3 28 65 97 59 54 8e 27
1e 50 54 00 00 00 01 01 01 01 01 01 01 01 01 01
01 01 01 01 01 01 36 36 80 a0 70 38 20 40 30 20
a6 00 35 ad 10 00 00 18 00 00 00 fd 00 28 3c 43
43 0e 01 0a 20 20 20 20 20 20 00 00 00 0f 00 d1
09 3c d1 09 28 1e 0a 00 0d ae 0a 14 00 00 00 fe
00 4e 31 34 30 48 43 41 2d 45 41 45 0a 20 00 21

00 ff ff ff ff ff ff 00 30 ae a9 40 00 00 00 00
29 1d 01 04 a5 1f 11 78 e3 28 65 97 59 54 8e 27
1e 50 54 00 00 00 01 01 01 01 01 01 01 01 01 01
01 01 01 01 01 01 36 36 80 a0 70 38 20 40 30 20
a6 00 35 ad 10 00 00 18 00 00 00 fd 00 28 3c 43
43 0e 01 0a 20 20 20 20 20 20 00 00 00 0f 00 d1
09 3c d1 09 28 1e 0a 00 0d ae 0a 14 00 00 00 fe
00 4e 31 34 30 48 43 41 2d 45 41 45 0a 20 00 21

----------------

Block 0, Base EDID:
  EDID Structure Version & Revision: 1.4
  Vendor & Product Identification:
    Manufacturer: LEN
    Model: 16553
    Made in: week 41 of 2019
  Basic Display Parameters & Features:
    Digital display
    Bits per primary color channel: 8
    DisplayPort interface
    Maximum image size: 31 cm x 17 cm
    Gamma: 2.20
    DPMS levels: Standby Suspend Off
    Supported color formats: RGB 4:4:4
    First detailed timing includes the native pixel format and preferred refresh rate
    Display is continuous frequency
  Color Characteristics:
    Red  : 0.5898, 0.3496
    Green: 0.3300, 0.5546
    Blue : 0.1533, 0.1191
    White: 0.3134, 0.3291
  Established Timings I & II: none
  Standard Timings: none
  Detailed Timing Descriptors:
    DTD 1:  1920x1080   60.001038 Hz  16:9     66.721 kHz    138.780000 MHz (309 mm x 173 mm)
                 Hfront   48 Hsync  32 Hback   80 Hpol N
                 Vfront   10 Vsync   6 Vback   16 Vpol N
    Display Range Limits:
      Monitor ranges (Bare Limits): 40-60 Hz V, 67-67 kHz H, max dotclock 140 MHz
    Manufacturer-Specified Display Descriptor (0x0f): 00 0f 00 d1 09 3c d1 09 28 1e 0a 00 0d ae 0a 14 '.....<..(.......'
    Alphanumeric Data String: 'N140HCA-EAE'
Checksum: 0x21

----------------

Block 1, Unknown EDID Extension Block 0x00:
  00 ff ff ff ff ff ff 00 30 ae a9 40 00 00 00 00 '........0..@....'
  29 1d 01 04 a5 1f 11 78 e3 28 65 97 59 54 8e 27 ')......x.(e.YT.''
  1e 50 54 00 00 00 01 01 01 01 01 01 01 01 01 01 '.PT.............'
  01 01 01 01 01 01 36 36 80 a0 70 38 20 40 30 20 '......66..p8 @0 '
  a6 00 35 ad 10 00 00 18 00 00 00 fd 00 28 3c 43 '..5..........(<C'
  43 0e 01 0a 20 20 20 20 20 20 00 00 00 0f 00 d1 'C...      ......'
  09 3c d1 09 28 1e 0a 00 0d ae 0a 14 00 00 00 fe '.<..(...........'
  00 4e 31 34 30 48 43 41 2d 45 41 45 0a 20 00 21 '.N140HCA-EAE. .!'
Checksum: 0x21

----------------

Warnings:

Block 0, Base EDID:
  Missing Display Product Name.

Failures:

Block 1, Base EDID:
  Unknown Extension Block.
EDID:
  Base EDID: EDID specified 0 extension block(s), but found 1 extension block(s).

EDID conformity: FAIL
