
EDID (hex):
00ffffffffffff0006af772300000000
01130103902115780a1cf59758508e27
27505400000001010101010101010101
010101010101302aa01252840c304020
33004bcf1000001a302aa01252840c30
402033004bcf1000001a000000fe0054
3734394a804231353450573200000000
00000000000000000002010a202000cb

Extracted contents:
header:          00 ff ff ff ff ff ff 00
serial number:   06 af 77 23 00 00 00 00 01 13
version:         01 03
basic params:    90 21 15 78 0a
chroma info:     1c f5 97 58 50 8e 27 27 50 54
established:     00 00 00
standard:        01 01 01 01 01 01 01 01 01 01 01 01 01 01 01 01
descriptor 1:    30 2a a0 12 52 84 0c 30 40 20 33 00 4b cf 10 00 00 1a
descriptor 2:    30 2a a0 12 52 84 0c 30 40 20 33 00 4b cf 10 00 00 1a
descriptor 3:    00 00 00 fe 00 54 37 34 39 4a 80 42 31 35 34 50 57 32
descriptor 4:    00 00 00 00 00 00 00 00 00 00 00 00 00 02 01 0a 20 20
extensions:      00
checksum:        cb

EDID version: 1.3
Manufacturer: AUO Model 2377 Serial Number --
Made in week 1 of 2009
Digital display
Maximum image size: 33 cm x 21 cm
Gamma: 2.20
RGB color display
First detailed timing is preferred timing
Display x,y Chromaticity:
  Red:   0.5898, 0.3447
  Green: 0.3154, 0.5546
  Blue:  0.1552, 0.1552
  White: 0.3134, 0.3291
Established timings supported:
Standard timings supported:
Detailed mode: Clock 108.000 MHz, 331 mm x 207 mm
               1440 1504 1536 1970 hborder 0
                900  903  906  912 vborder 0
               +hsync -vsync 
               VertFreq: 60 Hz, HorFreq: 54822 Hz
Detailed mode: Clock 108.000 MHz, 331 mm x 207 mm
               1440 1504 1536 1970 hborder 0
                900  903  906  912 vborder 0
               +hsync -vsync 
               VertFreq: 60 Hz, HorFreq: 54822 Hz
ASCII string: T749J
Manufacturer-specified data, tag 0
Checksum: 0xcb (valid)
EDID block does NOT conform to EDID 1.3!
	Digital display field contains garbage: 10
	Missing name descriptor
	Missing monitor ranges
	Detailed block string not properly terminated
