
EDID (hex):
00ffffffffffff0030e4aa0600000000
a41e0104b5221578e30770a85532b624
0f4f5600000001010101010101010101
01010101010178e700a0f06045903020
360058d71000001a000000fd00303c94
943c010a202020202020000000fe004c
4720446973706c61790a2020000000fe
004c503136305551312d535042310138
02030f00e3058000e606050173734200
00000000000000000000000000000000
00000000000000000000000000000000
00000000000000000000000000000000
00000000000000000000000000000000
00000000000000000000000000000000
00000000000000000000000000000000
0000000000000000000000000000006a

Extracted contents:
header:          00 ff ff ff ff ff ff 00
serial number:   30 e4 aa 06 00 00 00 00 a4 1e
version:         01 04
basic params:    b5 22 15 78 e3
chroma info:     07 70 a8 55 32 b6 24 0f 4f 56
established:     00 00 00
standard:        01 01 01 01 01 01 01 01 01 01 01 01 01 01 01 01
descriptor 1:    78 e7 00 a0 f0 60 45 90 30 20 36 00 58 d7 10 00 00 1a
descriptor 2:    00 00 00 fd 00 30 3c 94 94 3c 01 0a 20 20 20 20 20 20
descriptor 3:    00 00 00 fe 00 4c 47 20 44 69 73 70 6c 61 79 0a 20 20
descriptor 4:    00 00 00 fe 00 4c 50 31 36 30 55 51 31 2d 53 50 42 31
extensions:      01
checksum:        38

EDID version: 1.4
Manufacturer: LGD Model 6aa Serial Number --
Digital display
10 bits per primary color channel
DisplayPort interface
Maximum image size: 34 cm x 21 cm
Gamma: 2.20
DPMS levels: Standby Suspend Off
Supported color formats: RGB 4:4:4
First detailed timing includes the native pixel format and preferred refresh rate
Display is continuous frequency
Display x,y Chromaticity:
  Red:   0.6562, 0.3320
  Green: 0.1962, 0.7138
  Blue:  0.1416, 0.0615
  White: 0.3085, 0.3359
Established timings supported:
Standard timings supported:
Detailed mode: Clock 592.560 MHz, 344 mm x 215 mm
               3840 3888 3920 4000 hborder 0
               2400 2403 2409 2469 vborder 0
               +hsync -vsync 
               VertFreq: 60 Hz, HorFreq: 148140 Hz
Monitor ranges (bare limits): 48-60Hz V, 148-148kHz H, max dotclock 600MHz
ASCII string: LG Display
ASCII string: LP160UQ1-SPB1
Has 1 extension blocks
Checksum: 0x38 (valid)

CTA extension block
Extension version: 3
11 bytes of CTA data
  Extended tag: Colorimetry data block
    BT2020RGB
  Extended tag: HDR static metadata data block
    Electro optical transfer functions:
      Traditional gamma - SDR luminance range
      SMPTE ST2084
    Supported static metadata descriptors:
      Static metadata type 1
    Desired content max luminance: 115 (603.666 cd/m^2)
    Desired content max frame-average luminance: 115 (603.666 cd/m^2)
    Desired content min luminance: 66 (0.404 cd/m^2)
0 native detailed modes
Checksum: 0x6a (valid)

EDID block does NOT conform to EDID 1.4!
	Required 640x480p60 timings are missing in the established timings
	and/or in the SVD list (VIC 1)
	Missing name descriptor
Warning: One or more of the timings is out of range of the Monitor Ranges:
  Vertical Freq: 60 - 60 Hz
  Horizontal Freq: 148140 - 148140 Hz
  Maximum Clock: 592.560 MHz
EDID block does not conform at all!
	Bad year of manufacture
	Bad week of manufacture
