
EDID (hex):
00ffffffffffff00220ef93601010101
301f0104a55021783a3545ac4f46a727
135054210800d100d1c0b300a9c09500
8180810081c0e77c70a0d0a029503020
3a001d4e3100001a000000fd0030641e
a037010a202020202020000000fc0048
502050333468632047340a20000000ff
00434e43313438305147370a202001a6
020319f149901f041303120211012309
070783010000e2006b4ed470a0d0a046
5030203a001d4e3100001ae77c70a0d0
a0295030203a001d4e3100001a283c80
a070b02340302036001d4e3100001a00
00000000000000000000000000000000
00000000000000000000000000000000
00000000000000000000000000000057

Extracted contents:
header:          00 ff ff ff ff ff ff 00
serial number:   22 0e f9 36 01 01 01 01 30 1f
version:         01 04
basic params:    a5 50 21 78 3a
chroma info:     35 45 ac 4f 46 a7 27 13 50 54
established:     21 08 00
standard:        d1 00 d1 c0 b3 00 a9 c0 95 00 81 80 81 00 81 c0
descriptor 1:    e7 7c 70 a0 d0 a0 29 50 30 20 3a 00 1d 4e 31 00 00 1a
descriptor 2:    00 00 00 fd 00 30 64 1e a0 37 01 0a 20 20 20 20 20 20
descriptor 3:    00 00 00 fc 00 48 50 20 50 33 34 68 63 20 47 34 0a 20
descriptor 4:    00 00 00 ff 00 43 4e 43 31 34 38 30 51 47 37 0a 20 20
extensions:      01
checksum:        a6

EDID version: 1.4
Manufacturer: HPN Model 36f9 Serial Number --
Made in week 48 of 2021
Digital display
8 bits per primary color channel
DisplayPort interface
Maximum image size: 80 cm x 33 cm
Gamma: 2.20
DPMS levels: Off
Supported color formats: RGB 4:4:4, YCrCb 4:4:4, YCrCb 4:2:2
First detailed timing includes the native pixel format and preferred refresh rate
Display x,y Chromaticity:
  Red:   0.6718, 0.3115
  Green: 0.2744, 0.6533
  Blue:  0.1533, 0.0742
  White: 0.3134, 0.3291
Established timings supported:
  640x480@60Hz 4:3 HorFreq: 31469 Hz Clock: 25.175 MHz
  800x600@60Hz 4:3 HorFreq: 37900 Hz Clock: 40.000 MHz
  1024x768@60Hz 4:3 HorFreq: 48400 Hz Clock: 65.000 MHz
Standard timings supported:
  1920x1200@60Hz 16:10 HorFreq: 74000 Hz Clock: 154.000 MHz
  1920x1080@60Hz 16:9
  1680x1050@60Hz 16:10 HorFreq: 64700 Hz Clock: 119.000 MHz
  1600x900@60Hz 16:9
  1440x900@60Hz 16:10 HorFreq: 55500 Hz Clock: 88.750 MHz
  1280x1024@60Hz 5:4 HorFreq: 64000 Hz Clock: 108.000 MHz
  1280x800@60Hz 16:10
  1280x720@60Hz 16:9
Detailed mode: Clock 319.750 MHz, 797 mm x 334 mm
               3440 3488 3520 3600 hborder 0
               1440 1443 1453 1481 vborder 0
               +hsync -vsync 
               VertFreq: 59 Hz, HorFreq: 88819 Hz
Monitor ranges (bare limits): 48-100Hz V, 30-160kHz H, max dotclock 550MHz
Monitor name: HP P34hc G4
Serial number: --
Has 1 extension blocks
Checksum: 0xa6 (valid)

CTA extension block
Extension version: 3
21 bytes of CTA data
  Video data block
    VIC  16 1920x1080@60Hz 16:9 (native) HorFreq: 67500 Hz Clock: 148.500 MHz
    VIC  31 1920x1080@50Hz 16:9  HorFreq: 56250 Hz Clock: 148.500 MHz
    VIC   4 1280x720@60Hz 16:9  HorFreq: 45000 Hz Clock: 74.250 MHz
    VIC  19 1280x720@50Hz 16:9  HorFreq: 37500 Hz Clock: 74.250 MHz
    VIC   3 720x480@60Hz 16:9  HorFreq: 31469 Hz Clock: 27.000 MHz
    VIC  18 720x576@50Hz 16:9  HorFreq: 31250 Hz Clock: 27.000 MHz
    VIC   2 720x480@60Hz 4:3  HorFreq: 31469 Hz Clock: 27.000 MHz
    VIC  17 720x576@50Hz 4:3  HorFreq: 31250 Hz Clock: 27.000 MHz
    VIC   1 640x480@60Hz 4:3  HorFreq: 31469 Hz Clock: 25.175 MHz
  Audio data block
    Linear PCM, max channels 2
      Supported sample rates (kHz): 48 44.1 32
      Supported sample sizes (bits): 24 20 16
  Speaker allocation data block
    Speaker map:
      FL/FR - Front Left/Right
  Extended tag: Video capability data block
    YCbCr quantization: No Data (0)
    RGB quantization: Selectable (via AVI Q) (1)
    PT scan behaviour: Always Underscanned (2)
    IT scan behaviour: Always Underscanned (2)
    CE scan behaviour: Support both over- and underscan (3)
Underscans PC formats by default
Basic audio support
Supports YCbCr 4:4:4
Supports YCbCr 4:2:2
1 native detailed modes
Detailed mode: Clock 543.500 MHz, 797 mm x 334 mm
               3440 3488 3520 3600 hborder 0
               1440 1443 1453 1510 vborder 0
               +hsync -vsync 
               VertFreq: 99 Hz, HorFreq: 150972 Hz
Detailed mode: Clock 319.750 MHz, 797 mm x 334 mm
               3440 3488 3520 3600 hborder 0
               1440 1443 1453 1481 vborder 0
               +hsync -vsync 
               VertFreq: 59 Hz, HorFreq: 88819 Hz
Detailed mode: Clock 154.000 MHz, 797 mm x 334 mm
               1920 1968 2000 2080 hborder 0
               1200 1203 1209 1235 vborder 0
               +hsync -vsync 
               VertFreq: 59 Hz, HorFreq: 74038 Hz
Checksum: 0x57 (valid)

EDID block does not conform at all!
	Both the serial number and the serial string are set


