
EDID (hex):
00ffffffffffff001e6dd14267370000
0a0b0103082119b9e88ac9a1544b9924
12484cfffe80314f3159454f4559614a
614f61598180ea240060410028303060
13003be61000001e302a009851002a40
307013003be61000001e000000fd0032
a01e460b000a202020202020000000fc
00464c4154524f4e20373735465400ea

Extracted contents:
header:          00 ff ff ff ff ff ff 00
serial number:   1e 6d d1 42 67 37 00 00 0a 0b
version:         01 03
basic params:    08 21 19 b9 e8
chroma info:     8a c9 a1 54 4b 99 24 12 48 4c
established:     ff fe 80
standard:        31 4f 31 59 45 4f 45 59 61 4a 61 4f 61 59 81 80
descriptor 1:    ea 24 00 60 41 00 28 30 30 60 13 00 3b e6 10 00 00 1e
descriptor 2:    30 2a 00 98 51 00 2a 40 30 70 13 00 3b e6 10 00 00 1e
descriptor 3:    00 00 00 fd 00 32 a0 1e 46 0b 00 0a 20 20 20 20 20 20
descriptor 4:    00 00 00 fc 00 46 4c 41 54 52 4f 4e 20 37 37 35 46 54
extensions:      00
checksum:        ea

EDID version: 1.3
Manufacturer: GSM Model 42d1 Serial Number --
Analog display, Input voltage level: 0.7/0.3 V
Sync: Separate 
Maximum image size: 33 cm x 25 cm
Gamma: 2.85
DPMS levels: Standby Suspend Off
RGB color display
Display x,y Chromaticity:
  Red:   0.6308, 0.3281
  Green: 0.2949, 0.5996
  Blue:  0.1435, 0.0703
  White: 0.2832, 0.2978
Established timings supported:
  720x400@70Hz 9:5 HorFreq: 31469 Hz Clock: 28.320 MHz
  720x400@88Hz 9:5 HorFreq: 39500 Hz Clock: 35.500 MHz
  640x480@60Hz 4:3 HorFreq: 31469 Hz Clock: 25.175 MHz
  640x480@67Hz 4:3 HorFreq: 35000 Hz Clock: 30.240 MHz
  640x480@72Hz 4:3 HorFreq: 37900 Hz Clock: 31.500 MHz
  640x480@75Hz 4:3 HorFreq: 37500 Hz Clock: 31.500 MHz
  800x600@56Hz 4:3 HorFreq: 35200 Hz Clock: 36.000 MHz
  800x600@60Hz 4:3 HorFreq: 37900 Hz Clock: 40.000 MHz
  800x600@72Hz 4:3 HorFreq: 48100 Hz Clock: 50.000 MHz
  800x600@75Hz 4:3 HorFreq: 46900 Hz Clock: 49.500 MHz
  832x624@75Hz 4:3 HorFreq: 49726 Hz Clock: 57.284 MHz
  1280x768i@87Hz 5:3 HorFreq: 35522 Hz Clock: 44.900 MHz
  1024x768@60Hz 4:3 HorFreq: 48400 Hz Clock: 65.000 MHz
  1024x768@70Hz 4:3 HorFreq: 56500 Hz Clock: 75.000 MHz
  1024x768@75Hz 4:3 HorFreq: 60000 Hz Clock: 78.750 MHz
  1152x870@75Hz 192:145 HorFreq: 67500 Hz Clock: 108.000 MHz
Standard timings supported:
  640x480@75Hz 4:3 HorFreq: 37500 Hz Clock: 31.500 MHz
  640x480@85Hz 4:3 HorFreq: 43300 Hz Clock: 36.000 MHz
  800x600@75Hz 4:3 HorFreq: 46900 Hz Clock: 49.500 MHz
  800x600@85Hz 4:3 HorFreq: 53700 Hz Clock: 56.250 MHz
  1024x768@70Hz 4:3 HorFreq: 56500 Hz Clock: 75.000 MHz
  1024x768@75Hz 4:3 HorFreq: 60000 Hz Clock: 78.750 MHz
  1024x768@85Hz 4:3 HorFreq: 68700 Hz Clock: 94.500 MHz
  1280x1024@60Hz 5:4 HorFreq: 64000 Hz Clock: 108.000 MHz
Detailed mode: Clock 94.500 MHz, 315 mm x 230 mm
               1024 1072 1168 1376 hborder 0
                768  769  772  808 vborder 0
               +hsync +vsync 
               VertFreq: 84 Hz, HorFreq: 68677 Hz
Detailed mode: Clock 108.000 MHz, 315 mm x 230 mm
               1280 1328 1440 1688 hborder 0
               1024 1025 1028 1066 vborder 0
               +hsync +vsync 
               VertFreq: 60 Hz, HorFreq: 63981 Hz
Monitor ranges (GTF): 50-160Hz V, 30-70kHz H, max dotclock 110MHz
Checksum: 0xea (valid)
EDID block does NOT conform to EDID 1.3!
	Name descriptor not terminated with a newline
	Missing preferred timing
EDID block does not conform at all!
	Bad year of manufacture
