
EDID (hex):
00ffffffffffff0009e5550a00000000
011f0104a522137803fec5ae5043b126
0e505400000001010101010101010101
010101010101cc6800c8a0a0b4503020
360058c21000001a000000fd0c3cf086
866b010a202020202020000000fe0042
4f452043510a202020202020000000fe
004e4531353651484d2d4e5a320a01aa
70137900000301142da30184ff09c700
2f001f009f05b3000200050000000000
00000000000000000000000000000000
00000000000000000000000000000000
00000000000000000000000000000000
00000000000000000000000000000000
00000000000000000000000000000000
00000000000000000000000000008c90

Extracted contents:
header:          00 ff ff ff ff ff ff 00
serial number:   09 e5 55 0a 00 00 00 00 01 1f
version:         01 04
basic params:    a5 22 13 78 03
chroma info:     fe c5 ae 50 43 b1 26 0e 50 54
established:     00 00 00
standard:        01 01 01 01 01 01 01 01 01 01 01 01 01 01 01 01
descriptor 1:    cc 68 00 c8 a0 a0 b4 50 30 20 36 00 58 c2 10 00 00 1a
descriptor 2:    00 00 00 fd 0c 3c f0 86 86 6b 01 0a 20 20 20 20 20 20
descriptor 3:    00 00 00 fe 00 42 4f 45 20 43 51 0a 20 20 20 20 20 20
descriptor 4:    00 00 00 fe 00 4e 45 31 35 36 51 48 4d 2d 4e 5a 32 0a
extensions:      01
checksum:        aa

EDID version: 1.4
Manufacturer: BOE Model a55 Serial Number --
Made in week 1 of 2021
Digital display
8 bits per primary color channel
DisplayPort interface
Maximum image size: 34 cm x 19 cm
Gamma: 2.20
Supported color formats: RGB 4:4:4
First detailed timing includes the native pixel format and preferred refresh rate
Display is continuous frequency
Display x,y Chromaticity:
  Red:   0.6826, 0.3154
  Green: 0.2646, 0.6933
  Blue:  0.1513, 0.0546
  White: 0.3134, 0.3291
Established timings supported:
Standard timings supported:
Detailed mode: Clock 268.280 MHz, 344 mm x 194 mm
               2560 2608 2640 2760 hborder 0
               1440 1443 1449 1620 vborder 0
               +hsync -vsync 
               VertFreq: 60 Hz, HorFreq: 97202 Hz
Monitor ranges (bare limits): 60-240Hz V, 134-389kHz H, max dotclock 1070MHz
ASCII string: BOE CQ
ASCII string: NE156QHM-NZ2
Has 1 extension blocks
Checksum: 0xaa (valid)

DisplayID extension block
Extension version: 19
Length 121, version 19, extension count 0
Checksum: 0x8c (valid)
Type 1 detailed timing: aspect: 16:9, Preferred  
Detailed mode: Clock 1073.090 MHz, 0 mm x 0 mm
               2559 2606 2637 2758
               1439 1441 1446 1618
               -hsync -vsync

EDID block does NOT conform to EDID 1.4!
	Missing name descriptor
Warning: One or more of the timings is out of range of the Monitor Ranges:
  Vertical Freq: 60 - 60 Hz
  Horizontal Freq: 97202 - 97202 Hz
  Maximum Clock: 268.280 MHz
EDID block does not conform at all!
	Has 1442840576 nonconformant extension block(s)
