edid-decode (hex):

00 ff ff ff ff ff ff 00 09 e5 55 0a 00 00 00 00
01 1f 01 04 a5 22 13 78 03 fe c5 ae 50 43 b1 26
0e 50 54 00 00 00 01 01 01 01 01 01 01 01 01 01
01 01 01 01 01 01 cc 68 00 c8 a0 a0 b4 50 30 20
36 00 58 c2 10 00 00 1a 00 00 00 fd 0c 3c f0 86
86 6b 01 0a 20 20 20 20 20 20 00 00 00 fe 00 42
4f 45 20 43 51 0a 20 20 20 20 20 20 00 00 00 fe
00 4e 45 31 35 36 51 48 4d 2d 4e 5a 32 0a 01 aa

70 13 79 00 00 03 01 14 2d a3 01 84 ff 09 c7 00
2f 00 1f 00 9f 05 b3 00 02 00 05 00 00 00 00 00
00 00 00 00 00 00 00 00 00 00 00 00 00 00 00 00
00 00 00 00 00 00 00 00 00 00 00 00 00 00 00 00
00 00 00 00 00 00 00 00 00 00 00 00 00 00 00 00
00 00 00 00 00 00 00 00 00 00 00 00 00 00 00 00
00 00 00 00 00 00 00 00 00 00 00 00 00 00 00 00
00 00 00 00 00 00 00 00 00 00 00 00 00 00 8c 90

----------------

Block 0, Base EDID:
  EDID Structure Version & Revision: 1.4
  Vendor & Product Identification:
    Manufacturer: BOE
    Model: 2645
    Made in: week 1 of 2021
  Basic Display Parameters & Features:
    Digital display
    Bits per primary color channel: 8
    DisplayPort interface
    Maximum image size: 34 cm x 19 cm
    Gamma: 2.20
    Supported color formats: RGB 4:4:4
    First detailed timing includes the native pixel format and preferred refresh rate
    Display is continuous frequency
  Color Characteristics:
    Red  : 0.6826, 0.3154
    Green: 0.2646, 0.6933
    Blue : 0.1513, 0.0546
    White: 0.3134, 0.3291
  Established Timings I & II: none
  Standard Timings: none
  Detailed Timing Descriptors:
    DTD 1:  2560x1440   60.001789 Hz  16:9     97.203 kHz    268.280000 MHz (344 mm x 194 mm)
                 Hfront   48 Hsync  32 Hback  120 Hpol P
                 Vfront    3 Vsync   6 Vback  171 Vpol N
    Display Range Limits:
      Monitor ranges (Bare Limits): 60-240 Hz V, 389-389 kHz H, max dotclock 1070 MHz
    Alphanumeric Data String: 'BOE CQ'
    Alphanumeric Data String: 'NE156QHM-NZ2'
  Extension blocks: 1
Checksum: 0xaa

----------------

Block 1, DisplayID Extension Block:
  Version: 1.3
  Extension Count: 0
  Display Product Type: Extension Section
  Video Timing Modes Type 1 - Detailed Timings Data Block:
    DTD:  2560x1440  240.002684 Hz  16:9    388.804 kHz   1073.100000 MHz (aspect 16:9, no 3D stereo, preferred)
               Hfront   48 Hsync  32 Hback  120 Hpol N
               Vfront    3 Vsync   6 Vback  171 Vpol N
  Checksum: 0x8c
Checksum: 0x90

----------------

Warnings:

Block 0, Base EDID:
  Missing Display Product Name.
EDID:
  Base EDID: Some timings are out of range of the Monitor Ranges:
    Horizontal Freq: 97.202 - 388.804 kHz (Monitor: 389.000 - 389.000 kHz)
    Maximum Clock: 1073.100 MHz (Monitor: 1070.000 MHz)

Failures:

Block 1, DisplayID Extension Block:
  DisplayID Base Block has no product type.
EDID:
  DisplayID: Missing DisplayID Product Identification Data Block.

EDID conformity: FAIL
