
EDID (hex):
00ffffffffffff0006af9a8500000000
641f0104a51d12780342e591575a9529
1d505400000001010101010101010101
010101010101fa3c80b870b024401010
3e001eb210000018a72880b870b02440
10103e001eb210000018000000000000
00000000000000000000000000000002
001048ff0f3c7d520f207d20202000bb

edid-decode (hex):

00 ff ff ff ff ff ff 00 06 af 9a 85 00 00 00 00
64 1f 01 04 a5 1d 12 78 03 42 e5 91 57 5a 95 29
1d 50 54 00 00 00 01 01 01 01 01 01 01 01 01 01
01 01 01 01 01 01 fa 3c 80 b8 70 b0 24 40 10 10
3e 00 1e b2 10 00 00 18 a7 28 80 b8 70 b0 24 40
10 10 3e 00 1e b2 10 00 00 18 00 00 00 00 00 00
00 00 00 00 00 00 00 00 00 00 00 00 00 00 00 02
00 10 48 ff 0f 3c 7d 52 0f 20 7d 20 20 20 00 bb

----------------

Block 0, Base EDID:
  EDID Structure Version & Revision: 1.4
  Vendor & Product Identification:
    Manufacturer: AUO
    Model: 34202
    Made in: week 100 of 2021
  Basic Display Parameters & Features:
    Digital display
    Bits per primary color channel: 8
    DisplayPort interface
    Maximum image size: 29 cm x 18 cm
    Gamma: 2.20
    Supported color formats: RGB 4:4:4
    First detailed timing includes the native pixel format and preferred refresh rate
    Display is continuous frequency
  Color Characteristics:
    Red  : 0.5673, 0.3398
    Green: 0.3515, 0.5839
    Blue : 0.1630, 0.1152
    White: 0.3134, 0.3291
  Established Timings I & II: none
  Standard Timings: none
  Detailed Timing Descriptors:
    DTD 1:  1920x1200   60.025902 Hz  16:10    74.192 kHz    156.100000 MHz (286 mm x 178 mm)
                 Hfront   16 Hsync  16 Hback  152 Hpol N
                 Vfront    3 Vsync  14 Vback   19 Vpol N
    DTD 2:  1920x1200   40.018550 Hz  16:10    49.463 kHz    104.070000 MHz (286 mm x 178 mm)
                 Hfront   16 Hsync  16 Hback  152 Hpol N
                 Vfront    3 Vsync  14 Vback   19 Vpol N
    Empty Descriptor
    Manufacturer-Specified Display Descriptor (0x02): 00 02 00 10 48 ff 0f 3c 7d 52 0f 20 7d 20 20 20 '....H..<}R. }   '
Checksum: 0xbb
