
EDID (hex):
00ffffffffffff005262050201010101
ff120103085d34782afedba255489d24
10474a210800310a8bc0010101010101
010101010101662150b051001b304070
3600a20b3200001e000000fc00544f53
484942412d54560a2020000000fd003b
481f3109000a202020202020000000ff
003030303030303030300a20202000d9

Extracted contents:
header:          00 ff ff ff ff ff ff 00
serial number:   52 62 05 02 01 01 01 01 ff 12
version:         01 03
basic params:    08 5d 34 78 2a
chroma info:     fe db a2 55 48 9d 24 10 47 4a
established:     21 08 00
standard:        31 0a 8b c0 01 01 01 01 01 01 01 01 01 01 01 01
descriptor 1:    66 21 50 b0 51 00 1b 30 40 70 36 00 a2 0b 32 00 00 1e
descriptor 2:    00 00 00 fc 00 54 4f 53 48 49 42 41 2d 54 56 0a 20 20
descriptor 3:    00 00 00 fd 00 3b 48 1f 31 09 00 0a 20 20 20 20 20 20
descriptor 4:    00 00 00 ff 00 30 30 30 30 30 30 30 30 30 0a 20 20 20
extensions:      00
checksum:        d9

EDID version: 1.3
Manufacturer: TSB Model 205 Serial Number --
Analog display, Input voltage level: 0.7/0.3 V
Sync: Separate 
Maximum image size: 93 cm x 52 cm
Gamma: 2.20
DPMS levels: Off
RGB color display
First detailed timing is preferred timing
Display x,y Chromaticity:
  Red:   0.6357, 0.3349
  Green: 0.2841, 0.6152
  Blue:  0.1435, 0.0634
  White: 0.2792, 0.2919
Established timings supported:
  640x480@60Hz 4:3 HorFreq: 31469 Hz Clock: 25.175 MHz
  800x600@60Hz 4:3 HorFreq: 37900 Hz Clock: 40.000 MHz
  1024x768@60Hz 4:3 HorFreq: 48400 Hz Clock: 65.000 MHz
Standard timings supported:
  640x400@70Hz 16:10
  1360x765@60Hz 16:9
Detailed mode: Clock 85.500 MHz, 930 mm x 523 mm
               1360 1424 1536 1792 hborder 0
                768  771  777  795 vborder 0
               +hsync +vsync 
               VertFreq: 60 Hz, HorFreq: 47712 Hz
Monitor name: TOSHIBA-TV
Monitor ranges (GTF): 59-72Hz V, 31-49kHz H, max dotclock 90MHz
Serial number: --
Checksum: 0xd9 (valid)
EDID block does not conform at all!
	Bad year of manufacture
	Bad week of manufacture
