edid-decode (hex):

00 ff ff ff ff ff ff 00 4c a3 41 4c 00 00 00 00
00 13 01 04 80 1a 10 78 0a 87 f5 94 57 4f 8c 27
27 50 54 00 00 00 01 01 01 01 01 01 01 01 01 01
01 01 01 01 01 01 12 1b 00 49 50 20 36 30 10 30
13 00 05 a3 10 00 00 19 0c 12 00 49 50 20 36 30
10 30 13 00 05 a3 10 00 00 19 00 00 00 00 00 00
00 00 00 00 00 00 00 00 00 00 00 00 00 00 00 02
00 0c 3f f4 0a 3c 6e 18 15 27 6e 00 00 00 00 7a

----------------

Block 0, Base EDID:
  EDID Structure Version & Revision: 1.4
  Vendor & Product Identification:
    Manufacturer: SEC
    Model: 19521
    Made in: 2009
  Basic Display Parameters & Features:
    Digital display
    Color depth is undefined
    Digital interface is not defined
    Maximum image size: 26 cm x 16 cm
    Gamma: 2.20
    Supported color formats: RGB 4:4:4, YCrCb 4:4:4
    First detailed timing includes the native pixel format and preferred refresh rate
  Color Characteristics:
    Red  : 0.5800, 0.3398
    Green: 0.3095, 0.5498
    Blue : 0.1552, 0.1552
    White: 0.3134, 0.3291
  Established Timings I & II: none
  Standard Timings: none
  Detailed Timing Descriptors:
    DTD 1:  1280x800    59.976010 Hz  16:10    51.220 kHz     69.300000 MHz (261 mm x 163 mm)
                 Hfront   16 Hsync  48 Hback    9 Hpol N
                 Vfront    1 Vsync   3 Vback   50 Vpol N
    DTD 2:  1280x800    39.984006 Hz  16:10    34.146 kHz     46.200000 MHz (261 mm x 163 mm)
                 Hfront   16 Hsync  48 Hback    9 Hpol N
                 Vfront    1 Vsync   3 Vback   50 Vpol N
    Empty Descriptor
    Manufacturer-Specified Display Descriptor (0x02): 00 02 00 0c 3f f4 0a 3c 6e 18 15 27 6e 00 00 00 '....?..<n..'n...'
Checksum: 0x7a

----------------

Warnings:

Block 0, Base EDID:
  Missing Display Product Name.

Failures:

Block 0, Base EDID:
  Empty Descriptor: Use Dummy Descriptor instead of all zeroes.

EDID conformity: FAIL
