
EDID (hex):
00ffffffffffff0012cd5155a0020000
330c0103681e1778ea71f59f554b9924
1c4f54afee0001010101010101010101
010101010101c31e0020410020301060
130030e41000001e000000fd00384b18
3d08000a202020202020000000fc004a
5335353520534c494d0a2020000000ff
00353159323030323230303637320047

Extracted contents:
header:          00 ff ff ff ff ff ff 00
serial number:   12 cd 51 55 a0 02 00 00 33 0c
version:         01 03
basic params:    68 1e 17 78 ea
chroma info:     71 f5 9f 55 4b 99 24 1c 4f 54
established:     af ee 00
standard:        01 01 01 01 01 01 01 01 01 01 01 01 01 01 01 01
descriptor 1:    c3 1e 00 20 41 00 20 30 10 60 13 00 30 e4 10 00 00 1e
descriptor 2:    00 00 00 fd 00 38 4b 18 3d 08 00 0a 20 20 20 20 20 20
descriptor 3:    00 00 00 fc 00 4a 53 35 35 35 20 53 4c 49 4d 0a 20 20
descriptor 4:    00 00 00 ff 00 35 31 59 32 30 30 32 32 30 30 36 37 32
extensions:      00
checksum:        47

EDID version: 1.3
Manufacturer: DVM Model 5551 Serial Number --
Analog display, Input voltage level: 0.7/0.7 V
Sync: Separate 
Maximum image size: 30 cm x 23 cm
Gamma: 2.20
DPMS levels: Standby Suspend Off
RGB color display
First detailed timing is preferred timing
Display x,y Chromaticity:
  Red:   0.6220, 0.3349
  Green: 0.2929, 0.5986
  Blue:  0.1435, 0.1123
  White: 0.3095, 0.3291
Established timings supported:
  720x400@70Hz 9:5 HorFreq: 31469 Hz Clock: 28.320 MHz
  640x480@60Hz 4:3 HorFreq: 31469 Hz Clock: 25.175 MHz
  640x480@72Hz 4:3 HorFreq: 37900 Hz Clock: 31.500 MHz
  640x480@75Hz 4:3 HorFreq: 37500 Hz Clock: 31.500 MHz
  800x600@56Hz 4:3 HorFreq: 35200 Hz Clock: 36.000 MHz
  800x600@60Hz 4:3 HorFreq: 37900 Hz Clock: 40.000 MHz
  800x600@72Hz 4:3 HorFreq: 48100 Hz Clock: 50.000 MHz
  800x600@75Hz 4:3 HorFreq: 46900 Hz Clock: 49.500 MHz
  832x624@75Hz 4:3 HorFreq: 49726 Hz Clock: 57.284 MHz
  1024x768@60Hz 4:3 HorFreq: 48400 Hz Clock: 65.000 MHz
  1024x768@70Hz 4:3 HorFreq: 56500 Hz Clock: 75.000 MHz
  1024x768@75Hz 4:3 HorFreq: 60000 Hz Clock: 78.750 MHz
Standard timings supported:
Detailed mode: Clock 78.750 MHz, 304 mm x 228 mm
               1024 1040 1136 1312 hborder 0
                768  769  772  800 vborder 0
               +hsync +vsync 
               VertFreq: 75 Hz, HorFreq: 60022 Hz
Monitor ranges (GTF): 56-75Hz V, 24-61kHz H, max dotclock 80MHz
Monitor name: JS555 SLIM
Serial number: --
Checksum: 0x47 (valid)
EDID block does not conform at all!
	Bad year of manufacture
