
EDID (hex):
00ffffffffffff004c2d3b0800000000
06150103805f37782a7a24a4534ea629
0c4a5200000001010101010101010101
010101010101023a801871382d40582c
4500b6263200001e023a801871382d40
582c4500b6263200001e000000fd0032
3d1e510f000a202020202020000000fc
00534d53555234300a202020202000f3

Extracted contents:
header:          00 ff ff ff ff ff ff 00
serial number:   4c 2d 3b 08 00 00 00 00 06 15
version:         01 03
basic params:    80 5f 37 78 2a
chroma info:     7a 24 a4 53 4e a6 29 0c 4a 52
established:     00 00 00
standard:        01 01 01 01 01 01 01 01 01 01 01 01 01 01 01 01
descriptor 1:    02 3a 80 18 71 38 2d 40 58 2c 45 00 b6 26 32 00 00 1e
descriptor 2:    02 3a 80 18 71 38 2d 40 58 2c 45 00 b6 26 32 00 00 1e
descriptor 3:    00 00 00 fd 00 32 3d 1e 51 0f 00 0a 20 20 20 20 20 20
descriptor 4:    00 00 00 fc 00 53 4d 53 55 52 34 30 0a 20 20 20 20 20
extensions:      00
checksum:        f3

EDID version: 1.3
Manufacturer: SAM Model 83b Serial Number --
Made in week 6 of 2011
Digital display
Maximum image size: 95 cm x 55 cm
Gamma: 2.20
DPMS levels: Off
RGB color display
First detailed timing is preferred timing
Display x,y Chromaticity:
  Red:   0.6416, 0.3271
  Green: 0.3066, 0.6503
  Blue:  0.1601, 0.0488
  White: 0.2900, 0.3203
Established timings supported:
Standard timings supported:
Detailed mode: Clock 148.500 MHz, 950 mm x 550 mm
               1920 2008 2052 2200 hborder 0
               1080 1084 1089 1125 vborder 0
               +hsync +vsync 
               VertFreq: 60 Hz, HorFreq: 67500 Hz
Detailed mode: Clock 148.500 MHz, 950 mm x 550 mm
               1920 2008 2052 2200 hborder 0
               1080 1084 1089 1125 vborder 0
               +hsync +vsync 
               VertFreq: 60 Hz, HorFreq: 67500 Hz
Monitor ranges (GTF): 50-61Hz V, 30-81kHz H, max dotclock 150MHz
Monitor name: SMSUR40
Checksum: 0xf3 (valid)
