edid-decode (hex):

00 ff ff ff ff ff ff 00 2c 82 07 12 00 00 00 00
32 21 01 04 a5 1a 0e 78 0a e1 c1 94 5b 59 94 29
22 50 54 00 00 00 01 01 01 01 01 01 01 01 01 01
01 01 01 01 01 01 87 1b 56 88 50 00 0e 30 28 20
55 00 00 90 10 00 00 1a 00 00 00 00 00 00 00 00
00 00 00 00 00 00 00 00 00 00 00 00 00 00 00 00
00 00 00 00 00 00 00 00 00 00 00 00 00 00 00 fe
00 4b 44 31 31 36 4e 32 39 33 30 41 31 37 00 cc

00 ff ff ff ff ff ff 00 2c 82 07 12 00 00 00 00
32 21 01 04 a5 1a 0e 78 0a e1 c1 94 5b 59 94 29
22 50 54 00 00 00 01 01 01 01 01 01 01 01 01 01
01 01 01 01 01 01 87 1b 56 88 50 00 0e 30 28 20
55 00 00 90 10 00 00 1a 00 00 00 00 00 00 00 00
00 00 00 00 00 00 00 00 00 00 00 00 00 00 00 00
00 00 00 00 00 00 00 00 00 00 00 00 00 00 00 fe
00 4b 44 31 31 36 4e 32 39 33 30 41 31 37 00 cc

----------------

Block 0, Base EDID:
  EDID Structure Version & Revision: 1.4
  Vendor & Product Identification:
    Manufacturer: KDB
    Model: 4615
    Made in: week 50 of 2023
  Basic Display Parameters & Features:
    Digital display
    Bits per primary color channel: 8
    DisplayPort interface
    Maximum image size: 26 cm x 14 cm
    Gamma: 2.20
    Supported color formats: RGB 4:4:4, YCrCb 4:4:4
    First detailed timing includes the native pixel format and preferred refresh rate
  Color Characteristics:
    Red  : 0.5810, 0.3574
    Green: 0.3476, 0.5791
    Blue : 0.1630, 0.1328
    White: 0.3125, 0.3291
  Established Timings I & II: none
  Standard Timings: none
  Detailed Timing Descriptors:
    DTD 1:  1366x768    59.996731 Hz 683:384   46.917 kHz     70.470000 MHz (256 mm x 144 mm)
                 Hfront   40 Hsync  32 Hback   64 Hpol P
                 Vfront    5 Vsync   5 Vback    4 Vpol N
    Empty Descriptor
    Empty Descriptor
    Alphanumeric Data String: 'KD116N2930A17'
Checksum: 0xcc

----------------

Block 1, Unknown EDID Extension Block 0x00:
  00 ff ff ff ff ff ff 00 2c 82 07 12 00 00 00 00 '........,.......'
  32 21 01 04 a5 1a 0e 78 0a e1 c1 94 5b 59 94 29 '2!.....x....[Y.)'
  22 50 54 00 00 00 01 01 01 01 01 01 01 01 01 01 '"PT.............'
  01 01 01 01 01 01 87 1b 56 88 50 00 0e 30 28 20 '........V.P..0( '
  55 00 00 90 10 00 00 1a 00 00 00 00 00 00 00 00 'U...............'
  00 00 00 00 00 00 00 00 00 00 00 00 00 00 00 00 '................'
  00 00 00 00 00 00 00 00 00 00 00 00 00 00 00 fe '................'
  00 4b 44 31 31 36 4e 32 39 33 30 41 31 37 00 cc '.KD116N2930A17..'
Checksum: 0xcc

----------------

Warnings:

Block 0, Base EDID:
  Missing Display Product Name.

Failures:

Block 0, Base EDID:
  Empty Descriptor: Use Dummy Descriptor instead of all zeroes.
  Empty Descriptor: Use Dummy Descriptor instead of all zeroes.
Block 1, Base EDID:
  Unknown Extension Block.
EDID:
  Base EDID: EDID specified 0 extension block(s), but found 1 extension block(s).

EDID conformity: FAIL
