
EDID (hex):
00ffffffffffff0009e5440900000000
111e0104a522137803ee95a3544c9926
0f505400000001010101010101010101
010101010101ad3780a070383e406c30
aa0058c21000001a000000fd003ca5bd
bd28010a202020202020000000fe0030
56575958804e5631354e593700000000
0002410f99000000000b010a202001c5
70137900000301141a9900847f079f00
6b002f0037043d000900090000000000
00000000000000000000000000000000
00000000000000000000000000000000
00000000000000000000000000000000
00000000000000000000000000000000
00000000000000000000000000000000
0000000000000000000000000000dc90

edid-decode (hex):

00 ff ff ff ff ff ff 00 09 e5 44 09 00 00 00 00
11 1e 01 04 a5 22 13 78 03 ee 95 a3 54 4c 99 26
0f 50 54 00 00 00 01 01 01 01 01 01 01 01 01 01
01 01 01 01 01 01 ad 37 80 a0 70 38 3e 40 6c 30
aa 00 58 c2 10 00 00 1a 00 00 00 fd 00 3c a5 bd
bd 28 01 0a 20 20 20 20 20 20 00 00 00 fe 00 30
56 57 59 58 80 4e 56 31 35 4e 59 37 00 00 00 00
00 02 41 0f 99 00 00 00 00 0b 01 0a 20 20 01 c5

70 13 79 00 00 03 01 14 1a 99 00 84 7f 07 9f 00
6b 00 2f 00 37 04 3d 00 09 00 09 00 00 00 00 00
00 00 00 00 00 00 00 00 00 00 00 00 00 00 00 00
00 00 00 00 00 00 00 00 00 00 00 00 00 00 00 00
00 00 00 00 00 00 00 00 00 00 00 00 00 00 00 00
00 00 00 00 00 00 00 00 00 00 00 00 00 00 00 00
00 00 00 00 00 00 00 00 00 00 00 00 00 00 00 00
00 00 00 00 00 00 00 00 00 00 00 00 00 00 dc 90

----------------

Block 0, Base EDID:
  EDID Structure Version & Revision: 1.4
  Vendor & Product Identification:
    Manufacturer: BOE
    Model: 2372
    Made in: week 17 of 2020
  Basic Display Parameters & Features:
    Digital display
    Bits per primary color channel: 8
    DisplayPort interface
    Maximum image size: 34 cm x 19 cm
    Gamma: 2.20
    Supported color formats: RGB 4:4:4
    First detailed timing includes the native pixel format and preferred refresh rate
    Display is continuous frequency
  Color Characteristics:
    Red  : 0.6396, 0.3300
    Green: 0.2998, 0.5996
    Blue : 0.1503, 0.0595
    White: 0.3134, 0.3291
  Established Timings I & II: none
  Standard Timings: none
  Detailed Timing Descriptors:
    DTD 1:  1920x1080   60.003536 Hz  16:9     68.524 kHz    142.530000 MHz (344 mm x 194 mm)
                 Hfront  108 Hsync  48 Hback    4 Hpol P
                 Vfront   10 Vsync  10 Vback   42 Vpol N
    Display Range Limits:
      Monitor ranges (Bare Limits): 60-165 Hz V, 189-189 kHz H, max dotclock 400 MHz
    Alphanumeric Data String: '0VWYX'
    Manufacturer-Specified Display Descriptor (0x00): 00 00 00 02 41 0f 99 00 00 00 00 0b 01 0a 20 20 '....A.........  '
  Extension blocks: 1
Checksum: 0xc5

----------------

Block 1, DisplayID Extension Block:
  Version: 1.3
  Extension Count: 0
  Display Product Type: Extension Section
  Video Timing Modes Type 1 - Detailed Timings Data Block:
    DTD:  1920x1080  165.006567 Hz  16:9    188.438 kHz    391.950000 MHz (aspect 16:9, no 3D stereo, preferred)
               Hfront  108 Hsync  48 Hback    4 Hpol N
               Vfront   10 Vsync  10 Vback   42 Vpol N
  Checksum: 0xdc
Checksum: 0x90
