
EDID (hex):
00ffffffffffff0009e56f0a00000000
1e1f0104a5261678039e05945c59952b
23505400000001010101010101010101
010101010101ed8980a5703860403020
36007ed71000001a783980a570386040
302036007ed71000001a000000fd0030
90a9a923010a202020202020000000fe
004e5631373346484d2d4e58340a004d

Extracted contents:
header:          00 ff ff ff ff ff ff 00
serial number:   09 e5 6f 0a 00 00 00 00 1e 1f
version:         01 04
basic params:    a5 26 16 78 03
chroma info:     9e 05 94 5c 59 95 2b 23 50 54
established:     00 00 00
standard:        01 01 01 01 01 01 01 01 01 01 01 01 01 01 01 01
descriptor 1:    ed 89 80 a5 70 38 60 40 30 20 36 00 7e d7 10 00 00 1a
descriptor 2:    78 39 80 a5 70 38 60 40 30 20 36 00 7e d7 10 00 00 1a
descriptor 3:    00 00 00 fd 00 30 90 a9 a9 23 01 0a 20 20 20 20 20 20
descriptor 4:    00 00 00 fe 00 4e 56 31 37 33 46 48 4d 2d 4e 58 34 0a
extensions:      00
checksum:        4d

EDID version: 1.4
Manufacturer: BOE Model a6f Serial Number --
Made in week 30 of 2021
Digital display
8 bits per primary color channel
DisplayPort interface
Maximum image size: 38 cm x 22 cm
Gamma: 2.20
Supported color formats: RGB 4:4:4
First detailed timing includes the native pixel format and preferred refresh rate
Display is continuous frequency
Display x,y Chromaticity:
  Red:   0.5800, 0.3603
  Green: 0.3505, 0.5839
  Blue:  0.1679, 0.1367
  White: 0.3134, 0.3291
Established timings supported:
Standard timings supported:
Detailed mode: Clock 353.090 MHz, 382 mm x 215 mm
               1920 1968 2000 2085 hborder 0
               1080 1083 1089 1176 vborder 0
               +hsync -vsync 
               VertFreq: 144 Hz, HorFreq: 169347 Hz
Detailed mode: Clock 147.120 MHz, 382 mm x 215 mm
               1920 1968 2000 2085 hborder 0
               1080 1083 1089 1176 vborder 0
               +hsync -vsync 
               VertFreq: 60 Hz, HorFreq: 70561 Hz
Monitor ranges (bare limits): 48-144Hz V, 169-169kHz H, max dotclock 350MHz
ASCII string: NV173FHM-NX4
Checksum: 0x4d (valid)
EDID block does NOT conform to EDID 1.4!
	Missing name descriptor
Warning: One or more of the timings is out of range of the Monitor Ranges:
  Vertical Freq: 60 - 144 Hz
  Horizontal Freq: 70561 - 169347 Hz
  Maximum Clock: 353.090 MHz
