edid-decode (hex):

00 ff ff ff ff ff ff 00 0d af 37 12 00 00 00 00
14 13 01 03 80 1a 11 78 0a 98 d5 92 5c 58 94 27
1c 50 54 00 00 00 01 01 01 01 01 01 01 01 01 01
01 01 01 01 01 01 12 1b 00 84 50 20 12 30 28 1a
34 00 04 aa 10 00 00 18 00 00 00 fe 00 4e 31 32
31 49 42 2d 4c 30 35 0a 20 20 00 00 00 fe 00 43
4d 4f 0a 20 20 20 20 20 20 20 20 20 00 00 00 fe
00 4e 31 32 31 49 42 2d 4c 30 35 0a 20 20 00 8f

----------------

Block 0, Base EDID:
  EDID Structure Version & Revision: 1.3
  Vendor & Product Identification:
    Manufacturer: CMO
    Model: 4663
    Made in: week 20 of 2009
  Basic Display Parameters & Features:
    Digital display
    Maximum image size: 26 cm x 17 cm
    Gamma: 2.20
    RGB color display
    First detailed timing is the preferred timing
  Color Characteristics:
    Red  : 0.5722, 0.3603
    Green: 0.3457, 0.5781
    Blue : 0.1552, 0.1103
    White: 0.3134, 0.3291
  Established Timings I & II: none
  Standard Timings: none
  Detailed Timing Descriptors:
    DTD 1:  1280x800    59.999169 Hz  16:10    49.079 kHz     69.300000 MHz (260 mm x 170 mm)
                 Hfront   40 Hsync  26 Hback   66 Hpol N
                 Vfront    3 Vsync   4 Vback   11 Vpol N
    Alphanumeric Data String: 'N121IB-L05'
    Alphanumeric Data String: 'CMO'
    Alphanumeric Data String: 'N121IB-L05'
Checksum: 0x8f

----------------

Failures:

Block 0, Base EDID:
  Missing Display Product Name.
  Missing Display Range Limits Descriptor.

EDID conformity: FAIL
