
EDID (hex):
00ffffffffffff00244d742300000000
00000103802115780a63459a55518928
23505400000001010101010101010101
010101010101c71b00a0502017303020
36004bcf1000001c261700a050201730
302036004bcf1000001c0000000f0081
0a32810a281e01000daf0915000000fe
004e31353449310a202020202020004b

Extracted contents:
header:          00 ff ff ff ff ff ff 00
serial number:   24 4d 74 23 00 00 00 00 00 00
version:         01 03
basic params:    80 21 15 78 0a
chroma info:     63 45 9a 55 51 89 28 23 50 54
established:     00 00 00
standard:        01 01 01 01 01 01 01 01 01 01 01 01 01 01 01 01
descriptor 1:    c7 1b 00 a0 50 20 17 30 30 20 36 00 4b cf 10 00 00 1c
descriptor 2:    26 17 00 a0 50 20 17 30 30 20 36 00 4b cf 10 00 00 1c
descriptor 3:    00 00 00 0f 00 81 0a 32 81 0a 28 1e 01 00 0d af 09 15
descriptor 4:    00 00 00 fe 00 4e 31 35 34 49 31 0a 20 20 20 20 20 20
extensions:      00
checksum:        4b

EDID version: 1.3
Manufacturer: IBM Model 2374 Serial Number --
Digital display
Maximum image size: 33 cm x 21 cm
Gamma: 2.20
RGB color display
First detailed timing is preferred timing
Display x,y Chromaticity:
  Red:   0.6025, 0.3339
  Green: 0.3164, 0.5380
  Blue:  0.1572, 0.1367
  White: 0.3134, 0.3291
Established timings supported:
Standard timings supported:
Detailed mode: Clock 71.110 MHz, 331 mm x 207 mm
               1280 1328 1360 1440 hborder 0
                800  803  809  823 vborder 0
               -hsync +vsync 
               VertFreq: 60 Hz, HorFreq: 49381 Hz
Detailed mode: Clock 59.260 MHz, 331 mm x 207 mm
               1280 1328 1360 1440 hborder 0
                800  803  809  823 vborder 0
               -hsync +vsync 
               VertFreq: 50 Hz, HorFreq: 41152 Hz
Manufacturer-specified data, tag 15
ASCII string: N154I1
Checksum: 0x4b (valid)
EDID block does NOT conform to EDID 1.3!
	Missing name descriptor
	Missing monitor ranges
EDID block does not conform at all!
	Bad year of manufacture
