
EDID (hex):
00ffffffffffff001e6d6a5a01010101
01170103803a1878ea0a95a8544c9e26
0f5054a54b80714f818081c0a9c0b300
d1c001010101cd4600a0a0381f403020
3a00a52221000018023a801871382d40
582c4500a5222100001e000000fc004c
4720554c545241574944450a000000fd
00384b1e5a18000a2020202020200071

Extracted contents:
header:          00 ff ff ff ff ff ff 00
serial number:   1e 6d 6a 5a 01 01 01 01 01 17
version:         01 03
basic params:    80 3a 18 78 ea
chroma info:     0a 95 a8 54 4c 9e 26 0f 50 54
established:     a5 4b 80
standard:        71 4f 81 80 81 c0 a9 c0 b3 00 d1 c0 01 01 01 01
descriptor 1:    cd 46 00 a0 a0 38 1f 40 30 20 3a 00 a5 22 21 00 00 18
descriptor 2:    02 3a 80 18 71 38 2d 40 58 2c 45 00 a5 22 21 00 00 1e
descriptor 3:    00 00 00 fc 00 4c 47 20 55 4c 54 52 41 57 49 44 45 0a
descriptor 4:    00 00 00 fd 00 38 4b 1e 5a 18 00 0a 20 20 20 20 20 20
extensions:      00
checksum:        71

EDID version: 1.3
Manufacturer: GSM Model 5a6a Serial Number --
Made in week 1 of 2013
Digital display
Maximum image size: 58 cm x 24 cm
Gamma: 2.20
DPMS levels: Standby Suspend Off
RGB color display
First detailed timing is preferred timing
Display x,y Chromaticity:
  Red:   0.6562, 0.3281
  Green: 0.2988, 0.6191
  Blue:  0.1503, 0.0595
  White: 0.3134, 0.3291
Established timings supported:
  720x400@70Hz 9:5 HorFreq: 31469 Hz Clock: 28.320 MHz
  640x480@60Hz 4:3 HorFreq: 31469 Hz Clock: 25.175 MHz
  640x480@75Hz 4:3 HorFreq: 37500 Hz Clock: 31.500 MHz
  800x600@60Hz 4:3 HorFreq: 37900 Hz Clock: 40.000 MHz
  800x600@75Hz 4:3 HorFreq: 46900 Hz Clock: 49.500 MHz
  1024x768@60Hz 4:3 HorFreq: 48400 Hz Clock: 65.000 MHz
  1024x768@75Hz 4:3 HorFreq: 60000 Hz Clock: 78.750 MHz
  1280x1024@75Hz 5:4 HorFreq: 80000 Hz Clock: 135.000 MHz
  1152x870@75Hz 192:145 HorFreq: 67500 Hz Clock: 108.000 MHz
Standard timings supported:
  1152x864@75Hz 4:3 HorFreq: 67500 Hz Clock: 108.000 MHz
  1280x1024@60Hz 5:4 HorFreq: 64000 Hz Clock: 108.000 MHz
  1280x720@60Hz 16:9
  1600x900@60Hz 16:9
  1680x1050@60Hz 16:10 HorFreq: 64700 Hz Clock: 119.000 MHz
  1920x1080@60Hz 16:9
Detailed mode: Clock 181.250 MHz, 677 mm x 290 mm
               2560 2608 2640 2720 hborder 0
               1080 1083 1093 1111 vborder 0
               -hsync -vsync 
               VertFreq: 59 Hz, HorFreq: 66636 Hz
Detailed mode: Clock 148.500 MHz, 677 mm x 290 mm
               1920 2008 2052 2200 hborder 0
               1080 1084 1089 1125 vborder 0
               +hsync +vsync 
               VertFreq: 60 Hz, HorFreq: 67500 Hz
Monitor name: LG ULTRAWIDE
Monitor ranges (GTF): 56-75Hz V, 30-90kHz H, max dotclock 240MHz
Checksum: 0x71 (valid)


