
EDID (hex):
00ffffffffffff0006cf000000000000
000d01036e0000960eee91a3544c9926
0f5054ffff008180814f8140714f714a
71400101010164190040410026301888
3600000000000018bc34009851002a40
10901300000000000018000000fd0028
641e5f15000a202020202020000000fc
00536d617274204361626c650a2000c1

Extracted contents:
header:          00 ff ff ff ff ff ff 00
serial number:   06 cf 00 00 00 00 00 00 00 0d
version:         01 03
basic params:    6e 00 00 96 0e
chroma info:     ee 91 a3 54 4c 99 26 0f 50 54
established:     ff ff 00
standard:        81 80 81 4f 81 40 71 4f 71 4a 71 40 01 01 01 01
descriptor 1:    64 19 00 40 41 00 26 30 18 88 36 00 00 00 00 00 00 18
descriptor 2:    bc 34 00 98 51 00 2a 40 10 90 13 00 00 00 00 00 00 18
descriptor 3:    00 00 00 fd 00 28 64 1e 5f 15 00 0a 20 20 20 20 20 20
descriptor 4:    00 00 00 fc 00 53 6d 61 72 74 20 43 61 62 6c 65 0a 20
extensions:      00
checksum:        c1

EDID version: 1.3
Manufacturer: AVO Model 0 Serial Number --
Analog display, Input voltage level: 0.7/0.7 V
Sync: Separate Composite SyncOnGreen 
Image size is variable
Gamma: 2.50
RGB color display
Default (sRGB) color space is primary color space
First detailed timing is preferred timing
Display x,y Chromaticity:
  Red:   0.6396, 0.3300
  Green: 0.2998, 0.5996
  Blue:  0.1503, 0.0595
  White: 0.3125, 0.3291
Established timings supported:
  720x400@70Hz 9:5 HorFreq: 31469 Hz Clock: 28.320 MHz
  720x400@88Hz 9:5 HorFreq: 39500 Hz Clock: 35.500 MHz
  640x480@60Hz 4:3 HorFreq: 31469 Hz Clock: 25.175 MHz
  640x480@67Hz 4:3 HorFreq: 35000 Hz Clock: 30.240 MHz
  640x480@72Hz 4:3 HorFreq: 37900 Hz Clock: 31.500 MHz
  640x480@75Hz 4:3 HorFreq: 37500 Hz Clock: 31.500 MHz
  800x600@56Hz 4:3 HorFreq: 35200 Hz Clock: 36.000 MHz
  800x600@60Hz 4:3 HorFreq: 37900 Hz Clock: 40.000 MHz
  800x600@72Hz 4:3 HorFreq: 48100 Hz Clock: 50.000 MHz
  800x600@75Hz 4:3 HorFreq: 46900 Hz Clock: 49.500 MHz
  832x624@75Hz 4:3 HorFreq: 49726 Hz Clock: 57.284 MHz
  1280x768i@87Hz 5:3 HorFreq: 35522 Hz Clock: 44.900 MHz
  1024x768@60Hz 4:3 HorFreq: 48400 Hz Clock: 65.000 MHz
  1024x768@70Hz 4:3 HorFreq: 56500 Hz Clock: 75.000 MHz
  1024x768@75Hz 4:3 HorFreq: 60000 Hz Clock: 78.750 MHz
  1280x1024@75Hz 5:4 HorFreq: 80000 Hz Clock: 135.000 MHz
Standard timings supported:
  1280x1024@60Hz 5:4 HorFreq: 64000 Hz Clock: 108.000 MHz
  1280x960@75Hz 4:3
  1280x960@60Hz 4:3 HorFreq: 60000 Hz Clock: 108.000 MHz
  1152x864@75Hz 4:3 HorFreq: 67500 Hz Clock: 108.000 MHz
  1152x864@70Hz 4:3
  1152x864@60Hz 4:3
Detailed mode: Clock 65.000 MHz, 0 mm x 0 mm
               1024 1048 1184 1344 hborder 0
                768  771  777  806 vborder 0
               -hsync -vsync 
               VertFreq: 60 Hz, HorFreq: 48363 Hz
Detailed mode: Clock 135.000 MHz, 0 mm x 0 mm
               1280 1296 1440 1688 hborder 0
               1024 1025 1028 1066 vborder 0
               -hsync -vsync 
               VertFreq: 75 Hz, HorFreq: 79976 Hz
Monitor ranges (GTF): 40-100Hz V, 30-95kHz H, max dotclock 210MHz
Monitor name: Smart Cable
Checksum: 0xc1 (valid)
EDID block does not conform at all!
	Bad year of manufacture
