edid-decode (hex):

00 ff ff ff ff ff ff 00 15 a1 1c 06 70 2b 00 00
2a 0f 01 03 08 1e 17 89 ea 71 d6 a2 56 49 96 24
13 4f 54 af ce 00 01 01 01 01 01 01 01 01 01 01
01 01 01 01 01 01 c3 1e 00 20 41 00 20 30 10 60
13 00 30 e4 10 00 00 18 00 00 00 fc 00 65 31 35
74 34 0a 20 20 20 20 20 20 20 00 00 00 fd 00 38
4c 1e 3c 08 00 0a 20 20 20 20 20 20 00 00 00 ff
00 33 35 41 20 35 30 56 20 31 31 31 32 30 00 32

00 ff ff ff ff ff ff 00 15 a1 1c 06 70 2b 00 00
2a 0f 01 03 08 1e 17 89 ea 71 d6 a2 56 49 96 24
13 4f 54 af ce 00 01 01 01 01 01 01 01 01 01 01
01 01 01 01 01 01 c3 1e 00 20 41 00 20 30 10 60
13 00 30 e4 10 00 00 18 00 00 00 fc 00 65 31 35
74 34 0a 20 20 20 20 20 20 20 00 00 00 fd 00 38
4c 1e 3c 08 00 0a 20 20 20 20 20 20 00 00 00 ff
00 33 35 41 20 35 30 56 20 31 31 31 32 30 00 32

----------------

Block 0, Base EDID:
  EDID Structure Version & Revision: 1.3
  Vendor & Product Identification:
    Manufacturer: EMA
    Model: 1564
    Serial Number: ...
    Made in: week 42 of 2005
  Basic Display Parameters & Features:
    Analog display
    Signal Level Standard: 0.700 : 0.300 : 1.000 V p-p
    Blank level equals black level
    Sync: Separate
    Maximum image size: 30 cm x 23 cm
    Gamma: 2.37
    DPMS levels: Standby Suspend Off
    RGB color display
    First detailed timing is the preferred timing
  Color Characteristics:
    Red  : 0.6337, 0.3388
    Green: 0.2851, 0.5869
    Blue : 0.1435, 0.0751
    White: 0.3095, 0.3300
  Established Timings I & II:
    IBM     :   720x400    70.081663 Hz   9:5     31.467 kHz     28.320000 MHz
    DMT 0x04:   640x480    59.940476 Hz   4:3     31.469 kHz     25.175000 MHz
    DMT 0x05:   640x480    72.808802 Hz   4:3     37.861 kHz     31.500000 MHz
    DMT 0x06:   640x480    75.000000 Hz   4:3     37.500 kHz     31.500000 MHz
    DMT 0x08:   800x600    56.250000 Hz   4:3     35.156 kHz     36.000000 MHz
    DMT 0x09:   800x600    60.316541 Hz   4:3     37.879 kHz     40.000000 MHz
    DMT 0x0a:   800x600    72.187572 Hz   4:3     48.077 kHz     50.000000 MHz
    DMT 0x0b:   800x600    75.000000 Hz   4:3     46.875 kHz     49.500000 MHz
    DMT 0x10:  1024x768    60.003840 Hz   4:3     48.363 kHz     65.000000 MHz
    DMT 0x11:  1024x768    70.069359 Hz   4:3     56.476 kHz     75.000000 MHz
    DMT 0x12:  1024x768    75.028582 Hz   4:3     60.023 kHz     78.750000 MHz
  Standard Timings: none
  Detailed Timing Descriptors:
    DTD 1:  1024x768    75.028582 Hz   4:3     60.023 kHz     78.750000 MHz (304 mm x 228 mm)
                 Hfront   16 Hsync  96 Hback  176 Hpol N
                 Vfront    1 Vsync   3 Vback   28 Vpol N
    Display Product Name: 'e15t4'
    Display Range Limits:
      Monitor ranges (GTF): 56-76 Hz V, 30-60 kHz H, max dotclock 80 MHz
    Display Product Serial Number: ...
Checksum: 0x32

----------------

Block 1, Unknown EDID Extension Block 0x00:
  00 ff ff ff ff ff ff 00 15 a1 1c 06 70 2b 00 00 '............p+..'
  2a 0f 01 03 08 1e 17 89 ea 71 d6 a2 56 49 96 24 '*........q..VI.$'
  13 4f 54 af ce 00 01 01 01 01 01 01 01 01 01 01 '.OT.............'
  01 01 01 01 01 01 c3 1e 00 20 41 00 20 30 10 60 '......... A. 0.`'
  13 00 30 e4 10 00 00 18 00 00 00 fc 00 65 31 35 '..0..........e15'
  74 34 0a 20 20 20 20 20 20 20 00 00 00 fd 00 38 't4.       .....8'
  4c 1e 3c 08 00 0a 20 20 20 20 20 20 00 00 00 ff 'L.<...      ....'
  00 33 35 41 20 35 30 56 20 31 31 31 32 30 00 32 '.35A 50V 11120.2'
Checksum: 0x32

----------------

Warnings:

Block 0, Base EDID:
  Detailed Timing Descriptor #1: DTD is similar but not identical to DMT 0x12.

Failures:

Block 1, Base EDID:
  Unknown Extension Block.
EDID:
  Base EDID: EDID specified 0 extension block(s), but found 1 extension block(s).

EDID conformity: FAIL
