
EDID (hex):
00ffffffffffff0015c3442301010101
1919010380331d78ea2795a9544f9e26
0a5054a1080081808140b30081c00101
010101010101023a801871382d40582c
4500fe1f1100001e000000ff00393333
34363032340a20202020000000fd003b
3d1f440f000a202020202020000000fc
004653323333330a2020202020200078

Extracted contents:
header:          00 ff ff ff ff ff ff 00
serial number:   15 c3 44 23 01 01 01 01 19 19
version:         01 03
basic params:    80 33 1d 78 ea
chroma info:     27 95 a9 54 4f 9e 26 0a 50 54
established:     a1 08 00
standard:        81 80 81 40 b3 00 81 c0 01 01 01 01 01 01 01 01
descriptor 1:    02 3a 80 18 71 38 2d 40 58 2c 45 00 fe 1f 11 00 00 1e
descriptor 2:    00 00 00 ff 00 39 33 33 34 36 30 32 34 0a 20 20 20 20
descriptor 3:    00 00 00 fd 00 3b 3d 1f 44 0f 00 0a 20 20 20 20 20 20
descriptor 4:    00 00 00 fc 00 46 53 32 33 33 33 0a 20 20 20 20 20 20
extensions:      00
checksum:        78

EDID version: 1.3
Manufacturer: ENC Model 2344 Serial Number --
Made in week 25 of 2015
Digital display
Maximum image size: 51 cm x 29 cm
Gamma: 2.20
DPMS levels: Standby Suspend Off
RGB color display
First detailed timing is preferred timing
Display x,y Chromaticity:
  Red:   0.6601, 0.3300
  Green: 0.3095, 0.6201
  Blue:  0.1503, 0.0400
  White: 0.3134, 0.3291
Established timings supported:
  720x400@70Hz 9:5 HorFreq: 31469 Hz Clock: 28.320 MHz
  640x480@60Hz 4:3 HorFreq: 31469 Hz Clock: 25.175 MHz
  800x600@60Hz 4:3 HorFreq: 37900 Hz Clock: 40.000 MHz
  1024x768@60Hz 4:3 HorFreq: 48400 Hz Clock: 65.000 MHz
Standard timings supported:
  1280x1024@60Hz 5:4 HorFreq: 64000 Hz Clock: 108.000 MHz
  1280x960@60Hz 4:3 HorFreq: 60000 Hz Clock: 108.000 MHz
  1680x1050@60Hz 16:10 HorFreq: 64700 Hz Clock: 119.000 MHz
  1280x720@60Hz 16:9
Detailed mode: Clock 148.500 MHz, 510 mm x 287 mm
               1920 2008 2052 2200 hborder 0
               1080 1084 1089 1125 vborder 0
               +hsync +vsync 
               VertFreq: 60 Hz, HorFreq: 67500 Hz
Serial number: --
Monitor ranges (GTF): 59-61Hz V, 31-68kHz H, max dotclock 150MHz
Monitor name: FS2333
Checksum: 0x78 (valid)
One or more of the timings is out of range of the Monitor Ranges:
  Vertical Freq: 60 - 70 Hz
  Horizontal Freq: 31469 - 67500 Hz
  Maximum Clock: 148.500 MHz
