
EDID (hex):
00ffffffffffff0006af5c4000000000
00190104951a0e780299859555569228
22505400000001010101010101010101
010101010101ce1d56ea50001a303020
4600009010000018d41756ea50001a30
30204600009010000018000000fe0041
554f0a202020202020202020000000fe
004231313658414e30342e30200a0094

Extracted contents:
header:          00 ff ff ff ff ff ff 00
serial number:   06 af 5c 40 00 00 00 00 00 19
version:         01 04
basic params:    95 1a 0e 78 02
chroma info:     99 85 95 55 56 92 28 22 50 54
established:     00 00 00
standard:        01 01 01 01 01 01 01 01 01 01 01 01 01 01 01 01
descriptor 1:    ce 1d 56 ea 50 00 1a 30 30 20 46 00 00 90 10 00 00 18
descriptor 2:    d4 17 56 ea 50 00 1a 30 30 20 46 00 00 90 10 00 00 18
descriptor 3:    00 00 00 fe 00 41 55 4f 0a 20 20 20 20 20 20 20 20 20
descriptor 4:    00 00 00 fe 00 42 31 31 36 58 41 4e 30 34 2e 30 20 0a
extensions:      00
checksum:        94

EDID version: 1.4
Manufacturer: AUO Model 405c Serial Number --
Made in year 2015
Digital display
6 bits per primary color channel
DisplayPort interface
Maximum image size: 26 cm x 14 cm
Gamma: 2.20
Supported color formats: RGB 4:4:4
First detailed timing includes the native pixel format and preferred refresh rate
Display x,y Chromaticity:
  Red:   0.5839, 0.3330
  Green: 0.3378, 0.5712
  Blue:  0.1582, 0.1328
  White: 0.3134, 0.3291
Established timings supported:
Standard timings supported:
Detailed mode: Clock 76.300 MHz, 256 mm x 144 mm
               1366 1414 1446 1600 hborder 0
                768  772  778  794 vborder 0
               -hsync -vsync 
               VertFreq: 60 Hz, HorFreq: 47687 Hz
Detailed mode: Clock 61.000 MHz, 256 mm x 144 mm
               1366 1414 1446 1600 hborder 0
                768  772  778  794 vborder 0
               -hsync -vsync 
               VertFreq: 48 Hz, HorFreq: 38125 Hz
ASCII string: AUO
ASCII string: B116XAN04.0 
Checksum: 0x94 (valid)
EDID block does NOT conform to EDID 1.4!
	Missing name descriptor
	Missing monitor ranges
