
EDID (hex):
00ffffffffffff0006af246000000000
01120103801d12780a50c59858528e27
25505400000001010101010101010101
010101010101121b0087502010303020
36001eb2100000180000000f00000000
00000000000000000020000000fe0041
554f0a202020202020202020000000fe
004231333345573036205630200a00d9

Extracted contents:
header:          00 ff ff ff ff ff ff 00
serial number:   06 af 24 60 00 00 00 00 01 12
version:         01 03
basic params:    80 1d 12 78 0a
chroma info:     50 c5 98 58 52 8e 27 25 50 54
established:     00 00 00
standard:        01 01 01 01 01 01 01 01 01 01 01 01 01 01 01 01
descriptor 1:    12 1b 00 87 50 20 10 30 30 20 36 00 1e b2 10 00 00 18
descriptor 2:    00 00 00 0f 00 00 00 00 00 00 00 00 00 00 00 00 00 20
descriptor 3:    00 00 00 fe 00 41 55 4f 0a 20 20 20 20 20 20 20 20 20
descriptor 4:    00 00 00 fe 00 42 31 33 33 45 57 30 36 20 56 30 20 0a
extensions:      00
checksum:        d9

EDID version: 1.3
Manufacturer: AUO Model 6024 Serial Number --
Made in week 1 of 2008
Digital display
Maximum image size: 29 cm x 18 cm
Gamma: 2.20
RGB color display
First detailed timing is preferred timing
Display x,y Chromaticity:
  Red:   0.5947, 0.3447
  Green: 0.3203, 0.5546
  Blue:  0.1552, 0.1445
  White: 0.3134, 0.3291
Established timings supported:
Standard timings supported:
Detailed mode: Clock 69.300 MHz, 286 mm x 178 mm
               1280 1328 1360 1415 hborder 0
                800  803  809  816 vborder 0
               -hsync -vsync 
               VertFreq: 60 Hz, HorFreq: 48975 Hz
Manufacturer-specified data, tag 15
ASCII string: AUO
ASCII string: B133EW06 V0 
Checksum: 0xd9 (valid)
EDID block does NOT conform to EDID 1.3!
	Missing name descriptor
	Missing monitor ranges
