
EDID (hex):
00ffffffffffff0034ac434701010101
1510010380221b78efc5c5a3574a9c23
125054bfef8081408180818681906146
714a814f818f302a009851002a403070
1300520e1100001e000000fd00374c1f
510d000a202020202020000000fc0052
445431373133564d0a202020000000ff
003635323132363836414a0a202000d1

Extracted contents:
header:          00 ff ff ff ff ff ff 00
serial number:   34 ac 43 47 01 01 01 01 15 10
version:         01 03
basic params:    80 22 1b 78 ef
chroma info:     c5 c5 a3 57 4a 9c 23 12 50 54
established:     bf ef 80
standard:        81 40 81 80 81 86 81 90 61 46 71 4a 81 4f 81 8f
descriptor 1:    30 2a 00 98 51 00 2a 40 30 70 13 00 52 0e 11 00 00 1e
descriptor 2:    00 00 00 fd 00 37 4c 1f 51 0d 00 0a 20 20 20 20 20 20
descriptor 3:    00 00 00 fc 00 52 44 54 31 37 31 33 56 4d 0a 20 20 20
descriptor 4:    00 00 00 ff 00 36 35 32 31 32 36 38 36 41 4a 0a 20 20
extensions:      00
checksum:        d1

EDID version: 1.3
Manufacturer: MEL Model 4743 Serial Number --
Made in week 21 of 2006
Digital display
Maximum image size: 34 cm x 27 cm
Gamma: 2.20
DPMS levels: Standby Suspend Off
RGB color display
Default (sRGB) color space is primary color space
First detailed timing is preferred timing
Supports GTF timings within operating range
Display x,y Chromaticity:
  Red:   0.6396, 0.3398
  Green: 0.2900, 0.6103
  Blue:  0.1396, 0.0703
  White: 0.3134, 0.3291
Established timings supported:
  720x400@70Hz 9:5 HorFreq: 31469 Hz Clock: 28.320 MHz
  640x480@60Hz 4:3 HorFreq: 31469 Hz Clock: 25.175 MHz
  640x480@67Hz 4:3 HorFreq: 35000 Hz Clock: 30.240 MHz
  640x480@72Hz 4:3 HorFreq: 37900 Hz Clock: 31.500 MHz
  640x480@75Hz 4:3 HorFreq: 37500 Hz Clock: 31.500 MHz
  800x600@56Hz 4:3 HorFreq: 35200 Hz Clock: 36.000 MHz
  800x600@60Hz 4:3 HorFreq: 37900 Hz Clock: 40.000 MHz
  800x600@72Hz 4:3 HorFreq: 48100 Hz Clock: 50.000 MHz
  800x600@75Hz 4:3 HorFreq: 46900 Hz Clock: 49.500 MHz
  832x624@75Hz 4:3 HorFreq: 49726 Hz Clock: 57.284 MHz
  1024x768@60Hz 4:3 HorFreq: 48400 Hz Clock: 65.000 MHz
  1024x768@70Hz 4:3 HorFreq: 56500 Hz Clock: 75.000 MHz
  1024x768@75Hz 4:3 HorFreq: 60000 Hz Clock: 78.750 MHz
  1280x1024@75Hz 5:4 HorFreq: 80000 Hz Clock: 135.000 MHz
  1152x870@75Hz 192:145 HorFreq: 67500 Hz Clock: 108.000 MHz
Standard timings supported:
  1280x960@60Hz 4:3 HorFreq: 60000 Hz Clock: 108.000 MHz
  1280x1024@60Hz 5:4 HorFreq: 64000 Hz Clock: 108.000 MHz
  1280x1024@66Hz 5:4
  1280x1024@76Hz 5:4
  1024x768@66Hz 4:3
  1152x864@70Hz 4:3
  1280x960@75Hz 4:3
  1280x1024@75Hz 5:4 HorFreq: 80000 Hz Clock: 135.000 MHz
Detailed mode: Clock 108.000 MHz, 338 mm x 270 mm
               1280 1328 1440 1688 hborder 0
               1024 1025 1028 1066 vborder 0
               +hsync +vsync 
               VertFreq: 60 Hz, HorFreq: 63981 Hz
Monitor ranges (GTF): 55-76Hz V, 31-81kHz H, max dotclock 130MHz
Monitor name: RDT1713VM
Serial number: --
Checksum: 0xd1 (valid)
EDID block does NOT conform to EDID 1.3!
	sRGB is signaled, but the chromaticities do not match
One or more of the timings is out of range of the Monitor Ranges:
  Vertical Freq: 56 - 76 Hz
  Horizontal Freq: 31469 - 80000 Hz
  Maximum Clock: 135.000 MHz
