
EDID (hex):
00ffffffffffff0030ae504000000000
0110010380211578ea1cf59758508e27
27505400000001010101010101010101
010101010101f41a0081502010303020
36004bcf100000187616008150201030
302036004bcf100000180000000f0081
0a32810a2814010006af7424000000fe
004231353445573032205636200a0070

Extracted contents:
header:          00 ff ff ff ff ff ff 00
serial number:   30 ae 50 40 00 00 00 00 01 10
version:         01 03
basic params:    80 21 15 78 ea
chroma info:     1c f5 97 58 50 8e 27 27 50 54
established:     00 00 00
standard:        01 01 01 01 01 01 01 01 01 01 01 01 01 01 01 01
descriptor 1:    f4 1a 00 81 50 20 10 30 30 20 36 00 4b cf 10 00 00 18
descriptor 2:    76 16 00 81 50 20 10 30 30 20 36 00 4b cf 10 00 00 18
descriptor 3:    00 00 00 0f 00 81 0a 32 81 0a 28 14 01 00 06 af 74 24
descriptor 4:    00 00 00 fe 00 42 31 35 34 45 57 30 32 20 56 36 20 0a
extensions:      00
checksum:        70

EDID version: 1.3
Manufacturer: LEN Model 4050 Serial Number --
Made in week 1 of 2006
Digital display
Maximum image size: 33 cm x 21 cm
Gamma: 2.20
DPMS levels: Standby Suspend Off
RGB color display
First detailed timing is preferred timing
Display x,y Chromaticity:
  Red:   0.5898, 0.3447
  Green: 0.3154, 0.5546
  Blue:  0.1552, 0.1552
  White: 0.3134, 0.3291
Established timings supported:
Standard timings supported:
Detailed mode: Clock 69.000 MHz, 331 mm x 207 mm
               1280 1328 1360 1409 hborder 0
                800  803  809  816 vborder 0
               -hsync -vsync 
               VertFreq: 60 Hz, HorFreq: 48970 Hz
Detailed mode: Clock 57.500 MHz, 331 mm x 207 mm
               1280 1328 1360 1409 hborder 0
                800  803  809  816 vborder 0
               -hsync -vsync 
               VertFreq: 50 Hz, HorFreq: 40809 Hz
Manufacturer-specified data, tag 15
ASCII string: B154EW02 V6 
Checksum: 0x70 (valid)
EDID block does NOT conform to EDID 1.3!
	Missing name descriptor
	Missing monitor ranges
