
EDID (hex):
00ffffffffffff0030ae504000000000
0010010380211578eab3709959538d27
23505400000001010101010101010101
010101010101c71b00a0502017303020
36004bcf10000019261700a050201730
302036004bcf100000190000000f0081
0a32810a28140100320c0000000000fe
003135345730312d544c45350a200087

Extracted contents:
header:          00 ff ff ff ff ff ff 00
serial number:   30 ae 50 40 00 00 00 00 00 10
version:         01 03
basic params:    80 21 15 78 ea
chroma info:     b3 70 99 59 53 8d 27 23 50 54
established:     00 00 00
standard:        01 01 01 01 01 01 01 01 01 01 01 01 01 01 01 01
descriptor 1:    c7 1b 00 a0 50 20 17 30 30 20 36 00 4b cf 10 00 00 19
descriptor 2:    26 17 00 a0 50 20 17 30 30 20 36 00 4b cf 10 00 00 19
descriptor 3:    00 00 00 0f 00 81 0a 32 81 0a 28 14 01 00 32 0c 00 00
descriptor 4:    00 00 00 fe 00 31 35 34 57 30 31 2d 54 4c 45 35 0a 20
extensions:      00
checksum:        87

EDID version: 1.3
Manufacturer: LEN Model 4050 Serial Number --
Made in year 2006
Digital display
Maximum image size: 33 cm x 21 cm
Gamma: 2.20
DPMS levels: Standby Suspend Off
RGB color display
First detailed timing is preferred timing
Display x,y Chromaticity:
  Red:   0.5996, 0.3505
  Green: 0.3242, 0.5537
  Blue:  0.1533, 0.1396
  White: 0.3125, 0.3281
Established timings supported:
Standard timings supported:
Detailed mode: Clock 71.110 MHz, 331 mm x 207 mm
               1280 1328 1360 1440 hborder 0
                800  803  809  823 vborder 0
               -hsync -vsync 
               VertFreq: 60 Hz, HorFreq: 49381 Hz
Detailed mode: Clock 59.260 MHz, 331 mm x 207 mm
               1280 1328 1360 1440 hborder 0
                800  803  809  823 vborder 0
               -hsync -vsync 
               VertFreq: 50 Hz, HorFreq: 41152 Hz
Manufacturer-specified data, tag 15
ASCII string: 154W01-TLE5
Checksum: 0x87 (valid)
EDID block does NOT conform to EDID 1.3!
	Missing name descriptor
	Missing monitor ranges
