
EDID (hex):
00ffffffffffff001e6d167724d20400
041c010380582578eaa195a9544d9c26
0f5054256b807140818081c0a9c0b300
d1c08100d1cfb9af0030f2406860b058
7a006f6e3100001a31dd0030f2407460
b0587a006f6e3100001a000000fd0038
4b1e8239000a202020202020000000fc
004c472048445220575148440a200152
02033df1230907074e100403011f1312
05145d5e5f6061830100006d030c0010
00b83c20006001020367d85dc4017880
03e30f0030e305c000e3060501405100
20f140506030207a006f6e3100001ae4
a770b8d1a02450906084006f6e310000
1a000000ff003830344e544550393939
34300a000000000000000000000000b3

Extracted contents:
header:          00 ff ff ff ff ff ff 00
serial number:   1e 6d 16 77 24 d2 04 00 04 1c
version:         01 03
basic params:    80 58 25 78 ea
chroma info:     a1 95 a9 54 4d 9c 26 0f 50 54
established:     25 6b 80
standard:        71 40 81 80 81 c0 a9 c0 b3 00 d1 c0 81 00 d1 cf
descriptor 1:    b9 af 00 30 f2 40 68 60 b0 58 7a 00 6f 6e 31 00 00 1a
descriptor 2:    31 dd 00 30 f2 40 74 60 b0 58 7a 00 6f 6e 31 00 00 1a
descriptor 3:    00 00 00 fd 00 38 4b 1e 82 39 00 0a 20 20 20 20 20 20
descriptor 4:    00 00 00 fc 00 4c 47 20 48 44 52 20 57 51 48 44 0a 20
extensions:      01
checksum:        52

EDID version: 1.3
Manufacturer: GSM Model 7716 Serial Number --
Made in week 4 of 2018
Digital display
Maximum image size: 88 cm x 37 cm
Gamma: 2.20
DPMS levels: Standby Suspend Off
RGB color display
First detailed timing is preferred timing
Display x,y Chromaticity:
  Red:   0.6621, 0.3300
  Green: 0.3007, 0.6103
  Blue:  0.1503, 0.0595
  White: 0.3134, 0.3291
Established timings supported:
  640x480@60Hz 4:3 HorFreq: 31469 Hz Clock: 25.175 MHz
  640x480@75Hz 4:3 HorFreq: 37500 Hz Clock: 31.500 MHz
  800x600@60Hz 4:3 HorFreq: 37900 Hz Clock: 40.000 MHz
  800x600@75Hz 4:3 HorFreq: 46900 Hz Clock: 49.500 MHz
  832x624@75Hz 4:3 HorFreq: 49726 Hz Clock: 57.284 MHz
  1024x768@60Hz 4:3 HorFreq: 48400 Hz Clock: 65.000 MHz
  1024x768@75Hz 4:3 HorFreq: 60000 Hz Clock: 78.750 MHz
  1280x1024@75Hz 5:4 HorFreq: 80000 Hz Clock: 135.000 MHz
  1152x870@75Hz 192:145 HorFreq: 67500 Hz Clock: 108.000 MHz
Standard timings supported:
  1152x864@60Hz 4:3
  1280x1024@60Hz 5:4 HorFreq: 64000 Hz Clock: 108.000 MHz
  1280x720@60Hz 16:9
  1600x900@60Hz 16:9
  1680x1050@60Hz 16:10 HorFreq: 64700 Hz Clock: 119.000 MHz
  1920x1080@60Hz 16:9
  1280x800@60Hz 16:10
  1920x1080@75Hz 16:9
Detailed mode: Clock 449.850 MHz, 879 mm x 366 mm
               3840 4016 4104 4400 hborder 0
               1600 1607 1617 1704 vborder 0
               +hsync -vsync 
               VertFreq: 59 Hz, HorFreq: 102238 Hz
Detailed mode: Clock 566.250 MHz, 879 mm x 366 mm
               3840 4016 4104 4400 hborder 0
               1600 1607 1617 1716 vborder 0
               +hsync -vsync 
               VertFreq: 74 Hz, HorFreq: 128693 Hz
Monitor ranges (GTF): 56-75Hz V, 30-130kHz H, max dotclock 570MHz
Monitor name: LG HDR WQHD
Has 1 extension blocks
Checksum: 0x52 (valid)

CTA extension block
Extension version: 3
57 bytes of CTA data
  Audio data block
    Linear PCM, max channels 2
      Supported sample rates (kHz): 48 44.1 32
      Supported sample sizes (bits): 24 20 16
  Video data block
    VIC  16 1920x1080@60Hz 16:9  HorFreq: 67500 Hz Clock: 148.500 MHz
    VIC   4 1280x720@60Hz 16:9  HorFreq: 45000 Hz Clock: 74.250 MHz
    VIC   3 720x480@60Hz 16:9  HorFreq: 31469 Hz Clock: 27.000 MHz
    VIC   1 640x480@60Hz 4:3  HorFreq: 31469 Hz Clock: 25.175 MHz
    VIC  31 1920x1080@50Hz 16:9  HorFreq: 56250 Hz Clock: 148.500 MHz
    VIC  19 1280x720@50Hz 16:9  HorFreq: 37500 Hz Clock: 74.250 MHz
    VIC  18 720x576@50Hz 16:9  HorFreq: 31250 Hz Clock: 27.000 MHz
    VIC   5 1920x1080i@60Hz 16:9  HorFreq: 33750 Hz Clock: 74.250 MHz
    VIC  20 1920x1080i@50Hz 16:9  HorFreq: 28125 Hz Clock: 74.250 MHz
    VIC  93 3840x2160@24Hz 16:9  HorFreq: 54000 Hz Clock: 297.000 MHz
    VIC  94 3840x2160@25Hz 16:9  HorFreq: 56250 Hz Clock: 297.000 MHz
    VIC  95 3840x2160@30Hz 16:9  HorFreq: 67500 Hz Clock: 297.000 MHz
    VIC  96 3840x2160@50Hz 16:9  HorFreq: 112500 Hz Clock: 594.000 MHz
    VIC  97 3840x2160@60Hz 16:9  HorFreq: 135000 Hz Clock: 594.000 MHz
  Speaker allocation data block
    Speaker map:
      FL/FR - Front Left/Right
  Vendor-specific data block, OUI 000c03 (HDMI)
    Source physical address 1.0.0.0
    Supports_AI
    DC_36bit
    DC_30bit
    DC_Y444
    Maximum TMDS clock: 300MHz
    Extended HDMI video details:
      HDMI VIC 1 3840x2160@30Hz 16:9 HorFreq: 67500 Hz Clock: 297.000 MHz
      HDMI VIC 2 3840x2160@25Hz 16:9 HorFreq: 56250 Hz Clock: 297.000 MHz
      HDMI VIC 3 3840x2160@24Hz 16:9 HorFreq: 54000 Hz Clock: 297.000 MHz
  Vendor-specific data block, OUI c45dd8 (HDMI Forum)
    Version: 1
    Maximum TMDS Character Rate: 600MHz
    SCDC Present
    Supports 12-bits/component Deep Color 4:2:0 Pixel Encoding
    Supports 10-bits/component Deep Color 4:2:0 Pixel Encoding
  Extended tag: YCbCr 4:2:0 capability map data block
    VSD Index 12
    VSD Index 13
  Extended tag: Colorimetry data block
    BT2020YCC
    BT2020RGB
  Extended tag: HDR static metadata data block
    Electro optical transfer functions:
      Traditional gamma - SDR luminance range
      SMPTE ST2084
    Supported static metadata descriptors:
      Static metadata type 1
Underscans PC formats by default
Basic audio support
Supports YCbCr 4:4:4
Supports YCbCr 4:2:2
1 native detailed modes
Detailed mode: Clock 208.000 MHz, 879 mm x 366 mm
               3840 3888 3920 4128 hborder 0
               1600 1607 1617 1680 vborder 0
               +hsync -vsync 
               VertFreq: 29 Hz, HorFreq: 50387 Hz
Detailed mode: Clock 429.800 MHz, 879 mm x 366 mm
               3440 3584 3680 3880 hborder 0
               1440 1448 1452 1476 vborder 0
               +hsync -vsync 
               VertFreq: 75 Hz, HorFreq: 110773 Hz
Checksum: 0xb3 (valid)

One or more of the timings is out of range of the Monitor Ranges:
  Vertical Freq: 24 - 75 Hz
  Horizontal Freq: 28125 - 135000 Hz
  Maximum Clock: 594.000 MHz
