
EDID (hex):
00ffffffffffff0026cfe30400000000
001b0104951c10780287c09458539227
24505400000001010101010101010101
010101010101f11c56aa500024302c20
4c00159c10000018281756aa50002430
2c204c00159c10000018000000fe004e
4d334d54803132354e57523100000000
00004131140010000009010a202000ab

Extracted contents:
header:          00 ff ff ff ff ff ff 00
serial number:   26 cf e3 04 00 00 00 00 00 1b
version:         01 04
basic params:    95 1c 10 78 02
chroma info:     87 c0 94 58 53 92 27 24 50 54
established:     00 00 00
standard:        01 01 01 01 01 01 01 01 01 01 01 01 01 01 01 01
descriptor 1:    f1 1c 56 aa 50 00 24 30 2c 20 4c 00 15 9c 10 00 00 18
descriptor 2:    28 17 56 aa 50 00 24 30 2c 20 4c 00 15 9c 10 00 00 18
descriptor 3:    00 00 00 fe 00 4e 4d 33 4d 54 80 31 32 35 4e 57 52 31
descriptor 4:    00 00 00 00 00 00 41 31 14 00 10 00 00 09 01 0a 20 20
extensions:      00
checksum:        ab

EDID version: 1.4
Manufacturer: IVO Model 4e3 Serial Number --
Made in year 2017
Digital display
6 bits per primary color channel
DisplayPort interface
Maximum image size: 28 cm x 16 cm
Gamma: 2.20
Supported color formats: RGB 4:4:4
First detailed timing includes the native pixel format and preferred refresh rate
Display x,y Chromaticity:
  Red:   0.5800, 0.3437
  Green: 0.3251, 0.5732
  Blue:  0.1552, 0.1406
  White: 0.3125, 0.3281
Established timings supported:
Standard timings supported:
Detailed mode: Clock 74.090 MHz, 277 mm x 156 mm
               1366 1410 1442 1536 hborder 0
                768  772  784  804 vborder 0
               -hsync -vsync 
               VertFreq: 59 Hz, HorFreq: 48235 Hz
Detailed mode: Clock 59.280 MHz, 277 mm x 156 mm
               1366 1410 1442 1536 hborder 0
                768  772  784  804 vborder 0
               -hsync -vsync 
               VertFreq: 48 Hz, HorFreq: 38593 Hz
ASCII string: NM3MT
Manufacturer-specified data, tag 0
Checksum: 0xab (valid)
EDID block does NOT conform to EDID 1.4!
	Missing name descriptor
	Missing monitor ranges
	Detailed block string not properly terminated
