edid-decode (hex):

00 ff ff ff ff ff ff 00 26 cf e3 04 00 00 00 00
00 1b 01 04 95 1c 10 78 02 87 c0 94 58 53 92 27
24 50 54 00 00 00 01 01 01 01 01 01 01 01 01 01
01 01 01 01 01 01 f1 1c 56 aa 50 00 24 30 2c 20
4c 00 15 9c 10 00 00 18 28 17 56 aa 50 00 24 30
2c 20 4c 00 15 9c 10 00 00 18 00 00 00 fe 00 4e
4d 33 4d 54 80 31 32 35 4e 57 52 31 00 00 00 00
00 00 41 31 14 00 10 00 00 09 01 0a 20 20 00 ab

----------------

Block 0, Base EDID:
  EDID Structure Version & Revision: 1.4
  Vendor & Product Identification:
    Manufacturer: IVO
    Model: 1251
    Made in: 2017
  Basic Display Parameters & Features:
    Digital display
    Bits per primary color channel: 6
    DisplayPort interface
    Maximum image size: 28 cm x 16 cm
    Gamma: 2.20
    Supported color formats: RGB 4:4:4
    First detailed timing includes the native pixel format and preferred refresh rate
  Color Characteristics:
    Red  : 0.5800, 0.3437
    Green: 0.3251, 0.5732
    Blue : 0.1552, 0.1406
    White: 0.3125, 0.3281
  Established Timings I & II: none
  Standard Timings: none
  Detailed Timing Descriptors:
    DTD 1:  1366x768    59.994623 Hz 683:384   48.236 kHz     74.090000 MHz (277 mm x 156 mm)
                 Hfront   44 Hsync  32 Hback   94 Hpol N
                 Vfront    4 Vsync  12 Vback   20 Vpol N
    DTD 2:  1366x768    48.002177 Hz 683:384   38.594 kHz     59.280000 MHz (277 mm x 156 mm)
                 Hfront   44 Hsync  32 Hback   94 Hpol N
                 Vfront    4 Vsync  12 Vback   20 Vpol N
    Alphanumeric Data String: 'NM3MT'
    Manufacturer-Specified Display Descriptor (0x00): 00 00 00 00 41 31 14 00 10 00 00 09 01 0a 20 20 '....A1........  '
Checksum: 0xab

----------------

Failures:

Block 0, Base EDID:
  Alphanumeric Data String: Non-printable character.
  Missing Display Product Name.

EDID conformity: FAIL
