
EDID (hex):
00ffffffffffff0004725903ac103080
031c0104a52b1878a6daf5a455529f27
0e5054bfee0081c08100010101010101
010101010101662156aa51001e30468f
3300b2ec1000001e000000fd00384c1f
500e000a202020202020000000fc0053
32303048514c200a20202020000000ff
004c5a335354303031323433330a0079

Extracted contents:
header:          00 ff ff ff ff ff ff 00
serial number:   04 72 59 03 ac 10 30 80 03 1c
version:         01 04
basic params:    a5 2b 18 78 a6
chroma info:     da f5 a4 55 52 9f 27 0e 50 54
established:     bf ee 00
standard:        81 c0 81 00 01 01 01 01 01 01 01 01 01 01 01 01
descriptor 1:    66 21 56 aa 51 00 1e 30 46 8f 33 00 b2 ec 10 00 00 1e
descriptor 2:    00 00 00 fd 00 38 4c 1f 50 0e 00 0a 20 20 20 20 20 20
descriptor 3:    00 00 00 fc 00 53 32 30 30 48 51 4c 20 0a 20 20 20 20
descriptor 4:    00 00 00 ff 00 4c 5a 33 53 54 30 30 31 32 34 33 33 0a
extensions:      00
checksum:        79

EDID version: 1.4
Manufacturer: ACR Model 359 Serial Number --
Made in week 3 of 2018
Digital display
8 bits per primary color channel
DisplayPort interface
Maximum image size: 43 cm x 24 cm
Gamma: 2.20
DPMS levels: Standby Off
Supported color formats: RGB 4:4:4
Default (sRGB) color space is primary color space
First detailed timing includes the native pixel format and preferred refresh rate
Display x,y Chromaticity:
  Red:   0.6435, 0.3330
  Green: 0.3222, 0.6230
  Blue:  0.1552, 0.0576
  White: 0.3134, 0.3291
Established timings supported:
  720x400@70Hz 9:5 HorFreq: 31469 Hz Clock: 28.320 MHz
  640x480@60Hz 4:3 HorFreq: 31469 Hz Clock: 25.175 MHz
  640x480@67Hz 4:3 HorFreq: 35000 Hz Clock: 30.240 MHz
  640x480@72Hz 4:3 HorFreq: 37900 Hz Clock: 31.500 MHz
  640x480@75Hz 4:3 HorFreq: 37500 Hz Clock: 31.500 MHz
  800x600@56Hz 4:3 HorFreq: 35200 Hz Clock: 36.000 MHz
  800x600@60Hz 4:3 HorFreq: 37900 Hz Clock: 40.000 MHz
  800x600@72Hz 4:3 HorFreq: 48100 Hz Clock: 50.000 MHz
  800x600@75Hz 4:3 HorFreq: 46900 Hz Clock: 49.500 MHz
  832x624@75Hz 4:3 HorFreq: 49726 Hz Clock: 57.284 MHz
  1024x768@60Hz 4:3 HorFreq: 48400 Hz Clock: 65.000 MHz
  1024x768@70Hz 4:3 HorFreq: 56500 Hz Clock: 75.000 MHz
  1024x768@75Hz 4:3 HorFreq: 60000 Hz Clock: 78.750 MHz
Standard timings supported:
  1280x720@60Hz 16:9
  1280x800@60Hz 16:10
Detailed mode: Clock 85.500 MHz, 434 mm x 236 mm
               1366 1436 1579 1792 hborder 0
                768  771  774  798 vborder 0
               +hsync +vsync 
               VertFreq: 59 Hz, HorFreq: 47712 Hz
Monitor ranges (GTF): 56-76Hz V, 31-80kHz H, max dotclock 140MHz
Monitor name: S200HQL 
Serial number: --
Checksum: 0x79 (valid)
EDID block does NOT conform to EDID 1.4!
	sRGB is signaled, but the chromaticities do not match
