
EDID (hex):
00ffffffffffff0022f05b2601010101
2c0f0103681e1778eaec66a3544c9726
194f54adee0061400101010101010101
01010101010164190040410026301888
360030e410000018000000fd00324c1e
3f08000a202020202020000000fc0048
50204c313530360a20202020000000ff
00434e4b353434303237590a202000bf

Extracted contents:
header:          00 ff ff ff ff ff ff 00
serial number:   22 f0 5b 26 01 01 01 01 2c 0f
version:         01 03
basic params:    68 1e 17 78 ea
chroma info:     ec 66 a3 54 4c 97 26 19 4f 54
established:     ad ee 00
standard:        61 40 01 01 01 01 01 01 01 01 01 01 01 01 01 01
descriptor 1:    64 19 00 40 41 00 26 30 18 88 36 00 30 e4 10 00 00 18
descriptor 2:    00 00 00 fd 00 32 4c 1e 3f 08 00 0a 20 20 20 20 20 20
descriptor 3:    00 00 00 fc 00 48 50 20 4c 31 35 30 36 0a 20 20 20 20
descriptor 4:    00 00 00 ff 00 43 4e 4b 35 34 34 30 32 37 59 0a 20 20
extensions:      00
checksum:        bf

EDID version: 1.3
Manufacturer: HWP Model 265b Serial Number --
Analog display, Input voltage level: 0.7/0.7 V
Sync: Separate 
Maximum image size: 30 cm x 23 cm
Gamma: 2.20
DPMS levels: Standby Suspend Off
RGB color display
First detailed timing is preferred timing
Display x,y Chromaticity:
  Red:   0.6396, 0.3300
  Green: 0.2998, 0.5898
  Blue:  0.1494, 0.0996
  White: 0.3095, 0.3300
Established timings supported:
  720x400@70Hz 9:5 HorFreq: 31469 Hz Clock: 28.320 MHz
  640x480@60Hz 4:3 HorFreq: 31469 Hz Clock: 25.175 MHz
  640x480@72Hz 4:3 HorFreq: 37900 Hz Clock: 31.500 MHz
  640x480@75Hz 4:3 HorFreq: 37500 Hz Clock: 31.500 MHz
  800x600@60Hz 4:3 HorFreq: 37900 Hz Clock: 40.000 MHz
  800x600@72Hz 4:3 HorFreq: 48100 Hz Clock: 50.000 MHz
  800x600@75Hz 4:3 HorFreq: 46900 Hz Clock: 49.500 MHz
  832x624@75Hz 4:3 HorFreq: 49726 Hz Clock: 57.284 MHz
  1024x768@60Hz 4:3 HorFreq: 48400 Hz Clock: 65.000 MHz
  1024x768@70Hz 4:3 HorFreq: 56500 Hz Clock: 75.000 MHz
  1024x768@75Hz 4:3 HorFreq: 60000 Hz Clock: 78.750 MHz
Standard timings supported:
  1024x768@60Hz 4:3 HorFreq: 48400 Hz Clock: 65.000 MHz
Detailed mode: Clock 65.000 MHz, 304 mm x 228 mm
               1024 1048 1184 1344 hborder 0
                768  771  777  806 vborder 0
               -hsync -vsync 
               VertFreq: 60 Hz, HorFreq: 48363 Hz
Monitor ranges (GTF): 50-76Hz V, 30-63kHz H, max dotclock 80MHz
Monitor name: HP L1506
Serial number: --
Checksum: 0xbf (valid)
EDID block does not conform at all!
	Bad year of manufacture
