edid-decode (hex):

00 ff ff ff ff ff ff 00 20 cc 26 a0 01 01 01 01
08 22 01 04 a5 3c 21 78 3f ee 91 a3 54 4c 99 26
0f 50 54 00 08 00 d1 3c d1 28 d1 00 d1 fc d1 e8
d1 c0 81 fc 81 e8 dd 68 00 a0 a0 40 2d 60 30 20
36 00 58 4a 21 00 00 1a 00 00 00 fc 00 4b 49 4e
48 41 4e 4b 2d 4b 31 36 0a 20 02 3a 80 18 71 38
2d 40 30 20 45 00 58 4a 21 00 00 1a 00 00 00 fd
00 3c 90 90 90 44 01 0a 20 20 20 20 20 20 01 45

02 03 21 f2 46 61 10 04 5f 40 3f e2 00 c0 23 09
7f 07 83 01 00 00 e3 05 c0 00 e6 06 05 01 69 69
4f 6a 5e 00 a0 a0 a0 29 50 30 20 35 00 58 4a 21
00 00 1a 4d d0 00 a0 f0 70 3e 80 30 20 35 00 61
5c 21 00 00 1a d4 bc 00 a0 a0 a0 29 50 30 20 36
00 58 4a 21 00 00 1a bb d1 00 a0 a0 40 2d 60 30
20 36 00 58 4a 21 00 00 1a ad fb 00 a0 a0 40 2d
60 30 20 36 00 58 4a 21 00 00 1a 00 00 00 00 81

00 ff ff ff ff ff ff 00 20 cc 26 a0 01 01 01 01
08 22 01 04 a5 3c 21 78 3f ee 91 a3 54 4c 99 26
0f 50 54 00 08 00 d1 3c d1 28 d1 00 d1 fc d1 e8
d1 c0 81 fc 81 e8 dd 68 00 a0 a0 40 2d 60 30 20
36 00 58 4a 21 00 00 1a 00 00 00 fc 00 4b 49 4e
48 41 4e 4b 2d 4b 31 36 0a 20 02 3a 80 18 71 38
2d 40 30 20 45 00 58 4a 21 00 00 1a 00 00 00 fd
00 3c 90 90 90 44 01 0a 20 20 20 20 20 20 01 45

02 03 21 f2 46 61 10 04 5f 40 3f e2 00 c0 23 09
7f 07 83 01 00 00 e3 05 c0 00 e6 06 05 01 69 69
4f 6a 5e 00 a0 a0 a0 29 50 30 20 35 00 58 4a 21
00 00 1a 4d d0 00 a0 f0 70 3e 80 30 20 35 00 61
5c 21 00 00 1a d4 bc 00 a0 a0 a0 29 50 30 20 36
00 58 4a 21 00 00 1a bb d1 00 a0 a0 40 2d 60 30
20 36 00 58 4a 21 00 00 1a ad fb 00 a0 a0 40 2d
60 30 20 36 00 58 4a 21 00 00 1a 00 00 00 00 81

----------------

Block 0, Base EDID:
  EDID Structure Version & Revision: 1.4
  Vendor & Product Identification:
    Manufacturer: HFL
    Model: 40998
    Serial Number: ...
    Made in: week 8 of 2024
  Basic Display Parameters & Features:
    Digital display
    Bits per primary color channel: 8
    DisplayPort interface
    Maximum image size: 60 cm x 33 cm
    Gamma: 2.20
    DPMS levels: Off
    Supported color formats: RGB 4:4:4, YCrCb 4:4:4, YCrCb 4:2:2
    Default (sRGB) color space is primary color space
    First detailed timing includes the native pixel format and preferred refresh rate
    Display is continuous frequency
  Color Characteristics:
    Red  : 0.6396, 0.3300
    Green: 0.2998, 0.5996
    Blue : 0.1503, 0.0595
    White: 0.3125, 0.3291
  Established Timings I & II:
    DMT 0x10:  1024x768    60.003840 Hz   4:3     48.363 kHz     65.000000 MHz
  Standard Timings:
    GTF     :  1920x1200  119.999988 Hz  16:10   154.320 kHz    412.343000 MHz
    GTF     :  1920x1200  100.000118 Hz  16:10   127.100 kHz    337.578000 MHz
    DMT 0x45:  1920x1200   59.884600 Hz  16:10    74.556 kHz    193.250000 MHz
    GTF     :  1920x1080  119.999987 Hz  16:9    138.840 kHz    368.759000 MHz
    GTF     :  1920x1080  100.000000 Hz  16:9    114.400 kHz    302.016000 MHz
    DMT 0x52:  1920x1080   60.000000 Hz  16:9     67.500 kHz    148.500000 MHz
    GTF     :  1280x720   119.999881 Hz  16:9     92.640 kHz    161.564000 MHz
    GTF     :  1280x720    99.999697 Hz  16:9     76.300 kHz    131.846000 MHz
  Detailed Timing Descriptors:
    DTD  1:  2560x1600   59.996871 Hz  16:10    98.695 kHz    268.450000 MHz (600 mm x 330 mm)
                  Hfront   48 Hsync  32 Hback   80 Hpol P
                  Vfront    3 Vsync   6 Vback   36 Vpol N
    Display Product Name: 'KINHANK-K16'
    DTD  2:  1920x1080   60.000000 Hz  16:9     67.500 kHz    148.500000 MHz (600 mm x 330 mm)
                  Hfront   48 Hsync  32 Hback  200 Hpol P
                  Vfront    4 Vsync   5 Vback   36 Vpol N
    Display Range Limits:
      Monitor ranges (Bare Limits): 60-144 Hz V, 144-144 kHz H, max dotclock 680 MHz
  Extension blocks: 1
Checksum: 0x45

----------------

Block 1, CTA-861 Extension Block:
  Revision: 3
  Underscans IT Video Formats by default
  Basic audio support
  Supports YCbCr 4:4:4
  Supports YCbCr 4:2:2
  Native detailed modes: 2
  Video Data Block:
    VIC  97:  3840x2160   60.000000 Hz  16:9    135.000 kHz    594.000000 MHz
    VIC  16:  1920x1080   60.000000 Hz  16:9     67.500 kHz    148.500000 MHz
    VIC   4:  1280x720    60.000000 Hz  16:9     45.000 kHz     74.250000 MHz
    VIC  95:  3840x2160   30.000000 Hz  16:9     67.500 kHz    297.000000 MHz
    VIC  64:  1920x1080  100.000000 Hz  16:9    112.500 kHz    297.000000 MHz
    VIC  63:  1920x1080  120.000000 Hz  16:9    135.000 kHz    297.000000 MHz
  Video Capability Data Block:
    YCbCr quantization: Selectable (via AVI YQ)
    RGB quantization: Selectable (via AVI Q)
    PT scan behavior: No Data
    IT scan behavior: IT video formats not supported
    CE scan behavior: CE video formats not supported
  Audio Data Block:
    Linear PCM:
      Max channels: 2
      Supported sample rates (kHz): 192 176.4 96 88.2 48 44.1 32
      Supported sample sizes (bits): 24 20 16
  Speaker Allocation Data Block:
    FL/FR - Front Left/Right
  Colorimetry Data Block:
    BT2020YCC
    BT2020RGB
  HDR Static Metadata Data Block:
    Electro optical transfer functions:
      Traditional gamma - SDR luminance range
      SMPTE ST2084
    Supported static metadata descriptors:
      Static metadata type 1
    Desired content max luminance: 105 (486.099 cd/m^2)
    Desired content max frame-average luminance: 105 (486.099 cd/m^2)
    Desired content min luminance: 79 (0.467 cd/m^2)
  Detailed Timing Descriptors:
    DTD  3:  2560x1440   60.000199 Hz  16:9     88.860 kHz    241.700000 MHz (600 mm x 330 mm)
                  Hfront   48 Hsync  32 Hback   80 Hpol P
                  Vfront    3 Vsync   5 Vback   33 Vpol N
    DTD  4:  3840x2160   59.996625 Hz  16:9    133.312 kHz    533.250000 MHz (609 mm x 348 mm)
                  Hfront   48 Hsync  32 Hback   80 Hpol P
                  Vfront    3 Vsync   5 Vback   54 Vpol N
    DTD  5:  2560x1440  120.000397 Hz  16:9    177.721 kHz    483.400000 MHz (600 mm x 330 mm)
                  Hfront   48 Hsync  32 Hback   80 Hpol P
                  Vfront    3 Vsync   6 Vback   32 Vpol N
    DTD  6:  2560x1600  119.995977 Hz  16:10   197.393 kHz    536.910000 MHz (600 mm x 330 mm)
                  Hfront   48 Hsync  32 Hback   80 Hpol P
                  Vfront    3 Vsync   6 Vback   36 Vpol N
    DTD  7:  2560x1600  143.994726 Hz  16:10   236.871 kHz    644.290000 MHz (600 mm x 330 mm)
                  Hfront   48 Hsync  32 Hback   80 Hpol P
                  Vfront    3 Vsync   6 Vback   36 Vpol N
Checksum: 0x81  Unused space in Extension Block: 4 bytes

----------------

Block 2, Unknown EDID Extension Block 0x00:
  00 ff ff ff ff ff ff 00 20 cc 26 a0 01 01 01 01 '........ .&.....'
  08 22 01 04 a5 3c 21 78 3f ee 91 a3 54 4c 99 26 '."...<!x?...TL.&'
  0f 50 54 00 08 00 d1 3c d1 28 d1 00 d1 fc d1 e8 '.PT....<.(......'
  d1 c0 81 fc 81 e8 dd 68 00 a0 a0 40 2d 60 30 20 '.......h...@-`0 '
  36 00 58 4a 21 00 00 1a 00 00 00 fc 00 4b 49 4e '6.XJ!........KIN'
  48 41 4e 4b 2d 4b 31 36 0a 20 02 3a 80 18 71 38 'HANK-K16. .:..q8'
  2d 40 30 20 45 00 58 4a 21 00 00 1a 00 00 00 fd '-@0 E.XJ!.......'
  00 3c 90 90 90 44 01 0a 20 20 20 20 20 20 01 45 '.<...D..      .E'
Checksum: 0x45

----------------

Block 3, CTA-861 Extension Block:
  Revision: 3
  Underscans IT Video Formats by default
  Basic audio support
  Supports YCbCr 4:4:4
  Supports YCbCr 4:2:2
  Native detailed modes: 2
  Video Data Block:
    VIC  97:  3840x2160   60.000000 Hz  16:9    135.000 kHz    594.000000 MHz
    VIC  16:  1920x1080   60.000000 Hz  16:9     67.500 kHz    148.500000 MHz
    VIC   4:  1280x720    60.000000 Hz  16:9     45.000 kHz     74.250000 MHz
    VIC  95:  3840x2160   30.000000 Hz  16:9     67.500 kHz    297.000000 MHz
    VIC  64:  1920x1080  100.000000 Hz  16:9    112.500 kHz    297.000000 MHz
    VIC  63:  1920x1080  120.000000 Hz  16:9    135.000 kHz    297.000000 MHz
  Video Capability Data Block:
    YCbCr quantization: Selectable (via AVI YQ)
    RGB quantization: Selectable (via AVI Q)
    PT scan behavior: No Data
    IT scan behavior: IT video formats not supported
    CE scan behavior: CE video formats not supported
  Audio Data Block:
    Linear PCM:
      Max channels: 2
      Supported sample rates (kHz): 192 176.4 96 88.2 48 44.1 32
      Supported sample sizes (bits): 24 20 16
  Speaker Allocation Data Block:
    FL/FR - Front Left/Right
  Colorimetry Data Block:
    BT2020YCC
    BT2020RGB
  HDR Static Metadata Data Block:
    Electro optical transfer functions:
      Traditional gamma - SDR luminance range
      SMPTE ST2084
    Supported static metadata descriptors:
      Static metadata type 1
    Desired content max luminance: 105 (486.099 cd/m^2)
    Desired content max frame-average luminance: 105 (486.099 cd/m^2)
    Desired content min luminance: 79 (0.467 cd/m^2)
  Detailed Timing Descriptors:
    DTD  8:  2560x1440   60.000199 Hz  16:9     88.860 kHz    241.700000 MHz (600 mm x 330 mm)
                  Hfront   48 Hsync  32 Hback   80 Hpol P
                  Vfront    3 Vsync   5 Vback   33 Vpol N
    DTD  9:  3840x2160   59.996625 Hz  16:9    133.312 kHz    533.250000 MHz (609 mm x 348 mm)
                  Hfront   48 Hsync  32 Hback   80 Hpol P
                  Vfront    3 Vsync   5 Vback   54 Vpol N
    DTD 10:  2560x1440  120.000397 Hz  16:9    177.721 kHz    483.400000 MHz (600 mm x 330 mm)
                  Hfront   48 Hsync  32 Hback   80 Hpol P
                  Vfront    3 Vsync   6 Vback   32 Vpol N
    DTD 11:  2560x1600  119.995977 Hz  16:10   197.393 kHz    536.910000 MHz (600 mm x 330 mm)
                  Hfront   48 Hsync  32 Hback   80 Hpol P
                  Vfront    3 Vsync   6 Vback   36 Vpol N
    DTD 12:  2560x1600  143.994726 Hz  16:10   236.871 kHz    644.290000 MHz (600 mm x 330 mm)
                  Hfront   48 Hsync  32 Hback   80 Hpol P
                  Vfront    3 Vsync   6 Vback   36 Vpol N
Checksum: 0x81  Unused space in Extension Block: 4 bytes

----------------

Warnings:

Block 0, Base EDID:
  Detailed Timing Descriptor #2: DTD is similar but not identical to VIC 16.
Block 1, CTA-861 Extension Block:
  Video Capability Data Block: IT scan behavior is expected to support underscanned.
  Video Capability Data Block: 'CE video formats not supported' makes no sense.
Block 3, CTA-861 Extension Block:
  Video Capability Data Block: IT scan behavior is expected to support underscanned.
  Video Capability Data Block: 'CE video formats not supported' makes no sense.
EDID:
  Base EDID: Some timings are out of range of the Monitor Ranges:
    Vertical Freq: 30.000 - 143.995 Hz (Monitor: 60.000 - 144.000 Hz)
    Horizontal Freq: 45.000 - 236.871 kHz (Monitor: 144.000 - 144.000 kHz)

Failures:

Block 0, Base EDID:
  Detailed Timing Descriptor #2: Invalid detailed timing descriptor ordering.
Block 1, CTA-861 Extension Block:
  Detailed Timing Descriptor #4: Mismatch of image size 609x348 mm vs display size 600x330 mm.
  Required 640x480p60 timings are missing in the established timings and the SVD list (VIC 1).
Block 2, Base EDID:
  Unknown Extension Block.
Block 3, CTA-861 Extension Block:
  Video Data Block: Duplicate VIC 97.
  Video Data Block: Duplicate VIC 16.
  Video Data Block: Duplicate VIC 4.
  Video Data Block: Duplicate VIC 95.
  Video Data Block: Duplicate VIC 64.
  Video Data Block: Duplicate VIC 63.
  Video Capability Data Block: Only one instance of this Data Block is allowed.
  Speaker Allocation Data Block: Only one instance of this Data Block is allowed.
  Colorimetry Data Block: Only one instance of this Data Block is allowed.
  HDR Static Metadata Data Block: Only one instance of this Data Block is allowed.
  Detailed Timing Descriptor #9: Mismatch of image size 609x348 mm vs display size 600x330 mm.
  Required 640x480p60 timings are missing in the established timings and the SVD list (VIC 1).
EDID:
  Base EDID: The DTD max image size is 609x348mm, which is larger than the display size 600.0x330.0mm.
  Base EDID: EDID specified 1 extension block(s), but found 3 extension block(s).
  CTA-861: Native progressive timings are a mix of several resolutions.

EDID conformity: FAIL
