
EDID (hex):
00ffffffffffff0038a3886701010101
0414010380663978eaf80da355489b25
0f474aa1090081c08100814081809040
9500a940b300023a801871382d40582c
4500fa3d3200001e000000fd0030551c
5c11000a202020202020000000fc0050
3436310a2020202020202020000000ff
0030313030303136345a420a20200155

Extracted contents:
header:          00 ff ff ff ff ff ff 00
serial number:   38 a3 88 67 01 01 01 01 04 14
version:         01 03
basic params:    80 66 39 78 ea
chroma info:     f8 0d a3 55 48 9b 25 0f 47 4a
established:     a1 09 00
standard:        81 c0 81 00 81 40 81 80 90 40 95 00 a9 40 b3 00
descriptor 1:    02 3a 80 18 71 38 2d 40 58 2c 45 00 fa 3d 32 00 00 1e
descriptor 2:    00 00 00 fd 00 30 55 1c 5c 11 00 0a 20 20 20 20 20 20
descriptor 3:    00 00 00 fc 00 50 34 36 31 0a 20 20 20 20 20 20 20 20
descriptor 4:    00 00 00 ff 00 30 31 30 30 30 31 36 34 5a 42 0a 20 20
extensions:      01
checksum:        55

EDID version: 1.3
Manufacturer: NEC Model 6788 Serial Number --
Made in week 4 of 2010
Digital display
Maximum image size: 102 cm x 57 cm
Gamma: 2.20
DPMS levels: Standby Suspend Off
RGB color display
First detailed timing is preferred timing
Display x,y Chromaticity:
  Red:   0.6396, 0.3349
  Green: 0.2832, 0.6054
  Blue:  0.1445, 0.0585
  White: 0.2802, 0.2900
Established timings supported:
  720x400@70Hz 9:5 HorFreq: 31469 Hz Clock: 28.320 MHz
  640x480@60Hz 4:3 HorFreq: 31469 Hz Clock: 25.175 MHz
  800x600@60Hz 4:3 HorFreq: 37900 Hz Clock: 40.000 MHz
  1024x768@60Hz 4:3 HorFreq: 48400 Hz Clock: 65.000 MHz
  1280x1024@75Hz 5:4 HorFreq: 80000 Hz Clock: 135.000 MHz
Standard timings supported:
  1280x720@60Hz 16:9
  1280x800@60Hz 16:10
  1280x960@60Hz 4:3 HorFreq: 60000 Hz Clock: 108.000 MHz
  1280x1024@60Hz 5:4 HorFreq: 64000 Hz Clock: 108.000 MHz
  1400x1050@60Hz 4:3 HorFreq: 64700 Hz Clock: 101.000 MHz
  1440x900@60Hz 16:10 HorFreq: 55500 Hz Clock: 88.750 MHz
  1600x1200@60Hz 4:3 HorFreq: 75000 Hz Clock: 162.000 MHz
  1680x1050@60Hz 16:10 HorFreq: 64700 Hz Clock: 119.000 MHz
Detailed mode: Clock 148.500 MHz, 1018 mm x 573 mm
               1920 2008 2052 2200 hborder 0
               1080 1084 1089 1125 vborder 0
               +hsync +vsync 
               VertFreq: 60 Hz, HorFreq: 67500 Hz
Monitor ranges (GTF): 48-85Hz V, 28-92kHz H, max dotclock 170MHz
Monitor name: P461
Serial number: --
Has 1 extension blocks
Checksum: 0x55 (valid)
