
EDID (hex):
00ffffffffffff001584836601000000
0a1d0103805831780aee95a3544c9926
0f5054adcf00714f8140818081c08100
950001010101662156aa51001e30468f
330056005300001e0e1f008051001e30
4080370055005300001c000000fc004c
452d3332503238534c38330a000000fd
00174b1e5017000a20202020202001a4

Extracted contents:
header:          00 ff ff ff ff ff ff 00
serial number:   15 84 83 66 01 00 00 00 0a 1d
version:         01 03
basic params:    80 58 31 78 0a
chroma info:     ee 95 a3 54 4c 99 26 0f 50 54
established:     ad cf 00
standard:        71 4f 81 40 81 80 81 c0 81 00 95 00 01 01 01 01
descriptor 1:    66 21 56 aa 51 00 1e 30 46 8f 33 00 56 00 53 00 00 1e
descriptor 2:    0e 1f 00 80 51 00 1e 30 40 80 37 00 55 00 53 00 00 1c
descriptor 3:    00 00 00 fc 00 4c 45 2d 33 32 50 32 38 53 4c 38 33 0a
descriptor 4:    00 00 00 fd 00 17 4b 1e 50 17 00 0a 20 20 20 20 20 20
extensions:      01
checksum:        a4

EDID version: 1.3
Manufacturer: ELD Model 6683 Serial Number --
Made in week 10 of 2019
Digital display
Maximum image size: 88 cm x 49 cm
Gamma: 2.20
RGB color display
First detailed timing is preferred timing
Display x,y Chromaticity:
  Red:   0.6396, 0.3300
  Green: 0.2998, 0.5996
  Blue:  0.1503, 0.0595
  White: 0.3134, 0.3291
Established timings supported:
  720x400@70Hz 9:5 HorFreq: 31469 Hz Clock: 28.320 MHz
  640x480@60Hz 4:3 HorFreq: 31469 Hz Clock: 25.175 MHz
  640x480@72Hz 4:3 HorFreq: 37900 Hz Clock: 31.500 MHz
  640x480@75Hz 4:3 HorFreq: 37500 Hz Clock: 31.500 MHz
  800x600@60Hz 4:3 HorFreq: 37900 Hz Clock: 40.000 MHz
  800x600@72Hz 4:3 HorFreq: 48100 Hz Clock: 50.000 MHz
  800x600@75Hz 4:3 HorFreq: 46900 Hz Clock: 49.500 MHz
  1024x768@60Hz 4:3 HorFreq: 48400 Hz Clock: 65.000 MHz
  1024x768@70Hz 4:3 HorFreq: 56500 Hz Clock: 75.000 MHz
  1024x768@75Hz 4:3 HorFreq: 60000 Hz Clock: 78.750 MHz
  1280x1024@75Hz 5:4 HorFreq: 80000 Hz Clock: 135.000 MHz
Standard timings supported:
  1152x864@75Hz 4:3 HorFreq: 67500 Hz Clock: 108.000 MHz
  1280x960@60Hz 4:3 HorFreq: 60000 Hz Clock: 108.000 MHz
  1280x1024@60Hz 5:4 HorFreq: 64000 Hz Clock: 108.000 MHz
  1280x720@60Hz 16:9
  1280x800@60Hz 16:10
  1440x900@60Hz 16:10 HorFreq: 55500 Hz Clock: 88.750 MHz
Detailed mode: Clock 85.500 MHz, 1366 mm x 768 mm
               1366 1436 1579 1792 hborder 0
                768  771  774  798 vborder 0
               +hsync +vsync 
               VertFreq: 59 Hz, HorFreq: 47712 Hz
Detailed mode: Clock 79.500 MHz, 1365 mm x 768 mm
               1280 1344 1472 1664 hborder 0
                768  771  778  798 vborder 0
               -hsync +vsync 
               VertFreq: 59 Hz, HorFreq: 47776 Hz
Monitor name: LE-32P28SL83
Monitor ranges (GTF): 23-75Hz V, 30-80kHz H, max dotclock 230MHz
Has 1 extension blocks
Checksum: 0xa4 (valid)
