
EDID (hex):
00ffffffffffff000daf541500000000
28110103802115780a07f59a574e8726
1e505400000001010101010101010101
010101010101111b008250201330271a
24004bcf10000018000000fe004e3135
3449332d4c30330a2020000000fe0043
4d4f0a202020202020202020000000fe
004e31353449332d4c30330a20200093

Extracted contents:
header:          00 ff ff ff ff ff ff 00
serial number:   0d af 54 15 00 00 00 00 28 11
version:         01 03
basic params:    80 21 15 78 0a
chroma info:     07 f5 9a 57 4e 87 26 1e 50 54
established:     00 00 00
standard:        01 01 01 01 01 01 01 01 01 01 01 01 01 01 01 01
descriptor 1:    11 1b 00 82 50 20 13 30 27 1a 24 00 4b cf 10 00 00 18
descriptor 2:    00 00 00 fe 00 4e 31 35 34 49 33 2d 4c 30 33 0a 20 20
descriptor 3:    00 00 00 fe 00 43 4d 4f 0a 20 20 20 20 20 20 20 20 20
descriptor 4:    00 00 00 fe 00 4e 31 35 34 49 33 2d 4c 30 33 0a 20 20
extensions:      00
checksum:        93

EDID version: 1.3
Manufacturer: CMO Model 1554 Serial Number --
Made in week 40 of 2007
Digital display
Maximum image size: 33 cm x 21 cm
Gamma: 2.20
RGB color display
First detailed timing is preferred timing
Display x,y Chromaticity:
  Red:   0.6015, 0.3398
  Green: 0.3056, 0.5302
  Blue:  0.1513, 0.1201
  White: 0.3134, 0.3291
Established timings supported:
Standard timings supported:
Detailed mode: Clock 69.290 MHz, 331 mm x 207 mm
               1280 1319 1345 1410 hborder 0
                800  802  806  819 vborder 0
               -hsync -vsync 
               VertFreq: 60 Hz, HorFreq: 49141 Hz
ASCII string: N154I3-L03
ASCII string: CMO
ASCII string: N154I3-L03
Checksum: 0x93 (valid)
EDID block does NOT conform to EDID 1.3!
	Missing name descriptor
	Missing monitor ranges
