
EDID (hex):
00ffffffffffff004d10454101010101
001301031c3920782e9eada455459826
10474abfee0081c081008bc001010101
010101010101202150a051001e304888
35009ae610000018000000ff00303130
31303130310a20202020000000fc0053
48415250204c43440a202020000000fd
00384c1e5510000a2020202020200012

Extracted contents:
header:          00 ff ff ff ff ff ff 00
serial number:   4d 10 45 41 01 01 01 01 00 13
version:         01 03
basic params:    1c 39 20 78 2e
chroma info:     9e ad a4 55 45 98 26 10 47 4a
established:     bf ee 00
standard:        81 c0 81 00 8b c0 01 01 01 01 01 01 01 01 01 01
descriptor 1:    20 21 50 a0 51 00 1e 30 48 88 35 00 9a e6 10 00 00 18
descriptor 2:    00 00 00 ff 00 30 31 30 31 30 31 30 31 0a 20 20 20 20
descriptor 3:    00 00 00 fc 00 53 48 41 52 50 20 4c 43 44 0a 20 20 20
descriptor 4:    00 00 00 fd 00 38 4c 1e 55 10 00 0a 20 20 20 20 20 20
extensions:      00
checksum:        12

EDID version: 1.3
Manufacturer: SHP Model 4145 Serial Number --
Made in year 2009
Analog display, Input voltage level: 0.7/0.3 V
Configurable signal levels
Sync: Separate Composite 
Maximum image size: 57 cm x 32 cm
Gamma: 2.20
DPMS levels: Off
RGB color display
Default (sRGB) color space is primary color space
First detailed timing is preferred timing
Display x,y Chromaticity:
  Red:   0.6425, 0.3330
  Green: 0.2724, 0.5957
  Blue:  0.1503, 0.0644
  White: 0.2802, 0.2900
Established timings supported:
  720x400@70Hz 9:5 HorFreq: 31469 Hz Clock: 28.320 MHz
  640x480@60Hz 4:3 HorFreq: 31469 Hz Clock: 25.175 MHz
  640x480@67Hz 4:3 HorFreq: 35000 Hz Clock: 30.240 MHz
  640x480@72Hz 4:3 HorFreq: 37900 Hz Clock: 31.500 MHz
  640x480@75Hz 4:3 HorFreq: 37500 Hz Clock: 31.500 MHz
  800x600@56Hz 4:3 HorFreq: 35200 Hz Clock: 36.000 MHz
  800x600@60Hz 4:3 HorFreq: 37900 Hz Clock: 40.000 MHz
  800x600@72Hz 4:3 HorFreq: 48100 Hz Clock: 50.000 MHz
  800x600@75Hz 4:3 HorFreq: 46900 Hz Clock: 49.500 MHz
  832x624@75Hz 4:3 HorFreq: 49726 Hz Clock: 57.284 MHz
  1024x768@60Hz 4:3 HorFreq: 48400 Hz Clock: 65.000 MHz
  1024x768@70Hz 4:3 HorFreq: 56500 Hz Clock: 75.000 MHz
  1024x768@75Hz 4:3 HorFreq: 60000 Hz Clock: 78.750 MHz
Standard timings supported:
  1280x720@60Hz 16:9
  1280x800@60Hz 16:10
  1360x765@60Hz 16:9
Detailed mode: Clock 84.800 MHz, 410 mm x 230 mm
               1360 1432 1568 1776 hborder 0
                768  771  776  798 vborder 0
               -hsync -vsync 
               VertFreq: 59 Hz, HorFreq: 47747 Hz
Serial number: --
Monitor name: SHARP LCD
Monitor ranges (GTF): 56-76Hz V, 30-85kHz H, max dotclock 160MHz
Checksum: 0x12 (valid)
EDID block does NOT conform to EDID 1.3!
	sRGB is signaled, but the chromaticities do not match
