
EDID (hex):
00ffffffffffff005c2319102a0d0000
05120103811b1178aad4459657528928
255054a5ee0081000101010101010101
0101010101019420009051201c30c888
830405a31000001e000000fd00384b1f
520e000a202020202020000000ff0038
414330303333373020202020000000fc
0043696e74697120313257580a2000aa

Extracted contents:
header:          00 ff ff ff ff ff ff 00
serial number:   5c 23 19 10 2a 0d 00 00 05 12
version:         01 03
basic params:    81 1b 11 78 aa
chroma info:     d4 45 96 57 52 89 28 25 50 54
established:     a5 ee 00
standard:        81 00 01 01 01 01 01 01 01 01 01 01 01 01 01 01
descriptor 1:    94 20 00 90 51 20 1c 30 c8 88 83 04 05 a3 10 00 00 1e
descriptor 2:    00 00 00 fd 00 38 4b 1f 52 0e 00 0a 20 20 20 20 20 20
descriptor 3:    00 00 00 ff 00 38 41 43 30 30 33 33 37 30 20 20 20 20
descriptor 4:    00 00 00 fc 00 43 69 6e 74 69 71 20 31 32 57 58 0a 20
extensions:      00
checksum:        aa

EDID version: 1.3
Manufacturer: WAC Model 1019 Serial Number --
Made in week 5 of 2008
Digital display
DFP 1.x compatible TMDS
Maximum image size: 27 cm x 17 cm
Gamma: 2.20
DPMS levels: Standby Off
RGB color display
First detailed timing is preferred timing
Display x,y Chromaticity:
  Red:   0.5888, 0.3408
  Green: 0.3212, 0.5351
  Blue:  0.1572, 0.1445
  White: 0.3134, 0.3291
Established timings supported:
  720x400@70Hz 9:5 HorFreq: 31469 Hz Clock: 28.320 MHz
  640x480@60Hz 4:3 HorFreq: 31469 Hz Clock: 25.175 MHz
  640x480@75Hz 4:3 HorFreq: 37500 Hz Clock: 31.500 MHz
  800x600@60Hz 4:3 HorFreq: 37900 Hz Clock: 40.000 MHz
  800x600@72Hz 4:3 HorFreq: 48100 Hz Clock: 50.000 MHz
  800x600@75Hz 4:3 HorFreq: 46900 Hz Clock: 49.500 MHz
  832x624@75Hz 4:3 HorFreq: 49726 Hz Clock: 57.284 MHz
  1024x768@60Hz 4:3 HorFreq: 48400 Hz Clock: 65.000 MHz
  1024x768@70Hz 4:3 HorFreq: 56500 Hz Clock: 75.000 MHz
  1024x768@75Hz 4:3 HorFreq: 60000 Hz Clock: 78.750 MHz
Standard timings supported:
  1280x800@60Hz 16:10
Detailed mode: Clock 83.400 MHz, 261 mm x 163 mm
               1280 1480 1616 1680 hborder 0
                800  824  827  828 vborder 0
               +hsync +vsync 
               VertFreq: 59 Hz, HorFreq: 49642 Hz
Monitor ranges (GTF): 56-75Hz V, 31-82kHz H, max dotclock 140MHz
Serial number: --    
Monitor name: Cintiq 12WX
Checksum: 0xaa (valid)


