
EDID (hex):
00ffffffffffff0009e54f0a00000000
161f0104a522167803ee95a3544c9926
0f505400000001010101010101010101
0101010101019c3e80c870b03c403020
360059d71000001abd2980c870b03c40
3020360059d71000001a000000000000
00000000000000000000000000000002
000d28ff0a3cc8100e2cc80000000047

Extracted contents:
header:          00 ff ff ff ff ff ff 00
serial number:   09 e5 4f 0a 00 00 00 00 16 1f
version:         01 04
basic params:    a5 22 16 78 03
chroma info:     ee 95 a3 54 4c 99 26 0f 50 54
established:     00 00 00
standard:        01 01 01 01 01 01 01 01 01 01 01 01 01 01 01 01
descriptor 1:    9c 3e 80 c8 70 b0 3c 40 30 20 36 00 59 d7 10 00 00 1a
descriptor 2:    bd 29 80 c8 70 b0 3c 40 30 20 36 00 59 d7 10 00 00 1a
descriptor 3:    00 00 00 00 00 00 00 00 00 00 00 00 00 00 00 00 00 00
descriptor 4:    00 00 00 02 00 0d 28 ff 0a 3c c8 10 0e 2c c8 00 00 00
extensions:      00
checksum:        47

EDID version: 1.4
Manufacturer: BOE Model a4f Serial Number --
Made in week 22 of 2021
Digital display
8 bits per primary color channel
DisplayPort interface
Maximum image size: 34 cm x 22 cm
Gamma: 2.20
Supported color formats: RGB 4:4:4
First detailed timing includes the native pixel format and preferred refresh rate
Display is continuous frequency
Display x,y Chromaticity:
  Red:   0.6396, 0.3300
  Green: 0.2998, 0.5996
  Blue:  0.1503, 0.0595
  White: 0.3134, 0.3291
Established timings supported:
Standard timings supported:
Detailed mode: Clock 160.280 MHz, 345 mm x 215 mm
               1920 1968 2000 2120 hborder 0
               1200 1203 1209 1260 vborder 0
               +hsync -vsync 
               VertFreq: 60 Hz, HorFreq: 75603 Hz
Detailed mode: Clock 106.850 MHz, 345 mm x 215 mm
               1920 1968 2000 2120 hborder 0
               1200 1203 1209 1260 vborder 0
               +hsync -vsync 
               VertFreq: 40 Hz, HorFreq: 50400 Hz
Manufacturer-specified data, tag 0
Manufacturer-specified data, tag 2
Checksum: 0x47 (valid)
EDID block does NOT conform to EDID 1.4!
	Missing name descriptor
	Missing monitor ranges
