
EDID (hex):
00ffffffffffff0051b8001400000000
031f0104a51f1178030f91ae5243b026
0f505400000001010101010101010101
010101010101096400b0a0a078503020
360036ae1000001e000000fd0c30a505
0547010a202020202020000000100030
a5f7f741000a202020202020000000fc
00544c3134304244585030322d300142
701379000003011419130185ff09af00
2f001f009f0577000200050000000000
00000000000000000000000000000000
00000000000000000000000000000000
00000000000000000000000000000000
00000000000000000000000000000000
00000000000000000000000000000000
00000000000000000000000000008390

Extracted contents:
header:          00 ff ff ff ff ff ff 00
serial number:   51 b8 00 14 00 00 00 00 03 1f
version:         01 04
basic params:    a5 1f 11 78 03
chroma info:     0f 91 ae 52 43 b0 26 0f 50 54
established:     00 00 00
standard:        01 01 01 01 01 01 01 01 01 01 01 01 01 01 01 01
descriptor 1:    09 64 00 b0 a0 a0 78 50 30 20 36 00 36 ae 10 00 00 1e
descriptor 2:    00 00 00 fd 0c 30 a5 05 05 47 01 0a 20 20 20 20 20 20
descriptor 3:    00 00 00 10 00 30 a5 f7 f7 41 00 0a 20 20 20 20 20 20
descriptor 4:    00 00 00 fc 00 54 4c 31 34 30 42 44 58 50 30 32 2d 30
extensions:      01
checksum:        42

EDID version: 1.4
Manufacturer: TMX Model 1400 Serial Number --
Made in week 3 of 2021
Digital display
8 bits per primary color channel
DisplayPort interface
Maximum image size: 31 cm x 17 cm
Gamma: 2.20
Supported color formats: RGB 4:4:4
First detailed timing includes the native pixel format and preferred refresh rate
Display is continuous frequency
Display x,y Chromaticity:
  Red:   0.6796, 0.3203
  Green: 0.2646, 0.6904
  Blue:  0.1503, 0.0595
  White: 0.3125, 0.3291
Established timings supported:
Standard timings supported:
Detailed mode: Clock 256.090 MHz, 310 mm x 174 mm
               2560 2608 2640 2736 hborder 0
               1440 1443 1449 1560 vborder 0
               +hsync +vsync 
               VertFreq: 60 Hz, HorFreq: 93600 Hz
Monitor ranges (bare limits): 48-165Hz V, 5-260kHz H, max dotclock 710MHz
Dummy block
Has 1 extension blocks
Checksum: 0x42 (valid)

DisplayID extension block
Extension version: 19
Length 121, version 19, extension count 0
Checksum: 0x83 (valid)
Type 1 detailed timing: aspect: 16:10, Preferred  
Detailed mode: Clock 704.250 MHz, 0 mm x 0 mm
               2559 2606 2637 2734
               1439 1441 1446 1558
               -hsync -vsync

EDID block does NOT conform to EDID 1.4!
	Name descriptor not terminated with a newline
EDID block does not conform at all!
	Has -1107296256 nonconformant extension block(s)
	Dummy block filled with garbage
