edid-decode (hex):

00 ff ff ff ff ff ff 00 0d ae 42 14 00 00 00 00
22 21 01 04 95 1f 11 78 03 8e d5 94 57 53 93 27
21 50 54 00 00 00 01 01 01 01 01 01 01 01 01 01
01 01 01 01 01 01 da 1d 56 d2 50 00 28 30 44 2d
47 00 35 ad 10 00 00 1a e7 13 56 d2 50 00 28 30
44 2d 47 00 35 ad 10 00 00 1a 00 00 00 00 00 00
00 00 00 00 00 00 00 00 00 00 00 00 00 00 00 02
00 0c 3d ff 0d 3c 7d 0b 0e 1d 7d 00 00 00 00 61

00 ff ff ff ff ff ff 00 0d ae 42 14 00 00 00 00
22 21 01 04 95 1f 11 78 03 8e d5 94 57 53 93 27
21 50 54 00 00 00 01 01 01 01 01 01 01 01 01 01
01 01 01 01 01 01 da 1d 56 d2 50 00 28 30 44 2d
47 00 35 ad 10 00 00 1a e7 13 56 d2 50 00 28 30
44 2d 47 00 35 ad 10 00 00 1a 00 00 00 00 00 00
00 00 00 00 00 00 00 00 00 00 00 00 00 00 00 02
00 0c 3d ff 0d 3c 7d 0b 0e 1d 7d 00 00 00 00 61

----------------

Block 0, Base EDID:
  EDID Structure Version & Revision: 1.4
  Vendor & Product Identification:
    Manufacturer: CMN
    Model: 5186
    Made in: week 34 of 2023
  Basic Display Parameters & Features:
    Digital display
    Bits per primary color channel: 6
    DisplayPort interface
    Maximum image size: 31 cm x 17 cm
    Gamma: 2.20
    Supported color formats: RGB 4:4:4
    First detailed timing includes the native pixel format and preferred refresh rate
    Display is continuous frequency
  Color Characteristics:
    Red  : 0.5800, 0.3398
    Green: 0.3271, 0.5761
    Blue : 0.1552, 0.1298
    White: 0.3134, 0.3291
  Established Timings I & II: none
  Standard Timings: none
  Detailed Timing Descriptors:
    DTD 1:  1366x768    60.012188 Hz 683:384   48.490 kHz     76.420000 MHz (309 mm x 173 mm)
                 Hfront   68 Hsync  45 Hback   97 Hpol P
                 Vfront    4 Vsync   7 Vback   29 Vpol N
    DTD 2:  1366x768    40.010743 Hz 683:384   32.329 kHz     50.950000 MHz (309 mm x 173 mm)
                 Hfront   68 Hsync  45 Hback   97 Hpol P
                 Vfront    4 Vsync   7 Vback   29 Vpol N
    Empty Descriptor
    Manufacturer-Specified Display Descriptor (0x02): 00 02 00 0c 3d ff 0d 3c 7d 0b 0e 1d 7d 00 00 00 '....=..<}...}...'
Checksum: 0x61

----------------

Block 1, Unknown EDID Extension Block 0x00:
  00 ff ff ff ff ff ff 00 0d ae 42 14 00 00 00 00 '..........B.....'
  22 21 01 04 95 1f 11 78 03 8e d5 94 57 53 93 27 '"!.....x....WS.''
  21 50 54 00 00 00 01 01 01 01 01 01 01 01 01 01 '!PT.............'
  01 01 01 01 01 01 da 1d 56 d2 50 00 28 30 44 2d '........V.P.(0D-'
  47 00 35 ad 10 00 00 1a e7 13 56 d2 50 00 28 30 'G.5.......V.P.(0'
  44 2d 47 00 35 ad 10 00 00 1a 00 00 00 00 00 00 'D-G.5...........'
  00 00 00 00 00 00 00 00 00 00 00 00 00 00 00 02 '................'
  00 0c 3d ff 0d 3c 7d 0b 0e 1d 7d 00 00 00 00 61 '..=..<}...}....a'
Checksum: 0x61

----------------

Warnings:

Block 0, Base EDID:
  Missing Display Product Name.

Failures:

Block 0, Base EDID:
  Empty Descriptor: Use Dummy Descriptor instead of all zeroes.
  Missing Display Range Limits Descriptor.
Block 1, Base EDID:
  Unknown Extension Block.
EDID:
  Base EDID: EDID specified 0 extension block(s), but found 1 extension block(s).

EDID conformity: FAIL
