
EDID (hex):
00ffffffffffff004e84040301000000
0c13010380321e000a9203a256489925
144a4da1080001010101010101010101
010101010101023a801871382d40582c
4500f4191100001e011d8018711c1620
582c250000000000009e000000fc0053
54442048444d492054560a20000000fd
003b3d0f2e0f000a20202020202001e0

Extracted contents:
header:          00 ff ff ff ff ff ff 00
serial number:   4e 84 04 03 01 00 00 00 0c 13
version:         01 03
basic params:    80 32 1e 00 0a
chroma info:     92 03 a2 56 48 99 25 14 4a 4d
established:     a1 08 00
standard:        01 01 01 01 01 01 01 01 01 01 01 01 01 01 01 01
descriptor 1:    02 3a 80 18 71 38 2d 40 58 2c 45 00 f4 19 11 00 00 1e
descriptor 2:    01 1d 80 18 71 1c 16 20 58 2c 25 00 00 00 00 00 00 9e
descriptor 3:    00 00 00 fc 00 53 54 44 20 48 44 4d 49 20 54 56 0a 20
descriptor 4:    00 00 00 fd 00 3b 3d 0f 2e 0f 00 0a 20 20 20 20 20 20
extensions:      01
checksum:        e0

EDID version: 1.3
Manufacturer: STD Model 304 Serial Number --
Made in week 12 of 2009
Digital display
Maximum image size: 50 cm x 30 cm
Gamma: 1.00
RGB color display
First detailed timing is preferred timing
Display x,y Chromaticity:
  Red:   0.6347, 0.3369
  Green: 0.2812, 0.5996
  Blue:  0.1445, 0.0781
  White: 0.2890, 0.3037
Established timings supported:
  720x400@70Hz 9:5 HorFreq: 31469 Hz Clock: 28.320 MHz
  640x480@60Hz 4:3 HorFreq: 31469 Hz Clock: 25.175 MHz
  800x600@60Hz 4:3 HorFreq: 37900 Hz Clock: 40.000 MHz
  1024x768@60Hz 4:3 HorFreq: 48400 Hz Clock: 65.000 MHz
Standard timings supported:
Detailed mode: Clock 148.500 MHz, 500 mm x 281 mm
               1920 2008 2052 2200 hborder 0
               1080 1084 1089 1125 vborder 0
               +hsync +vsync 
               VertFreq: 60 Hz, HorFreq: 67500 Hz
Detailed mode: Clock 74.250 MHz, 0 mm x 0 mm
               1920 2008 2052 2200 hborder 0
                540  542  547  562 vborder 0
               +hsync +vsync interlaced 
               VertFreq: 60 Hz, HorFreq: 33750 Hz
Monitor name: STD HDMI TV
Monitor ranges (GTF): 59-61Hz V, 15-46kHz H, max dotclock 150MHz
Has 1 extension blocks
Checksum: 0xe0 (valid)
One or more of the timings is out of range of the Monitor Ranges:
  Vertical Freq: 60 - 70 Hz
  Horizontal Freq: 31469 - 67500 Hz
  Maximum Clock: 148.500 MHz
