
EDID (hex):
00ffffffffffff0009e51d0b00000000
052001049522137803c9c5955e5a9329
21505400000001010101010101010101
010101010101c71d56e250001e303020
360058c21000001a0000000000000000
00000000000000000000000000fe0042
4f452043510a202020202020000000fe
004e563135365748422d4e34310a0036

Extracted contents:
header:          00 ff ff ff ff ff ff 00
serial number:   09 e5 1d 0b 00 00 00 00 05 20
version:         01 04
basic params:    95 22 13 78 03
chroma info:     c9 c5 95 5e 5a 93 29 21 50 54
established:     00 00 00
standard:        01 01 01 01 01 01 01 01 01 01 01 01 01 01 01 01
descriptor 1:    c7 1d 56 e2 50 00 1e 30 30 20 36 00 58 c2 10 00 00 1a
descriptor 2:    00 00 00 00 00 00 00 00 00 00 00 00 00 00 00 00 00 00
descriptor 3:    00 00 00 fe 00 42 4f 45 20 43 51 0a 20 20 20 20 20 20
descriptor 4:    00 00 00 fe 00 4e 56 31 35 36 57 48 42 2d 4e 34 31 0a
extensions:      00
checksum:        36

EDID version: 1.4
Manufacturer: BOE Model b1d Serial Number --
Made in week 5 of 2022
Digital display
6 bits per primary color channel
DisplayPort interface
Maximum image size: 34 cm x 19 cm
Gamma: 2.20
Supported color formats: RGB 4:4:4
First detailed timing includes the native pixel format and preferred refresh rate
Display is continuous frequency
Display x,y Chromaticity:
  Red:   0.5849, 0.3671
  Green: 0.3535, 0.5751
  Blue:  0.1630, 0.1289
  White: 0.3134, 0.3291
Established timings supported:
Standard timings supported:
Detailed mode: Clock 76.230 MHz, 344 mm x 194 mm
               1366 1414 1446 1592 hborder 0
                768  771  777  798 vborder 0
               +hsync -vsync 
               VertFreq: 60 Hz, HorFreq: 47883 Hz
Manufacturer-specified data, tag 0
ASCII string: BOE CQ
ASCII string: NV156WHB-N41
Checksum: 0x36 (valid)
EDID block does NOT conform to EDID 1.4!
	Missing name descriptor
	Missing monitor ranges
