edid-decode (hex):

00 ff ff ff ff ff ff 00 06 af b2 0f 00 00 00 00
03 22 01 04 a5 1e 13 78 03 57 a5 a8 54 4b 9c 24
0d 50 55 00 00 00 01 01 01 01 01 01 01 01 01 01
01 01 01 01 01 01 0e 3d 80 a4 70 b0 32 40 30 20
35 00 2d bc 10 00 00 18 00 00 00 fd 00 28 3c 4b
4b 10 01 0a 20 20 20 20 20 20 00 00 00 fe 00 41
55 4f 0a 20 20 20 20 20 20 20 20 20 00 00 00 fc
00 42 31 34 30 55 41 4e 30 32 2e 37 20 0a 01 31

70 20 79 02 00 25 01 09 8b 62 02 8b 62 02 28 3c
80 81 00 15 74 1a 00 00 03 01 28 3c 00 00 66 45
66 45 3c 00 00 00 00 8d 00 00 00 00 00 00 00 00
00 00 00 00 00 00 00 00 00 00 00 00 00 00 00 00
00 00 00 00 00 00 00 00 00 00 00 00 00 00 00 00
00 00 00 00 00 00 00 00 00 00 00 00 00 00 00 00
00 00 00 00 00 00 00 00 00 00 00 00 00 00 00 00
00 00 00 00 00 00 00 00 00 00 00 00 00 00 c9 90

00 ff ff ff ff ff ff 00 06 af b2 0f 00 00 00 00
03 22 01 04 a5 1e 13 78 03 57 a5 a8 54 4b 9c 24
0d 50 55 00 00 00 01 01 01 01 01 01 01 01 01 01
01 01 01 01 01 01 0e 3d 80 a4 70 b0 32 40 30 20
35 00 2d bc 10 00 00 18 00 00 00 fd 00 28 3c 4b
4b 10 01 0a 20 20 20 20 20 20 00 00 00 fe 00 41
55 4f 0a 20 20 20 20 20 20 20 20 20 00 00 00 fc
00 42 31 34 30 55 41 4e 30 32 2e 37 20 0a 01 31

70 20 79 02 00 25 01 09 8b 62 02 8b 62 02 28 3c
80 81 00 15 74 1a 00 00 03 01 28 3c 00 00 66 45
66 45 3c 00 00 00 00 8d 00 00 00 00 00 00 00 00
00 00 00 00 00 00 00 00 00 00 00 00 00 00 00 00
00 00 00 00 00 00 00 00 00 00 00 00 00 00 00 00
00 00 00 00 00 00 00 00 00 00 00 00 00 00 00 00
00 00 00 00 00 00 00 00 00 00 00 00 00 00 00 00
00 00 00 00 00 00 00 00 00 00 00 00 00 00 c9 90

----------------

Block 0, Base EDID:
  EDID Structure Version & Revision: 1.4
  Vendor & Product Identification:
    Manufacturer: AUO
    Model: 4018
    Made in: week 3 of 2024
  Basic Display Parameters & Features:
    Digital display
    Bits per primary color channel: 8
    DisplayPort interface
    Maximum image size: 30 cm x 19 cm
    Gamma: 2.20
    Supported color formats: RGB 4:4:4
    First detailed timing includes the native pixel format and preferred refresh rate
    Display is continuous frequency
  Color Characteristics:
    Red  : 0.6572, 0.3291
    Green: 0.2939, 0.6123
    Blue : 0.1425, 0.0527
    White: 0.3134, 0.3330
  Established Timings I & II: none
  Standard Timings: none
  Detailed Timing Descriptors:
    DTD 1:  1920x1200   60.000000 Hz  16:10    75.000 kHz    156.300000 MHz (301 mm x 188 mm)
                 Hfront   48 Hsync  32 Hback   84 Hpol N
                 Vfront    3 Vsync   5 Vback   42 Vpol N
    Display Range Limits:
      Monitor ranges (Bare Limits): 40-60 Hz V, 75-75 kHz H, max dotclock 160 MHz
    Alphanumeric Data String: 'AUO'
    Display Product Name: 'B140UAN02.7 '
  Extension blocks: 1
Checksum: 0x31

----------------

Block 1, DisplayID Extension Block:
  Version: 2.0
  Extension Count: 0
  Display Product Primary Use Case: None of the listed primary use cases; generic display
  Dynamic Video Timing Range Limits Data Block:
    Minimum Pixel Clock: 156300 kHz
    Maximum Pixel Clock: 156300 kHz
    Minimum Vertical Refresh Rate: 40 Hz
    Maximum Vertical Refresh Rate: 60 Hz
    Seamless Dynamic Video Timing Support: Yes
  CTA-861 DisplayID Data Block:
  Vendor-Specific Data Block (AMD), OUI 00-00-1A:
    Version: 3.1
    Minimum Refresh Rate: 40 Hz
    Maximum Refresh Rate: 60 Hz
    Flags 1.x: 0x00
    Flags 2.x: 0x00
    Maximum luminance: 102 (455.515 cd/m^2)
    Minimum luminance: 69 (0.334 cd/m^2)
    Unknown: 0x66 0x45
  Checksum: 0xc9
Checksum: 0x90

----------------

Block 2, Unknown EDID Extension Block 0x00:
  00 ff ff ff ff ff ff 00 06 af b2 0f 00 00 00 00 '................'
  03 22 01 04 a5 1e 13 78 03 57 a5 a8 54 4b 9c 24 '.".....x.W..TK.$'
  0d 50 55 00 00 00 01 01 01 01 01 01 01 01 01 01 '.PU.............'
  01 01 01 01 01 01 0e 3d 80 a4 70 b0 32 40 30 20 '.......=..p.2@0 '
  35 00 2d bc 10 00 00 18 00 00 00 fd 00 28 3c 4b '5.-..........(<K'
  4b 10 01 0a 20 20 20 20 20 20 00 00 00 fe 00 41 'K...      .....A'
  55 4f 0a 20 20 20 20 20 20 20 20 20 00 00 00 fc 'UO.         ....'
  00 42 31 34 30 55 41 4e 30 32 2e 37 20 0a 01 31 '.B140UAN02.7 ..1'
Checksum: 0x31

----------------

Block 3, DisplayID Extension Block:
  Version: 2.0
  Extension Count: 0
  Dynamic Video Timing Range Limits Data Block:
    Minimum Pixel Clock: 156300 kHz
    Maximum Pixel Clock: 156300 kHz
    Minimum Vertical Refresh Rate: 40 Hz
    Maximum Vertical Refresh Rate: 60 Hz
    Seamless Dynamic Video Timing Support: Yes
  CTA-861 DisplayID Data Block:
  Vendor-Specific Data Block (AMD), OUI 00-00-1A:
    Version: 3.1
    Minimum Refresh Rate: 40 Hz
    Maximum Refresh Rate: 60 Hz
    Flags 1.x: 0x00
    Flags 2.x: 0x00
    Maximum luminance: 102 (455.515 cd/m^2)
    Minimum luminance: 69 (0.334 cd/m^2)
    Unknown: 0x66 0x45
  Checksum: 0xc9
Checksum: 0x90

----------------

Failures:

Block 0, Base EDID:
  Display Product Name: One or more trailing spaces.
Block 1, DisplayID Extension Block:
  Expected 0 DisplayID Extension Block, but got 1.
Block 2, Base EDID:
  Unknown Extension Block.
Block 3, DisplayID Extension Block:
  Product Type should be 0 in extension block.
EDID:
  Base EDID: EDID specified 1 extension block(s), but found 3 extension block(s).
  DisplayID: Missing DisplayID Product Identification Data Block.
  DisplayID: Missing DisplayID Display Parameters Data Block.
  DisplayID: Missing DisplayID Display Interface Features Data Block.
  DisplayID: Missing DisplayID Type VII Detailed Timing Data Block.
  DisplayID: DisplayID expects at least one preferred timing.

EDID conformity: FAIL
