
EDID (hex):
00ffffffffffff0012cd80553d000000
2d0b0103681e1778ea046d9c574f9726
1e4c54afee0001010101010101010101
010101010101c31e0020410020301060
130030e41000001e000000fd00384b18
3c08000a202020202020000000fc0043
5335353820534d4152540a20000000ff
00343539333030323634303036310066

Extracted contents:
header:          00 ff ff ff ff ff ff 00
serial number:   12 cd 80 55 3d 00 00 00 2d 0b
version:         01 03
basic params:    68 1e 17 78 ea
chroma info:     04 6d 9c 57 4f 97 26 1e 4c 54
established:     af ee 00
standard:        01 01 01 01 01 01 01 01 01 01 01 01 01 01 01 01
descriptor 1:    c3 1e 00 20 41 00 20 30 10 60 13 00 30 e4 10 00 00 1e
descriptor 2:    00 00 00 fd 00 38 4b 18 3c 08 00 0a 20 20 20 20 20 20
descriptor 3:    00 00 00 fc 00 43 53 35 35 38 20 53 4d 41 52 54 0a 20
descriptor 4:    00 00 00 ff 00 34 35 39 33 30 30 32 36 34 30 30 36 31
extensions:      00
checksum:        66

EDID version: 1.3
Manufacturer: DVM Model 5580 Serial Number --
Analog display, Input voltage level: 0.7/0.7 V
Sync: Separate 
Maximum image size: 30 cm x 23 cm
Gamma: 2.20
DPMS levels: Standby Suspend Off
RGB color display
First detailed timing is preferred timing
Display x,y Chromaticity:
  Red:   0.6093, 0.3398
  Green: 0.3095, 0.5898
  Blue:  0.1494, 0.1191
  White: 0.2998, 0.3291
Established timings supported:
  720x400@70Hz 9:5 HorFreq: 31469 Hz Clock: 28.320 MHz
  640x480@60Hz 4:3 HorFreq: 31469 Hz Clock: 25.175 MHz
  640x480@72Hz 4:3 HorFreq: 37900 Hz Clock: 31.500 MHz
  640x480@75Hz 4:3 HorFreq: 37500 Hz Clock: 31.500 MHz
  800x600@56Hz 4:3 HorFreq: 35200 Hz Clock: 36.000 MHz
  800x600@60Hz 4:3 HorFreq: 37900 Hz Clock: 40.000 MHz
  800x600@72Hz 4:3 HorFreq: 48100 Hz Clock: 50.000 MHz
  800x600@75Hz 4:3 HorFreq: 46900 Hz Clock: 49.500 MHz
  832x624@75Hz 4:3 HorFreq: 49726 Hz Clock: 57.284 MHz
  1024x768@60Hz 4:3 HorFreq: 48400 Hz Clock: 65.000 MHz
  1024x768@70Hz 4:3 HorFreq: 56500 Hz Clock: 75.000 MHz
  1024x768@75Hz 4:3 HorFreq: 60000 Hz Clock: 78.750 MHz
Standard timings supported:
Detailed mode: Clock 78.750 MHz, 304 mm x 228 mm
               1024 1040 1136 1312 hborder 0
                768  769  772  800 vborder 0
               +hsync +vsync 
               VertFreq: 75 Hz, HorFreq: 60022 Hz
Monitor ranges (GTF): 56-75Hz V, 24-60kHz H, max dotclock 80MHz
Monitor name: CS558 SMART
Serial number: --
Checksum: 0x66 (valid)
One or more of the timings is out of range of the Monitor Ranges:
  Vertical Freq: 56 - 75 Hz
  Horizontal Freq: 31469 - 60022 Hz
  Maximum Clock: 78.750 MHz
EDID block does not conform at all!
	Bad year of manufacture
