
EDID (hex):
00ffffffffffff0012e50d17502d3101
0110010368211b78eaeea69e544c9926
194f54afce0001010101010101010101
010101010101c220009851201c304880
3700510e1100001e000000fc004c4d31
3730310a202020202020000000fd0037
4b1e3d0a000a202020202020000000ff
0032303030303038300a20202020009a

Extracted contents:
header:          00 ff ff ff ff ff ff 00
serial number:   12 e5 0d 17 50 2d 31 01 01 10
version:         01 03
basic params:    68 21 1b 78 ea
chroma info:     ee a6 9e 54 4c 99 26 19 4f 54
established:     af ce 00
standard:        01 01 01 01 01 01 01 01 01 01 01 01 01 01 01 01
descriptor 1:    c2 20 00 98 51 20 1c 30 48 80 37 00 51 0e 11 00 00 1e
descriptor 2:    00 00 00 fc 00 4c 4d 31 37 30 31 0a 20 20 20 20 20 20
descriptor 3:    00 00 00 fd 00 37 4b 1e 3d 0a 00 0a 20 20 20 20 20 20
descriptor 4:    00 00 00 ff 00 32 30 30 30 30 30 38 30 0a 20 20 20 20
extensions:      00
checksum:        9a

EDID version: 1.3
Manufacturer: DWE Model 170d Serial Number --
Made in week 1 of 2006
Analog display, Input voltage level: 0.7/0.7 V
Sync: Separate 
Maximum image size: 33 cm x 27 cm
Gamma: 2.20
DPMS levels: Standby Suspend Off
RGB color display
First detailed timing is preferred timing
Display x,y Chromaticity:
  Red:   0.6201, 0.3300
  Green: 0.2998, 0.5996
  Blue:  0.1503, 0.0996
  White: 0.3095, 0.3300
Established timings supported:
  720x400@70Hz 9:5 HorFreq: 31469 Hz Clock: 28.320 MHz
  640x480@60Hz 4:3 HorFreq: 31469 Hz Clock: 25.175 MHz
  640x480@72Hz 4:3 HorFreq: 37900 Hz Clock: 31.500 MHz
  640x480@75Hz 4:3 HorFreq: 37500 Hz Clock: 31.500 MHz
  800x600@56Hz 4:3 HorFreq: 35200 Hz Clock: 36.000 MHz
  800x600@60Hz 4:3 HorFreq: 37900 Hz Clock: 40.000 MHz
  800x600@72Hz 4:3 HorFreq: 48100 Hz Clock: 50.000 MHz
  800x600@75Hz 4:3 HorFreq: 46900 Hz Clock: 49.500 MHz
  1024x768@60Hz 4:3 HorFreq: 48400 Hz Clock: 65.000 MHz
  1024x768@70Hz 4:3 HorFreq: 56500 Hz Clock: 75.000 MHz
  1024x768@75Hz 4:3 HorFreq: 60000 Hz Clock: 78.750 MHz
Standard timings supported:
Detailed mode: Clock 83.860 MHz, 337 mm x 270 mm
               1280 1352 1480 1688 hborder 0
                800  803  810  828 vborder 0
               +hsync +vsync 
               VertFreq: 60 Hz, HorFreq: 49680 Hz
Monitor name: LM1701
Monitor ranges (GTF): 55-75Hz V, 30-61kHz H, max dotclock 100MHz
Serial number: --
Checksum: 0x9a (valid)
