
EDID (hex):
00ffffffffffff004c2d280900000000
2e1401038029178c0ad6c1a357539f27
0b5054bdee0081c00101010101010101
010101010101662156aa51001e30468f
33009ae61000001e6419004041002630
188836009ae610000018000000fd0018
4b1a4417000a202020202020000000fc
00543139423330300a202020202001e6

Extracted contents:
header:          00 ff ff ff ff ff ff 00
serial number:   4c 2d 28 09 00 00 00 00 2e 14
version:         01 03
basic params:    80 29 17 8c 0a
chroma info:     d6 c1 a3 57 53 9f 27 0b 50 54
established:     bd ee 00
standard:        81 c0 01 01 01 01 01 01 01 01 01 01 01 01 01 01
descriptor 1:    66 21 56 aa 51 00 1e 30 46 8f 33 00 9a e6 10 00 00 1e
descriptor 2:    64 19 00 40 41 00 26 30 18 88 36 00 9a e6 10 00 00 18
descriptor 3:    00 00 00 fd 00 18 4b 1a 44 17 00 0a 20 20 20 20 20 20
descriptor 4:    00 00 00 fc 00 54 31 39 42 33 30 30 0a 20 20 20 20 20
extensions:      01
checksum:        e6

EDID version: 1.3
Manufacturer: SAM Model 928 Serial Number --
Made in week 46 of 2010
Digital display
Maximum image size: 41 cm x 23 cm
Gamma: 2.40
RGB color display
First detailed timing is preferred timing
Display x,y Chromaticity:
  Red:   0.6396, 0.3408
  Green: 0.3251, 0.6230
  Blue:  0.1552, 0.0429
  White: 0.3125, 0.3291
Established timings supported:
  720x400@70Hz 9:5 HorFreq: 31469 Hz Clock: 28.320 MHz
  640x480@60Hz 4:3 HorFreq: 31469 Hz Clock: 25.175 MHz
  640x480@67Hz 4:3 HorFreq: 35000 Hz Clock: 30.240 MHz
  640x480@72Hz 4:3 HorFreq: 37900 Hz Clock: 31.500 MHz
  640x480@75Hz 4:3 HorFreq: 37500 Hz Clock: 31.500 MHz
  800x600@60Hz 4:3 HorFreq: 37900 Hz Clock: 40.000 MHz
  800x600@72Hz 4:3 HorFreq: 48100 Hz Clock: 50.000 MHz
  800x600@75Hz 4:3 HorFreq: 46900 Hz Clock: 49.500 MHz
  832x624@75Hz 4:3 HorFreq: 49726 Hz Clock: 57.284 MHz
  1024x768@60Hz 4:3 HorFreq: 48400 Hz Clock: 65.000 MHz
  1024x768@70Hz 4:3 HorFreq: 56500 Hz Clock: 75.000 MHz
  1024x768@75Hz 4:3 HorFreq: 60000 Hz Clock: 78.750 MHz
Standard timings supported:
  1280x720@60Hz 16:9
Detailed mode: Clock 85.500 MHz, 410 mm x 230 mm
               1366 1436 1579 1792 hborder 0
                768  771  774  798 vborder 0
               +hsync +vsync 
               VertFreq: 59 Hz, HorFreq: 47712 Hz
Detailed mode: Clock 65.000 MHz, 410 mm x 230 mm
               1024 1048 1184 1344 hborder 0
                768  771  777  806 vborder 0
               -hsync -vsync 
               VertFreq: 60 Hz, HorFreq: 48363 Hz
Monitor ranges (GTF): 24-75Hz V, 26-68kHz H, max dotclock 230MHz
Monitor name: T19B300
Has 1 extension blocks
Checksum: 0xe6 (valid)


