
EDID (hex):
00ffffffffffff0010ac02f04c594831
1811010468261f78eecaf6a357479e23
114f54a54b714f818001010101010101
010101010101302a009851002a403070
13007c311100001e000000fd00384c1e
510e000a202020202020000000ff0050
523039393736463148594c0a000000fc
0044454c4c20534531393746500a008d

Extracted contents:
header:          00 ff ff ff ff ff ff 00
serial number:   10 ac 02 f0 4c 59 48 31 18 11
version:         01 04
basic params:    68 26 1f 78 ee
chroma info:     ca f6 a3 57 47 9e 23 11 4f 54
established:     a5 4b 71
standard:        4f 81 80 01 01 01 01 01 01 01 01 01 01 01 01 01
descriptor 1:    30 2a 00 98 51 00 2a 40 30 70 13 00 7c 31 11 00 00 1e
descriptor 2:    00 00 00 fd 00 38 4c 1e 51 0e 00 0a 20 20 20 20 20 20
descriptor 3:    00 00 00 ff 00 50 52 30 39 39 37 36 46 31 48 59 4c 0a
descriptor 4:    00 00 00 fc 00 44 45 4c 4c 20 53 45 31 39 37 46 50 0a
extensions:      00
checksum:        8d

EDID version: 1.4
Manufacturer: DEL Model f002 Serial Number --
Made in week 24 of 2007
Analog display, Input voltage level: 0.7/0.7 V
Blank level equals black level
Sync: Separate 
Maximum image size: 38 cm x 31 cm
Gamma: 2.20
DPMS levels: Standby Suspend Off
RGB color display
Default (sRGB) color space is primary color space
First detailed timing includes the native pixel format and preferred refresh rate
Display x,y Chromaticity:
  Red:   0.6396, 0.3398
  Green: 0.2792, 0.6191
  Blue:  0.1396, 0.0693
  White: 0.3095, 0.3300
Established timings supported:
  720x400@70Hz 9:5 HorFreq: 31469 Hz Clock: 28.320 MHz
  640x480@60Hz 4:3 HorFreq: 31469 Hz Clock: 25.175 MHz
  640x480@75Hz 4:3 HorFreq: 37500 Hz Clock: 31.500 MHz
  800x600@60Hz 4:3 HorFreq: 37900 Hz Clock: 40.000 MHz
  800x600@75Hz 4:3 HorFreq: 46900 Hz Clock: 49.500 MHz
  1024x768@60Hz 4:3 HorFreq: 48400 Hz Clock: 65.000 MHz
  1024x768@75Hz 4:3 HorFreq: 60000 Hz Clock: 78.750 MHz
  1280x1024@75Hz 5:4 HorFreq: 80000 Hz Clock: 135.000 MHz
Standard timings supported:
  880x704@61Hz 5:4
  1272x795@61Hz 16:10
Detailed mode: Clock 108.000 MHz, 380 mm x 305 mm
               1280 1328 1440 1688 hborder 0
               1024 1025 1028 1066 vborder 0
               +hsync +vsync 
               VertFreq: 60 Hz, HorFreq: 63981 Hz
Monitor ranges (GTF): 56-76Hz V, 30-81kHz H, max dotclock 140MHz
Serial number: --
Monitor name: DELL SE197FP
Checksum: 0x8d (valid)
EDID block does NOT conform to EDID 1.4!
	sRGB is signaled, but the chromaticities do not match
