
EDID (hex):
00ffffffffffff0030e4ec0200000000
00150104901d107802fae59358568f28
20505400000001010101010101010101
010101010101441b5672500012302020
350025a51000001ad91256a850001230
2020350025a51000001a000000fe0038
4d4a5750803133335748320a00000000
00004101940110000001010a20200069

Extracted contents:
header:          00 ff ff ff ff ff ff 00
serial number:   30 e4 ec 02 00 00 00 00 00 15
version:         01 04
basic params:    90 1d 10 78 02
chroma info:     fa e5 93 58 56 8f 28 20 50 54
established:     00 00 00
standard:        01 01 01 01 01 01 01 01 01 01 01 01 01 01 01 01
descriptor 1:    44 1b 56 72 50 00 12 30 20 20 35 00 25 a5 10 00 00 1a
descriptor 2:    d9 12 56 a8 50 00 12 30 20 20 35 00 25 a5 10 00 00 1a
descriptor 3:    00 00 00 fe 00 38 4d 4a 57 50 80 31 33 33 57 48 32 0a
descriptor 4:    00 00 00 00 00 00 41 01 94 01 10 00 00 01 01 0a 20 20
extensions:      00
checksum:        69

EDID version: 1.4
Manufacturer: LGD Model 2ec Serial Number --
Made in year 2011
Digital display
6 bits per primary color channel
Digital interface is not defined
Maximum image size: 29 cm x 16 cm
Gamma: 2.20
Supported color formats: RGB 4:4:4
First detailed timing includes the native pixel format and preferred refresh rate
Display x,y Chromaticity:
  Red:   0.5771, 0.3466
  Green: 0.3378, 0.5605
  Blue:  0.1591, 0.1269
  White: 0.3134, 0.3291
Established timings supported:
Standard timings supported:
Detailed mode: Clock 69.800 MHz, 293 mm x 165 mm
               1366 1398 1430 1480 hborder 0
                768  771  776  786 vborder 0
               +hsync -vsync 
               VertFreq: 60 Hz, HorFreq: 47162 Hz
Detailed mode: Clock 48.250 MHz, 293 mm x 165 mm
               1366 1398 1430 1534 hborder 0
                768  771  776  786 vborder 0
               +hsync -vsync 
               VertFreq: 40 Hz, HorFreq: 31453 Hz
ASCII string: 8MJWP
Manufacturer-specified data, tag 0
Checksum: 0x69 (valid)
EDID block does NOT conform to EDID 1.4!
	Missing name descriptor
	Missing monitor ranges
	Detailed block string not properly terminated
