edid-decode (hex):

00 ff ff ff ff ff ff 00 36 69 72 24 b1 c8 b8 00
07 14 01 03 80 29 17 78 ea 68 d0 a5 55 48 9a 26
13 50 54 21 4e 00 81 c0 01 01 01 01 01 01 01 01
01 01 01 01 01 01 20 1c 56 86 50 00 20 30 0e 38
13 00 9a e6 10 00 00 1e 00 00 00 ff 00 30 30 30
30 30 31 0a 0a 0a 0a 0a 0a 0a 00 00 00 fd 00 32
4b 1e 55 0c 00 0a 20 20 20 20 20 20 00 00 00 fc
00 4d 53 49 20 41 49 4f 20 50 43 0a 20 20 00 ed

00 ff ff ff ff ff ff 00 36 69 72 24 b1 c8 b8 00
07 14 01 03 80 29 17 78 ea 68 d0 a5 55 48 9a 26
13 50 54 21 4e 00 81 c0 01 01 01 01 01 01 01 01
01 01 01 01 01 01 20 1c 56 86 50 00 20 30 0e 38
13 00 9a e6 10 00 00 1e 00 00 00 ff 00 30 30 30
30 30 31 0a 0a 0a 0a 0a 0a 0a 00 00 00 fd 00 32
4b 1e 55 0c 00 0a 20 20 20 20 20 20 00 00 00 fc
00 4d 53 49 20 41 49 4f 20 50 43 0a 20 20 00 ed

----------------

Block 0, Base EDID:
  EDID Structure Version & Revision: 1.3
  Vendor & Product Identification:
    Manufacturer: MSI
    Model: 9330
    Serial Number: ...
    Made in: week 7 of 2010
  Basic Display Parameters & Features:
    Digital display
    Maximum image size: 41 cm x 23 cm
    Gamma: 2.20
    DPMS levels: Standby Suspend Off
    RGB color display
    First detailed timing is the preferred timing
  Color Characteristics:
    Red  : 0.6455, 0.3339
    Green: 0.2832, 0.6015
    Blue : 0.1513, 0.0751
    White: 0.3125, 0.3281
  Established Timings I & II:
    DMT 0x04:   640x480    59.940476 Hz   4:3     31.469 kHz     25.175000 MHz
    DMT 0x09:   800x600    60.316541 Hz   4:3     37.879 kHz     40.000000 MHz
    DMT 0x0b:   800x600    75.000000 Hz   4:3     46.875 kHz     49.500000 MHz
    DMT 0x10:  1024x768    60.003840 Hz   4:3     48.363 kHz     65.000000 MHz
    DMT 0x11:  1024x768    70.069359 Hz   4:3     56.476 kHz     75.000000 MHz
    DMT 0x12:  1024x768    75.028582 Hz   4:3     60.023 kHz     78.750000 MHz
  Standard Timings:
    DMT 0x55:  1280x720    60.000000 Hz  16:9     45.000 kHz     74.250000 MHz
  Detailed Timing Descriptors:
    DTD 1:  1366x768    60.000000 Hz 683:384   48.000 kHz     72.000000 MHz (410 mm x 230 mm)
                 Hfront   14 Hsync  56 Hback   64 Hpol P
                 Vfront    1 Vsync   3 Vback   28 Vpol P
    Display Product Serial Number: ...
    Display Range Limits:
      Monitor ranges (GTF): 50-75 Hz V, 30-85 kHz H, max dotclock 120 MHz
    Display Product Name: 'MSI AIO PC'
Checksum: 0xed

----------------

Block 1, Unknown EDID Extension Block 0x00:
  00 ff ff ff ff ff ff 00 36 69 72 24 b1 c8 b8 00 '........6ir$....'
  07 14 01 03 80 29 17 78 ea 68 d0 a5 55 48 9a 26 '.....).x.h..UH.&'
  13 50 54 21 4e 00 81 c0 01 01 01 01 01 01 01 01 '.PT!N...........'
  01 01 01 01 01 01 20 1c 56 86 50 00 20 30 0e 38 '...... .V.P. 0.8'
  13 00 9a e6 10 00 00 1e 00 00 00 ff 00 30 30 30 '.............000'
  30 30 31 0a 0a 0a 0a 0a 0a 0a 00 00 00 fd 00 32 '001............2'
  4b 1e 55 0c 00 0a 20 20 20 20 20 20 00 00 00 fc 'K.U...      ....'
  00 4d 53 49 20 41 49 4f 20 50 43 0a 20 20 00 ed '.MSI AIO PC.  ..'
Checksum: 0xed

----------------

Failures:

Block 0, Base EDID:
  Display Product Serial Number: ...
Block 1, Base EDID:
  Unknown Extension Block.
EDID:
  Base EDID: EDID specified 0 extension block(s), but found 1 extension block(s).

EDID conformity: FAIL
