edid-decode (hex):

00 ff ff ff ff ff ff 00 5c 2d 00 29 01 00 00 00
2a 1e 01 04 a5 45 1a 78 3f ee 95 a3 54 4c 99 26
0f 50 54 a7 cb 00 81 c0 81 80 95 00 01 01 b3 00
d1 c0 01 01 01 01 b8 47 00 a0 a0 38 2d 40 30 40
35 00 b2 04 21 00 00 1e e3 59 00 a0 a0 38 30 40
2d 40 35 00 55 50 21 00 00 1e 00 00 00 fd 00 30
64 df df 23 01 0a 20 20 20 20 20 20 00 00 00 fc
00 55 32 39 49 0a 20 20 20 20 20 20 20 20 01 0b

00 ff ff ff ff ff ff 00 5c 2d 00 29 01 00 00 00
2a 1e 01 04 a5 45 1a 78 3f ee 95 a3 54 4c 99 26
0f 50 54 a7 cb 00 81 c0 81 80 95 00 01 01 b3 00
d1 c0 01 01 01 01 b8 47 00 a0 a0 38 2d 40 30 40
35 00 b2 04 21 00 00 1e e3 59 00 a0 a0 38 30 40
2d 40 35 00 55 50 21 00 00 1e 00 00 00 fd 00 30
64 df df 23 01 0a 20 20 20 20 20 20 00 00 00 fc
00 55 32 39 49 0a 20 20 20 20 20 20 20 20 01 0b

00 ff ff ff ff ff ff 00 5c 2d 00 29 01 00 00 00
2a 1e 01 04 a5 45 1a 78 3f ee 95 a3 54 4c 99 26
0f 50 54 a7 cb 00 81 c0 81 80 95 00 01 01 b3 00
d1 c0 01 01 01 01 b8 47 00 a0 a0 38 2d 40 30 40
35 00 b2 04 21 00 00 1e e3 59 00 a0 a0 38 30 40
2d 40 35 00 55 50 21 00 00 1e 00 00 00 fd 00 30
64 df df 23 01 0a 20 20 20 20 20 20 00 00 00 fc
00 55 32 39 49 0a 20 20 20 20 20 20 20 20 01 0b

00 ff ff ff ff ff ff 00 5c 2d 00 29 01 00 00 00
2a 1e 01 04 a5 45 1a 78 3f ee 95 a3 54 4c 99 26
0f 50 54 a7 cb 00 81 c0 81 80 95 00 01 01 b3 00
d1 c0 01 01 01 01 b8 47 00 a0 a0 38 2d 40 30 40
35 00 b2 04 21 00 00 1e e3 59 00 a0 a0 38 30 40
2d 40 35 00 55 50 21 00 00 1e 00 00 00 fd 00 30
64 df df 23 01 0a 20 20 20 20 20 20 00 00 00 fc
00 55 32 39 49 0a 20 20 20 20 20 20 20 20 01 0b

----------------

Block 0, Base EDID:
  EDID Structure Version & Revision: 1.4
  Vendor & Product Identification:
    Manufacturer: WAM
    Model: 10496
    Serial Number: ...
    Made in: week 42 of 2020
  Basic Display Parameters & Features:
    Digital display
    Bits per primary color channel: 8
    DisplayPort interface
    Maximum image size: 69 cm x 26 cm
    Gamma: 2.20
    DPMS levels: Off
    Supported color formats: RGB 4:4:4, YCrCb 4:4:4, YCrCb 4:2:2
    Default (sRGB) color space is primary color space
    First detailed timing includes the native pixel format and preferred refresh rate
    Display is continuous frequency
  Color Characteristics:
    Red  : 0.6396, 0.3300
    Green: 0.2998, 0.5996
    Blue : 0.1503, 0.0595
    White: 0.3134, 0.3291
  Established Timings I & II:
    IBM     :   720x400    70.081663 Hz   9:5     31.467 kHz     28.320000 MHz
    DMT 0x04:   640x480    59.940476 Hz   4:3     31.469 kHz     25.175000 MHz
    DMT 0x06:   640x480    75.000000 Hz   4:3     37.500 kHz     31.500000 MHz
    DMT 0x08:   800x600    56.250000 Hz   4:3     35.156 kHz     36.000000 MHz
    DMT 0x09:   800x600    60.316541 Hz   4:3     37.879 kHz     40.000000 MHz
    DMT 0x0a:   800x600    72.187572 Hz   4:3     48.077 kHz     50.000000 MHz
    DMT 0x0b:   800x600    75.000000 Hz   4:3     46.875 kHz     49.500000 MHz
    DMT 0x10:  1024x768    60.003840 Hz   4:3     48.363 kHz     65.000000 MHz
    DMT 0x12:  1024x768    75.028582 Hz   4:3     60.023 kHz     78.750000 MHz
    DMT 0x24:  1280x1024   75.024675 Hz   5:4     79.976 kHz    135.000000 MHz
  Standard Timings:
    DMT 0x55:  1280x720    60.000000 Hz  16:9     45.000 kHz     74.250000 MHz
    DMT 0x23:  1280x1024   60.019740 Hz   5:4     63.981 kHz    108.000000 MHz
    DMT 0x2f:  1440x900    59.887445 Hz  16:10    55.935 kHz    106.500000 MHz
    DMT 0x3a:  1680x1050   59.954250 Hz  16:10    65.290 kHz    146.250000 MHz
    DMT 0x52:  1920x1080   60.000000 Hz  16:9     67.500 kHz    148.500000 MHz
  Detailed Timing Descriptors:
    DTD 1:  2560x1080   60.000000 Hz  64:27    67.500 kHz    183.600000 MHz (690 mm x 260 mm)
                 Hfront   48 Hsync  64 Hback   48 Hpol P
                 Vfront    3 Vsync   5 Vback   37 Vpol P
    DTD 2:  2560x1080   74.999348 Hz  64:27    84.599 kHz    230.110000 MHz (597 mm x 336 mm)
                 Hfront   45 Hsync  64 Hback   51 Hpol P
                 Vfront    3 Vsync   5 Vback   40 Vpol P
    Display Range Limits:
      Monitor ranges (Bare Limits): 48-100 Hz V, 223-223 kHz H, max dotclock 350 MHz
    Display Product Name: 'U29I'
  Extension blocks: 1
Checksum: 0x0b

----------------

Block 1, Unknown EDID Extension Block 0x00:
  00 ff ff ff ff ff ff 00 5c 2d 00 29 01 00 00 00 '........\-.)....'
  2a 1e 01 04 a5 45 1a 78 3f ee 95 a3 54 4c 99 26 '*....E.x?...TL.&'
  0f 50 54 a7 cb 00 81 c0 81 80 95 00 01 01 b3 00 '.PT.............'
  d1 c0 01 01 01 01 b8 47 00 a0 a0 38 2d 40 30 40 '.......G...8-@0@'
  35 00 b2 04 21 00 00 1e e3 59 00 a0 a0 38 30 40 '5...!....Y...80@'
  2d 40 35 00 55 50 21 00 00 1e 00 00 00 fd 00 30 '-@5.UP!........0'
  64 df df 23 01 0a 20 20 20 20 20 20 00 00 00 fc 'd..#..      ....'
  00 55 32 39 49 0a 20 20 20 20 20 20 20 20 01 0b '.U29I.        ..'
Checksum: 0x0b

----------------

Block 2, Unknown EDID Extension Block 0x00:
  00 ff ff ff ff ff ff 00 5c 2d 00 29 01 00 00 00 '........\-.)....'
  2a 1e 01 04 a5 45 1a 78 3f ee 95 a3 54 4c 99 26 '*....E.x?...TL.&'
  0f 50 54 a7 cb 00 81 c0 81 80 95 00 01 01 b3 00 '.PT.............'
  d1 c0 01 01 01 01 b8 47 00 a0 a0 38 2d 40 30 40 '.......G...8-@0@'
  35 00 b2 04 21 00 00 1e e3 59 00 a0 a0 38 30 40 '5...!....Y...80@'
  2d 40 35 00 55 50 21 00 00 1e 00 00 00 fd 00 30 '-@5.UP!........0'
  64 df df 23 01 0a 20 20 20 20 20 20 00 00 00 fc 'd..#..      ....'
  00 55 32 39 49 0a 20 20 20 20 20 20 20 20 01 0b '.U29I.        ..'
Checksum: 0x0b

----------------

Block 3, Unknown EDID Extension Block 0x00:
  00 ff ff ff ff ff ff 00 5c 2d 00 29 01 00 00 00 '........\-.)....'
  2a 1e 01 04 a5 45 1a 78 3f ee 95 a3 54 4c 99 26 '*....E.x?...TL.&'
  0f 50 54 a7 cb 00 81 c0 81 80 95 00 01 01 b3 00 '.PT.............'
  d1 c0 01 01 01 01 b8 47 00 a0 a0 38 2d 40 30 40 '.......G...8-@0@'
  35 00 b2 04 21 00 00 1e e3 59 00 a0 a0 38 30 40 '5...!....Y...80@'
  2d 40 35 00 55 50 21 00 00 1e 00 00 00 fd 00 30 '-@5.UP!........0'
  64 df df 23 01 0a 20 20 20 20 20 20 00 00 00 fc 'd..#..      ....'
  00 55 32 39 49 0a 20 20 20 20 20 20 20 20 01 0b '.U29I.        ..'
Checksum: 0x0b

----------------

Warnings:

EDID:
  Base EDID: Some timings are out of range of the Monitor Ranges:
    Horizontal Freq: 31.466 - 84.599 kHz (Monitor: 223.000 - 223.000 kHz)

Failures:

Block 0, Base EDID:
  Basic Display Parameters & Features: sRGB is signaled, but the chromaticities do not match.
  Detailed Timing Descriptor #2: Mismatch of image size 597x336 mm vs display size 690x260 mm.
Block 1, Base EDID:
  Unknown Extension Block.
Block 2, Base EDID:
  Unknown Extension Block.
Block 3, Base EDID:
  Unknown Extension Block.
EDID:
  Base EDID: The DTD max image size is 690x336mm, which is larger than the display size 690.0x260.0mm.
  Base EDID: EDID specified 1 extension block(s), but found 3 extension block(s).

EDID conformity: FAIL
