
EDID (hex):
00ffffffffffff0004727602fb713021
0d16010368221378cab8659257588d28
1f505423080081c08100010101010101
010101010101662156aa51001e30468f
330058c21000001e000000fd00374c1f
500e000a202020202020000000fc0050
31363648514c0a2020202020000000ff
004c544a3044303034383530320a0007

Extracted contents:
header:          00 ff ff ff ff ff ff 00
serial number:   04 72 76 02 fb 71 30 21 0d 16
version:         01 03
basic params:    68 22 13 78 ca
chroma info:     b8 65 92 57 58 8d 28 1f 50 54
established:     23 08 00
standard:        81 c0 81 00 01 01 01 01 01 01 01 01 01 01 01 01
descriptor 1:    66 21 56 aa 51 00 1e 30 46 8f 33 00 58 c2 10 00 00 1e
descriptor 2:    00 00 00 fd 00 37 4c 1f 50 0e 00 0a 20 20 20 20 20 20
descriptor 3:    00 00 00 fc 00 50 31 36 36 48 51 4c 0a 20 20 20 20 20
descriptor 4:    00 00 00 ff 00 4c 54 4a 30 44 30 30 34 38 35 30 32 0a
extensions:      00
checksum:        07

EDID version: 1.3
Manufacturer: ACR Model 276 Serial Number --
Made in week 13 of 2012
Analog display, Input voltage level: 0.7/0.7 V
Sync: Separate 
Maximum image size: 34 cm x 19 cm
Gamma: 2.20
DPMS levels: Standby Suspend
RGB color display
First detailed timing is preferred timing
Display x,y Chromaticity:
  Red:   0.5722, 0.3427
  Green: 0.3457, 0.5507
  Blue:  0.1572, 0.1230
  White: 0.3134, 0.3291
Established timings supported:
  640x480@60Hz 4:3 HorFreq: 31469 Hz Clock: 25.175 MHz
  800x600@56Hz 4:3 HorFreq: 35200 Hz Clock: 36.000 MHz
  800x600@60Hz 4:3 HorFreq: 37900 Hz Clock: 40.000 MHz
  1024x768@60Hz 4:3 HorFreq: 48400 Hz Clock: 65.000 MHz
Standard timings supported:
  1280x720@60Hz 16:9
  1280x800@60Hz 16:10
Detailed mode: Clock 85.500 MHz, 344 mm x 194 mm
               1366 1436 1579 1792 hborder 0
                768  771  774  798 vborder 0
               +hsync +vsync 
               VertFreq: 59 Hz, HorFreq: 47712 Hz
Monitor ranges (GTF): 55-76Hz V, 31-80kHz H, max dotclock 140MHz
Monitor name: P166HQL
Serial number: --
Checksum: 0x7 (valid)
