
EDID (hex):
00ffffffffffff0030e4820600000000
3f1e0104a51e137807000f0000000000
004f5600000001010101010101010101
010101010101353c80a070b023403020
36002ebc100000190000000000000000
00000000000000000000000000fe004c
4720446973706c61790a2020000000fe
004c503134305755312d535042310022

Extracted contents:
header:          00 ff ff ff ff ff ff 00
serial number:   30 e4 82 06 00 00 00 00 3f 1e
version:         01 04
basic params:    a5 1e 13 78 07
chroma info:     00 0f 00 00 00 00 00 00 4f 56
established:     00 00 00
standard:        01 01 01 01 01 01 01 01 01 01 01 01 01 01 01 01
descriptor 1:    35 3c 80 a0 70 b0 23 40 30 20 36 00 2e bc 10 00 00 19
descriptor 2:    00 00 00 00 00 00 00 00 00 00 00 00 00 00 00 00 00 00
descriptor 3:    00 00 00 fe 00 4c 47 20 44 69 73 70 6c 61 79 0a 20 20
descriptor 4:    00 00 00 fe 00 4c 50 31 34 30 57 55 31 2d 53 50 42 31
extensions:      00
checksum:        22

EDID version: 1.4
Manufacturer: LGD Model 682 Serial Number --
Digital display
8 bits per primary color channel
DisplayPort interface
Maximum image size: 30 cm x 19 cm
Gamma: 2.20
Supported color formats: RGB 4:4:4
Default (sRGB) color space is primary color space
First detailed timing includes the native pixel format and preferred refresh rate
Display is continuous frequency
Display x,y Chromaticity:
  Red:   0.0000, 0.0000
  Green: 0.0000, 0.0000
  Blue:  0.0000, 0.0000
  White: 0.3115, 0.3388
Established timings supported:
Standard timings supported:
Detailed mode: Clock 154.130 MHz, 302 mm x 188 mm
               1920 1968 2000 2080 hborder 0
               1200 1203 1209 1235 vborder 0
               -hsync -vsync 
               VertFreq: 60 Hz, HorFreq: 74100 Hz
Manufacturer-specified data, tag 0
ASCII string: LG Display
ASCII string: LP140WU1-SPB1
Checksum: 0x22 (valid)
EDID block does NOT conform to EDID 1.4!
	sRGB is signaled, but the chromaticities do not match
	Missing name descriptor
	Missing monitor ranges
EDID block does not conform at all!
	Bad year of manufacture
	Bad week of manufacture
