
EDID (hex):
00ffffffffffff004dd9012601010101
0111010318472878ee000400544c0026
0f50542fcc0031404540614081c0314f
454f31594559201c50a0500016303020
350047280000001a201c00c050003130
40200704432800100d1a000000fd0001
55013908000a202020202020000000fc
00534f4e592054560a20202020200084

Extracted contents:
header:          00 ff ff ff ff ff ff 00
serial number:   4d d9 01 26 01 01 01 01 01 11
version:         01 03
basic params:    18 47 28 78 ee
chroma info:     00 04 00 54 4c 00 26 0f 50 54
established:     2f cc 00
standard:        31 40 45 40 61 40 81 c0 31 4f 45 4f 31 59 45 59
descriptor 1:    20 1c 50 a0 50 00 16 30 30 20 35 00 47 28 00 00 00 1a
descriptor 2:    20 1c 00 c0 50 00 31 30 40 20 07 04 43 28 00 10 0d 1a
descriptor 3:    00 00 00 fd 00 01 55 01 39 08 00 0a 20 20 20 20 20 20
descriptor 4:    00 00 00 fc 00 53 4f 4e 59 20 54 56 0a 20 20 20 20 20
extensions:      00
checksum:        84

EDID version: 1.3
Manufacturer: SNY Model 2601 Serial Number --
Made in week 1 of 2007
Analog display, Input voltage level: 0.7/0.3 V
Configurable signal levels
Sync: Separate 
Maximum image size: 71 cm x 40 cm
Gamma: 2.20
DPMS levels: Standby Suspend Off
RGB color display
Default (sRGB) color space is primary color space
First detailed timing is preferred timing
Display x,y Chromaticity:
  Red:   0.0000, 0.3281
  Green: 0.2968, 0.0000
  Blue:  0.1484, 0.0585
  White: 0.3134, 0.3281
Established timings supported:
  640x480@60Hz 4:3 HorFreq: 31469 Hz Clock: 25.175 MHz
  640x480@72Hz 4:3 HorFreq: 37900 Hz Clock: 31.500 MHz
  640x480@75Hz 4:3 HorFreq: 37500 Hz Clock: 31.500 MHz
  800x600@56Hz 4:3 HorFreq: 35200 Hz Clock: 36.000 MHz
  800x600@60Hz 4:3 HorFreq: 37900 Hz Clock: 40.000 MHz
  800x600@72Hz 4:3 HorFreq: 48100 Hz Clock: 50.000 MHz
  800x600@75Hz 4:3 HorFreq: 46900 Hz Clock: 49.500 MHz
  1024x768@60Hz 4:3 HorFreq: 48400 Hz Clock: 65.000 MHz
  1024x768@70Hz 4:3 HorFreq: 56500 Hz Clock: 75.000 MHz
Standard timings supported:
  640x480@60Hz 4:3 HorFreq: 31469 Hz Clock: 25.175 MHz
  800x600@60Hz 4:3 HorFreq: 37900 Hz Clock: 40.000 MHz
  1024x768@60Hz 4:3 HorFreq: 48400 Hz Clock: 65.000 MHz
  1280x720@60Hz 16:9
  640x480@75Hz 4:3 HorFreq: 37500 Hz Clock: 31.500 MHz
  800x600@75Hz 4:3 HorFreq: 46900 Hz Clock: 49.500 MHz
  640x480@85Hz 4:3 HorFreq: 43300 Hz Clock: 36.000 MHz
  800x600@85Hz 4:3 HorFreq: 53700 Hz Clock: 56.250 MHz
Detailed mode: Clock 72.000 MHz, 71 mm x 40 mm
               1360 1408 1440 1520 hborder 0
                768  771  776  790 vborder 0
               +hsync -vsync 
               VertFreq: 59 Hz, HorFreq: 47368 Hz
Detailed mode: Clock 72.000 MHz, 67 mm x 40 mm
               1280 1344 1376 1472 hborder 16
                768  784  791  817 vborder 13
               +hsync -vsync 
               VertFreq: 59 Hz, HorFreq: 48913 Hz
Monitor ranges (GTF): 1-85Hz V, 1-57kHz H, max dotclock 80MHz
Monitor name: SONY TV
Checksum: 0x84 (valid)
EDID block does NOT conform to EDID 1.3!
	sRGB is signaled, but the chromaticities do not match
