edid-decode (hex):

00 ff ff ff ff ff ff 00 0d af 33 10 00 00 00 00
33 13 01 03 80 16 0c 78 0a 0a c5 92 5a 56 91 27
20 50 54 00 00 00 01 01 01 01 01 01 01 01 01 01
01 01 01 01 01 01 1d 16 00 82 41 58 45 20 6e 4a
7c 00 de 7d 00 00 00 18 00 00 00 fe 00 4e 31 30
31 4c 47 45 2d 4c 31 31 0a 20 00 00 00 fe 00 43
4d 4f 0a 20 20 20 20 20 20 20 20 20 00 00 00 fe
00 4e 31 30 31 4c 47 45 2d 4c 31 31 0a 20 00 25

----------------

Block 0, Base EDID:
  EDID Structure Version & Revision: 1.3
  Vendor & Product Identification:
    Manufacturer: CMO
    Model: 4147
    Made in: week 51 of 2009
  Basic Display Parameters & Features:
    Digital display
    Maximum image size: 22 cm x 12 cm
    Gamma: 2.20
    RGB color display
    First detailed timing is the preferred timing
  Color Characteristics:
    Red  : 0.5703, 0.3515
    Green: 0.3378, 0.5683
    Blue : 0.1552, 0.1250
    White: 0.3134, 0.3291
  Established Timings I & II: none
  Standard Timings: none
  Detailed Timing Descriptors:
    DTD 1:  1024x600    60.013358 Hz 128:75    40.149 kHz     56.610000 MHz (222 mm x 125 mm)
                 Hfront  110 Hsync  74 Hback  202 Hpol N
                 Vfront    7 Vsync  12 Vback   50 Vpol N
    Alphanumeric Data String: 'N101LGE-L11'
    Alphanumeric Data String: 'CMO'
    Alphanumeric Data String: 'N101LGE-L11'
Checksum: 0x25

----------------

Failures:

Block 0, Base EDID:
  Missing Display Product Name.
  Missing Display Range Limits Descriptor.

EDID conformity: FAIL
