
EDID (hex):
00ffffffffffff0009e5ca0a00000000
231f0104a522157803db25a5554b9925
0f505400000001010101010101010101
0101010101016d5600c8a04046603020
360058d710000018000000fd00305a96
9629010a202020202020000000fe0042
4f452043510a202020202020000000fe
004e4531363051444d2d4e36340a01ff
70137900000301140ba20085ff09c700
2f001f003f0645000200050000000000
00000000000000000000000000000000
00000000000000000000000000000000
00000000000000000000000000000000
00000000000000000000000000000000
00000000000000000000000000000000
00000000000000000000000000007c90

Extracted contents:
header:          00 ff ff ff ff ff ff 00
serial number:   09 e5 ca 0a 00 00 00 00 23 1f
version:         01 04
basic params:    a5 22 15 78 03
chroma info:     db 25 a5 55 4b 99 25 0f 50 54
established:     00 00 00
standard:        01 01 01 01 01 01 01 01 01 01 01 01 01 01 01 01
descriptor 1:    6d 56 00 c8 a0 40 46 60 30 20 36 00 58 d7 10 00 00 18
descriptor 2:    00 00 00 fd 00 30 5a 96 96 29 01 0a 20 20 20 20 20 20
descriptor 3:    00 00 00 fe 00 42 4f 45 20 43 51 0a 20 20 20 20 20 20
descriptor 4:    00 00 00 fe 00 4e 45 31 36 30 51 44 4d 2d 4e 36 34 0a
extensions:      01
checksum:        ff

EDID version: 1.4
Manufacturer: BOE Model aca Serial Number --
Made in week 35 of 2021
Digital display
8 bits per primary color channel
DisplayPort interface
Maximum image size: 34 cm x 21 cm
Gamma: 2.20
Supported color formats: RGB 4:4:4
First detailed timing includes the native pixel format and preferred refresh rate
Display is continuous frequency
Display x,y Chromaticity:
  Red:   0.6474, 0.3330
  Green: 0.2949, 0.6005
  Blue:  0.1445, 0.0605
  White: 0.3134, 0.3291
Established timings supported:
Standard timings supported:
Detailed mode: Clock 221.250 MHz, 344 mm x 215 mm
               2560 2608 2640 2760 hborder 0
               1600 1603 1609 1670 vborder 0
               -hsync -vsync 
               VertFreq: 48 Hz, HorFreq: 80163 Hz
Monitor ranges (bare limits): 48-90Hz V, 150-150kHz H, max dotclock 410MHz
ASCII string: BOE CQ
ASCII string: NE160QDM-N64
Has 1 extension blocks
Checksum: 0xff (valid)

DisplayID extension block
Extension version: 19
Length 121, version 19, extension count 0
Checksum: 0x7c (valid)
Type 1 detailed timing: aspect: 16:10, Preferred  
Detailed mode: Clock 414.830 MHz, 0 mm x 0 mm
               2559 2606 2637 2758
               1599 1601 1606 1668
               -hsync -vsync

EDID block does NOT conform to EDID 1.4!
	Missing name descriptor
Warning: One or more of the timings is out of range of the Monitor Ranges:
  Vertical Freq: 48 - 48 Hz
  Horizontal Freq: 80163 - 80163 Hz
  Maximum Clock: 221.250 MHz
EDID block does not conform at all!
	Has 16777216 nonconformant extension block(s)
