
EDID (hex):
00ffffffffffff0010ac042001010101
331b0104a529177822ebc5a25754a027
0c5054a54b0001010101010101010101
010101010101662156aa51001e30468f
33009ae61000001e000000ff00334343
343937434b31585a450a000000fc0044
31393138480a202020202020000000fd
00384b1e5309000a20202020202000fb

Extracted contents:
header:          00 ff ff ff ff ff ff 00
serial number:   10 ac 04 20 01 01 01 01 33 1b
version:         01 04
basic params:    a5 29 17 78 22
chroma info:     eb c5 a2 57 54 a0 27 0c 50 54
established:     a5 4b 00
standard:        01 01 01 01 01 01 01 01 01 01 01 01 01 01 01 01
descriptor 1:    66 21 56 aa 51 00 1e 30 46 8f 33 00 9a e6 10 00 00 1e
descriptor 2:    00 00 00 ff 00 33 43 43 34 39 37 43 4b 31 58 5a 45 0a
descriptor 3:    00 00 00 fc 00 44 31 39 31 38 48 0a 20 20 20 20 20 20
descriptor 4:    00 00 00 fd 00 38 4b 1e 53 09 00 0a 20 20 20 20 20 20
extensions:      00
checksum:        fb

EDID version: 1.4
Manufacturer: DEL Model 2004 Serial Number --
Made in week 51 of 2017
Digital display
8 bits per primary color channel
DisplayPort interface
Maximum image size: 41 cm x 23 cm
Gamma: 2.20
DPMS levels: Off
Supported color formats: RGB 4:4:4
First detailed timing includes the native pixel format and preferred refresh rate
Display x,y Chromaticity:
  Red:   0.6357, 0.3417
  Green: 0.3300, 0.6279
  Blue:  0.1552, 0.0468
  White: 0.3134, 0.3291
Established timings supported:
  720x400@70Hz 9:5 HorFreq: 31469 Hz Clock: 28.320 MHz
  640x480@60Hz 4:3 HorFreq: 31469 Hz Clock: 25.175 MHz
  640x480@75Hz 4:3 HorFreq: 37500 Hz Clock: 31.500 MHz
  800x600@60Hz 4:3 HorFreq: 37900 Hz Clock: 40.000 MHz
  800x600@75Hz 4:3 HorFreq: 46900 Hz Clock: 49.500 MHz
  1024x768@60Hz 4:3 HorFreq: 48400 Hz Clock: 65.000 MHz
  1024x768@75Hz 4:3 HorFreq: 60000 Hz Clock: 78.750 MHz
  1280x1024@75Hz 5:4 HorFreq: 80000 Hz Clock: 135.000 MHz
Standard timings supported:
Detailed mode: Clock 85.500 MHz, 410 mm x 230 mm
               1366 1436 1579 1792 hborder 0
                768  771  774  798 vborder 0
               +hsync +vsync 
               VertFreq: 59 Hz, HorFreq: 47712 Hz
Serial number: --
Monitor name: D1918H
Monitor ranges (GTF): 56-75Hz V, 30-83kHz H, max dotclock 90MHz
Checksum: 0xfb (valid)
Warning: One or more of the timings is out of range of the Monitor Ranges:
  Vertical Freq: 59 - 75 Hz
  Horizontal Freq: 31469 - 80000 Hz
  Maximum Clock: 135.000 MHz
