
EDID (hex):
00ffffffffffff000e140a1400000000
1c110103802115780a092d9d564f9027
21505400000001010101010101010101
010101010101ea1a0080502010301520
13004bcf100000190000000f00000000
0000000000206e050f00000000fe0046
443136333031353457423420000000fe
002d4050597da9c8ff010120202000ad

Extracted contents:
header:          00 ff ff ff ff ff ff 00
serial number:   0e 14 0a 14 00 00 00 00 1c 11
version:         01 03
basic params:    80 21 15 78 0a
chroma info:     09 2d 9d 56 4f 90 27 21 50 54
established:     00 00 00
standard:        01 01 01 01 01 01 01 01 01 01 01 01 01 01 01 01
descriptor 1:    ea 1a 00 80 50 20 10 30 15 20 13 00 4b cf 10 00 00 19
descriptor 2:    00 00 00 0f 00 00 00 00 00 00 00 00 00 20 6e 05 0f 00
descriptor 3:    00 00 00 fe 00 46 44 31 36 33 30 31 35 34 57 42 34 20
descriptor 4:    00 00 00 fe 00 2d 40 50 59 7d a9 c8 ff 01 01 20 20 20
extensions:      00
checksum:        ad

EDID version: 1.3
Manufacturer: CPT Model 140a Serial Number --
Made in week 28 of 2007
Digital display
Maximum image size: 33 cm x 21 cm
Gamma: 2.20
RGB color display
First detailed timing is preferred timing
Display x,y Chromaticity:
  Red:   0.6132, 0.3359
  Green: 0.3105, 0.5634
  Blue:  0.1523, 0.1308
  White: 0.3154, 0.3291
Established timings supported:
Standard timings supported:
Detailed mode: Clock 68.900 MHz, 331 mm x 207 mm
               1280 1301 1333 1408 hborder 0
                800  801  804  816 vborder 0
               -hsync -vsync 
               VertFreq: 59 Hz, HorFreq: 48934 Hz
Manufacturer-specified data, tag 15
ASCII string: FD1630154WB4 
ASCII string: -@PY}
Checksum: 0xad (valid)
EDID block does NOT conform to EDID 1.3!
	Missing name descriptor
	Missing monitor ranges
	Detailed block string not properly terminated
