
EDID (hex):
00ffffffffffff0030e44a0300000000
00150104952313780a51759659569028
1e505400000001010101010101010101
010101010101ce1d56f4500016303020
350059c21000001bdf1356f450001630
3020350059c21000001b000000000000
00000000000000000000000000000002
000c4cff0a3c641214226400000000c7

Extracted contents:
header:          00 ff ff ff ff ff ff 00
serial number:   30 e4 4a 03 00 00 00 00 00 15
version:         01 04
basic params:    95 23 13 78 0a
chroma info:     51 75 96 59 56 90 28 1e 50 54
established:     00 00 00
standard:        01 01 01 01 01 01 01 01 01 01 01 01 01 01 01 01
descriptor 1:    ce 1d 56 f4 50 00 16 30 30 20 35 00 59 c2 10 00 00 1b
descriptor 2:    df 13 56 f4 50 00 16 30 30 20 35 00 59 c2 10 00 00 1b
descriptor 3:    00 00 00 00 00 00 00 00 00 00 00 00 00 00 00 00 00 00
descriptor 4:    00 00 00 02 00 0c 4c ff 0a 3c 64 12 14 22 64 00 00 00
extensions:      00
checksum:        c7

EDID version: 1.4
Manufacturer: LGD Model 34a Serial Number --
Made in year 2011
Digital display
6 bits per primary color channel
DisplayPort interface
Maximum image size: 35 cm x 19 cm
Gamma: 2.20
Supported color formats: RGB 4:4:4, YCrCb 4:4:4
First detailed timing includes the native pixel format and preferred refresh rate
Display x,y Chromaticity:
  Red:   0.5869, 0.3486
  Green: 0.3359, 0.5634
  Blue:  0.1572, 0.1201
  White: 0.3134, 0.3291
Established timings supported:
Standard timings supported:
Detailed mode: Clock 76.300 MHz, 345 mm x 194 mm
               1366 1414 1446 1610 hborder 0
                768  771  776  790 vborder 0
               +hsync -vsync 
               VertFreq: 59 Hz, HorFreq: 47391 Hz
Detailed mode: Clock 50.870 MHz, 345 mm x 194 mm
               1366 1414 1446 1610 hborder 0
                768  771  776  790 vborder 0
               +hsync -vsync 
               VertFreq: 39 Hz, HorFreq: 31596 Hz
Manufacturer-specified data, tag 0
Manufacturer-specified data, tag 2
Checksum: 0xc7 (valid)
EDID block does NOT conform to EDID 1.4!
	Missing name descriptor
	Missing monitor ranges
