
EDID (hex):
00ffffffffffff0006afa36000000000
331f0104a522167803e235a754499d25
0f505400000001010101010101010101
010101010101f49e00c8c08094706c30
aa0058d710000018f86900c8c0809470
6c30aa0058d710000018000000000000
00000000000000000000000000000002
000c2dff103cc8300e2cc8202020009a

Extracted contents:
header:          00 ff ff ff ff ff ff 00
serial number:   06 af a3 60 00 00 00 00 33 1f
version:         01 04
basic params:    a5 22 16 78 03
chroma info:     e2 35 a7 54 49 9d 25 0f 50 54
established:     00 00 00
standard:        01 01 01 01 01 01 01 01 01 01 01 01 01 01 01 01
descriptor 1:    f4 9e 00 c8 c0 80 94 70 6c 30 aa 00 58 d7 10 00 00 18
descriptor 2:    f8 69 00 c8 c0 80 94 70 6c 30 aa 00 58 d7 10 00 00 18
descriptor 3:    00 00 00 00 00 00 00 00 00 00 00 00 00 00 00 00 00 00
descriptor 4:    00 00 00 02 00 0c 2d ff 10 3c c8 30 0e 2c c8 20 20 20
extensions:      00
checksum:        9a

EDID version: 1.4
Manufacturer: AUO Model 60a3 Serial Number --
Made in week 51 of 2021
Digital display
8 bits per primary color channel
DisplayPort interface
Maximum image size: 34 cm x 22 cm
Gamma: 2.20
Supported color formats: RGB 4:4:4
First detailed timing includes the native pixel format and preferred refresh rate
Display is continuous frequency
Display x,y Chromaticity:
  Red:   0.6552, 0.3300
  Green: 0.2851, 0.6152
  Blue:  0.1445, 0.0615
  White: 0.3134, 0.3291
Established timings supported:
Standard timings supported:
Detailed mode: Clock 406.920 MHz, 344 mm x 215 mm
               3072 3180 3228 3272 hborder 0
               1920 1930 1940 2068 vborder 0
               -hsync -vsync 
               VertFreq: 60 Hz, HorFreq: 124364 Hz
Detailed mode: Clock 271.280 MHz, 344 mm x 215 mm
               3072 3180 3228 3272 hborder 0
               1920 1930 1940 2068 vborder 0
               -hsync -vsync 
               VertFreq: 40 Hz, HorFreq: 82909 Hz
Manufacturer-specified data, tag 0
Manufacturer-specified data, tag 2
Checksum: 0x9a (valid)
EDID block does NOT conform to EDID 1.4!
	Missing name descriptor
	Missing monitor ranges
