edid-decode (hex):

00 ff ff ff ff ff ff 00 40 32 44 14 00 00 00 00
29 13 01 04 a5 1f 11 78 0a 96 a5 9e 57 52 99 29
15 50 54 00 00 00 01 01 01 01 01 01 01 01 01 01
01 01 01 01 01 01 7e 1d 56 c2 50 00 26 30 1f 41
4c 00 58 c1 10 00 00 1a 00 00 00 10 00 00 26 30
1f 41 4c 00 58 c1 10 00 00 1a 00 00 00 fc 00 50
41 52 31 33 36 36 58 37 36 38 0a 20 00 00 00 fe
00 4e 31 34 30 42 36 2d 4c 31 32 0a 20 20 00 a5

----------------

Block 0, Base EDID:
  EDID Structure Version & Revision: 1.4
  Vendor & Product Identification:
    Manufacturer: PAR
    Model: 5188
    Made in: week 41 of 2009
  Basic Display Parameters & Features:
    Digital display
    Bits per primary color channel: 8
    DisplayPort interface
    Maximum image size: 31 cm x 17 cm
    Gamma: 2.20
    Supported color formats: RGB 4:4:4, YCrCb 4:4:4
    First detailed timing includes the native pixel format and preferred refresh rate
  Color Characteristics:
    Red  : 0.6191, 0.3408
    Green: 0.3212, 0.5996
    Blue : 0.1621, 0.0839
    White: 0.3134, 0.3291
  Established Timings I & II: none
  Standard Timings: none
  Detailed Timing Descriptors:
    DTD 1:  1366x768    60.046 Hz 683:384  48.397 kHz  75.500 MHz (344 mm x 193 mm)
                 Hfront   31 Hsync  65 Hback  98 Hpol P
                 Vfront    4 Vsync  12 Vback  22 Vpol N
    Dummy Descriptor:
    Display Product Name: 'PAR1366X768'
    Alphanumeric Data String: 'N140B6-L12'
Checksum: 0xa5
