
EDID (hex):
00ffffffffffff002034802300000000
0b1e010380341f783babb0ab5047a322
115054a54b00d1cfa9c09500950f8100
818081c06140565e00a0a0a029503020
350008362100001a023a801871382d40
3020350008362100001a000000100000
000000000000000000000000000000fc
004b616d7661732050726f2032340175
020320014910040302011f1312118301
000065030c00100067d85dc401000000
0000001000100a202020202020202020
20200000001000100a20202020202020
202020200000001000100a2020202020
20202020202000000000000000000000
00000000000000000000000000000000
0000000000000000000000000000001b

Extracted contents:
header:          00 ff ff ff ff ff ff 00
serial number:   20 34 80 23 00 00 00 00 0b 1e
version:         01 03
basic params:    80 34 1f 78 3b
chroma info:     ab b0 ab 50 47 a3 22 11 50 54
established:     a5 4b 00
standard:        d1 cf a9 c0 95 00 95 0f 81 00 81 80 81 c0 61 40
descriptor 1:    56 5e 00 a0 a0 a0 29 50 30 20 35 00 08 36 21 00 00 1a
descriptor 2:    02 3a 80 18 71 38 2d 40 30 20 35 00 08 36 21 00 00 1a
descriptor 3:    00 00 00 10 00 00 00 00 00 00 00 00 00 00 00 00 00 00
descriptor 4:    00 00 00 fc 00 4b 61 6d 76 61 73 20 50 72 6f 20 32 34
extensions:      01
checksum:        75

EDID version: 1.3
Manufacturer: HAT Model 2380 Serial Number --
Made in week 11 of 2020
Digital display
Maximum image size: 52 cm x 31 cm
Gamma: 2.20
DPMS levels: Off
Undefined display color type
First detailed timing is preferred timing
Supports GTF timings within operating range
Display x,y Chromaticity:
  Red:   0.6699, 0.3144
  Green: 0.2792, 0.6396
  Blue:  0.1347, 0.0693
  White: 0.3125, 0.3281
Established timings supported:
  720x400@70Hz 9:5 HorFreq: 31469 Hz Clock: 28.320 MHz
  640x480@60Hz 4:3 HorFreq: 31469 Hz Clock: 25.175 MHz
  640x480@75Hz 4:3 HorFreq: 37500 Hz Clock: 31.500 MHz
  800x600@60Hz 4:3 HorFreq: 37900 Hz Clock: 40.000 MHz
  800x600@75Hz 4:3 HorFreq: 46900 Hz Clock: 49.500 MHz
  1024x768@60Hz 4:3 HorFreq: 48400 Hz Clock: 65.000 MHz
  1024x768@75Hz 4:3 HorFreq: 60000 Hz Clock: 78.750 MHz
  1280x1024@75Hz 5:4 HorFreq: 80000 Hz Clock: 135.000 MHz
Standard timings supported:
  1920x1080@75Hz 16:9
  1600x900@60Hz 16:9
  1440x900@60Hz 16:10 HorFreq: 55500 Hz Clock: 88.750 MHz
  1440x900@75Hz 16:10 HorFreq: 82300 Hz Clock: 156.000 MHz
  1280x800@60Hz 16:10
  1280x1024@60Hz 5:4 HorFreq: 64000 Hz Clock: 108.000 MHz
  1280x720@60Hz 16:9
  1024x768@60Hz 4:3 HorFreq: 48400 Hz Clock: 65.000 MHz
Detailed mode: Clock 241.500 MHz, 520 mm x 310 mm
               2560 2608 2640 2720 hborder 0
               1440 1443 1448 1481 vborder 0
               +hsync -vsync 
               VertFreq: 59 Hz, HorFreq: 88786 Hz
Detailed mode: Clock 148.500 MHz, 520 mm x 310 mm
               1920 1968 2000 2200 hborder 0
               1080 1083 1088 1125 vborder 0
               +hsync -vsync 
               VertFreq: 60 Hz, HorFreq: 67500 Hz
Dummy block
Has 1 extension blocks
Checksum: 0x75 (valid)

CTA extension block
Extension version: 3
28 bytes of CTA data
  Video data block
    VIC  16 1920x1080@60Hz 16:9  HorFreq: 67500 Hz Clock: 148.500 MHz
    VIC   4 1280x720@60Hz 16:9  HorFreq: 45000 Hz Clock: 74.250 MHz
    VIC   3 720x480@60Hz 16:9  HorFreq: 31469 Hz Clock: 27.000 MHz
    VIC   2 720x480@60Hz 4:3  HorFreq: 31469 Hz Clock: 27.000 MHz
    VIC   1 640x480@60Hz 4:3  HorFreq: 31469 Hz Clock: 25.175 MHz
    VIC  31 1920x1080@50Hz 16:9  HorFreq: 56250 Hz Clock: 148.500 MHz
    VIC  19 1280x720@50Hz 16:9  HorFreq: 37500 Hz Clock: 74.250 MHz
    VIC  18 720x576@50Hz 16:9  HorFreq: 31250 Hz Clock: 27.000 MHz
    VIC  17 720x576@50Hz 4:3  HorFreq: 31250 Hz Clock: 27.000 MHz
  Speaker allocation data block
    Speaker map:
      FL/FR - Front Left/Right
  Vendor-specific data block, OUI 000c03 (HDMI)
    Source physical address 1.0.0.0
  Vendor-specific data block, OUI c45dd8 (HDMI Forum)
    Version: 1
1 native detailed modes
Checksum: 0x1b (valid)

EDID block does NOT conform to EDID 1.3!
	Name descriptor not terminated with a newline
	Missing monitor ranges
