
EDID (hex):
00ffffffffffff00047220019a399102
1d14010380341d78eade95a3544c9926
0f5054bb8c10b300714f810095008180
81c0d1c001011a3680a070381f403020
250009252100001f000000fd00384b1f
5412000a202020202020000000ff004c
4b363043303133343033320a000000fc
0047323335480a2020202020202000e6

Extracted contents:
header:          00 ff ff ff ff ff ff 00
serial number:   04 72 20 01 9a 39 91 02 1d 14
version:         01 03
basic params:    80 34 1d 78 ea
chroma info:     de 95 a3 54 4c 99 26 0f 50 54
established:     bb 8c 10
standard:        b3 00 71 4f 81 00 95 00 81 80 81 c0 d1 c0 01 01
descriptor 1:    1a 36 80 a0 70 38 1f 40 30 20 25 00 09 25 21 00 00 1f
descriptor 2:    00 00 00 fd 00 38 4b 1f 54 12 00 0a 20 20 20 20 20 20
descriptor 3:    00 00 00 ff 00 4c 4b 36 30 43 30 31 33 34 30 33 32 0a
descriptor 4:    00 00 00 fc 00 47 32 33 35 48 0a 20 20 20 20 20 20 20
extensions:      00
checksum:        e6

EDID version: 1.3
Manufacturer: ACR Model 120 Serial Number --
Made in week 29 of 2010
Digital display
Maximum image size: 52 cm x 29 cm
Gamma: 2.20
DPMS levels: Standby Suspend Off
RGB color display
First detailed timing is preferred timing
Display x,y Chromaticity:
  Red:   0.6396, 0.3291
  Green: 0.2998, 0.5996
  Blue:  0.1503, 0.0595
  White: 0.3134, 0.3291
Established timings supported:
  720x400@70Hz 9:5 HorFreq: 31469 Hz Clock: 28.320 MHz
  640x480@60Hz 4:3 HorFreq: 31469 Hz Clock: 25.175 MHz
  640x480@67Hz 4:3 HorFreq: 35000 Hz Clock: 30.240 MHz
  640x480@72Hz 4:3 HorFreq: 37900 Hz Clock: 31.500 MHz
  800x600@56Hz 4:3 HorFreq: 35200 Hz Clock: 36.000 MHz
  800x600@60Hz 4:3 HorFreq: 37900 Hz Clock: 40.000 MHz
  800x600@72Hz 4:3 HorFreq: 48100 Hz Clock: 50.000 MHz
  1024x768@60Hz 4:3 HorFreq: 48400 Hz Clock: 65.000 MHz
  1024x768@70Hz 4:3 HorFreq: 56500 Hz Clock: 75.000 MHz
Standard timings supported:
  1680x1050@60Hz 16:10 HorFreq: 64700 Hz Clock: 119.000 MHz
  1152x864@75Hz 4:3 HorFreq: 67500 Hz Clock: 108.000 MHz
  1280x800@60Hz 16:10
  1440x900@60Hz 16:10 HorFreq: 55500 Hz Clock: 88.750 MHz
  1280x1024@60Hz 5:4 HorFreq: 64000 Hz Clock: 108.000 MHz
  1280x720@60Hz 16:9
  1920x1080@60Hz 16:9
Detailed mode: Clock 138.500 MHz, 521 mm x 293 mm
               1920 1968 2000 2080 hborder 0
               1080 1082 1087 1111 vborder 0
               +hsync +vsync 
               VertFreq: 59 Hz, HorFreq: 66586 Hz
Monitor ranges (GTF): 56-75Hz V, 31-84kHz H, max dotclock 180MHz
Serial number: --
Monitor name: G235H
Checksum: 0xe6 (valid)
