
EDID (hex):
00ffffffffffff0006af9f3400000000
2b1f0104a5261578030f15ae5243b025
0f505400000001010101010101010101
01010101010166d000a0f0703e803020
35007dd610000018ef8a00a0f0703e80
302035007dd610000018000000000000
00000000000000000000000000000002
000c2dff103cc8d71b58c820202001e9
7020790200220014fb230884ff0e9f00
2f801f006f083d0002000400250009fb
2308fb2308283c80810010721a000003
01283c0000605060503c000000000000
00000000000000000000000000000000
00000000000000000000000000000000
00000000000000000000000000000000
0000000000000000000000000000d290

Extracted contents:
header:          00 ff ff ff ff ff ff 00
serial number:   06 af 9f 34 00 00 00 00 2b 1f
version:         01 04
basic params:    a5 26 15 78 03
chroma info:     0f 15 ae 52 43 b0 25 0f 50 54
established:     00 00 00
standard:        01 01 01 01 01 01 01 01 01 01 01 01 01 01 01 01
descriptor 1:    66 d0 00 a0 f0 70 3e 80 30 20 35 00 7d d6 10 00 00 18
descriptor 2:    ef 8a 00 a0 f0 70 3e 80 30 20 35 00 7d d6 10 00 00 18
descriptor 3:    00 00 00 00 00 00 00 00 00 00 00 00 00 00 00 00 00 00
descriptor 4:    00 00 00 02 00 0c 2d ff 10 3c c8 d7 1b 58 c8 20 20 20
extensions:      01
checksum:        e9

EDID version: 1.4
Manufacturer: AUO Model 349f Serial Number --
Made in week 43 of 2021
Digital display
8 bits per primary color channel
DisplayPort interface
Maximum image size: 38 cm x 21 cm
Gamma: 2.20
Supported color formats: RGB 4:4:4
First detailed timing includes the native pixel format and preferred refresh rate
Display is continuous frequency
Display x,y Chromaticity:
  Red:   0.6796, 0.3203
  Green: 0.2646, 0.6904
  Blue:  0.1445, 0.0595
  White: 0.3134, 0.3291
Established timings supported:
Standard timings supported:
Detailed mode: Clock 533.500 MHz, 381 mm x 214 mm
               3840 3888 3920 4000 hborder 0
               2160 2163 2168 2222 vborder 0
               -hsync -vsync 
               VertFreq: 60 Hz, HorFreq: 133375 Hz
Detailed mode: Clock 355.670 MHz, 381 mm x 214 mm
               3840 3888 3920 4000 hborder 0
               2160 2163 2168 2222 vborder 0
               -hsync -vsync 
               VertFreq: 40 Hz, HorFreq: 88917 Hz
Manufacturer-specified data, tag 0
Manufacturer-specified data, tag 2
Has 1 extension blocks
Checksum: 0xe9 (valid)

DisplayID extension block
Extension version: 32
Length 121, version 32, extension count 0
Checksum: 0xd2 (valid)
Unknown displayid data block 0x22
Unknown displayid data block 0x25
Unknown displayid data block 0x81

EDID block does NOT conform to EDID 1.4!
	Missing name descriptor
	Missing monitor ranges
EDID block does not conform at all!
	Has 385875968 nonconformant extension block(s)
