edid-decode (hex):

00 ff ff ff ff ff ff 00 09 d1 39 76 a1 00 00 00
0b 0c 01 03 68 1f 17 78 ea ef e3 99 58 4f 8f 26
23 50 56 af ce 00 01 01 01 01 01 01 01 01 01 01
01 01 01 01 01 01 64 19 00 40 41 00 26 30 18 88
36 00 30 e4 10 00 00 18 d5 09 80 a0 20 5e 63 10
10 60 52 08 30 e4 10 00 00 1a 00 00 00 fd 00 30
30 31 36 31 0a 20 20 20 20 20 20 20 00 00 00 fc
00 42 65 6e 71 20 46 50 35 35 33 0a 20 20 00 49

00 ff ff ff ff ff ff 00 09 d1 39 76 a1 00 00 00
0b 0c 01 03 68 1f 17 78 ea ef e3 99 58 4f 8f 26
23 50 56 af ce 00 01 01 01 01 01 01 01 01 01 01
01 01 01 01 01 01 64 19 00 40 41 00 26 30 18 88
36 00 30 e4 10 00 00 18 d5 09 80 a0 20 5e 63 10
10 60 52 08 30 e4 10 00 00 1a 00 00 00 fd 00 30
30 31 36 31 0a 20 20 20 20 20 20 20 00 00 00 fc
00 42 65 6e 71 20 46 50 35 35 33 0a 20 20 00 49

----------------

Block 0, Base EDID:
  EDID Structure Version & Revision: 1.3
  Vendor & Product Identification:
    Manufacturer: BNQ
    Model: 30265
    Serial Number: ...
    Made in: week 11 of 2002
  Basic Display Parameters & Features:
    Analog display
    Signal Level Standard: 0.700 : 0.000 : 0.700 V p-p
    Blank level equals black level
    Sync: Separate
    Maximum image size: 31 cm x 23 cm
    Gamma: 2.20
    DPMS levels: Standby Suspend Off
    RGB color display
    First detailed timing is the preferred timing
  Color Characteristics:
    Red  : 0.6005, 0.3457
    Green: 0.3115, 0.5615
    Blue : 0.1513, 0.1386
    White: 0.3125, 0.3388
  Established Timings I & II:
    IBM     :   720x400    70.081663 Hz   9:5     31.467 kHz     28.320000 MHz
    DMT 0x04:   640x480    59.940476 Hz   4:3     31.469 kHz     25.175000 MHz
    DMT 0x05:   640x480    72.808802 Hz   4:3     37.861 kHz     31.500000 MHz
    DMT 0x06:   640x480    75.000000 Hz   4:3     37.500 kHz     31.500000 MHz
    DMT 0x08:   800x600    56.250000 Hz   4:3     35.156 kHz     36.000000 MHz
    DMT 0x09:   800x600    60.316541 Hz   4:3     37.879 kHz     40.000000 MHz
    DMT 0x0a:   800x600    72.187572 Hz   4:3     48.077 kHz     50.000000 MHz
    DMT 0x0b:   800x600    75.000000 Hz   4:3     46.875 kHz     49.500000 MHz
    DMT 0x10:  1024x768    60.003840 Hz   4:3     48.363 kHz     65.000000 MHz
    DMT 0x11:  1024x768    70.069359 Hz   4:3     56.476 kHz     75.000000 MHz
    DMT 0x12:  1024x768    75.028582 Hz   4:3     60.023 kHz     78.750000 MHz
  Standard Timings: none
  Detailed Timing Descriptors:
    DTD 1:  1024x768    60.003840 Hz   4:3     48.363 kHz     65.000000 MHz (304 mm x 228 mm)
                 Hfront   24 Hsync 136 Hback  160 Hpol N
                 Vfront    3 Vsync   6 Vback   29 Vpol N
    DTD 2:   640x350    70.072383 Hz  64:35    31.462 kHz     25.170000 MHz (304 mm x 228 mm)
                 Hfront   16 Hsync  96 Hback   48 Hpol P
                 Vfront   37 Vsync   2 Vback   60 Vpol N
    Display Range Limits:
      Monitor ranges (Unknown (0x0a)): 48-48 Hz V, 49-54 kHz H, max dotclock 490 MHz
    Display Product Name: 'Benq FP553'
Checksum: 0x49

----------------

Block 1, Unknown EDID Extension Block 0x00:
  00 ff ff ff ff ff ff 00 09 d1 39 76 a1 00 00 00 '..........9v....'
  0b 0c 01 03 68 1f 17 78 ea ef e3 99 58 4f 8f 26 '....h..x....XO.&'
  23 50 56 af ce 00 01 01 01 01 01 01 01 01 01 01 '#PV.............'
  01 01 01 01 01 01 64 19 00 40 41 00 26 30 18 88 '......d..@A.&0..'
  36 00 30 e4 10 00 00 18 d5 09 80 a0 20 5e 63 10 '6.0......... ^c.'
  10 60 52 08 30 e4 10 00 00 1a 00 00 00 fd 00 30 '.`R.0..........0'
  30 31 36 31 0a 20 20 20 20 20 20 20 00 00 00 fc '0161.       ....'
  00 42 65 6e 71 20 46 50 35 35 33 0a 20 20 00 49 '.Benq FP553.  .I'
Checksum: 0x49

----------------

Failures:

Block 0, Base EDID:
  Display Range Limits: Unknown range class (0x0a).
  Display Range Limits: Byte 11 is 0x20 instead of 0x0a.
Block 1, Base EDID:
  Unknown Extension Block.
EDID:
  Base EDID: Some timings are out of range of the Monitor Ranges:
    Vertical Freq: 56.250 - 75.029 Hz (Monitor: 48.000 - 48.000 Hz)
    Horizontal Freq: 31.462 - 60.022 kHz (Monitor: 49.000 - 54.000 kHz)
  Base EDID: EDID specified 0 extension block(s), but found 1 extension block(s).

EDID conformity: FAIL
