edid-decode (hex):

00 ff ff ff ff ff ff 00 49 f7 81 1d 00 00 00 00
19 0d 01 03 68 00 00 ff e8 bb b9 a3 52 46 98 24
0f 48 4c 2d ce 00 01 01 01 01 01 01 01 01 01 01
01 01 01 01 01 01 64 19 00 40 41 00 26 30 18 88
36 00 67 1f 11 00 00 18 00 00 00 fd 00 3a 4b 1e
41 0b 00 0a 20 20 20 20 20 20 00 00 00 fc 00 4d
31 35 30 0a 20 20 20 20 20 20 20 20 00 00 00 ff
00 48 31 31 31 37 30 31 38 33 30 0a 20 20 00 c7

00 ff ff ff ff ff ff 00 49 f7 81 1d 00 00 00 00
19 0d 01 03 68 00 00 ff e8 bb b9 a3 52 46 98 24
0f 48 4c 2d ce 00 01 01 01 01 01 01 01 01 01 01
01 01 01 01 01 01 64 19 00 40 41 00 26 30 18 88
36 00 67 1f 11 00 00 18 00 00 00 fd 00 3a 4b 1e
41 0b 00 0a 20 20 20 20 20 20 00 00 00 fc 00 4d
31 35 30 0a 20 20 20 20 20 20 20 20 00 00 00 ff
00 48 31 31 31 37 30 31 38 33 30 0a 20 20 00 c7

----------------

Block 0, Base EDID:
  EDID Structure Version & Revision: 1.3
  Vendor & Product Identification:
    Manufacturer: ROW
    Model: 7553
    Made in: week 25 of 2003
  Basic Display Parameters & Features:
    Analog display
    Signal Level Standard: 0.700 : 0.000 : 0.700 V p-p
    Blank level equals black level
    Sync: Separate
    Image size is variable
    Gamma is defined in an extension block
    DPMS levels: Standby Suspend Off
    RGB color display
  Color Characteristics:
    Red  : 0.6386, 0.3232
    Green: 0.2753, 0.5966
    Blue : 0.1425, 0.0615
    White: 0.2832, 0.2978
  Established Timings I & II:
    DMT 0x04:   640x480    59.940476 Hz   4:3     31.469 kHz     25.175000 MHz
    DMT 0x05:   640x480    72.808802 Hz   4:3     37.861 kHz     31.500000 MHz
    DMT 0x06:   640x480    75.000000 Hz   4:3     37.500 kHz     31.500000 MHz
    DMT 0x09:   800x600    60.316541 Hz   4:3     37.879 kHz     40.000000 MHz
    DMT 0x0a:   800x600    72.187572 Hz   4:3     48.077 kHz     50.000000 MHz
    DMT 0x0b:   800x600    75.000000 Hz   4:3     46.875 kHz     49.500000 MHz
    DMT 0x10:  1024x768    60.003840 Hz   4:3     48.363 kHz     65.000000 MHz
    DMT 0x11:  1024x768    70.069359 Hz   4:3     56.476 kHz     75.000000 MHz
    DMT 0x12:  1024x768    75.028582 Hz   4:3     60.023 kHz     78.750000 MHz
  Standard Timings: none
  Detailed Timing Descriptors:
    DTD 1:  1024x768    60.003840 Hz   4:3     48.363 kHz     65.000000 MHz (359 mm x 287 mm)
                 Hfront   24 Hsync 136 Hback  160 Hpol N
                 Vfront    3 Vsync   6 Vback   29 Vpol N
    Display Range Limits:
      Monitor ranges (GTF): 58-75 Hz V, 30-65 kHz H, max dotclock 110 MHz
    Display Product Name: 'M150'
    Display Product Serial Number: ...
Checksum: 0xc7

----------------

Block 1, Unknown EDID Extension Block 0x00:
  00 ff ff ff ff ff ff 00 49 f7 81 1d 00 00 00 00 '........I.......'
  19 0d 01 03 68 00 00 ff e8 bb b9 a3 52 46 98 24 '....h.......RF.$'
  0f 48 4c 2d ce 00 01 01 01 01 01 01 01 01 01 01 '.HL-............'
  01 01 01 01 01 01 64 19 00 40 41 00 26 30 18 88 '......d..@A.&0..'
  36 00 67 1f 11 00 00 18 00 00 00 fd 00 3a 4b 1e '6.g..........:K.'
  41 0b 00 0a 20 20 20 20 20 20 00 00 00 fc 00 4d 'A...      .....M'
  31 35 30 0a 20 20 20 20 20 20 20 20 00 00 00 ff '150.        ....'
  00 48 31 31 31 37 30 31 38 33 30 0a 20 20 00 c7 '.H111701830.  ..'
Checksum: 0xc7

----------------

Failures:

Block 0, Base EDID:
  Basic Display Parameters & Features: EDID 1.3 requires that the first detailed timing is the preferred timing.
Block 1, Base EDID:
  Unknown Extension Block.
EDID:
  Base EDID: The DTD max image size is 359x287mm, but the display size is not specified anywhere.
  Base EDID: EDID specified 0 extension block(s), but found 1 extension block(s).

EDID conformity: FAIL
