
EDID (hex):
00ffffffffffff0049f7019001000000
211701037f472878efb191a354459725
10494aafce0001010101010101010101
010101010101982156aa51001e30468f
330000000000001e662150b051001b30
4070360000000000001e201c56865000
20300e38130000000000001ea91a00a0
500016303020370000000000001a00cb

Extracted contents:
header:          00 ff ff ff ff ff ff 00
serial number:   49 f7 01 90 01 00 00 00 21 17
version:         01 03
basic params:    7f 47 28 78 ef
chroma info:     b1 91 a3 54 45 97 25 10 49 4a
established:     af ce 00
standard:        01 01 01 01 01 01 01 01 01 01 01 01 01 01 01 01
descriptor 1:    98 21 56 aa 51 00 1e 30 46 8f 33 00 00 00 00 00 00 1e
descriptor 2:    66 21 50 b0 51 00 1b 30 40 70 36 00 00 00 00 00 00 1e
descriptor 3:    20 1c 56 86 50 00 20 30 0e 38 13 00 00 00 00 00 00 1e
descriptor 4:    a9 1a 00 a0 50 00 16 30 30 20 37 00 00 00 00 00 00 1a
extensions:      00
checksum:        cb

EDID version: 1.3
Manufacturer: ROW Model 9001 Serial Number --
Made in week 33 of 2013
Analog display, Input voltage level: 0.7/0.7 V
Configurable signal levels
Sync: Separate Composite SyncOnGreen Serration 
Maximum image size: 71 cm x 40 cm
Gamma: 2.20
DPMS levels: Standby Suspend Off
RGB color display
Default (sRGB) color space is primary color space
First detailed timing is preferred timing
Supports GTF timings within operating range
Display x,y Chromaticity:
  Red:   0.6386, 0.3310
  Green: 0.2695, 0.5908
  Blue:  0.1464, 0.0634
  White: 0.2851, 0.2900
Established timings supported:
  720x400@70Hz 9:5 HorFreq: 31469 Hz Clock: 28.320 MHz
  640x480@60Hz 4:3 HorFreq: 31469 Hz Clock: 25.175 MHz
  640x480@72Hz 4:3 HorFreq: 37900 Hz Clock: 31.500 MHz
  640x480@75Hz 4:3 HorFreq: 37500 Hz Clock: 31.500 MHz
  800x600@56Hz 4:3 HorFreq: 35200 Hz Clock: 36.000 MHz
  800x600@60Hz 4:3 HorFreq: 37900 Hz Clock: 40.000 MHz
  800x600@72Hz 4:3 HorFreq: 48100 Hz Clock: 50.000 MHz
  800x600@75Hz 4:3 HorFreq: 46900 Hz Clock: 49.500 MHz
  1024x768@60Hz 4:3 HorFreq: 48400 Hz Clock: 65.000 MHz
  1024x768@70Hz 4:3 HorFreq: 56500 Hz Clock: 75.000 MHz
  1024x768@75Hz 4:3 HorFreq: 60000 Hz Clock: 78.750 MHz
Standard timings supported:
Detailed mode: Clock 86.000 MHz, 0 mm x 0 mm
               1366 1436 1579 1792 hborder 0
                768  771  774  798 vborder 0
               +hsync +vsync 
               VertFreq: 60 Hz, HorFreq: 47991 Hz
Detailed mode: Clock 85.500 MHz, 0 mm x 0 mm
               1360 1424 1536 1792 hborder 0
                768  771  777  795 vborder 0
               +hsync +vsync 
               VertFreq: 60 Hz, HorFreq: 47712 Hz
Detailed mode: Clock 72.000 MHz, 0 mm x 0 mm
               1366 1380 1436 1500 hborder 0
                768  769  772  800 vborder 0
               +hsync +vsync 
               VertFreq: 60 Hz, HorFreq: 48000 Hz
Detailed mode: Clock 68.250 MHz, 0 mm x 0 mm
               1280 1328 1360 1440 hborder 0
                768  771  778  790 vborder 0
               +hsync -vsync 
               VertFreq: 59 Hz, HorFreq: 47395 Hz
Checksum: 0xcb (valid)
EDID block does NOT conform to EDID 1.3!
	sRGB is signaled, but the chromaticities do not match
	Missing name descriptor
	Missing monitor ranges
