
EDID (hex):
00ffffffffffff003064405530323834
15100103801d12780a19189d554a8d26
204d5500000001010101010101010101
0101010101019e20009051201f304880
36001fb4100000180000000f00000000
00000000000000000000000000fe0054
4d444953504c41590a202020000000fe
004c54443133334b5832530a202000a3

Extracted contents:
header:          00 ff ff ff ff ff ff 00
serial number:   30 64 40 55 30 32 38 34 15 10
version:         01 03
basic params:    80 1d 12 78 0a
chroma info:     19 18 9d 55 4a 8d 26 20 4d 55
established:     00 00 00
standard:        01 01 01 01 01 01 01 01 01 01 01 01 01 01 01 01
descriptor 1:    9e 20 00 90 51 20 1f 30 48 80 36 00 1f b4 10 00 00 18
descriptor 2:    00 00 00 0f 00 00 00 00 00 00 00 00 00 00 00 00 00 00
descriptor 3:    00 00 00 fe 00 54 4d 44 49 53 50 4c 41 59 0a 20 20 20
descriptor 4:    00 00 00 fe 00 4c 54 44 31 33 33 4b 58 32 53 0a 20 20
extensions:      00
checksum:        a3

EDID version: 1.3
Manufacturer: LCD Model 5540 Serial Number --
Made in week 21 of 2006
Digital display
Maximum image size: 29 cm x 18 cm
Gamma: 2.20
RGB color display
First detailed timing is preferred timing
Display x,y Chromaticity:
  Red:   0.6132, 0.3330
  Green: 0.2910, 0.5517
  Blue:  0.1484, 0.1259
  White: 0.3027, 0.3320
Established timings supported:
Standard timings supported:
Detailed mode: Clock 83.500 MHz, 287 mm x 180 mm
               1280 1352 1480 1680 hborder 0
                800  803  809  831 vborder 0
               -hsync -vsync 
               VertFreq: 59 Hz, HorFreq: 49702 Hz
Manufacturer-specified data, tag 15
ASCII string: TMDISPLAY
ASCII string: LTD133KX2S
Checksum: 0xa3 (valid)
EDID block does NOT conform to EDID 1.3!
	Missing name descriptor
	Missing monitor ranges
