
EDID (hex):
00ffffffffffff003064405500000000
1411010280190eff0a7fee9b5b528c25
254d5600000001010101010101010101
010101010101461e562a51000830406a
1600f68b000000180000000f00048804
88010201029195030400000000fe0054
4d444953504c41590a202020000000fe
004c5444313131455844410a202000a7

Extracted contents:
header:          00 ff ff ff ff ff ff 00
serial number:   30 64 40 55 00 00 00 00 14 11
version:         01 02
basic params:    80 19 0e ff 0a
chroma info:     7f ee 9b 5b 52 8c 25 25 4d 56
established:     00 00 00
standard:        01 01 01 01 01 01 01 01 01 01 01 01 01 01 01 01
descriptor 1:    46 1e 56 2a 51 00 08 30 40 6a 16 00 f6 8b 00 00 00 18
descriptor 2:    00 00 00 0f 00 04 88 04 88 01 02 01 02 91 95 03 04 00
descriptor 3:    00 00 00 fe 00 54 4d 44 49 53 50 4c 41 59 0a 20 20 20
descriptor 4:    00 00 00 fe 00 4c 54 44 31 31 31 45 58 44 41 0a 20 20
extensions:      00
checksum:        a7

EDID version: 1.2
Manufacturer: LCD Model 5540 Serial Number --
Made in week 20 of 2007
Digital display
Maximum image size: 25 cm x 14 cm
Gamma: 1.0
RGB color display
First detailed timing is preferred timing
Display x,y Chromaticity:
  Red:   0.6064, 0.3583
  Green: 0.3232, 0.5498
  Blue:  0.1474, 0.1464
  White: 0.3037, 0.3378
Established timings supported:
Standard timings supported:
Detailed mode: Clock 77.500 MHz, 246 mm x 139 mm
               1366 1430 1536 1664 hborder 0
                768  769  775  776 vborder 0
               -hsync -vsync 
               VertFreq: 60 Hz, HorFreq: 46574 Hz
Manufacturer-specified data, tag 15
ASCII string: TMDISPLAY
ASCII string: LTD111EXDA
Checksum: 0xa7 (valid)
