
EDID (hex):
00ffffffffffff003438350876220000
090f0103803a207888000d0000000000
00474abdce00315945596159818081c0
d1c001010101ff1d56ea500020304628
55004044210000188c0ad08a20e02d10
103e9600404421000018000000fd003c
551f450b000a202020202020000000fc
004d582d323658330a20202020200071

Extracted contents:
header:          00 ff ff ff ff ff ff 00
serial number:   34 38 35 08 76 22 00 00 09 0f
version:         01 03
basic params:    80 3a 20 78 88
chroma info:     00 0d 00 00 00 00 00 00 47 4a
established:     bd ce 00
standard:        31 59 45 59 61 59 81 80 81 c0 d1 c0 01 01 01 01
descriptor 1:    ff 1d 56 ea 50 00 20 30 46 28 55 00 40 44 21 00 00 18
descriptor 2:    8c 0a d0 8a 20 e0 2d 10 10 3e 96 00 40 44 21 00 00 18
descriptor 3:    00 00 00 fd 00 3c 55 1f 45 0b 00 0a 20 20 20 20 20 20
descriptor 4:    00 00 00 fc 00 4d 58 2d 32 36 58 33 0a 20 20 20 20 20
extensions:      00
checksum:        71

EDID version: 1.3
Manufacturer: MAX Model 835 Serial Number --
Digital display
Maximum image size: 58 cm x 32 cm
Gamma: 2.20
DPMS levels: Standby
RGB color display
Display x,y Chromaticity:
  Red:   0.0000, 0.0000
  Green: 0.0000, 0.0000
  Blue:  0.0000, 0.0000
  White: 0.2802, 0.2900
Established timings supported:
  720x400@70Hz 9:5 HorFreq: 31469 Hz Clock: 28.320 MHz
  640x480@60Hz 4:3 HorFreq: 31469 Hz Clock: 25.175 MHz
  640x480@67Hz 4:3 HorFreq: 35000 Hz Clock: 30.240 MHz
  640x480@72Hz 4:3 HorFreq: 37900 Hz Clock: 31.500 MHz
  640x480@75Hz 4:3 HorFreq: 37500 Hz Clock: 31.500 MHz
  800x600@60Hz 4:3 HorFreq: 37900 Hz Clock: 40.000 MHz
  800x600@72Hz 4:3 HorFreq: 48100 Hz Clock: 50.000 MHz
  800x600@75Hz 4:3 HorFreq: 46900 Hz Clock: 49.500 MHz
  1024x768@60Hz 4:3 HorFreq: 48400 Hz Clock: 65.000 MHz
  1024x768@70Hz 4:3 HorFreq: 56500 Hz Clock: 75.000 MHz
  1024x768@75Hz 4:3 HorFreq: 60000 Hz Clock: 78.750 MHz
Standard timings supported:
  640x480@85Hz 4:3 HorFreq: 43300 Hz Clock: 36.000 MHz
  800x600@85Hz 4:3 HorFreq: 53700 Hz Clock: 56.250 MHz
  1024x768@85Hz 4:3 HorFreq: 68700 Hz Clock: 94.500 MHz
  1280x1024@60Hz 5:4 HorFreq: 64000 Hz Clock: 108.000 MHz
  1280x720@60Hz 16:9
  1920x1080@60Hz 16:9
Detailed mode: Clock 76.790 MHz, 576 mm x 324 mm
               1366 1436 1476 1600 hborder 0
                768  773  778  800 vborder 0
               -hsync -vsync 
               VertFreq: 59 Hz, HorFreq: 47993 Hz
Detailed mode: Clock 27.000 MHz, 576 mm x 324 mm
                720  736  798  858 hborder 0
                480  489  495  525 vborder 0
               -hsync -vsync 
               VertFreq: 59 Hz, HorFreq: 31468 Hz
Monitor ranges (GTF): 60-85Hz V, 31-69kHz H, max dotclock 110MHz
Monitor name: MX-26X3
Checksum: 0x71 (valid)
EDID block does NOT conform to EDID 1.3!
	Missing preferred timing
One or more of the timings is out of range of the Monitor Ranges:
  Vertical Freq: 59 - 85 Hz
  Horizontal Freq: 31468 - 68700 Hz
  Maximum Clock: 108.000 MHz
EDID block does not conform at all!
	Bad year of manufacture


