
EDID (hex):
00ffffffffffff006a4e020302000000
2511010380321e000a9203a256489925
144a4d21080001010101010101010101
010101010101662150b051001b304070
3600c58f2100001e8c0ad08a20e02d10
103e9600f41911000018000000fc005a
4f52414e204d41545249580a000000fd
003b3d0f2e0f000a20202020202001c8

Extracted contents:
header:          00 ff ff ff ff ff ff 00
serial number:   6a 4e 02 03 02 00 00 00 25 11
version:         01 03
basic params:    80 32 1e 00 0a
chroma info:     92 03 a2 56 48 99 25 14 4a 4d
established:     21 08 00
standard:        01 01 01 01 01 01 01 01 01 01 01 01 01 01 01 01
descriptor 1:    66 21 50 b0 51 00 1b 30 40 70 36 00 c5 8f 21 00 00 1e
descriptor 2:    8c 0a d0 8a 20 e0 2d 10 10 3e 96 00 f4 19 11 00 00 18
descriptor 3:    00 00 00 fc 00 5a 4f 52 41 4e 20 4d 41 54 52 49 58 0a
descriptor 4:    00 00 00 fd 00 3b 3d 0f 2e 0f 00 0a 20 20 20 20 20 20
extensions:      01
checksum:        c8

EDID version: 1.3
Manufacturer: ZRN Model 302 Serial Number --
Made in week 37 of 2007
Digital display
Maximum image size: 50 cm x 30 cm
Gamma: 1.00
RGB color display
First detailed timing is preferred timing
Display x,y Chromaticity:
  Red:   0.6347, 0.3369
  Green: 0.2812, 0.5996
  Blue:  0.1445, 0.0781
  White: 0.2890, 0.3037
Established timings supported:
  640x480@60Hz 4:3 HorFreq: 31469 Hz Clock: 25.175 MHz
  800x600@60Hz 4:3 HorFreq: 37900 Hz Clock: 40.000 MHz
  1024x768@60Hz 4:3 HorFreq: 48400 Hz Clock: 65.000 MHz
Standard timings supported:
Detailed mode: Clock 85.500 MHz, 709 mm x 399 mm
               1360 1424 1536 1792 hborder 0
                768  771  777  795 vborder 0
               +hsync +vsync 
               VertFreq: 60 Hz, HorFreq: 47712 Hz
Detailed mode: Clock 27.000 MHz, 500 mm x 281 mm
                720  736  798  858 hborder 0
                480  489  495  525 vborder 0
               -hsync -vsync 
               VertFreq: 59 Hz, HorFreq: 31468 Hz
Monitor name: ZORAN MATRIX
Monitor ranges (GTF): 59-61Hz V, 15-46kHz H, max dotclock 150MHz
Has 1 extension blocks
Checksum: 0xc8 (valid)
One or more of the timings is out of range of the Monitor Ranges:
  Vertical Freq: 59 - 60 Hz
  Horizontal Freq: 31468 - 48400 Hz
  Maximum Clock: 85.500 MHz


