edid-decode (hex):

00 ff ff ff ff ff ff 00 0d ae c8 13 00 00 00 00
0e 20 01 04 a5 1d 12 78 03 28 65 97 59 54 8e 27
1e 50 54 00 00 00 01 01 01 01 01 01 01 01 01 01
01 01 01 01 01 01 42 3c 80 a0 70 b0 24 40 30 20
a6 00 1e b2 10 00 00 1a 00 00 00 fd 00 30 3c 4a
4a 0f 01 0a 20 20 20 20 20 20 00 00 00 fe 00 39
59 50 57 48 80 31 33 33 4a 43 41 0a 00 00 00 00
00 01 41 01 99 00 00 00 00 0a 01 0a 20 20 00 0e

00 ff ff ff ff ff ff 00 0d ae c8 13 00 00 00 00
0e 20 01 04 a5 1d 12 78 03 28 65 97 59 54 8e 27
1e 50 54 00 00 00 01 01 01 01 01 01 01 01 01 01
01 01 01 01 01 01 42 3c 80 a0 70 b0 24 40 30 20
a6 00 1e b2 10 00 00 1a 00 00 00 fd 00 30 3c 4a
4a 0f 01 0a 20 20 20 20 20 20 00 00 00 fe 00 39
59 50 57 48 80 31 33 33 4a 43 41 0a 00 00 00 00
00 01 41 01 99 00 00 00 00 0a 01 0a 20 20 00 0e

----------------

Block 0, Base EDID:
  EDID Structure Version & Revision: 1.4
  Vendor & Product Identification:
    Manufacturer: CMN
    Model: 5064
    Made in: week 14 of 2022
  Basic Display Parameters & Features:
    Digital display
    Bits per primary color channel: 8
    DisplayPort interface
    Maximum image size: 29 cm x 18 cm
    Gamma: 2.20
    Supported color formats: RGB 4:4:4
    First detailed timing includes the native pixel format and preferred refresh rate
    Display is continuous frequency
  Color Characteristics:
    Red  : 0.5898, 0.3496
    Green: 0.3300, 0.5546
    Blue : 0.1533, 0.1191
    White: 0.3134, 0.3291
  Established Timings I & II: none
  Standard Timings: none
  Detailed Timing Descriptors:
    DTD 1:  1920x1200   60.002801 Hz  16:10    74.163 kHz    154.260000 MHz (286 mm x 178 mm)
                 Hfront   48 Hsync  32 Hback   80 Hpol P
                 Vfront   10 Vsync   6 Vback   20 Vpol N
    Display Range Limits:
      Monitor ranges (Bare Limits): 48-60 Hz V, 74-74 kHz H, max dotclock 150 MHz
    Alphanumeric Data String: '9YPWH'
    Manufacturer-Specified Display Descriptor (0x00): 00 00 00 01 41 01 99 00 00 00 00 0a 01 0a 20 20 '....A.........  '
Checksum: 0x0e

----------------

Block 1, Unknown EDID Extension Block 0x00:
  00 ff ff ff ff ff ff 00 0d ae c8 13 00 00 00 00 '................'
  0e 20 01 04 a5 1d 12 78 03 28 65 97 59 54 8e 27 '. .....x.(e.YT.''
  1e 50 54 00 00 00 01 01 01 01 01 01 01 01 01 01 '.PT.............'
  01 01 01 01 01 01 42 3c 80 a0 70 b0 24 40 30 20 '......B<..p.$@0 '
  a6 00 1e b2 10 00 00 1a 00 00 00 fd 00 30 3c 4a '.............0<J'
  4a 0f 01 0a 20 20 20 20 20 20 00 00 00 fe 00 39 'J...      .....9'
  59 50 57 48 80 31 33 33 4a 43 41 0a 00 00 00 00 'YPWH.133JCA.....'
  00 01 41 01 99 00 00 00 00 0a 01 0a 20 20 00 0e '..A.........  ..'
Checksum: 0x0e

----------------

Warnings:

Block 0, Base EDID:
  Missing Display Product Name.
EDID:
  Base EDID: Some timings are out of range of the Monitor Ranges:
    Maximum Clock: 154.260 MHz (Monitor: 150.000 MHz)
    Could be due to a Monitor Range off-by-one rounding issue

Failures:

Block 0, Base EDID:
  Alphanumeric Data String: Non-printable character.
Block 1, Base EDID:
  Unknown Extension Block.
EDID:
  Base EDID: EDID specified 0 extension block(s), but found 1 extension block(s).

EDID conformity: FAIL
