
EDID (hex):
00ffffffffffff000daec81300000000
131f0104a51d12780328659759548e27
1e505400000001010101010101010101
010101010101423c80a070b024402e1e
a6001eb210000018000000fd00283c4a
4a10010a202020202020000000fe0043
4d4e0a202020202020202020000000fe
004e3133334a43412d45454b0a2000d3

Extracted contents:
header:          00 ff ff ff ff ff ff 00
serial number:   0d ae c8 13 00 00 00 00 13 1f
version:         01 04
basic params:    a5 1d 12 78 03
chroma info:     28 65 97 59 54 8e 27 1e 50 54
established:     00 00 00
standard:        01 01 01 01 01 01 01 01 01 01 01 01 01 01 01 01
descriptor 1:    42 3c 80 a0 70 b0 24 40 2e 1e a6 00 1e b2 10 00 00 18
descriptor 2:    00 00 00 fd 00 28 3c 4a 4a 10 01 0a 20 20 20 20 20 20
descriptor 3:    00 00 00 fe 00 43 4d 4e 0a 20 20 20 20 20 20 20 20 20
descriptor 4:    00 00 00 fe 00 4e 31 33 33 4a 43 41 2d 45 45 4b 0a 20
extensions:      00
checksum:        d3

EDID version: 1.4
Manufacturer: CMN Model 13c8 Serial Number --
Made in week 19 of 2021
Digital display
8 bits per primary color channel
DisplayPort interface
Maximum image size: 29 cm x 18 cm
Gamma: 2.20
Supported color formats: RGB 4:4:4
First detailed timing includes the native pixel format and preferred refresh rate
Display is continuous frequency
Display x,y Chromaticity:
  Red:   0.5898, 0.3496
  Green: 0.3300, 0.5546
  Blue:  0.1533, 0.1191
  White: 0.3134, 0.3291
Established timings supported:
Standard timings supported:
Detailed mode: Clock 154.260 MHz, 286 mm x 178 mm
               1920 1966 1996 2080 hborder 0
               1200 1210 1216 1236 vborder 0
               -hsync -vsync 
               VertFreq: 60 Hz, HorFreq: 74163 Hz
Monitor ranges (bare limits): 40-60Hz V, 74-74kHz H, max dotclock 160MHz
ASCII string: CMN
ASCII string: N133JCA-EEK
Checksum: 0xd3 (valid)
EDID block does NOT conform to EDID 1.4!
	Missing name descriptor
Warning: One or more of the timings is out of range of the Monitor Ranges:
  Vertical Freq: 60 - 60 Hz
  Horizontal Freq: 74163 - 74163 Hz
  Maximum Clock: 154.260 MHz
