
EDID (hex):
00ffffffffffff00158f1717bf240000
251601036e221b78ea6b9ca15a4e9b22
154f54a74b0081800101010101010101
010101010101302a009851002a403070
1300520e1100001e000000fc00455431
3731374c0a2020202020000000fd0038
4b1f50aa000a202020202020000000fe
00303030303030303030303030310023

Extracted contents:
header:          00 ff ff ff ff ff ff 00
serial number:   15 8f 17 17 bf 24 00 00 25 16
version:         01 03
basic params:    6e 22 1b 78 ea
chroma info:     6b 9c a1 5a 4e 9b 22 15 4f 54
established:     a7 4b 00
standard:        81 80 01 01 01 01 01 01 01 01 01 01 01 01 01 01
descriptor 1:    30 2a 00 98 51 00 2a 40 30 70 13 00 52 0e 11 00 00 1e
descriptor 2:    00 00 00 fc 00 45 54 31 37 31 37 4c 0a 20 20 20 20 20
descriptor 3:    00 00 00 fd 00 38 4b 1f 50 aa 00 0a 20 20 20 20 20 20
descriptor 4:    00 00 00 fe 00 30 30 30 30 30 30 30 30 30 30 30 30 31
extensions:      00
checksum:        23

EDID version: 1.3
Manufacturer: ELO Model 1717 Serial Number --
Made in week 37 of 2012
Analog display, Input voltage level: 0.7/0.7 V
Sync: Separate Composite SyncOnGreen 
Maximum image size: 34 cm x 27 cm
Gamma: 2.20
DPMS levels: Standby Suspend Off
RGB color display
First detailed timing is preferred timing
Display x,y Chromaticity:
  Red:   0.6298, 0.3535
  Green: 0.3066, 0.6083
  Blue:  0.1347, 0.0830
  White: 0.3115, 0.3281
Established timings supported:
  720x400@70Hz 9:5 HorFreq: 31469 Hz Clock: 28.320 MHz
  640x480@60Hz 4:3 HorFreq: 31469 Hz Clock: 25.175 MHz
  640x480@75Hz 4:3 HorFreq: 37500 Hz Clock: 31.500 MHz
  800x600@56Hz 4:3 HorFreq: 35200 Hz Clock: 36.000 MHz
  800x600@60Hz 4:3 HorFreq: 37900 Hz Clock: 40.000 MHz
  800x600@75Hz 4:3 HorFreq: 46900 Hz Clock: 49.500 MHz
  1024x768@60Hz 4:3 HorFreq: 48400 Hz Clock: 65.000 MHz
  1024x768@75Hz 4:3 HorFreq: 60000 Hz Clock: 78.750 MHz
  1280x1024@75Hz 5:4 HorFreq: 80000 Hz Clock: 135.000 MHz
Standard timings supported:
  1280x1024@60Hz 5:4 HorFreq: 64000 Hz Clock: 108.000 MHz
Detailed mode: Clock 108.000 MHz, 338 mm x 270 mm
               1280 1328 1440 1688 hborder 0
               1024 1025 1028 1066 vborder 0
               +hsync +vsync 
               VertFreq: 60 Hz, HorFreq: 63981 Hz
Monitor name: ET1717L
Monitor ranges (GTF): 56-75Hz V, 31-80kHz H, max dotclock 1700MHz
ASCII string: 0000000000001
Checksum: 0x23 (valid)
