
EDID (hex):
00ffffffffffff0030640a0901010101
02140103801d11780a859599574f8f26
21505400080001010101010101010101
010101010101d21b569850000e301e3e
240027a610000018000000fd003a3e2e
3007000a202020202020000000fc004c
54313333454530393530300a000000ff
004148345230413030303630300a0030

Extracted contents:
header:          00 ff ff ff ff ff ff 00
serial number:   30 64 0a 09 01 01 01 01 02 14
version:         01 03
basic params:    80 1d 11 78 0a
chroma info:     85 95 99 57 4f 8f 26 21 50 54
established:     00 08 00
standard:        01 01 01 01 01 01 01 01 01 01 01 01 01 01 01 01
descriptor 1:    d2 1b 56 98 50 00 0e 30 1e 3e 24 00 27 a6 10 00 00 18
descriptor 2:    00 00 00 fd 00 3a 3e 2e 30 07 00 0a 20 20 20 20 20 20
descriptor 3:    00 00 00 fc 00 4c 54 31 33 33 45 45 30 39 35 30 30 0a
descriptor 4:    00 00 00 ff 00 41 48 34 52 30 41 30 30 30 36 30 30 0a
extensions:      00
checksum:        30

EDID version: 1.3
Manufacturer: LCD Model 90a Serial Number --
Made in week 2 of 2010
Digital display
Maximum image size: 29 cm x 17 cm
Gamma: 2.20
RGB color display
First detailed timing is preferred timing
Display x,y Chromaticity:
  Red:   0.5996, 0.3398
  Green: 0.3095, 0.5595
  Blue:  0.1503, 0.1298
  White: 0.3134, 0.3291
Established timings supported:
  1024x768@60Hz 4:3 HorFreq: 48400 Hz Clock: 65.000 MHz
Standard timings supported:
Detailed mode: Clock 71.220 MHz, 295 mm x 166 mm
               1366 1396 1458 1518 hborder 0
                768  770  774  782 vborder 0
               -hsync -vsync 
               VertFreq: 59 Hz, HorFreq: 46916 Hz
Monitor ranges (GTF): 58-62Hz V, 46-48kHz H, max dotclock 70MHz
Monitor name: LT133EE09500
Serial number: --
Checksum: 0x30 (valid)
One or more of the timings is out of range of the Monitor Ranges:
  Vertical Freq: 59 - 60 Hz
  Horizontal Freq: 46916 - 48400 Hz
  Maximum Clock: 71.220 MHz
