edid-decode (hex):

00 ff ff ff ff ff ff 00 09 e5 19 0a 00 00 00 00
0c 1f 01 04 a5 22 15 78 03 0f 95 ae 52 43 b0 26
0f 50 54 00 00 00 01 01 01 01 01 01 01 01 01 01
01 01 01 01 01 01 80 e5 00 a0 f0 60 30 90 30 20
35 00 58 d7 10 00 00 1a 00 00 00 fd 0c 30 78 26
26 75 01 0a 20 20 20 20 20 20 00 00 00 00 00 00
00 00 00 00 00 00 00 00 00 00 00 00 00 00 00 fe
00 4e 45 31 36 30 51 41 4d 2d 4e 58 31 0a 01 a8

70 13 79 00 00 03 01 14 00 cb 01 85 ff 0e 9f 00
2f 00 1f 00 5f 09 2f 00 02 00 04 00 00 00 00 00
00 00 00 00 00 00 00 00 00 00 00 00 00 00 00 00
00 00 00 00 00 00 00 00 00 00 00 00 00 00 00 00
00 00 00 00 00 00 00 00 00 00 00 00 00 00 00 00
00 00 00 00 00 00 00 00 00 00 00 00 00 00 00 00
00 00 00 00 00 00 00 00 00 00 00 00 00 00 00 00
00 00 00 00 00 00 00 00 00 00 00 00 00 00 74 90

00 ff ff ff ff ff ff 00 09 e5 19 0a 00 00 00 00
0c 1f 01 04 a5 22 15 78 03 0f 95 ae 52 43 b0 26
0f 50 54 00 00 00 01 01 01 01 01 01 01 01 01 01
01 01 01 01 01 01 80 e5 00 a0 f0 60 30 90 30 20
35 00 58 d7 10 00 00 1a 00 00 00 fd 0c 30 78 26
26 75 01 0a 20 20 20 20 20 20 00 00 00 00 00 00
00 00 00 00 00 00 00 00 00 00 00 00 00 00 00 fe
00 4e 45 31 36 30 51 41 4d 2d 4e 58 31 0a 01 a8

70 13 79 00 00 03 01 14 00 cb 01 85 ff 0e 9f 00
2f 00 1f 00 5f 09 2f 00 02 00 04 00 00 00 00 00
00 00 00 00 00 00 00 00 00 00 00 00 00 00 00 00
00 00 00 00 00 00 00 00 00 00 00 00 00 00 00 00
00 00 00 00 00 00 00 00 00 00 00 00 00 00 00 00
00 00 00 00 00 00 00 00 00 00 00 00 00 00 00 00
00 00 00 00 00 00 00 00 00 00 00 00 00 00 00 00
00 00 00 00 00 00 00 00 00 00 00 00 00 00 74 90

----------------

Block 0, Base EDID:
  EDID Structure Version & Revision: 1.4
  Vendor & Product Identification:
    Manufacturer: BOE
    Model: 2585
    Made in: week 12 of 2021
  Basic Display Parameters & Features:
    Digital display
    Bits per primary color channel: 8
    DisplayPort interface
    Maximum image size: 34 cm x 21 cm
    Gamma: 2.20
    Supported color formats: RGB 4:4:4
    First detailed timing includes the native pixel format and preferred refresh rate
    Display is continuous frequency
  Color Characteristics:
    Red  : 0.6796, 0.3203
    Green: 0.2646, 0.6904
    Blue : 0.1503, 0.0595
    White: 0.3134, 0.3291
  Established Timings I & II: none
  Standard Timings: none
  Detailed Timing Descriptors:
    DTD 1:  3840x2400   60.000000 Hz  16:10   146.880 kHz    587.520000 MHz (344 mm x 215 mm)
                 Hfront   48 Hsync  32 Hback   80 Hpol P
                 Vfront    3 Vsync   5 Vback   40 Vpol N
    Display Range Limits:
      Monitor ranges (Bare Limits): 48-120 Hz V, 293-293 kHz H, max dotclock 1170 MHz
    Empty Descriptor
    Alphanumeric Data String: 'NE160QAM-NX1'
  Extension blocks: 1
Checksum: 0xa8

----------------

Block 1, DisplayID Extension Block:
  Version: 1.3
  Extension Count: 0
  Display Product Type: Extension Section
  Video Timing Modes Type 1 - Detailed Timings Data Block:
    DTD:  3840x2400  120.001021 Hz  16:10   293.762 kHz   1175.050000 MHz (aspect 16:10, no 3D stereo, preferred)
               Hfront   48 Hsync  32 Hback   80 Hpol N
               Vfront    3 Vsync   5 Vback   40 Vpol N
  Checksum: 0x74
Checksum: 0x90

----------------

Block 2, Unknown EDID Extension Block 0x00:
  00 ff ff ff ff ff ff 00 09 e5 19 0a 00 00 00 00 '................'
  0c 1f 01 04 a5 22 15 78 03 0f 95 ae 52 43 b0 26 '.....".x....RC.&'
  0f 50 54 00 00 00 01 01 01 01 01 01 01 01 01 01 '.PT.............'
  01 01 01 01 01 01 80 e5 00 a0 f0 60 30 90 30 20 '...........`0.0 '
  35 00 58 d7 10 00 00 1a 00 00 00 fd 0c 30 78 26 '5.X..........0x&'
  26 75 01 0a 20 20 20 20 20 20 00 00 00 00 00 00 '&u..      ......'
  00 00 00 00 00 00 00 00 00 00 00 00 00 00 00 fe '................'
  00 4e 45 31 36 30 51 41 4d 2d 4e 58 31 0a 01 a8 '.NE160QAM-NX1...'
Checksum: 0xa8

----------------

Block 3, DisplayID Extension Block:
  Version: 1.3
  Extension Count: 0
  Video Timing Modes Type 1 - Detailed Timings Data Block:
    DTD:  3840x2400  120.001021 Hz  16:10   293.762 kHz   1175.050000 MHz (aspect 16:10, no 3D stereo, preferred)
               Hfront   48 Hsync  32 Hback   80 Hpol N
               Vfront    3 Vsync   5 Vback   40 Vpol N
  Checksum: 0x74
Checksum: 0x90

----------------

Warnings:

Block 0, Base EDID:
  Missing Display Product Name.
EDID:
  Base EDID: Some timings are out of range of the Monitor Ranges:
    Horizontal Freq: 146.880 - 293.762 kHz (Monitor: 293.000 - 293.000 kHz)
    Maximum Clock: 1175.050 MHz (Monitor: 1170.000 MHz)

Failures:

Block 0, Base EDID:
  Empty Descriptor: Use Dummy Descriptor instead of all zeroes.
Block 1, DisplayID Extension Block:
  DisplayID Base Block has no product type.
  Expected 0 DisplayID Extension Block, but got 1.
Block 2, Base EDID:
  Unknown Extension Block.
EDID:
  Base EDID: EDID specified 1 extension block(s), but found 3 extension block(s).
  DisplayID: Missing DisplayID Product Identification Data Block.

EDID conformity: FAIL
