
EDID (hex):
00ffffffffffff000dae4c1200000000
11200104a51a1078030af59e5c528b24
1e505400000001010101010101010101
010101010101423c80a070b024403020
a60006a410000018000000fd00283c4a
4a10010a202020202020000000fe0043
4d4e0a202020202020202020000000fe
004e3132324a43412d454e4b0a2000fd

edid-decode (hex):

00 ff ff ff ff ff ff 00 0d ae 4c 12 00 00 00 00
11 20 01 04 a5 1a 10 78 03 0a f5 9e 5c 52 8b 24
1e 50 54 00 00 00 01 01 01 01 01 01 01 01 01 01
01 01 01 01 01 01 42 3c 80 a0 70 b0 24 40 30 20
a6 00 06 a4 10 00 00 18 00 00 00 fd 00 28 3c 4a
4a 10 01 0a 20 20 20 20 20 20 00 00 00 fe 00 43
4d 4e 0a 20 20 20 20 20 20 20 20 20 00 00 00 fe
00 4e 31 32 32 4a 43 41 2d 45 4e 4b 0a 20 00 fd

----------------

Block 0, Base EDID:
  EDID Structure Version & Revision: 1.4
  Vendor & Product Identification:
    Manufacturer: CMN
    Model: 4684
    Made in: week 17 of 2022
  Basic Display Parameters & Features:
    Digital display
    Bits per primary color channel: 8
    DisplayPort interface
    Maximum image size: 26 cm x 16 cm
    Gamma: 2.20
    Supported color formats: RGB 4:4:4
    First detailed timing includes the native pixel format and preferred refresh rate
    Display is continuous frequency
  Color Characteristics:
    Red  : 0.6171, 0.3593
    Green: 0.3222, 0.5449
    Blue : 0.1435, 0.1201
    White: 0.3134, 0.3291
  Established Timings I & II: none
  Standard Timings: none
  Detailed Timing Descriptors:
    DTD 1:  1920x1200   60.002801 Hz  16:10    74.163 kHz    154.260000 MHz (262 mm x 164 mm)
                 Hfront   48 Hsync  32 Hback   80 Hpol N
                 Vfront   10 Vsync   6 Vback   20 Vpol N
    Display Range Limits:
      Monitor ranges (Bare Limits): 40-60 Hz V, 74-74 kHz H, max dotclock 160 MHz
    Alphanumeric Data String: 'CMN'
    Alphanumeric Data String: 'N122JCA-ENK'
Checksum: 0xfd
