
EDID (hex):
00ffffffffffff0009e5000000000000
0c1a0104a51911780a5d35ac5343a226
0e4d5000000001010101010101010101
0101010101017a5070a080a028503020
3a00fea9000000187a5070a080a02850
30203a00fea900000018000000fe0030
30303030005456313230574d00000000
00024121d5001000000f010a2020005d

Extracted contents:
header:          00 ff ff ff ff ff ff 00
serial number:   09 e5 00 00 00 00 00 00 0c 1a
version:         01 04
basic params:    a5 19 11 78 0a
chroma info:     5d 35 ac 53 43 a2 26 0e 4d 50
established:     00 00 00
standard:        01 01 01 01 01 01 01 01 01 01 01 01 01 01 01 01
descriptor 1:    7a 50 70 a0 80 a0 28 50 30 20 3a 00 fe a9 00 00 00 18
descriptor 2:    7a 50 70 a0 80 a0 28 50 30 20 3a 00 fe a9 00 00 00 18
descriptor 3:    00 00 00 fe 00 30 30 30 30 30 00 54 56 31 32 30 57 4d
descriptor 4:    00 00 00 00 00 02 41 21 d5 00 10 00 00 0f 01 0a 20 20
extensions:      00
checksum:        5d

EDID version: 1.4
Manufacturer: BOE Model 0 Serial Number --
Made in week 12 of 2016
Digital display
8 bits per primary color channel
DisplayPort interface
Maximum image size: 25 cm x 17 cm
Gamma: 2.20
Supported color formats: RGB 4:4:4, YCrCb 4:4:4
First detailed timing includes the native pixel format and preferred refresh rate
Display x,y Chromaticity:
  Red:   0.6728, 0.3251
  Green: 0.2646, 0.6337
  Blue:  0.1484, 0.0576
  White: 0.3017, 0.3134
Established timings supported:
Standard timings supported:
Detailed mode: Clock 206.020 MHz, 254 mm x 169 mm
               2160 2208 2240 2320 hborder 0
               1440 1443 1453 1480 vborder 0
               -hsync -vsync 
               VertFreq: 60 Hz, HorFreq: 88801 Hz
Detailed mode: Clock 206.020 MHz, 254 mm x 169 mm
               2160 2208 2240 2320 hborder 0
               1440 1443 1453 1480 vborder 0
               -hsync -vsync 
               VertFreq: 60 Hz, HorFreq: 88801 Hz
ASCII string: 00000
Manufacturer-specified data, tag 0
Checksum: 0x5d (valid)
EDID block does NOT conform to EDID 1.4!
	Missing name descriptor
	Missing monitor ranges
	Detailed block string not properly terminated
