
EDID (hex):
00ffffffffffff0006af444400000000
01100103801e13780a7fe59355508c27
22505400000001010101010101010101
010101010101ee1a0080502010301520
350030be100000180000000f00000000
00000000000000000020000000fe0041
554f0a202020202020202020000000fe
004231343145573034205634200a00be

Extracted contents:
header:          00 ff ff ff ff ff ff 00
serial number:   06 af 44 44 00 00 00 00 01 10
version:         01 03
basic params:    80 1e 13 78 0a
chroma info:     7f e5 93 55 50 8c 27 22 50 54
established:     00 00 00
standard:        01 01 01 01 01 01 01 01 01 01 01 01 01 01 01 01
descriptor 1:    ee 1a 00 80 50 20 10 30 15 20 35 00 30 be 10 00 00 18
descriptor 2:    00 00 00 0f 00 00 00 00 00 00 00 00 00 00 00 00 00 20
descriptor 3:    00 00 00 fe 00 41 55 4f 0a 20 20 20 20 20 20 20 20 20
descriptor 4:    00 00 00 fe 00 42 31 34 31 45 57 30 34 20 56 34 20 0a
extensions:      00
checksum:        be

EDID version: 1.3
Manufacturer: AUO Model 4444 Serial Number --
Made in week 1 of 2006
Digital display
Maximum image size: 30 cm x 19 cm
Gamma: 2.20
RGB color display
First detailed timing is preferred timing
Display x,y Chromaticity:
  Red:   0.5751, 0.3349
  Green: 0.3154, 0.5498
  Blue:  0.1552, 0.1347
  White: 0.3134, 0.3291
Established timings supported:
Standard timings supported:
Detailed mode: Clock 68.940 MHz, 304 mm x 190 mm
               1280 1301 1333 1408 hborder 0
                800  803  808  816 vborder 0
               -hsync -vsync 
               VertFreq: 60 Hz, HorFreq: 48963 Hz
Manufacturer-specified data, tag 15
ASCII string: AUO
ASCII string: B141EW04 V4 
Checksum: 0xbe (valid)
EDID block does NOT conform to EDID 1.3!
	Missing name descriptor
	Missing monitor ranges
