
EDID (hex):
00ffffffffffff0006afed8000000000
0f1c0104a5221378026a75a456529c27
0b505400000001010101010101010101
010101010101078780ae703841403020
a50058c21000001a0000000000000000
00000000000000000000000000fe004b
46573044804231353648414e00000000
0002410f9e001100000b010a202000af

edid-decode (hex):

00 ff ff ff ff ff ff 00 06 af ed 80 00 00 00 00
0f 1c 01 04 a5 22 13 78 02 6a 75 a4 56 52 9c 27
0b 50 54 00 00 00 01 01 01 01 01 01 01 01 01 01
01 01 01 01 01 01 07 87 80 ae 70 38 41 40 30 20
a5 00 58 c2 10 00 00 1a 00 00 00 00 00 00 00 00
00 00 00 00 00 00 00 00 00 00 00 00 00 fe 00 4b
46 57 30 44 80 42 31 35 36 48 41 4e 00 00 00 00
00 02 41 0f 9e 00 11 00 00 0b 01 0a 20 20 00 af

----------------

Block 0, Base EDID:
  EDID Structure Version & Revision: 1.4
  Vendor & Product Identification:
    Manufacturer: AUO
    Model: 33005
    Made in: week 15 of 2018
  Basic Display Parameters & Features:
    Digital display
    Bits per primary color channel: 8
    DisplayPort interface
    Maximum image size: 34 cm x 19 cm
    Gamma: 2.20
    Supported color formats: RGB 4:4:4
    First detailed timing includes the native pixel format and preferred refresh rate
  Color Characteristics:
    Red  : 0.6416, 0.3378
    Green: 0.3222, 0.6113
    Blue : 0.1533, 0.0458
    White: 0.3134, 0.3291
  Established Timings I & II: none
  Standard Timings: none
  Detailed Timing Descriptors:
    DTD 1:  1920x1080  144.171536 Hz  16:9    165.076 kHz    345.670000 MHz (344 mm x 194 mm)
                 Hfront   48 Hsync  32 Hback   94 Hpol P
                 Vfront   10 Vsync   5 Vback   50 Vpol N
    Empty Descriptor
    Alphanumeric Data String: 'KFW0D'
    Manufacturer-Specified Display Descriptor (0x00): 00 00 00 02 41 0f 9e 00 11 00 00 0b 01 0a 20 20 '....A.........  '
Checksum: 0xaf
