
EDID (hex):
00ffffffffffff00593a500001010101
071401031f522e782aa13ba3554a9b25
10474aa5ce00d1c00101010101010101
0101010101011a3680a070381f403020
350034cc3100001a000000fd00374d1f
460f000a202020202020000000ff0055
4b4542414c30373030303739000000fc
00564f3337304d0a20202020202000bc

Extracted contents:
header:          00 ff ff ff ff ff ff 00
serial number:   59 3a 50 00 01 01 01 01 07 14
version:         01 03
basic params:    1f 52 2e 78 2a
chroma info:     a1 3b a3 55 4a 9b 25 10 47 4a
established:     a5 ce 00
standard:        d1 c0 01 01 01 01 01 01 01 01 01 01 01 01 01 01
descriptor 1:    1a 36 80 a0 70 38 1f 40 30 20 35 00 34 cc 31 00 00 1a
descriptor 2:    00 00 00 fd 00 37 4d 1f 46 0f 00 0a 20 20 20 20 20 20
descriptor 3:    00 00 00 ff 00 55 4b 45 42 41 4c 30 37 30 30 30 37 39
descriptor 4:    00 00 00 fc 00 56 4f 33 37 30 4d 0a 20 20 20 20 20 20
extensions:      00
checksum:        bc

EDID version: 1.3
Manufacturer: VIZ Model 50 Serial Number --
Made in week 7 of 2010
Analog display, Input voltage level: 0.7/0.3 V
Configurable signal levels
Sync: Separate Composite SyncOnGreen Serration 
Maximum image size: 82 cm x 46 cm
Gamma: 2.20
DPMS levels: Off
RGB color display
First detailed timing is preferred timing
Display x,y Chromaticity:
  Red:   0.6386, 0.3339
  Green: 0.2890, 0.6064
  Blue:  0.1445, 0.0654
  White: 0.2792, 0.2919
Established timings supported:
  720x400@70Hz 9:5 HorFreq: 31469 Hz Clock: 28.320 MHz
  640x480@60Hz 4:3 HorFreq: 31469 Hz Clock: 25.175 MHz
  640x480@75Hz 4:3 HorFreq: 37500 Hz Clock: 31.500 MHz
  800x600@60Hz 4:3 HorFreq: 37900 Hz Clock: 40.000 MHz
  800x600@72Hz 4:3 HorFreq: 48100 Hz Clock: 50.000 MHz
  800x600@75Hz 4:3 HorFreq: 46900 Hz Clock: 49.500 MHz
  1024x768@60Hz 4:3 HorFreq: 48400 Hz Clock: 65.000 MHz
  1024x768@70Hz 4:3 HorFreq: 56500 Hz Clock: 75.000 MHz
  1024x768@75Hz 4:3 HorFreq: 60000 Hz Clock: 78.750 MHz
Standard timings supported:
  1920x1080@60Hz 16:9
Detailed mode: Clock 138.500 MHz, 820 mm x 460 mm
               1920 1968 2000 2080 hborder 0
               1080 1083 1088 1111 vborder 0
               +hsync -vsync 
               VertFreq: 59 Hz, HorFreq: 66586 Hz
Monitor ranges (GTF): 55-77Hz V, 31-70kHz H, max dotclock 150MHz
Serial number: --
Monitor name: VO370M
Checksum: 0xbc (valid)
