edid-decode (hex):

00 ff ff ff ff ff ff 00 60 a3 56 11 00 00 00 00
17 23 01 04 a5 35 1e 78 22 1e c5 ae 4f 34 b1 26
0e 50 54 2f cd 00 81 80 95 00 d1 c0 71 40 81 c0
b3 00 a9 c0 01 01 02 3a 80 18 71 38 2d 40 30 20
45 00 0f 28 21 00 00 00 8e 44 80 a0 70 38 2d 40
30 20 35 00 0f 28 21 00 00 00 00 00 00 fc 00 45
53 2d 32 34 58 35 41 4c 0a 20 20 20 00 00 00 fd
00 32 4b 1e 8c 13 00 0a 20 20 20 20 20 20 00 94

00 ff ff ff ff ff ff 00 60 a3 56 11 00 00 00 00
17 23 01 04 a5 35 1e 78 22 1e c5 ae 4f 34 b1 26
0e 50 54 2f cd 00 81 80 95 00 d1 c0 71 40 81 c0
b3 00 a9 c0 01 01 02 3a 80 18 71 38 2d 40 30 20
45 00 0f 28 21 00 00 00 8e 44 80 a0 70 38 2d 40
30 20 35 00 0f 28 21 00 00 00 00 00 00 fc 00 45
53 2d 32 34 58 35 41 4c 0a 20 20 20 00 00 00 fd
00 32 4b 1e 8c 13 00 0a 20 20 20 20 20 20 00 94

----------------

Block 0, Base EDID:
  EDID Structure Version & Revision: 1.4
  Vendor & Product Identification:
    Manufacturer: XEC
    Model: 4438
    Made in: week 23 of 2025
  Basic Display Parameters & Features:
    Digital display
    Bits per primary color channel: 8
    DisplayPort interface
    Maximum image size: 53 cm x 30 cm
    Gamma: 2.20
    DPMS levels: Off
    Supported color formats: RGB 4:4:4
    First detailed timing includes the native pixel format and preferred refresh rate
  Color Characteristics:
    Red  : 0.6796, 0.3095
    Green: 0.2060, 0.6933
    Blue : 0.1513, 0.0546
    White: 0.3134, 0.3291
  Established Timings I & II:
    DMT 0x04:   640x480    59.940476 Hz   4:3     31.469 kHz     25.175000 MHz
    DMT 0x05:   640x480    72.808802 Hz   4:3     37.861 kHz     31.500000 MHz
    DMT 0x06:   640x480    75.000000 Hz   4:3     37.500 kHz     31.500000 MHz
    DMT 0x08:   800x600    56.250000 Hz   4:3     35.156 kHz     36.000000 MHz
    DMT 0x09:   800x600    60.316541 Hz   4:3     37.879 kHz     40.000000 MHz
    DMT 0x0a:   800x600    72.187572 Hz   4:3     48.077 kHz     50.000000 MHz
    DMT 0x0b:   800x600    75.000000 Hz   4:3     46.875 kHz     49.500000 MHz
    DMT 0x10:  1024x768    60.003840 Hz   4:3     48.363 kHz     65.000000 MHz
    DMT 0x11:  1024x768    70.069359 Hz   4:3     56.476 kHz     75.000000 MHz
    DMT 0x24:  1280x1024   75.024675 Hz   5:4     79.976 kHz    135.000000 MHz
  Standard Timings:
    DMT 0x23:  1280x1024   60.019740 Hz   5:4     63.981 kHz    108.000000 MHz
    DMT 0x2f:  1440x900    59.887445 Hz  16:10    55.935 kHz    106.500000 MHz
    DMT 0x52:  1920x1080   60.000000 Hz  16:9     67.500 kHz    148.500000 MHz
    GTF     :  1152x864    60.000000 Hz   4:3     53.700 kHz     81.624000 MHz
    DMT 0x55:  1280x720    60.000000 Hz  16:9     45.000 kHz     74.250000 MHz
    DMT 0x3a:  1680x1050   59.954250 Hz  16:10    65.290 kHz    146.250000 MHz
    DMT 0x53:  1600x900    60.000000 Hz  16:9     60.000 kHz    108.000000 MHz (RB)
  Detailed Timing Descriptors:
    DTD 1:  1920x1080   60.000000 Hz  16:9     67.500 kHz    148.500000 MHz (analog composite, sync-on-green, 527 mm x 296 mm)
                 Hfront   48 Hsync  32 Hback  200 Hpol N
                 Vfront    4 Vsync   5 Vback   36 Vpol N
    DTD 2:  1920x1080   75.000000 Hz  16:9     84.375 kHz    175.500000 MHz (analog composite, sync-on-green, 527 mm x 296 mm)
                 Hfront   48 Hsync  32 Hback   80 Hpol N
                 Vfront    3 Vsync   5 Vback   37 Vpol N
    Display Product Name: 'ES-24X5AL'
    Display Range Limits:
      Monitor ranges (GTF): 50-75 Hz V, 30-140 kHz H, max dotclock 190 MHz
Checksum: 0x94

----------------

Block 1, Unknown EDID Extension Block 0x00:
  00 ff ff ff ff ff ff 00 60 a3 56 11 00 00 00 00 '........`.V.....'
  17 23 01 04 a5 35 1e 78 22 1e c5 ae 4f 34 b1 26 '.#...5.x"...O4.&'
  0e 50 54 2f cd 00 81 80 95 00 d1 c0 71 40 81 c0 '.PT/........q@..'
  b3 00 a9 c0 01 01 02 3a 80 18 71 38 2d 40 30 20 '.......:..q8-@0 '
  45 00 0f 28 21 00 00 00 8e 44 80 a0 70 38 2d 40 'E..(!....D..p8-@'
  30 20 35 00 0f 28 21 00 00 00 00 00 00 fc 00 45 '0 5..(!........E'
  53 2d 32 34 58 35 41 4c 0a 20 20 20 00 00 00 fd 'S-24X5AL.   ....'
  00 32 4b 1e 8c 13 00 0a 20 20 20 20 20 20 00 94 '.2K.....      ..'
Checksum: 0x94

----------------

Warnings:

Block 0, Base EDID:
  Detailed Timing Descriptor #1: DTD is similar but not identical to VIC 16.
  Display Range Limits: GTF support is deprecated in EDID 1.4.

Failures:

Block 0, Base EDID:
  Display Range Limits: GTF can't be combined with non-continuous frequencies.
Block 1, Base EDID:
  Unknown Extension Block.
EDID:
  Base EDID: EDID specified 0 extension block(s), but found 1 extension block(s).

EDID conformity: FAIL
