
EDID (hex):
00ffffffffffff000daf001600000000
05150103802513780acf459059579529
1f505400000001010101010101010101
010101010101773a8018713837405438
590076c010000018000000fe004e3136
344847452d4c31310a20000000fe0043
4d4f0a202020202020202020000000fe
004e3136344847452d4c31310a2000c4

Extracted contents:
header:          00 ff ff ff ff ff ff 00
serial number:   0d af 00 16 00 00 00 00 05 15
version:         01 03
basic params:    80 25 13 78 0a
chroma info:     cf 45 90 59 57 95 29 1f 50 54
established:     00 00 00
standard:        01 01 01 01 01 01 01 01 01 01 01 01 01 01 01 01
descriptor 1:    77 3a 80 18 71 38 37 40 54 38 59 00 76 c0 10 00 00 18
descriptor 2:    00 00 00 fe 00 4e 31 36 34 48 47 45 2d 4c 31 31 0a 20
descriptor 3:    00 00 00 fe 00 43 4d 4f 0a 20 20 20 20 20 20 20 20 20
descriptor 4:    00 00 00 fe 00 4e 31 36 34 48 47 45 2d 4c 31 31 0a 20
extensions:      00
checksum:        c4

EDID version: 1.3
Manufacturer: CMO Model 1600 Serial Number --
Made in week 5 of 2011
Digital display
Maximum image size: 37 cm x 19 cm
Gamma: 2.20
RGB color display
First detailed timing is preferred timing
Display x,y Chromaticity:
  Red:   0.5654, 0.3476
  Green: 0.3427, 0.5849
  Blue:  0.1611, 0.1210
  White: 0.3134, 0.3291
Established timings supported:
Standard timings supported:
Detailed mode: Clock 149.670 MHz, 374 mm x 192 mm
               1920 2004 2060 2200 hborder 0
               1080 1085 1094 1135 vborder 0
               -hsync -vsync 
               VertFreq: 59 Hz, HorFreq: 68031 Hz
ASCII string: N164HGE-L11
ASCII string: CMO
ASCII string: N164HGE-L11
Checksum: 0xc4 (valid)
EDID block does NOT conform to EDID 1.3!
	Missing name descriptor
	Missing monitor ranges
