
EDID (hex):
00ffffffffffff0030e4e30200000000
00140104902213780a09159d5f599b27
19505400000001010101010101010101
010101010101b01d56c650002a302430
350058c210000019ec1356c650002e30
2430350058c210000019000000fe0050
50435446803135365748340a00000000
00004131960000000001010a202000ef

Extracted contents:
header:          00 ff ff ff ff ff ff 00
serial number:   30 e4 e3 02 00 00 00 00 00 14
version:         01 04
basic params:    90 22 13 78 0a
chroma info:     09 15 9d 5f 59 9b 27 19 50 54
established:     00 00 00
standard:        01 01 01 01 01 01 01 01 01 01 01 01 01 01 01 01
descriptor 1:    b0 1d 56 c6 50 00 2a 30 24 30 35 00 58 c2 10 00 00 19
descriptor 2:    ec 13 56 c6 50 00 2e 30 24 30 35 00 58 c2 10 00 00 19
descriptor 3:    00 00 00 fe 00 50 50 43 54 46 80 31 35 36 57 48 34 0a
descriptor 4:    00 00 00 00 00 00 41 31 96 00 00 00 00 01 01 0a 20 20
extensions:      00
checksum:        ef

EDID version: 1.4
Manufacturer: LGD Model 2e3 Serial Number --
Made in year 2010
Digital display
6 bits per primary color channel
Digital interface is not defined
Maximum image size: 34 cm x 19 cm
Gamma: 2.20
Supported color formats: RGB 4:4:4, YCrCb 4:4:4
First detailed timing includes the native pixel format and preferred refresh rate
Display x,y Chromaticity:
  Red:   0.6132, 0.3710
  Green: 0.3496, 0.6064
  Blue:  0.1523, 0.0986
  White: 0.3134, 0.3291
Established timings supported:
Standard timings supported:
Detailed mode: Clock 76.000 MHz, 344 mm x 194 mm
               1366 1402 1450 1564 hborder 0
                768  771  776  810 vborder 0
               -hsync -vsync 
               VertFreq: 59 Hz, HorFreq: 48593 Hz
Detailed mode: Clock 51.000 MHz, 344 mm x 194 mm
               1366 1402 1450 1564 hborder 0
                768  771  776  814 vborder 0
               -hsync -vsync 
               VertFreq: 40 Hz, HorFreq: 32608 Hz
ASCII string: PPCTF
Manufacturer-specified data, tag 0
Checksum: 0xef (valid)
EDID block does NOT conform to EDID 1.4!
	Missing name descriptor
	Missing monitor ranges
	Detailed block string not properly terminated


