
EDID (hex):
00ffffffffffff0052d4050053000000
2a0a0101801e176fe82d4597594c9421
1c5054ffee0061464559315931d931ca
000000000000d80980a0209031101040
d200809021000018390880d020902810
40407800809021000018401f00304100
23302060330000004300001800000000
00000000000000000000000000000119
02031b71230907078301000067030c00
2000802d43100403e2000f8c0ad08a20
e02d10103e9600a05a00000000000000
00000000000000000000000000000000
00000000000000000000000000000000
00000000000000000000000000000000
00000000000000000000000000000000
00000000000000000000000000000018

Extracted contents:
header:          00 ff ff ff ff ff ff 00
serial number:   52 d4 05 00 53 00 00 00 2a 0a
version:         01 01
basic params:    80 1e 17 6f e8
chroma info:     2d 45 97 59 4c 94 21 1c 50 54
established:     ff ee 00
standard:        61 46 45 59 31 59 31 d9 31 ca 00 00 00 00 00 00
descriptor 1:    d8 09 80 a0 20 90 31 10 10 40 d2 00 80 90 21 00 00 18
descriptor 2:    39 08 80 d0 20 90 28 10 40 40 78 00 80 90 21 00 00 18
descriptor 3:    40 1f 00 30 41 00 23 30 20 60 33 00 00 00 43 00 00 18
descriptor 4:    00 00 00 00 00 00 00 00 00 00 00 00 00 00 00 00 00 00
extensions:      01
checksum:        19

EDID version: 1.1
Manufacturer: TVT Model 5 Serial Number --
Digital display
Maximum image size: 30 cm x 23 cm
Gamma: 2.11
DPMS levels: Standby Suspend Off
RGB color display
Display x,y Chromaticity:
  Red:   0.5898, 0.3496
  Green: 0.2998, 0.5791
  Blue:  0.1298, 0.1093
  White: 0.3134, 0.3291
Established timings supported:
  720x400@70Hz 9:5 HorFreq: 31469 Hz Clock: 28.320 MHz
  720x400@88Hz 9:5 HorFreq: 39500 Hz Clock: 35.500 MHz
  640x480@60Hz 4:3 HorFreq: 31469 Hz Clock: 25.175 MHz
  640x480@67Hz 4:3 HorFreq: 35000 Hz Clock: 30.240 MHz
  640x480@72Hz 4:3 HorFreq: 37900 Hz Clock: 31.500 MHz
  640x480@75Hz 4:3 HorFreq: 37500 Hz Clock: 31.500 MHz
  800x600@56Hz 4:3 HorFreq: 35200 Hz Clock: 36.000 MHz
  800x600@60Hz 4:3 HorFreq: 37900 Hz Clock: 40.000 MHz
  800x600@72Hz 4:3 HorFreq: 48100 Hz Clock: 50.000 MHz
  800x600@75Hz 4:3 HorFreq: 46900 Hz Clock: 49.500 MHz
  832x624@75Hz 4:3 HorFreq: 49726 Hz Clock: 57.284 MHz
  1024x768@60Hz 4:3 HorFreq: 48400 Hz Clock: 65.000 MHz
  1024x768@70Hz 4:3 HorFreq: 56500 Hz Clock: 75.000 MHz
  1024x768@75Hz 4:3 HorFreq: 60000 Hz Clock: 78.750 MHz
Standard timings supported:
  1024x768@66Hz 4:3
  800x600@85Hz 4:3 HorFreq: 53700 Hz Clock: 56.250 MHz
  640x480@85Hz 4:3 HorFreq: 43300 Hz Clock: 36.000 MHz
  640x360@85Hz 16:9
  640x360@70Hz 16:9
non-conformant standard timing (0 horiz)
non-conformant standard timing (0 horiz)
non-conformant standard timing (0 horiz)
Detailed mode: Clock 25.200 MHz, 640 mm x 400 mm
                640  656  720  800 hborder 0
                400  413  415  449 vborder 0
               -hsync -vsync 
               VertFreq: 70 Hz, HorFreq: 31500 Hz
Detailed mode: Clock 21.050 MHz, 640 mm x 400 mm
                640  704  768  848 hborder 0
                400  407  415  440 vborder 0
               -hsync -vsync 
               VertFreq: 56 Hz, HorFreq: 24823 Hz
Detailed mode: Clock 80.000 MHz, 1024 mm x 768 mm
               1024 1056 1152 1328 hborder 0
                768  771  774  803 vborder 0
               -hsync -vsync 
               VertFreq: 75 Hz, HorFreq: 60240 Hz
Manufacturer-specified data, tag 0
Has 1 extension blocks
Checksum: 0x19 (valid)

CTA extension block
Extension version: 3
23 bytes of CTA data
  Audio data block
    Linear PCM, max channels 2
      Supported sample rates (kHz): 48 44.1 32
      Supported sample sizes (bits): 24 20 16
  Speaker allocation data block
    Speaker map:
      FL/FR - Front Left/Right
  Vendor-specific data block, OUI 000c03 (HDMI)
    Source physical address 2.0.0.0
    Supports_AI
    Maximum TMDS clock: 225MHz
  Video data block
    VIC  16 1920x1080@60Hz 16:9  HorFreq: 67500 Hz Clock: 148.500 MHz
    VIC   4 1280x720@60Hz 16:9  HorFreq: 45000 Hz Clock: 74.250 MHz
    VIC   3 720x480@60Hz 16:9  HorFreq: 31469 Hz Clock: 27.000 MHz
  Extended tag: Video capability data block
    YCbCr quantization: No Data (0)
    RGB quantization: No Data (0)
    PT scan behaviour: No Data (0)
    IT scan behaviour: Support both over- and underscan (3)
    CE scan behaviour: Support both over- and underscan (3)
Basic audio support
Supports YCbCr 4:4:4
Supports YCbCr 4:2:2
1 native detailed modes
Detailed mode: Clock 27.000 MHz, 160 mm x 90 mm
                720  736  798  858 hborder 0
                480  489  495  525 vborder 0
               -hsync -vsync analog composite 
               VertFreq: 59 Hz, HorFreq: 31468 Hz
Checksum: 0x18 (valid)

EDID block does NOT conform to EDID 1.0!
	Has descriptor blocks other than detailed timings
EDID block does not conform at all!
	Bad year of manufacture
