
EDID (hex):
00ffffffffffff003870250000000000
011b010495221378028a70975c578e28
1c505400000001010101010101010101
0101010101012e3680a070381f403020
350058c21000001a222480a070381f40
3020350058c21000001a000000000000
00000000000000000000000000000002
000e47ff0e497d0d10227d000000009a

Extracted contents:
header:          00 ff ff ff ff ff ff 00
serial number:   38 70 25 00 00 00 00 00 01 1b
version:         01 04
basic params:    95 22 13 78 02
chroma info:     8a 70 97 5c 57 8e 28 1c 50 54
established:     00 00 00
standard:        01 01 01 01 01 01 01 01 01 01 01 01 01 01 01 01
descriptor 1:    2e 36 80 a0 70 38 1f 40 30 20 35 00 58 c2 10 00 00 1a
descriptor 2:    22 24 80 a0 70 38 1f 40 30 20 35 00 58 c2 10 00 00 1a
descriptor 3:    00 00 00 00 00 00 00 00 00 00 00 00 00 00 00 00 00 00
descriptor 4:    00 00 00 02 00 0e 47 ff 0e 49 7d 0d 10 22 7d 00 00 00
extensions:      00
checksum:        9a

EDID version: 1.4
Manufacturer: NCP Model 25 Serial Number --
Made in week 1 of 2017
Digital display
6 bits per primary color channel
DisplayPort interface
Maximum image size: 34 cm x 19 cm
Gamma: 2.20
Supported color formats: RGB 4:4:4
First detailed timing includes the native pixel format and preferred refresh rate
Display x,y Chromaticity:
  Red:   0.5917, 0.3593
  Green: 0.3417, 0.5566
  Blue:  0.1572, 0.1123
  White: 0.3125, 0.3281
Established timings supported:
Standard timings supported:
Detailed mode: Clock 138.700 MHz, 344 mm x 194 mm
               1920 1968 2000 2080 hborder 0
               1080 1083 1088 1111 vborder 0
               +hsync -vsync 
               VertFreq: 60 Hz, HorFreq: 66682 Hz
Detailed mode: Clock 92.500 MHz, 344 mm x 194 mm
               1920 1968 2000 2080 hborder 0
               1080 1083 1088 1111 vborder 0
               +hsync -vsync 
               VertFreq: 40 Hz, HorFreq: 44471 Hz
Manufacturer-specified data, tag 0
Manufacturer-specified data, tag 2
Checksum: 0x9a (valid)
EDID block does NOT conform to EDID 1.4!
	Missing name descriptor
	Missing monitor ranges
