edid-decode (hex):

00 ff ff ff ff ff ff 00 38 70 25 00 01 00 00 00
31 1e 01 03 80 22 13 78 0a 15 d5 9e 59 50 98 26
0e 50 54 00 00 00 01 01 01 01 01 01 01 01 01 01
01 01 01 01 01 01 82 2d 80 a0 70 38 1f 40 30 20
35 00 59 c2 10 00 00 1b 04 29 80 a0 70 38 1f 40
30 20 35 00 59 c2 10 00 00 1b 00 00 00 fe 00 4c
43 31 35 36 4c 46 31 4c 30 33 0a 20 00 00 00 00
00 4c 43 31 35 36 4c 46 31 4c 30 33 0a 20 00 b1

----------------

Block 0, Base EDID:
  EDID Structure Version & Revision: 1.3
  Vendor & Product Identification:
    Manufacturer: NCP
    Model: 37
    Serial Number: ...
    Made in: week 49 of 2020
  Basic Display Parameters & Features:
    Digital display
    Maximum image size: 34 cm x 19 cm
    Gamma: 2.20
    RGB color display
    First detailed timing is the preferred timing
  Color Characteristics:
    Red  : 0.6171, 0.3486
    Green: 0.3134, 0.5947
    Blue : 0.1513, 0.0556
    White: 0.3134, 0.3291
  Established Timings I & II: none
  Standard Timings: none
  Detailed Timing Descriptors:
    DTD 1:  1920x1080   50.413695 Hz  16:9     56.010 kHz    116.500000 MHz (345 mm x 194 mm)
                 Hfront   48 Hsync  32 Hback   80 Hpol P
                 Vfront    3 Vsync   5 Vback   23 Vpol N
    DTD 2:  1920x1080   45.437236 Hz  16:9     50.481 kHz    105.000000 MHz (345 mm x 194 mm)
                 Hfront   48 Hsync  32 Hback   80 Hpol P
                 Vfront    3 Vsync   5 Vback   23 Vpol N
    Alphanumeric Data String: 'LC156LF1L03'
    Manufacturer-Specified Display Descriptor (0x00): 00 00 00 4c 43 31 35 36 4c 46 31 4c 30 33 0a 20 '...LC156LF1L03. '
Checksum: 0xb1

----------------

Failures:

Block 0, Base EDID:
  Missing Display Product Name.
  Missing Display Range Limits Descriptor.

EDID conformity: FAIL
