
EDID (hex):
00ffffffffffff0006af9f6a00000000
1f1f0104a522167803c343a755489f25
0e505600000001010101010101010101
0101010101010c6c00a0a0405e603020
aa0058d710000018705600a0a0405e60
3020aa0058d710000018000000fe0041
554f0a202020202020202020000000fe
004231363051414e30322e57200a00aa

Extracted contents:
header:          00 ff ff ff ff ff ff 00
serial number:   06 af 9f 6a 00 00 00 00 1f 1f
version:         01 04
basic params:    a5 22 16 78 03
chroma info:     c3 43 a7 55 48 9f 25 0e 50 56
established:     00 00 00
standard:        01 01 01 01 01 01 01 01 01 01 01 01 01 01 01 01
descriptor 1:    0c 6c 00 a0 a0 40 5e 60 30 20 aa 00 58 d7 10 00 00 18
descriptor 2:    70 56 00 a0 a0 40 5e 60 30 20 aa 00 58 d7 10 00 00 18
descriptor 3:    00 00 00 fe 00 41 55 4f 0a 20 20 20 20 20 20 20 20 20
descriptor 4:    00 00 00 fe 00 42 31 36 30 51 41 4e 30 32 2e 57 20 0a
extensions:      00
checksum:        aa

EDID version: 1.4
Manufacturer: AUO Model 6a9f Serial Number --
Made in week 31 of 2021
Digital display
8 bits per primary color channel
DisplayPort interface
Maximum image size: 34 cm x 22 cm
Gamma: 2.20
Supported color formats: RGB 4:4:4
First detailed timing includes the native pixel format and preferred refresh rate
Display is continuous frequency
Display x,y Chromaticity:
  Red:   0.6552, 0.3320
  Green: 0.2812, 0.6240
  Blue:  0.1455, 0.0546
  White: 0.3125, 0.3388
Established timings supported:
Standard timings supported:
Detailed mode: Clock 276.600 MHz, 344 mm x 215 mm
               2560 2608 2640 2720 hborder 0
               1600 1610 1620 1694 vborder 0
               -hsync -vsync 
               VertFreq: 60 Hz, HorFreq: 101691 Hz
Detailed mode: Clock 221.280 MHz, 344 mm x 215 mm
               2560 2608 2640 2720 hborder 0
               1600 1610 1620 1694 vborder 0
               -hsync -vsync 
               VertFreq: 48 Hz, HorFreq: 81352 Hz
ASCII string: AUO
ASCII string: B160QAN02.W 
Checksum: 0xaa (valid)
EDID block does NOT conform to EDID 1.4!
	Missing name descriptor
	Missing monitor ranges
