
EDID (hex):
00ffffffffffff005b4f102208690100
21120103682f1e782a37a0a655489a26
125054afce0001010101010101010101
01010101010121399030621a274068b0
3600da281100001c000000ff00544d43
51414a33333932343234000000fd0038
4b1f3d0b000a202020202020000000fc
00565732324c484454563130540a006a

Extracted contents:
header:          00 ff ff ff ff ff ff 00
serial number:   5b 4f 10 22 08 69 01 00 21 12
version:         01 03
basic params:    68 2f 1e 78 2a
chroma info:     37 a0 a6 55 48 9a 26 12 50 54
established:     af ce 00
standard:        01 01 01 01 01 01 01 01 01 01 01 01 01 01 01 01
descriptor 1:    21 39 90 30 62 1a 27 40 68 b0 36 00 da 28 11 00 00 1c
descriptor 2:    00 00 00 ff 00 54 4d 43 51 41 4a 33 33 39 32 34 32 34
descriptor 3:    00 00 00 fd 00 38 4b 1f 3d 0b 00 0a 20 20 20 20 20 20
descriptor 4:    00 00 00 fc 00 56 57 32 32 4c 48 44 54 56 31 30 54 0a
extensions:      00
checksum:        6a

EDID version: 1.3
Manufacturer: VZO Model 2210 Serial Number --
Made in week 33 of 2008
Analog display, Input voltage level: 0.7/0.7 V
Sync: Separate 
Maximum image size: 47 cm x 30 cm
Gamma: 2.20
DPMS levels: Off
RGB color display
First detailed timing is preferred timing
Display x,y Chromaticity:
  Red:   0.6484, 0.3349
  Green: 0.2822, 0.6044
  Blue:  0.1503, 0.0722
  White: 0.3125, 0.3281
Established timings supported:
  720x400@70Hz 9:5 HorFreq: 31469 Hz Clock: 28.320 MHz
  640x480@60Hz 4:3 HorFreq: 31469 Hz Clock: 25.175 MHz
  640x480@72Hz 4:3 HorFreq: 37900 Hz Clock: 31.500 MHz
  640x480@75Hz 4:3 HorFreq: 37500 Hz Clock: 31.500 MHz
  800x600@56Hz 4:3 HorFreq: 35200 Hz Clock: 36.000 MHz
  800x600@60Hz 4:3 HorFreq: 37900 Hz Clock: 40.000 MHz
  800x600@72Hz 4:3 HorFreq: 48100 Hz Clock: 50.000 MHz
  800x600@75Hz 4:3 HorFreq: 46900 Hz Clock: 49.500 MHz
  1024x768@60Hz 4:3 HorFreq: 48400 Hz Clock: 65.000 MHz
  1024x768@70Hz 4:3 HorFreq: 56500 Hz Clock: 75.000 MHz
  1024x768@75Hz 4:3 HorFreq: 60000 Hz Clock: 78.750 MHz
Standard timings supported:
Detailed mode: Clock 146.250 MHz, 474 mm x 296 mm
               1680 1784 1960 2240 hborder 0
               1050 1053 1059 1089 vborder 0
               -hsync +vsync 
               VertFreq: 59 Hz, HorFreq: 65290 Hz
Serial number: --
Monitor ranges (GTF): 56-75Hz V, 31-61kHz H, max dotclock 110MHz
Monitor name: VW22LHDTV10T
Checksum: 0x6a (valid)
One or more of the timings is out of range of the Monitor Ranges:
  Vertical Freq: 56 - 75 Hz
  Horizontal Freq: 31469 - 65290 Hz
  Maximum Clock: 146.250 MHz
