edid-decode (hex):

00 ff ff ff ff ff ff 00 0e 6f 03 16 00 00 00 00
00 1e 01 04 a5 22 16 78 03 54 82 a5 54 4c 99 23
10 51 56 00 00 00 01 01 01 01 01 01 01 01 01 01
01 01 01 01 01 01 ef 68 00 a0 a0 40 2e 60 30 20
36 00 58 d7 10 00 00 18 00 00 00 fd 00 28 3c 63
63 1b 01 0a 20 20 20 20 20 20 00 00 00 fe 00 43
53 4f 54 20 54 33 0a 20 20 20 20 20 00 00 00 fe
00 4d 4e 47 30 30 37 44 41 31 2d 34 0a 20 00 c8

00 ff ff ff ff ff ff 00 0e 6f 03 16 00 00 00 00
00 1e 01 04 a5 22 16 78 03 54 82 a5 54 4c 99 23
10 51 56 00 00 00 01 01 01 01 01 01 01 01 01 01
01 01 01 01 01 01 ef 68 00 a0 a0 40 2e 60 30 20
36 00 58 d7 10 00 00 18 00 00 00 fd 00 28 3c 63
63 1b 01 0a 20 20 20 20 20 20 00 00 00 fe 00 43
53 4f 54 20 54 33 0a 20 20 20 20 20 00 00 00 fe
00 4d 4e 47 30 30 37 44 41 31 2d 34 0a 20 00 c8

----------------

Block 0, Base EDID:
  EDID Structure Version & Revision: 1.4
  Vendor & Product Identification:
    Manufacturer: CSO
    Model: 5635
    Made in: 2020
  Basic Display Parameters & Features:
    Digital display
    Bits per primary color channel: 8
    DisplayPort interface
    Maximum image size: 34 cm x 22 cm
    Gamma: 2.20
    Supported color formats: RGB 4:4:4
    First detailed timing includes the native pixel format and preferred refresh rate
    Display is continuous frequency
  Color Characteristics:
    Red  : 0.6455, 0.3291
    Green: 0.2978, 0.5976
    Blue : 0.1386, 0.0625
    White: 0.3164, 0.3378
  Established Timings I & II: none
  Standard Timings: none
  Detailed Timing Descriptors:
    DTD 1:  2560x1600   60.000625 Hz  16:10    98.761 kHz    268.630000 MHz (344 mm x 215 mm)
                 Hfront   48 Hsync  32 Hback   80 Hpol N
                 Vfront    3 Vsync   6 Vback   37 Vpol N
    Display Range Limits:
      Monitor ranges (Bare Limits): 40-60 Hz V, 99-99 kHz H, max dotclock 270 MHz
    Alphanumeric Data String: 'CSOT T3'
    Alphanumeric Data String: 'MNG007DA1-4'
Checksum: 0xc8

----------------

Block 1, Unknown EDID Extension Block 0x00:
  00 ff ff ff ff ff ff 00 0e 6f 03 16 00 00 00 00 '.........o......'
  00 1e 01 04 a5 22 16 78 03 54 82 a5 54 4c 99 23 '.....".x.T..TL.#'
  10 51 56 00 00 00 01 01 01 01 01 01 01 01 01 01 '.QV.............'
  01 01 01 01 01 01 ef 68 00 a0 a0 40 2e 60 30 20 '.......h...@.`0 '
  36 00 58 d7 10 00 00 18 00 00 00 fd 00 28 3c 63 '6.X..........(<c'
  63 1b 01 0a 20 20 20 20 20 20 00 00 00 fe 00 43 'c...      .....C'
  53 4f 54 20 54 33 0a 20 20 20 20 20 00 00 00 fe 'SOT T3.     ....'
  00 4d 4e 47 30 30 37 44 41 31 2d 34 0a 20 00 c8 '.MNG007DA1-4. ..'
Checksum: 0xc8

----------------

Warnings:

Block 0, Base EDID:
  Missing Display Product Name.

Failures:

Block 1, Base EDID:
  Unknown Extension Block.
EDID:
  Base EDID: EDID specified 0 extension block(s), but found 1 extension block(s).

EDID conformity: FAIL
