
EDID (hex):
00ffffffffffff00320c00b600000000
00100102801a10780a8ca09758548b28
25505400000001010101010101010101
010101010101bc1b00a0502017303020
26002a10100000190000000000000000
00000000000000000000000000fe004c
475068696c6970734c43440a000000fe
004c503132315758312d544c4132003c

edid-decode (hex):

00 ff ff ff ff ff ff 00 32 0c 00 b6 00 00 00 00
00 10 01 02 80 1a 10 78 0a 8c a0 97 58 54 8b 28
25 50 54 00 00 00 01 01 01 01 01 01 01 01 01 01
01 01 01 01 01 01 bc 1b 00 a0 50 20 17 30 30 20
26 00 2a 10 10 00 00 19 00 00 00 00 00 00 00 00
00 00 00 00 00 00 00 00 00 00 00 00 00 fe 00 4c
47 50 68 69 6c 69 70 73 4c 43 44 0a 00 00 00 fe
00 4c 50 31 32 31 57 58 31 2d 54 4c 41 32 00 3c

----------------

Block 0, Base EDID:
  EDID Structure Version & Revision: 1.2
  Vendor & Product Identification:
    Manufacturer: LPL
    Model: 46592
    Made in: 2006
  Basic Display Parameters & Features:
    Digital display
    Maximum image size: 26 cm x 16 cm
    Gamma: 2.20
    RGB color display
    First detailed timing is the preferred timing
  Color Characteristics:
    Red  : 0.5917, 0.3437
    Green: 0.3310, 0.5429
    Blue : 0.1582, 0.1464
    White: 0.3125, 0.3281
  Established Timings I & II: none
  Standard Timings: none
  Detailed Timing Descriptors:
    DTD 1:  1280x800    59.909545 Hz  16:10    49.306 kHz     71.000000 MHz (298 mm x 16 mm)
                 Hfront   48 Hsync  32 Hback   80 Hpol N
                 Vfront    2 Vsync   6 Vback   15 Vpol N
    Empty Descriptor
    Alphanumeric Data String: 'LGPhilipsLCD'
    Alphanumeric Data String: 'LP121WX1-TLA2'
Checksum: 0x3c
