edid-decode (hex):

00 ff ff ff ff ff ff 00 32 0c 00 b6 00 00 00 00
00 10 01 02 80 1a 10 78 0a 8c a0 97 58 54 8b 28
25 50 54 00 00 00 01 01 01 01 01 01 01 01 01 01
01 01 01 01 01 01 bc 1b 00 a0 50 20 17 30 30 20
26 00 2a 10 10 00 00 19 00 00 00 00 00 00 00 00
00 00 00 00 00 00 00 00 00 00 00 00 00 fe 00 4c
47 50 68 69 6c 69 70 73 4c 43 44 0a 00 00 00 fe
00 4c 50 31 32 31 57 58 31 2d 54 4c 41 32 00 3c

00 ff ff ff ff ff ff 00 32 0c 00 b6 00 00 00 00
00 10 01 02 80 1a 10 78 0a 8c a0 97 58 54 8b 28
25 50 54 00 00 00 01 01 01 01 01 01 01 01 01 01
01 01 01 01 01 01 bc 1b 00 a0 50 20 17 30 30 20
26 00 2a 10 10 00 00 19 00 00 00 00 00 00 00 00
00 00 00 00 00 00 00 00 00 00 00 00 00 fe 00 4c
47 50 68 69 6c 69 70 73 4c 43 44 0a 00 00 00 fe
00 4c 50 31 32 31 57 58 31 2d 54 4c 41 32 00 3c

----------------

Block 0, Base EDID:
  EDID Structure Version & Revision: 1.2
  Vendor & Product Identification:
    Manufacturer: LPL
    Model: 46592
    Made in: 2006
  Basic Display Parameters & Features:
    Digital display
    Maximum image size: 26 cm x 16 cm
    Gamma: 2.20
    RGB color display
    First detailed timing is the preferred timing
  Color Characteristics:
    Red  : 0.5917, 0.3437
    Green: 0.3310, 0.5429
    Blue : 0.1582, 0.1464
    White: 0.3125, 0.3281
  Established Timings I & II: none
  Standard Timings: none
  Detailed Timing Descriptors:
    DTD 1:  1280x800    59.909545 Hz  16:10    49.306 kHz     71.000000 MHz (298 mm x 16 mm)
                 Hfront   48 Hsync  32 Hback   80 Hpol N
                 Vfront    2 Vsync   6 Vback   15 Vpol N
    Empty Descriptor
    Alphanumeric Data String: 'LGPhilipsLCD'
    Alphanumeric Data String: 'LP121WX1-TLA2'
Checksum: 0x3c

----------------

Block 1, Unknown EDID Extension Block 0x00:
  00 ff ff ff ff ff ff 00 32 0c 00 b6 00 00 00 00 '........2.......'
  00 10 01 02 80 1a 10 78 0a 8c a0 97 58 54 8b 28 '.......x....XT.('
  25 50 54 00 00 00 01 01 01 01 01 01 01 01 01 01 '%PT.............'
  01 01 01 01 01 01 bc 1b 00 a0 50 20 17 30 30 20 '..........P .00 '
  26 00 2a 10 10 00 00 19 00 00 00 00 00 00 00 00 '&.*.............'
  00 00 00 00 00 00 00 00 00 00 00 00 00 fe 00 4c '...............L'
  47 50 68 69 6c 69 70 73 4c 43 44 0a 00 00 00 fe 'GPhilipsLCD.....'
  00 4c 50 31 32 31 57 58 31 2d 54 4c 41 32 00 3c '.LP121WX1-TLA2.<'
Checksum: 0x3c

----------------

Warnings:

Block 0, Base EDID:
  EDID Structure Version & Revision: EDID 1.2 is deprecated, do not use.
  Detailed Timing Descriptor #1: DTD is similar but not identical to DMT 0x1b.

Failures:

Block 0, Base EDID:
  Detailed Timing Descriptor #1: Mismatch of image size 298x16 mm vs display size 260x160 mm.
  Empty Descriptor: Use Dummy Descriptor instead of all zeroes.
Block 1, Base EDID:
  Unknown Extension Block.
EDID:
  Base EDID: The DTD max image size is 298x16mm, which is larger than the display size 260.0x160.0mm.
  Base EDID: EDID specified 0 extension block(s), but found 1 extension block(s).

EDID conformity: FAIL
