
EDID (hex):
00ffffffffffff0009e5880900000000
191e0104b51f1178036685ae5042ad26
12505400000001010101010101010101
0101010101012d3880dc703828403020
360035ae1000001a742580dc70382840
3020360035ae1000001a000000000000
00000000000000000000000000000003
000d20ff0a3cfa0b0516fa000000009c

Extracted contents:
header:          00 ff ff ff ff ff ff 00
serial number:   09 e5 88 09 00 00 00 00 19 1e
version:         01 04
basic params:    b5 1f 11 78 03
chroma info:     66 85 ae 50 42 ad 26 12 50 54
established:     00 00 00
standard:        01 01 01 01 01 01 01 01 01 01 01 01 01 01 01 01
descriptor 1:    2d 38 80 dc 70 38 28 40 30 20 36 00 35 ae 10 00 00 1a
descriptor 2:    74 25 80 dc 70 38 28 40 30 20 36 00 35 ae 10 00 00 1a
descriptor 3:    00 00 00 00 00 00 00 00 00 00 00 00 00 00 00 00 00 00
descriptor 4:    00 00 00 03 00 0d 20 ff 0a 3c fa 0b 05 16 fa 00 00 00
extensions:      00
checksum:        9c

EDID version: 1.4
Manufacturer: BOE Model 988 Serial Number --
Made in week 25 of 2020
Digital display
10 bits per primary color channel
DisplayPort interface
Maximum image size: 31 cm x 17 cm
Gamma: 2.20
Supported color formats: RGB 4:4:4
First detailed timing includes the native pixel format and preferred refresh rate
Display is continuous frequency
Display x,y Chromaticity:
  Red:   0.6806, 0.3144
  Green: 0.2587, 0.6777
  Blue:  0.1503, 0.0703
  White: 0.3134, 0.3291
Established timings supported:
Standard timings supported:
Detailed mode: Clock 143.810 MHz, 309 mm x 174 mm
               1920 1968 2000 2140 hborder 0
               1080 1083 1089 1120 vborder 0
               +hsync -vsync 
               VertFreq: 60 Hz, HorFreq: 67200 Hz
Detailed mode: Clock 95.880 MHz, 309 mm x 174 mm
               1920 1968 2000 2140 hborder 0
               1080 1083 1089 1120 vborder 0
               +hsync -vsync 
               VertFreq: 40 Hz, HorFreq: 44803 Hz
Manufacturer-specified data, tag 0
Manufacturer-specified data, tag 3
Checksum: 0x9c (valid)
EDID block does NOT conform to EDID 1.4!
	Missing name descriptor
	Missing monitor ranges
