edid-decode (hex):

00 ff ff ff ff ff ff 00 10 b4 50 27 00 00 00 00
1a 22 01 03 80 3c 21 78 2a 4e 65 a9 55 4d 9c 26
10 50 54 25 4b 80 d1 c0 b3 00 a9 c0 95 00 81 00
81 80 81 40 81 c0 56 5e 00 a0 a0 a0 29 50 30 20
35 00 55 50 21 00 00 1e ac 73 00 6a a0 a0 29 50
08 20 35 00 55 50 21 00 00 1e 00 00 00 fc 00 4f
4d 32 37 30 49 2e 51 48 44 0a 20 20 00 00 00 fd
00 30 4b 1e 71 24 00 0a 20 20 20 20 20 20 01 24

00 ff ff ff ff ff ff 00 10 b4 50 27 00 00 00 00
1a 22 01 03 80 3c 21 78 2a 4e 65 a9 55 4d 9c 26
10 50 54 25 4b 80 d1 c0 b3 00 a9 c0 95 00 81 00
81 80 81 40 81 c0 56 5e 00 a0 a0 a0 29 50 30 20
35 00 55 50 21 00 00 1e ac 73 00 6a a0 a0 29 50
08 20 35 00 55 50 21 00 00 1e 00 00 00 fc 00 4f
4d 32 37 30 49 2e 51 48 44 0a 20 20 00 00 00 fd
00 30 4b 1e 71 24 00 0a 20 20 20 20 20 20 01 24

00 ff ff ff ff ff ff 00 10 b4 50 27 00 00 00 00
1a 22 01 03 80 3c 21 78 2a 4e 65 a9 55 4d 9c 26
10 50 54 25 4b 80 d1 c0 b3 00 a9 c0 95 00 81 00
81 80 81 40 81 c0 56 5e 00 a0 a0 a0 29 50 30 20
35 00 55 50 21 00 00 1e ac 73 00 6a a0 a0 29 50
08 20 35 00 55 50 21 00 00 1e 00 00 00 fc 00 4f
4d 32 37 30 49 2e 51 48 44 0a 20 20 00 00 00 fd
00 30 4b 1e 71 24 00 0a 20 20 20 20 20 20 01 24

00 ff ff ff ff ff ff 00 10 b4 50 27 00 00 00 00
1a 22 01 03 80 3c 21 78 2a 4e 65 a9 55 4d 9c 26
10 50 54 25 4b 80 d1 c0 b3 00 a9 c0 95 00 81 00
81 80 81 40 81 c0 56 5e 00 a0 a0 a0 29 50 30 20
35 00 55 50 21 00 00 1e ac 73 00 6a a0 a0 29 50
08 20 35 00 55 50 21 00 00 1e 00 00 00 fc 00 4f
4d 32 37 30 49 2e 51 48 44 0a 20 20 00 00 00 fd
00 30 4b 1e 71 24 00 0a 20 20 20 20 20 20 01 24

----------------

Block 0, Base EDID:
  EDID Structure Version & Revision: 1.3
  Vendor & Product Identification:
    Manufacturer: DET
    Model: 10064
    Made in: week 26 of 2024
  Basic Display Parameters & Features:
    Digital display
    Maximum image size: 60 cm x 33 cm
    Gamma: 2.20
    DPMS levels: Off
    RGB color display
    First detailed timing is the preferred timing
  Color Characteristics:
    Red  : 0.6611, 0.3320
    Green: 0.3037, 0.6113
    Blue : 0.1494, 0.0644
    White: 0.3134, 0.3291
  Established Timings I & II:
    DMT 0x04:   640x480    59.940476 Hz   4:3     31.469 kHz     25.175000 MHz
    DMT 0x06:   640x480    75.000000 Hz   4:3     37.500 kHz     31.500000 MHz
    DMT 0x09:   800x600    60.316541 Hz   4:3     37.879 kHz     40.000000 MHz
    DMT 0x0b:   800x600    75.000000 Hz   4:3     46.875 kHz     49.500000 MHz
    DMT 0x10:  1024x768    60.003840 Hz   4:3     48.363 kHz     65.000000 MHz
    DMT 0x12:  1024x768    75.028582 Hz   4:3     60.023 kHz     78.750000 MHz
    DMT 0x24:  1280x1024   75.024675 Hz   5:4     79.976 kHz    135.000000 MHz
    Apple   :  1152x870    75.061550 Hz 192:145   68.681 kHz    100.000000 MHz
  Standard Timings:
    DMT 0x52:  1920x1080   60.000000 Hz  16:9     67.500 kHz    148.500000 MHz
    DMT 0x3a:  1680x1050   59.954250 Hz  16:10    65.290 kHz    146.250000 MHz
    DMT 0x53:  1600x900    60.000000 Hz  16:9     60.000 kHz    108.000000 MHz (RB)
    DMT 0x2f:  1440x900    59.887445 Hz  16:10    55.935 kHz    106.500000 MHz
    DMT 0x1c:  1280x800    59.810326 Hz  16:10    49.702 kHz     83.500000 MHz
    DMT 0x23:  1280x1024   60.019740 Hz   5:4     63.981 kHz    108.000000 MHz
    DMT 0x20:  1280x960    60.000000 Hz   4:3     60.000 kHz    108.000000 MHz
    DMT 0x55:  1280x720    60.000000 Hz  16:9     45.000 kHz     74.250000 MHz
  Detailed Timing Descriptors:
    DTD 1:  2560x1440   59.950550 Hz  16:9     88.787 kHz    241.500000 MHz (597 mm x 336 mm)
                 Hfront   48 Hsync  32 Hback   80 Hpol P
                 Vfront    3 Vsync   5 Vback   33 Vpol P
    DTD 2:  2560x1440   74.998493 Hz  16:9    111.073 kHz    296.120000 MHz (597 mm x 336 mm)
                 Hfront    8 Hsync  32 Hback   66 Hpol P
                 Vfront    3 Vsync   5 Vback   33 Vpol P
    Display Product Name: 'OM270I.QHD'
    Display Range Limits:
      Monitor ranges (GTF): 48-75 Hz V, 30-113 kHz H, max dotclock 360 MHz
  Extension blocks: 1
Checksum: 0x24

----------------

Block 1, Unknown EDID Extension Block 0x00:
  00 ff ff ff ff ff ff 00 10 b4 50 27 00 00 00 00 '..........P'....'
  1a 22 01 03 80 3c 21 78 2a 4e 65 a9 55 4d 9c 26 '."...<!x*Ne.UM.&'
  10 50 54 25 4b 80 d1 c0 b3 00 a9 c0 95 00 81 00 '.PT%K...........'
  81 80 81 40 81 c0 56 5e 00 a0 a0 a0 29 50 30 20 '...@..V^....)P0 '
  35 00 55 50 21 00 00 1e ac 73 00 6a a0 a0 29 50 '5.UP!....s.j..)P'
  08 20 35 00 55 50 21 00 00 1e 00 00 00 fc 00 4f '. 5.UP!........O'
  4d 32 37 30 49 2e 51 48 44 0a 20 20 00 00 00 fd 'M270I.QHD.  ....'
  00 30 4b 1e 71 24 00 0a 20 20 20 20 20 20 01 24 '.0K.q$..      .$'
Checksum: 0x24

----------------

Block 2, Unknown EDID Extension Block 0x00:
  00 ff ff ff ff ff ff 00 10 b4 50 27 00 00 00 00 '..........P'....'
  1a 22 01 03 80 3c 21 78 2a 4e 65 a9 55 4d 9c 26 '."...<!x*Ne.UM.&'
  10 50 54 25 4b 80 d1 c0 b3 00 a9 c0 95 00 81 00 '.PT%K...........'
  81 80 81 40 81 c0 56 5e 00 a0 a0 a0 29 50 30 20 '...@..V^....)P0 '
  35 00 55 50 21 00 00 1e ac 73 00 6a a0 a0 29 50 '5.UP!....s.j..)P'
  08 20 35 00 55 50 21 00 00 1e 00 00 00 fc 00 4f '. 5.UP!........O'
  4d 32 37 30 49 2e 51 48 44 0a 20 20 00 00 00 fd 'M270I.QHD.  ....'
  00 30 4b 1e 71 24 00 0a 20 20 20 20 20 20 01 24 '.0K.q$..      .$'
Checksum: 0x24

----------------

Block 3, Unknown EDID Extension Block 0x00:
  00 ff ff ff ff ff ff 00 10 b4 50 27 00 00 00 00 '..........P'....'
  1a 22 01 03 80 3c 21 78 2a 4e 65 a9 55 4d 9c 26 '."...<!x*Ne.UM.&'
  10 50 54 25 4b 80 d1 c0 b3 00 a9 c0 95 00 81 00 '.PT%K...........'
  81 80 81 40 81 c0 56 5e 00 a0 a0 a0 29 50 30 20 '...@..V^....)P0 '
  35 00 55 50 21 00 00 1e ac 73 00 6a a0 a0 29 50 '5.UP!....s.j..)P'
  08 20 35 00 55 50 21 00 00 1e 00 00 00 fc 00 4f '. 5.UP!........O'
  4d 32 37 30 49 2e 51 48 44 0a 20 20 00 00 00 fd 'M270I.QHD.  ....'
  00 30 4b 1e 71 24 00 0a 20 20 20 20 20 20 01 24 '.0K.q$..      .$'
Checksum: 0x24

----------------

Failures:

Block 1, Base EDID:
  Unknown Extension Block.
Block 2, Base EDID:
  Unknown Extension Block.
Block 3, Base EDID:
  Unknown Extension Block.
EDID:
  Base EDID: EDID specified 1 extension block(s), but found 3 extension block(s).
  Base EDID: EDID 1.3 requires a Block Map Extension in Block 1 if there are more than 2 blocks in the EDID.

EDID conformity: FAIL
