
EDID (hex):
00ffffffffffff000461cd0c00000000
031b0103803e2278ea1ec5ae4f34b126
0e50542fcf00d1cfb300a9c095008181
810081c0d100023a801871382d40582c
3500e00e1100001ae26800a0a0402e60
3020360080902100001a565e00a0a0a0
29503020360080682100001a000000fc
0046482d4844344b0a202020202001db
02033c705261bf050460656603011f12
1314205d5e5f6223090707830100006d
030c001000384420006001020367d85d
c401780000e3050301e20f71888340a0
b0082e7030203600d0c22100001a0474
0030f2705a8030204600c01c3200001a
08e80030f2705a80b0582a00c01c3200
001e000000000000000000000000004e

Extracted contents:
header:          00 ff ff ff ff ff ff 00
serial number:   04 61 cd 0c 00 00 00 00 03 1b
version:         01 03
basic params:    80 3e 22 78 ea
chroma info:     1e c5 ae 4f 34 b1 26 0e 50 54
established:     2f cf 00
standard:        d1 cf b3 00 a9 c0 95 00 81 81 81 00 81 c0 d1 00
descriptor 1:    02 3a 80 18 71 38 2d 40 58 2c 35 00 e0 0e 11 00 00 1a
descriptor 2:    e2 68 00 a0 a0 40 2e 60 30 20 36 00 80 90 21 00 00 1a
descriptor 3:    56 5e 00 a0 a0 a0 29 50 30 20 36 00 80 68 21 00 00 1a
descriptor 4:    00 00 00 fc 00 46 48 2d 48 44 34 4b 0a 20 20 20 20 20
extensions:      01
checksum:        db

EDID version: 1.3
Manufacturer: ACA Model ccd Serial Number --
Made in week 3 of 2017
Digital display
Maximum image size: 62 cm x 34 cm
Gamma: 2.20
DPMS levels: Standby Suspend Off
RGB color display
First detailed timing is preferred timing
Display x,y Chromaticity:
  Red:   0.6796, 0.3095
  Green: 0.2060, 0.6933
  Blue:  0.1513, 0.0546
  White: 0.3134, 0.3291
Established timings supported:
  640x480@60Hz 4:3 HorFreq: 31469 Hz Clock: 25.175 MHz
  640x480@72Hz 4:3 HorFreq: 37900 Hz Clock: 31.500 MHz
  640x480@75Hz 4:3 HorFreq: 37500 Hz Clock: 31.500 MHz
  800x600@56Hz 4:3 HorFreq: 35200 Hz Clock: 36.000 MHz
  800x600@60Hz 4:3 HorFreq: 37900 Hz Clock: 40.000 MHz
  800x600@72Hz 4:3 HorFreq: 48100 Hz Clock: 50.000 MHz
  800x600@75Hz 4:3 HorFreq: 46900 Hz Clock: 49.500 MHz
  1024x768@60Hz 4:3 HorFreq: 48400 Hz Clock: 65.000 MHz
  1024x768@70Hz 4:3 HorFreq: 56500 Hz Clock: 75.000 MHz
  1024x768@75Hz 4:3 HorFreq: 60000 Hz Clock: 78.750 MHz
  1280x1024@75Hz 5:4 HorFreq: 80000 Hz Clock: 135.000 MHz
Standard timings supported:
  1920x1080@75Hz 16:9
  1680x1050@60Hz 16:10 HorFreq: 64700 Hz Clock: 119.000 MHz
  1600x900@60Hz 16:9
  1440x900@60Hz 16:10 HorFreq: 55500 Hz Clock: 88.750 MHz
  1280x1024@61Hz 5:4
  1280x800@60Hz 16:10
  1280x720@60Hz 16:9
  1920x1200@60Hz 16:10 HorFreq: 74000 Hz Clock: 154.000 MHz
Detailed mode: Clock 148.500 MHz, 480 mm x 270 mm
               1920 2008 2052 2200 hborder 0
               1080 1083 1088 1125 vborder 0
               +hsync -vsync 
               VertFreq: 60 Hz, HorFreq: 67500 Hz
Detailed mode: Clock 268.500 MHz, 640 mm x 400 mm
               2560 2608 2640 2720 hborder 0
               1600 1603 1609 1646 vborder 0
               +hsync -vsync 
               VertFreq: 59 Hz, HorFreq: 98713 Hz
Detailed mode: Clock 241.500 MHz, 640 mm x 360 mm
               2560 2608 2640 2720 hborder 0
               1440 1443 1449 1481 vborder 0
               +hsync -vsync 
               VertFreq: 59 Hz, HorFreq: 88786 Hz
Monitor name: FH-HD4K
Has 1 extension blocks
Checksum: 0xdb (valid)

CTA extension block
Extension version: 3
56 bytes of CTA data
  Video data block
    VIC  97 3840x2160@60Hz 16:9  HorFreq: 135000 Hz Clock: 594.000 MHz
    VIC  63 1920x1080@120Hz 16:9 (native) HorFreq: 135000 Hz Clock: 297.000 MHz
    VIC   5 1920x1080i@60Hz 16:9  HorFreq: 33750 Hz Clock: 74.250 MHz
    VIC   4 1280x720@60Hz 16:9  HorFreq: 45000 Hz Clock: 74.250 MHz
    VIC  96 3840x2160@50Hz 16:9  HorFreq: 112500 Hz Clock: 594.000 MHz
    VIC 101 4096x2160@50Hz 256:135  HorFreq: 112500 Hz Clock: 594.000 MHz
    VIC 102 4096x2160@60Hz 256:135  HorFreq: 135000 Hz Clock: 594.000 MHz
    VIC   3 720x480@60Hz 16:9  HorFreq: 31469 Hz Clock: 27.000 MHz
    VIC   1 640x480@60Hz 4:3  HorFreq: 31469 Hz Clock: 25.175 MHz
    VIC  31 1920x1080@50Hz 16:9  HorFreq: 56250 Hz Clock: 148.500 MHz
    VIC  18 720x576@50Hz 16:9  HorFreq: 31250 Hz Clock: 27.000 MHz
    VIC  19 1280x720@50Hz 16:9  HorFreq: 37500 Hz Clock: 74.250 MHz
    VIC  20 1920x1080i@50Hz 16:9  HorFreq: 28125 Hz Clock: 74.250 MHz
    VIC  32 1920x1080@24Hz 16:9  HorFreq: 27000 Hz Clock: 74.250 MHz
    VIC  93 3840x2160@24Hz 16:9  HorFreq: 54000 Hz Clock: 297.000 MHz
    VIC  94 3840x2160@25Hz 16:9  HorFreq: 56250 Hz Clock: 297.000 MHz
    VIC  95 3840x2160@30Hz 16:9  HorFreq: 67500 Hz Clock: 297.000 MHz
    VIC  98 4096x2160@24Hz 256:135  HorFreq: 54000 Hz Clock: 297.000 MHz
  Audio data block
    Linear PCM, max channels 2
      Supported sample rates (kHz): 48 44.1 32
      Supported sample sizes (bits): 24 20 16
  Speaker allocation data block
    Speaker map:
      FL/FR - Front Left/Right
  Vendor-specific data block, OUI 000c03 (HDMI)
    Source physical address 1.0.0.0
    DC_36bit
    DC_30bit
    DC_Y444
    Maximum TMDS clock: 340MHz
    Extended HDMI video details:
      HDMI VIC 1 3840x2160@30Hz 16:9 HorFreq: 67500 Hz Clock: 297.000 MHz
      HDMI VIC 2 3840x2160@25Hz 16:9 HorFreq: 56250 Hz Clock: 297.000 MHz
      HDMI VIC 3 3840x2160@24Hz 16:9 HorFreq: 54000 Hz Clock: 297.000 MHz
  Vendor-specific data block, OUI c45dd8 (HDMI Forum)
    Version: 1
    Maximum TMDS Character Rate: 600MHz
  Extended tag: Colorimetry data block
    xvYCC601
    xvYCC709
  Extended tag: YCbCr 4:2:0 capability map data block
    VSD Index 0
    VSD Index 4
    VSD Index 5
    VSD Index 6
Basic audio support
Supports YCbCr 4:4:4
Supports YCbCr 4:2:2
0 native detailed modes
Detailed mode: Clock 336.720 MHz, 720 mm x 450 mm
               2880 2928 2960 3040 hborder 0
               1800 1803 1809 1846 vborder 0
               +hsync -vsync 
               VertFreq: 60 Hz, HorFreq: 110763 Hz
Detailed mode: Clock 297.000 MHz, 960 mm x 540 mm
               3840 3888 3920 4400 hborder 0
               2160 2164 2170 2250 vborder 0
               +hsync -vsync 
               VertFreq: 30 Hz, HorFreq: 67500 Hz
Detailed mode: Clock 594.000 MHz, 960 mm x 540 mm
               3840 4016 4104 4400 hborder 0
               2160 2162 2172 2250 vborder 0
               +hsync +vsync 
               VertFreq: 60 Hz, HorFreq: 135000 Hz
Checksum: 0x4e (valid)

EDID block does NOT conform to EDID 1.3!
	Missing monitor ranges
