
EDID (hex):
00ffffffffffff000610569c00000000
04100103802216780a87f594574f8c27
27505400000001010101010101010101
0101010101019f25a04051840c304020
33004bcf100000190000000100061030
00000000000000000a20000000fe004c
544e31353458370000000a20000000fc
00436f6c6f72204c43440a20202000d5

Extracted contents:
header:          00 ff ff ff ff ff ff 00
serial number:   06 10 56 9c 00 00 00 00 04 10
version:         01 03
basic params:    80 22 16 78 0a
chroma info:     87 f5 94 57 4f 8c 27 27 50 54
established:     00 00 00
standard:        01 01 01 01 01 01 01 01 01 01 01 01 01 01 01 01
descriptor 1:    9f 25 a0 40 51 84 0c 30 40 20 33 00 4b cf 10 00 00 19
descriptor 2:    00 00 00 01 00 06 10 30 00 00 00 00 00 00 00 00 0a 20
descriptor 3:    00 00 00 fe 00 4c 54 4e 31 35 34 58 37 00 00 00 0a 20
descriptor 4:    00 00 00 fc 00 43 6f 6c 6f 72 20 4c 43 44 0a 20 20 20
extensions:      00
checksum:        d5

EDID version: 1.3
Manufacturer: APP Model 9c56 Serial Number --
Made in week 4 of 2006
Digital display
Maximum image size: 34 cm x 22 cm
Gamma: 2.20
RGB color display
First detailed timing is preferred timing
Display x,y Chromaticity:
  Red:   0.5800, 0.3398
  Green: 0.3095, 0.5498
  Blue:  0.1552, 0.1552
  White: 0.3134, 0.3291
Established timings supported:
Standard timings supported:
Detailed mode: Clock 96.310 MHz, 331 mm x 207 mm
               1440 1504 1536 1760 hborder 0
                900  903  906  912 vborder 0
               -hsync -vsync 
               VertFreq: 60 Hz, HorFreq: 54721 Hz
Manufacturer-specified data, tag 1
ASCII string: LTN154X7
Monitor name: Color LCD
Checksum: 0xd5 (valid)
EDID block does NOT conform to EDID 1.3!
	Missing monitor ranges
	Detailed block string not properly terminated
