
EDID (hex):
00ffffffffffff0030e4bb0200000000
0014010490160d780a296599574f9927
1e505400000001010101010101010101
010101010101bc1b5684500016303020
3500df7d0000001bbc1b56d35100c830
30203500df7d0000001b000000fe0034
3659334d803130315748310a00000000
00004133940100000001010a2020007e

Extracted contents:
header:          00 ff ff ff ff ff ff 00
serial number:   30 e4 bb 02 00 00 00 00 00 14
version:         01 04
basic params:    90 16 0d 78 0a
chroma info:     29 65 99 57 4f 99 27 1e 50 54
established:     00 00 00
standard:        01 01 01 01 01 01 01 01 01 01 01 01 01 01 01 01
descriptor 1:    bc 1b 56 84 50 00 16 30 30 20 35 00 df 7d 00 00 00 1b
descriptor 2:    bc 1b 56 d3 51 00 c8 30 30 20 35 00 df 7d 00 00 00 1b
descriptor 3:    00 00 00 fe 00 34 36 59 33 4d 80 31 30 31 57 48 31 0a
descriptor 4:    00 00 00 00 00 00 41 33 94 01 00 00 00 01 01 0a 20 20
extensions:      00
checksum:        7e

EDID version: 1.4
Manufacturer: LGD Model 2bb Serial Number --
Made in year 2010
Digital display
6 bits per primary color channel
Digital interface is not defined
Maximum image size: 22 cm x 13 cm
Gamma: 2.20
Supported color formats: RGB 4:4:4, YCrCb 4:4:4
First detailed timing includes the native pixel format and preferred refresh rate
Display x,y Chromaticity:
  Red:   0.5976, 0.3417
  Green: 0.3105, 0.5986
  Blue:  0.1533, 0.1191
  White: 0.3134, 0.3291
Established timings supported:
Standard timings supported:
Detailed mode: Clock 71.000 MHz, 223 mm x 125 mm
               1366 1414 1446 1498 hborder 0
                768  771  776  790 vborder 0
               +hsync -vsync 
               VertFreq: 59 Hz, HorFreq: 47396 Hz
Detailed mode: Clock 71.000 MHz, 223 mm x 125 mm
               1366 1414 1446 1833 hborder 0
                768  771  776  968 vborder 0
               +hsync -vsync 
               VertFreq: 40 Hz, HorFreq: 38734 Hz
ASCII string: 46Y3M
Manufacturer-specified data, tag 0
Checksum: 0x7e (valid)
EDID block does NOT conform to EDID 1.4!
	Missing name descriptor
	Missing monitor ranges
	Detailed block string not properly terminated
