edid-decode (hex):

00 ff ff ff ff ff ff 00 22 f0 5a 28 01 01 00 00
1e 13 01 03 80 2f 1b 78 0a 35 85 a6 56 48 9a 24
12 50 54 00 00 00 01 01 01 01 01 01 01 01 01 01
01 01 01 01 01 01 20 35 80 8c 70 38 14 40 3c 3c
a8 00 d6 0e 11 00 00 18 00 00 00 fe 00 5a 4e 36
0a 20 20 20 20 20 20 20 20 20 00 00 00 fe 00 48
50 0a 20 20 20 20 20 20 20 20 20 20 00 00 00 fe
00 4d 32 31 35 48 57 30 31 0a 20 20 20 20 00 90

----------------

Block 0, Base EDID:
  EDID Structure Version & Revision: 1.3
  Vendor & Product Identification:
    Manufacturer: HWP
    Model: 10330
    Serial Number: ...
    Made in: week 30 of 2009
  Basic Display Parameters & Features:
    Digital display
    Maximum image size: 47 cm x 27 cm
    Gamma: 2.20
    RGB color display
    First detailed timing is preferred timing
  Color Characteristics:
    Red  : 0.6484, 0.3388
    Green: 0.2822, 0.6025
    Blue : 0.1425, 0.0703
    White: 0.3134, 0.3291
  Established Timings I & II: none
  Standard Timings: none
  Detailed Timing Descriptors:
    DTD 1:  1920x1080   60.018 Hz  16:9    66.019 kHz 136.000 MHz (470 mm x 270 mm)
                 Hfront   60 Hsync  60 Hback  20 Hpol N
                 Vfront   10 Vsync   8 Vback   2 Vpol N
    Alphanumeric Data String: 'ZN6'
    Alphanumeric Data String: 'HP'
    Alphanumeric Data String: 'M215HW01'
Checksum: 0x90
