
EDID (hex):
00ffffffffffff000daf181700000000
17140103902616780a06359e56529829
14505400000001010101010101010101
0101010101012c2a402c61842f30573a
59007ed71000001a2c2a402c61842f30
573a59007ed71000001a000000fe004b
504d5254804e3137334f360a00000000
00000000000000000002010a202000e5

Extracted contents:
header:          00 ff ff ff ff ff ff 00
serial number:   0d af 18 17 00 00 00 00 17 14
version:         01 03
basic params:    90 26 16 78 0a
chroma info:     06 35 9e 56 52 98 29 14 50 54
established:     00 00 00
standard:        01 01 01 01 01 01 01 01 01 01 01 01 01 01 01 01
descriptor 1:    2c 2a 40 2c 61 84 2f 30 57 3a 59 00 7e d7 10 00 00 1a
descriptor 2:    2c 2a 40 2c 61 84 2f 30 57 3a 59 00 7e d7 10 00 00 1a
descriptor 3:    00 00 00 fe 00 4b 50 4d 52 54 80 4e 31 37 33 4f 36 0a
descriptor 4:    00 00 00 00 00 00 00 00 00 00 00 00 00 02 01 0a 20 20
extensions:      00
checksum:        e5

EDID version: 1.3
Manufacturer: CMO Model 1718 Serial Number --
Made in week 23 of 2010
Digital display
Maximum image size: 38 cm x 22 cm
Gamma: 2.20
RGB color display
First detailed timing is preferred timing
Display x,y Chromaticity:
  Red:   0.6171, 0.3359
  Green: 0.3212, 0.5957
  Blue:  0.1601, 0.0810
  White: 0.3134, 0.3291
Established timings supported:
Standard timings supported:
Detailed mode: Clock 107.960 MHz, 382 mm x 215 mm
               1600 1687 1745 1900 hborder 0
                900  905  914  947 vborder 0
               +hsync -vsync 
               VertFreq: 60 Hz, HorFreq: 56821 Hz
Detailed mode: Clock 107.960 MHz, 382 mm x 215 mm
               1600 1687 1745 1900 hborder 0
                900  905  914  947 vborder 0
               +hsync -vsync 
               VertFreq: 60 Hz, HorFreq: 56821 Hz
ASCII string: KPMRT
Manufacturer-specified data, tag 0
Checksum: 0xe5 (valid)
EDID block does NOT conform to EDID 1.3!
	Digital display field contains garbage: 10
	Missing name descriptor
	Missing monitor ranges
	Detailed block string not properly terminated
