edid-decode (hex):

00 ff ff ff ff ff ff 00 52 62 88 88 00 88 88 88
1c 15 01 03 80 00 00 78 0a ee 91 a3 54 4c 99 26
0f 50 54 2f cf 00 01 00 01 00 01 00 01 00 01 00
01 00 01 01 01 01 8c 23 00 a0 50 00 1e 40 30 20
37 00 80 00 10 00 00 1e 00 00 00 fc 00 50 49 2d
4b 56 4d 20 56 69 64 65 6f 0a 00 00 00 fd 00 32
3d 0f 2e 0f 00 00 00 00 00 00 00 00 00 00 00 10
00 00 00 00 00 00 00 00 00 00 00 00 00 00 01 6b

02 03 04 00 de 0d 20 a0 30 58 12 20 30 20 34 00
f0 b4 00 00 00 18 e0 15 00 a0 40 00 16 30 30 20
34 00 00 00 00 00 00 18 b4 14 00 a0 50 d0 11 20
30 20 35 00 80 d8 10 00 00 18 ab 22 a0 a0 50 84
1a 30 30 20 36 00 b0 0e 11 00 00 18 00 00 00 00
00 00 00 00 00 00 00 00 00 00 00 00 00 00 00 00
00 00 00 00 00 00 00 00 00 00 00 00 00 00 00 00
00 00 00 00 00 00 00 00 00 00 00 00 00 00 00 45

00 ff ff ff ff ff ff 00 52 62 88 88 00 88 88 88
1c 15 01 03 80 00 00 78 0a ee 91 a3 54 4c 99 26
0f 50 54 2f cf 00 01 00 01 00 01 00 01 00 01 00
01 00 01 01 01 01 8c 23 00 a0 50 00 1e 40 30 20
37 00 80 00 10 00 00 1e 00 00 00 fc 00 50 49 2d
4b 56 4d 20 56 69 64 65 6f 0a 00 00 00 fd 00 32
3d 0f 2e 0f 00 00 00 00 00 00 00 00 00 00 00 10
00 00 00 00 00 00 00 00 00 00 00 00 00 00 01 6b

02 03 04 00 de 0d 20 a0 30 58 12 20 30 20 34 00
f0 b4 00 00 00 18 e0 15 00 a0 40 00 16 30 30 20
34 00 00 00 00 00 00 18 b4 14 00 a0 50 d0 11 20
30 20 35 00 80 d8 10 00 00 18 ab 22 a0 a0 50 84
1a 30 30 20 36 00 b0 0e 11 00 00 18 00 00 00 00
00 00 00 00 00 00 00 00 00 00 00 00 00 00 00 00
00 00 00 00 00 00 00 00 00 00 00 00 00 00 00 00
00 00 00 00 00 00 00 00 00 00 00 00 00 00 00 45

----------------

Block 0, Base EDID:
  EDID Structure Version & Revision: 1.3
  Vendor & Product Identification:
    Manufacturer: TSB
    Model: 34952
    Serial Number: ...
    Made in: week 28 of 2011
  Basic Display Parameters & Features:
    Digital display
    Image size is variable
    Gamma: 2.20
    RGB color display
    First detailed timing is the preferred timing
  Color Characteristics:
    Red  : 0.6396, 0.3300
    Green: 0.2998, 0.5996
    Blue : 0.1503, 0.0595
    White: 0.3125, 0.3291
  Established Timings I & II:
    DMT 0x04:   640x480    59.940476 Hz   4:3     31.469 kHz     25.175000 MHz
    DMT 0x05:   640x480    72.808802 Hz   4:3     37.861 kHz     31.500000 MHz
    DMT 0x06:   640x480    75.000000 Hz   4:3     37.500 kHz     31.500000 MHz
    DMT 0x08:   800x600    56.250000 Hz   4:3     35.156 kHz     36.000000 MHz
    DMT 0x09:   800x600    60.316541 Hz   4:3     37.879 kHz     40.000000 MHz
    DMT 0x0a:   800x600    72.187572 Hz   4:3     48.077 kHz     50.000000 MHz
    DMT 0x0b:   800x600    75.000000 Hz   4:3     46.875 kHz     49.500000 MHz
    DMT 0x10:  1024x768    60.003840 Hz   4:3     48.363 kHz     65.000000 MHz
    DMT 0x11:  1024x768    70.069359 Hz   4:3     56.476 kHz     75.000000 MHz
    DMT 0x12:  1024x768    75.028582 Hz   4:3     60.023 kHz     78.750000 MHz
    DMT 0x24:  1280x1024   75.024675 Hz   5:4     79.976 kHz    135.000000 MHz
  Standard Timings:
  Detailed Timing Descriptors:
    DTD 1:  1280x1024   59.956778 Hz   5:4     63.194 kHz     91.000000 MHz (384 mm x 0 mm)
                 Hfront   48 Hsync  32 Hback   80 Hpol P
                 Vfront    3 Vsync   7 Vback   20 Vpol P
    Display Product Name: 'PI-KVM Video'
    Display Range Limits:
      Monitor ranges (GTF): 50-61 Hz V, 15-46 kHz H, max dotclock 150 MHz
    Dummy Descriptor:
  Extension blocks: 1
Checksum: 0x6b

----------------

Block 1, CTA-861 Extension Block:
  Revision: 3
  Native detailed modes: 0
  Detailed Timing Descriptors:
    DTD 2:   800x600    59.836839 Hz   4:3     36.979 kHz     35.500000 MHz (240 mm x 180 mm)
                 Hfront   48 Hsync  32 Hback   80 Hpol N
                 Vfront    3 Vsync   4 Vback   11 Vpol N
    DTD 3:  1024x768    59.869997 Hz   4:3     47.297 kHz     56.000000 MHz
                 Hfront   48 Hsync  32 Hback   80 Hpol N
                 Vfront    3 Vsync   4 Vback   15 Vpol N
    DTD 4:  1280x720    49.939695 Hz  16:9     36.806 kHz     53.000000 MHz (384 mm x 216 mm)
                 Hfront   48 Hsync  32 Hback   80 Hpol N
                 Vfront    3 Vsync   5 Vback    9 Vpol N
    DTD 5:  1440x900    59.901458 Hz  16:10    55.469 kHz     88.750000 MHz (432 mm x 270 mm)
                 Hfront   48 Hsync  32 Hback   80 Hpol N
                 Vfront    3 Vsync   6 Vback   17 Vpol N
Checksum: 0x45  Unused space in Extension Block: 51 bytes

----------------

Block 2, Unknown EDID Extension Block 0x00:
  00 ff ff ff ff ff ff 00 52 62 88 88 00 88 88 88 '........Rb......'
  1c 15 01 03 80 00 00 78 0a ee 91 a3 54 4c 99 26 '.......x....TL.&'
  0f 50 54 2f cf 00 01 00 01 00 01 00 01 00 01 00 '.PT/............'
  01 00 01 01 01 01 8c 23 00 a0 50 00 1e 40 30 20 '.......#..P..@0 '
  37 00 80 00 10 00 00 1e 00 00 00 fc 00 50 49 2d '7............PI-'
  4b 56 4d 20 56 69 64 65 6f 0a 00 00 00 fd 00 32 'KVM Video......2'
  3d 0f 2e 0f 00 00 00 00 00 00 00 00 00 00 00 10 '=...............'
  00 00 00 00 00 00 00 00 00 00 00 00 00 00 01 6b '...............k'
Checksum: 0x6b

----------------

Block 3, CTA-861 Extension Block:
  Revision: 3
  Native detailed modes: 0
  Detailed Timing Descriptors:
    DTD 6:   800x600    59.836839 Hz   4:3     36.979 kHz     35.500000 MHz (240 mm x 180 mm)
                 Hfront   48 Hsync  32 Hback   80 Hpol N
                 Vfront    3 Vsync   4 Vback   11 Vpol N
    DTD 7:  1024x768    59.869997 Hz   4:3     47.297 kHz     56.000000 MHz
                 Hfront   48 Hsync  32 Hback   80 Hpol N
                 Vfront    3 Vsync   4 Vback   15 Vpol N
    DTD 8:  1280x720    49.939695 Hz  16:9     36.806 kHz     53.000000 MHz (384 mm x 216 mm)
                 Hfront   48 Hsync  32 Hback   80 Hpol N
                 Vfront    3 Vsync   5 Vback    9 Vpol N
    DTD 9:  1440x900    59.901458 Hz  16:10    55.469 kHz     88.750000 MHz (432 mm x 270 mm)
                 Hfront   48 Hsync  32 Hback   80 Hpol N
                 Vfront    3 Vsync   6 Vback   17 Vpol N
Checksum: 0x45  Unused space in Extension Block: 51 bytes

----------------

Warnings:

Block 1, CTA-861 Extension Block:
  IT Video Formats are overscanned by default, but normally this should be underscanned.
  Detailed Timing Descriptor #5: DTD is similar but not identical to DMT 0x2e.
Block 3, CTA-861 Extension Block:
  IT Video Formats are overscanned by default, but normally this should be underscanned.
  Detailed Timing Descriptor #9: DTD is similar but not identical to DMT 0x2e.

Failures:

Block 0, Base EDID:
  Basic Display Parameters & Features: The chromaticities match sRGB, but sRGB is not signaled.
  Standard Timings: Use 0x0101 as the invalid Standard Timings code, not 0x0100.
  Standard Timings: Use 0x0101 as the invalid Standard Timings code, not 0x0100.
  Standard Timings: Use 0x0101 as the invalid Standard Timings code, not 0x0100.
  Standard Timings: Use 0x0101 as the invalid Standard Timings code, not 0x0100.
  Standard Timings: Use 0x0101 as the invalid Standard Timings code, not 0x0100.
  Standard Timings: Use 0x0101 as the invalid Standard Timings code, not 0x0100.
  Display Range Limits: Byte 11 is 0x00 instead of 0x0a.
  Display Range Limits: Bytes 12-17 must be 0x20.
Block 1, CTA-861 Extension Block:
  Missing VCDB, needed for Set Selectable RGB Quantization to avoid interop issues.
Block 2, Base EDID:
  Unknown Extension Block.
Block 3, CTA-861 Extension Block:
  Missing VCDB, needed for Set Selectable RGB Quantization to avoid interop issues.
EDID:
  Base EDID: Some timings are out of range of the Monitor Ranges:
    Vertical Freq: 49.940 - 75.029 Hz (Monitor: 50.000 - 61.000 Hz)
    Horizontal Freq: 31.468 - 79.976 kHz (Monitor: 15.000 - 46.000 kHz)
  Base EDID: The DTD max image size is 432x270mm, but the display size is not specified anywhere.
  Base EDID: EDID specified 1 extension block(s), but found 3 extension block(s).
  Base EDID: EDID 1.3 requires a Block Map Extension in Block 1 if there are more than 2 blocks in the EDID.

EDID conformity: FAIL
