
EDID (hex):
00ffffffffffff005262888800888888
1c15010380060d780a0dc9a057479827
12484c00000001010101010101010101
010101010101a032386a407018802220
e200428600000018350cf86a10e81830
2220e2003f7d00000018000000fc0053
637265656e58706572742d0a000000fd
00147801ff1d000a2020202020200026

Extracted contents:
header:          00 ff ff ff ff ff ff 00
serial number:   52 62 88 88 00 88 88 88 1c 15
version:         01 03
basic params:    80 06 0d 78 0a
chroma info:     0d c9 a0 57 47 98 27 12 48 4c
established:     00 00 00
standard:        01 01 01 01 01 01 01 01 01 01 01 01 01 01 01 01
descriptor 1:    a0 32 38 6a 40 70 18 80 22 20 e2 00 42 86 00 00 00 18
descriptor 2:    35 0c f8 6a 10 e8 18 30 22 20 e2 00 3f 7d 00 00 00 18
descriptor 3:    00 00 00 fc 00 53 63 72 65 65 6e 58 70 65 72 74 2d 0a
descriptor 4:    00 00 00 fd 00 14 78 01 ff 1d 00 0a 20 20 20 20 20 20
extensions:      00
checksum:        26

EDID version: 1.3
Manufacturer: TSB Model 8888 Serial Number --
Made in week 28 of 2011
Digital display
Maximum image size: 6 cm x 13 cm
Gamma: 2.20
RGB color display
First detailed timing is preferred timing
Display x,y Chromaticity:
  Red:   0.6250, 0.3398
  Green: 0.2802, 0.5947
  Blue:  0.1552, 0.0703
  White: 0.2832, 0.2978
Established timings supported:
Standard timings supported:
Detailed mode: Clock 129.600 MHz, 66 mm x 134 mm
               1080 1114 1146 1186 hborder 0
               2160 2174 2176 2184 vborder 0
               -hsync -vsync 
               VertFreq: 50 Hz, HorFreq: 109274 Hz
Detailed mode: Clock 31.250 MHz, 63 mm x 125 mm
                504  538  570  610 hborder 0
               1000 1014 1016 1024 vborder 0
               -hsync -vsync 
               VertFreq: 50 Hz, HorFreq: 51229 Hz
Monitor name: ScreenXpert-
Monitor ranges (GTF): 20-120Hz V, 1-255kHz H, max dotclock 290MHz
Checksum: 0x26 (valid)
