
EDID (hex):
00ffffffffffff0009e5c10a00000000
271f0104b522157803a2a1a3544d9926
0f505400000001010101010101010101
0101010101011f6c00a0a04060603020
360058d710000018000000fd003078cc
cc37010a202020202020000000fe0042
4f452043510a202020202020000000fe
004e4531363051444d2d4e59320a013e
70137900000301143dd80085ff099f00
2f001f003f065f000200050000000000
00000000000000000000000000000000
00000000000000000000000000000000
00000000000000000000000000000000
00000000000000000000000000000000
00000000000000000000000000000000
00000000000000000000000000002290

Extracted contents:
header:          00 ff ff ff ff ff ff 00
serial number:   09 e5 c1 0a 00 00 00 00 27 1f
version:         01 04
basic params:    b5 22 15 78 03
chroma info:     a2 a1 a3 54 4d 99 26 0f 50 54
established:     00 00 00
standard:        01 01 01 01 01 01 01 01 01 01 01 01 01 01 01 01
descriptor 1:    1f 6c 00 a0 a0 40 60 60 30 20 36 00 58 d7 10 00 00 18
descriptor 2:    00 00 00 fd 00 30 78 cc cc 37 01 0a 20 20 20 20 20 20
descriptor 3:    00 00 00 fe 00 42 4f 45 20 43 51 0a 20 20 20 20 20 20
descriptor 4:    00 00 00 fe 00 4e 45 31 36 30 51 44 4d 2d 4e 59 32 0a
extensions:      01
checksum:        3e

EDID version: 1.4
Manufacturer: BOE Model ac1 Serial Number --
Made in week 39 of 2021
Digital display
10 bits per primary color channel
DisplayPort interface
Maximum image size: 34 cm x 21 cm
Gamma: 2.20
Supported color formats: RGB 4:4:4
First detailed timing includes the native pixel format and preferred refresh rate
Display is continuous frequency
Display x,y Chromaticity:
  Red:   0.6386, 0.3300
  Green: 0.3007, 0.5996
  Blue:  0.1503, 0.0605
  White: 0.3125, 0.3291
Established timings supported:
Standard timings supported:
Detailed mode: Clock 276.790 MHz, 344 mm x 215 mm
               2560 2608 2640 2720 hborder 0
               1600 1603 1609 1696 vborder 0
               -hsync -vsync 
               VertFreq: 60 Hz, HorFreq: 101761 Hz
Monitor ranges (bare limits): 48-120Hz V, 204-204kHz H, max dotclock 550MHz
ASCII string: BOE CQ
ASCII string: NE160QDM-NY2
Has 1 extension blocks
Checksum: 0x3e (valid)

DisplayID extension block
Extension version: 19
Length 121, version 19, extension count 0
Checksum: 0x22 (valid)
Type 1 detailed timing: aspect: 16:10, Preferred  
Detailed mode: Clock 553.570 MHz, 0 mm x 0 mm
               2559 2606 2637 2718
               1599 1601 1606 1694
               -hsync -vsync

EDID block does NOT conform to EDID 1.4!
	Missing name descriptor
Warning: One or more of the timings is out of range of the Monitor Ranges:
  Vertical Freq: 60 - 60 Hz
  Horizontal Freq: 101761 - 101761 Hz
  Maximum Clock: 276.790 MHz
EDID block does not conform at all!
	Has -1040187392 nonconformant extension block(s)
