edid-decode (hex):

00 ff ff ff ff ff ff 00 0e 11 49 13 33 32 38 4e
19 09 01 01 6c 21 19 a0 e8 8a 82 a0 56 47 96 24
0f 48 4f 25 6a 00 81 80 61 59 45 59 31 59 01 01
01 01 01 01 01 01 4e 0c 80 c0 20 5e 5f 10 20 40
03 08 36 e8 10 00 00 1a 00 00 00 fd 00 32 a0 1e
46 ff 00 0a 20 20 20 20 20 20 00 00 00 ff 00 39
32 35 43 44 36 31 53 4e 38 32 33 0a 00 00 00 fc
00 43 4f 4d 50 41 51 20 53 37 30 30 0a 20 00 2f

00 ff ff ff ff ff ff 00 0e 11 49 13 33 32 38 4e
19 09 01 01 6c 21 19 a0 e8 8a 82 a0 56 47 96 24
0f 48 4f 25 6a 00 81 80 61 59 45 59 31 59 01 01
01 01 01 01 01 01 4e 0c 80 c0 20 5e 5f 10 20 40
03 08 36 e8 10 00 00 1a 00 00 00 fd 00 32 a0 1e
46 ff 00 0a 20 20 20 20 20 20 00 00 00 ff 00 39
32 35 43 44 36 31 53 4e 38 32 33 0a 00 00 00 fc
00 43 4f 4d 50 41 51 20 53 37 30 30 0a 20 00 2f

----------------

Block 0, Base EDID:
  EDID Structure Version & Revision: 1.1
  Vendor & Product Identification:
    Manufacturer: CPQ
    Model: 4937
    Serial Number: ...
    Made in: week 25 of 1999
  Basic Display Parameters & Features:
    Analog display
    Signal Level Standard: 0.700 : 0.000 : 0.700 V p-p
    Blank level equals black level
    Sync: Separate Composite
    Maximum image size: 33 cm x 25 cm
    Gamma: 2.60
    DPMS levels: Standby Suspend Off
    RGB color display
  Color Characteristics:
    Red  : 0.6269, 0.3359
    Green: 0.2792, 0.5878
    Blue : 0.1425, 0.0585
    White: 0.2812, 0.3105
  Established Timings I & II:
    DMT 0x04:   640x480    59.940476 Hz   4:3     31.469 kHz     25.175000 MHz
    DMT 0x06:   640x480    75.000000 Hz   4:3     37.500 kHz     31.500000 MHz
    DMT 0x09:   800x600    60.316541 Hz   4:3     37.879 kHz     40.000000 MHz
    DMT 0x0b:   800x600    75.000000 Hz   4:3     46.875 kHz     49.500000 MHz
    Apple   :   832x624    74.551266 Hz   4:3     49.726 kHz     57.284000 MHz
    DMT 0x10:  1024x768    60.003840 Hz   4:3     48.363 kHz     65.000000 MHz
    DMT 0x12:  1024x768    75.028582 Hz   4:3     60.023 kHz     78.750000 MHz
  Standard Timings:
    DMT 0x23:  1280x1024   60.019740 Hz   5:4     63.981 kHz    108.000000 MHz
    DMT 0x13:  1024x768    84.996690 Hz   4:3     68.677 kHz     94.500000 MHz
    DMT 0x0c:   800x600    85.061274 Hz   4:3     53.674 kHz     56.250000 MHz
    DMT 0x07:   640x480    85.008312 Hz   4:3     43.269 kHz     36.000000 MHz
  Detailed Timing Descriptors:
    DTD 1:   640x350    85.079948 Hz  64:35    37.861 kHz     31.500000 MHz (310 mm x 232 mm)
                 Hfront   32 Hsync  64 Hback   96 Hpol P
                 Vfront   32 Vsync   3 Vback   60 Vpol N
    Display Range Limits:
      Monitor ranges (GTF): 50-160 Hz V, 30-70 kHz H, max dotclock 2550 MHz
    Display Product Serial Number: ...
    Display Product Name: 'COMPAQ S700'
Checksum: 0x2f

----------------

Block 1, Unknown EDID Extension Block 0x00:
  00 ff ff ff ff ff ff 00 0e 11 49 13 33 32 38 4e '..........I.328N'
  19 09 01 01 6c 21 19 a0 e8 8a 82 a0 56 47 96 24 '....l!......VG.$'
  0f 48 4f 25 6a 00 81 80 61 59 45 59 31 59 01 01 '.HO%j...aYEY1Y..'
  01 01 01 01 01 01 4e 0c 80 c0 20 5e 5f 10 20 40 '......N... ^_. @'
  03 08 36 e8 10 00 00 1a 00 00 00 fd 00 32 a0 1e '..6..........2..'
  46 ff 00 0a 20 20 20 20 20 20 00 00 00 ff 00 39 'F...      .....9'
  32 35 43 44 36 31 53 4e 38 32 33 0a 00 00 00 fc '25CD61SN823.....'
  00 43 4f 4d 50 41 51 20 53 37 30 30 0a 20 00 2f '.COMPAQ S700. ./'
Checksum: 0x2f

----------------

Warnings:

Block 0, Base EDID:
  EDID Structure Version & Revision: EDID 1.1 is deprecated, do not use.

Failures:

Block 0, Base EDID:
  Detailed Timing Descriptor #1: Mismatch of image size 310x232 mm vs display size 330x250 mm.
Block 1, Base EDID:
  Unknown Extension Block.
EDID:
  Base EDID: EDID specified 0 extension block(s), but found 1 extension block(s).

EDID conformity: FAIL
