
EDID (hex):
00ffffffffffff000e6f151430305048
001f0104b51e1478030f95ae5243b026
0f505400000001010101010101010101
0101010101013bfa30a0c0205a803020
3a002cc810000018000000fd00305ac3
c340010a202020202020000000fe0043
534f542054330a5532363220000000fe
004d4e453230385a41322d310a20021f
02030f00e3058000e60605016f6f2200
00000000000000000000000000000000
00000000000000000000000000000000
00000000000000000000000000000000
00000000000000000000000000000000
00000000000000000000000000000000
00000000000000000000000000000000
00000000000000000000000000000092
70137900000301283bfa00042f0c9f00
2f001f001f089604020009003bfa0004
2f0c9f002f001f001f08c40702000900
00000000000000000000000000000000
00000000000000000000000000000000
00000000000000000000000000000000
00000000000000000000000000000000
0000000000000000000000000000bd90

Extracted contents:
header:          00 ff ff ff ff ff ff 00
serial number:   0e 6f 15 14 30 30 50 48 00 1f
version:         01 04
basic params:    b5 1e 14 78 03
chroma info:     0f 95 ae 52 43 b0 26 0f 50 54
established:     00 00 00
standard:        01 01 01 01 01 01 01 01 01 01 01 01 01 01 01 01
descriptor 1:    3b fa 30 a0 c0 20 5a 80 30 20 3a 00 2c c8 10 00 00 18
descriptor 2:    00 00 00 fd 00 30 5a c3 c3 40 01 0a 20 20 20 20 20 20
descriptor 3:    00 00 00 fe 00 43 53 4f 54 20 54 33 0a 55 32 36 32 20
descriptor 4:    00 00 00 fe 00 4d 4e 45 32 30 38 5a 41 32 2d 31 0a 20
extensions:      02
checksum:        1f

EDID version: 1.4
Manufacturer: CSO Model 1415 Serial Number --
Made in year 2021
Digital display
10 bits per primary color channel
DisplayPort interface
Maximum image size: 30 cm x 20 cm
Gamma: 2.20
Supported color formats: RGB 4:4:4
First detailed timing includes the native pixel format and preferred refresh rate
Display is continuous frequency
Display x,y Chromaticity:
  Red:   0.6796, 0.3203
  Green: 0.2646, 0.6904
  Blue:  0.1503, 0.0595
  White: 0.3134, 0.3291
Established timings supported:
Standard timings supported:
Detailed mode: Clock 640.590 MHz, 300 mm x 200 mm
               3120 3168 3200 3280 hborder 0
               2080 2083 2093 2170 vborder 0
               -hsync -vsync 
               VertFreq: 90 Hz, HorFreq: 195301 Hz
Monitor ranges (bare limits): 48-90Hz V, 195-195kHz H, max dotclock 640MHz
ASCII string: CSOT T3
ASCII string: MNE208ZA2-1
Has 2 extension blocks
Checksum: 0x1f (valid)

CTA extension block
Extension version: 3
11 bytes of CTA data
  Extended tag: Colorimetry data block
    BT2020RGB
  Extended tag: HDR static metadata data block
    Electro optical transfer functions:
      Traditional gamma - SDR luminance range
      SMPTE ST2084
    Supported static metadata descriptors:
      Static metadata type 1
    Desired content max luminance: 111 (553.564 cd/m^2)
    Desired content max frame-average luminance: 111 (553.564 cd/m^2)
    Desired content min luminance: 34 (0.098 cd/m^2)
0 native detailed modes
Checksum: 0x92 (valid)


DisplayID extension block
Extension version: 19
Length 121, version 19, extension count 0
Checksum: 0xbd (valid)
Type 1 detailed timing: aspect: 16:9,  
Detailed mode: Clock 640.590 MHz, 0 mm x 0 mm
               3119 3166 3197 3278
               2079 2081 2090 3253
               -hsync -vsync
Type 1 detailed timing: aspect: 16:9,  
Detailed mode: Clock 640.590 MHz, 0 mm x 0 mm
               3119 3166 3197 3278
               2079 2081 2090 4067
               -hsync -vsync

EDID block does NOT conform to EDID 1.4!
	Required 640x480p60 timings are missing in the established timings
	and/or in the SVD list (VIC 1)
	Missing name descriptor
Warning: One or more of the timings is out of range of the Monitor Ranges:
  Vertical Freq: 90 - 90 Hz
  Horizontal Freq: 195301 - 195301 Hz
  Maximum Clock: 640.590 MHz
