
EDID (hex):
00ffffffffffff004cab66130f000000
2c160103084627780a4dfea656439c26
114849adce00810081c0010101010101
010101010101662150b051001b304070
3600bc862100001e662156aa51001e30
468f3300bc862100001a000000fd002f
3f273208000a202020202020000000fc
0053433332485430340a2020202000c7

Extracted contents:
header:          00 ff ff ff ff ff ff 00
serial number:   4c ab 66 13 0f 00 00 00 2c 16
version:         01 03
basic params:    08 46 27 78 0a
chroma info:     4d fe a6 56 43 9c 26 11 48 49
established:     ad ce 00
standard:        81 00 81 c0 01 01 01 01 01 01 01 01 01 01 01 01
descriptor 1:    66 21 50 b0 51 00 1b 30 40 70 36 00 bc 86 21 00 00 1e
descriptor 2:    66 21 56 aa 51 00 1e 30 46 8f 33 00 bc 86 21 00 00 1a
descriptor 3:    00 00 00 fd 00 2f 3f 27 32 08 00 0a 20 20 20 20 20 20
descriptor 4:    00 00 00 fc 00 53 43 33 32 48 54 30 34 0a 20 20 20 20
extensions:      00
checksum:        c7

EDID version: 1.3
Manufacturer: SEK Model 1366 Serial Number --
Made in week 44 of 2012
Analog display, Input voltage level: 0.7/0.3 V
Sync: Separate 
Maximum image size: 70 cm x 39 cm
Gamma: 2.20
RGB color display
First detailed timing is preferred timing
Display x,y Chromaticity:
  Red:   0.6494, 0.3359
  Green: 0.2646, 0.6103
  Blue:  0.1513, 0.0693
  White: 0.2841, 0.2871
Established timings supported:
  720x400@70Hz 9:5 HorFreq: 31469 Hz Clock: 28.320 MHz
  640x480@60Hz 4:3 HorFreq: 31469 Hz Clock: 25.175 MHz
  640x480@72Hz 4:3 HorFreq: 37900 Hz Clock: 31.500 MHz
  640x480@75Hz 4:3 HorFreq: 37500 Hz Clock: 31.500 MHz
  800x600@60Hz 4:3 HorFreq: 37900 Hz Clock: 40.000 MHz
  800x600@72Hz 4:3 HorFreq: 48100 Hz Clock: 50.000 MHz
  800x600@75Hz 4:3 HorFreq: 46900 Hz Clock: 49.500 MHz
  1024x768@60Hz 4:3 HorFreq: 48400 Hz Clock: 65.000 MHz
  1024x768@70Hz 4:3 HorFreq: 56500 Hz Clock: 75.000 MHz
  1024x768@75Hz 4:3 HorFreq: 60000 Hz Clock: 78.750 MHz
Standard timings supported:
  1280x800@60Hz 16:10
  1280x720@60Hz 16:9
Detailed mode: Clock 85.500 MHz, 700 mm x 390 mm
               1360 1424 1536 1792 hborder 0
                768  771  777  795 vborder 0
               +hsync +vsync 
               VertFreq: 60 Hz, HorFreq: 47712 Hz
Detailed mode: Clock 85.500 MHz, 700 mm x 390 mm
               1366 1436 1579 1792 hborder 0
                768  771  774  798 vborder 0
               +hsync -vsync 
               VertFreq: 59 Hz, HorFreq: 47712 Hz
Monitor ranges (GTF): 47-63Hz V, 39-50kHz H, max dotclock 80MHz
Monitor name: SC32HT04
Checksum: 0xc7 (valid)
One or more of the timings is out of range of the Monitor Ranges:
  Vertical Freq: 59 - 75 Hz
  Horizontal Freq: 31469 - 60000 Hz
  Maximum Clock: 85.500 MHz
