
EDID (hex):
00ffffffffffff0030e4a00100000000
00120104902517780a4fd09759568c27
20505400000001010101010101010101
010101010101c62aa03052840c305050
23006fe6100000190000000000000000
00000000000000000000000000fe0046
52393632003137315750410a000000fe
002e3e49537497c6ff02010a20200008

Extracted contents:
header:          00 ff ff ff ff ff ff 00
serial number:   30 e4 a0 01 00 00 00 00 00 12
version:         01 04
basic params:    90 25 17 78 0a
chroma info:     4f d0 97 59 56 8c 27 20 50 54
established:     00 00 00
standard:        01 01 01 01 01 01 01 01 01 01 01 01 01 01 01 01
descriptor 1:    c6 2a a0 30 52 84 0c 30 50 50 23 00 6f e6 10 00 00 19
descriptor 2:    00 00 00 00 00 00 00 00 00 00 00 00 00 00 00 00 00 00
descriptor 3:    00 00 00 fe 00 46 52 39 36 32 00 31 37 31 57 50 41 0a
descriptor 4:    00 00 00 fe 00 2e 3e 49 53 74 97 c6 ff 02 01 0a 20 20
extensions:      00
checksum:        08

EDID version: 1.4
Manufacturer: LGD Model 1a0 Serial Number --
Made in year 2008
Digital display
6 bits per primary color channel
Digital interface is not defined
Maximum image size: 37 cm x 23 cm
Gamma: 2.20
Supported color formats: RGB 4:4:4, YCrCb 4:4:4
First detailed timing includes the native pixel format and preferred refresh rate
Display x,y Chromaticity:
  Red:   0.5908, 0.3476
  Green: 0.3388, 0.5498
  Blue:  0.1552, 0.1259
  White: 0.3125, 0.3281
Established timings supported:
Standard timings supported:
Detailed mode: Clock 109.500 MHz, 367 mm x 230 mm
               1440 1520 1600 2000 hborder 0
                900  902  905  912 vborder 0
               -hsync -vsync 
               VertFreq: 60 Hz, HorFreq: 54750 Hz
Manufacturer-specified data, tag 0
ASCII string: FR962
ASCII string: .>ISt
Checksum: 0x8 (valid)
EDID block does NOT conform to EDID 1.4!
	Missing name descriptor
	Missing monitor ranges
	Detailed block string not properly terminated
