
EDID (hex):
00ffffffffffff004f4d080300000000
0c1a0103804628780a1990a755469824
10494b01080001010101010101010101
010101010101011d007251d01e206e28
5500c48e2100001e011d8018711c1620
582c2500c48e2100009e000000fc0044
5347692054560a2020202020000000fd
0016160e5b10000a202020202020019f

Extracted contents:
header:          00 ff ff ff ff ff ff 00
serial number:   4f 4d 08 03 00 00 00 00 0c 1a
version:         01 03
basic params:    80 46 28 78 0a
chroma info:     19 90 a7 55 46 98 24 10 49 4b
established:     01 08 00
standard:        01 01 01 01 01 01 01 01 01 01 01 01 01 01 01 01
descriptor 1:    01 1d 00 72 51 d0 1e 20 6e 28 55 00 c4 8e 21 00 00 1e
descriptor 2:    01 1d 80 18 71 1c 16 20 58 2c 25 00 c4 8e 21 00 00 9e
descriptor 3:    00 00 00 fc 00 44 53 47 69 20 54 56 0a 20 20 20 20 20
descriptor 4:    00 00 00 fd 00 16 16 0e 5b 10 00 0a 20 20 20 20 20 20
extensions:      01
checksum:        9f

EDID version: 1.3
Manufacturer: SZM Model 308 Serial Number --
Made in week 12 of 2016
Digital display
Maximum image size: 70 cm x 40 cm
Gamma: 2.20
RGB color display
First detailed timing is preferred timing
Display x,y Chromaticity:
  Red:   0.6523, 0.3330
  Green: 0.2753, 0.5947
  Blue:  0.1425, 0.0634
  White: 0.2851, 0.2929
Established timings supported:
  800x600@60Hz 4:3 HorFreq: 37900 Hz Clock: 40.000 MHz
  1024x768@60Hz 4:3 HorFreq: 48400 Hz Clock: 65.000 MHz
Standard timings supported:
Detailed mode: Clock 74.250 MHz, 708 mm x 398 mm
               1280 1390 1430 1650 hborder 0
                720  725  730  750 vborder 0
               +hsync +vsync 
               VertFreq: 60 Hz, HorFreq: 45000 Hz
Detailed mode: Clock 74.250 MHz, 708 mm x 398 mm
               1920 2008 2052 2200 hborder 0
                540  542  547  562 vborder 0
               +hsync +vsync interlaced 
               VertFreq: 60 Hz, HorFreq: 33750 Hz
Monitor name: DSGi TV
Monitor ranges (GTF): 22-22Hz V, 14-91kHz H, max dotclock 160MHz
Has 1 extension blocks
Checksum: 0x9f (valid)
One or more of the timings is out of range of the Monitor Ranges:
  Vertical Freq: 60 - 60 Hz
  Horizontal Freq: 33750 - 48400 Hz
  Maximum Clock: 74.250 MHz
