
EDID (hex):
00ffffffffffff001e6da275c28c0300
0811010380462778ead9b0a357499c25
11494b81080001010101010145400101
6140010101011b2150a051001e304888
3500bc882100001c4e1f008051001e30
40803700bc8821000018000000fc004c
472054560a20202020202020000000fd
00324b1c430f000a2020202020200173
020323f1500107160203111213041485
2021221f10230907078301000065030c
001000011d008051d01c2040803500bc
882100001e8c0ad08a20e02d10103e96
00138e210000188c0a0a1451f0160026
7c4300c48e21000098011d8018711c16
20582c2500c48e2100009e0000000000
00000000000000000000000000000041

Extracted contents:
header:          00 ff ff ff ff ff ff 00
serial number:   1e 6d a2 75 c2 8c 03 00 08 11
version:         01 03
basic params:    80 46 27 78 ea
chroma info:     d9 b0 a3 57 49 9c 25 11 49 4b
established:     81 08 00
standard:        01 01 01 01 01 01 45 40 01 01 61 40 01 01 01 01
descriptor 1:    1b 21 50 a0 51 00 1e 30 48 88 35 00 bc 88 21 00 00 1c
descriptor 2:    4e 1f 00 80 51 00 1e 30 40 80 37 00 bc 88 21 00 00 18
descriptor 3:    00 00 00 fc 00 4c 47 20 54 56 0a 20 20 20 20 20 20 20
descriptor 4:    00 00 00 fd 00 32 4b 1c 43 0f 00 0a 20 20 20 20 20 20
extensions:      01
checksum:        73

EDID version: 1.3
Manufacturer: GSM Model 75a2 Serial Number --
Made in week 8 of 2007
Digital display
Maximum image size: 70 cm x 39 cm
Gamma: 2.20
DPMS levels: Standby Suspend Off
RGB color display
First detailed timing is preferred timing
Display x,y Chromaticity:
  Red:   0.6396, 0.3408
  Green: 0.2871, 0.6103
  Blue:  0.1464, 0.0693
  White: 0.2851, 0.2929
Established timings supported:
  720x400@70Hz 9:5 HorFreq: 31469 Hz Clock: 28.320 MHz
  800x600@60Hz 4:3 HorFreq: 37900 Hz Clock: 40.000 MHz
  1024x768@60Hz 4:3 HorFreq: 48400 Hz Clock: 65.000 MHz
Standard timings supported:
  800x600@60Hz 4:3 HorFreq: 37900 Hz Clock: 40.000 MHz
  1024x768@60Hz 4:3 HorFreq: 48400 Hz Clock: 65.000 MHz
Detailed mode: Clock 84.750 MHz, 700 mm x 392 mm
               1360 1432 1568 1776 hborder 0
                768  771  776  798 vborder 0
               -hsync +vsync 
               VertFreq: 59 Hz, HorFreq: 47719 Hz
Detailed mode: Clock 80.140 MHz, 700 mm x 392 mm
               1280 1344 1472 1664 hborder 0
                768  771  778  798 vborder 0
               -hsync -vsync 
               VertFreq: 60 Hz, HorFreq: 48161 Hz
Monitor name: LG TV
Monitor ranges (GTF): 50-75Hz V, 28-67kHz H, max dotclock 150MHz
Has 1 extension blocks
Checksum: 0x73 (valid)

CTA extension block
Extension version: 3
31 bytes of CTA data
  Video data block
    VIC   1 640x480@60Hz 4:3  HorFreq: 31469 Hz Clock: 25.175 MHz
    VIC   7 1440x480i@60Hz 16:9  HorFreq: 15734 Hz Clock: 27.000 MHz
    VIC  22 1440x576i@50Hz 16:9  HorFreq: 15625 Hz Clock: 27.000 MHz
    VIC   2 720x480@60Hz 4:3  HorFreq: 31469 Hz Clock: 27.000 MHz
    VIC   3 720x480@60Hz 16:9  HorFreq: 31469 Hz Clock: 27.000 MHz
    VIC  17 720x576@50Hz 4:3  HorFreq: 31250 Hz Clock: 27.000 MHz
    VIC  18 720x576@50Hz 16:9  HorFreq: 31250 Hz Clock: 27.000 MHz
    VIC  19 1280x720@50Hz 16:9  HorFreq: 37500 Hz Clock: 74.250 MHz
    VIC   4 1280x720@60Hz 16:9  HorFreq: 45000 Hz Clock: 74.250 MHz
    VIC  20 1920x1080i@50Hz 16:9  HorFreq: 28125 Hz Clock: 74.250 MHz
    VIC   5 1920x1080i@60Hz 16:9 (native) HorFreq: 33750 Hz Clock: 74.250 MHz
    VIC  32 1920x1080@24Hz 16:9  HorFreq: 27000 Hz Clock: 74.250 MHz
    VIC  33 1920x1080@25Hz 16:9  HorFreq: 28125 Hz Clock: 74.250 MHz
    VIC  34 1920x1080@30Hz 16:9  HorFreq: 33750 Hz Clock: 74.250 MHz
    VIC  31 1920x1080@50Hz 16:9  HorFreq: 56250 Hz Clock: 148.500 MHz
    VIC  16 1920x1080@60Hz 16:9  HorFreq: 67500 Hz Clock: 148.500 MHz
  Audio data block
    Linear PCM, max channels 2
      Supported sample rates (kHz): 48 44.1 32
      Supported sample sizes (bits): 24 20 16
  Speaker allocation data block
    Speaker map:
      FL/FR - Front Left/Right
  Vendor-specific data block, OUI 000c03 (HDMI)
    Source physical address 1.0.0.0
Underscans PC formats by default
Basic audio support
Supports YCbCr 4:4:4
Supports YCbCr 4:2:2
1 native detailed modes
Detailed mode: Clock 74.250 MHz, 700 mm x 392 mm
               1280 1344 1472 1664 hborder 0
                720  723  728  748 vborder 0
               +hsync +vsync 
               VertFreq: 59 Hz, HorFreq: 44621 Hz
Detailed mode: Clock 27.000 MHz, 531 mm x 398 mm
                720  736  798  858 hborder 0
                480  489  495  525 vborder 0
               -hsync -vsync 
               VertFreq: 59 Hz, HorFreq: 31468 Hz
Detailed mode: Clock 27.000 MHz, 708 mm x 398 mm
               1290 1328 1452 1566 hborder 0
                240  244  247  262 vborder 0
               -hsync -vsync interlaced 
               VertFreq: 65 Hz, HorFreq: 17241 Hz
Detailed mode: Clock 74.250 MHz, 708 mm x 398 mm
               1920 2008 2052 2200 hborder 0
                540  542  547  562 vborder 0
               +hsync +vsync interlaced 
               VertFreq: 60 Hz, HorFreq: 33750 Hz
Checksum: 0x41 (valid)

One or more of the timings is out of range of the Monitor Ranges:
  Vertical Freq: 24 - 70 Hz
  Horizontal Freq: 15625 - 67500 Hz
  Maximum Clock: 148.500 MHz
