
EDID (hex):
00ffffffffffff0006af2d2000000000
00160104901d117802bc05a2554c9a25
0e505400000001010101010101010101
0101010101011d3680a070381e403020
8e0025a5100000181d36800872386640
30208e0025a510000018000000fe0041
554f0a202020202020202020000000fe
004231333348414e30322e30200a0043

Extracted contents:
header:          00 ff ff ff ff ff ff 00
serial number:   06 af 2d 20 00 00 00 00 00 16
version:         01 04
basic params:    90 1d 11 78 02
chroma info:     bc 05 a2 55 4c 9a 25 0e 50 54
established:     00 00 00
standard:        01 01 01 01 01 01 01 01 01 01 01 01 01 01 01 01
descriptor 1:    1d 36 80 a0 70 38 1e 40 30 20 8e 00 25 a5 10 00 00 18
descriptor 2:    1d 36 80 08 72 38 66 40 30 20 8e 00 25 a5 10 00 00 18
descriptor 3:    00 00 00 fe 00 41 55 4f 0a 20 20 20 20 20 20 20 20 20
descriptor 4:    00 00 00 fe 00 42 31 33 33 48 41 4e 30 32 2e 30 20 0a
extensions:      00
checksum:        43

EDID version: 1.4
Manufacturer: AUO Model 202d Serial Number --
Made in year 2012
Digital display
6 bits per primary color channel
Digital interface is not defined
Maximum image size: 29 cm x 17 cm
Gamma: 2.20
Supported color formats: RGB 4:4:4
First detailed timing includes the native pixel format and preferred refresh rate
Display x,y Chromaticity:
  Red:   0.6347, 0.3349
  Green: 0.2998, 0.6015
  Blue:  0.1445, 0.0546
  White: 0.3134, 0.3291
Established timings supported:
Standard timings supported:
Detailed mode: Clock 138.530 MHz, 293 mm x 165 mm
               1920 1968 2000 2080 hborder 0
               1080 1088 1102 1110 vborder 0
               -hsync -vsync 
               VertFreq: 60 Hz, HorFreq: 66600 Hz
Detailed mode: Clock 138.530 MHz, 293 mm x 165 mm
               1920 1968 2000 2440 hborder 0
               1080 1088 1102 1182 vborder 0
               -hsync -vsync 
               VertFreq: 48 Hz, HorFreq: 56774 Hz
ASCII string: AUO
ASCII string: B133HAN02.0 
Checksum: 0x43 (valid)
EDID block does NOT conform to EDID 1.4!
	Missing name descriptor
	Missing monitor ranges
