
EDID (hex):
00ffffffffffff0030e45d0500000000
001a0104a51a11780255550000000000
00505400000001010101010101010101
0101010101015898b8a0b0d039703020
3a0004ad1000001b9065b8a0b0d03970
30203a0004ad1000001b000000000000
00000000000000000000000000000002
000c21540a3c4b271315e100000000d2

Extracted contents:
header:          00 ff ff ff ff ff ff 00
serial number:   30 e4 5d 05 00 00 00 00 00 1a
version:         01 04
basic params:    a5 1a 11 78 02
chroma info:     55 55 00 00 00 00 00 00 50 54
established:     00 00 00
standard:        01 01 01 01 01 01 01 01 01 01 01 01 01 01 01 01
descriptor 1:    58 98 b8 a0 b0 d0 39 70 30 20 3a 00 04 ad 10 00 00 1b
descriptor 2:    90 65 b8 a0 b0 d0 39 70 30 20 3a 00 04 ad 10 00 00 1b
descriptor 3:    00 00 00 00 00 00 00 00 00 00 00 00 00 00 00 00 00 00
descriptor 4:    00 00 00 02 00 0c 21 54 0a 3c 4b 27 13 15 e1 00 00 00
extensions:      00
checksum:        d2

EDID version: 1.4
Manufacturer: LGD Model 55d Serial Number --
Made in year 2016
Digital display
8 bits per primary color channel
DisplayPort interface
Maximum image size: 26 cm x 17 cm
Gamma: 2.20
Supported color formats: RGB 4:4:4
First detailed timing includes the native pixel format and preferred refresh rate
Display x,y Chromaticity:
  Red:   0.0009, 0.0009
  Green: 0.0009, 0.0009
  Blue:  0.0009, 0.0009
  White: 0.3134, 0.3291
Established timings supported:
Standard timings supported:
Detailed mode: Clock 390.000 MHz, 260 mm x 173 mm
               3000 3048 3080 3160 hborder 0
               2000 2003 2013 2057 vborder 0
               +hsync -vsync 
               VertFreq: 59 Hz, HorFreq: 123417 Hz
Detailed mode: Clock 260.000 MHz, 260 mm x 173 mm
               3000 3048 3080 3160 hborder 0
               2000 2003 2013 2057 vborder 0
               +hsync -vsync 
               VertFreq: 39 Hz, HorFreq: 82278 Hz
Manufacturer-specified data, tag 0
Manufacturer-specified data, tag 2
Checksum: 0xd2 (valid)
EDID block does NOT conform to EDID 1.4!
	Missing name descriptor
	Missing monitor ranges
