
EDID (hex):
00ffffffffffff0010ac0c7034563130
190e01036e291facef7a689f56479926
12484ca44b003159455961598199a94f
a959d14fd1591a4f403062b0324040c0
130088261100001e000000ff00553332
3430343646303156340a000000fc0044
454c4c202050313233302020000000fd
0032a01e8225000a2020202020200095

Extracted contents:
header:          00 ff ff ff ff ff ff 00
serial number:   10 ac 0c 70 34 56 31 30 19 0e
version:         01 03
basic params:    6e 29 1f ac ef
chroma info:     7a 68 9f 56 47 99 26 12 48 4c
established:     a4 4b 00
standard:        31 59 45 59 61 59 81 99 a9 4f a9 59 d1 4f d1 59
descriptor 1:    1a 4f 40 30 62 b0 32 40 40 c0 13 00 88 26 11 00 00 1e
descriptor 2:    00 00 00 ff 00 55 33 32 34 30 34 36 46 30 31 56 34 0a
descriptor 3:    00 00 00 fc 00 44 45 4c 4c 20 20 50 31 32 33 30 20 20
descriptor 4:    00 00 00 fd 00 32 a0 1e 82 25 00 0a 20 20 20 20 20 20
extensions:      00
checksum:        95

EDID version: 1.3
Manufacturer: DEL Model 700c Serial Number --
Analog display, Input voltage level: 0.7/0.7 V
Sync: Separate Composite SyncOnGreen 
Maximum image size: 41 cm x 31 cm
Gamma: 2.72
DPMS levels: Standby Suspend Off
RGB color display
Default (sRGB) color space is primary color space
First detailed timing is preferred timing
Supports GTF timings within operating range
Display x,y Chromaticity:
  Red:   0.6220, 0.3388
  Green: 0.2792, 0.5996
  Blue:  0.1494, 0.0722
  White: 0.2832, 0.2968
Established timings supported:
  720x400@70Hz 9:5 HorFreq: 31469 Hz Clock: 28.320 MHz
  640x480@60Hz 4:3 HorFreq: 31469 Hz Clock: 25.175 MHz
  640x480@75Hz 4:3 HorFreq: 37500 Hz Clock: 31.500 MHz
  800x600@75Hz 4:3 HorFreq: 46900 Hz Clock: 49.500 MHz
  1024x768@60Hz 4:3 HorFreq: 48400 Hz Clock: 65.000 MHz
  1024x768@75Hz 4:3 HorFreq: 60000 Hz Clock: 78.750 MHz
  1280x1024@75Hz 5:4 HorFreq: 80000 Hz Clock: 135.000 MHz
Standard timings supported:
  640x480@85Hz 4:3 HorFreq: 43300 Hz Clock: 36.000 MHz
  800x600@85Hz 4:3 HorFreq: 53700 Hz Clock: 56.250 MHz
  1024x768@85Hz 4:3 HorFreq: 68700 Hz Clock: 94.500 MHz
  1280x1024@85Hz 5:4 HorFreq: 91100 Hz Clock: 157.500 MHz
  1600x1200@75Hz 4:3 HorFreq: 93800 Hz Clock: 202.500 MHz
  1600x1200@85Hz 4:3 HorFreq: 106300 Hz Clock: 229.500 MHz
  1920x1440@75Hz 4:3 HorFreq: 112500 Hz Clock: 297.000 MHz
  1920x1440@85Hz 4:3
Detailed mode: Clock 202.500 MHz, 392 mm x 294 mm
               1600 1664 1856 2160 hborder 0
               1200 1201 1204 1250 vborder 0
               +hsync +vsync 
               VertFreq: 75 Hz, HorFreq: 93750 Hz
Serial number: --
Monitor ranges (GTF): 50-160Hz V, 30-130kHz H, max dotclock 370MHz
Checksum: 0x95 (valid)
EDID block does NOT conform to EDID 1.3!
	sRGB is signaled, but the chromaticities do not match
	Name descriptor not terminated with a newline
EDID block does not conform at all!
	Bad year of manufacture
