edid-decode (hex):

00 ff ff ff ff ff ff 00 0d ae 56 13 00 00 00 00
16 16 01 04 a5 1d 11 78 02 3a 50 aa 53 4d 97 24
16 55 5d 00 00 00 01 01 01 01 01 01 01 01 01 01
01 01 01 01 01 01 36 36 80 a0 70 38 20 40 2e 1e
24 00 25 a5 10 00 00 18 24 24 80 a0 70 38 20 40
2e 1e 24 00 25 a5 10 00 00 18 00 00 00 fe 00 43
4d 4e 0a 20 20 20 20 20 20 20 20 20 00 00 00 fe
00 4e 31 33 33 48 53 47 2d 44 33 31 0a 20 00 6b

00 ff ff ff ff ff ff 00 0d ae 56 13 00 00 00 00
16 16 01 04 a5 1d 11 78 02 3a 50 aa 53 4d 97 24
16 55 5d 00 00 00 01 01 01 01 01 01 01 01 01 01
01 01 01 01 01 01 36 36 80 a0 70 38 20 40 2e 1e
24 00 25 a5 10 00 00 18 24 24 80 a0 70 38 20 40
2e 1e 24 00 25 a5 10 00 00 18 00 00 00 fe 00 43
4d 4e 0a 20 20 20 20 20 20 20 20 20 00 00 00 fe
00 4e 31 33 33 48 53 47 2d 44 33 31 0a 20 00 6b

----------------

Block 0, Base EDID:
  EDID Structure Version & Revision: 1.4
  Vendor & Product Identification:
    Manufacturer: CMN
    Model: 4950
    Made in: week 22 of 2012
  Basic Display Parameters & Features:
    Digital display
    Bits per primary color channel: 8
    DisplayPort interface
    Maximum image size: 29 cm x 17 cm
    Gamma: 2.20
    Supported color formats: RGB 4:4:4
    First detailed timing includes the native pixel format and preferred refresh rate
  Color Characteristics:
    Red  : 0.6640, 0.3271
    Green: 0.3027, 0.5917
    Blue : 0.1416, 0.0869
    White: 0.3320, 0.3632
  Established Timings I & II: none
  Standard Timings: none
  Detailed Timing Descriptors:
    DTD 1:  1920x1080   60.001038 Hz  16:9     66.721 kHz    138.780000 MHz (293 mm x 165 mm)
                 Hfront   46 Hsync  30 Hback   84 Hpol N
                 Vfront    2 Vsync   4 Vback   26 Vpol N
    DTD 2:  1920x1080   40.000692 Hz  16:9     44.481 kHz     92.520000 MHz (293 mm x 165 mm)
                 Hfront   46 Hsync  30 Hback   84 Hpol N
                 Vfront    2 Vsync   4 Vback   26 Vpol N
    Alphanumeric Data String: 'CMN'
    Alphanumeric Data String: 'N133HSG-D31'
Checksum: 0x6b

----------------

Block 1, Unknown EDID Extension Block 0x00:
  00 ff ff ff ff ff ff 00 0d ae 56 13 00 00 00 00 '..........V.....'
  16 16 01 04 a5 1d 11 78 02 3a 50 aa 53 4d 97 24 '.......x.:P.SM.$'
  16 55 5d 00 00 00 01 01 01 01 01 01 01 01 01 01 '.U].............'
  01 01 01 01 01 01 36 36 80 a0 70 38 20 40 2e 1e '......66..p8 @..'
  24 00 25 a5 10 00 00 18 24 24 80 a0 70 38 20 40 '$.%.....$$..p8 @'
  2e 1e 24 00 25 a5 10 00 00 18 00 00 00 fe 00 43 '..$.%..........C'
  4d 4e 0a 20 20 20 20 20 20 20 20 20 00 00 00 fe 'MN.         ....'
  00 4e 31 33 33 48 53 47 2d 44 33 31 0a 20 00 6b '.N133HSG-D31. .k'
Checksum: 0x6b

----------------

Warnings:

Block 0, Base EDID:
  Missing Display Product Name.

Failures:

Block 1, Base EDID:
  Unknown Extension Block.
EDID:
  Base EDID: EDID specified 0 extension block(s), but found 1 extension block(s).

EDID conformity: FAIL
