edid-decode (hex):

00 ff ff ff ff ff ff 00 38 a3 94 79 01 01 01 01
16 12 01 04 a5 00 00 78 02 f1 bb 9f 5a 57 97 24
0f 4b 53 af ef 80 31 59 45 59 61 59 71 4f 81 40
81 80 90 40 71 59 ea 24 00 60 41 00 28 30 30 60
13 00 00 00 00 00 00 1e f9 15 20 f8 30 58 1f 20
20 40 13 00 00 00 00 00 00 1e 00 00 00 fd 00 30
56 0f 64 0b 00 0a 20 20 20 20 20 20 00 00 00 fc
00 4e 50 36 31 20 53 65 72 69 65 73 0a 20 00 87

00 ff ff ff ff ff ff 00 38 a3 94 79 01 01 01 01
16 12 01 04 a5 00 00 78 02 f1 bb 9f 5a 57 97 24
0f 4b 53 af ef 80 31 59 45 59 61 59 71 4f 81 40
81 80 90 40 71 59 ea 24 00 60 41 00 28 30 30 60
13 00 00 00 00 00 00 1e f9 15 20 f8 30 58 1f 20
20 40 13 00 00 00 00 00 00 1e 00 00 00 fd 00 30
56 0f 64 0b 00 0a 20 20 20 20 20 20 00 00 00 fc
00 4e 50 36 31 20 53 65 72 69 65 73 0a 20 00 87

----------------

Block 0, Base EDID:
  EDID Structure Version & Revision: 1.4
  Vendor & Product Identification:
    Manufacturer: NEC
    Model: 31124
    Serial Number: ...
    Made in: week 22 of 2008
  Basic Display Parameters & Features:
    Digital display
    Bits per primary color channel: 8
    DisplayPort interface
    Image size is variable
    Gamma: 2.20
    Supported color formats: RGB 4:4:4
    First detailed timing includes the native pixel format and preferred refresh rate
  Color Characteristics:
    Red  : 0.6240, 0.3544
    Green: 0.3398, 0.5908
    Blue : 0.1425, 0.0615
    White: 0.2949, 0.3271
  Established Timings I & II:
    IBM     :   720x400    70.081663 Hz   9:5     31.467 kHz     28.320000 MHz
    DMT 0x04:   640x480    59.940476 Hz   4:3     31.469 kHz     25.175000 MHz
    DMT 0x05:   640x480    72.808802 Hz   4:3     37.861 kHz     31.500000 MHz
    DMT 0x06:   640x480    75.000000 Hz   4:3     37.500 kHz     31.500000 MHz
    DMT 0x08:   800x600    56.250000 Hz   4:3     35.156 kHz     36.000000 MHz
    DMT 0x09:   800x600    60.316541 Hz   4:3     37.879 kHz     40.000000 MHz
    DMT 0x0a:   800x600    72.187572 Hz   4:3     48.077 kHz     50.000000 MHz
    DMT 0x0b:   800x600    75.000000 Hz   4:3     46.875 kHz     49.500000 MHz
    Apple   :   832x624    74.551266 Hz   4:3     49.726 kHz     57.284000 MHz
    DMT 0x10:  1024x768    60.003840 Hz   4:3     48.363 kHz     65.000000 MHz
    DMT 0x11:  1024x768    70.069359 Hz   4:3     56.476 kHz     75.000000 MHz
    DMT 0x12:  1024x768    75.028582 Hz   4:3     60.023 kHz     78.750000 MHz
    DMT 0x24:  1280x1024   75.024675 Hz   5:4     79.976 kHz    135.000000 MHz
    Apple   :  1152x870    75.061550 Hz 192:145   68.681 kHz    100.000000 MHz
  Standard Timings:
    DMT 0x07:   640x480    85.008312 Hz   4:3     43.269 kHz     36.000000 MHz
    DMT 0x0c:   800x600    85.061274 Hz   4:3     53.674 kHz     56.250000 MHz
    DMT 0x13:  1024x768    84.996690 Hz   4:3     68.677 kHz     94.500000 MHz
    DMT 0x15:  1152x864    75.000000 Hz   4:3     67.500 kHz    108.000000 MHz
    DMT 0x20:  1280x960    60.000000 Hz   4:3     60.000 kHz    108.000000 MHz
    DMT 0x23:  1280x1024   60.019740 Hz   5:4     63.981 kHz    108.000000 MHz
    DMT 0x2a:  1400x1050   59.978442 Hz   4:3     65.317 kHz    121.750000 MHz
    GTF     :  1152x864    84.999687 Hz   4:3     77.095 kHz    119.651000 MHz
  Detailed Timing Descriptors:
    DTD 1:  1024x768    84.996690 Hz   4:3     68.677 kHz     94.500000 MHz
                 Hfront   48 Hsync  96 Hback  208 Hpol P
                 Vfront    1 Vsync   3 Vback   36 Vpol P
    DTD 2:   800x600    85.061274 Hz   4:3     53.674 kHz     56.250000 MHz
                 Hfront   32 Hsync  64 Hback  152 Hpol P
                 Vfront    1 Vsync   3 Vback   27 Vpol P
    Display Range Limits:
      Monitor ranges (GTF): 48-86 Hz V, 15-100 kHz H, max dotclock 110 MHz
    Display Product Name: 'NP61 Series'
Checksum: 0x87

----------------

Block 1, Unknown EDID Extension Block 0x00:
  00 ff ff ff ff ff ff 00 38 a3 94 79 01 01 01 01 '........8..y....'
  16 12 01 04 a5 00 00 78 02 f1 bb 9f 5a 57 97 24 '.......x....ZW.$'
  0f 4b 53 af ef 80 31 59 45 59 61 59 71 4f 81 40 '.KS...1YEYaYqO.@'
  81 80 90 40 71 59 ea 24 00 60 41 00 28 30 30 60 '...@qY.$.`A.(00`'
  13 00 00 00 00 00 00 1e f9 15 20 f8 30 58 1f 20 '.......... .0X. '
  20 40 13 00 00 00 00 00 00 1e 00 00 00 fd 00 30 ' @.............0'
  56 0f 64 0b 00 0a 20 20 20 20 20 20 00 00 00 fc 'V.d...      ....'
  00 4e 50 36 31 20 53 65 72 69 65 73 0a 20 00 87 '.NP61 Series. ..'
Checksum: 0x87

----------------

Warnings:

Block 0, Base EDID:
  Display Range Limits: GTF support is deprecated in EDID 1.4.
EDID:
  Base EDID: Some timings are out of range of the Monitor Ranges:
    Maximum Clock: 135.000 MHz (Monitor: 110.000 MHz)

Failures:

Block 0, Base EDID:
  Display Range Limits: GTF can't be combined with non-continuous frequencies.
Block 1, Base EDID:
  Unknown Extension Block.
EDID:
  Base EDID: EDID specified 0 extension block(s), but found 1 extension block(s).

EDID conformity: FAIL
