edid-decode (hex):

00 ff ff ff ff ff ff 00 60 b2 b2 90 60 13 00 00
16 0f 01 03 80 26 1e 96 2a c3 26 a4 59 4b a0 24
14 4f 54 bf ee 00 81 80 01 01 01 01 01 01 01 01
01 01 01 01 01 01 30 2a 00 98 51 00 2a 40 30 70
13 00 78 2d 11 00 00 1e 00 00 00 ff 00 34 39 36
30 0a 20 20 20 20 20 20 20 20 00 00 00 fc 00 58
65 72 6f 78 20 58 47 2d 39 31 44 0a 00 00 00 fd
00 38 4c 1f 41 0b 00 0a 20 20 20 20 20 20 00 ae

00 ff ff ff ff ff ff 00 60 b2 b2 90 60 13 00 00
16 0f 01 03 80 26 1e 96 2a c3 26 a4 59 4b a0 24
14 4f 54 bf ee 00 81 80 01 01 01 01 01 01 01 01
01 01 01 01 01 01 30 2a 00 98 51 00 2a 40 30 70
13 00 78 2d 11 00 00 1e 00 00 00 ff 00 34 39 36
30 0a 20 20 20 20 20 20 20 20 00 00 00 fc 00 58
65 72 6f 78 20 58 47 2d 39 31 44 0a 00 00 00 fd
00 38 4c 1f 41 0b 00 0a 20 20 20 20 20 20 00 ae

----------------

Block 0, Base EDID:
  EDID Structure Version & Revision: 1.3
  Vendor & Product Identification:
    Manufacturer: XER
    Model: 37042
    Serial Number: ...
    Made in: week 22 of 2005
  Basic Display Parameters & Features:
    Digital display
    Maximum image size: 38 cm x 30 cm
    Gamma: 2.50
    DPMS levels: Off
    RGB color display
    First detailed timing is the preferred timing
  Color Characteristics:
    Red  : 0.6435, 0.3476
    Green: 0.2929, 0.6279
    Blue : 0.1406, 0.0800
    White: 0.3095, 0.3300
  Established Timings I & II:
    IBM     :   720x400    70.081663 Hz   9:5     31.467 kHz     28.320000 MHz
    DMT 0x04:   640x480    59.940476 Hz   4:3     31.469 kHz     25.175000 MHz
    Apple   :   640x480    66.666667 Hz   4:3     35.000 kHz     30.240000 MHz
    DMT 0x05:   640x480    72.808802 Hz   4:3     37.861 kHz     31.500000 MHz
    DMT 0x06:   640x480    75.000000 Hz   4:3     37.500 kHz     31.500000 MHz
    DMT 0x08:   800x600    56.250000 Hz   4:3     35.156 kHz     36.000000 MHz
    DMT 0x09:   800x600    60.316541 Hz   4:3     37.879 kHz     40.000000 MHz
    DMT 0x0a:   800x600    72.187572 Hz   4:3     48.077 kHz     50.000000 MHz
    DMT 0x0b:   800x600    75.000000 Hz   4:3     46.875 kHz     49.500000 MHz
    Apple   :   832x624    74.551266 Hz   4:3     49.726 kHz     57.284000 MHz
    DMT 0x10:  1024x768    60.003840 Hz   4:3     48.363 kHz     65.000000 MHz
    DMT 0x11:  1024x768    70.069359 Hz   4:3     56.476 kHz     75.000000 MHz
    DMT 0x12:  1024x768    75.028582 Hz   4:3     60.023 kHz     78.750000 MHz
  Standard Timings:
    DMT 0x23:  1280x1024   60.019740 Hz   5:4     63.981 kHz    108.000000 MHz
  Detailed Timing Descriptors:
    DTD 1:  1280x1024   60.019740 Hz   5:4     63.981 kHz    108.000000 MHz (376 mm x 301 mm)
                 Hfront   48 Hsync 112 Hback  248 Hpol P
                 Vfront    1 Vsync   3 Vback   38 Vpol P
    Display Product Serial Number: ...
    Display Product Name: 'Xerox XG-91D'
    Display Range Limits:
      Monitor ranges (GTF): 56-76 Hz V, 31-65 kHz H, max dotclock 110 MHz
Checksum: 0xae

----------------

Block 1, Unknown EDID Extension Block 0x00:
  00 ff ff ff ff ff ff 00 60 b2 b2 90 60 13 00 00 '........`...`...'
  16 0f 01 03 80 26 1e 96 2a c3 26 a4 59 4b a0 24 '.....&..*.&.YK.$'
  14 4f 54 bf ee 00 81 80 01 01 01 01 01 01 01 01 '.OT.............'
  01 01 01 01 01 01 30 2a 00 98 51 00 2a 40 30 70 '......0*..Q.*@0p'
  13 00 78 2d 11 00 00 1e 00 00 00 ff 00 34 39 36 '..x-.........496'
  30 0a 20 20 20 20 20 20 20 20 00 00 00 fc 00 58 '0.        .....X'
  65 72 6f 78 20 58 47 2d 39 31 44 0a 00 00 00 fd 'erox XG-91D.....'
  00 38 4c 1f 41 0b 00 0a 20 20 20 20 20 20 00 ae '.8L.A...      ..'
Checksum: 0xae

----------------

Failures:

Block 1, Base EDID:
  Unknown Extension Block.
EDID:
  Base EDID: EDID specified 0 extension block(s), but found 1 extension block(s).

EDID conformity: FAIL
