
EDID (hex):
00ffffffffffff0009e5000000000000
041c0103082917000ad7a5a2594a9624
145000a3080081c00101010101010101
010101010101662156aa51001e30468f
330013292100001ea91a00a050001630
302037003f432100001a662150b05100
1b304070360013292100001e000000fc
0031382e354a4c330a20202020200024

Extracted contents:
header:          00 ff ff ff ff ff ff 00
serial number:   09 e5 00 00 00 00 00 00 04 1c
version:         01 03
basic params:    08 29 17 00 0a
chroma info:     d7 a5 a2 59 4a 96 24 14 50 00
established:     a3 08 00
standard:        81 c0 01 01 01 01 01 01 01 01 01 01 01 01 01 01
descriptor 1:    66 21 56 aa 51 00 1e 30 46 8f 33 00 13 29 21 00 00 1e
descriptor 2:    a9 1a 00 a0 50 00 16 30 30 20 37 00 3f 43 21 00 00 1a
descriptor 3:    66 21 50 b0 51 00 1b 30 40 70 36 00 13 29 21 00 00 1e
descriptor 4:    00 00 00 fc 00 31 38 2e 35 4a 4c 33 0a 20 20 20 20 20
extensions:      00
checksum:        24

EDID version: 1.3
Manufacturer: BOE Model 0 Serial Number --
Made in week 4 of 2018
Analog display, Input voltage level: 0.7/0.3 V
Sync: Separate 
Maximum image size: 41 cm x 23 cm
Gamma: 1.00
RGB color display
First detailed timing is preferred timing
Display x,y Chromaticity:
  Red:   0.6357, 0.3486
  Green: 0.2900, 0.5888
  Blue:  0.1425, 0.0800
  White: 0.3134, 0.0009
Established timings supported:
  720x400@70Hz 9:5 HorFreq: 31469 Hz Clock: 28.320 MHz
  640x480@60Hz 4:3 HorFreq: 31469 Hz Clock: 25.175 MHz
  800x600@56Hz 4:3 HorFreq: 35200 Hz Clock: 36.000 MHz
  800x600@60Hz 4:3 HorFreq: 37900 Hz Clock: 40.000 MHz
  1024x768@60Hz 4:3 HorFreq: 48400 Hz Clock: 65.000 MHz
Standard timings supported:
  1280x720@60Hz 16:9
Detailed mode: Clock 85.500 MHz, 531 mm x 297 mm
               1366 1436 1579 1792 hborder 0
                768  771  774  798 vborder 0
               +hsync +vsync 
               VertFreq: 59 Hz, HorFreq: 47712 Hz
Detailed mode: Clock 68.250 MHz, 575 mm x 323 mm
               1280 1328 1360 1440 hborder 0
                768  771  778  790 vborder 0
               +hsync -vsync 
               VertFreq: 59 Hz, HorFreq: 47395 Hz
Detailed mode: Clock 85.500 MHz, 531 mm x 297 mm
               1360 1424 1536 1792 hborder 0
                768  771  777  795 vborder 0
               +hsync +vsync 
               VertFreq: 60 Hz, HorFreq: 47712 Hz
Monitor name: 18.5JL3
Checksum: 0x24 (valid)
EDID block does NOT conform to EDID 1.3!
	Missing monitor ranges
