
EDID (hex):
00ffffffffffff0030ae354000000000
01130103801e1378ea26759658579328
1e505400000001010101010101010101
010101010101e01a0076502014302d20
36002fbd100000186416007650201430
2d2036002fbd100000180000000f0081
0a32810a2816090006af5634000000fe
004231343145573035205634200a009d

Extracted contents:
header:          00 ff ff ff ff ff ff 00
serial number:   30 ae 35 40 00 00 00 00 01 13
version:         01 03
basic params:    80 1e 13 78 ea
chroma info:     26 75 96 58 57 93 28 1e 50 54
established:     00 00 00
standard:        01 01 01 01 01 01 01 01 01 01 01 01 01 01 01 01
descriptor 1:    e0 1a 00 76 50 20 14 30 2d 20 36 00 2f bd 10 00 00 18
descriptor 2:    64 16 00 76 50 20 14 30 2d 20 36 00 2f bd 10 00 00 18
descriptor 3:    00 00 00 0f 00 81 0a 32 81 0a 28 16 09 00 06 af 56 34
descriptor 4:    00 00 00 fe 00 42 31 34 31 45 57 30 35 20 56 34 20 0a
extensions:      00
checksum:        9d

EDID version: 1.3
Manufacturer: LEN Model 4035 Serial Number --
Made in week 1 of 2009
Digital display
Maximum image size: 30 cm x 19 cm
Gamma: 2.20
DPMS levels: Standby Suspend Off
RGB color display
First detailed timing is preferred timing
Display x,y Chromaticity:
  Red:   0.5859, 0.3457
  Green: 0.3408, 0.5761
  Blue:  0.1572, 0.1201
  White: 0.3134, 0.3291
Established timings supported:
Standard timings supported:
Detailed mode: Clock 68.800 MHz, 303 mm x 189 mm
               1280 1325 1357 1398 hborder 0
                800  803  809  820 vborder 0
               -hsync -vsync 
               VertFreq: 60 Hz, HorFreq: 49213 Hz
Detailed mode: Clock 57.320 MHz, 303 mm x 189 mm
               1280 1325 1357 1398 hborder 0
                800  803  809  820 vborder 0
               -hsync -vsync 
               VertFreq: 50 Hz, HorFreq: 41001 Hz
Manufacturer-specified data, tag 15
ASCII string: B141EW05 V4 
Checksum: 0x9d (valid)
EDID block does NOT conform to EDID 1.3!
	Missing name descriptor
	Missing monitor ranges
