
EDID (hex):
00ffffffffffff0030ae354000000000
00130103801e1378ea01f59757528a27
23505400000001010101010101010101
0101010101010a1b0084502011303440
33002fbe100000190a1b003b51204430
344033002fbe100000190000000f0081
0a32810a281609004ca34154000000fe
004c544e313431415431353030310082

Extracted contents:
header:          00 ff ff ff ff ff ff 00
serial number:   30 ae 35 40 00 00 00 00 00 13
version:         01 03
basic params:    80 1e 13 78 ea
chroma info:     01 f5 97 57 52 8a 27 23 50 54
established:     00 00 00
standard:        01 01 01 01 01 01 01 01 01 01 01 01 01 01 01 01
descriptor 1:    0a 1b 00 84 50 20 11 30 34 40 33 00 2f be 10 00 00 19
descriptor 2:    0a 1b 00 3b 51 20 44 30 34 40 33 00 2f be 10 00 00 19
descriptor 3:    00 00 00 0f 00 81 0a 32 81 0a 28 16 09 00 4c a3 41 54
descriptor 4:    00 00 00 fe 00 4c 54 4e 31 34 31 41 54 31 35 30 30 31
extensions:      00
checksum:        82

EDID version: 1.3
Manufacturer: LEN Model 4035 Serial Number --
Made in year 2009
Digital display
Maximum image size: 30 cm x 19 cm
Gamma: 2.20
DPMS levels: Standby Suspend Off
RGB color display
First detailed timing is preferred timing
Display x,y Chromaticity:
  Red:   0.5898, 0.3398
  Green: 0.3203, 0.5400
  Blue:  0.1552, 0.1396
  White: 0.3134, 0.3291
Established timings supported:
Standard timings supported:
Detailed mode: Clock 69.220 MHz, 303 mm x 190 mm
               1280 1332 1396 1412 hborder 0
                800  803  806  817 vborder 0
               -hsync -vsync 
               VertFreq: 60 Hz, HorFreq: 49022 Hz
Detailed mode: Clock 69.220 MHz, 303 mm x 190 mm
               1280 1332 1396 1595 hborder 0
                800  803  806  868 vborder 0
               -hsync -vsync 
               VertFreq: 49 Hz, HorFreq: 43398 Hz
Manufacturer-specified data, tag 15
ASCII string: LTN141AT15001
Checksum: 0x82 (valid)
EDID block does NOT conform to EDID 1.3!
	Missing name descriptor
	Missing monitor ranges
