
EDID (hex):
00ffffffffffff0030ae354000000000
31120103801e1378ea93659459569128
22505400000001010101010101010101
0101010101017b1d00e650202130452e
49002fbe10000018311b006451203330
6b477d002fbe100000180000000f0081
0a32810a281609000daf4114000000fe
004e31343149362d4c30310a20200083

Extracted contents:
header:          00 ff ff ff ff ff ff 00
serial number:   30 ae 35 40 00 00 00 00 31 12
version:         01 03
basic params:    80 1e 13 78 ea
chroma info:     93 65 94 59 56 91 28 22 50 54
established:     00 00 00
standard:        01 01 01 01 01 01 01 01 01 01 01 01 01 01 01 01
descriptor 1:    7b 1d 00 e6 50 20 21 30 45 2e 49 00 2f be 10 00 00 18
descriptor 2:    31 1b 00 64 51 20 33 30 6b 47 7d 00 2f be 10 00 00 18
descriptor 3:    00 00 00 0f 00 81 0a 32 81 0a 28 16 09 00 0d af 41 14
descriptor 4:    00 00 00 fe 00 4e 31 34 31 49 36 2d 4c 30 31 0a 20 20
extensions:      00
checksum:        83

EDID version: 1.3
Manufacturer: LEN Model 4035 Serial Number --
Made in week 49 of 2008
Digital display
Maximum image size: 30 cm x 19 cm
Gamma: 2.20
DPMS levels: Standby Suspend Off
RGB color display
First detailed timing is preferred timing
Display x,y Chromaticity:
  Red:   0.5800, 0.3486
  Green: 0.3359, 0.5693
  Blue:  0.1572, 0.1347
  White: 0.3134, 0.3291
Established timings supported:
Standard timings supported:
Detailed mode: Clock 75.470 MHz, 303 mm x 190 mm
               1280 1349 1395 1510 hborder 0
                800  804  813  833 vborder 0
               -hsync -vsync 
               VertFreq: 60 Hz, HorFreq: 49980 Hz
Detailed mode: Clock 69.610 MHz, 303 mm x 190 mm
               1280 1387 1458 1636 hborder 0
                800  807  820  851 vborder 0
               -hsync -vsync 
               VertFreq: 49 Hz, HorFreq: 42548 Hz
Manufacturer-specified data, tag 15
ASCII string: N141I6-L01
Checksum: 0x83 (valid)
EDID block does NOT conform to EDID 1.3!
	Missing name descriptor
	Missing monitor ranges
