edid-decode (hex):

00 ff ff ff ff ff ff 00 30 ae 35 40 00 00 00 00
01 12 01 03 80 1e 13 78 ea 26 75 96 58 57 93 28
1e 50 54 00 00 00 01 01 01 01 01 01 01 01 01 01
01 01 01 01 01 01 c6 1b 00 9e 50 20 17 30 30 20
36 00 2f bd 10 00 00 18 c7 1b 00 c0 51 20 17 30
30 20 36 00 2f bd 10 00 00 18 00 00 00 0f 00 81
0a 32 81 0a 28 16 09 00 06 af 56 33 00 00 00 fe
00 42 31 34 31 45 57 30 35 20 56 33 20 0a 00 d2

----------------

Block 0, Base EDID:
  EDID Structure Version & Revision: 1.3
  Vendor & Product Identification:
    Manufacturer: LEN
    Model: 16437
    Made in: week 1 of 2008
  Basic Display Parameters & Features:
    Digital display
    Maximum image size: 30 cm x 19 cm
    Gamma: 2.20
    DPMS levels: Standby Suspend Off
    RGB color display
    First detailed timing is the preferred timing
  Color Characteristics:
    Red  : 0.5859, 0.3457
    Green: 0.3408, 0.5761
    Blue : 0.1572, 0.1201
    White: 0.3134, 0.3291
  Established Timings I & II: none
  Standard Timings: none
  Detailed Timing Descriptors:
    DTD 1:  1280x800    60.077365 Hz   8:5     49.444 kHz     71.100000 MHz (303 mm x 189 mm)
                 Hfront   48 Hsync  32 Hback   78 Hpol N
                 Vfront    3 Vsync   6 Vback   14 Vpol N
    DTD 2:  1280x800    50.001969 Hz   8:5     41.152 kHz     71.110000 MHz (303 mm x 189 mm)
                 Hfront   48 Hsync  32 Hback  368 Hpol N
                 Vfront    3 Vsync   6 Vback   14 Vpol N
    Manufacturer-Specified Display Descriptor (0x0f): 00 0f 00 81 0a 32 81 0a 28 16 09 00 06 af 56 33 '.....2..(.....V3'
    Alphanumeric Data String: 'B141EW05 V3 '
Checksum: 0xd2

----------------

Failures:

Block 0, Base EDID:
  Alphanumeric Data String: One or more trailing spaces.
  Missing Display Product Name.
  Missing Display Range Limits Descriptor.

EDID conformity: FAIL
