
EDID (hex):
00ffffffffffff000e6f041300000000
011e0104a51d107802ef2caf4f40b327
0b4e5400000001010101010101010101
010101010101363680a0703820403020
350025a51000001a0000000000000000
0000000000000000001a000000fe0043
534f5454330a202020202020000000fe
004d4e313333314241322d310a2000c5

Extracted contents:
header:          00 ff ff ff ff ff ff 00
serial number:   0e 6f 04 13 00 00 00 00 01 1e
version:         01 04
basic params:    a5 1d 10 78 02
chroma info:     ef 2c af 4f 40 b3 27 0b 4e 54
established:     00 00 00
standard:        01 01 01 01 01 01 01 01 01 01 01 01 01 01 01 01
descriptor 1:    36 36 80 a0 70 38 20 40 30 20 35 00 25 a5 10 00 00 1a
descriptor 2:    00 00 00 00 00 00 00 00 00 00 00 00 00 00 00 00 00 1a
descriptor 3:    00 00 00 fe 00 43 53 4f 54 54 33 0a 20 20 20 20 20 20
descriptor 4:    00 00 00 fe 00 4d 4e 31 33 33 31 42 41 32 2d 31 0a 20
extensions:      00
checksum:        c5

EDID version: 1.4
Manufacturer: CSO Model 1304 Serial Number --
Made in week 1 of 2020
Digital display
8 bits per primary color channel
DisplayPort interface
Maximum image size: 29 cm x 16 cm
Gamma: 2.20
Supported color formats: RGB 4:4:4
First detailed timing includes the native pixel format and preferred refresh rate
Display x,y Chromaticity:
  Red:   0.6865, 0.3105
  Green: 0.2529, 0.7021
  Blue:  0.1523, 0.0449
  White: 0.3076, 0.3281
Established timings supported:
Standard timings supported:
Detailed mode: Clock 138.780 MHz, 293 mm x 165 mm
               1920 1968 2000 2080 hborder 0
               1080 1083 1088 1112 vborder 0
               +hsync -vsync 
               VertFreq: 60 Hz, HorFreq: 66721 Hz
Manufacturer-specified data, tag 0
ASCII string: CSOTT3
ASCII string: MN1331BA2-1
Checksum: 0xc5 (valid)
EDID block does NOT conform to EDID 1.4!
	Missing name descriptor
	Missing monitor ranges
