edid-decode (hex):

00 ff ff ff ff ff ff 00 4c a3 4c 31 00 00 00 00
00 12 01 03 80 1d 12 78 0a 87 f5 94 57 4f 8c 27
27 50 54 00 00 00 01 01 01 01 01 01 01 01 01 01
01 01 01 01 01 01 15 1b 00 7c 50 20 17 30 30 20
36 00 1e b3 10 00 00 19 00 00 00 0f 00 00 00 00
00 00 00 00 00 23 87 02 64 00 00 00 00 fe 00 53
41 4d 53 55 4e 47 0a 20 20 20 20 20 00 00 00 fe
00 31 33 33 41 54 31 35 2d 47 30 31 0a 20 00 b8

00 ff ff ff ff ff ff 00 4c a3 4c 31 00 00 00 00
00 12 01 03 80 1d 12 78 0a 87 f5 94 57 4f 8c 27
27 50 54 00 00 00 01 01 01 01 01 01 01 01 01 01
01 01 01 01 01 01 15 1b 00 7c 50 20 17 30 30 20
36 00 1e b3 10 00 00 19 00 00 00 0f 00 00 00 00
00 00 00 00 00 23 87 02 64 00 00 00 00 fe 00 53
41 4d 53 55 4e 47 0a 20 20 20 20 20 00 00 00 fe
00 31 33 33 41 54 31 35 2d 47 30 31 0a 20 00 b8

----------------

Block 0, Base EDID:
  EDID Structure Version & Revision: 1.3
  Vendor & Product Identification:
    Manufacturer: SEC
    Model: 12620
    Made in: 2008
  Basic Display Parameters & Features:
    Digital display
    Maximum image size: 29 cm x 18 cm
    Gamma: 2.20
    RGB color display
    First detailed timing is the preferred timing
  Color Characteristics:
    Red  : 0.5800, 0.3398
    Green: 0.3095, 0.5498
    Blue : 0.1552, 0.1552
    White: 0.3134, 0.3291
  Established Timings I & II: none
  Standard Timings: none
  Detailed Timing Descriptors:
    DTD 1:  1280x800    60.000415 Hz  16:10    49.380 kHz     69.330000 MHz (286 mm x 179 mm)
                 Hfront   48 Hsync  32 Hback   44 Hpol N
                 Vfront    3 Vsync   6 Vback   14 Vpol N
    Manufacturer-Specified Display Descriptor (0x0f): 00 0f 00 00 00 00 00 00 00 00 00 23 87 02 64 00 '...........#..d.'
    Alphanumeric Data String: 'SAMSUNG'
    Alphanumeric Data String: '133AT15-G01'
Checksum: 0xb8

----------------

Block 1, Unknown EDID Extension Block 0x00:
  00 ff ff ff ff ff ff 00 4c a3 4c 31 00 00 00 00 '........L.L1....'
  00 12 01 03 80 1d 12 78 0a 87 f5 94 57 4f 8c 27 '.......x....WO.''
  27 50 54 00 00 00 01 01 01 01 01 01 01 01 01 01 ''PT.............'
  01 01 01 01 01 01 15 1b 00 7c 50 20 17 30 30 20 '.........|P .00 '
  36 00 1e b3 10 00 00 19 00 00 00 0f 00 00 00 00 '6...............'
  00 00 00 00 00 23 87 02 64 00 00 00 00 fe 00 53 '.....#..d......S'
  41 4d 53 55 4e 47 0a 20 20 20 20 20 00 00 00 fe 'AMSUNG.     ....'
  00 31 33 33 41 54 31 35 2d 47 30 31 0a 20 00 b8 '.133AT15-G01. ..'
Checksum: 0xb8

----------------

Failures:

Block 0, Base EDID:
  Missing Display Product Name.
  Missing Display Range Limits Descriptor.
Block 1, Base EDID:
  Unknown Extension Block.
EDID:
  Base EDID: EDID specified 0 extension block(s), but found 1 extension block(s).

EDID conformity: FAIL
