
EDID (hex):
00ffffffffffff000daf331200000000
2d120103801a11780a61c58f59578f28
23505400000001010101010101010101
010101010101121b008450201230281a
340004aa10000018000000fe004e3132
3149422d4c30360a2020000000fe0043
4d4f0a202020202020202020000000fe
004e31323149422d4c30360a202000c4

Extracted contents:
header:          00 ff ff ff ff ff ff 00
serial number:   0d af 33 12 00 00 00 00 2d 12
version:         01 03
basic params:    80 1a 11 78 0a
chroma info:     61 c5 8f 59 57 8f 28 23 50 54
established:     00 00 00
standard:        01 01 01 01 01 01 01 01 01 01 01 01 01 01 01 01
descriptor 1:    12 1b 00 84 50 20 12 30 28 1a 34 00 04 aa 10 00 00 18
descriptor 2:    00 00 00 fe 00 4e 31 32 31 49 42 2d 4c 30 36 0a 20 20
descriptor 3:    00 00 00 fe 00 43 4d 4f 0a 20 20 20 20 20 20 20 20 20
descriptor 4:    00 00 00 fe 00 4e 31 32 31 49 42 2d 4c 30 36 0a 20 20
extensions:      00
checksum:        c4

EDID version: 1.3
Manufacturer: CMO Model 1233 Serial Number --
Made in week 45 of 2008
Digital display
Maximum image size: 26 cm x 17 cm
Gamma: 2.20
RGB color display
First detailed timing is preferred timing
Display x,y Chromaticity:
  Red:   0.5595, 0.3496
  Green: 0.3398, 0.5595
  Blue:  0.1591, 0.1367
  White: 0.3134, 0.3291
Established timings supported:
Standard timings supported:
Detailed mode: Clock 69.300 MHz, 260 mm x 170 mm
               1280 1320 1346 1412 hborder 0
                800  803  807  818 vborder 0
               -hsync -vsync 
               VertFreq: 59 Hz, HorFreq: 49079 Hz
ASCII string: N121IB-L06
ASCII string: CMO
ASCII string: N121IB-L06
Checksum: 0xc4 (valid)
EDID block does NOT conform to EDID 1.3!
	Missing name descriptor
	Missing monitor ranges
