
EDID (hex):
00ffffffffffff0030e4910100000000
00120103801e13780a1f359359558a28
22505400000001010101010101010101
010101010101121b007d502016303020
360030be100000180000000000000000
00000000000000000000000000fe004c
4720446973706c61790a2020000000fc
004c503134315758352d544c443100d9

Extracted contents:
header:          00 ff ff ff ff ff ff 00
serial number:   30 e4 91 01 00 00 00 00 00 12
version:         01 03
basic params:    80 1e 13 78 0a
chroma info:     1f 35 93 59 55 8a 28 22 50 54
established:     00 00 00
standard:        01 01 01 01 01 01 01 01 01 01 01 01 01 01 01 01
descriptor 1:    12 1b 00 7d 50 20 16 30 30 20 36 00 30 be 10 00 00 18
descriptor 2:    00 00 00 00 00 00 00 00 00 00 00 00 00 00 00 00 00 00
descriptor 3:    00 00 00 fe 00 4c 47 20 44 69 73 70 6c 61 79 0a 20 20
descriptor 4:    00 00 00 fc 00 4c 50 31 34 31 57 58 35 2d 54 4c 44 31
extensions:      00
checksum:        d9

EDID version: 1.3
Manufacturer: LGD Model 191 Serial Number --
Made in year 2008
Digital display
Maximum image size: 30 cm x 19 cm
Gamma: 2.20
RGB color display
First detailed timing is preferred timing
Display x,y Chromaticity:
  Red:   0.5742, 0.3486
  Green: 0.3349, 0.5419
  Blue:  0.1562, 0.1357
  White: 0.3134, 0.3291
Established timings supported:
Standard timings supported:
Detailed mode: Clock 69.300 MHz, 304 mm x 190 mm
               1280 1328 1360 1405 hborder 0
                800  803  809  822 vborder 0
               -hsync -vsync 
               VertFreq: 60 Hz, HorFreq: 49323 Hz
Manufacturer-specified data, tag 0
ASCII string: LG Display
Checksum: 0xd9 (valid)
EDID block does NOT conform to EDID 1.3!
	Name descriptor not terminated with a newline
	Missing monitor ranges
