edid-decode (hex):

00 ff ff ff ff ff ff 00 06 10 21 9c 01 01 01 01
05 0c 01 03 80 20 16 78 0a a7 5d 99 59 4f 8c 26
1d 51 54 00 00 00 01 01 01 01 01 01 01 01 01 01
01 01 01 01 01 01 2d 1f 00 00 51 56 0c 30 10 70
13 00 41 d6 10 00 00 18 00 00 00 fe 00 42 31 35
32 45 57 30 31 00 00 00 0a 20 00 00 00 fe 00 42
31 35 32 45 57 30 31 00 00 00 0a 20 00 00 00 fc
00 43 6f 6c 6f 72 20 4c 43 44 0a 20 20 20 00 c2

00 ff ff ff ff ff ff 00 06 10 21 9c 01 01 01 01
05 0c 01 03 80 20 16 78 0a a7 5d 99 59 4f 8c 26
1d 51 54 00 00 00 01 01 01 01 01 01 01 01 01 01
01 01 01 01 01 01 2d 1f 00 00 51 56 0c 30 10 70
13 00 41 d6 10 00 00 18 00 00 00 fe 00 42 31 35
32 45 57 30 31 00 00 00 0a 20 00 00 00 fe 00 42
31 35 32 45 57 30 31 00 00 00 0a 20 00 00 00 fc
00 43 6f 6c 6f 72 20 4c 43 44 0a 20 20 20 00 c2

----------------

Block 0, Base EDID:
  EDID Structure Version & Revision: 1.3
  Vendor & Product Identification:
    Manufacturer: APP
    Model: 39969
    Serial Number: ...
    Made in: week 5 of 2002
  Basic Display Parameters & Features:
    Digital display
    Maximum image size: 32 cm x 22 cm
    Gamma: 2.20
    RGB color display
    First detailed timing is the preferred timing
  Color Characteristics:
    Red  : 0.5996, 0.3496
    Green: 0.3095, 0.5498
    Blue : 0.1494, 0.1142
    White: 0.3193, 0.3291
  Established Timings I & II: none
  Standard Timings: none
  Detailed Timing Descriptors:
    DTD 1:  1280x854    59.999579 Hz 640:427   51.960 kHz     79.810000 MHz (321 mm x 214 mm)
                 Hfront   16 Hsync 112 Hback  128 Hpol N
                 Vfront    1 Vsync   3 Vback    8 Vpol N
    Alphanumeric Data String: 'B152EW01'
    Alphanumeric Data String: 'B152EW01'
    Display Product Name: 'Color LCD'
Checksum: 0xc2

----------------

Block 1, Unknown EDID Extension Block 0x00:
  00 ff ff ff ff ff ff 00 06 10 21 9c 01 01 01 01 '..........!.....'
  05 0c 01 03 80 20 16 78 0a a7 5d 99 59 4f 8c 26 '..... .x..].YO.&'
  1d 51 54 00 00 00 01 01 01 01 01 01 01 01 01 01 '.QT.............'
  01 01 01 01 01 01 2d 1f 00 00 51 56 0c 30 10 70 '......-...QV.0.p'
  13 00 41 d6 10 00 00 18 00 00 00 fe 00 42 31 35 '..A..........B15'
  32 45 57 30 31 00 00 00 0a 20 00 00 00 fe 00 42 '2EW01.... .....B'
  31 35 32 45 57 30 31 00 00 00 0a 20 00 00 00 fc '152EW01.... ....'
  00 43 6f 6c 6f 72 20 4c 43 44 0a 20 20 20 00 c2 '.Color LCD.   ..'
Checksum: 0xc2

----------------

Failures:

Block 0, Base EDID:
  Alphanumeric Data String: Non-printable character.
  Alphanumeric Data String: Non-printable character.
  Missing Display Range Limits Descriptor.
Block 1, Base EDID:
  Unknown Extension Block.
EDID:
  Base EDID: EDID specified 0 extension block(s), but found 1 extension block(s).

EDID conformity: FAIL
