edid-decode (hex):

00 ff ff ff ff ff ff 00 4d d9 90 0c 01 01 01 01
0d 0c 01 02 0e 24 1b 96 2b 0c c9 a0 57 47 9b 27
12 48 4c ff ff 80 d1 40 81 4f 71 59 a9 4f 81 99
61 59 45 59 31 59 86 3d 00 c0 51 00 30 40 40 a0
13 00 60 08 11 00 00 1e 00 00 00 fd 00 30 aa 1e
60 16 00 0a 20 20 20 20 20 20 00 00 00 fc 00 43
50 44 2d 45 34 33 30 0a 20 20 20 20 00 00 00 ff
00 36 30 32 32 38 38 34 0a 20 20 20 20 20 00 fe

00 ff ff ff ff ff ff 00 4d d9 90 0c 01 01 01 01
0d 0c 01 02 0e 24 1b 96 2b 0c c9 a0 57 47 9b 27
12 48 4c ff ff 80 d1 40 81 4f 71 59 a9 4f 81 99
61 59 45 59 31 59 86 3d 00 c0 51 00 30 40 40 a0
13 00 60 08 11 00 00 1e 00 00 00 fd 00 30 aa 1e
60 16 00 0a 20 20 20 20 20 20 00 00 00 fc 00 43
50 44 2d 45 34 33 30 0a 20 20 20 20 00 00 00 ff
00 36 30 32 32 38 38 34 0a 20 20 20 20 20 00 fe

----------------

Block 0, Base EDID:
  EDID Structure Version & Revision: 1.2
  Vendor & Product Identification:
    Manufacturer: SNY
    Model: 3216
    Serial Number: ...
    Made in: week 13 of 2002
  Basic Display Parameters & Features:
    Analog display
    Signal Level Standard: 0.700 : 0.300 : 1.000 V p-p
    Blank level equals black level
    Sync: Separate Composite SyncOnGreen
    Maximum image size: 36 cm x 27 cm
    Gamma: 2.50
    DPMS levels: Off
    RGB color display
    First detailed timing is the preferred timing
    Supports GTF timings within operating range
  Color Characteristics:
    Red  : 0.6250, 0.3398
    Green: 0.2802, 0.6054
    Blue : 0.1552, 0.0703
    White: 0.2832, 0.2978
  Established Timings I & II:
    IBM     :   720x400    70.081663 Hz   9:5     31.467 kHz     28.320000 MHz
    IBM     :   720x400    87.849542 Hz   9:5     39.444 kHz     35.500000 MHz
    DMT 0x04:   640x480    59.940476 Hz   4:3     31.469 kHz     25.175000 MHz
    Apple   :   640x480    66.666667 Hz   4:3     35.000 kHz     30.240000 MHz
    DMT 0x05:   640x480    72.808802 Hz   4:3     37.861 kHz     31.500000 MHz
    DMT 0x06:   640x480    75.000000 Hz   4:3     37.500 kHz     31.500000 MHz
    DMT 0x08:   800x600    56.250000 Hz   4:3     35.156 kHz     36.000000 MHz
    DMT 0x09:   800x600    60.316541 Hz   4:3     37.879 kHz     40.000000 MHz
    DMT 0x0a:   800x600    72.187572 Hz   4:3     48.077 kHz     50.000000 MHz
    DMT 0x0b:   800x600    75.000000 Hz   4:3     46.875 kHz     49.500000 MHz
    Apple   :   832x624    74.551266 Hz   4:3     49.726 kHz     57.284000 MHz
    DMT 0x0f:  1024x768i   86.957532 Hz   4:3     35.522 kHz     44.900000 MHz
    DMT 0x10:  1024x768    60.003840 Hz   4:3     48.363 kHz     65.000000 MHz
    DMT 0x11:  1024x768    70.069359 Hz   4:3     56.476 kHz     75.000000 MHz
    DMT 0x12:  1024x768    75.028582 Hz   4:3     60.023 kHz     78.750000 MHz
    DMT 0x24:  1280x1024   75.024675 Hz   5:4     79.976 kHz    135.000000 MHz
    Apple   :  1152x870    75.061550 Hz 192:145   68.681 kHz    100.000000 MHz
  Standard Timings:
    DMT 0x49:  1920x1440   60.000000 Hz   4:3     90.000 kHz    234.000000 MHz
    GTF     :  1280x960    74.999884 Hz   4:3     75.150 kHz    129.859000 MHz
    GTF     :  1152x864    84.999687 Hz   4:3     77.095 kHz    119.651000 MHz
    DMT 0x36:  1600x1200   75.000000 Hz   4:3     93.750 kHz    202.500000 MHz
    DMT 0x25:  1280x1024   85.024098 Hz   5:4     91.146 kHz    157.500000 MHz
    DMT 0x13:  1024x768    84.996690 Hz   4:3     68.677 kHz     94.500000 MHz
    DMT 0x0c:   800x600    85.061274 Hz   4:3     53.674 kHz     56.250000 MHz
    DMT 0x07:   640x480    85.008312 Hz   4:3     43.269 kHz     36.000000 MHz
  Detailed Timing Descriptors:
    DTD 1:  1280x1024   85.024098 Hz   5:4     91.146 kHz    157.500000 MHz (352 mm x 264 mm)
                 Hfront   64 Hsync 160 Hback  224 Hpol P
                 Vfront    1 Vsync   3 Vback   44 Vpol P
    Display Range Limits:
      Monitor ranges (GTF): 48-170 Hz V, 30-96 kHz H, max dotclock 220 MHz
    Display Product Name: 'CPD-E430'
    Display Product Serial Number: ...
Checksum: 0xfe

----------------

Block 1, Unknown EDID Extension Block 0x00:
  00 ff ff ff ff ff ff 00 4d d9 90 0c 01 01 01 01 '........M.......'
  0d 0c 01 02 0e 24 1b 96 2b 0c c9 a0 57 47 9b 27 '.....$..+...WG.''
  12 48 4c ff ff 80 d1 40 81 4f 71 59 a9 4f 81 99 '.HL....@.OqY.O..'
  61 59 45 59 31 59 86 3d 00 c0 51 00 30 40 40 a0 'aYEY1Y.=..Q.0@@.'
  13 00 60 08 11 00 00 1e 00 00 00 fd 00 30 aa 1e '..`..........0..'
  60 16 00 0a 20 20 20 20 20 20 00 00 00 fc 00 43 '`...      .....C'
  50 44 2d 45 34 33 30 0a 20 20 20 20 00 00 00 ff 'PD-E430.    ....'
  00 36 30 32 32 38 38 34 0a 20 20 20 20 20 00 fe '.6022884.     ..'
Checksum: 0xfe

----------------

Warnings:

Block 0, Base EDID:
  EDID Structure Version & Revision: EDID 1.2 is deprecated, do not use.

Failures:

Block 1, Base EDID:
  Unknown Extension Block.
EDID:
  Base EDID: Some timings are out of range of the Monitor Ranges:
    Maximum Clock: 234.000 MHz (Monitor: 220.000 MHz)
  Base EDID: EDID specified 0 extension block(s), but found 1 extension block(s).

EDID conformity: FAIL
