edid-decode (hex):

00 ff ff ff ff ff ff 00 1a aa 11 6c 92 8d 70 12
1b 16 01 03 80 34 20 78 2a 5e b0 a6 56 4b 9a 25
12 50 54 a1 08 00 81 80 95 00 81 00 b3 00 a9 40
01 01 01 01 01 01 28 3c 80 a0 70 b0 23 40 30 20
36 00 07 44 21 00 00 1a 00 00 00 fd 00 3b 47 1e
4c 11 00 0a 20 20 20 20 20 20 00 00 00 fc 00 56
4c 2d 32 34 33 53 53 57 0a 20 20 20 00 00 00 fe
00 0a 20 20 20 20 20 20 20 20 20 20 20 20 00 23

00 ff ff ff ff ff ff 00 1a aa 11 6c 92 8d 70 12
1b 16 01 03 80 34 20 78 2a 5e b0 a6 56 4b 9a 25
12 50 54 a1 08 00 81 80 95 00 81 00 b3 00 a9 40
01 01 01 01 01 01 28 3c 80 a0 70 b0 23 40 30 20
36 00 07 44 21 00 00 1a 00 00 00 fd 00 3b 47 1e
4c 11 00 0a 20 20 20 20 20 20 00 00 00 fc 00 56
4c 2d 32 34 33 53 53 57 0a 20 20 20 00 00 00 fe
00 0a 20 20 20 20 20 20 20 20 20 20 20 20 00 23

----------------

Block 0, Base EDID:
  EDID Structure Version & Revision: 1.3
  Vendor & Product Identification:
    Manufacturer: FUJ
    Model: 27665
    Serial Number: ...
    Made in: week 27 of 2012
  Basic Display Parameters & Features:
    Digital display
    Maximum image size: 52 cm x 32 cm
    Gamma: 2.20
    DPMS levels: Off
    RGB color display
    First detailed timing is the preferred timing
  Color Characteristics:
    Red  : 0.6494, 0.3369
    Green: 0.2958, 0.6035
    Blue : 0.1464, 0.0732
    White: 0.3125, 0.3281
  Established Timings I & II:
    IBM     :   720x400    70.081663 Hz   9:5     31.467 kHz     28.320000 MHz
    DMT 0x04:   640x480    59.940476 Hz   4:3     31.469 kHz     25.175000 MHz
    DMT 0x09:   800x600    60.316541 Hz   4:3     37.879 kHz     40.000000 MHz
    DMT 0x10:  1024x768    60.003840 Hz   4:3     48.363 kHz     65.000000 MHz
  Standard Timings:
    DMT 0x23:  1280x1024   60.019740 Hz   5:4     63.981 kHz    108.000000 MHz
    DMT 0x2f:  1440x900    59.887445 Hz  16:10    55.935 kHz    106.500000 MHz
    DMT 0x1c:  1280x800    59.810326 Hz  16:10    49.702 kHz     83.500000 MHz
    DMT 0x3a:  1680x1050   59.954250 Hz  16:10    65.290 kHz    146.250000 MHz
    DMT 0x33:  1600x1200   60.000000 Hz   4:3     75.000 kHz    162.000000 MHz
  Detailed Timing Descriptors:
    DTD 1:  1920x1200   59.950171 Hz  16:10    74.038 kHz    154.000000 MHz (519 mm x 324 mm)
                 Hfront   48 Hsync  32 Hback   80 Hpol P
                 Vfront    3 Vsync   6 Vback   26 Vpol N
    Display Range Limits:
      Monitor ranges (GTF): 59-71 Hz V, 30-76 kHz H, max dotclock 170 MHz
    Display Product Name: 'VL-243SSW'
    Alphanumeric Data String: ''
Checksum: 0x23

----------------

Block 1, Unknown EDID Extension Block 0x00:
  00 ff ff ff ff ff ff 00 1a aa 11 6c 92 8d 70 12 '...........l..p.'
  1b 16 01 03 80 34 20 78 2a 5e b0 a6 56 4b 9a 25 '.....4 x*^..VK.%'
  12 50 54 a1 08 00 81 80 95 00 81 00 b3 00 a9 40 '.PT............@'
  01 01 01 01 01 01 28 3c 80 a0 70 b0 23 40 30 20 '......(<..p.#@0 '
  36 00 07 44 21 00 00 1a 00 00 00 fd 00 3b 47 1e '6..D!........;G.'
  4c 11 00 0a 20 20 20 20 20 20 00 00 00 fc 00 56 'L...      .....V'
  4c 2d 32 34 33 53 53 57 0a 20 20 20 00 00 00 fe 'L-243SSW.   ....'
  00 0a 20 20 20 20 20 20 20 20 20 20 20 20 00 23 '..            .#'
Checksum: 0x23

----------------

Failures:

Block 0, Base EDID:
  Alphanumeric Data String: Empty string.
Block 1, Base EDID:
  Unknown Extension Block.
EDID:
  Base EDID: EDID specified 0 extension block(s), but found 1 extension block(s).

EDID conformity: FAIL
