
EDID (hex):
00ffffffffffff0012e5000000000000
00050100081c157fe80fde9e584d9726
10474fefde0081800101010101010101
010101010101302a009851002a403070
13001b140000001e0101010101010101
01010101010101010101010101010101
01010101010101010101010101010101
01010101010101010101010101010017

Extracted contents:
header:          00 ff ff ff ff ff ff 00
serial number:   12 e5 00 00 00 00 00 00 00 05
version:         01 00
basic params:    08 1c 15 7f e8
chroma info:     0f de 9e 58 4d 97 26 10 47 4f
established:     ef de 00
standard:        81 80 01 01 01 01 01 01 01 01 01 01 01 01 01 01
descriptor 1:    30 2a 00 98 51 00 2a 40 30 70 13 00 1b 14 00 00 00 1e
descriptor 2:    01 01 01 01 01 01 01 01 01 01 01 01 01 01 01 01 01 01
descriptor 3:    01 01 01 01 01 01 01 01 01 01 01 01 01 01 01 01 01 01
descriptor 4:    01 01 01 01 01 01 01 01 01 01 01 01 01 01 01 01 01 01
extensions:      00
checksum:        17

EDID version: 1.0
Manufacturer: DWE Model 0 Serial Number --
Analog display, Input voltage level: 0.7/0.3 V
Sync: Separate 
Maximum image size: 28 cm x 21 cm
Gamma: 2.27
DPMS levels: Standby Suspend Off
RGB color display
Display x,y Chromaticity:
  Red:   0.6171, 0.3437
  Green: 0.3037, 0.5927
  Blue:  0.1513, 0.0634
  White: 0.2802, 0.3105
Established timings supported:
  720x400@70Hz 9:5 HorFreq: 31469 Hz Clock: 28.320 MHz
  720x400@88Hz 9:5 HorFreq: 39500 Hz Clock: 35.500 MHz
  640x480@60Hz 4:3 HorFreq: 31469 Hz Clock: 25.175 MHz
  640x480@72Hz 4:3 HorFreq: 37900 Hz Clock: 31.500 MHz
  640x480@75Hz 4:3 HorFreq: 37500 Hz Clock: 31.500 MHz
  800x600@56Hz 4:3 HorFreq: 35200 Hz Clock: 36.000 MHz
  800x600@60Hz 4:3 HorFreq: 37900 Hz Clock: 40.000 MHz
  800x600@72Hz 4:3 HorFreq: 48100 Hz Clock: 50.000 MHz
  800x600@75Hz 4:3 HorFreq: 46900 Hz Clock: 49.500 MHz
  1280x768i@87Hz 5:3 HorFreq: 35522 Hz Clock: 44.900 MHz
  1024x768@60Hz 4:3 HorFreq: 48400 Hz Clock: 65.000 MHz
  1024x768@70Hz 4:3 HorFreq: 56500 Hz Clock: 75.000 MHz
  1024x768@75Hz 4:3 HorFreq: 60000 Hz Clock: 78.750 MHz
Standard timings supported:
  1280x1024@60Hz 5:4 HorFreq: 64000 Hz Clock: 108.000 MHz
Detailed mode: Clock 108.000 MHz, 27 mm x 20 mm
               1280 1328 1440 1688 hborder 0
               1024 1025 1028 1066 vborder 0
               +hsync +vsync 
               VertFreq: 60 Hz, HorFreq: 63981 Hz
Detailed mode: Clock 2.570 MHz, 1 mm x 257 mm
                  1    2    3  258 hborder 1
                  1    1   18  258 vborder 1
               -hsync -vsync analog composite 
               VertFreq: 38 Hz, HorFreq: 9961 Hz
Detailed mode: Clock 2.570 MHz, 1 mm x 257 mm
                  1    2    3  258 hborder 1
                  1    1   18  258 vborder 1
               -hsync -vsync analog composite 
               VertFreq: 38 Hz, HorFreq: 9961 Hz
Detailed mode: Clock 2.570 MHz, 1 mm x 257 mm
                  1    2    3  258 hborder 1
                  1    1   18  258 vborder 1
               -hsync -vsync analog composite 
               VertFreq: 38 Hz, HorFreq: 9961 Hz
Checksum: 0x17 (valid)
EDID block does not conform at all!
	Bad year of manufacture
