
EDID (hex):
00ffffffffffff0004ef010031304e43
2d170103a01e1761eae4de9e544a9723
1c4c5400080081808140810001019500
01010101010164190040410026301888
360000c010000018023a801871382d40
582c4500dd0c1100001e662150b05100
1b304070360032313400001e000000fa
00819981c081fc01010101950f0a013c

Extracted contents:
header:          00 ff ff ff ff ff ff 00
serial number:   04 ef 01 00 31 30 4e 43 2d 17
version:         01 03
basic params:    a0 1e 17 61 ea
chroma info:     e4 de 9e 54 4a 97 23 1c 4c 54
established:     00 08 00
standard:        81 80 81 40 81 00 01 01 95 00 01 01 01 01 01 01
descriptor 1:    64 19 00 40 41 00 26 30 18 88 36 00 00 c0 10 00 00 18
descriptor 2:    02 3a 80 18 71 38 2d 40 58 2c 45 00 dd 0c 11 00 00 1e
descriptor 3:    66 21 50 b0 51 00 1b 30 40 70 36 00 32 31 34 00 00 1e
descriptor 4:    00 00 00 fa 00 81 99 81 c0 81 fc 01 01 01 01 95 0f 0a
extensions:      01
checksum:        3c

EDID version: 1.3
Manufacturer: AGO Model 1 Serial Number --
Made in week 45 of 2013
Digital display
Maximum image size: 30 cm x 23 cm
Gamma: 1.97
DPMS levels: Standby Suspend Off
RGB color display
First detailed timing is preferred timing
Display x,y Chromaticity:
  Red:   0.6201, 0.3300
  Green: 0.2900, 0.5898
  Blue:  0.1396, 0.1103
  White: 0.2998, 0.3300
Established timings supported:
  1024x768@60Hz 4:3 HorFreq: 48400 Hz Clock: 65.000 MHz
Standard timings supported:
  1280x1024@60Hz 5:4 HorFreq: 64000 Hz Clock: 108.000 MHz
  1280x960@60Hz 4:3 HorFreq: 60000 Hz Clock: 108.000 MHz
  1280x800@60Hz 16:10
  1440x900@60Hz 16:10 HorFreq: 55500 Hz Clock: 88.750 MHz
Detailed mode: Clock 65.000 MHz, 256 mm x 192 mm
               1024 1048 1184 1344 hborder 0
                768  771  777  806 vborder 0
               -hsync -vsync 
               VertFreq: 60 Hz, HorFreq: 48363 Hz
Detailed mode: Clock 148.500 MHz, 477 mm x 268 mm
               1920 2008 2052 2200 hborder 0
               1080 1084 1089 1125 vborder 0
               +hsync +vsync 
               VertFreq: 60 Hz, HorFreq: 67500 Hz
Detailed mode: Clock 85.500 MHz, 818 mm x 1073 mm
               1360 1424 1536 1792 hborder 0
                768  771  777  795 vborder 0
               +hsync +vsync 
               VertFreq: 60 Hz, HorFreq: 47712 Hz
More standard timings:
  1280x1024@85Hz 5:4 HorFreq: 91100 Hz Clock: 157.500 MHz
  1280x720@60Hz 16:9
  1280x720@120Hz 16:9
  1440x900@75Hz 16:10 HorFreq: 82300 Hz Clock: 156.000 MHz
Has 1 extension blocks
Checksum: 0x3c (valid)
EDID block does NOT conform to EDID 1.3!
	Digital display field contains garbage: 20
	Missing name descriptor
	Missing monitor ranges
