edid-decode (hex):

00 ff ff ff ff ff ff 00 4e 84 22 20 00 00 00 00
17 20 01 03 08 22 1b 78 0a d7 a5 a2 59 4a 96 24
14 50 54 ad ca 00 81 c0 01 01 01 01 01 01 01 01
01 01 01 01 01 01 30 2a 00 98 51 00 2a 40 30 6c
13 00 05 04 00 00 00 1e 30 2a 00 08 52 c0 28 30
60 70 13 00 20 56 00 00 00 1e 00 00 00 fd 00 32
4c 1e 50 10 00 0a 20 20 20 20 20 20 00 00 00 fc
00 4c 43 44 0a 20 20 20 20 20 20 20 20 20 00 75

00 ff ff ff ff ff ff 00 4e 84 22 20 00 00 00 00
17 20 01 03 08 22 1b 78 0a d7 a5 a2 59 4a 96 24
14 50 54 ad ca 00 81 c0 01 01 01 01 01 01 01 01
01 01 01 01 01 01 30 2a 00 98 51 00 2a 40 30 6c
13 00 05 04 00 00 00 1e 30 2a 00 08 52 c0 28 30
60 70 13 00 20 56 00 00 00 1e 00 00 00 fd 00 32
4c 1e 50 10 00 0a 20 20 20 20 20 20 00 00 00 fc
00 4c 43 44 0a 20 20 20 20 20 20 20 20 20 00 75

----------------

Block 0, Base EDID:
  EDID Structure Version & Revision: 1.3
  Vendor & Product Identification:
    Manufacturer: STD
    Model: 8226
    Made in: week 23 of 2022
  Basic Display Parameters & Features:
    Analog display
    Signal Level Standard: 0.700 : 0.300 : 1.000 V p-p
    Blank level equals black level
    Sync: Separate
    Maximum image size: 34 cm x 27 cm
    Gamma: 2.20
    RGB color display
    First detailed timing is the preferred timing
  Color Characteristics:
    Red  : 0.6357, 0.3486
    Green: 0.2900, 0.5888
    Blue : 0.1425, 0.0800
    White: 0.3134, 0.3291
  Established Timings I & II:
    IBM     :   720x400    70.081663 Hz   9:5     31.467 kHz     28.320000 MHz
    DMT 0x04:   640x480    59.940476 Hz   4:3     31.469 kHz     25.175000 MHz
    DMT 0x05:   640x480    72.808802 Hz   4:3     37.861 kHz     31.500000 MHz
    DMT 0x06:   640x480    75.000000 Hz   4:3     37.500 kHz     31.500000 MHz
    DMT 0x09:   800x600    60.316541 Hz   4:3     37.879 kHz     40.000000 MHz
    DMT 0x0a:   800x600    72.187572 Hz   4:3     48.077 kHz     50.000000 MHz
    DMT 0x0b:   800x600    75.000000 Hz   4:3     46.875 kHz     49.500000 MHz
    DMT 0x10:  1024x768    60.003840 Hz   4:3     48.363 kHz     65.000000 MHz
    DMT 0x12:  1024x768    75.028582 Hz   4:3     60.023 kHz     78.750000 MHz
  Standard Timings:
    DMT 0x55:  1280x720    60.000000 Hz  16:9     45.000 kHz     74.250000 MHz
  Detailed Timing Descriptors:
    DTD 1:  1280x1024   60.019740 Hz   5:4     63.981 kHz    108.000000 MHz (5 mm x 4 mm)
                 Hfront   48 Hsync 108 Hback  252 Hpol P
                 Vfront    1 Vsync   3 Vback   38 Vpol P
    DTD 2:  1280x960    60.000000 Hz   4:3     60.000 kHz    108.000000 MHz (32 mm x 86 mm)
                 Hfront   96 Hsync 112 Hback  312 Hpol P
                 Vfront    1 Vsync   3 Vback   36 Vpol P
    Display Range Limits:
      Monitor ranges (GTF): 50-76 Hz V, 30-80 kHz H, max dotclock 160 MHz
    Display Product Name: 'LCD'
Checksum: 0x75

----------------

Block 1, Unknown EDID Extension Block 0x00:
  00 ff ff ff ff ff ff 00 4e 84 22 20 00 00 00 00 '........N." ....'
  17 20 01 03 08 22 1b 78 0a d7 a5 a2 59 4a 96 24 '. ...".x....YJ.$'
  14 50 54 ad ca 00 81 c0 01 01 01 01 01 01 01 01 '.PT.............'
  01 01 01 01 01 01 30 2a 00 98 51 00 2a 40 30 6c '......0*..Q.*@0l'
  13 00 05 04 00 00 00 1e 30 2a 00 08 52 c0 28 30 '........0*..R.(0'
  60 70 13 00 20 56 00 00 00 1e 00 00 00 fd 00 32 '`p.. V.........2'
  4c 1e 50 10 00 0a 20 20 20 20 20 20 00 00 00 fc 'L.P...      ....'
  00 4c 43 44 0a 20 20 20 20 20 20 20 20 20 00 75 '.LCD.         .u'
Checksum: 0x75

----------------

Warnings:

Block 0, Base EDID:
  Detailed Timing Descriptor #1: DTD is similar but not identical to DMT 0x23.

Failures:

Block 0, Base EDID:
  Detailed Timing Descriptor #1: Mismatch of image size 5x4 mm vs display size 340x270 mm.
  Detailed Timing Descriptor #2: Mismatch of image size 32x86 mm vs display size 340x270 mm.
Block 1, Base EDID:
  Unknown Extension Block.
EDID:
  Base EDID: EDID specified 0 extension block(s), but found 1 extension block(s).

EDID conformity: FAIL
