edid-decode (hex):

00 ff ff ff ff ff ff 00 30 e4 8e 02 01 00 00 00
00 13 01 03 80 1f 11 78 0a 8e 35 93 58 56 90 29
20 50 54 00 00 00 01 01 01 01 01 01 01 01 01 01
01 01 01 01 01 01 bc 1b 56 88 50 00 14 30 30 20
35 00 36 ae 10 00 00 19 00 00 00 00 00 00 00 00
00 00 00 00 00 00 00 00 00 00 00 00 00 fe 00 4c
47 20 44 69 73 70 6c 61 79 0a 20 20 00 00 00 fe
00 4c 50 31 34 30 57 48 32 2d 54 4c 51 31 00 8c

----------------

Block 0, Base EDID:
  EDID Structure Version & Revision: 1.3
  Vendor & Product Identification:
    Manufacturer: LGD
    Model: 654
    Serial Number: ...
    Made in: 2009
  Basic Display Parameters & Features:
    Digital display
    Maximum image size: 31 cm x 17 cm
    Gamma: 2.20
    RGB color display
    First detailed timing is preferred timing
  Color Characteristics:
    Red  : 0.5761, 0.3437
    Green: 0.3388, 0.5644
    Blue : 0.1601, 0.1279
    White: 0.3134, 0.3291
  Established Timings I & II: none
  Standard Timings: none
  Detailed Timing Descriptors:
    DTD 1:  1366x768    59.988 Hz 683:384  47.270 kHz  71.000 MHz (310 mm x 174 mm)
                 Hfront   48 Hsync  32 Hback  56 Hpol N
                 Vfront    3 Vsync   5 Vback  12 Vpol N
    Empty Descriptor
    Alphanumeric Data String: 'LG Display'
    Alphanumeric Data String: 'LP140WH2-TLQ1'
Checksum: 0x8c
