
EDID (hex):
00ffffffffffff0006af3d4000000000
001b0104951f1178029b859256599029
20505400000001010101010101010101
010101010101143780b8703824401010
3e0035ad100000180000000000000000
00000000000000000000000000fe0041
554f0a202020202020202020000000fe
004231343048414e30342e30200a00eb

Extracted contents:
header:          00 ff ff ff ff ff ff 00
serial number:   06 af 3d 40 00 00 00 00 00 1b
version:         01 04
basic params:    95 1f 11 78 02
chroma info:     9b 85 92 56 59 90 29 20 50 54
established:     00 00 00
standard:        01 01 01 01 01 01 01 01 01 01 01 01 01 01 01 01
descriptor 1:    14 37 80 b8 70 38 24 40 10 10 3e 00 35 ad 10 00 00 18
descriptor 2:    00 00 00 00 00 00 00 00 00 00 00 00 00 00 00 00 00 00
descriptor 3:    00 00 00 fe 00 41 55 4f 0a 20 20 20 20 20 20 20 20 20
descriptor 4:    00 00 00 fe 00 42 31 34 30 48 41 4e 30 34 2e 30 20 0a
extensions:      00
checksum:        eb

EDID version: 1.4
Manufacturer: AUO Model 403d Serial Number --
Made in year 2017
Digital display
6 bits per primary color channel
DisplayPort interface
Maximum image size: 31 cm x 17 cm
Gamma: 2.20
Supported color formats: RGB 4:4:4
First detailed timing includes the native pixel format and preferred refresh rate
Display x,y Chromaticity:
  Red:   0.5722, 0.3369
  Green: 0.3496, 0.5654
  Blue:  0.1621, 0.1250
  White: 0.3134, 0.3291
Established timings supported:
Standard timings supported:
Detailed mode: Clock 141.000 MHz, 309 mm x 173 mm
               1920 1936 1952 2104 hborder 0
               1080 1083 1097 1116 vborder 0
               -hsync -vsync 
               VertFreq: 60 Hz, HorFreq: 67015 Hz
Manufacturer-specified data, tag 0
ASCII string: AUO
ASCII string: B140HAN04.0 
Checksum: 0xeb (valid)
EDID block does NOT conform to EDID 1.4!
	Missing name descriptor
	Missing monitor ranges
