edid-decode (hex):

00 ff ff ff ff ff ff 00 30 e4 76 07 00 00 00 00
00 22 01 04 a5 23 16 78 07 e5 d5 a3 55 4c 99 24
0e 50 54 00 00 00 01 01 01 01 01 01 01 01 01 01
01 01 01 01 01 01 f0 7b 80 a0 70 b0 47 40 30 20
36 00 5f db 10 00 00 1a 00 00 00 fd 00 1e 78 99
99 20 01 0a 20 20 20 20 20 20 00 00 00 fe 00 56
57 4e 47 56 80 31 36 33 57 55 31 0a 00 00 00 00
00 02 41 0c b2 00 01 00 00 0b 41 0a 20 20 01 78

70 20 79 02 00 20 00 13 3c e6 24 76 07 00 00 00
00 00 18 07 31 36 33 57 55 31 0a 21 00 1d b3 0d
90 08 80 07 b0 04 88 3d 8a 55 c5 64 99 4e 52 0e
02 45 54 d0 5f d0 5f 00 34 12 78 26 00 09 02 00
00 00 00 00 01 00 00 22 00 14 5f d7 04 85 7f 07
9f 00 2f 80 1f 00 af 04 46 00 02 00 05 00 25 01
09 5f d7 04 5f d7 04 1e 78 80 81 00 0b e3 05 80
00 e6 06 01 01 6a 6a 39 00 00 00 00 00 00 71 90

00 ff ff ff ff ff ff 00 30 e4 76 07 00 00 00 00
00 22 01 04 a5 23 16 78 07 e5 d5 a3 55 4c 99 24
0e 50 54 00 00 00 01 01 01 01 01 01 01 01 01 01
01 01 01 01 01 01 f0 7b 80 a0 70 b0 47 40 30 20
36 00 5f db 10 00 00 1a 00 00 00 fd 00 1e 78 99
99 20 01 0a 20 20 20 20 20 20 00 00 00 fe 00 56
57 4e 47 56 80 31 36 33 57 55 31 0a 00 00 00 00
00 02 41 0c b2 00 01 00 00 0b 41 0a 20 20 01 78

70 20 79 02 00 20 00 13 3c e6 24 76 07 00 00 00
00 00 18 07 31 36 33 57 55 31 0a 21 00 1d b3 0d
90 08 80 07 b0 04 88 3d 8a 55 c5 64 99 4e 52 0e
02 45 54 d0 5f d0 5f 00 34 12 78 26 00 09 02 00
00 00 00 00 01 00 00 22 00 14 5f d7 04 85 7f 07
9f 00 2f 80 1f 00 af 04 46 00 02 00 05 00 25 01
09 5f d7 04 5f d7 04 1e 78 80 81 00 0b e3 05 80
00 e6 06 01 01 6a 6a 39 00 00 00 00 00 00 71 90

----------------

Block 0, Base EDID:
  EDID Structure Version & Revision: 1.4
  Vendor & Product Identification:
    Manufacturer: LGD
    Model: 1910
    Made in: 2024
  Basic Display Parameters & Features:
    Digital display
    Bits per primary color channel: 8
    DisplayPort interface
    Maximum image size: 35 cm x 22 cm
    Gamma: 2.20
    Supported color formats: RGB 4:4:4
    Default (sRGB) color space is primary color space
    First detailed timing includes the native pixel format and preferred refresh rate
    Display is continuous frequency
  Color Characteristics:
    Red  : 0.6396, 0.3339
    Green: 0.2978, 0.5986
    Blue : 0.1435, 0.0556
    White: 0.3134, 0.3291
  Established Timings I & II: none
  Standard Timings: none
  Detailed Timing Descriptors:
    DTD 1:  1920x1200  120.014525 Hz  16:10   152.538 kHz    317.280000 MHz (351 mm x 219 mm)
                 Hfront   48 Hsync  32 Hback   80 Hpol P
                 Vfront    3 Vsync   6 Vback   62 Vpol N
    Display Range Limits:
      Monitor ranges (Bare Limits): 30-120 Hz V, 153-153 kHz H, max dotclock 320 MHz
    Alphanumeric Data String: 'VWNGV'
    Manufacturer-Specified Display Descriptor (0x00): 00 00 00 02 41 0c b2 00 01 00 00 0b 41 0a 20 20 '....A.......A.  '
  Extension blocks: 1
Checksum: 0x78

----------------

Block 1, DisplayID Extension Block:
  Version: 2.0
  Extension Count: 0
  Display Product Primary Use Case: None of the listed primary use cases; generic display
  Product Identification Data Block (0x20), OUI 3C-E6-24:
    Product Code: 1910
    Year of Manufacture: 2024
    Product ID: 163WU1

  Display Parameters Data Block (0x21):
    Image size: 350.7 mm x 219.2 mm
    Display native pixel format: 1920x1200
    Scan Orientation: Left to Right, Top to Bottom
    Luminance Information: Guidance for the Source device
    Color Information: CIE 1931
    Audio Speaker Information: not integrated
    Native Color Chromaticity:
      Primary #1:  (0.639893, 0.333984)
      Primary #2:  (0.298096, 0.599121)
      Primary #3:  (0.144043, 0.055908)
      White Point: (0.312988, 0.329102)
    Native Maximum Luminance (Full Coverage): 500.000000 cd/m^2
    Native Maximum Luminance (10% Rectangular Coverage): 500.000000 cd/m^2
    Native Minimum Luminance: 0.250000 cd/m^2
    Native Color Depth: 10 bpc
    Display Device Technology: Active Matrix LCD
    Native Gamma EOTF: 2.20
  Display Interface Features Data Block:
    Supported bpc for RGB encoding: 8
    Supported color space and EOTF standard combination 1: sRGB
  Video Timing Modes Type 7 - Detailed Timings Data Block:
    DTD:  1920x1200  120.014525 Hz  16:10   152.538 kHz    317.280000 MHz (aspect 16:10, no 3D stereo, preferred)
               Hfront   48 Hsync  32 Hback   80 Hpol P
               Vfront    3 Vsync   6 Vback   62 Vpol N
  Dynamic Video Timing Range Limits Data Block:
    Minimum Pixel Clock: 317280 kHz
    Maximum Pixel Clock: 317280 kHz
    Minimum Vertical Refresh Rate: 30 Hz
    Maximum Vertical Refresh Rate: 120 Hz
    Seamless Dynamic Video Timing Support: Yes
  CTA-861 DisplayID Data Block:
  Colorimetry Data Block:
    BT2020RGB
  HDR Static Metadata Data Block:
    Electro optical transfer functions:
      Traditional gamma - SDR luminance range
    Supported static metadata descriptors:
      Static metadata type 1
    Desired content max luminance: 106 (496.743 cd/m^2)
    Desired content max frame-average luminance: 106 (496.743 cd/m^2)
    Desired content min luminance: 57 (0.248 cd/m^2)
  Checksum: 0x71
Checksum: 0x90

----------------

Block 2, Unknown EDID Extension Block 0x00:
  00 ff ff ff ff ff ff 00 30 e4 76 07 00 00 00 00 '........0.v.....'
  00 22 01 04 a5 23 16 78 07 e5 d5 a3 55 4c 99 24 '."...#.x....UL.$'
  0e 50 54 00 00 00 01 01 01 01 01 01 01 01 01 01 '.PT.............'
  01 01 01 01 01 01 f0 7b 80 a0 70 b0 47 40 30 20 '.......{..p.G@0 '
  36 00 5f db 10 00 00 1a 00 00 00 fd 00 1e 78 99 '6._...........x.'
  99 20 01 0a 20 20 20 20 20 20 00 00 00 fe 00 56 '. ..      .....V'
  57 4e 47 56 80 31 36 33 57 55 31 0a 00 00 00 00 'WNGV.163WU1.....'
  00 02 41 0c b2 00 01 00 00 0b 41 0a 20 20 01 78 '..A.......A.  .x'
Checksum: 0x78

----------------

Block 3, DisplayID Extension Block:
  Version: 2.0
  Extension Count: 0
  Product Identification Data Block (0x20), OUI 3C-E6-24:
    Product Code: 1910
    Year of Manufacture: 2024
    Product ID: 163WU1

  Display Parameters Data Block (0x21):
    Image size: 350.7 mm x 219.2 mm
    Display native pixel format: 1920x1200
    Scan Orientation: Left to Right, Top to Bottom
    Luminance Information: Guidance for the Source device
    Color Information: CIE 1931
    Audio Speaker Information: not integrated
    Native Color Chromaticity:
      Primary #1:  (0.639893, 0.333984)
      Primary #2:  (0.298096, 0.599121)
      Primary #3:  (0.144043, 0.055908)
      White Point: (0.312988, 0.329102)
    Native Maximum Luminance (Full Coverage): 500.000000 cd/m^2
    Native Maximum Luminance (10% Rectangular Coverage): 500.000000 cd/m^2
    Native Minimum Luminance: 0.250000 cd/m^2
    Native Color Depth: 10 bpc
    Display Device Technology: Active Matrix LCD
    Native Gamma EOTF: 2.20
  Display Interface Features Data Block:
    Supported bpc for RGB encoding: 8
    Supported color space and EOTF standard combination 1: sRGB
  Video Timing Modes Type 7 - Detailed Timings Data Block:
    DTD:  1920x1200  120.014525 Hz  16:10   152.538 kHz    317.280000 MHz (aspect 16:10, no 3D stereo, preferred)
               Hfront   48 Hsync  32 Hback   80 Hpol P
               Vfront    3 Vsync   6 Vback   62 Vpol N
  Dynamic Video Timing Range Limits Data Block:
    Minimum Pixel Clock: 317280 kHz
    Maximum Pixel Clock: 317280 kHz
    Minimum Vertical Refresh Rate: 30 Hz
    Maximum Vertical Refresh Rate: 120 Hz
    Seamless Dynamic Video Timing Support: Yes
  CTA-861 DisplayID Data Block:
  Colorimetry Data Block:
    BT2020RGB
  HDR Static Metadata Data Block:
    Electro optical transfer functions:
      Traditional gamma - SDR luminance range
    Supported static metadata descriptors:
      Static metadata type 1
    Desired content max luminance: 106 (496.743 cd/m^2)
    Desired content max frame-average luminance: 106 (496.743 cd/m^2)
    Desired content min luminance: 57 (0.248 cd/m^2)
  Checksum: 0x71
Checksum: 0x90

----------------

Warnings:

Block 0, Base EDID:
  Missing Display Product Name.
Block 1, DisplayID Extension Block:
  Product Identification Data Block (0x20), OUI 3C-E6-24: Unknown OUI 3C-E6-24.
Block 3, DisplayID Extension Block:
  Product Identification Data Block (0x20), OUI 3C-E6-24: Unknown OUI 3C-E6-24.

Failures:

Block 0, Base EDID:
  Basic Display Parameters & Features: sRGB is signaled, but the chromaticities do not match.
  Alphanumeric Data String: Non-printable character.
Block 1, DisplayID Extension Block:
  Expected 0 DisplayID Extension Block, but got 1.
Block 2, Base EDID:
  Unknown Extension Block.
Block 3, DisplayID Extension Block:
  Product Type should be 0 in extension block.
  Product Identification Data Block (0x20), OUI 3C-E6-24: Product Identification Data Block (0x20), OUI 3C-E6-24 is required to be the first DisplayID Data Block.
  Display Parameters Data Block (0x21): Duplicate Display Parameters Data Block.
  Colorimetry Data Block: Only one instance of this Data Block is allowed.
  HDR Static Metadata Data Block: Only one instance of this Data Block is allowed.
EDID:
  Base EDID: EDID specified 1 extension block(s), but found 3 extension block(s).

EDID conformity: FAIL
