edid-decode (hex):

00 ff ff ff ff ff ff 00 0d ae f1 15 98 b2 d9 9c
03 1b 01 04 a5 22 13 78 02 ee 95 a3 54 4c 99 26
0f 50 54 00 00 00 01 01 01 01 01 01 01 01 01 01
01 01 01 01 01 01 59 6f 80 a0 70 38 3e 40 30 20
a5 00 58 c1 10 00 00 1a 59 6f 80 a0 70 38 b4 44
30 20 a5 00 58 c1 10 00 00 1a 00 00 00 00 00 00
00 00 00 00 00 00 00 00 00 00 00 00 00 00 00 02
00 0c 33 ff 0f 3c 96 2d 12 2d 96 00 00 00 00 9e

----------------

Block 0, Base EDID:
  EDID Structure Version & Revision: 1.4
  Vendor & Product Identification:
    Manufacturer: CMN
    Model: 5617
    Serial Number: ...
    Made in: week 3 of 2017
  Basic Display Parameters & Features:
    Digital display
    Bits per primary color channel: 8
    DisplayPort interface
    Maximum image size: 34 cm x 19 cm
    Gamma: 2.20
    Supported color formats: RGB 4:4:4
    First detailed timing includes the native pixel format and preferred refresh rate
  Color Characteristics:
    Red  : 0.6396, 0.3300
    Green: 0.2998, 0.5996
    Blue : 0.1503, 0.0595
    White: 0.3134, 0.3291
  Established Timings I & II: none
  Standard Timings: none
  Detailed Timing Descriptors:
    DTD 1:  1920x1080  120.003 Hz  16:9   137.043 kHz 285.050 MHz (344 mm x 193 mm)
                 Hfront   48 Hsync  32 Hback  80 Hpol P
                 Vfront   10 Vsync   5 Vback  47 Vpol N
    DTD 2:  1920x1080   60.001 Hz  16:9   137.043 kHz 285.050 MHz (344 mm x 193 mm)
                 Hfront   48 Hsync  32 Hback  80 Hpol P
                 Vfront   10 Vsync   5 Vback 1189 Vpol N
    Empty Descriptor
    Manufacturer-Specified Display Descriptor (0x02): 00 02 00 0c 33 ff 0f 3c 96 2d 12 2d 96 00 00 00 '....3..<.-.-....'
Checksum: 0x9e

----------------

Failures:

Block 0, Base EDID:
  Empty Descriptor: Use Dummy Descriptor instead of all zeroes.
  Missing Display Product Name.

EDID conformity: FAIL
