edid-decode (hex):

00 ff ff ff ff ff ff 00 15 c3 31 17 01 01 01 01
2d 0f 01 02 80 26 1e 78 ea ee 95 a3 54 4c 99 26
0f 50 54 a1 08 00 81 80 01 01 01 01 01 01 01 01
01 01 01 01 01 01 30 2a 00 98 51 00 2a 40 30 70
13 00 78 2d 11 00 00 1e 00 00 00 ff 00 34 30 32
34 32 31 31 35 0a 20 20 20 20 00 00 00 fd 00 3b
3d 1e 41 0b 00 0a 20 20 20 20 20 20 00 00 00 fc
00 4c 37 38 38 0a 20 20 20 20 20 20 20 20 00 9b

00 ff ff ff ff ff ff 00 15 c3 31 17 01 01 01 01
2d 0f 01 02 80 26 1e 78 ea ee 95 a3 54 4c 99 26
0f 50 54 a1 08 00 81 80 01 01 01 01 01 01 01 01
01 01 01 01 01 01 30 2a 00 98 51 00 2a 40 30 70
13 00 78 2d 11 00 00 1e 00 00 00 ff 00 34 30 32
34 32 31 31 35 0a 20 20 20 20 00 00 00 fd 00 3b
3d 1e 41 0b 00 0a 20 20 20 20 20 20 00 00 00 fc
00 4c 37 38 38 0a 20 20 20 20 20 20 20 20 00 9b

----------------

Block 0, Base EDID:
  EDID Structure Version & Revision: 1.2
  Vendor & Product Identification:
    Manufacturer: ENC
    Model: 5937
    Serial Number: ...
    Made in: week 45 of 2005
  Basic Display Parameters & Features:
    Digital display
    Maximum image size: 38 cm x 30 cm
    Gamma: 2.20
    DPMS levels: Standby Suspend Off
    RGB color display
    First detailed timing is the preferred timing
  Color Characteristics:
    Red  : 0.6396, 0.3300
    Green: 0.2998, 0.5996
    Blue : 0.1503, 0.0595
    White: 0.3134, 0.3291
  Established Timings I & II:
    IBM     :   720x400    70.081663 Hz   9:5     31.467 kHz     28.320000 MHz
    DMT 0x04:   640x480    59.940476 Hz   4:3     31.469 kHz     25.175000 MHz
    DMT 0x09:   800x600    60.316541 Hz   4:3     37.879 kHz     40.000000 MHz
    DMT 0x10:  1024x768    60.003840 Hz   4:3     48.363 kHz     65.000000 MHz
  Standard Timings:
    DMT 0x23:  1280x1024   60.019740 Hz   5:4     63.981 kHz    108.000000 MHz
  Detailed Timing Descriptors:
    DTD 1:  1280x1024   60.019740 Hz   5:4     63.981 kHz    108.000000 MHz (376 mm x 301 mm)
                 Hfront   48 Hsync 112 Hback  248 Hpol P
                 Vfront    1 Vsync   3 Vback   38 Vpol P
    Display Product Serial Number: ...
    Display Range Limits:
      Monitor ranges (GTF): 59-61 Hz V, 30-65 kHz H, max dotclock 110 MHz
    Display Product Name: 'L788'
Checksum: 0x9b

----------------

Block 1, Unknown EDID Extension Block 0x00:
  00 ff ff ff ff ff ff 00 15 c3 31 17 01 01 01 01 '..........1.....'
  2d 0f 01 02 80 26 1e 78 ea ee 95 a3 54 4c 99 26 '-....&.x....TL.&'
  0f 50 54 a1 08 00 81 80 01 01 01 01 01 01 01 01 '.PT.............'
  01 01 01 01 01 01 30 2a 00 98 51 00 2a 40 30 70 '......0*..Q.*@0p'
  13 00 78 2d 11 00 00 1e 00 00 00 ff 00 34 30 32 '..x-.........402'
  34 32 31 31 35 0a 20 20 20 20 00 00 00 fd 00 3b '42115.    .....;'
  3d 1e 41 0b 00 0a 20 20 20 20 20 20 00 00 00 fc '=.A...      ....'
  00 4c 37 38 38 0a 20 20 20 20 20 20 20 20 00 9b '.L788.        ..'
Checksum: 0x9b

----------------

Warnings:

Block 0, Base EDID:
  EDID Structure Version & Revision: EDID 1.2 is deprecated, do not use.

Failures:

Block 1, Base EDID:
  Unknown Extension Block.
EDID:
  Base EDID: Some timings are out of range of the Monitor Ranges:
    Vertical Freq: 59.940 - 70.082 Hz (Monitor: 59.000 - 61.000 Hz)
  Base EDID: EDID specified 0 extension block(s), but found 1 extension block(s).

EDID conformity: FAIL
