
EDID (hex):
00ffffffffffff0009e55f0a00000000
011f0104a522167803c095955d5a952a
1f505400000001010101010101010101
010101010101f840801871b03c403020
360059d710000018000000fd00283c4c
4c11010a202020202020000000fe0042
4f452043510a202020202020000000fe
004e5631363057554d2d4b30300a0079

edid-decode (hex):

00 ff ff ff ff ff ff 00 09 e5 5f 0a 00 00 00 00
01 1f 01 04 a5 22 16 78 03 c0 95 95 5d 5a 95 2a
1f 50 54 00 00 00 01 01 01 01 01 01 01 01 01 01
01 01 01 01 01 01 f8 40 80 18 71 b0 3c 40 30 20
36 00 59 d7 10 00 00 18 00 00 00 fd 00 28 3c 4c
4c 11 01 0a 20 20 20 20 20 20 00 00 00 fe 00 42
4f 45 20 43 51 0a 20 20 20 20 20 20 00 00 00 fe
00 4e 56 31 36 30 57 55 4d 2d 4b 30 30 0a 00 79

----------------

Block 0, Base EDID:
  EDID Structure Version & Revision: 1.4
  Vendor & Product Identification:
    Manufacturer: BOE
    Model: 2655
    Made in: week 1 of 2021
  Basic Display Parameters & Features:
    Digital display
    Bits per primary color channel: 8
    DisplayPort interface
    Maximum image size: 34 cm x 22 cm
    Gamma: 2.20
    Supported color formats: RGB 4:4:4
    First detailed timing includes the native pixel format and preferred refresh rate
    Display is continuous frequency
  Color Characteristics:
    Red  : 0.5849, 0.3632
    Green: 0.3515, 0.5820
    Blue : 0.1660, 0.1220
    White: 0.3134, 0.3291
  Established Timings I & II: none
  Standard Timings: none
  Detailed Timing Descriptors:
    DTD 1:  1920x1200   60.000000 Hz  16:10    75.600 kHz    166.320000 MHz (345 mm x 215 mm)
                 Hfront   48 Hsync  32 Hback  200 Hpol N
                 Vfront    3 Vsync   6 Vback   51 Vpol N
    Display Range Limits:
      Monitor ranges (Bare Limits): 40-60 Hz V, 76-76 kHz H, max dotclock 170 MHz
    Alphanumeric Data String: 'BOE CQ'
    Alphanumeric Data String: 'NV160WUM-K00'
Checksum: 0x79
