
EDID (hex):
00ffffffffffff0009e5610a00000000
011f010495221378033045965d599329
1f505400000001010101010101010101
0101010101013b3880de703828403020
360058c21000001afc2c80de70382840
3020360058c21000001a000000fe0042
4f452043510a202020202020000000fe
004e5631353646484d2d5430360a008c

Extracted contents:
header:          00 ff ff ff ff ff ff 00
serial number:   09 e5 61 0a 00 00 00 00 01 1f
version:         01 04
basic params:    95 22 13 78 03
chroma info:     30 45 96 5d 59 93 29 1f 50 54
established:     00 00 00
standard:        01 01 01 01 01 01 01 01 01 01 01 01 01 01 01 01
descriptor 1:    3b 38 80 de 70 38 28 40 30 20 36 00 58 c2 10 00 00 1a
descriptor 2:    fc 2c 80 de 70 38 28 40 30 20 36 00 58 c2 10 00 00 1a
descriptor 3:    00 00 00 fe 00 42 4f 45 20 43 51 0a 20 20 20 20 20 20
descriptor 4:    00 00 00 fe 00 4e 56 31 35 36 46 48 4d 2d 54 30 36 0a
extensions:      00
checksum:        8c

EDID version: 1.4
Manufacturer: BOE Model a61 Serial Number --
Made in week 1 of 2021
Digital display
6 bits per primary color channel
DisplayPort interface
Maximum image size: 34 cm x 19 cm
Gamma: 2.20
Supported color formats: RGB 4:4:4
First detailed timing includes the native pixel format and preferred refresh rate
Display is continuous frequency
Display x,y Chromaticity:
  Red:   0.5859, 0.3662
  Green: 0.3476, 0.5742
  Blue:  0.1611, 0.1210
  White: 0.3134, 0.3291
Established timings supported:
Standard timings supported:
Detailed mode: Clock 143.950 MHz, 344 mm x 194 mm
               1920 1968 2000 2142 hborder 0
               1080 1083 1089 1120 vborder 0
               +hsync -vsync 
               VertFreq: 60 Hz, HorFreq: 67203 Hz
Detailed mode: Clock 115.160 MHz, 344 mm x 194 mm
               1920 1968 2000 2142 hborder 0
               1080 1083 1089 1120 vborder 0
               +hsync -vsync 
               VertFreq: 48 Hz, HorFreq: 53762 Hz
ASCII string: BOE CQ
ASCII string: NV156FHM-T06
Checksum: 0x8c (valid)
EDID block does NOT conform to EDID 1.4!
	Missing name descriptor
	Missing monitor ranges
