
EDID (hex):
00ffffffffffff004d105e1400000000
31190104a52615780edf54a35435b526
0f4c5400000001010101010101010101
0101010101014dd000a0f0703e803020
35007ed7100000180000001000000000
00000000000000000000000000100000
000000000000000000000000000000fc
004c5131373344314a5733310a2000b4

Extracted contents:
header:          00 ff ff ff ff ff ff 00
serial number:   4d 10 5e 14 00 00 00 00 31 19
version:         01 04
basic params:    a5 26 15 78 0e
chroma info:     df 54 a3 54 35 b5 26 0f 4c 54
established:     00 00 00
standard:        01 01 01 01 01 01 01 01 01 01 01 01 01 01 01 01
descriptor 1:    4d d0 00 a0 f0 70 3e 80 30 20 35 00 7e d7 10 00 00 18
descriptor 2:    00 00 00 10 00 00 00 00 00 00 00 00 00 00 00 00 00 00
descriptor 3:    00 00 00 10 00 00 00 00 00 00 00 00 00 00 00 00 00 00
descriptor 4:    00 00 00 fc 00 4c 51 31 37 33 44 31 4a 57 33 31 0a 20
extensions:      00
checksum:        b4

EDID version: 1.4
Manufacturer: SHP Model 145e Serial Number --
Made in week 49 of 2015
Digital display
8 bits per primary color channel
DisplayPort interface
Maximum image size: 38 cm x 21 cm
Gamma: 2.20
Supported color formats: RGB 4:4:4, YCrCb 4:4:4
Default (sRGB) color space is primary color space
First detailed timing includes the native pixel format and preferred refresh rate
Display x,y Chromaticity:
  Red:   0.6396, 0.3291
  Green: 0.2099, 0.7099
  Blue:  0.1494, 0.0595
  White: 0.2978, 0.3281
Established timings supported:
Standard timings supported:
Detailed mode: Clock 533.250 MHz, 382 mm x 215 mm
               3840 3888 3920 4000 hborder 0
               2160 2163 2168 2222 vborder 0
               -hsync -vsync 
               VertFreq: 59 Hz, HorFreq: 133312 Hz
Dummy block
Dummy block
Monitor name: LQ173D1JW31
Checksum: 0xb4 (valid)
EDID block does NOT conform to EDID 1.4!
	sRGB is signaled, but the chromaticities do not match
	Missing monitor ranges
