edid-decode (hex):

00 ff ff ff ff ff ff 00 51 ad 97 69 cc 03 00 00
0c 0e 01 03 0e 00 00 78 2a 5f 9f a9 55 50 92 24
0d 4a 4b bf ee 00 61 59 45 59 31 59 d1 c0 31 0a
01 01 01 01 01 01 64 19 00 40 41 00 26 30 18 88
36 00 00 00 00 00 00 18 00 00 00 ff 00 46 53 33
31 30 30 39 37 32 0a 00 00 20 01 1d 80 18 71 1c
16 20 58 2c 25 00 00 00 00 00 00 9e 00 00 00 fc
00 32 37 4c 30 33 42 0a 20 20 20 20 20 20 00 1c

00 ff ff ff ff ff ff 00 51 ad 97 69 cc 03 00 00
0c 0e 01 03 0e 00 00 78 2a 5f 9f a9 55 50 92 24
0d 4a 4b bf ee 00 61 59 45 59 31 59 d1 c0 31 0a
01 01 01 01 01 01 64 19 00 40 41 00 26 30 18 88
36 00 00 00 00 00 00 18 00 00 00 ff 00 46 53 33
31 30 30 39 37 32 0a 00 00 20 01 1d 80 18 71 1c
16 20 58 2c 25 00 00 00 00 00 00 9e 00 00 00 fc
00 32 37 4c 30 33 42 0a 20 20 20 20 20 20 00 1c

----------------

Block 0, Base EDID:
  EDID Structure Version & Revision: 1.3
  Vendor & Product Identification:
    Manufacturer: TMM
    Model: 27031
    Serial Number: ...
    Made in: week 12 of 2004
  Basic Display Parameters & Features:
    Analog display
    Signal Level Standard: 0.700 : 0.300 : 1.000 V p-p
    Blank level equals black level
    Sync: Separate Composite SyncOnGreen
    Image size is variable
    Gamma: 2.20
    DPMS levels: Off
    RGB color display
    First detailed timing is the preferred timing
  Color Characteristics:
    Red  : 0.6611, 0.3330
    Green: 0.3154, 0.5732
    Blue : 0.1425, 0.0517
    White: 0.2919, 0.2958
  Established Timings I & II:
    IBM     :   720x400    70.081663 Hz   9:5     31.467 kHz     28.320000 MHz
    DMT 0x04:   640x480    59.940476 Hz   4:3     31.469 kHz     25.175000 MHz
    Apple   :   640x480    66.666667 Hz   4:3     35.000 kHz     30.240000 MHz
    DMT 0x05:   640x480    72.808802 Hz   4:3     37.861 kHz     31.500000 MHz
    DMT 0x06:   640x480    75.000000 Hz   4:3     37.500 kHz     31.500000 MHz
    DMT 0x08:   800x600    56.250000 Hz   4:3     35.156 kHz     36.000000 MHz
    DMT 0x09:   800x600    60.316541 Hz   4:3     37.879 kHz     40.000000 MHz
    DMT 0x0a:   800x600    72.187572 Hz   4:3     48.077 kHz     50.000000 MHz
    DMT 0x0b:   800x600    75.000000 Hz   4:3     46.875 kHz     49.500000 MHz
    Apple   :   832x624    74.551266 Hz   4:3     49.726 kHz     57.284000 MHz
    DMT 0x10:  1024x768    60.003840 Hz   4:3     48.363 kHz     65.000000 MHz
    DMT 0x11:  1024x768    70.069359 Hz   4:3     56.476 kHz     75.000000 MHz
    DMT 0x12:  1024x768    75.028582 Hz   4:3     60.023 kHz     78.750000 MHz
  Standard Timings:
    DMT 0x13:  1024x768    84.996690 Hz   4:3     68.677 kHz     94.500000 MHz
    DMT 0x0c:   800x600    85.061274 Hz   4:3     53.674 kHz     56.250000 MHz
    DMT 0x07:   640x480    85.008312 Hz   4:3     43.269 kHz     36.000000 MHz
    DMT 0x52:  1920x1080   60.000000 Hz  16:9     67.500 kHz    148.500000 MHz
    GTF     :   640x400    70.000000 Hz  16:10    29.190 kHz     23.352000 MHz
  Detailed Timing Descriptors:
    DTD 1:  1024x768    60.003840 Hz   4:3     48.363 kHz     65.000000 MHz
                 Hfront   24 Hsync 136 Hback  160 Hpol N
                 Vfront    3 Vsync   6 Vback   29 Vpol N
    Display Product Serial Number: ...
    DTD 2:  1920x1080i  60.000000 Hz  16:9     33.750 kHz     74.250000 MHz
                 Hfront   88 Hsync  44 Hback  148 Hpol P
                 Vfront    2 Vsync   5 Vback   15 Vpol P Vfront +0.5 Odd Field
                 Vfront    2 Vsync   5 Vback   15 Vpol P Vback  +0.5 Even Field
    Display Product Name: '27L03B'
Checksum: 0x1c

----------------

Block 1, Unknown EDID Extension Block 0x00:
  00 ff ff ff ff ff ff 00 51 ad 97 69 cc 03 00 00 '........Q..i....'
  0c 0e 01 03 0e 00 00 78 2a 5f 9f a9 55 50 92 24 '.......x*_..UP.$'
  0d 4a 4b bf ee 00 61 59 45 59 31 59 d1 c0 31 0a '.JK...aYEY1Y..1.'
  01 01 01 01 01 01 64 19 00 40 41 00 26 30 18 88 '......d..@A.&0..'
  36 00 00 00 00 00 00 18 00 00 00 ff 00 46 53 33 '6............FS3'
  31 30 30 39 37 32 0a 00 00 20 01 1d 80 18 71 1c '100972... ....q.'
  16 20 58 2c 25 00 00 00 00 00 00 9e 00 00 00 fc '. X,%...........'
  00 32 37 4c 30 33 42 0a 20 20 20 20 20 20 00 1c '.27L03B.      ..'
Checksum: 0x1c

----------------

Failures:

Block 0, Base EDID:
  Display Product Serial Number: ...
  Detailed Timing Descriptor #2: Invalid detailed timing descriptor ordering.
  Missing Display Range Limits Descriptor.
Block 1, Base EDID:
  Unknown Extension Block.
EDID:
  Base EDID: EDID specified 0 extension block(s), but found 1 extension block(s).

EDID conformity: FAIL
