
EDID (hex):
00ffffffffffff0022f0763101010101
0c180103801f11782ea0959959529226
215054a10800a9c0950081c081000101
010101010101fc2b40a061841e30402a
130036ae1000001e0000001000000000
00000000000000000000000000fc0048
502053313430750a20202020000000ff
00434e43393531303030310a20200073

Extracted contents:
header:          00 ff ff ff ff ff ff 00
serial number:   22 f0 76 31 01 01 01 01 0c 18
version:         01 03
basic params:    80 1f 11 78 2e
chroma info:     a0 95 99 59 52 92 26 21 50 54
established:     a1 08 00
standard:        a9 c0 95 00 81 c0 81 00 01 01 01 01 01 01 01 01
descriptor 1:    fc 2b 40 a0 61 84 1e 30 40 2a 13 00 36 ae 10 00 00 1e
descriptor 2:    00 00 00 10 00 00 00 00 00 00 00 00 00 00 00 00 00 00
descriptor 3:    00 00 00 fc 00 48 50 20 53 31 34 30 75 0a 20 20 20 20
descriptor 4:    00 00 00 ff 00 43 4e 43 39 35 31 30 30 30 31 0a 20 20
extensions:      00
checksum:        73

EDID version: 1.3
Manufacturer: HWP Model 3176 Serial Number --
Made in week 12 of 2014
Digital display
Maximum image size: 31 cm x 17 cm
Gamma: 2.20
DPMS levels: Off
RGB color display
Default (sRGB) color space is primary color space
First detailed timing is preferred timing
Display x,y Chromaticity:
  Red:   0.5996, 0.3496
  Green: 0.3203, 0.5703
  Blue:  0.1503, 0.1298
  White: 0.3134, 0.3291
Established timings supported:
  720x400@70Hz 9:5 HorFreq: 31469 Hz Clock: 28.320 MHz
  640x480@60Hz 4:3 HorFreq: 31469 Hz Clock: 25.175 MHz
  800x600@60Hz 4:3 HorFreq: 37900 Hz Clock: 40.000 MHz
  1024x768@60Hz 4:3 HorFreq: 48400 Hz Clock: 65.000 MHz
Standard timings supported:
  1600x900@60Hz 16:9
  1440x900@60Hz 16:10 HorFreq: 55500 Hz Clock: 88.750 MHz
  1280x720@60Hz 16:9
  1280x800@60Hz 16:10
Detailed mode: Clock 112.600 MHz, 310 mm x 174 mm
               1600 1664 1706 2016 hborder 0
                900  901  904  930 vborder 0
               +hsync +vsync 
               VertFreq: 60 Hz, HorFreq: 55853 Hz
Dummy block
Monitor name: HP S140u
Serial number: --
Checksum: 0x73 (valid)
EDID block does NOT conform to EDID 1.3!
	sRGB is signaled, but the chromaticities do not match
	Missing monitor ranges
