
EDID (hex):
00ffffffffffff004d09003200000000
020f0103804c2d00c2d9b0a357499c25
11494bbfcf8081c081408bc09500a940
0101010101016c39801871381640582c
2500c48e2100001e000000fd002f5023
500b000a202020202020000000fc0044
54563432300a202020202020000000fc
000a2020202020202020202020200192
02031971460103840512142309070783
01000065030c00100000000000000000
00000000000000000000000000000000
00000000000000000000000000000000
00000000000000000000000000000000
00000000000000000000000000000000
00000000000000000000000000000000
00000000000000000000000000000036

Extracted contents:
header:          00 ff ff ff ff ff ff 00
serial number:   4d 09 00 32 00 00 00 00 02 0f
version:         01 03
basic params:    80 4c 2d 00 c2
chroma info:     d9 b0 a3 57 49 9c 25 11 49 4b
established:     bf cf 80
standard:        81 c0 81 40 8b c0 95 00 a9 40 01 01 01 01 01 01
descriptor 1:    6c 39 80 18 71 38 16 40 58 2c 25 00 c4 8e 21 00 00 1e
descriptor 2:    00 00 00 fd 00 2f 50 23 50 0b 00 0a 20 20 20 20 20 20
descriptor 3:    00 00 00 fc 00 44 54 56 34 32 30 0a 20 20 20 20 20 20
descriptor 4:    00 00 00 fc 00 0a 20 20 20 20 20 20 20 20 20 20 20 20
extensions:      01
checksum:        92

EDID version: 1.3
Manufacturer: SHI Model 3200 Serial Number --
Digital display
Maximum image size: 76 cm x 45 cm
Gamma: 1.00
DPMS levels: Standby Suspend
Monochrome or grayscale display
First detailed timing is preferred timing
Display x,y Chromaticity:
  Red:   0.6396, 0.3408
  Green: 0.2871, 0.6103
  Blue:  0.1464, 0.0693
  White: 0.2851, 0.2929
Established timings supported:
  720x400@70Hz 9:5 HorFreq: 31469 Hz Clock: 28.320 MHz
  640x480@60Hz 4:3 HorFreq: 31469 Hz Clock: 25.175 MHz
  640x480@67Hz 4:3 HorFreq: 35000 Hz Clock: 30.240 MHz
  640x480@72Hz 4:3 HorFreq: 37900 Hz Clock: 31.500 MHz
  640x480@75Hz 4:3 HorFreq: 37500 Hz Clock: 31.500 MHz
  800x600@56Hz 4:3 HorFreq: 35200 Hz Clock: 36.000 MHz
  800x600@60Hz 4:3 HorFreq: 37900 Hz Clock: 40.000 MHz
  800x600@72Hz 4:3 HorFreq: 48100 Hz Clock: 50.000 MHz
  800x600@75Hz 4:3 HorFreq: 46900 Hz Clock: 49.500 MHz
  1024x768@60Hz 4:3 HorFreq: 48400 Hz Clock: 65.000 MHz
  1024x768@70Hz 4:3 HorFreq: 56500 Hz Clock: 75.000 MHz
  1024x768@75Hz 4:3 HorFreq: 60000 Hz Clock: 78.750 MHz
  1280x1024@75Hz 5:4 HorFreq: 80000 Hz Clock: 135.000 MHz
  1152x870@75Hz 192:145 HorFreq: 67500 Hz Clock: 108.000 MHz
Standard timings supported:
  1280x720@60Hz 16:9
  1280x960@60Hz 4:3 HorFreq: 60000 Hz Clock: 108.000 MHz
  1360x765@60Hz 16:9
  1440x900@60Hz 16:10 HorFreq: 55500 Hz Clock: 88.750 MHz
  1600x1200@60Hz 4:3 HorFreq: 75000 Hz Clock: 162.000 MHz
Detailed mode: Clock 147.000 MHz, 708 mm x 398 mm
               1920 2008 2052 2200 hborder 0
               1080 1082 1087 1102 vborder 0
               +hsync +vsync 
               VertFreq: 60 Hz, HorFreq: 66818 Hz
Monitor ranges (GTF): 47-80Hz V, 35-80kHz H, max dotclock 110MHz
Monitor name: DTV420
Has 1 extension blocks
Checksum: 0x92 (valid)

CTA extension block
Extension version: 3
21 bytes of CTA data
  Video data block
    VIC   1 640x480@60Hz 4:3  HorFreq: 31469 Hz Clock: 25.175 MHz
    VIC   3 720x480@60Hz 16:9  HorFreq: 31469 Hz Clock: 27.000 MHz
    VIC   4 1280x720@60Hz 16:9 (native) HorFreq: 45000 Hz Clock: 74.250 MHz
    VIC   5 1920x1080i@60Hz 16:9  HorFreq: 33750 Hz Clock: 74.250 MHz
    VIC  18 720x576@50Hz 16:9  HorFreq: 31250 Hz Clock: 27.000 MHz
    VIC  20 1920x1080i@50Hz 16:9  HorFreq: 28125 Hz Clock: 74.250 MHz
  Audio data block
    Linear PCM, max channels 2
      Supported sample rates (kHz): 48 44.1 32
      Supported sample sizes (bits): 24 20 16
  Speaker allocation data block
    Speaker map:
      FL/FR - Front Left/Right
  Vendor-specific data block, OUI 000c03 (HDMI)
    Source physical address 1.0.0.0
Basic audio support
Supports YCbCr 4:4:4
Supports YCbCr 4:2:2
1 native detailed modes
Checksum: 0x36 (valid)

One or more of the timings is out of range of the Monitor Ranges:
  Vertical Freq: 50 - 75 Hz
  Horizontal Freq: 28125 - 80000 Hz
  Maximum Clock: 162.000 MHz
EDID block does not conform at all!
	Bad year of manufacture
