edid-decode (hex):

00 ff ff ff ff ff ff 00 0d af 02 07 00 00 00 00
0e 15 01 03 80 0f 09 78 0a 5b 00 97 57 4d 90 25
1e 50 54 00 00 00 01 01 01 01 01 01 01 01 01 01
01 01 01 01 01 01 c7 1b 00 a0 50 20 17 30 30 20
36 00 96 5e 00 00 00 18 85 12 00 a0 50 20 17 30
30 20 36 00 96 5e 00 00 00 18 00 00 00 fe 00 43
4d 4f 0a 20 20 20 20 20 20 20 20 20 00 00 00 fe
00 4e 30 37 30 49 43 47 2d 4c 44 31 0a 20 00 c3

00 ff ff ff ff ff ff 00 0d af 02 07 00 00 00 00
0e 15 01 03 80 0f 09 78 0a 5b 00 97 57 4d 90 25
1e 50 54 00 00 00 01 01 01 01 01 01 01 01 01 01
01 01 01 01 01 01 c7 1b 00 a0 50 20 17 30 30 20
36 00 96 5e 00 00 00 18 85 12 00 a0 50 20 17 30
30 20 36 00 96 5e 00 00 00 18 00 00 00 fe 00 43
4d 4f 0a 20 20 20 20 20 20 20 20 20 00 00 00 fe
00 4e 30 37 30 49 43 47 2d 4c 44 31 0a 20 00 c3

----------------

Block 0, Base EDID:
  EDID Structure Version & Revision: 1.3
  Vendor & Product Identification:
    Manufacturer: CMO
    Model: 1794
    Made in: week 14 of 2011
  Basic Display Parameters & Features:
    Digital display
    Maximum image size: 15 cm x 9 cm
    Gamma: 2.20
    RGB color display
    First detailed timing is the preferred timing
  Color Characteristics:
    Red  : 0.5908, 0.3408
    Green: 0.3027, 0.5654
    Blue : 0.1445, 0.1171
    White: 0.3125, 0.3281
  Established Timings I & II: none
  Standard Timings: none
  Detailed Timing Descriptors:
    DTD 1:  1280x800    60.002363 Hz  16:10    49.382 kHz     71.110000 MHz (150 mm x 94 mm)
                 Hfront   48 Hsync  32 Hback   80 Hpol N
                 Vfront    3 Vsync   6 Vback   14 Vpol N
    DTD 2:  1280x800    40.004388 Hz  16:10    32.924 kHz     47.410000 MHz (150 mm x 94 mm)
                 Hfront   48 Hsync  32 Hback   80 Hpol N
                 Vfront    3 Vsync   6 Vback   14 Vpol N
    Alphanumeric Data String: 'CMO'
    Alphanumeric Data String: 'N070ICG-LD1'
Checksum: 0xc3

----------------

Block 1, Unknown EDID Extension Block 0x00:
  00 ff ff ff ff ff ff 00 0d af 02 07 00 00 00 00 '................'
  0e 15 01 03 80 0f 09 78 0a 5b 00 97 57 4d 90 25 '.......x.[..WM.%'
  1e 50 54 00 00 00 01 01 01 01 01 01 01 01 01 01 '.PT.............'
  01 01 01 01 01 01 c7 1b 00 a0 50 20 17 30 30 20 '..........P .00 '
  36 00 96 5e 00 00 00 18 85 12 00 a0 50 20 17 30 '6..^........P .0'
  30 20 36 00 96 5e 00 00 00 18 00 00 00 fe 00 43 '0 6..^.........C'
  4d 4f 0a 20 20 20 20 20 20 20 20 20 00 00 00 fe 'MO.         ....'
  00 4e 30 37 30 49 43 47 2d 4c 44 31 0a 20 00 c3 '.N070ICG-LD1. ..'
Checksum: 0xc3

----------------

Warnings:

Block 0, Base EDID:
  Basic Display Parameters & Features: Dubious maximum image size (15x9 is smaller than 10x10 cm).

Failures:

Block 0, Base EDID:
  Missing Display Product Name.
  Missing Display Range Limits Descriptor.
Block 1, Base EDID:
  Unknown Extension Block.
EDID:
  Base EDID: EDID specified 0 extension block(s), but found 1 extension block(s).

EDID conformity: FAIL
