edid-decode (hex):

00 ff ff ff ff ff ff 00 06 af d5 20 00 00 00 00
01 13 01 03 80 16 0d 78 0a 43 25 94 59 56 8d 28
22 50 54 00 00 00 01 01 01 01 01 01 01 01 01 01
01 01 01 01 01 01 9c 18 00 82 50 d0 14 20 30 20
36 00 de 7d 00 00 00 18 00 00 00 0f 00 00 00 00
00 00 00 00 00 00 00 00 00 20 00 00 00 fe 00 41
55 4f 0a 20 20 20 20 20 20 20 20 20 00 00 00 fe
00 42 31 30 31 45 57 30 32 20 56 30 20 0a 00 8a

----------------

Block 0, Base EDID:
  EDID Structure Version & Revision: 1.3
  Vendor & Product Identification:
    Manufacturer: AUO
    Model: 8405
    Made in: week 1 of 2009
  Basic Display Parameters & Features:
    Digital display
    Maximum image size: 22 cm x 13 cm
    Gamma: 2.20
    RGB color display
    First detailed timing is preferred timing
  Color Characteristics:
    Red  : 0.5791, 0.3476
    Green: 0.3359, 0.5537
    Blue : 0.1562, 0.1347
    White: 0.3134, 0.3291
  Established Timings I & II: none
  Standard Timings: none
  Detailed Timing Descriptors:
    DTD 1:  1280x720    60.380 Hz  16:9    44.681 kHz  63.000 MHz (222 mm x 125 mm)
                 Hfront   48 Hsync  32 Hback  50 Hpol N
                 Vfront    3 Vsync   6 Vback  11 Vpol N
    Manufacturer-Specified Display Descriptor (0x0f): 00 0f 00 00 00 00 00 00 00 00 00 00 00 00 00 20 '............... '
    Alphanumeric Data String: 'AUO'
    Alphanumeric Data String: 'B101EW02 V0 '
Checksum: 0x8a
