edid-decode (hex):

00 ff ff ff ff ff ff 00 0d ae 40 13 00 00 00 00
02 16 01 03 80 1d 10 78 0a cf 15 a8 55 54 9d 26
0b 50 54 00 00 00 01 01 01 01 01 01 01 01 01 01
01 01 01 01 01 01 26 27 40 a0 60 84 32 30 30 20
6a 00 26 a5 10 00 00 1a a8 20 40 a0 60 84 32 30
30 20 6a 00 26 a5 10 00 00 1a 20 1a 40 a0 60 84
32 30 30 20 6a 00 26 a5 10 00 00 1a 00 00 00 fe
00 4e 31 33 33 46 47 45 2d 4c 33 31 0a 20 00 6c

----------------

Block 0, Base EDID:
  EDID Structure Version & Revision: 1.3
  Vendor & Product Identification:
    Manufacturer: CMN
    Model: 4928
    Made in: week 2 of 2012
  Basic Display Parameters & Features:
    Digital display
    Maximum image size: 29 cm x 16 cm
    Gamma: 2.20
    RGB color display
    First detailed timing is the preferred timing
  Color Characteristics:
    Red  : 0.6591, 0.3320
    Green: 0.3310, 0.6162
    Blue : 0.1484, 0.0439
    White: 0.3134, 0.3291
  Established Timings I & II: none
  Standard Timings: none
  Detailed Timing Descriptors:
    DTD 1:  1600x900    59.940 Hz  16:9    56.943 kHz 100.220 MHz (294 mm x 165 mm)
                 Hfront   48 Hsync  32 Hback  80 Hpol P
                 Vfront    6 Vsync  10 Vback  34 Vpol N
    DTD 2:  1600x900    50.000 Hz  16:9    47.500 kHz  83.600 MHz (294 mm x 165 mm)
                 Hfront   48 Hsync  32 Hback  80 Hpol P
                 Vfront    6 Vsync  10 Vback  34 Vpol N
    DTD 3:  1600x900    40.000 Hz  16:9    38.000 kHz  66.880 MHz (294 mm x 165 mm)
                 Hfront   48 Hsync  32 Hback  80 Hpol P
                 Vfront    6 Vsync  10 Vback  34 Vpol N
    Alphanumeric Data String: 'N133FGE-L31'
Checksum: 0x6c

----------------

Failures:

Block 0, Base EDID:
  Missing Display Product Name.
  Missing Display Range Limits Descriptor.

EDID conformity: FAIL
