edid-decode (hex):

00 ff ff ff ff ff ff 00 0d ae 18 14 00 00 00 00
32 1e 01 04 a5 1f 11 78 02 ee 95 a3 54 4c 99 26
0f 50 54 00 00 00 01 01 01 01 01 01 01 01 01 01
01 01 01 01 01 01 36 36 80 a0 70 38 20 40 30 20
6a 00 35 ad 10 00 00 1a 36 36 80 a0 70 38 36 41
30 20 6a 00 35 ad 10 00 00 1a 00 00 00 fe 00 4d
44 39 44 34 80 31 34 30 48 43 51 0a 00 00 00 00
00 02 41 01 9e 00 10 00 00 0a 01 0a 20 20 00 e6

00 ff ff ff ff ff ff 00 0d ae 18 14 00 00 00 00
32 1e 01 04 a5 1f 11 78 02 ee 95 a3 54 4c 99 26
0f 50 54 00 00 00 01 01 01 01 01 01 01 01 01 01
01 01 01 01 01 01 36 36 80 a0 70 38 20 40 30 20
6a 00 35 ad 10 00 00 1a 36 36 80 a0 70 38 36 41
30 20 6a 00 35 ad 10 00 00 1a 00 00 00 fe 00 4d
44 39 44 34 80 31 34 30 48 43 51 0a 00 00 00 00
00 02 41 01 9e 00 10 00 00 0a 01 0a 20 20 00 e6

----------------

Block 0, Base EDID:
  EDID Structure Version & Revision: 1.4
  Vendor & Product Identification:
    Manufacturer: CMN
    Model: 5144
    Made in: week 50 of 2020
  Basic Display Parameters & Features:
    Digital display
    Bits per primary color channel: 8
    DisplayPort interface
    Maximum image size: 31 cm x 17 cm
    Gamma: 2.20
    Supported color formats: RGB 4:4:4
    First detailed timing includes the native pixel format and preferred refresh rate
  Color Characteristics:
    Red  : 0.6396, 0.3300
    Green: 0.2998, 0.5996
    Blue : 0.1503, 0.0595
    White: 0.3134, 0.3291
  Established Timings I & II: none
  Standard Timings: none
  Detailed Timing Descriptors:
    DTD 1:  1920x1080   60.001038 Hz  16:9     66.721 kHz    138.780000 MHz (309 mm x 173 mm)
                 Hfront   48 Hsync  32 Hback   80 Hpol P
                 Vfront    6 Vsync  10 Vback   16 Vpol N
    DTD 2:  1920x1080   48.000830 Hz  16:9     66.721 kHz    138.780000 MHz (309 mm x 173 mm)
                 Hfront   48 Hsync  32 Hback   80 Hpol P
                 Vfront    6 Vsync  10 Vback  294 Vpol N
    Alphanumeric Data String: 'MD9D4'
    Manufacturer-Specified Display Descriptor (0x00): 00 00 00 02 41 01 9e 00 10 00 00 0a 01 0a 20 20 '....A.........  '
Checksum: 0xe6

----------------

Block 1, Unknown EDID Extension Block 0x00:
  00 ff ff ff ff ff ff 00 0d ae 18 14 00 00 00 00 '................'
  32 1e 01 04 a5 1f 11 78 02 ee 95 a3 54 4c 99 26 '2......x....TL.&'
  0f 50 54 00 00 00 01 01 01 01 01 01 01 01 01 01 '.PT.............'
  01 01 01 01 01 01 36 36 80 a0 70 38 20 40 30 20 '......66..p8 @0 '
  6a 00 35 ad 10 00 00 1a 36 36 80 a0 70 38 36 41 'j.5.....66..p86A'
  30 20 6a 00 35 ad 10 00 00 1a 00 00 00 fe 00 4d '0 j.5..........M'
  44 39 44 34 80 31 34 30 48 43 51 0a 00 00 00 00 'D9D4.140HCQ.....'
  00 02 41 01 9e 00 10 00 00 0a 01 0a 20 20 00 e6 '..A.........  ..'
Checksum: 0xe6

----------------

Warnings:

Block 0, Base EDID:
  Missing Display Product Name.

Failures:

Block 0, Base EDID:
  Alphanumeric Data String: Non-printable character.
Block 1, Base EDID:
  Unknown Extension Block.
EDID:
  Base EDID: EDID specified 0 extension block(s), but found 1 extension block(s).

EDID conformity: FAIL
