
EDID (hex):
00ffffffffffff0022f00a2801010101
141201030e211378eaa6c59b57508f28
275054ade00081c00101010101010101
0101010101011a1d008051d01c204080
35004cbb1000001c000000fc00485020
773135650a2020202020000000fd003b
4b1f400e000a202020202020000000ff
00434e4b3832303137304e0a202000aa

Extracted contents:
header:          00 ff ff ff ff ff ff 00
serial number:   22 f0 0a 28 01 01 01 01 14 12
version:         01 03
basic params:    0e 21 13 78 ea
chroma info:     a6 c5 9b 57 50 8f 28 27 50 54
established:     ad e0 00
standard:        81 c0 01 01 01 01 01 01 01 01 01 01 01 01 01 01
descriptor 1:    1a 1d 00 80 51 d0 1c 20 40 80 35 00 4c bb 10 00 00 1c
descriptor 2:    00 00 00 fc 00 48 50 20 77 31 35 65 0a 20 20 20 20 20
descriptor 3:    00 00 00 fd 00 3b 4b 1f 40 0e 00 0a 20 20 20 20 20 20
descriptor 4:    00 00 00 ff 00 43 4e 4b 38 32 30 31 37 30 4e 0a 20 20
extensions:      00
checksum:        aa

EDID version: 1.3
Manufacturer: HWP Model 280a Serial Number --
Made in week 20 of 2008
Analog display, Input voltage level: 0.7/0.3 V
Sync: Separate Composite SyncOnGreen 
Maximum image size: 33 cm x 19 cm
Gamma: 2.20
DPMS levels: Standby Suspend Off
RGB color display
First detailed timing is preferred timing
Display x,y Chromaticity:
  Red:   0.6074, 0.3417
  Green: 0.3134, 0.5605
  Blue:  0.1591, 0.1523
  White: 0.3134, 0.3291
Established timings supported:
  720x400@70Hz 9:5 HorFreq: 31469 Hz Clock: 28.320 MHz
  640x480@60Hz 4:3 HorFreq: 31469 Hz Clock: 25.175 MHz
  640x480@72Hz 4:3 HorFreq: 37900 Hz Clock: 31.500 MHz
  640x480@75Hz 4:3 HorFreq: 37500 Hz Clock: 31.500 MHz
  800x600@60Hz 4:3 HorFreq: 37900 Hz Clock: 40.000 MHz
  800x600@72Hz 4:3 HorFreq: 48100 Hz Clock: 50.000 MHz
  800x600@75Hz 4:3 HorFreq: 46900 Hz Clock: 49.500 MHz
  832x624@75Hz 4:3 HorFreq: 49726 Hz Clock: 57.284 MHz
Standard timings supported:
  1280x720@60Hz 16:9
Detailed mode: Clock 74.500 MHz, 332 mm x 187 mm
               1280 1344 1472 1664 hborder 0
                720  723  728  748 vborder 0
               -hsync +vsync 
               VertFreq: 59 Hz, HorFreq: 44771 Hz
Monitor name: HP w15e
Monitor ranges (GTF): 59-75Hz V, 31-64kHz H, max dotclock 140MHz
Serial number: --
Checksum: 0xaa (valid)
