
EDID (hex):
00ffffffffffff000469ac20fa271c06
01180103812b18780a2585a4594f9e23
1a5054210800d1c00101010101010101
010101010101023a801871382d40582c
4500b0f31000001e023a80d072382d40
102c4580b0f31000001e000000fc0050
543230310a20202020202020000000fd
00323c1f440f000a202020202020012c
02031c7149901f041303021211012309
07078301000065030c001000011d0072
51d01e206e285500b0f31000001e011d
00bc52d01e20b8285540b0f31000001e
8c0ad08a20e02d10103e9600b0f31000
00188c0ad090204031200c405500b0f3
10000018d60980a020e02d101060a200
44f3100000180000000000000000002d

Extracted contents:
header:          00 ff ff ff ff ff ff 00
serial number:   04 69 ac 20 fa 27 1c 06 01 18
version:         01 03
basic params:    81 2b 18 78 0a
chroma info:     25 85 a4 59 4f 9e 23 1a 50 54
established:     21 08 00
standard:        d1 c0 01 01 01 01 01 01 01 01 01 01 01 01 01 01
descriptor 1:    02 3a 80 18 71 38 2d 40 58 2c 45 00 b0 f3 10 00 00 1e
descriptor 2:    02 3a 80 d0 72 38 2d 40 10 2c 45 80 b0 f3 10 00 00 1e
descriptor 3:    00 00 00 fc 00 50 54 32 30 31 0a 20 20 20 20 20 20 20
descriptor 4:    00 00 00 fd 00 32 3c 1f 44 0f 00 0a 20 20 20 20 20 20
extensions:      01
checksum:        2c

EDID version: 1.3
Manufacturer: ACI Model 20ac Serial Number --
Made in week 1 of 2014
Digital display
DFP 1.x compatible TMDS
Maximum image size: 43 cm x 24 cm
Gamma: 2.20
RGB color display
First detailed timing is preferred timing
Display x,y Chromaticity:
  Red:   0.6406, 0.3496
  Green: 0.3095, 0.6181
  Blue:  0.1386, 0.1015
  White: 0.3134, 0.3291
Established timings supported:
  640x480@60Hz 4:3 HorFreq: 31469 Hz Clock: 25.175 MHz
  800x600@60Hz 4:3 HorFreq: 37900 Hz Clock: 40.000 MHz
  1024x768@60Hz 4:3 HorFreq: 48400 Hz Clock: 65.000 MHz
Standard timings supported:
  1920x1080@60Hz 16:9
Detailed mode: Clock 148.500 MHz, 432 mm x 243 mm
               1920 2008 2052 2200 hborder 0
               1080 1084 1089 1125 vborder 0
               +hsync +vsync 
               VertFreq: 60 Hz, HorFreq: 67500 Hz
Detailed mode: Clock 148.500 MHz, 432 mm x 243 mm
               1920 2448 2492 2640 hborder 0
               1080 1084 1089 1125 vborder 0
               +hsync +vsync 
               VertFreq: 50 Hz, HorFreq: 56250 Hz
Monitor name: PT201
Monitor ranges (GTF): 50-60Hz V, 31-68kHz H, max dotclock 150MHz
Has 1 extension blocks
Checksum: 0x2c (valid)

CTA extension block
Extension version: 3
24 bytes of CTA data
  Video data block
    VIC  16 1920x1080@60Hz 16:9 (native) HorFreq: 67500 Hz Clock: 148.500 MHz
    VIC  31 1920x1080@50Hz 16:9  HorFreq: 56250 Hz Clock: 148.500 MHz
    VIC   4 1280x720@60Hz 16:9  HorFreq: 45000 Hz Clock: 74.250 MHz
    VIC  19 1280x720@50Hz 16:9  HorFreq: 37500 Hz Clock: 74.250 MHz
    VIC   3 720x480@60Hz 16:9  HorFreq: 31469 Hz Clock: 27.000 MHz
    VIC   2 720x480@60Hz 4:3  HorFreq: 31469 Hz Clock: 27.000 MHz
    VIC  18 720x576@50Hz 16:9  HorFreq: 31250 Hz Clock: 27.000 MHz
    VIC  17 720x576@50Hz 4:3  HorFreq: 31250 Hz Clock: 27.000 MHz
    VIC   1 640x480@60Hz 4:3  HorFreq: 31469 Hz Clock: 25.175 MHz
  Audio data block
    Linear PCM, max channels 2
      Supported sample rates (kHz): 48 44.1 32
      Supported sample sizes (bits): 24 20 16
  Speaker allocation data block
    Speaker map:
      FL/FR - Front Left/Right
  Vendor-specific data block, OUI 000c03 (HDMI)
    Source physical address 1.0.0.0
Basic audio support
Supports YCbCr 4:4:4
Supports YCbCr 4:2:2
1 native detailed modes
Detailed mode: Clock 74.250 MHz, 432 mm x 243 mm
               1280 1390 1430 1650 hborder 0
                720  725  730  750 vborder 0
               +hsync +vsync 
               VertFreq: 60 Hz, HorFreq: 45000 Hz
Detailed mode: Clock 74.250 MHz, 432 mm x 243 mm
               1280 1720 1760 1980 hborder 0
                720  725  730  750 vborder 0
               +hsync +vsync 
               VertFreq: 50 Hz, HorFreq: 37500 Hz
Detailed mode: Clock 27.000 MHz, 432 mm x 243 mm
                720  736  798  858 hborder 0
                480  489  495  525 vborder 0
               -hsync -vsync 
               VertFreq: 59 Hz, HorFreq: 31468 Hz
Detailed mode: Clock 27.000 MHz, 432 mm x 243 mm
                720  732  796  864 hborder 0
                576  581  586  625 vborder 0
               -hsync -vsync 
               VertFreq: 50 Hz, HorFreq: 31250 Hz
Detailed mode: Clock 25.180 MHz, 324 mm x 243 mm
                640  656  752  800 hborder 0
                480  490  492  525 vborder 0
               -hsync -vsync 
               VertFreq: 59 Hz, HorFreq: 31475 Hz
Checksum: 0x2d (valid)



