
EDID (hex):
00ffffffffffff00244d511a01010101
180e0103682118b7eaf629a0654a9926
12484ca04300315945596159714f0101
010101010101ea240060410028303060
130036e61000001e000000fc0049424d
2043313730204352540a000000fd0032
a01e5512000a202020202020000000ff
00323347473231310a20202020200036

Extracted contents:
header:          00 ff ff ff ff ff ff 00
serial number:   24 4d 51 1a 01 01 01 01 18 0e
version:         01 03
basic params:    68 21 18 b7 ea
chroma info:     f6 29 a0 65 4a 99 26 12 48 4c
established:     a0 43 00
standard:        31 59 45 59 61 59 71 4f 01 01 01 01 01 01 01 01
descriptor 1:    ea 24 00 60 41 00 28 30 30 60 13 00 36 e6 10 00 00 1e
descriptor 2:    00 00 00 fc 00 49 42 4d 20 43 31 37 30 20 43 52 54 0a
descriptor 3:    00 00 00 fd 00 32 a0 1e 55 12 00 0a 20 20 20 20 20 20
descriptor 4:    00 00 00 ff 00 32 33 47 47 32 31 31 0a 20 20 20 20 20
extensions:      00
checksum:        36

EDID version: 1.3
Manufacturer: IBM Model 1a51 Serial Number --
Analog display, Input voltage level: 0.7/0.7 V
Sync: Separate 
Maximum image size: 33 cm x 24 cm
Gamma: 2.83
DPMS levels: Standby Suspend Off
RGB color display
First detailed timing is preferred timing
Display x,y Chromaticity:
  Red:   0.6279, 0.3974
  Green: 0.2900, 0.5996
  Blue:  0.1484, 0.0722
  White: 0.2832, 0.2978
Established timings supported:
  720x400@70Hz 9:5 HorFreq: 31469 Hz Clock: 28.320 MHz
  640x480@60Hz 4:3 HorFreq: 31469 Hz Clock: 25.175 MHz
  800x600@75Hz 4:3 HorFreq: 46900 Hz Clock: 49.500 MHz
  1024x768@75Hz 4:3 HorFreq: 60000 Hz Clock: 78.750 MHz
  1280x1024@75Hz 5:4 HorFreq: 80000 Hz Clock: 135.000 MHz
Standard timings supported:
  640x480@85Hz 4:3 HorFreq: 43300 Hz Clock: 36.000 MHz
  800x600@85Hz 4:3 HorFreq: 53700 Hz Clock: 56.250 MHz
  1024x768@85Hz 4:3 HorFreq: 68700 Hz Clock: 94.500 MHz
  1152x864@75Hz 4:3 HorFreq: 67500 Hz Clock: 108.000 MHz
Detailed mode: Clock 94.500 MHz, 310 mm x 230 mm
               1024 1072 1168 1376 hborder 0
                768  769  772  808 vborder 0
               +hsync +vsync 
               VertFreq: 84 Hz, HorFreq: 68677 Hz
Monitor name: IBM C170 CRT
Monitor ranges (GTF): 50-160Hz V, 30-85kHz H, max dotclock 180MHz
Serial number: --
Checksum: 0x36 (valid)
EDID block does not conform at all!
	Bad year of manufacture
