
EDID (hex):
00ffffffffffff002283a0175d050000
0d0d0104a51e1778e2046d9c574f9726
1e4c54afee0001010101010101010101
010101010101c31e0020410020301060
130030e41000001e000000fd00384b18
3c08000a202020202020000000fc0043
4d4c3135325820320a202020000000ff
004833433030313337330a2020200044

Extracted contents:
header:          00 ff ff ff ff ff ff 00
serial number:   22 83 a0 17 5d 05 00 00 0d 0d
version:         01 04
basic params:    a5 1e 17 78 e2
chroma info:     04 6d 9c 57 4f 97 26 1e 4c 54
established:     af ee 00
standard:        01 01 01 01 01 01 01 01 01 01 01 01 01 01 01 01
descriptor 1:    c3 1e 00 20 41 00 20 30 10 60 13 00 30 e4 10 00 00 1e
descriptor 2:    00 00 00 fd 00 38 4b 18 3c 08 00 0a 20 20 20 20 20 20
descriptor 3:    00 00 00 fc 00 43 4d 4c 31 35 32 58 20 32 0a 20 20 20
descriptor 4:    00 00 00 ff 00 48 33 43 30 30 31 33 37 33 0a 20 20 20
extensions:      00
checksum:        44

EDID version: 1.4
Manufacturer: HTC Model 17a0 Serial Number --
Digital display
8 bits per primary color channel
DisplayPort interface
Maximum image size: 30 cm x 23 cm
Gamma: 2.20
DPMS levels: Standby Suspend Off
Supported color formats: RGB 4:4:4
First detailed timing includes the native pixel format and preferred refresh rate
Display x,y Chromaticity:
  Red:   0.6093, 0.3398
  Green: 0.3095, 0.5898
  Blue:  0.1494, 0.1191
  White: 0.2998, 0.3291
Established timings supported:
  720x400@70Hz 9:5 HorFreq: 31469 Hz Clock: 28.320 MHz
  640x480@60Hz 4:3 HorFreq: 31469 Hz Clock: 25.175 MHz
  640x480@72Hz 4:3 HorFreq: 37900 Hz Clock: 31.500 MHz
  640x480@75Hz 4:3 HorFreq: 37500 Hz Clock: 31.500 MHz
  800x600@56Hz 4:3 HorFreq: 35200 Hz Clock: 36.000 MHz
  800x600@60Hz 4:3 HorFreq: 37900 Hz Clock: 40.000 MHz
  800x600@72Hz 4:3 HorFreq: 48100 Hz Clock: 50.000 MHz
  800x600@75Hz 4:3 HorFreq: 46900 Hz Clock: 49.500 MHz
  832x624@75Hz 4:3 HorFreq: 49726 Hz Clock: 57.284 MHz
  1024x768@60Hz 4:3 HorFreq: 48400 Hz Clock: 65.000 MHz
  1024x768@70Hz 4:3 HorFreq: 56500 Hz Clock: 75.000 MHz
  1024x768@75Hz 4:3 HorFreq: 60000 Hz Clock: 78.750 MHz
Standard timings supported:
Detailed mode: Clock 78.750 MHz, 304 mm x 228 mm
               1024 1040 1136 1312 hborder 0
                768  769  772  800 vborder 0
               +hsync +vsync 
               VertFreq: 75 Hz, HorFreq: 60022 Hz
Monitor ranges (GTF): 56-75Hz V, 24-60kHz H, max dotclock 80MHz
Monitor name: CML152X 2
Serial number: --
Checksum: 0x44 (valid)
Warning: One or more of the timings is out of range of the Monitor Ranges:
  Vertical Freq: 56 - 75 Hz
  Horizontal Freq: 31469 - 60022 Hz
  Maximum Clock: 78.750 MHz
EDID block does not conform at all!
	Bad year of manufacture


