
EDID (hex):
00ffffffffffff0020a4071501010101
06110103002115142acaa5955b4c9527
225054a1080001010101010101010101
010101010101401f004051201e303020
26004bcf1000001a000000ff00353035
3344303031303030310a000000fd003a
3e1f3308000a202020202020000000fc
00484544590a20202020202020200060

Extracted contents:
header:          00 ff ff ff ff ff ff 00
serial number:   20 a4 07 15 01 01 01 01 06 11
version:         01 03
basic params:    00 21 15 14 2a
chroma info:     ca a5 95 5b 4c 95 27 22 50 54
established:     a1 08 00
standard:        01 01 01 01 01 01 01 01 01 01 01 01 01 01 01 01
descriptor 1:    40 1f 00 40 51 20 1e 30 30 20 26 00 4b cf 10 00 00 1a
descriptor 2:    00 00 00 ff 00 35 30 35 33 44 30 30 31 30 30 30 31 0a
descriptor 3:    00 00 00 fd 00 3a 3e 1f 33 08 00 0a 20 20 20 20 20 20
descriptor 4:    00 00 00 fc 00 48 45 44 59 0a 20 20 20 20 20 20 20 20
extensions:      00
checksum:        60

EDID version: 1.3
Manufacturer: HED Model 1507 Serial Number --
Made in week 6 of 2007
Analog display, Input voltage level: 0.7/0.3 V
Sync: 
Maximum image size: 33 cm x 21 cm
Gamma: 1.20
DPMS levels: Off
RGB color display
First detailed timing is preferred timing
Display x,y Chromaticity:
  Red:   0.5849, 0.3554
  Green: 0.2988, 0.5839
  Blue:  0.1542, 0.1347
  White: 0.3134, 0.3291
Established timings supported:
  720x400@70Hz 9:5 HorFreq: 31469 Hz Clock: 28.320 MHz
  640x480@60Hz 4:3 HorFreq: 31469 Hz Clock: 25.175 MHz
  800x600@60Hz 4:3 HorFreq: 37900 Hz Clock: 40.000 MHz
  1024x768@60Hz 4:3 HorFreq: 48400 Hz Clock: 65.000 MHz
Standard timings supported:
Detailed mode: Clock 80.000 MHz, 331 mm x 207 mm
               1280 1328 1360 1600 hborder 0
                800  802  808  830 vborder 0
               +hsync -vsync 
               VertFreq: 60 Hz, HorFreq: 50000 Hz
Serial number: --
Monitor ranges (GTF): 58-62Hz V, 31-51kHz H, max dotclock 80MHz
Monitor name: HEDY
Checksum: 0x60 (valid)
One or more of the timings is out of range of the Monitor Ranges:
  Vertical Freq: 60 - 70 Hz
  Horizontal Freq: 31469 - 50000 Hz
  Maximum Clock: 80.000 MHz
