
EDID (hex):
00ffffffffffff0063181a0001000000
12170103002115780a43d59857528c27
215054afce0001010101010101010101
010101010101662150b051001b304070
360000000000001e0000001000000000
0000000000000000001e000000fd0037
4d0f460f000a202020202020000000fc
004d533832500a2020202020200a00ff

Extracted contents:
header:          00 ff ff ff ff ff ff 00
serial number:   63 18 1a 00 01 00 00 00 12 17
version:         01 03
basic params:    00 21 15 78 0a
chroma info:     43 d5 98 57 52 8c 27 21 50 54
established:     af ce 00
standard:        01 01 01 01 01 01 01 01 01 01 01 01 01 01 01 01
descriptor 1:    66 21 50 b0 51 00 1b 30 40 70 36 00 00 00 00 00 00 1e
descriptor 2:    00 00 00 10 00 00 00 00 00 00 00 00 00 00 00 00 00 1e
descriptor 3:    00 00 00 fd 00 37 4d 0f 46 0f 00 0a 20 20 20 20 20 20
descriptor 4:    00 00 00 fc 00 4d 53 38 32 50 0a 20 20 20 20 20 20 0a
extensions:      00
checksum:        ff

EDID version: 1.3
Manufacturer: XXX Model 1a Serial Number --
Made in week 18 of 2013
Analog display, Input voltage level: 0.7/0.3 V
Sync: 
Maximum image size: 33 cm x 21 cm
Gamma: 2.20
RGB color display
First detailed timing is preferred timing
Display x,y Chromaticity:
  Red:   0.5947, 0.3398
  Green: 0.3203, 0.5498
  Blue:  0.1552, 0.1298
  White: 0.3134, 0.3291
Established timings supported:
  720x400@70Hz 9:5 HorFreq: 31469 Hz Clock: 28.320 MHz
  640x480@60Hz 4:3 HorFreq: 31469 Hz Clock: 25.175 MHz
  640x480@72Hz 4:3 HorFreq: 37900 Hz Clock: 31.500 MHz
  640x480@75Hz 4:3 HorFreq: 37500 Hz Clock: 31.500 MHz
  800x600@56Hz 4:3 HorFreq: 35200 Hz Clock: 36.000 MHz
  800x600@60Hz 4:3 HorFreq: 37900 Hz Clock: 40.000 MHz
  800x600@72Hz 4:3 HorFreq: 48100 Hz Clock: 50.000 MHz
  800x600@75Hz 4:3 HorFreq: 46900 Hz Clock: 49.500 MHz
  1024x768@60Hz 4:3 HorFreq: 48400 Hz Clock: 65.000 MHz
  1024x768@70Hz 4:3 HorFreq: 56500 Hz Clock: 75.000 MHz
  1024x768@75Hz 4:3 HorFreq: 60000 Hz Clock: 78.750 MHz
Standard timings supported:
Detailed mode: Clock 85.500 MHz, 0 mm x 0 mm
               1360 1424 1536 1792 hborder 0
                768  771  777  795 vborder 0
               +hsync +vsync 
               VertFreq: 60 Hz, HorFreq: 47712 Hz
Dummy block
Monitor ranges (GTF): 55-77Hz V, 15-70kHz H, max dotclock 150MHz
Monitor name: MS82P
Checksum: 0xff (valid)
EDID block does NOT conform to EDID 1.3!
	Detailed block string not properly terminated
EDID block does not conform at all!
	Dummy block filled with garbage
