edid-decode (hex):

00 ff ff ff ff ff ff 00 34 27 01 19 7f 00 00 00
18 10 01 03 68 26 1e 6e ef 8b c5 a4 5a 48 9b 25
1a 50 54 bf ee 80 81 8f 01 01 01 01 01 01 01 01
01 01 01 01 01 01 0e 1f 00 80 51 00 1e 30 40 80
37 00 40 ce 10 00 00 1c f1 27 00 a0 51 00 25 30
50 80 37 00 7c 2c 11 00 00 1c e5 20 00 9f 51 20
1c 30 4d 8a 13 00 40 ce 10 00 00 1c e1 29 00 b2
51 20 22 30 52 8b 03 00 40 ce 10 00 00 1c 00 a9

----------------

Block 0, Base EDID:
  EDID Structure Version & Revision: 1.3
  Vendor & Product Identification:
    Manufacturer: MAG
    Model: 6401
    Serial Number: ...
    Made in: week 24 of 2006
  Basic Display Parameters & Features:
    Analog display
    Signal Level Standard: 0.700 : 0.000 : 0.700 V p-p
    Blank level equals black level
    Sync: Separate
    Maximum image size: 38 cm x 30 cm
    Gamma: 2.10
    DPMS levels: Standby Suspend Off
    RGB color display
    Default (sRGB) color space is primary color space
    First detailed timing is the preferred timing
    Supports GTF timings within operating range
  Color Characteristics:
    Red  : 0.6425, 0.3515
    Green: 0.2832, 0.6083
    Blue : 0.1474, 0.1015
    White: 0.3134, 0.3291
  Established Timings I & II:
    IBM     :   720x400    70.081663 Hz   9:5     31.467 kHz     28.320000 MHz
    DMT 0x04:   640x480    59.940476 Hz   4:3     31.469 kHz     25.175000 MHz
    Apple   :   640x480    66.666667 Hz   4:3     35.000 kHz     30.240000 MHz
    DMT 0x05:   640x480    72.808802 Hz   4:3     37.861 kHz     31.500000 MHz
    DMT 0x06:   640x480    75.000000 Hz   4:3     37.500 kHz     31.500000 MHz
    DMT 0x08:   800x600    56.250000 Hz   4:3     35.156 kHz     36.000000 MHz
    DMT 0x09:   800x600    60.316541 Hz   4:3     37.879 kHz     40.000000 MHz
    DMT 0x0a:   800x600    72.187572 Hz   4:3     48.077 kHz     50.000000 MHz
    DMT 0x0b:   800x600    75.000000 Hz   4:3     46.875 kHz     49.500000 MHz
    Apple   :   832x624    74.551266 Hz   4:3     49.726 kHz     57.284000 MHz
    DMT 0x10:  1024x768    60.003840 Hz   4:3     48.363 kHz     65.000000 MHz
    DMT 0x11:  1024x768    70.069359 Hz   4:3     56.476 kHz     75.000000 MHz
    DMT 0x12:  1024x768    75.028582 Hz   4:3     60.023 kHz     78.750000 MHz
    Apple   :  1152x870    75.061550 Hz 192:145   68.681 kHz    100.000000 MHz
  Standard Timings:
    DMT 0x24:  1280x1024   75.024675 Hz   5:4     79.976 kHz    135.000000 MHz
  Detailed Timing Descriptors:
    DTD 1:  1280x768    59.870228 Hz   5:3     47.776 kHz     79.500000 MHz (320 mm x 206 mm)
                 Hfront   64 Hsync 128 Hback  192 Hpol N
                 Vfront    3 Vsync   7 Vback   20 Vpol P
    DTD 2:  1280x768    74.893062 Hz   5:3     60.289 kHz    102.250000 MHz (380 mm x 300 mm)
                 Hfront   80 Hsync 128 Hback  208 Hpol N
                 Vfront    3 Vsync   7 Vback   27 Vpol P
    DTD 3:  1280x800    60.001710 Hz  16:10    49.681 kHz     84.210000 MHz (320 mm x 206 mm)
                 Hfront   77 Hsync 138 Hback  200 Hpol N
                 Vfront    1 Vsync   3 Vback   24 Vpol P
    DTD 4:  1280x800    74.999510 Hz  16:10    62.550 kHz    107.210000 MHz (320 mm x 206 mm)
                 Hfront   82 Hsync 139 Hback  213 Hpol N
                 Vfront    0 Vsync   3 Vback   31 Vpol P
                   e1 29 00 b2 51 20 22 30 52 8b 03 00 40 ce 10 00 00 1c '.)..Q "0R...@.....'
Checksum: 0xa9

----------------

Warnings:

Block 0, Base EDID:
  Basic Display Parameters & Features: sRGB is signaled, but the gamma != 2.2.

Failures:

Block 0, Base EDID:
  Basic Display Parameters & Features: sRGB is signaled, but the chromaticities do not match.
  Detailed Timing Descriptor #1: Mismatch of image size 320x206 mm vs display size 380x300 mm.
  Detailed Timing Descriptor #3: Mismatch of image size 320x206 mm vs display size 380x300 mm.
  Detailed Timing Descriptor #4: 0 values in the video timing:
    Horizontal Active/Blanking 1280/434
    Horizontal Frontporch/Sync Width 82/139
    Vertical Active/Blanking 800/34
    Vertical Frontporch/Sync Width 0/3
  Detailed Timing Descriptor #4: Mismatch of image size 320x206 mm vs display size 380x300 mm.
  Missing Display Product Name.
  Missing Display Range Limits Descriptor.

EDID conformity: FAIL
