
EDID (hex):
00ffffffffffff0030aea06247435648
0f1e01036c341d782adcc5a35955a025
0e5054a10800b30081809500a9c00101
010101010101023a801871382d40582c
450009252100001e000000ff00563330
35485643470a20202020000000fd0032
4b1e5315000a202020202020000000fc
004c454e204432342d31370a20200095

Extracted contents:
header:          00 ff ff ff ff ff ff 00
serial number:   30 ae a0 62 47 43 56 48 0f 1e
version:         01 03
basic params:    6c 34 1d 78 2a
chroma info:     dc c5 a3 59 55 a0 25 0e 50 54
established:     a1 08 00
standard:        b3 00 81 80 95 00 a9 c0 01 01 01 01 01 01 01 01
descriptor 1:    02 3a 80 18 71 38 2d 40 58 2c 45 00 09 25 21 00 00 1e
descriptor 2:    00 00 00 ff 00 56 33 30 35 48 56 43 47 0a 20 20 20 20
descriptor 3:    00 00 00 fd 00 32 4b 1e 53 15 00 0a 20 20 20 20 20 20
descriptor 4:    00 00 00 fc 00 4c 45 4e 20 44 32 34 2d 31 37 0a 20 20
extensions:      00
checksum:        95

EDID version: 1.3
Manufacturer: LEN Model 62a0 Serial Number --
Made in week 15 of 2020
Analog display, Input voltage level: 0.7/0.7 V
Sync: Separate Composite 
Maximum image size: 52 cm x 29 cm
Gamma: 2.20
DPMS levels: Off
RGB color display
First detailed timing is preferred timing
Display x,y Chromaticity:
  Red:   0.6396, 0.3486
  Green: 0.3349, 0.6250
  Blue:  0.1474, 0.0546
  White: 0.3134, 0.3291
Established timings supported:
  720x400@70Hz 9:5 HorFreq: 31469 Hz Clock: 28.320 MHz
  640x480@60Hz 4:3 HorFreq: 31469 Hz Clock: 25.175 MHz
  800x600@60Hz 4:3 HorFreq: 37900 Hz Clock: 40.000 MHz
  1024x768@60Hz 4:3 HorFreq: 48400 Hz Clock: 65.000 MHz
Standard timings supported:
  1680x1050@60Hz 16:10 HorFreq: 64700 Hz Clock: 119.000 MHz
  1280x1024@60Hz 5:4 HorFreq: 64000 Hz Clock: 108.000 MHz
  1440x900@60Hz 16:10 HorFreq: 55500 Hz Clock: 88.750 MHz
  1600x900@60Hz 16:9
Detailed mode: Clock 148.500 MHz, 521 mm x 293 mm
               1920 2008 2052 2200 hborder 0
               1080 1084 1089 1125 vborder 0
               +hsync +vsync 
               VertFreq: 60 Hz, HorFreq: 67500 Hz
Serial number: --
Monitor ranges (GTF): 50-75Hz V, 30-83kHz H, max dotclock 210MHz
Monitor name: LEN D24-17
Checksum: 0x95 (valid)


