
EDID (hex):
00ffffffffffff004ca3413500000000
00130103801e11780a4cb59c57559726
15505400000001010101010101010101
010101010101411c56a0500016303020
250035ae100000190000000f00000000
00000000001eb4027400000000fe0053
414d53554e470a2020202020000000fe
00313430415430372d3530310a200087

Extracted contents:
header:          00 ff ff ff ff ff ff 00
serial number:   4c a3 41 35 00 00 00 00 00 13
version:         01 03
basic params:    80 1e 11 78 0a
chroma info:     4c b5 9c 57 55 97 26 15 50 54
established:     00 00 00
standard:        01 01 01 01 01 01 01 01 01 01 01 01 01 01 01 01
descriptor 1:    41 1c 56 a0 50 00 16 30 30 20 25 00 35 ae 10 00 00 19
descriptor 2:    00 00 00 0f 00 00 00 00 00 00 00 00 00 1e b4 02 74 00
descriptor 3:    00 00 00 fe 00 53 41 4d 53 55 4e 47 0a 20 20 20 20 20
descriptor 4:    00 00 00 fe 00 31 34 30 41 54 30 37 2d 35 30 31 0a 20
extensions:      00
checksum:        87

EDID version: 1.3
Manufacturer: SEC Model 3541 Serial Number --
Made in year 2009
Digital display
Maximum image size: 30 cm x 17 cm
Gamma: 2.20
RGB color display
First detailed timing is preferred timing
Display x,y Chromaticity:
  Red:   0.6103, 0.3398
  Green: 0.3349, 0.5898
  Blue:  0.1503, 0.0849
  White: 0.3134, 0.3291
Established timings supported:
Standard timings supported:
Detailed mode: Clock 72.330 MHz, 309 mm x 174 mm
               1366 1414 1446 1526 hborder 0
                768  770  775  790 vborder 0
               -hsync -vsync 
               VertFreq: 59 Hz, HorFreq: 47398 Hz
Manufacturer-specified data, tag 15
ASCII string: SAMSUNG
ASCII string: 140AT07-501
Checksum: 0x87 (valid)
EDID block does NOT conform to EDID 1.3!
	Missing name descriptor
	Missing monitor ranges


