
EDID (hex):
00ffffffffffff0005e3491601000000
13190103812213782ab8659257588d28
1f505400000001010101010101010101
010101010101201c56a0500010300e38
130058c11000001e000000ff00313233
34353637380a0a0a0a0a000000fd0032
4b263a09000a202020202020000000ff
00445a52463548413035383730320043

Extracted contents:
header:          00 ff ff ff ff ff ff 00
serial number:   05 e3 49 16 01 00 00 00 13 19
version:         01 03
basic params:    81 22 13 78 2a
chroma info:     b8 65 92 57 58 8d 28 1f 50 54
established:     00 00 00
standard:        01 01 01 01 01 01 01 01 01 01 01 01 01 01 01 01
descriptor 1:    20 1c 56 a0 50 00 10 30 0e 38 13 00 58 c1 10 00 00 1e
descriptor 2:    00 00 00 ff 00 31 32 33 34 35 36 37 38 0a 0a 0a 0a 0a
descriptor 3:    00 00 00 fd 00 32 4b 26 3a 09 00 0a 20 20 20 20 20 20
descriptor 4:    00 00 00 ff 00 44 5a 52 46 35 48 41 30 35 38 37 30 32
extensions:      00
checksum:        43

EDID version: 1.3
Manufacturer: AOC Model 1649 Serial Number --
Made in week 19 of 2015
Digital display
DFP 1.x compatible TMDS
Maximum image size: 34 cm x 19 cm
Gamma: 2.20
DPMS levels: Off
RGB color display
First detailed timing is preferred timing
Display x,y Chromaticity:
  Red:   0.5722, 0.3427
  Green: 0.3457, 0.5507
  Blue:  0.1572, 0.1230
  White: 0.3134, 0.3291
Established timings supported:
Standard timings supported:
Detailed mode: Clock 72.000 MHz, 344 mm x 193 mm
               1366 1380 1436 1526 hborder 0
                768  769  772  784 vborder 0
               +hsync +vsync 
               VertFreq: 60 Hz, HorFreq: 47182 Hz
Serial number: --
Monitor ranges (GTF): 50-75Hz V, 38-58kHz H, max dotclock 90MHz
Serial number: --
Checksum: 0x43 (valid)
EDID block does NOT conform to EDID 1.3!
	Missing name descriptor
	Detailed block string not properly terminated
