
EDID (hex):
00ffffffffffff0012c9000000000000
01130103802c1978eecfb5a355499925
105054a56f80714f81c0810081409500
7140a9c001017c2e40106284203060a8
1300baf91000001a662150b051001b30
40703600baf91000001a000000fd0032
4c1e5211000a202020202020000000fc
004456490a0a0a0a0a0a0a0a0a0a0012

Extracted contents:
header:          00 ff ff ff ff ff ff 00
serial number:   12 c9 00 00 00 00 00 00 01 13
version:         01 03
basic params:    80 2c 19 78 ee
chroma info:     cf b5 a3 55 49 99 25 10 50 54
established:     a5 6f 80
standard:        71 4f 81 c0 81 00 81 40 95 00 71 40 a9 c0 01 01
descriptor 1:    7c 2e 40 10 62 84 20 30 60 a8 13 00 ba f9 10 00 00 1a
descriptor 2:    66 21 50 b0 51 00 1b 30 40 70 36 00 ba f9 10 00 00 1a
descriptor 3:    00 00 00 fd 00 32 4c 1e 52 11 00 0a 20 20 20 20 20 20
descriptor 4:    00 00 00 fc 00 44 56 49 0a 0a 0a 0a 0a 0a 0a 0a 0a 0a
extensions:      00
checksum:        12

EDID version: 1.3
Manufacturer: DVI Model 0 Serial Number --
Made in week 1 of 2009
Digital display
Maximum image size: 44 cm x 25 cm
Gamma: 2.20
DPMS levels: Standby Suspend Off
RGB color display
Default (sRGB) color space is primary color space
First detailed timing is preferred timing
Display x,y Chromaticity:
  Red:   0.6396, 0.3320
  Green: 0.2880, 0.6005
  Blue:  0.1464, 0.0654
  White: 0.3134, 0.3291
Established timings supported:
  720x400@70Hz 9:5 HorFreq: 31469 Hz Clock: 28.320 MHz
  640x480@60Hz 4:3 HorFreq: 31469 Hz Clock: 25.175 MHz
  640x480@75Hz 4:3 HorFreq: 37500 Hz Clock: 31.500 MHz
  800x600@60Hz 4:3 HorFreq: 37900 Hz Clock: 40.000 MHz
  800x600@75Hz 4:3 HorFreq: 46900 Hz Clock: 49.500 MHz
  832x624@75Hz 4:3 HorFreq: 49726 Hz Clock: 57.284 MHz
  1024x768@60Hz 4:3 HorFreq: 48400 Hz Clock: 65.000 MHz
  1024x768@70Hz 4:3 HorFreq: 56500 Hz Clock: 75.000 MHz
  1024x768@75Hz 4:3 HorFreq: 60000 Hz Clock: 78.750 MHz
  1280x1024@75Hz 5:4 HorFreq: 80000 Hz Clock: 135.000 MHz
  1152x870@75Hz 192:145 HorFreq: 67500 Hz Clock: 108.000 MHz
Standard timings supported:
  1152x864@75Hz 4:3 HorFreq: 67500 Hz Clock: 108.000 MHz
  1280x720@60Hz 16:9
  1280x800@60Hz 16:10
  1280x960@60Hz 4:3 HorFreq: 60000 Hz Clock: 108.000 MHz
  1440x900@60Hz 16:10 HorFreq: 55500 Hz Clock: 88.750 MHz
  1152x864@60Hz 4:3
  1600x900@60Hz 16:9
Detailed mode: Clock 119.000 MHz, 442 mm x 249 mm
               1600 1696 1864 2128 hborder 0
                900  901  904  932 vborder 0
               +hsync -vsync 
               VertFreq: 60 Hz, HorFreq: 55921 Hz
Detailed mode: Clock 85.500 MHz, 442 mm x 249 mm
               1360 1424 1536 1792 hborder 0
                768  771  777  795 vborder 0
               +hsync -vsync 
               VertFreq: 60 Hz, HorFreq: 47712 Hz
Monitor ranges (GTF): 50-76Hz V, 30-82kHz H, max dotclock 170MHz
Monitor name: DVI
Checksum: 0x12 (valid)
EDID block does NOT conform to EDID 1.3!
	sRGB is signaled, but the chromaticities do not match
	Detailed block string not properly terminated
