
EDID (hex):
00ffffffffffff0009e5990800000000
000f0103801812780a8d5192554e8926
284e5400080001010101010101010101
01010101010164190040410026301888
3600f5b800000018000000fe00200a20
20202020202020202020000000fe0042
4f452048594449530a202020000000fe
00485431325832312d3232310a20009a

Extracted contents:
header:          00 ff ff ff ff ff ff 00
serial number:   09 e5 99 08 00 00 00 00 00 0f
version:         01 03
basic params:    80 18 12 78 0a
chroma info:     8d 51 92 55 4e 89 26 28 4e 54
established:     00 08 00
standard:        01 01 01 01 01 01 01 01 01 01 01 01 01 01 01 01
descriptor 1:    64 19 00 40 41 00 26 30 18 88 36 00 f5 b8 00 00 00 18
descriptor 2:    00 00 00 fe 00 20 0a 20 20 20 20 20 20 20 20 20 20 20
descriptor 3:    00 00 00 fe 00 42 4f 45 20 48 59 44 49 53 0a 20 20 20
descriptor 4:    00 00 00 fe 00 48 54 31 32 58 32 31 2d 32 32 31 0a 20
extensions:      00
checksum:        9a

EDID version: 1.3
Manufacturer: BOE Model 899 Serial Number --
Digital display
Maximum image size: 24 cm x 18 cm
Gamma: 2.20
RGB color display
First detailed timing is preferred timing
Display x,y Chromaticity:
  Red:   0.5722, 0.3320
  Green: 0.3076, 0.5361
  Blue:  0.1494, 0.1572
  White: 0.3046, 0.3291
Established timings supported:
  1024x768@60Hz 4:3 HorFreq: 48400 Hz Clock: 65.000 MHz
Standard timings supported:
Detailed mode: Clock 65.000 MHz, 245 mm x 184 mm
               1024 1048 1184 1344 hborder 0
                768  771  777  806 vborder 0
               -hsync -vsync 
               VertFreq: 60 Hz, HorFreq: 48363 Hz
ASCII string:  
ASCII string: BOE HYDIS
ASCII string: HT12X21-221
Checksum: 0x9a (valid)
EDID block does NOT conform to EDID 1.3!
	Missing name descriptor
	Missing monitor ranges
EDID block does not conform at all!
	Bad year of manufacture
