
EDID (hex):
00ffffffffffff0030e4ee0200000000
00140104901f1178028845955a568d28
23505400000001010101010101010101
010101010101121b5668500012303020
350035ae100000180c12566850001230
3020350035ae10000018000000000000
00000000000000000000000000000002
000c4cff0a3c6415111d64000000005c

Extracted contents:
header:          00 ff ff ff ff ff ff 00
serial number:   30 e4 ee 02 00 00 00 00 00 14
version:         01 04
basic params:    90 1f 11 78 02
chroma info:     88 45 95 5a 56 8d 28 23 50 54
established:     00 00 00
standard:        01 01 01 01 01 01 01 01 01 01 01 01 01 01 01 01
descriptor 1:    12 1b 56 68 50 00 12 30 30 20 35 00 35 ae 10 00 00 18
descriptor 2:    0c 12 56 68 50 00 12 30 30 20 35 00 35 ae 10 00 00 18
descriptor 3:    00 00 00 00 00 00 00 00 00 00 00 00 00 00 00 00 00 00
descriptor 4:    00 00 00 02 00 0c 4c ff 0a 3c 64 15 11 1d 64 00 00 00
extensions:      00
checksum:        5c

EDID version: 1.4
Manufacturer: LGD Model 2ee Serial Number --
Made in year 2010
Digital display
6 bits per primary color channel
Digital interface is not defined
Maximum image size: 31 cm x 17 cm
Gamma: 2.20
Supported color formats: RGB 4:4:4
First detailed timing includes the native pixel format and preferred refresh rate
Display x,y Chromaticity:
  Red:   0.5839, 0.3515
  Green: 0.3378, 0.5507
  Blue:  0.1572, 0.1367
  White: 0.3134, 0.3291
Established timings supported:
Standard timings supported:
Detailed mode: Clock 69.300 MHz, 309 mm x 174 mm
               1366 1414 1446 1470 hborder 0
                768  771  776  786 vborder 0
               -hsync -vsync 
               VertFreq: 59 Hz, HorFreq: 47142 Hz
Detailed mode: Clock 46.200 MHz, 309 mm x 174 mm
               1366 1414 1446 1470 hborder 0
                768  771  776  786 vborder 0
               -hsync -vsync 
               VertFreq: 39 Hz, HorFreq: 31428 Hz
Manufacturer-specified data, tag 0
Manufacturer-specified data, tag 2
Checksum: 0x5c (valid)
EDID block does NOT conform to EDID 1.4!
	Missing name descriptor
	Missing monitor ranges
