edid-decode (hex):

00 ff ff ff ff ff ff 00 32 0c 44 01 00 00 00 00
00 12 01 03 90 21 15 78 0a ee 80 99 59 51 8c 28
25 50 54 00 00 00 01 01 01 01 01 01 01 01 01 01
01 01 01 01 01 01 de 21 a0 70 50 84 1f 30 20 20
56 00 4b cf 10 00 00 1b 00 00 00 00 00 00 00 00
00 00 00 00 00 00 00 00 00 00 00 00 00 fe 00 4c
47 50 68 69 6c 69 70 73 4c 43 44 0a 00 00 00 fe
00 4c 50 31 35 34 57 50 31 2d 54 4c 45 31 00 44

----------------

Block 0, Base EDID:
  EDID Structure Version & Revision: 1.3
  Vendor & Product Identification:
    Manufacturer: LPL
    Model: 324
    Made in: 2008
  Basic Display Parameters & Features:
    Digital display
    Maximum image size: 33 cm x 21 cm
    Gamma: 2.20
    RGB color display
    First detailed timing is preferred timing
  Color Characteristics:
    Red  : 0.6005, 0.3496
    Green: 0.3193, 0.5488
    Blue : 0.1582, 0.1445
    White: 0.3125, 0.3281
  Established Timings I & II: none
  Standard Timings: none
  Detailed Timing Descriptors:
    DTD 1:  1440x900    60.004 Hz   8:5    55.863 kHz  86.700 MHz (331 mm x 207 mm)
                 Hfront   32 Hsync  32 Hback  48 Hpol P
                 Vfront    5 Vsync   6 Vback  20 Vpol N
    Empty Descriptor
    Alphanumeric Data String: 'LGPhilipsLCD'
    Alphanumeric Data String: 'LP154WP1-TLE1'
Checksum: 0x44
