edid-decode (hex):

00 ff ff ff ff ff ff 00 15 c3 46 16 00 00 00 00
0a 0c 01 02 0e 24 1d 78 ea e6 9b a3 54 4a 99 26
0f 4c 50 bf ef 80 81 80 81 4f 81 40 71 59 71 4f
61 59 45 59 31 59 30 2a 00 98 51 00 2a 40 30 70
13 00 67 20 11 00 00 1e 00 00 00 ff 00 36 35 32
32 35 30 33 32 0a 20 20 20 20 00 00 00 fd 00 32
4b 1b 50 0d 00 0a 20 20 20 20 20 20 00 00 00 fc
00 4c 36 38 35 0a 20 20 20 20 20 20 20 20 00 c7

00 ff ff ff ff ff ff 00 15 c3 46 16 00 00 00 00
0a 0c 01 02 0e 24 1d 78 ea e6 9b a3 54 4a 99 26
0f 4c 50 bf ef 80 81 80 81 4f 81 40 71 59 71 4f
61 59 45 59 31 59 30 2a 00 98 51 00 2a 40 30 70
13 00 67 20 11 00 00 1e 00 00 00 ff 00 36 35 32
32 35 30 33 32 0a 20 20 20 20 00 00 00 fd 00 32
4b 1b 50 0d 00 0a 20 20 20 20 20 20 00 00 00 fc
00 4c 36 38 35 0a 20 20 20 20 20 20 20 20 00 c7

----------------

Block 0, Base EDID:
  EDID Structure Version & Revision: 1.2
  Vendor & Product Identification:
    Manufacturer: ENC
    Model: 5702
    Made in: week 10 of 2002
  Basic Display Parameters & Features:
    Analog display
    Signal Level Standard: 0.700 : 0.300 : 1.000 V p-p
    Blank level equals black level
    Sync: Separate Composite SyncOnGreen
    Maximum image size: 36 cm x 29 cm
    Gamma: 2.20
    DPMS levels: Standby Suspend Off
    RGB color display
    First detailed timing is the preferred timing
  Color Characteristics:
    Red  : 0.6396, 0.3300
    Green: 0.2900, 0.5996
    Blue : 0.1503, 0.0595
    White: 0.2988, 0.3154
  Established Timings I & II:
    IBM     :   720x400    70.081663 Hz   9:5     31.467 kHz     28.320000 MHz
    DMT 0x04:   640x480    59.940476 Hz   4:3     31.469 kHz     25.175000 MHz
    Apple   :   640x480    66.666667 Hz   4:3     35.000 kHz     30.240000 MHz
    DMT 0x05:   640x480    72.808802 Hz   4:3     37.861 kHz     31.500000 MHz
    DMT 0x06:   640x480    75.000000 Hz   4:3     37.500 kHz     31.500000 MHz
    DMT 0x08:   800x600    56.250000 Hz   4:3     35.156 kHz     36.000000 MHz
    DMT 0x09:   800x600    60.316541 Hz   4:3     37.879 kHz     40.000000 MHz
    DMT 0x0a:   800x600    72.187572 Hz   4:3     48.077 kHz     50.000000 MHz
    DMT 0x0b:   800x600    75.000000 Hz   4:3     46.875 kHz     49.500000 MHz
    Apple   :   832x624    74.551266 Hz   4:3     49.726 kHz     57.284000 MHz
    DMT 0x10:  1024x768    60.003840 Hz   4:3     48.363 kHz     65.000000 MHz
    DMT 0x11:  1024x768    70.069359 Hz   4:3     56.476 kHz     75.000000 MHz
    DMT 0x12:  1024x768    75.028582 Hz   4:3     60.023 kHz     78.750000 MHz
    DMT 0x24:  1280x1024   75.024675 Hz   5:4     79.976 kHz    135.000000 MHz
    Apple   :  1152x870    75.061550 Hz 192:145   68.681 kHz    100.000000 MHz
  Standard Timings:
    DMT 0x23:  1280x1024   60.019740 Hz   5:4     63.981 kHz    108.000000 MHz
    GTF     :  1280x960    74.999884 Hz   4:3     75.150 kHz    129.859000 MHz
    DMT 0x20:  1280x960    60.000000 Hz   4:3     60.000 kHz    108.000000 MHz
    GTF     :  1152x864    84.999687 Hz   4:3     77.095 kHz    119.651000 MHz
    DMT 0x15:  1152x864    75.000000 Hz   4:3     67.500 kHz    108.000000 MHz
    DMT 0x13:  1024x768    84.996690 Hz   4:3     68.677 kHz     94.500000 MHz
    DMT 0x0c:   800x600    85.061274 Hz   4:3     53.674 kHz     56.250000 MHz
    DMT 0x07:   640x480    85.008312 Hz   4:3     43.269 kHz     36.000000 MHz
  Detailed Timing Descriptors:
    DTD 1:  1280x1024   60.019740 Hz   5:4     63.981 kHz    108.000000 MHz (359 mm x 288 mm)
                 Hfront   48 Hsync 112 Hback  248 Hpol P
                 Vfront    1 Vsync   3 Vback   38 Vpol P
    Display Product Serial Number: ...
    Display Range Limits:
      Monitor ranges (GTF): 50-75 Hz V, 27-80 kHz H, max dotclock 130 MHz
    Display Product Name: 'L685'
Checksum: 0xc7

----------------

Block 1, Unknown EDID Extension Block 0x00:
  00 ff ff ff ff ff ff 00 15 c3 46 16 00 00 00 00 '..........F.....'
  0a 0c 01 02 0e 24 1d 78 ea e6 9b a3 54 4a 99 26 '.....$.x....TJ.&'
  0f 4c 50 bf ef 80 81 80 81 4f 81 40 71 59 71 4f '.LP......O.@qYqO'
  61 59 45 59 31 59 30 2a 00 98 51 00 2a 40 30 70 'aYEY1Y0*..Q.*@0p'
  13 00 67 20 11 00 00 1e 00 00 00 ff 00 36 35 32 '..g .........652'
  32 35 30 33 32 0a 20 20 20 20 00 00 00 fd 00 32 '25032.    .....2'
  4b 1b 50 0d 00 0a 20 20 20 20 20 20 00 00 00 fc 'K.P...      ....'
  00 4c 36 38 35 0a 20 20 20 20 20 20 20 20 00 c7 '.L685.        ..'
Checksum: 0xc7

----------------

Warnings:

Block 0, Base EDID:
  EDID Structure Version & Revision: EDID 1.2 is deprecated, do not use.

Failures:

Block 1, Base EDID:
  Unknown Extension Block.
EDID:
  Base EDID: Some timings are out of range of the Monitor Ranges:
    Vertical Freq: 56.250 - 85.061 Hz (Monitor: 50.000 - 75.000 Hz)
    Maximum Clock: 135.000 MHz (Monitor: 130.000 MHz)
  Base EDID: EDID specified 0 extension block(s), but found 1 extension block(s).

EDID conformity: FAIL
