
EDID (hex):
00ffffffffffff000daf211700000000
05130103802716780a06359e56529829
14505400000001010101010101010101
0101010101012f2640a060841a303020
35007ed710000018000000fe004e3137
334647452d4c32310a20000000fe0043
4d4f0a202020202020202020000000fe
004e3137334647452d4c32310a2000c3

Extracted contents:
header:          00 ff ff ff ff ff ff 00
serial number:   0d af 21 17 00 00 00 00 05 13
version:         01 03
basic params:    80 27 16 78 0a
chroma info:     06 35 9e 56 52 98 29 14 50 54
established:     00 00 00
standard:        01 01 01 01 01 01 01 01 01 01 01 01 01 01 01 01
descriptor 1:    2f 26 40 a0 60 84 1a 30 30 20 35 00 7e d7 10 00 00 18
descriptor 2:    00 00 00 fe 00 4e 31 37 33 46 47 45 2d 4c 32 31 0a 20
descriptor 3:    00 00 00 fe 00 43 4d 4f 0a 20 20 20 20 20 20 20 20 20
descriptor 4:    00 00 00 fe 00 4e 31 37 33 46 47 45 2d 4c 32 31 0a 20
extensions:      00
checksum:        c3

EDID version: 1.3
Manufacturer: CMO Model 1721 Serial Number --
Made in week 5 of 2009
Digital display
Maximum image size: 39 cm x 22 cm
Gamma: 2.20
RGB color display
First detailed timing is preferred timing
Display x,y Chromaticity:
  Red:   0.6171, 0.3359
  Green: 0.3212, 0.5957
  Blue:  0.1601, 0.0810
  White: 0.3134, 0.3291
Established timings supported:
Standard timings supported:
Detailed mode: Clock 97.750 MHz, 382 mm x 215 mm
               1600 1648 1680 1760 hborder 0
                900  903  908  926 vborder 0
               -hsync -vsync 
               VertFreq: 59 Hz, HorFreq: 55539 Hz
ASCII string: N173FGE-L21
ASCII string: CMO
ASCII string: N173FGE-L21
Checksum: 0xc3 (valid)
EDID block does NOT conform to EDID 1.3!
	Missing name descriptor
	Missing monitor ranges
