
EDID (hex):
00ffffffffffff00506c000001010101
02150103084c2d780a0dc9a057479827
12484c21080001010101010101010101
010101010101662150b051001b304070
3600444021000018011d007251d01e20
6e28550044402100001e000000fc0020
202020204454562020202020000000fd
0032550e4610000a2020202020200037

Extracted contents:
header:          00 ff ff ff ff ff ff 00
serial number:   50 6c 00 00 01 01 01 01 02 15
version:         01 03
basic params:    08 4c 2d 78 0a
chroma info:     0d c9 a0 57 47 98 27 12 48 4c
established:     21 08 00
standard:        01 01 01 01 01 01 01 01 01 01 01 01 01 01 01 01
descriptor 1:    66 21 50 b0 51 00 1b 30 40 70 36 00 44 40 21 00 00 18
descriptor 2:    01 1d 00 72 51 d0 1e 20 6e 28 55 00 44 40 21 00 00 1e
descriptor 3:    00 00 00 fc 00 20 20 20 20 20 44 54 56 20 20 20 20 20
descriptor 4:    00 00 00 fd 00 32 55 0e 46 10 00 0a 20 20 20 20 20 20
extensions:      00
checksum:        37

EDID version: 1.3
Manufacturer: TCL Model 0 Serial Number --
Made in week 2 of 2011
Analog display, Input voltage level: 0.7/0.3 V
Sync: Separate 
Maximum image size: 76 cm x 45 cm
Gamma: 2.20
RGB color display
First detailed timing is preferred timing
Display x,y Chromaticity:
  Red:   0.6250, 0.3398
  Green: 0.2802, 0.5947
  Blue:  0.1552, 0.0703
  White: 0.2832, 0.2978
Established timings supported:
  640x480@60Hz 4:3 HorFreq: 31469 Hz Clock: 25.175 MHz
  800x600@60Hz 4:3 HorFreq: 37900 Hz Clock: 40.000 MHz
  1024x768@60Hz 4:3 HorFreq: 48400 Hz Clock: 65.000 MHz
Standard timings supported:
Detailed mode: Clock 85.500 MHz, 580 mm x 320 mm
               1360 1424 1536 1792 hborder 0
                768  771  777  795 vborder 0
               -hsync -vsync 
               VertFreq: 60 Hz, HorFreq: 47712 Hz
Detailed mode: Clock 74.250 MHz, 580 mm x 320 mm
               1280 1390 1430 1650 hborder 0
                720  725  730  750 vborder 0
               +hsync +vsync 
               VertFreq: 60 Hz, HorFreq: 45000 Hz
Monitor ranges (GTF): 50-85Hz V, 14-70kHz H, max dotclock 160MHz
Checksum: 0x37 (valid)
EDID block does NOT conform to EDID 1.3!
	Name descriptor not terminated with a newline
