edid-decode (hex):

00 ff ff ff ff ff ff 00 21 63 74 11 00 00 00 00
00 21 01 04 a5 1e 13 78 e3 21 50 97 5b 5b 8e 29
1e 50 54 00 00 00 01 01 01 01 01 01 01 01 01 01
01 01 01 01 01 01 04 42 80 10 71 b0 55 40 30 20
36 00 2e bc 10 00 00 19 00 00 00 fd 00 28 3c 44
44 10 01 0a 20 20 20 20 20 20 00 00 00 fe 00 48
4b 43 20 4d 59 20 20 20 20 0a 20 20 00 00 00 fe
00 4d 42 31 34 30 44 4e 30 31 27 31 20 20 00 65

00 ff ff ff ff ff ff 00 21 63 74 11 00 00 00 00
00 21 01 04 a5 1e 13 78 e3 21 50 97 5b 5b 8e 29
1e 50 54 00 00 00 01 01 01 01 01 01 01 01 01 01
01 01 01 01 01 01 04 42 80 10 71 b0 55 40 30 20
36 00 2e bc 10 00 00 19 00 00 00 fd 00 28 3c 44
44 10 01 0a 20 20 20 20 20 20 00 00 00 fe 00 48
4b 43 20 4d 59 20 20 20 20 0a 20 20 00 00 00 fe
00 4d 42 31 34 30 44 4e 30 31 27 31 20 20 00 65

----------------

Block 0, Base EDID:
  EDID Structure Version & Revision: 1.4
  Vendor & Product Identification:
    Manufacturer: HKC
    Model: 4468
    Made in: 2023
  Basic Display Parameters & Features:
    Digital display
    Bits per primary color channel: 8
    DisplayPort interface
    Maximum image size: 30 cm x 19 cm
    Gamma: 2.20
    DPMS levels: Standby Suspend Off
    Supported color formats: RGB 4:4:4
    First detailed timing includes the native pixel format and preferred refresh rate
    Display is continuous frequency
  Color Characteristics:
    Red  : 0.5898, 0.3574
    Green: 0.3554, 0.5556
    Blue : 0.1611, 0.1181
    White: 0.3125, 0.3281
  Established Timings I & II: none
  Standard Timings: none
  Detailed Timing Descriptors:
    DTD 1:  1920x1200   59.998864 Hz  16:10    77.099 kHz    169.000000 MHz (302 mm x 188 mm)
                 Hfront   48 Hsync  32 Hback  192 Hpol N
                 Vfront    3 Vsync   6 Vback   76 Vpol N
    Display Range Limits:
      Monitor ranges (Bare Limits): 40-60 Hz V, 68-68 kHz H, max dotclock 160 MHz
    Alphanumeric Data String: 'HKC MY    '
    Alphanumeric Data String: 'MB140DN01'1  '
Checksum: 0x65

----------------

Block 1, Unknown EDID Extension Block 0x00:
  00 ff ff ff ff ff ff 00 21 63 74 11 00 00 00 00 '........!ct.....'
  00 21 01 04 a5 1e 13 78 e3 21 50 97 5b 5b 8e 29 '.!.....x.!P.[[.)'
  1e 50 54 00 00 00 01 01 01 01 01 01 01 01 01 01 '.PT.............'
  01 01 01 01 01 01 04 42 80 10 71 b0 55 40 30 20 '.......B..q.U@0 '
  36 00 2e bc 10 00 00 19 00 00 00 fd 00 28 3c 44 '6............(<D'
  44 10 01 0a 20 20 20 20 20 20 00 00 00 fe 00 48 'D...      .....H'
  4b 43 20 4d 59 20 20 20 20 0a 20 20 00 00 00 fe 'KC MY    .  ....'
  00 4d 42 31 34 30 44 4e 30 31 27 31 20 20 00 65 '.MB140DN01'1  .e'
Checksum: 0x65

----------------

Warnings:

Block 0, Base EDID:
  Missing Display Product Name.
EDID:
  Base EDID: Some timings are out of range of the Monitor Ranges:
    Horizontal Freq: 77.098 - 77.098 kHz (Monitor: 68.000 - 68.000 kHz)
    Maximum Clock: 169.000 MHz (Monitor: 160.000 MHz)

Failures:

Block 0, Base EDID:
  Alphanumeric Data String: One or more trailing spaces.
  Alphanumeric Data String: One or more trailing spaces.
Block 1, Base EDID:
  Unknown Extension Block.
EDID:
  Base EDID: EDID specified 0 extension block(s), but found 1 extension block(s).

EDID conformity: FAIL
