
EDID (hex):
00ffffffffffff0030aec20e01010101
11170103802c1978ee44e5a35a52a226
0e5054afef00818081c081009500714f
a9cf01010101302a40c8608464301850
1300bbf91000001e000000fc004c454e
204c533230323377430a000000fd0032
4c1e5310000a202020202020000000ff
00564e2d39333238370a202020200050

Extracted contents:
header:          00 ff ff ff ff ff ff 00
serial number:   30 ae c2 0e 01 01 01 01 11 17
version:         01 03
basic params:    80 2c 19 78 ee
chroma info:     44 e5 a3 5a 52 a2 26 0e 50 54
established:     af ef 00
standard:        81 80 81 c0 81 00 95 00 71 4f a9 cf 01 01 01 01
descriptor 1:    30 2a 40 c8 60 84 64 30 18 50 13 00 bb f9 10 00 00 1e
descriptor 2:    00 00 00 fc 00 4c 45 4e 20 4c 53 32 30 32 33 77 43 0a
descriptor 3:    00 00 00 fd 00 32 4c 1e 53 10 00 0a 20 20 20 20 20 20
descriptor 4:    00 00 00 ff 00 56 4e 2d 39 33 32 38 37 0a 20 20 20 20
extensions:      00
checksum:        50

EDID version: 1.3
Manufacturer: LEN Model ec2 Serial Number --
Made in week 17 of 2013
Digital display
Maximum image size: 44 cm x 25 cm
Gamma: 2.20
DPMS levels: Standby Suspend Off
RGB color display
Default (sRGB) color space is primary color space
First detailed timing is preferred timing
Display x,y Chromaticity:
  Red:   0.6376, 0.3515
  Green: 0.3212, 0.6328
  Blue:  0.1513, 0.0566
  White: 0.3134, 0.3291
Established timings supported:
  720x400@70Hz 9:5 HorFreq: 31469 Hz Clock: 28.320 MHz
  640x480@60Hz 4:3 HorFreq: 31469 Hz Clock: 25.175 MHz
  640x480@72Hz 4:3 HorFreq: 37900 Hz Clock: 31.500 MHz
  640x480@75Hz 4:3 HorFreq: 37500 Hz Clock: 31.500 MHz
  800x600@56Hz 4:3 HorFreq: 35200 Hz Clock: 36.000 MHz
  800x600@60Hz 4:3 HorFreq: 37900 Hz Clock: 40.000 MHz
  800x600@72Hz 4:3 HorFreq: 48100 Hz Clock: 50.000 MHz
  800x600@75Hz 4:3 HorFreq: 46900 Hz Clock: 49.500 MHz
  832x624@75Hz 4:3 HorFreq: 49726 Hz Clock: 57.284 MHz
  1024x768@60Hz 4:3 HorFreq: 48400 Hz Clock: 65.000 MHz
  1024x768@70Hz 4:3 HorFreq: 56500 Hz Clock: 75.000 MHz
  1024x768@75Hz 4:3 HorFreq: 60000 Hz Clock: 78.750 MHz
  1280x1024@75Hz 5:4 HorFreq: 80000 Hz Clock: 135.000 MHz
Standard timings supported:
  1280x1024@60Hz 5:4 HorFreq: 64000 Hz Clock: 108.000 MHz
  1280x720@60Hz 16:9
  1280x800@60Hz 16:10
  1440x900@60Hz 16:10 HorFreq: 55500 Hz Clock: 88.750 MHz
  1152x864@75Hz 4:3 HorFreq: 67500 Hz Clock: 108.000 MHz
  1600x900@75Hz 16:9
Detailed mode: Clock 108.000 MHz, 443 mm x 249 mm
               1600 1624 1704 1800 hborder 0
                900  901  904 1000 vborder 0
               +hsync +vsync 
               VertFreq: 60 Hz, HorFreq: 60000 Hz
Monitor name: LEN LS2023wC
Monitor ranges (GTF): 50-76Hz V, 30-83kHz H, max dotclock 160MHz
Serial number: --
Checksum: 0x50 (valid)
EDID block does NOT conform to EDID 1.3!
	sRGB is signaled, but the chromaticities do not match
