
EDID (hex):
00ffffffffffff0026cf360500000000
001c0104a51d11780ade50a3544c9926
0f505400000001010101010101010101
010101010101353680a0703820401830
3c0026a5100000185e2b80a070382040
18303c0026a510000018000000fe0039
35593638803133334e57463400000000
000141311e001000000a010a202000dc

Extracted contents:
header:          00 ff ff ff ff ff ff 00
serial number:   26 cf 36 05 00 00 00 00 00 1c
version:         01 04
basic params:    a5 1d 11 78 0a
chroma info:     de 50 a3 54 4c 99 26 0f 50 54
established:     00 00 00
standard:        01 01 01 01 01 01 01 01 01 01 01 01 01 01 01 01
descriptor 1:    35 36 80 a0 70 38 20 40 18 30 3c 00 26 a5 10 00 00 18
descriptor 2:    5e 2b 80 a0 70 38 20 40 18 30 3c 00 26 a5 10 00 00 18
descriptor 3:    00 00 00 fe 00 39 35 59 36 38 80 31 33 33 4e 57 46 34
descriptor 4:    00 00 00 00 00 01 41 31 1e 00 10 00 00 0a 01 0a 20 20
extensions:      00
checksum:        dc

EDID version: 1.4
Manufacturer: IVO Model 536 Serial Number --
Made in year 2018
Digital display
8 bits per primary color channel
DisplayPort interface
Maximum image size: 29 cm x 17 cm
Gamma: 2.20
Supported color formats: RGB 4:4:4, YCrCb 4:4:4
First detailed timing includes the native pixel format and preferred refresh rate
Display x,y Chromaticity:
  Red:   0.6396, 0.3291
  Green: 0.2998, 0.5996
  Blue:  0.1494, 0.0595
  White: 0.3125, 0.3281
Established timings supported:
Standard timings supported:
Detailed mode: Clock 138.770 MHz, 294 mm x 165 mm
               1920 1944 1992 2080 hborder 0
               1080 1083 1095 1112 vborder 0
               -hsync -vsync 
               VertFreq: 59 Hz, HorFreq: 66716 Hz
Detailed mode: Clock 111.020 MHz, 294 mm x 165 mm
               1920 1944 1992 2080 hborder 0
               1080 1083 1095 1112 vborder 0
               -hsync -vsync 
               VertFreq: 47 Hz, HorFreq: 53375 Hz
ASCII string: 95Y68
Manufacturer-specified data, tag 0
Checksum: 0xdc (valid)
EDID block does NOT conform to EDID 1.4!
	Missing name descriptor
	Missing monitor ranges
	Detailed block string not properly terminated
