
EDID (hex):
00ffffffffffff0026cf360500000000
001d0104951d11780a85b09457539327
22505400000001010101010101010101
010101010101383680a0703820401830
3c0026a5100000185e2b80a070382040
18303c0026a510000018000000fe0052
4e394746803133334e57463400000000
0000413116001000000a010a202000b0

Extracted contents:
header:          00 ff ff ff ff ff ff 00
serial number:   26 cf 36 05 00 00 00 00 00 1d
version:         01 04
basic params:    95 1d 11 78 0a
chroma info:     85 b0 94 57 53 93 27 22 50 54
established:     00 00 00
standard:        01 01 01 01 01 01 01 01 01 01 01 01 01 01 01 01
descriptor 1:    38 36 80 a0 70 38 20 40 18 30 3c 00 26 a5 10 00 00 18
descriptor 2:    5e 2b 80 a0 70 38 20 40 18 30 3c 00 26 a5 10 00 00 18
descriptor 3:    00 00 00 fe 00 52 4e 39 47 46 80 31 33 33 4e 57 46 34
descriptor 4:    00 00 00 00 00 00 41 31 16 00 10 00 00 0a 01 0a 20 20
extensions:      00
checksum:        b0

EDID version: 1.4
Manufacturer: IVO Model 536 Serial Number --
Made in year 2019
Digital display
6 bits per primary color channel
DisplayPort interface
Maximum image size: 29 cm x 17 cm
Gamma: 2.20
Supported color formats: RGB 4:4:4, YCrCb 4:4:4
First detailed timing includes the native pixel format and preferred refresh rate
Display x,y Chromaticity:
  Red:   0.5800, 0.3398
  Green: 0.3251, 0.5751
  Blue:  0.1542, 0.1357
  White: 0.3125, 0.3281
Established timings supported:
Standard timings supported:
Detailed mode: Clock 138.800 MHz, 294 mm x 165 mm
               1920 1944 1992 2080 hborder 0
               1080 1083 1095 1112 vborder 0
               -hsync -vsync 
               VertFreq: 60 Hz, HorFreq: 66730 Hz
Detailed mode: Clock 111.020 MHz, 294 mm x 165 mm
               1920 1944 1992 2080 hborder 0
               1080 1083 1095 1112 vborder 0
               -hsync -vsync 
               VertFreq: 47 Hz, HorFreq: 53375 Hz
ASCII string: RN9GF
Manufacturer-specified data, tag 0
Checksum: 0xb0 (valid)
EDID block does NOT conform to EDID 1.4!
	Missing name descriptor
	Missing monitor ranges
	Detailed block string not properly terminated
