
EDID (hex):
00ffffffffffff0022f0494201000000
1d17010380331d78ee0a85a556519d25
0e505400000001010101010101010101
0101010101019934806470381f40582c
4500fd1e11000000000000fc00485020
416c6c2d696e2d4f6e65000000fc000a
202020202020202020202020000000fc
000a20202020202020202020202000c2

edid-decode (hex):

00 ff ff ff ff ff ff 00 22 f0 49 42 01 00 00 00
1d 17 01 03 80 33 1d 78 ee 0a 85 a5 56 51 9d 25
0e 50 54 00 00 00 01 01 01 01 01 01 01 01 01 01
01 01 01 01 01 01 99 34 80 64 70 38 1f 40 58 2c
45 00 fd 1e 11 00 00 00 00 00 00 fc 00 48 50 20
41 6c 6c 2d 69 6e 2d 4f 6e 65 00 00 00 fc 00 0a
20 20 20 20 20 20 20 20 20 20 20 20 00 00 00 fc
00 0a 20 20 20 20 20 20 20 20 20 20 20 20 00 c2

----------------

Block 0, Base EDID:
  EDID Structure Version & Revision: 1.3
  Vendor & Product Identification:
    Manufacturer: HWP
    Model: 16969
    Serial Number: 1
    Made in: week 29 of 2013
  Basic Display Parameters & Features:
    Digital display
    Maximum image size: 51 cm x 29 cm
    Gamma: 2.20
    DPMS levels: Standby Suspend Off
    RGB color display
    Default (sRGB) color space is primary color space
    First detailed timing is the preferred timing
  Color Characteristics:
    Red  : 0.6445, 0.3359
    Green: 0.3183, 0.6152
    Blue : 0.1464, 0.0546
    White: 0.3134, 0.3291
  Established Timings I & II: none
  Standard Timings: none
  Detailed Timing Descriptors:
    DTD 1:  1920x1080   59.998574 Hz  16:9     66.658 kHz    134.650000 MHz (analog composite, sync-on-green, 509 mm x 286 mm)
                 Hfront   88 Hsync  44 Hback  -32 Hpol N
                 Vfront    4 Vsync   5 Vback   22 Vpol N
    Display Product Name: 'HP All-in-One'
    Display Product Name: ''
    Display Product Name: ''
Checksum: 0xc2
