
EDID (hex):
00ffffffffffff0005e3000001010101
01170103685d34782ae0dda354489724
0f474aafcf0081800101010101010101
010101010101023a801871382d40582c
4500a20b3200001e0e1f008051001e30
40803700a20b3200001c000000fd0037
4c1e460f000a202020202020000000fc
00414f43204c43440a20202020200068

Extracted contents:
header:          00 ff ff ff ff ff ff 00
serial number:   05 e3 00 00 01 01 01 01 01 17
version:         01 03
basic params:    68 5d 34 78 2a
chroma info:     e0 dd a3 54 48 97 24 0f 47 4a
established:     af cf 00
standard:        81 80 01 01 01 01 01 01 01 01 01 01 01 01 01 01
descriptor 1:    02 3a 80 18 71 38 2d 40 58 2c 45 00 a2 0b 32 00 00 1e
descriptor 2:    0e 1f 00 80 51 00 1e 30 40 80 37 00 a2 0b 32 00 00 1c
descriptor 3:    00 00 00 fd 00 37 4c 1e 46 0f 00 0a 20 20 20 20 20 20
descriptor 4:    00 00 00 fc 00 41 4f 43 20 4c 43 44 0a 20 20 20 20 20
extensions:      00
checksum:        68

EDID version: 1.3
Manufacturer: AOC Model 0 Serial Number --
Made in week 1 of 2013
Analog display, Input voltage level: 0.7/0.7 V
Sync: Separate 
Maximum image size: 93 cm x 52 cm
Gamma: 2.20
DPMS levels: Off
RGB color display
First detailed timing is preferred timing
Display x,y Chromaticity:
  Red:   0.6396, 0.3300
  Green: 0.2812, 0.5898
  Blue:  0.1435, 0.0595
  White: 0.2802, 0.2900
Established timings supported:
  720x400@70Hz 9:5 HorFreq: 31469 Hz Clock: 28.320 MHz
  640x480@60Hz 4:3 HorFreq: 31469 Hz Clock: 25.175 MHz
  640x480@72Hz 4:3 HorFreq: 37900 Hz Clock: 31.500 MHz
  640x480@75Hz 4:3 HorFreq: 37500 Hz Clock: 31.500 MHz
  800x600@56Hz 4:3 HorFreq: 35200 Hz Clock: 36.000 MHz
  800x600@60Hz 4:3 HorFreq: 37900 Hz Clock: 40.000 MHz
  800x600@72Hz 4:3 HorFreq: 48100 Hz Clock: 50.000 MHz
  800x600@75Hz 4:3 HorFreq: 46900 Hz Clock: 49.500 MHz
  1024x768@60Hz 4:3 HorFreq: 48400 Hz Clock: 65.000 MHz
  1024x768@70Hz 4:3 HorFreq: 56500 Hz Clock: 75.000 MHz
  1024x768@75Hz 4:3 HorFreq: 60000 Hz Clock: 78.750 MHz
  1280x1024@75Hz 5:4 HorFreq: 80000 Hz Clock: 135.000 MHz
Standard timings supported:
  1280x1024@60Hz 5:4 HorFreq: 64000 Hz Clock: 108.000 MHz
Detailed mode: Clock 148.500 MHz, 930 mm x 523 mm
               1920 2008 2052 2200 hborder 0
               1080 1084 1089 1125 vborder 0
               +hsync +vsync 
               VertFreq: 60 Hz, HorFreq: 67500 Hz
Detailed mode: Clock 79.500 MHz, 930 mm x 523 mm
               1280 1344 1472 1664 hborder 0
                768  771  778  798 vborder 0
               -hsync +vsync 
               VertFreq: 59 Hz, HorFreq: 47776 Hz
Monitor ranges (GTF): 55-76Hz V, 30-70kHz H, max dotclock 150MHz
Monitor name: AOC LCD
Checksum: 0x68 (valid)
One or more of the timings is out of range of the Monitor Ranges:
  Vertical Freq: 56 - 75 Hz
  Horizontal Freq: 31469 - 80000 Hz
  Maximum Clock: 148.500 MHz
