
EDID (hex):
00ffffffffffff0005e3000001010101
00170103684427782a639da154529e26
0a474aafce0001010101010101010101
010101010101662150b051001b304070
3600a7882100001ea91a00a050001630
30203700a7882100001a000000fd0037
4c1e460f000a202020202020000000fc
00414f43204c43440a202020202000cd

Extracted contents:
header:          00 ff ff ff ff ff ff 00
serial number:   05 e3 00 00 01 01 01 01 00 17
version:         01 03
basic params:    68 44 27 78 2a
chroma info:     63 9d a1 54 52 9e 26 0a 47 4a
established:     af ce 00
standard:        01 01 01 01 01 01 01 01 01 01 01 01 01 01 01 01
descriptor 1:    66 21 50 b0 51 00 1b 30 40 70 36 00 a7 88 21 00 00 1e
descriptor 2:    a9 1a 00 a0 50 00 16 30 30 20 37 00 a7 88 21 00 00 1a
descriptor 3:    00 00 00 fd 00 37 4c 1e 46 0f 00 0a 20 20 20 20 20 20
descriptor 4:    00 00 00 fc 00 41 4f 43 20 4c 43 44 0a 20 20 20 20 20
extensions:      00
checksum:        cd

EDID version: 1.3
Manufacturer: AOC Model 0 Serial Number --
Made in year 2013
Analog display, Input voltage level: 0.7/0.7 V
Sync: Separate 
Maximum image size: 68 cm x 39 cm
Gamma: 2.20
DPMS levels: Off
RGB color display
First detailed timing is preferred timing
Display x,y Chromaticity:
  Red:   0.6298, 0.3300
  Green: 0.3203, 0.6201
  Blue:  0.1503, 0.0400
  White: 0.2802, 0.2900
Established timings supported:
  720x400@70Hz 9:5 HorFreq: 31469 Hz Clock: 28.320 MHz
  640x480@60Hz 4:3 HorFreq: 31469 Hz Clock: 25.175 MHz
  640x480@72Hz 4:3 HorFreq: 37900 Hz Clock: 31.500 MHz
  640x480@75Hz 4:3 HorFreq: 37500 Hz Clock: 31.500 MHz
  800x600@56Hz 4:3 HorFreq: 35200 Hz Clock: 36.000 MHz
  800x600@60Hz 4:3 HorFreq: 37900 Hz Clock: 40.000 MHz
  800x600@72Hz 4:3 HorFreq: 48100 Hz Clock: 50.000 MHz
  800x600@75Hz 4:3 HorFreq: 46900 Hz Clock: 49.500 MHz
  1024x768@60Hz 4:3 HorFreq: 48400 Hz Clock: 65.000 MHz
  1024x768@70Hz 4:3 HorFreq: 56500 Hz Clock: 75.000 MHz
  1024x768@75Hz 4:3 HorFreq: 60000 Hz Clock: 78.750 MHz
Standard timings supported:
Detailed mode: Clock 85.500 MHz, 679 mm x 392 mm
               1360 1424 1536 1792 hborder 0
                768  771  777  795 vborder 0
               +hsync +vsync 
               VertFreq: 60 Hz, HorFreq: 47712 Hz
Detailed mode: Clock 68.250 MHz, 679 mm x 392 mm
               1280 1328 1360 1440 hborder 0
                768  771  778  790 vborder 0
               +hsync -vsync 
               VertFreq: 59 Hz, HorFreq: 47395 Hz
Monitor ranges (GTF): 55-76Hz V, 30-70kHz H, max dotclock 150MHz
Monitor name: AOC LCD
Checksum: 0xcd (valid)
