
EDID (hex):
00ffffffffffff0022f05f3101010101
33190103804728782e9145a7554ea025
0c5054a10800d1c081c081809500a9c0
a940b300d100565e00a0a0a029503020
3500c48f2100001a000000fd00323c18
5a19000a202020202020000000fc0048
5020454e56592033320a2020000000ff
00434e43353531303037420a202001c8

Extracted contents:
header:          00 ff ff ff ff ff ff 00
serial number:   22 f0 5f 31 01 01 01 01 33 19
version:         01 03
basic params:    80 47 28 78 2e
chroma info:     91 45 a7 55 4e a0 25 0c 50 54
established:     a1 08 00
standard:        d1 c0 81 c0 81 80 95 00 a9 c0 a9 40 b3 00 d1 00
descriptor 1:    56 5e 00 a0 a0 a0 29 50 30 20 35 00 c4 8f 21 00 00 1a
descriptor 2:    00 00 00 fd 00 32 3c 18 5a 19 00 0a 20 20 20 20 20 20
descriptor 3:    00 00 00 fc 00 48 50 20 45 4e 56 59 20 33 32 0a 20 20
descriptor 4:    00 00 00 ff 00 43 4e 43 35 35 31 30 30 37 42 0a 20 20
extensions:      01
checksum:        c8

EDID version: 1.3
Manufacturer: HWP Model 315f Serial Number --
Made in week 51 of 2015
Digital display
Maximum image size: 71 cm x 40 cm
Gamma: 2.20
DPMS levels: Off
RGB color display
Default (sRGB) color space is primary color space
First detailed timing is preferred timing
Display x,y Chromaticity:
  Red:   0.6542, 0.3330
  Green: 0.3046, 0.6259
  Blue:  0.1455, 0.0468
  White: 0.3134, 0.3291
Established timings supported:
  720x400@70Hz 9:5 HorFreq: 31469 Hz Clock: 28.320 MHz
  640x480@60Hz 4:3 HorFreq: 31469 Hz Clock: 25.175 MHz
  800x600@60Hz 4:3 HorFreq: 37900 Hz Clock: 40.000 MHz
  1024x768@60Hz 4:3 HorFreq: 48400 Hz Clock: 65.000 MHz
Standard timings supported:
  1920x1080@60Hz 16:9
  1280x720@60Hz 16:9
  1280x1024@60Hz 5:4 HorFreq: 64000 Hz Clock: 108.000 MHz
  1440x900@60Hz 16:10 HorFreq: 55500 Hz Clock: 88.750 MHz
  1600x900@60Hz 16:9
  1600x1200@60Hz 4:3 HorFreq: 75000 Hz Clock: 162.000 MHz
  1680x1050@60Hz 16:10 HorFreq: 64700 Hz Clock: 119.000 MHz
  1920x1200@60Hz 16:10 HorFreq: 74000 Hz Clock: 154.000 MHz
Detailed mode: Clock 241.500 MHz, 708 mm x 399 mm
               2560 2608 2640 2720 hborder 0
               1440 1443 1448 1481 vborder 0
               +hsync -vsync 
               VertFreq: 59 Hz, HorFreq: 88786 Hz
Monitor ranges (GTF): 50-60Hz V, 24-90kHz H, max dotclock 250MHz
Monitor name: HP ENVY 32
Serial number: --
Has 1 extension blocks
Checksum: 0xc8 (valid)
EDID block does NOT conform to EDID 1.3!
	sRGB is signaled, but the chromaticities do not match
One or more of the timings is out of range of the Monitor Ranges:
  Vertical Freq: 59 - 70 Hz
  Horizontal Freq: 31469 - 88786 Hz
  Maximum Clock: 241.500 MHz
