edid-decode (hex):

00 ff ff ff ff ff ff 00 44 93 3d 00 00 00 00 00
00 0f 01 03 80 21 15 78 0a ab c0 90 51 50 8d 2a
29 50 54 00 00 00 01 01 01 01 01 01 01 01 01 01
01 01 01 01 01 01 93 2e 90 a0 60 1a 1e 40 30 20
36 00 4b cf 10 00 00 18 00 00 00 0f 00 06 6e 0c
78 01 14 02 14 1e 8c 02 19 01 00 00 00 fe 00 51
55 41 4e 54 41 44 49 53 50 4c 41 59 00 00 00 fe
00 51 44 31 35 41 4c 30 32 31 0a 20 20 20 00 8d

----------------

Block 0, Base EDID:
  EDID Structure Version & Revision: 1.3
  Vendor & Product Identification:
    Manufacturer: QDS
    Model: 61
    Made in: 2005
  Basic Display Parameters & Features:
    Digital display
    Maximum image size: 33 cm x 21 cm
    Gamma: 2.20
    RGB color display
    First detailed timing is the preferred timing
  Color Characteristics:
    Red  : 0.5644, 0.3183
    Green: 0.3144, 0.5537
    Blue : 0.1669, 0.1601
    White: 0.3125, 0.3281
  Established Timings I & II: none
  Standard Timings: none
  Detailed Timing Descriptors:
    DTD 1:  1680x1050   59.998994 Hz   8:5     64.799 kHz    119.230000 MHz (331 mm x 207 mm)
                 Hfront   48 Hsync  32 Hback   80 Hpol N
                 Vfront    3 Vsync   6 Vback   21 Vpol N
    Manufacturer-Specified Display Descriptor (0x0f): 00 0f 00 06 6e 0c 78 01 14 02 14 1e 8c 02 19 01 '....n.x.........'
    Alphanumeric Data String: 'QUANTADISPLAY'
    Alphanumeric Data String: 'QD15AL021'
Checksum: 0x8d

----------------

Failures:

Block 0, Base EDID:
  Missing Display Product Name.
  Missing Display Range Limits Descriptor.

EDID conformity: FAIL
