
EDID (hex):
00ffffffffffff0044933d0000000000
000f0103802115780aabc09051508d2a
29505400000001010101010101010101
010101010101932e90a0601a1e403020
36004bcf100000180000000f00066e0c
78011402141e8c021901000000fe0051
55414e5441444953504c4159000000fe
0051443135414c3032310a202020008d

Extracted contents:
header:          00 ff ff ff ff ff ff 00
serial number:   44 93 3d 00 00 00 00 00 00 0f
version:         01 03
basic params:    80 21 15 78 0a
chroma info:     ab c0 90 51 50 8d 2a 29 50 54
established:     00 00 00
standard:        01 01 01 01 01 01 01 01 01 01 01 01 01 01 01 01
descriptor 1:    93 2e 90 a0 60 1a 1e 40 30 20 36 00 4b cf 10 00 00 18
descriptor 2:    00 00 00 0f 00 06 6e 0c 78 01 14 02 14 1e 8c 02 19 01
descriptor 3:    00 00 00 fe 00 51 55 41 4e 54 41 44 49 53 50 4c 41 59
descriptor 4:    00 00 00 fe 00 51 44 31 35 41 4c 30 32 31 0a 20 20 20
extensions:      00
checksum:        8d

EDID version: 1.3
Manufacturer: QDS Model 3d Serial Number --
Digital display
Maximum image size: 33 cm x 21 cm
Gamma: 2.20
RGB color display
First detailed timing is preferred timing
Display x,y Chromaticity:
  Red:   0.5644, 0.3183
  Green: 0.3144, 0.5537
  Blue:  0.1669, 0.1601
  White: 0.3125, 0.3281
Established timings supported:
Standard timings supported:
Detailed mode: Clock 119.230 MHz, 331 mm x 207 mm
               1680 1728 1760 1840 hborder 0
               1050 1053 1059 1080 vborder 0
               -hsync -vsync 
               VertFreq: 59 Hz, HorFreq: 64798 Hz
Manufacturer-specified data, tag 15
ASCII string: QUANTADISPLAY
ASCII string: QD15AL021
Checksum: 0x8d (valid)
EDID block does NOT conform to EDID 1.3!
	Missing name descriptor
	Missing monitor ranges
EDID block does not conform at all!
	Bad year of manufacture
