edid-decode (hex):

00 ff ff ff ff ff ff 00 22 f0 d6 12 9a 69 00 00
28 0c 01 03 81 1e 17 78 ea ef 27 99 58 4f 8f 27
23 50 56 a5 6e 00 31 40 45 40 61 40 01 01 01 01
01 01 01 01 01 01 64 19 00 40 41 00 26 30 18 88
36 00 30 e4 10 00 00 18 00 00 00 fc 00 46 35 30
0a 20 20 20 20 20 20 20 20 20 00 00 00 ff 00 43
4e 50 46 4e 32 37 30 33 34 0a 20 20 00 00 00 fd
00 38 4b 1f 3c 08 00 0a 20 20 20 20 20 20 00 8e

00 ff ff ff ff ff ff 00 22 f0 d6 12 9a 69 00 00
28 0c 01 03 81 1e 17 78 ea ef 27 99 58 4f 8f 27
23 50 56 a5 6e 00 31 40 45 40 61 40 01 01 01 01
01 01 01 01 01 01 64 19 00 40 41 00 26 30 18 88
36 00 30 e4 10 00 00 18 00 00 00 fc 00 46 35 30
0a 20 20 20 20 20 20 20 20 20 00 00 00 ff 00 43
4e 50 46 4e 32 37 30 33 34 0a 20 20 00 00 00 fd
00 38 4b 1f 3c 08 00 0a 20 20 20 20 20 20 00 8e

----------------

Block 0, Base EDID:
  EDID Structure Version & Revision: 1.3
  Vendor & Product Identification:
    Manufacturer: HWP
    Model: 4822
    Serial Number: ...
    Made in: week 40 of 2002
  Basic Display Parameters & Features:
    Digital display
    DFP 1.x compatible TMDS
    Maximum image size: 30 cm x 23 cm
    Gamma: 2.20
    DPMS levels: Standby Suspend Off
    RGB color display
    First detailed timing is the preferred timing
  Color Characteristics:
    Red  : 0.6005, 0.3457
    Green: 0.3115, 0.5615
    Blue : 0.1523, 0.1386
    White: 0.3134, 0.3388
  Established Timings I & II:
    IBM     :   720x400    70.081663 Hz   9:5     31.467 kHz     28.320000 MHz
    DMT 0x04:   640x480    59.940476 Hz   4:3     31.469 kHz     25.175000 MHz
    DMT 0x06:   640x480    75.000000 Hz   4:3     37.500 kHz     31.500000 MHz
    DMT 0x09:   800x600    60.316541 Hz   4:3     37.879 kHz     40.000000 MHz
    DMT 0x0b:   800x600    75.000000 Hz   4:3     46.875 kHz     49.500000 MHz
    Apple   :   832x624    74.551266 Hz   4:3     49.726 kHz     57.284000 MHz
    DMT 0x10:  1024x768    60.003840 Hz   4:3     48.363 kHz     65.000000 MHz
    DMT 0x11:  1024x768    70.069359 Hz   4:3     56.476 kHz     75.000000 MHz
    DMT 0x12:  1024x768    75.028582 Hz   4:3     60.023 kHz     78.750000 MHz
  Standard Timings:
    DMT 0x04:   640x480    59.940476 Hz   4:3     31.469 kHz     25.175000 MHz
    DMT 0x09:   800x600    60.316541 Hz   4:3     37.879 kHz     40.000000 MHz
    DMT 0x10:  1024x768    60.003840 Hz   4:3     48.363 kHz     65.000000 MHz
  Detailed Timing Descriptors:
    DTD 1:  1024x768    60.003840 Hz   4:3     48.363 kHz     65.000000 MHz (304 mm x 228 mm)
                 Hfront   24 Hsync 136 Hback  160 Hpol N
                 Vfront    3 Vsync   6 Vback   29 Vpol N
    Display Product Name: 'F50'
    Display Product Serial Number: ...
    Display Range Limits:
      Monitor ranges (GTF): 56-75 Hz V, 31-60 kHz H, max dotclock 80 MHz
Checksum: 0x8e

----------------

Block 1, Unknown EDID Extension Block 0x00:
  00 ff ff ff ff ff ff 00 22 f0 d6 12 9a 69 00 00 '........"....i..'
  28 0c 01 03 81 1e 17 78 ea ef 27 99 58 4f 8f 27 '(......x..'.XO.''
  23 50 56 a5 6e 00 31 40 45 40 61 40 01 01 01 01 '#PV.n.1@E@a@....'
  01 01 01 01 01 01 64 19 00 40 41 00 26 30 18 88 '......d..@A.&0..'
  36 00 30 e4 10 00 00 18 00 00 00 fc 00 46 35 30 '6.0..........F50'
  0a 20 20 20 20 20 20 20 20 20 00 00 00 ff 00 43 '.         .....C'
  4e 50 46 4e 32 37 30 33 34 0a 20 20 00 00 00 fd 'NPFN27034.  ....'
  00 38 4b 1f 3c 08 00 0a 20 20 20 20 20 20 00 8e '.8K.<...      ..'
Checksum: 0x8e

----------------

Failures:

Block 1, Base EDID:
  Unknown Extension Block.
EDID:
  Base EDID: EDID specified 0 extension block(s), but found 1 extension block(s).

EDID conformity: FAIL
