
EDID (hex):
00ffffffffffff0030ae100901000000
1e1a0104a5351e7822fcf0a554509f27
0f505400000001010101010101010101
010101010101023a801871382d40582c
45000f282100001e000000fd00393e0f
5014000a202020202020000000ff004c
544d323338484c30320a2020000000fc
004c454e2d4d3931307a2d420a2000dc

Extracted contents:
header:          00 ff ff ff ff ff ff 00
serial number:   30 ae 10 09 01 00 00 00 1e 1a
version:         01 04
basic params:    a5 35 1e 78 22
chroma info:     fc f0 a5 54 50 9f 27 0f 50 54
established:     00 00 00
standard:        01 01 01 01 01 01 01 01 01 01 01 01 01 01 01 01
descriptor 1:    02 3a 80 18 71 38 2d 40 58 2c 45 00 0f 28 21 00 00 1e
descriptor 2:    00 00 00 fd 00 39 3e 0f 50 14 00 0a 20 20 20 20 20 20
descriptor 3:    00 00 00 ff 00 4c 54 4d 32 33 38 48 4c 30 32 0a 20 20
descriptor 4:    00 00 00 fc 00 4c 45 4e 2d 4d 39 31 30 7a 2d 42 0a 20
extensions:      00
checksum:        dc

EDID version: 1.4
Manufacturer: LEN Model 910 Serial Number --
Made in week 30 of 2016
Digital display
8 bits per primary color channel
DisplayPort interface
Maximum image size: 53 cm x 30 cm
Gamma: 2.20
DPMS levels: Off
Supported color formats: RGB 4:4:4
First detailed timing includes the native pixel format and preferred refresh rate
Display x,y Chromaticity:
  Red:   0.6474, 0.3310
  Green: 0.3154, 0.6210
  Blue:  0.1552, 0.0615
  White: 0.3125, 0.3281
Established timings supported:
Standard timings supported:
Detailed mode: Clock 148.500 MHz, 527 mm x 296 mm
               1920 2008 2052 2200 hborder 0
               1080 1084 1089 1125 vborder 0
               +hsync +vsync 
               VertFreq: 60 Hz, HorFreq: 67500 Hz
Monitor ranges (GTF): 57-62Hz V, 15-80kHz H, max dotclock 200MHz
Serial number: --
Monitor name: LEN-M910z-B
Checksum: 0xdc (valid)


