edid-decode (hex):

00 ff ff ff ff ff ff 00 41 0c fa 08 3b 2c 00 00
04 1c 01 04 b5 5f 36 78 3a 58 3d a5 55 53 9c 25
0c 47 4a bf ef 00 d1 c0 b3 00 95 00 81 80 81 40
81 c0 01 01 01 01 4d d0 00 a0 f0 70 3e 80 30 20
35 00 b9 1f 32 00 00 1a 56 5e 00 a0 a0 a0 29 50
30 20 35 00 b9 1f 32 00 00 1e 00 00 00 fd 00 17
50 1e a0 3c 01 0a 20 20 20 20 20 20 00 00 00 fc
00 50 48 4c 20 42 44 4d 34 33 35 30 0a 20 01 30

02 03 26 f1 4b 01 03 05 14 04 13 1f 12 02 11 90
23 09 07 07 83 01 00 00 6d 03 0c 00 20 00 18 78
20 00 60 01 02 03 01 1d 00 72 51 d0 1e 20 6e 28
55 00 b9 1f 32 00 00 1e 8c 0a d0 8a 20 e0 2d 10
10 3e 96 00 b9 1f 32 00 00 18 8c 0a d0 90 20 40
31 20 0c 40 55 00 b9 1f 32 00 00 18 4d 6c 80 a0
70 70 3e 80 30 20 3a 00 b9 1f 32 00 00 1a 00 00
00 00 00 00 00 00 00 00 00 00 00 00 00 00 00 5d

00 ff ff ff ff ff ff 00 22 d2 01 aa 00 00 00 00
ff 1a 01 03 80 00 00 78 02 60 bc aa 55 40 b6 23
0c 4c 52 00 00 00 01 01 01 01 01 01 01 01 01 01
01 01 01 01 01 01 04 74 70 6a 80 b0 08 41 28 14
c2 04 7a 44 00 00 00 18 04 74 70 6a 80 b0 08 41
28 14 c2 04 7a 44 00 00 00 18 00 00 00 fc 00 48
54 43 2d 56 49 56 45 0a 20 20 20 20 00 00 00 fd
00 14 78 01 ff 1d 01 0a 20 20 20 20 20 20 01 de

02 03 15 40 42 01 02 23 09 07 01 83 01 00 00 65
03 0c 00 10 00 04 74 70 6a 80 b0 08 41 28 14 c2
04 c0 78 00 00 00 18 04 74 70 6a 80 b0 08 41 28
14 c2 04 c0 78 00 00 00 18 04 74 70 6a 80 b0 08
41 28 14 c2 04 c0 78 00 00 00 18 04 74 70 6a 80
b0 08 41 28 14 c2 04 c0 78 00 00 00 18 00 00 00
00 00 00 00 00 00 00 00 00 00 00 00 00 00 00 00
00 00 00 00 00 00 00 00 00 00 00 00 00 00 00 b1

----------------

Block 0, Base EDID:
  EDID Structure Version & Revision: 1.4
  Vendor & Product Identification:
    Manufacturer: PHL
    Model: 2298
    Serial Number: ...
    Made in: week 4 of 2018
  Basic Display Parameters & Features:
    Digital display
    Bits per primary color channel: 10
    DisplayPort interface
    Maximum image size: 95 cm x 54 cm
    Gamma: 2.20
    DPMS levels: Off
    Supported color formats: RGB 4:4:4, YCrCb 4:4:4, YCrCb 4:2:2
    First detailed timing includes the native pixel format and preferred refresh rate
  Color Characteristics:
    Red  : 0.6455, 0.3330
    Green: 0.3261, 0.6093
    Blue : 0.1445, 0.0498
    White: 0.2802, 0.2900
  Established Timings I & II:
    IBM     :   720x400    70.082 Hz   9:5    31.467 kHz  28.320 MHz
    DMT 0x04:   640x480    59.940 Hz   4:3    31.469 kHz  25.175 MHz
    Apple   :   640x480    66.667 Hz   4:3    35.000 kHz  30.240 MHz
    DMT 0x05:   640x480    72.809 Hz   4:3    37.861 kHz  31.500 MHz
    DMT 0x06:   640x480    75.000 Hz   4:3    37.500 kHz  31.500 MHz
    DMT 0x08:   800x600    56.250 Hz   4:3    35.156 kHz  36.000 MHz
    DMT 0x09:   800x600    60.317 Hz   4:3    37.879 kHz  40.000 MHz
    DMT 0x0a:   800x600    72.188 Hz   4:3    48.077 kHz  50.000 MHz
    DMT 0x0b:   800x600    75.000 Hz   4:3    46.875 kHz  49.500 MHz
    Apple   :   832x624    74.551 Hz   4:3    49.726 kHz  57.284 MHz
    DMT 0x10:  1024x768    60.004 Hz   4:3    48.363 kHz  65.000 MHz
    DMT 0x11:  1024x768    70.069 Hz   4:3    56.476 kHz  75.000 MHz
    DMT 0x12:  1024x768    75.029 Hz   4:3    60.023 kHz  78.750 MHz
    DMT 0x24:  1280x1024   75.025 Hz   5:4    79.976 kHz 135.000 MHz
  Standard Timings:
    DMT 0x52:  1920x1080   60.000 Hz  16:9    67.500 kHz 148.500 MHz
    DMT 0x3a:  1680x1050   59.954 Hz  16:10   65.290 kHz 146.250 MHz
    DMT 0x2f:  1440x900    59.887 Hz  16:10   55.935 kHz 106.500 MHz
    DMT 0x23:  1280x1024   60.020 Hz   5:4    63.981 kHz 108.000 MHz
    DMT 0x20:  1280x960    60.000 Hz   4:3    60.000 kHz 108.000 MHz
    DMT 0x55:  1280x720    60.000 Hz  16:9    45.000 kHz  74.250 MHz
  Detailed Timing Descriptors:
    DTD  1:  3840x2160   59.997 Hz  16:9   133.312 kHz 533.250 MHz (953 mm x 543 mm)
                  Hfront   48 Hsync  32 Hback  80 Hpol P
                  Vfront    3 Vsync   5 Vback  54 Vpol N
    DTD  2:  2560x1440   59.951 Hz  16:9    88.787 kHz 241.500 MHz (953 mm x 543 mm)
                  Hfront   48 Hsync  32 Hback  80 Hpol P
                  Vfront    3 Vsync   5 Vback  33 Vpol P
  Display Range Limits:
    Monitor ranges (Bare Limits): 23-80 Hz V, 30-160 kHz H, max dotclock 600 MHz
    Display Product Name: 'PHL BDM4350'
  Extension blocks: 1
Checksum: 0x30

----------------

Block 1, CTA-861 Extension Block:
  Revision: 3
  Underscans IT Video Formats by default
  Basic audio support
  Supports YCbCr 4:4:4
  Supports YCbCr 4:2:2
  Native detailed modes: 1
  Video Data Block:
    VIC   1:   640x480    59.940 Hz   4:3    31.469 kHz  25.175 MHz
    VIC   3:   720x480    59.940 Hz  16:9    31.469 kHz  27.000 MHz
    VIC   5:  1920x1080i  60.000 Hz  16:9    33.750 kHz  74.250 MHz
    VIC  20:  1920x1080i  50.000 Hz  16:9    28.125 kHz  74.250 MHz
    VIC   4:  1280x720    60.000 Hz  16:9    45.000 kHz  74.250 MHz
    VIC  19:  1280x720    50.000 Hz  16:9    37.500 kHz  74.250 MHz
    VIC  31:  1920x1080   50.000 Hz  16:9    56.250 kHz 148.500 MHz
    VIC  18:   720x576    50.000 Hz  16:9    31.250 kHz  27.000 MHz
    VIC   2:   720x480    59.940 Hz   4:3    31.469 kHz  27.000 MHz
    VIC  17:   720x576    50.000 Hz   4:3    31.250 kHz  27.000 MHz
    VIC  16:  1920x1080   60.000 Hz  16:9    67.500 kHz 148.500 MHz (native)
  Audio Data Block:
    Linear PCM:
      Max channels: 2
      Supported sample rates (kHz): 48 44.1 32
      Supported sample sizes (bits): 24 20 16
  Speaker Allocation Data Block:
    FL/FR - Front Left/Right
  Vendor-Specific Data Block (HDMI), OUI 00-0C-03:
    Source physical address: 2.0.0.0
    DC_30bit
    DC_Y444
    Maximum TMDS clock: 600 MHz
    Extended HDMI video details:
      HDMI VICs:
        HDMI VIC 1:  3840x2160   30.000 Hz  16:9    67.500 kHz 297.000 MHz
        HDMI VIC 2:  3840x2160   25.000 Hz  16:9    56.250 kHz 297.000 MHz
        HDMI VIC 3:  3840x2160   24.000 Hz  16:9    54.000 kHz 297.000 MHz
  Detailed Timing Descriptors:
    DTD  3:  1280x720    60.000 Hz  16:9    45.000 kHz  74.250 MHz (953 mm x 543 mm)
                  Hfront  110 Hsync  40 Hback 220 Hpol P
                  Vfront    5 Vsync   5 Vback  20 Vpol P
    DTD  4:   720x480    59.940 Hz   3:2    31.469 kHz  27.000 MHz (953 mm x 543 mm)
                  Hfront   16 Hsync  62 Hback  60 Hpol N
                  Vfront    9 Vsync   6 Vback  30 Vpol N
    DTD  5:   720x576    50.000 Hz   5:4    31.250 kHz  27.000 MHz (953 mm x 543 mm)
                  Hfront   12 Hsync  64 Hback  68 Hpol N
                  Vfront    5 Vsync   5 Vback  39 Vpol N
    DTD  6:  1920x2160   59.988 Hz   8:9   133.293 kHz 277.250 MHz (953 mm x 543 mm)
                  Hfront   48 Hsync  32 Hback  80 Hpol P
                  Vfront    3 Vsync  10 Vback  49 Vpol N
Checksum: 0x5d

----------------

Block 2, Unknown EDID Extension Block 0x00:
  00 ff ff ff ff ff ff 00 22 d2 01 aa 00 00 00 00 '........".......'
  ff 1a 01 03 80 00 00 78 02 60 bc aa 55 40 b6 23 '.......x.`..U@.#'
  0c 4c 52 00 00 00 01 01 01 01 01 01 01 01 01 01 '.LR.............'
  01 01 01 01 01 01 04 74 70 6a 80 b0 08 41 28 14 '.......tpj...A(.'
  c2 04 7a 44 00 00 00 18 04 74 70 6a 80 b0 08 41 '..zD.....tpj...A'
  28 14 c2 04 7a 44 00 00 00 18 00 00 00 fc 00 48 '(...zD.........H'
  54 43 2d 56 49 56 45 0a 20 20 20 20 00 00 00 fd 'TC-VIVE.    ....'
  00 14 78 01 ff 1d 01 0a 20 20 20 20 20 20 01 de '..x.....      ..'
Checksum: 0xde

----------------

Block 3, CTA-861 Extension Block:
  Revision: 3
  Basic audio support
  Native detailed modes: 0
  Video Data Block:
    VIC   1:   640x480    59.940 Hz   4:3    31.469 kHz  25.175 MHz
    VIC   2:   720x480    59.940 Hz   4:3    31.469 kHz  27.000 MHz
  Audio Data Block:
    Linear PCM:
      Max channels: 2
      Supported sample rates (kHz): 48 44.1 32
      Supported sample sizes (bits): 16
  Speaker Allocation Data Block:
    FL/FR - Front Left/Right
  Vendor-Specific Data Block (HDMI), OUI 00-0C-03:
    Source physical address: 1.0.0.0
  Detailed Timing Descriptors:
    DTD  7:  2160x1200   89.527 Hz   9:5   131.068 kHz 297.000 MHz (192 mm x 120 mm)
                  Hfront   40 Hsync  20 Hback  46 Hpol N
                  Vfront   28 Vsync   2 Vback 234 Vpol N
    DTD  8:  2160x1200   89.527 Hz   9:5   131.068 kHz 297.000 MHz (192 mm x 120 mm)
                  Hfront   40 Hsync  20 Hback  46 Hpol N
                  Vfront   28 Vsync   2 Vback 234 Vpol N
    DTD  9:  2160x1200   89.527 Hz   9:5   131.068 kHz 297.000 MHz (192 mm x 120 mm)
                  Hfront   40 Hsync  20 Hback  46 Hpol N
                  Vfront   28 Vsync   2 Vback 234 Vpol N
    DTD 10:  2160x1200   89.527 Hz   9:5   131.068 kHz 297.000 MHz (192 mm x 120 mm)
                  Hfront   40 Hsync  20 Hback  46 Hpol N
                  Vfront   28 Vsync   2 Vback 234 Vpol N
Checksum: 0xb1

----------------

Warnings:

Block 1, CTA-861 Extension Block:
  Missing VCDB, needed for Set Selectable RGB Quantization to avoid interop issues.
Block 3, CTA-861 Extension Block:
  IT Video Formats are overscanned by default, but normally this should be underscanned.
  Missing VCDB, needed for Set Selectable RGB Quantization to avoid interop issues.
EDID:
  Base EDID: Some timings are out of range of the Monitor Ranges:
    Vertical Freq: 24.000 - 89.527 Hz (Monitor: 23.000 - 80.000 Hz)
    Horizontal Freq: 28.125 - 133.312 kHz (Monitor: 30.000 - 160.000 kHz)

Failures:

Block 0, Base EDID:
  Base EDID: EDID specified 1 extension block(s), but found 3 extension block(s).
Block 1, CTA-861 Extension Block:
  Vendor-Specific Data Block (HDMI): HDMI VSDB Max TMDS rate is > 340.
  Vendor-Specific Data Block (HDMI): The HDMI Specification uses EDID 1.3, not 1.4.
  HDMI VIC Codes must have their CTA-861 VIC equivalents in the VSB.
Block 2, Base EDID:
  Unknown Extension Block.
Block 3, CTA-861 Extension Block:
  Byte 3 must be the same for all CTA-861 Extension Blocks.
  Video Data Block: Duplicate VIC 1.
  Video Data Block: Duplicate VIC 2.
  Vendor-Specific Data Block (HDMI): The HDMI Specification uses EDID 1.3, not 1.4.
  Detailed Timing Descriptor #7: Mismatch of image size 192x120 mm vs display size 950x540 mm.
  Detailed Timing Descriptor #8: Mismatch of image size 192x120 mm vs display size 950x540 mm.
  Detailed Timing Descriptor #9: Mismatch of image size 192x120 mm vs display size 950x540 mm.
  Detailed Timing Descriptor #10: Mismatch of image size 192x120 mm vs display size 950x540 mm.
  HDMI VIC Codes must have their CTA-861 VIC equivalents in the VSB.
EDID:
  CTA-861: Native progressive timings are a mix of several resolutions.

EDID conformity: FAIL
