
EDID (hex):
00ffffffffffff004eae87054d456201
040d01030c241db6ea4bc6a35a4a9723
164f54bfef00818081907186818f0101
010101010101302a009851002a403070
1300671f11000014000000fd00384b1e
510e000a202020202020000000fc0047
48313850530a202020202020000000ff
00303330344d45303335340a2020004c

Extracted contents:
header:          00 ff ff ff ff ff ff 00
serial number:   4e ae 87 05 4d 45 62 01 04 0d
version:         01 03
basic params:    0c 24 1d b6 ea
chroma info:     4b c6 a3 5a 4a 97 23 16 4f 54
established:     bf ef 00
standard:        81 80 81 90 71 86 81 8f 01 01 01 01 01 01 01 01
descriptor 1:    30 2a 00 98 51 00 2a 40 30 70 13 00 67 1f 11 00 00 14
descriptor 2:    00 00 00 fd 00 38 4b 1e 51 0e 00 0a 20 20 20 20 20 20
descriptor 3:    00 00 00 fc 00 47 48 31 38 50 53 0a 20 20 20 20 20 20
descriptor 4:    00 00 00 ff 00 30 33 30 34 4d 45 30 33 35 34 0a 20 20
extensions:      00
checksum:        4c

EDID version: 1.3
Manufacturer: SUN Model 587 Serial Number --
Analog display, Input voltage level: 0.7/0.3 V
Sync: Separate Composite 
Maximum image size: 36 cm x 29 cm
Gamma: 2.82
DPMS levels: Standby Suspend Off
RGB color display
First detailed timing is preferred timing
Display x,y Chromaticity:
  Red:   0.6376, 0.3515
  Green: 0.2910, 0.5927
  Blue:  0.1396, 0.0859
  White: 0.3095, 0.3300
Established timings supported:
  720x400@70Hz 9:5 HorFreq: 31469 Hz Clock: 28.320 MHz
  640x480@60Hz 4:3 HorFreq: 31469 Hz Clock: 25.175 MHz
  640x480@67Hz 4:3 HorFreq: 35000 Hz Clock: 30.240 MHz
  640x480@72Hz 4:3 HorFreq: 37900 Hz Clock: 31.500 MHz
  640x480@75Hz 4:3 HorFreq: 37500 Hz Clock: 31.500 MHz
  800x600@56Hz 4:3 HorFreq: 35200 Hz Clock: 36.000 MHz
  800x600@60Hz 4:3 HorFreq: 37900 Hz Clock: 40.000 MHz
  800x600@72Hz 4:3 HorFreq: 48100 Hz Clock: 50.000 MHz
  800x600@75Hz 4:3 HorFreq: 46900 Hz Clock: 49.500 MHz
  832x624@75Hz 4:3 HorFreq: 49726 Hz Clock: 57.284 MHz
  1024x768@60Hz 4:3 HorFreq: 48400 Hz Clock: 65.000 MHz
  1024x768@70Hz 4:3 HorFreq: 56500 Hz Clock: 75.000 MHz
  1024x768@75Hz 4:3 HorFreq: 60000 Hz Clock: 78.750 MHz
  1280x1024@75Hz 5:4 HorFreq: 80000 Hz Clock: 135.000 MHz
Standard timings supported:
  1280x1024@60Hz 5:4 HorFreq: 64000 Hz Clock: 108.000 MHz
  1280x1024@76Hz 5:4
  1152x921@66Hz 5:4
  1280x1024@75Hz 5:4 HorFreq: 80000 Hz Clock: 135.000 MHz
Detailed mode: Clock 108.000 MHz, 359 mm x 287 mm
               1280 1328 1440 1688 hborder 0
               1024 1025 1028 1066 vborder 0
               -hsync +vsync digital composite 
               VertFreq: 60 Hz, HorFreq: 63981 Hz
Monitor ranges (GTF): 56-75Hz V, 30-81kHz H, max dotclock 140MHz
Monitor name: GH18PS
Serial number: --
Checksum: 0x4c (valid)
One or more of the timings is out of range of the Monitor Ranges:
  Vertical Freq: 56 - 76 Hz
  Horizontal Freq: 31469 - 80000 Hz
  Maximum Clock: 135.000 MHz
EDID block does not conform at all!
	Bad year of manufacture
