edid-decode (hex):

00 ff ff ff ff ff ff 00 06 10 36 92 88 b4 be 02
1a 13 01 03 80 34 20 78 26 6e a1 a7 55 4c 9d 25
0e 50 54 00 00 00 d1 00 01 01 01 01 01 01 01 01
01 01 01 01 01 01 28 3c 80 a0 70 b0 23 40 30 20
36 00 06 44 21 00 00 1a 00 00 00 ff 00 32 41 39
32 36 33 33 58 30 4b 30 0a 20 00 00 00 fc 00 4c
45 44 20 43 69 6e 65 6d 61 0a 20 20 00 00 00 00
00 00 00 00 00 00 00 00 00 00 00 00 00 00 01 9e

40 01 08 00 65 03 0c 00 10 00 00 00 00 7e 24 01
a5 00 ff ff 03 1a 1a a8 01 00 00 00 00 00 40 00
00 00 00 00 00 00 00 00 00 00 00 00 00 00 00 00
00 00 00 00 00 00 00 00 00 00 00 00 00 00 00 00
00 00 00 00 00 00 00 00 00 00 00 00 00 00 00 00
00 00 00 00 00 00 00 00 00 00 00 00 00 00 00 00
00 00 00 00 00 00 00 00 00 00 00 00 00 00 00 00
00 00 00 00 00 00 00 00 00 00 00 00 00 00 00 cd

----------------

Block 0, Base EDID:
  EDID Structure Version & Revision: 1.3
  Vendor & Product Identification:
    Manufacturer: APP
    Model: 37430
    Serial Number: ...
    Made in: week 26 of 2009
  Basic Display Parameters & Features:
    Digital display
    Maximum image size: 52 cm x 32 cm
    Gamma: 2.20
    DPMS levels: Off
    Monochrome or grayscale display
    Default (sRGB) color space is primary color space
    First detailed timing is the preferred timing
  Color Characteristics:
    Red  : 0.6533, 0.3339
    Green: 0.2998, 0.6152
    Blue : 0.1464, 0.0566
    White: 0.3125, 0.3291
  Established Timings I & II: none
  Standard Timings:
    DMT 0x45:  1920x1200   59.884600 Hz  16:10    74.556 kHz    193.250000 MHz
  Detailed Timing Descriptors:
    DTD 1:  1920x1200   59.950171 Hz  16:10    74.038 kHz    154.000000 MHz (518 mm x 324 mm)
                 Hfront   48 Hsync  32 Hback   80 Hpol P
                 Vfront    3 Vsync   6 Vback   26 Vpol N
    Display Product Serial Number: ...
    Display Product Name: 'LED Cinema'
    Empty Descriptor
  Extension blocks: 1
Checksum: 0x9e

----------------

Block 1, Display Information Extension Block:
  Version: 1
  Digital Interface:
    Supported Digital Interface: Open LDI - Single Link
    Data Enable Signal Usage Not Available
    Edge of Shift Clock: Not specified
    HDCP is not supported
    Digital Receivers do not support Double Clocking of Input Data
    Packetized Digital Video is not supported
    Data Formats: Unknown (0x10)
    Crossover Frequency: 32256 MHz
  Display Device:
    Sub-Pixel Layout: Unknown (0x24)
    Sub-Pixel Configuration: Delta (Tri-ad)
    Sub-Pixel Shape: Unknown (0xa5)
    Vertical Dot/Pixel Pitch: 2.55 mm
    Display Device has a Fixed Pixel Format
    View Direction: Direct & Reflected
    Display Device uses transparent background
    Physical Implementation: Eyepiece type personal display
    Monitor/display does support DDC/CI
  Display Capabities & Feature Support Set:
    Legacy Modes: Not all VGA/DOS Legacy Timing Modes are supported
    Stereo Video: No direct stereo
    Scaler On Board: No
    Image Centering: No
    Conditional Update: Yes
    Interlaced Video: Yes
    Frame Lock: No
    Frame Rate Conversion: Not supported
    Vertical Frequency: 430.34 kHz
    Horizontal Frequency: 0.01 kHz
    Display/Scan Orientation Definition Type: Not defined
    Screen Orientation: Landscape
    Zero Pixel Location: Upper Left
    Scan Direction: Not defined
    Standalone Projector: No
    Default Color/Luminance Decoding: Not defined
    Preferred Color/Luminance Decoder: Uses Default Decoding
    Color/Luminance Decoding Capabilities: None
    Dithering: No
    Supported Color Bit-Depth of Sub-Channel 0 (Blue): No Information
    Supported Color Bit-Depth of Sub-Channel 1 (Green): No Information
    Supported Color Bit-Depth of Sub-Channel 2 (Red): No Information
    Supported Color Bit-Depth of Sub-Channel 0 (Cb/Pb): No Information
    Supported Color Bit-Depth of Sub-Channel 1 (Y): No Information
    Supported Color Bit-Depth of Sub-Channel 2 (Cr/Pr): No Information
    Aspect Ratio Conversion Modes: None
  Display Transfer Characteristics - Gamma:
    No Display Transfer Characteristics
Checksum: 0xcd

----------------

Failures:

Block 0, Base EDID:
  Basic Display Parameters & Features: sRGB is signaled, but the chromaticities do not match.
  Empty Descriptor: Use Dummy Descriptor instead of all zeroes.
  Missing Display Range Limits Descriptor.
Block 1, Display Information Extension Block:
  Digital Interface: Bytes 0x03-0x06 should be 0.
  Digital Interface: Unknown Data Format 0x10.
  Display Device: Unknown Sub-Pixel Layout 0x24.
  Display Device: Unknown Sub-Pixel Shape 0xa5.
  Display Device: Bit 0 of byte 0x13 should be 0.
  Display Capabities & Feature Support Set: Bits 4-0 of byte 0x15 should be 0.

EDID conformity: FAIL
