
EDID (hex):
00ffffffffffff0009e5b00500000000
01150104801f11780ab0909758549226
1d505400000001010101010101010101
0101010101014c1d56d4500018303020
360035ad1000001a221556b250006c30
3020360035ad1000001a000000fe0044
334d5235804842313432303000000000
00004101940000000001010a20200024

Extracted contents:
header:          00 ff ff ff ff ff ff 00
serial number:   09 e5 b0 05 00 00 00 00 01 15
version:         01 04
basic params:    80 1f 11 78 0a
chroma info:     b0 90 97 58 54 92 26 1d 50 54
established:     00 00 00
standard:        01 01 01 01 01 01 01 01 01 01 01 01 01 01 01 01
descriptor 1:    4c 1d 56 d4 50 00 18 30 30 20 36 00 35 ad 10 00 00 1a
descriptor 2:    22 15 56 b2 50 00 6c 30 30 20 36 00 35 ad 10 00 00 1a
descriptor 3:    00 00 00 fe 00 44 33 4d 52 35 80 48 42 31 34 32 30 30
descriptor 4:    00 00 00 00 00 00 41 01 94 00 00 00 00 01 01 0a 20 20
extensions:      00
checksum:        24

EDID version: 1.4
Manufacturer: BOE Model 5b0 Serial Number --
Made in week 1 of 2011
Digital display
Color depth is undefined
Digital interface is not defined
Maximum image size: 31 cm x 17 cm
Gamma: 2.20
Supported color formats: RGB 4:4:4, YCrCb 4:4:4
First detailed timing includes the native pixel format and preferred refresh rate
Display x,y Chromaticity:
  Red:   0.5917, 0.3466
  Green: 0.3281, 0.5703
  Blue:  0.1503, 0.1142
  White: 0.3125, 0.3281
Established timings supported:
Standard timings supported:
Detailed mode: Clock 75.000 MHz, 309 mm x 173 mm
               1366 1414 1446 1578 hborder 0
                768  771  777  792 vborder 0
               +hsync -vsync 
               VertFreq: 60 Hz, HorFreq: 47528 Hz
Detailed mode: Clock 54.100 MHz, 309 mm x 173 mm
               1366 1414 1446 1544 hborder 0
                768  771  777  876 vborder 0
               +hsync -vsync 
               VertFreq: 39 Hz, HorFreq: 35038 Hz
ASCII string: D3MR5
Manufacturer-specified data, tag 0
Checksum: 0x24 (valid)
EDID block does NOT conform to EDID 1.4!
	Missing name descriptor
	Missing monitor ranges
	Detailed block string not properly terminated
