
EDID (hex):
00ffffffffffff001ab38c0800000000
2b1c0103803420782a0495a9554d9d26
105054254b00b3009500818001010101
010101010101283c80a070b023403020
360006442100001a000000ff00595643
4d3030343236380a2020000000fc0050
32342d38205753204e656f0a000000fd
00304c1e5211000a2020202020200007

Extracted contents:
header:          00 ff ff ff ff ff ff 00
serial number:   1a b3 8c 08 00 00 00 00 2b 1c
version:         01 03
basic params:    80 34 20 78 2a
chroma info:     04 95 a9 55 4d 9d 26 10 50 54
established:     25 4b 00
standard:        b3 00 95 00 81 80 01 01 01 01 01 01 01 01 01 01
descriptor 1:    28 3c 80 a0 70 b0 23 40 30 20 36 00 06 44 21 00 00 1a
descriptor 2:    00 00 00 ff 00 59 56 43 4d 30 30 34 32 36 38 0a 20 20
descriptor 3:    00 00 00 fc 00 50 32 34 2d 38 20 57 53 20 4e 65 6f 0a
descriptor 4:    00 00 00 fd 00 30 4c 1e 52 11 00 0a 20 20 20 20 20 20
extensions:      00
checksum:        07

EDID version: 1.3
Manufacturer: FUS Model 88c Serial Number --
Made in week 43 of 2018
Digital display
Maximum image size: 52 cm x 32 cm
Gamma: 2.20
DPMS levels: Off
RGB color display
First detailed timing is preferred timing
Display x,y Chromaticity:
  Red:   0.6601, 0.3320
  Green: 0.3017, 0.6132
  Blue:  0.1503, 0.0634
  White: 0.3134, 0.3291
Established timings supported:
  640x480@60Hz 4:3 HorFreq: 31469 Hz Clock: 25.175 MHz
  640x480@75Hz 4:3 HorFreq: 37500 Hz Clock: 31.500 MHz
  800x600@60Hz 4:3 HorFreq: 37900 Hz Clock: 40.000 MHz
  800x600@75Hz 4:3 HorFreq: 46900 Hz Clock: 49.500 MHz
  1024x768@60Hz 4:3 HorFreq: 48400 Hz Clock: 65.000 MHz
  1024x768@75Hz 4:3 HorFreq: 60000 Hz Clock: 78.750 MHz
  1280x1024@75Hz 5:4 HorFreq: 80000 Hz Clock: 135.000 MHz
Standard timings supported:
  1680x1050@60Hz 16:10 HorFreq: 64700 Hz Clock: 119.000 MHz
  1440x900@60Hz 16:10 HorFreq: 55500 Hz Clock: 88.750 MHz
  1280x1024@60Hz 5:4 HorFreq: 64000 Hz Clock: 108.000 MHz
Detailed mode: Clock 154.000 MHz, 518 mm x 324 mm
               1920 1968 2000 2080 hborder 0
               1200 1203 1209 1235 vborder 0
               +hsync -vsync 
               VertFreq: 59 Hz, HorFreq: 74038 Hz
Serial number: --
Monitor name: P24-8 WS Neo
Monitor ranges (GTF): 48-76Hz V, 30-82kHz H, max dotclock 170MHz
Checksum: 0x7 (valid)
