edid-decode (hex):

00 ff ff ff ff ff ff 00 5a 63 43 52 01 01 01 01
09 23 01 04 a5 22 13 78 3f 20 f5 98 58 59 93 28
1e 50 54 01 08 00 b3 00 01 01 a9 c0 95 00 90 40
81 80 81 40 81 c0 c0 39 80 18 71 38 28 40 58 2c
45 00 58 c2 10 00 00 1e 00 00 00 ff 00 59 32 52
32 35 30 39 30 31 32 33 30 0a 00 00 00 fd 00 3a
3e 18 52 11 01 0a 20 20 20 20 20 20 00 00 00 fc
00 56 41 31 36 35 33 2d 46 48 44 0a 20 20 01 be

02 03 15 f1 45 04 05 90 01 03 23 09 7f 07 83 01
00 00 e2 00 e7 02 3a 80 18 71 38 2d 40 58 2c 45
00 58 c2 10 00 00 1e d0 26 40 a0 60 84 29 30 30
20 33 00 58 c2 10 00 00 1e 01 1d 00 72 51 d0 1e
20 6e 28 55 00 58 c2 10 00 00 1e 60 09 80 a0 20
e0 14 10 30 20 35 00 58 c2 10 00 00 1e 50 0a d0
a0 20 e0 14 10 30 20 35 00 58 c2 10 00 00 18 00
00 00 00 00 00 00 00 00 00 00 00 00 00 00 00 ea

00 ff ff ff ff ff ff 00 5a 63 43 52 01 01 01 01
09 23 01 04 a5 22 13 78 3f 20 f5 98 58 59 93 28
1e 50 54 01 08 00 b3 00 01 01 a9 c0 95 00 90 40
81 80 81 40 81 c0 c0 39 80 18 71 38 28 40 58 2c
45 00 58 c2 10 00 00 1e 00 00 00 ff 00 59 32 52
32 35 30 39 30 31 32 33 30 0a 00 00 00 fd 00 3a
3e 18 52 11 01 0a 20 20 20 20 20 20 00 00 00 fc
00 56 41 31 36 35 33 2d 46 48 44 0a 20 20 01 be

02 03 15 f1 45 04 05 90 01 03 23 09 7f 07 83 01
00 00 e2 00 e7 02 3a 80 18 71 38 2d 40 58 2c 45
00 58 c2 10 00 00 1e d0 26 40 a0 60 84 29 30 30
20 33 00 58 c2 10 00 00 1e 01 1d 00 72 51 d0 1e
20 6e 28 55 00 58 c2 10 00 00 1e 60 09 80 a0 20
e0 14 10 30 20 35 00 58 c2 10 00 00 1e 50 0a d0
a0 20 e0 14 10 30 20 35 00 58 c2 10 00 00 18 00
00 00 00 00 00 00 00 00 00 00 00 00 00 00 00 ea

----------------

Block 0, Base EDID:
  EDID Structure Version & Revision: 1.4
  Vendor & Product Identification:
    Manufacturer: VSC
    Model: 21059
    Serial Number: ...
    Made in: week 9 of 2025
  Basic Display Parameters & Features:
    Digital display
    Bits per primary color channel: 8
    DisplayPort interface
    Maximum image size: 34 cm x 19 cm
    Gamma: 2.20
    DPMS levels: Off
    Supported color formats: RGB 4:4:4, YCrCb 4:4:4, YCrCb 4:2:2
    Default (sRGB) color space is primary color space
    First detailed timing includes the native pixel format and preferred refresh rate
    Display is continuous frequency
  Color Characteristics:
    Red  : 0.5937, 0.3457
    Green: 0.3476, 0.5742
    Blue : 0.1591, 0.1201
    White: 0.3134, 0.3291
  Established Timings I & II:
    DMT 0x09:   800x600    60.316541 Hz   4:3     37.879 kHz     40.000000 MHz
    DMT 0x10:  1024x768    60.003840 Hz   4:3     48.363 kHz     65.000000 MHz
  Standard Timings:
    DMT 0x3a:  1680x1050   59.954250 Hz  16:10    65.290 kHz    146.250000 MHz
    DMT 0x53:  1600x900    60.000000 Hz  16:9     60.000 kHz    108.000000 MHz (RB)
    DMT 0x2f:  1440x900    59.887445 Hz  16:10    55.935 kHz    106.500000 MHz
    DMT 0x2a:  1400x1050   59.978442 Hz   4:3     65.317 kHz    121.750000 MHz
    DMT 0x23:  1280x1024   60.019740 Hz   5:4     63.981 kHz    108.000000 MHz
    DMT 0x20:  1280x960    60.000000 Hz   4:3     60.000 kHz    108.000000 MHz
    DMT 0x55:  1280x720    60.000000 Hz  16:9     45.000 kHz     74.250000 MHz
  Detailed Timing Descriptors:
    DTD  1:  1920x1080   60.000000 Hz  16:9     67.200 kHz    147.840000 MHz (344 mm x 194 mm)
                  Hfront   88 Hsync  44 Hback  148 Hpol P
                  Vfront    4 Vsync   5 Vback   31 Vpol P
    Display Product Serial Number: ...
    Display Range Limits:
      Monitor ranges (Bare Limits): 58-62 Hz V, 24-82 kHz H, max dotclock 170 MHz
    Display Product Name: 'VA1653-FHD'
  Extension blocks: 1
Checksum: 0xbe

----------------

Block 1, CTA-861 Extension Block:
  Revision: 3
  Underscans IT Video Formats by default
  Basic audio support
  Supports YCbCr 4:4:4
  Supports YCbCr 4:2:2
  Native detailed modes: 1
  Video Data Block:
    VIC   4:  1280x720    60.000000 Hz  16:9     45.000 kHz     74.250000 MHz
    VIC   5:  1920x1080i  60.000000 Hz  16:9     33.750 kHz     74.250000 MHz
    VIC  16:  1920x1080   60.000000 Hz  16:9     67.500 kHz    148.500000 MHz (native)
    VIC   1:   640x480    59.940476 Hz   4:3     31.469 kHz     25.175000 MHz
    VIC   3:   720x480    59.940060 Hz  16:9     31.469 kHz     27.000000 MHz
  Audio Data Block:
    Linear PCM:
      Max channels: 2
      Supported sample rates (kHz): 192 176.4 96 88.2 48 44.1 32
      Supported sample sizes (bits): 24 20 16
  Speaker Allocation Data Block:
    FL/FR - Front Left/Right
  Video Capability Data Block:
    YCbCr quantization: Selectable (via AVI YQ)
    RGB quantization: Selectable (via AVI Q)
    PT scan behavior: Always Underscanned
    IT scan behavior: Always Overscanned
    CE scan behavior: Supports both over- and underscan
  Detailed Timing Descriptors:
    DTD  2:  1920x1080   60.000000 Hz  16:9     67.500 kHz    148.500000 MHz (344 mm x 194 mm)
                  Hfront   88 Hsync  44 Hback  148 Hpol P
                  Vfront    4 Vsync   5 Vback   36 Vpol P
    DTD  3:  1600x900    59.994203 Hz  16:9     56.455 kHz     99.360000 MHz (344 mm x 194 mm)
                  Hfront   48 Hsync  32 Hback   80 Hpol P
                  Vfront    3 Vsync   3 Vback   35 Vpol P
    DTD  4:  1280x720    60.000000 Hz  16:9     45.000 kHz     74.250000 MHz (344 mm x 194 mm)
                  Hfront  110 Hsync  40 Hback  220 Hpol P
                  Vfront    5 Vsync   5 Vback   20 Vpol P
    DTD  5:   640x480    60.000000 Hz   4:3     30.000 kHz     24.000000 MHz (344 mm x 194 mm)
                  Hfront   48 Hsync  32 Hback   80 Hpol P
                  Vfront    3 Vsync   5 Vback   12 Vpol P
    DTD  6:   720x480    60.000000 Hz   3:2     30.000 kHz     26.400000 MHz (344 mm x 194 mm)
                  Hfront   48 Hsync  32 Hback   80 Hpol N
                  Vfront    3 Vsync   5 Vback   12 Vpol N
Checksum: 0xea  Unused space in Extension Block: 16 bytes

----------------

Block 2, Unknown EDID Extension Block 0x00:
  00 ff ff ff ff ff ff 00 5a 63 43 52 01 01 01 01 '........ZcCR....'
  09 23 01 04 a5 22 13 78 3f 20 f5 98 58 59 93 28 '.#...".x? ..XY.('
  1e 50 54 01 08 00 b3 00 01 01 a9 c0 95 00 90 40 '.PT............@'
  81 80 81 40 81 c0 c0 39 80 18 71 38 28 40 58 2c '...@...9..q8(@X,'
  45 00 58 c2 10 00 00 1e 00 00 00 ff 00 59 32 52 'E.X..........Y2R'
  32 35 30 39 30 31 32 33 30 0a 00 00 00 fd 00 3a '250901230......:'
  3e 18 52 11 01 0a 20 20 20 20 20 20 00 00 00 fc '>.R...      ....'
  00 56 41 31 36 35 33 2d 46 48 44 0a 20 20 01 be '.VA1653-FHD.  ..'
Checksum: 0xbe

----------------

Block 3, CTA-861 Extension Block:
  Revision: 3
  Underscans IT Video Formats by default
  Basic audio support
  Supports YCbCr 4:4:4
  Supports YCbCr 4:2:2
  Native detailed modes: 1
  Video Data Block:
    VIC   4:  1280x720    60.000000 Hz  16:9     45.000 kHz     74.250000 MHz
    VIC   5:  1920x1080i  60.000000 Hz  16:9     33.750 kHz     74.250000 MHz
    VIC  16:  1920x1080   60.000000 Hz  16:9     67.500 kHz    148.500000 MHz (native)
    VIC   1:   640x480    59.940476 Hz   4:3     31.469 kHz     25.175000 MHz
    VIC   3:   720x480    59.940060 Hz  16:9     31.469 kHz     27.000000 MHz
  Audio Data Block:
    Linear PCM:
      Max channels: 2
      Supported sample rates (kHz): 192 176.4 96 88.2 48 44.1 32
      Supported sample sizes (bits): 24 20 16
  Speaker Allocation Data Block:
    FL/FR - Front Left/Right
  Video Capability Data Block:
    YCbCr quantization: Selectable (via AVI YQ)
    RGB quantization: Selectable (via AVI Q)
    PT scan behavior: Always Underscanned
    IT scan behavior: Always Overscanned
    CE scan behavior: Supports both over- and underscan
  Detailed Timing Descriptors:
    DTD  7:  1920x1080   60.000000 Hz  16:9     67.500 kHz    148.500000 MHz (344 mm x 194 mm)
                  Hfront   88 Hsync  44 Hback  148 Hpol P
                  Vfront    4 Vsync   5 Vback   36 Vpol P
    DTD  8:  1600x900    59.994203 Hz  16:9     56.455 kHz     99.360000 MHz (344 mm x 194 mm)
                  Hfront   48 Hsync  32 Hback   80 Hpol P
                  Vfront    3 Vsync   3 Vback   35 Vpol P
    DTD  9:  1280x720    60.000000 Hz  16:9     45.000 kHz     74.250000 MHz (344 mm x 194 mm)
                  Hfront  110 Hsync  40 Hback  220 Hpol P
                  Vfront    5 Vsync   5 Vback   20 Vpol P
    DTD 10:   640x480    60.000000 Hz   4:3     30.000 kHz     24.000000 MHz (344 mm x 194 mm)
                  Hfront   48 Hsync  32 Hback   80 Hpol P
                  Vfront    3 Vsync   5 Vback   12 Vpol P
    DTD 11:   720x480    60.000000 Hz   3:2     30.000 kHz     26.400000 MHz (344 mm x 194 mm)
                  Hfront   48 Hsync  32 Hback   80 Hpol N
                  Vfront    3 Vsync   5 Vback   12 Vpol N
Checksum: 0xea  Unused space in Extension Block: 16 bytes

----------------

Warnings:

Block 1, CTA-861 Extension Block:
  Video Capability Data Block: IT scan behavior is expected to support underscanned.
  Display Product Serial Number is set, so the Serial Number in the Base EDID should be 0.
Block 3, CTA-861 Extension Block:
  Video Capability Data Block: IT scan behavior is expected to support underscanned.
  Display Product Serial Number is set, so the Serial Number in the Base EDID should be 0.
EDID:
  CTA-861: Multiple native progressive timings are defined.

Failures:

Block 0, Base EDID:
  Basic Display Parameters & Features: sRGB is signaled, but the chromaticities do not match.
Block 1, CTA-861 Extension Block:
  Video Capability Data Block: IT video formats are always overscanned, but bit 7 of Byte 3 of the CTA-861 Extension header is set to underscanned.
Block 2, Base EDID:
  Unknown Extension Block.
Block 3, CTA-861 Extension Block:
  Video Data Block: Duplicate VIC 4.
  Video Data Block: Duplicate VIC 5.
  Video Data Block: Duplicate VIC 16.
  Video Data Block: Duplicate VIC 1.
  Video Data Block: Duplicate VIC 3.
  Speaker Allocation Data Block: Only one instance of this Data Block is allowed.
  Video Capability Data Block: Only one instance of this Data Block is allowed.
  Video Capability Data Block: IT video formats are always overscanned, but bit 7 of Byte 3 of the CTA-861 Extension header is set to underscanned.
EDID:
  Base EDID: EDID specified 1 extension block(s), but found 3 extension block(s).

EDID conformity: FAIL
