edid-decode (hex):

00 ff ff ff ff ff ff 00 06 10 3d a0 00 00 00 00
10 1b 01 04 b5 1d 12 78 02 0f a1 ae 52 43 b0 26
0d 50 54 00 00 00 01 01 01 01 01 01 01 01 01 01
01 01 01 01 01 01 d9 65 00 50 a0 40 2e 60 08 20
08 08 1e b3 10 00 00 1a 00 00 00 fc 00 43 6f 6c
6f 72 20 4c 43 44 0a 20 20 20 00 00 00 10 00 00
00 00 00 00 00 00 00 00 00 00 00 00 00 00 00 10
00 00 00 00 00 00 00 00 00 00 00 00 00 00 01 53

70 12 79 03 00 7f 81 3f fa 10 00 03 01 18 0f 28
17 00 00 00 00 00 00 00 00 00 00 00 00 00 00 00
00 00 00 00 00 00 00 00 00 00 00 00 00 00 00 00
46 4d 58 39 30 38 33 30 46 45 52 4a 34 36 33 41
4c 0a 20 20 20 20 20 7f 81 29 fa 10 00 02 01 00
11 00 00 02 90 03 34 04 19 05 50 06 f9 09 3e 0c
59 10 9d 16 81 1e a8 29 fe 39 ce 4f f1 6f 09 9a
d8 d8 57 00 00 00 00 00 00 00 00 00 00 00 17 90

----------------

Block 0, Base EDID:
  EDID Structure Version & Revision: 1.4
  Vendor & Product Identification:
    Manufacturer: APP
    Model: 41021
    Made in: week 16 of 2017
  Basic Display Parameters & Features:
    Digital display
    Bits per primary color channel: 10
    DisplayPort interface
    Maximum image size: 29 cm x 18 cm
    Gamma: 2.20
    Supported color formats: RGB 4:4:4
    First detailed timing includes the native pixel format and preferred refresh rate
  Color Characteristics:
    Red  : 0.6796, 0.3203
    Green: 0.2646, 0.6904
    Blue : 0.1503, 0.0527
    White: 0.3125, 0.3291
  Established Timings I & II: none
  Standard Timings: none
  Detailed Timing Descriptors:
    DTD 1:  2560x1600   60.001 Hz   8:5    98.761 kHz 260.730 MHz (286 mm x 179 mm)
                 Hfront    8 Hsync  32 Hback  40 Hpol P
                 Vfront   32 Vsync   8 Vback   6 Vpol N
    Display Product Name: 'Color LCD'
    Dummy Descriptor:
    Dummy Descriptor:
  Extension blocks: 1
Checksum: 0x53

----------------

Block 1, DisplayID Extension Block:
  Version: 1.2
  Extension Count: 0
  Display Product Type: Standalone display device
  Vendor-Specific Data Block (Apple):
    fa 10 00 03 01 18 0f 28 17 00 00 00 00 00 00 00 '.......(........'
    00 00 00 00 00 00 00 00 00 00 00 00 00 00 00 00 '................'
    00 00 00 00 00 00 00 00 46 4d 58 39 30 38 33 30 '........FMX90830'
    46 45 52 4a 34 36 33 41 4c 0a 20 20 20 20 20    'FERJ463AL.     '
  Vendor-Specific Data Block (Apple):
    fa 10 00 02 01 00 11 00 00 02 90 03 34 04 19 05 '............4...'
    50 06 f9 09 3e 0c 59 10 9d 16 81 1e a8 29 fe 39 'P...>.Y......).9'
    ce 4f f1 6f 09 9a d8 d8 57                      '.O.o....W'
  Checksum: 0x17
Checksum: 0x90

----------------

Failures:

Block 1, DisplayID Extension Block:
  Vendor-Specific Data Block (Apple): OUI FA-10-00 is in the wrong byte order
  Vendor-Specific Data Block (Apple): OUI FA-10-00 is in the wrong byte order

EDID conformity: FAIL
