
EDID (hex):
00ffffffffffff000e119513d4010201
300b010381241d78ea8360a657489f24
154c4fbdef8081808199615945593159
010101010101302a009851002a403070
130068221100001e000000fd003a5520
5b10000a2020202020200000000d0002
012e03e202a80abf006b0233000000fc
0043505120544654383033300a200027

Extracted contents:
header:          00 ff ff ff ff ff ff 00
serial number:   0e 11 95 13 d4 01 02 01 30 0b
version:         01 03
basic params:    81 24 1d 78 ea
chroma info:     83 60 a6 57 48 9f 24 15 4c 4f
established:     bd ef 80
standard:        81 80 81 99 61 59 45 59 31 59 01 01 01 01 01 01
descriptor 1:    30 2a 00 98 51 00 2a 40 30 70 13 00 68 22 11 00 00 1e
descriptor 2:    00 00 00 fd 00 3a 55 20 5b 10 00 0a 20 20 20 20 20 20
descriptor 3:    00 00 00 0d 00 02 01 2e 03 e2 02 a8 0a bf 00 6b 02 33
descriptor 4:    00 00 00 fc 00 43 50 51 20 54 46 54 38 30 33 30 0a 20
extensions:      00
checksum:        27

EDID version: 1.3
Manufacturer: CPQ Model 1395 Serial Number --
Digital display
DFP 1.x compatible TMDS
Maximum image size: 36 cm x 29 cm
Gamma: 2.20
DPMS levels: Standby Suspend Off
RGB color display
First detailed timing is preferred timing
Display x,y Chromaticity:
  Red:   0.6503, 0.3398
  Green: 0.2812, 0.6240
  Blue:  0.1416, 0.0839
  White: 0.2968, 0.3085
Established timings supported:
  720x400@70Hz 9:5 HorFreq: 31469 Hz Clock: 28.320 MHz
  640x480@60Hz 4:3 HorFreq: 31469 Hz Clock: 25.175 MHz
  640x480@67Hz 4:3 HorFreq: 35000 Hz Clock: 30.240 MHz
  640x480@72Hz 4:3 HorFreq: 37900 Hz Clock: 31.500 MHz
  640x480@75Hz 4:3 HorFreq: 37500 Hz Clock: 31.500 MHz
  800x600@60Hz 4:3 HorFreq: 37900 Hz Clock: 40.000 MHz
  800x600@72Hz 4:3 HorFreq: 48100 Hz Clock: 50.000 MHz
  800x600@75Hz 4:3 HorFreq: 46900 Hz Clock: 49.500 MHz
  832x624@75Hz 4:3 HorFreq: 49726 Hz Clock: 57.284 MHz
  1024x768@60Hz 4:3 HorFreq: 48400 Hz Clock: 65.000 MHz
  1024x768@70Hz 4:3 HorFreq: 56500 Hz Clock: 75.000 MHz
  1024x768@75Hz 4:3 HorFreq: 60000 Hz Clock: 78.750 MHz
  1280x1024@75Hz 5:4 HorFreq: 80000 Hz Clock: 135.000 MHz
  1152x870@75Hz 192:145 HorFreq: 67500 Hz Clock: 108.000 MHz
Standard timings supported:
  1280x1024@60Hz 5:4 HorFreq: 64000 Hz Clock: 108.000 MHz
  1280x1024@85Hz 5:4 HorFreq: 91100 Hz Clock: 157.500 MHz
  1024x768@85Hz 4:3 HorFreq: 68700 Hz Clock: 94.500 MHz
  800x600@85Hz 4:3 HorFreq: 53700 Hz Clock: 56.250 MHz
  640x480@85Hz 4:3 HorFreq: 43300 Hz Clock: 36.000 MHz
Detailed mode: Clock 108.000 MHz, 360 mm x 290 mm
               1280 1328 1440 1688 hborder 0
               1024 1025 1028 1066 vborder 0
               +hsync +vsync 
               VertFreq: 60 Hz, HorFreq: 63981 Hz
Monitor ranges (GTF): 58-85Hz V, 32-91kHz H, max dotclock 160MHz
Manufacturer-specified data, tag 13
Monitor name: CPQ TFT8030
Checksum: 0x27 (valid)
One or more of the timings is out of range of the Monitor Ranges:
  Vertical Freq: 60 - 85 Hz
  Horizontal Freq: 31469 - 91100 Hz
  Maximum Clock: 157.500 MHz
EDID block does not conform at all!
	Bad year of manufacture
