
EDID (hex):
00ffffffffffff0026cfdf8c00000000
001f0104a51f11780b24109759548e27
1e505400000001010101010101010101
010101010101383680a0703820401830
3c0035ae10000019222480a070382040
18303c0035ae10000019000000000000
00000000000000000000000000000002
000f3dff0f3c7d0c13187d000000003e

Extracted contents:
header:          00 ff ff ff ff ff ff 00
serial number:   26 cf df 8c 00 00 00 00 00 1f
version:         01 04
basic params:    a5 1f 11 78 0b
chroma info:     24 10 97 59 54 8e 27 1e 50 54
established:     00 00 00
standard:        01 01 01 01 01 01 01 01 01 01 01 01 01 01 01 01
descriptor 1:    38 36 80 a0 70 38 20 40 18 30 3c 00 35 ae 10 00 00 19
descriptor 2:    22 24 80 a0 70 38 20 40 18 30 3c 00 35 ae 10 00 00 19
descriptor 3:    00 00 00 00 00 00 00 00 00 00 00 00 00 00 00 00 00 00
descriptor 4:    00 00 00 02 00 0f 3d ff 0f 3c 7d 0c 13 18 7d 00 00 00
extensions:      00
checksum:        3e

EDID version: 1.4
Manufacturer: IVO Model 8cdf Serial Number --
Made in year 2021
Digital display
8 bits per primary color channel
DisplayPort interface
Maximum image size: 31 cm x 17 cm
Gamma: 2.20
Supported color formats: RGB 4:4:4, YCrCb 4:4:4
First detailed timing includes the native pixel format and preferred refresh rate
Display is continuous frequency
Display x,y Chromaticity:
  Red:   0.5898, 0.3496
  Green: 0.3291, 0.5546
  Blue:  0.1523, 0.1181
  White: 0.3125, 0.3281
Established timings supported:
Standard timings supported:
Detailed mode: Clock 138.800 MHz, 309 mm x 174 mm
               1920 1944 1992 2080 hborder 0
               1080 1083 1095 1112 vborder 0
               -hsync -vsync 
               VertFreq: 60 Hz, HorFreq: 66730 Hz
Detailed mode: Clock 92.500 MHz, 309 mm x 174 mm
               1920 1944 1992 2080 hborder 0
               1080 1083 1095 1112 vborder 0
               -hsync -vsync 
               VertFreq: 39 Hz, HorFreq: 44471 Hz
Manufacturer-specified data, tag 0
Manufacturer-specified data, tag 2
Checksum: 0x3e (valid)
EDID block does NOT conform to EDID 1.4!
	Missing name descriptor
	Missing monitor ranges
