edid-decode (hex):

00 ff ff ff ff ff ff 00 06 10 33 a0 00 00 00 00
25 19 01 04 b5 1d 12 78 02 07 d1 ae 52 41 b3 26
0d 50 54 00 00 00 01 01 01 01 01 01 01 01 01 01
01 01 01 01 01 01 d9 65 00 50 a0 40 2e 60 08 20
08 08 1e b3 10 00 00 1a 7c 80 40 50 b0 08 34 70
08 20 68 08 1e b3 10 00 00 1a 00 00 00 fc 00 43
6f 6c 6f 72 20 4c 43 44 0a 20 20 20 00 00 00 10
00 00 00 00 00 00 00 00 00 00 00 00 00 00 00 b7

00 ff ff ff ff ff ff 00 06 10 33 a0 00 00 00 00
25 19 01 04 b5 1d 12 78 02 07 d1 ae 52 41 b3 26
0d 50 54 00 00 00 01 01 01 01 01 01 01 01 01 01
01 01 01 01 01 01 d9 65 00 50 a0 40 2e 60 08 20
08 08 1e b3 10 00 00 1a 7c 80 40 50 b0 08 34 70
08 20 68 08 1e b3 10 00 00 1a 00 00 00 fc 00 43
6f 6c 6f 72 20 4c 43 44 0a 20 20 20 00 00 00 10
00 00 00 00 00 00 00 00 00 00 00 00 00 00 00 b7

----------------

Block 0, Base EDID:
  EDID Structure Version & Revision: 1.4
  Vendor & Product Identification:
    Manufacturer: APP
    Model: 41011
    Made in: week 37 of 2015
  Basic Display Parameters & Features:
    Digital display
    Bits per primary color channel: 10
    DisplayPort interface
    Maximum image size: 29 cm x 18 cm
    Gamma: 2.20
    Supported color formats: RGB 4:4:4
    First detailed timing includes the native pixel format and preferred refresh rate
  Color Characteristics:
    Red  : 0.6796, 0.3203
    Green: 0.2548, 0.7021
    Blue : 0.1513, 0.0517
    White: 0.3125, 0.3291
  Established Timings I & II: none
  Standard Timings: none
  Detailed Timing Descriptors:
    DTD 1:  2560x1600   60.000828 Hz  16:10    98.761 kHz    260.730000 MHz (286 mm x 179 mm)
                 Hfront    8 Hsync  32 Hback   40 Hpol P
                 Vfront   32 Vsync   8 Vback    6 Vpol N
    DTD 2:  2880x1800   60.000876 Hz  16:10   111.122 kHz    328.920000 MHz (286 mm x 179 mm)
                 Hfront    8 Hsync  32 Hback   40 Hpol P
                 Vfront   38 Vsync   8 Vback    6 Vpol N
    Display Product Name: 'Color LCD'
    Dummy Descriptor:
Checksum: 0xb7

----------------

Block 1, Unknown EDID Extension Block 0x00:
  00 ff ff ff ff ff ff 00 06 10 33 a0 00 00 00 00 '..........3.....'
  25 19 01 04 b5 1d 12 78 02 07 d1 ae 52 41 b3 26 '%......x....RA.&'
  0d 50 54 00 00 00 01 01 01 01 01 01 01 01 01 01 '.PT.............'
  01 01 01 01 01 01 d9 65 00 50 a0 40 2e 60 08 20 '.......e.P.@.`. '
  08 08 1e b3 10 00 00 1a 7c 80 40 50 b0 08 34 70 '........|.@P..4p'
  08 20 68 08 1e b3 10 00 00 1a 00 00 00 fc 00 43 '. h............C'
  6f 6c 6f 72 20 4c 43 44 0a 20 20 20 00 00 00 10 'olor LCD.   ....'
  00 00 00 00 00 00 00 00 00 00 00 00 00 00 00 b7 '................'
Checksum: 0xb7

----------------

Failures:

Block 1, Base EDID:
  Unknown Extension Block.
EDID:
  Base EDID: EDID specified 0 extension block(s), but found 1 extension block(s).

EDID conformity: FAIL
