
EDID (hex):
00ffffffffffff004ca3423100000000
00140103802013780aca45955b59942a
20505400000001010101010101010101
010101010101121b566c500010302016
240035ae100000190000000f00000000
00000000002ac0062900000000fe0053
414d53554e470a2020202020000000fe
00313430415432302d5330310a200005

Extracted contents:
header:          00 ff ff ff ff ff ff 00
serial number:   4c a3 42 31 00 00 00 00 00 14
version:         01 03
basic params:    80 20 13 78 0a
chroma info:     ca 45 95 5b 59 94 2a 20 50 54
established:     00 00 00
standard:        01 01 01 01 01 01 01 01 01 01 01 01 01 01 01 01
descriptor 1:    12 1b 56 6c 50 00 10 30 20 16 24 00 35 ae 10 00 00 19
descriptor 2:    00 00 00 0f 00 00 00 00 00 00 00 00 00 2a c0 06 29 00
descriptor 3:    00 00 00 fe 00 53 41 4d 53 55 4e 47 0a 20 20 20 20 20
descriptor 4:    00 00 00 fe 00 31 34 30 41 54 32 30 2d 53 30 31 0a 20
extensions:      00
checksum:        05

EDID version: 1.3
Manufacturer: SEC Model 3142 Serial Number --
Made in year 2010
Digital display
Maximum image size: 32 cm x 19 cm
Gamma: 2.20
RGB color display
First detailed timing is preferred timing
Display x,y Chromaticity:
  Red:   0.5849, 0.3554
  Green: 0.3496, 0.5800
  Blue:  0.1650, 0.1250
  White: 0.3134, 0.3291
Established timings supported:
Standard timings supported:
Detailed mode: Clock 69.300 MHz, 309 mm x 174 mm
               1366 1398 1420 1474 hborder 0
                768  770  774  784 vborder 0
               -hsync -vsync 
               VertFreq: 59 Hz, HorFreq: 47014 Hz
Manufacturer-specified data, tag 15
ASCII string: SAMSUNG
ASCII string: 140AT20-S01
Checksum: 0x5 (valid)
EDID block does NOT conform to EDID 1.3!
	Missing name descriptor
	Missing monitor ranges
