edid-decode (hex):

00 ff ff ff ff ff ff 00 4c a3 42 31 00 00 00 00
00 15 01 03 80 1a 10 78 0a d3 e5 95 5c 60 90 27
19 50 54 00 00 00 01 01 01 01 01 01 01 01 01 01
01 01 01 01 01 01 9e 1b 00 a0 50 20 12 30 10 30
13 00 05 a3 10 00 00 19 00 00 00 0f 00 00 00 00
00 00 00 00 00 23 87 02 64 00 00 00 00 fe 00 53
41 4d 53 55 4e 47 0a 20 20 20 20 20 00 00 00 fe
00 31 32 31 41 54 31 31 2d 38 30 31 0a 20 00 45

----------------

Block 0, Base EDID:
  EDID Structure Version & Revision: 1.3
  Vendor & Product Identification:
    Manufacturer: SEC
    Model: 12610
    Made in: 2011
  Basic Display Parameters & Features:
    Digital display
    Maximum image size: 26 cm x 16 cm
    Gamma: 2.20
    RGB color display
    First detailed timing is the preferred timing
  Color Characteristics:
    Red  : 0.5849, 0.3603
    Green: 0.3750, 0.5654
    Blue : 0.1552, 0.0996
    White: 0.3134, 0.3291
  Established Timings I & II: none
  Standard Timings: none
  Detailed Timing Descriptors:
    DTD 1:  1280x800    60.021054 Hz  16:10    49.097 kHz     70.700000 MHz (261 mm x 163 mm)
                 Hfront   16 Hsync  48 Hback   96 Hpol N
                 Vfront    1 Vsync   3 Vback   14 Vpol N
    Manufacturer-Specified Display Descriptor (0x0f): 00 0f 00 00 00 00 00 00 00 00 00 23 87 02 64 00 '...........#..d.'
    Alphanumeric Data String: 'SAMSUNG'
    Alphanumeric Data String: '121AT11-801'
Checksum: 0x45

----------------

Failures:

Block 0, Base EDID:
  Missing Display Product Name.
  Missing Display Range Limits Descriptor.

EDID conformity: FAIL
