edid-decode (hex):

00 ff ff ff ff ff ff 00 4c a3 42 31 00 00 00 00
00 14 01 03 80 1a 0e 78 0a 34 05 93 56 55 92 29
20 50 54 00 00 00 01 01 01 01 01 01 01 01 01 01
01 01 01 01 01 01 12 1b 56 6c 50 00 10 30 20 16
24 00 00 90 10 00 00 19 00 00 00 0f 00 00 00 00
00 00 00 00 00 2a c0 06 29 00 00 00 00 fe 00 53
41 4d 53 55 4e 47 0a 20 20 20 20 20 00 00 00 fe
00 31 31 36 41 54 30 34 2d 53 30 31 0a 20 00 42

----------------

Block 0, Base EDID:
  EDID Structure Version & Revision: 1.3
  Vendor & Product Identification:
    Manufacturer: SEC
    Model: 12610
    Made in: 2010
  Basic Display Parameters & Features:
    Digital display
    Maximum image size: 26 cm x 14 cm
    Gamma: 2.20
    RGB color display
    First detailed timing is preferred timing
  Color Characteristics:
    Red  : 0.5742, 0.3388
    Green: 0.3330, 0.5703
    Blue : 0.1601, 0.1250
    White: 0.3134, 0.3291
  Established Timings I & II: none
  Standard Timings: none
  Detailed Timing Descriptors:
    DTD 1:  1366x768    59.968 Hz 683:384  47.015 kHz  69.300 MHz (256 mm x 144 mm)
                 Hfront   32 Hsync  22 Hback  54 Hpol N
                 Vfront    2 Vsync   4 Vback  10 Vpol N
    Manufacturer-Specified Display Descriptor (0x0f): 00 0f 00 00 00 00 00 00 00 00 00 2a c0 06 29 00 '...........*..).'
    Alphanumeric Data String: 'SAMSUNG'
    Alphanumeric Data String: '116AT04-S01'
Checksum: 0x42

----------------

Failures:

Block 0, Base EDID:
  Missing Display Product Name.
  Missing Display Range Limits Descriptor.

EDID conformity: FAIL
