
EDID (hex):
00ffffffffffff0036b3909801010101
2912010380251e782a1f35a4564d9e24
125054bfef0031a061467140714a714f
8140814f8180302a009851002a403070
1300772d1100001e000000fd00384b18
500e000a202020202020000000fc004d
4543455220544a3839390a20000000ff
003431574b484d32325230363037004b

Extracted contents:
header:          00 ff ff ff ff ff ff 00
serial number:   36 b3 90 98 01 01 01 01 29 12
version:         01 03
basic params:    80 25 1e 78 2a
chroma info:     1f 35 a4 56 4d 9e 24 12 50 54
established:     bf ef 00
standard:        31 a0 61 46 71 40 71 4a 71 4f 81 40 81 4f 81 80
descriptor 1:    30 2a 00 98 51 00 2a 40 30 70 13 00 77 2d 11 00 00 1e
descriptor 2:    00 00 00 fd 00 38 4b 18 50 0e 00 0a 20 20 20 20 20 20
descriptor 3:    00 00 00 fc 00 4d 45 43 45 52 20 54 4a 38 39 39 0a 20
descriptor 4:    00 00 00 ff 00 34 31 57 4b 48 4d 32 32 52 30 36 30 37
extensions:      00
checksum:        4b

EDID version: 1.3
Manufacturer: MUS Model 9890 Serial Number --
Made in week 41 of 2008
Digital display
Maximum image size: 37 cm x 30 cm
Gamma: 2.20
DPMS levels: Off
RGB color display
First detailed timing is preferred timing
Display x,y Chromaticity:
  Red:   0.6406, 0.3369
  Green: 0.3037, 0.6201
  Blue:  0.1406, 0.0732
  White: 0.3134, 0.3291
Established timings supported:
  720x400@70Hz 9:5 HorFreq: 31469 Hz Clock: 28.320 MHz
  640x480@60Hz 4:3 HorFreq: 31469 Hz Clock: 25.175 MHz
  640x480@67Hz 4:3 HorFreq: 35000 Hz Clock: 30.240 MHz
  640x480@72Hz 4:3 HorFreq: 37900 Hz Clock: 31.500 MHz
  640x480@75Hz 4:3 HorFreq: 37500 Hz Clock: 31.500 MHz
  800x600@56Hz 4:3 HorFreq: 35200 Hz Clock: 36.000 MHz
  800x600@60Hz 4:3 HorFreq: 37900 Hz Clock: 40.000 MHz
  800x600@72Hz 4:3 HorFreq: 48100 Hz Clock: 50.000 MHz
  800x600@75Hz 4:3 HorFreq: 46900 Hz Clock: 49.500 MHz
  832x624@75Hz 4:3 HorFreq: 49726 Hz Clock: 57.284 MHz
  1024x768@60Hz 4:3 HorFreq: 48400 Hz Clock: 65.000 MHz
  1024x768@70Hz 4:3 HorFreq: 56500 Hz Clock: 75.000 MHz
  1024x768@75Hz 4:3 HorFreq: 60000 Hz Clock: 78.750 MHz
  1280x1024@75Hz 5:4 HorFreq: 80000 Hz Clock: 135.000 MHz
Standard timings supported:
  640x512@92Hz 5:4
  1024x768@66Hz 4:3
  1152x864@60Hz 4:3
  1152x864@70Hz 4:3
  1152x864@75Hz 4:3 HorFreq: 67500 Hz Clock: 108.000 MHz
  1280x960@60Hz 4:3 HorFreq: 60000 Hz Clock: 108.000 MHz
  1280x960@75Hz 4:3
  1280x1024@60Hz 5:4 HorFreq: 64000 Hz Clock: 108.000 MHz
Detailed mode: Clock 108.000 MHz, 375 mm x 301 mm
               1280 1328 1440 1688 hborder 0
               1024 1025 1028 1066 vborder 0
               +hsync +vsync 
               VertFreq: 60 Hz, HorFreq: 63981 Hz
Monitor ranges (GTF): 56-75Hz V, 24-80kHz H, max dotclock 140MHz
Monitor name: MECER TJ899
Serial number: --
Checksum: 0x4b (valid)
One or more of the timings is out of range of the Monitor Ranges:
  Vertical Freq: 56 - 92 Hz
  Horizontal Freq: 31469 - 80000 Hz
  Maximum Clock: 135.000 MHz


