
EDID (hex):
00ffffffffffff0006af010c01010101
010f0103801b11780aa55093564f8b28
21505400000001010101010101010101
010101010101ea1a0080502010301520
440005a3100000180000000100061020
00000000000000000a20000000fe0042
313231455730310056310a20000000fc
00436f6c6f72204c43440a2020200091

Extracted contents:
header:          00 ff ff ff ff ff ff 00
serial number:   06 af 01 0c 01 01 01 01 01 0f
version:         01 03
basic params:    80 1b 11 78 0a
chroma info:     a5 50 93 56 4f 8b 28 21 50 54
established:     00 00 00
standard:        01 01 01 01 01 01 01 01 01 01 01 01 01 01 01 01
descriptor 1:    ea 1a 00 80 50 20 10 30 15 20 44 00 05 a3 10 00 00 18
descriptor 2:    00 00 00 01 00 06 10 20 00 00 00 00 00 00 00 00 0a 20
descriptor 3:    00 00 00 fe 00 42 31 32 31 45 57 30 31 00 56 31 0a 20
descriptor 4:    00 00 00 fc 00 43 6f 6c 6f 72 20 4c 43 44 0a 20 20 20
extensions:      00
checksum:        91

EDID version: 1.3
Manufacturer: AUO Model c01 Serial Number --
Digital display
Maximum image size: 27 cm x 17 cm
Gamma: 2.20
RGB color display
First detailed timing is preferred timing
Display x,y Chromaticity:
  Red:   0.5761, 0.3378
  Green: 0.3095, 0.5439
  Blue:  0.1572, 0.1298
  White: 0.3125, 0.3281
Established timings supported:
Standard timings supported:
Detailed mode: Clock 68.900 MHz, 261 mm x 163 mm
               1280 1301 1333 1408 hborder 0
                800  804  808  816 vborder 0
               -hsync -vsync 
               VertFreq: 59 Hz, HorFreq: 48934 Hz
Manufacturer-specified data, tag 1
ASCII string: B121EW01
Monitor name: Color LCD
Checksum: 0x91 (valid)
EDID block does NOT conform to EDID 1.3!
	Missing monitor ranges
	Detailed block string not properly terminated
EDID block does not conform at all!
	Bad year of manufacture
