
EDID (hex):
00ffffffffffff004ca3463600000000
00110103802115780a87f594574f8c27
27505400000001010101010101010101
010101010101442f90c4601a0f401858
13004bcf100000190000000f00000000
00000000003cd2026400000000fe0053
414d53554e470a2020202020000000fe
004c544e31353450342d4c30320a007c

Extracted contents:
header:          00 ff ff ff ff ff ff 00
serial number:   4c a3 46 36 00 00 00 00 00 11
version:         01 03
basic params:    80 21 15 78 0a
chroma info:     87 f5 94 57 4f 8c 27 27 50 54
established:     00 00 00
standard:        01 01 01 01 01 01 01 01 01 01 01 01 01 01 01 01
descriptor 1:    44 2f 90 c4 60 1a 0f 40 18 58 13 00 4b cf 10 00 00 19
descriptor 2:    00 00 00 0f 00 00 00 00 00 00 00 00 00 3c d2 02 64 00
descriptor 3:    00 00 00 fe 00 53 41 4d 53 55 4e 47 0a 20 20 20 20 20
descriptor 4:    00 00 00 fe 00 4c 54 4e 31 35 34 50 34 2d 4c 30 32 0a
extensions:      00
checksum:        7c

EDID version: 1.3
Manufacturer: SEC Model 3646 Serial Number --
Made in year 2007
Digital display
Maximum image size: 33 cm x 21 cm
Gamma: 2.20
RGB color display
First detailed timing is preferred timing
Display x,y Chromaticity:
  Red:   0.5800, 0.3398
  Green: 0.3095, 0.5498
  Blue:  0.1552, 0.1552
  White: 0.3134, 0.3291
Established timings supported:
Standard timings supported:
Detailed mode: Clock 121.000 MHz, 331 mm x 207 mm
               1680 1704 1792 1876 hborder 0
               1050 1051 1054 1065 vborder 0
               -hsync -vsync 
               VertFreq: 60 Hz, HorFreq: 64498 Hz
Manufacturer-specified data, tag 15
ASCII string: SAMSUNG
ASCII string: LTN154P4-L02
Checksum: 0x7c (valid)
EDID block does NOT conform to EDID 1.3!
	Missing name descriptor
	Missing monitor ranges
