
EDID (hex):
00ffffffffffff001e6d8f5a6a890900
031a01036b351e78eaa435a5544f9e27
125054a76b80d1c0457c617c818081bc
953c317c0101023a801871382d40582c
4500132a2100001e000000fd0038781e
8715000a202020202020000000fc0032
34474d37370a202020202020000000ff
003630334e5459544a443030320a009b

Extracted contents:
header:          00 ff ff ff ff ff ff 00
serial number:   1e 6d 8f 5a 6a 89 09 00 03 1a
version:         01 03
basic params:    6b 35 1e 78 ea
chroma info:     a4 35 a5 54 4f 9e 27 12 50 54
established:     a7 6b 80
standard:        d1 c0 45 7c 61 7c 81 80 81 bc 95 3c 31 7c 01 01
descriptor 1:    02 3a 80 18 71 38 2d 40 58 2c 45 00 13 2a 21 00 00 1e
descriptor 2:    00 00 00 fd 00 38 78 1e 87 15 00 0a 20 20 20 20 20 20
descriptor 3:    00 00 00 fc 00 32 34 47 4d 37 37 0a 20 20 20 20 20 20
descriptor 4:    00 00 00 ff 00 36 30 33 4e 54 59 54 4a 44 30 30 32 0a
extensions:      00
checksum:        9b

EDID version: 1.3
Manufacturer: GSM Model 5a8f Serial Number --
Made in week 3 of 2016
Analog display, Input voltage level: 0.7/0.7 V
Sync: Separate SyncOnGreen Serration 
Maximum image size: 53 cm x 30 cm
Gamma: 2.20
DPMS levels: Standby Suspend Off
RGB color display
First detailed timing is preferred timing
Display x,y Chromaticity:
  Red:   0.6464, 0.3300
  Green: 0.3095, 0.6171
  Blue:  0.1523, 0.0732
  White: 0.3134, 0.3291
Established timings supported:
  720x400@70Hz 9:5 HorFreq: 31469 Hz Clock: 28.320 MHz
  640x480@60Hz 4:3 HorFreq: 31469 Hz Clock: 25.175 MHz
  640x480@75Hz 4:3 HorFreq: 37500 Hz Clock: 31.500 MHz
  800x600@56Hz 4:3 HorFreq: 35200 Hz Clock: 36.000 MHz
  800x600@60Hz 4:3 HorFreq: 37900 Hz Clock: 40.000 MHz
  800x600@75Hz 4:3 HorFreq: 46900 Hz Clock: 49.500 MHz
  832x624@75Hz 4:3 HorFreq: 49726 Hz Clock: 57.284 MHz
  1024x768@60Hz 4:3 HorFreq: 48400 Hz Clock: 65.000 MHz
  1024x768@75Hz 4:3 HorFreq: 60000 Hz Clock: 78.750 MHz
  1280x1024@75Hz 5:4 HorFreq: 80000 Hz Clock: 135.000 MHz
  1152x870@75Hz 192:145 HorFreq: 67500 Hz Clock: 108.000 MHz
Standard timings supported:
  1920x1080@60Hz 16:9
  800x600@120Hz 4:3
  1024x768@120Hz 4:3
  1280x1024@60Hz 5:4 HorFreq: 64000 Hz Clock: 108.000 MHz
  1280x1024@120Hz 5:4
  1440x900@120Hz 16:10
  640x480@120Hz 4:3
Detailed mode: Clock 148.500 MHz, 531 mm x 298 mm
               1920 2008 2052 2200 hborder 0
               1080 1084 1089 1125 vborder 0
               +hsync +vsync 
               VertFreq: 60 Hz, HorFreq: 67500 Hz
Monitor ranges (GTF): 56-120Hz V, 30-135kHz H, max dotclock 210MHz
Monitor name: 24GM77
Serial number: --
Checksum: 0x9b (valid)
