edid-decode (hex):

00 ff ff ff ff ff ff 00 4c 2d 98 04 30 32 4d 43
06 13 01 03 80 2c 19 78 2a ee 91 a3 54 4c 99 26
0f 50 54 bf ef 80 71 4f 81 00 95 00 81 40 81 80
01 01 01 01 01 01 2f 26 40 a0 60 84 1a 30 30 20
35 00 bb f9 10 00 00 1a 00 00 00 fd 00 38 4b 1e
51 0e 00 0a 20 20 20 20 20 20 00 00 00 fc 00 53
79 6e 63 4d 61 73 74 65 72 0a 20 20 00 00 00 ff
00 48 4d 42 53 32 30 32 31 37 35 0a 20 20 00 fb

00 ff ff ff ff ff ff 00 4c 2d 98 04 30 32 4d 43
06 13 01 03 80 2c 19 78 2a ee 91 a3 54 4c 99 26
0f 50 54 bf ef 80 71 4f 81 00 95 00 81 40 81 80
01 01 01 01 01 01 2f 26 40 a0 60 84 1a 30 30 20
35 00 bb f9 10 00 00 1a 00 00 00 fd 00 38 4b 1e
51 0e 00 0a 20 20 20 20 20 20 00 00 00 fc 00 53
79 6e 63 4d 61 73 74 65 72 0a 20 20 00 00 00 ff
00 48 4d 42 53 32 30 32 31 37 35 0a 20 20 00 fb

00 ff ff ff ff ff ff 00 4c 2d 98 04 30 32 4d 43
06 13 01 03 80 2c 19 78 2a ee 91 a3 54 4c 99 26
0f 50 54 bf ef 80 71 4f 81 00 95 00 81 40 81 80
01 01 01 01 01 01 2f 26 40 a0 60 84 1a 30 30 20
35 00 bb f9 10 00 00 1a 00 00 00 fd 00 38 4b 1e
51 0e 00 0a 20 20 20 20 20 20 00 00 00 fc 00 53
79 6e 63 4d 61 73 74 65 72 0a 20 20 00 00 00 ff
00 48 4d 42 53 32 30 32 31 37 35 0a 20 20 00 fb

00 ff ff ff ff ff ff 00 4c 2d 98 04 30 32 4d 43
06 13 01 03 80 2c 19 78 2a ee 91 a3 54 4c 99 26
0f 50 54 bf ef 80 71 4f 81 00 95 00 81 40 81 80
01 01 01 01 01 01 2f 26 40 a0 60 84 1a 30 30 20
35 00 bb f9 10 00 00 1a 00 00 00 fd 00 38 4b 1e
51 0e 00 0a 20 20 20 20 20 20 00 00 00 fc 00 53
79 6e 63 4d 61 73 74 65 72 0a 20 20 00 00 00 ff
00 48 4d 42 53 32 30 32 31 37 35 0a 20 20 00 fb

00 ff ff ff ff ff ff 00 4c 2d 98 04 30 32 4d 43
06 13 01 03 80 2c 19 78 2a ee 91 a3 54 4c 99 26
0f 50 54 bf ef 80 71 4f 81 00 95 00 81 40 81 80
01 01 01 01 01 01 2f 26 40 a0 60 84 1a 30 30 20
35 00 bb f9 10 00 00 1a 00 00 00 fd 00 38 4b 1e
51 0e 00 0a 20 20 20 20 20 20 00 00 00 fc 00 53
79 6e 63 4d 61 73 74 65 72 0a 20 20 00 00 00 ff
00 48 4d 42 53 32 30 32 31 37 35 0a 20 20 00 fb

00 ff ff ff ff ff ff 00 4c 2d 98 04 30 32 4d 43
06 13 01 03 80 2c 19 78 2a ee 91 a3 54 4c 99 26
0f 50 54 bf ef 80 71 4f 81 00 95 00 81 40 81 80
01 01 01 01 01 01 2f 26 40 a0 60 84 1a 30 30 20
35 00 bb f9 10 00 00 1a 00 00 00 fd 00 38 4b 1e
51 0e 00 0a 20 20 20 20 20 20 00 00 00 fc 00 53
79 6e 63 4d 61 73 74 65 72 0a 20 20 00 00 00 ff
00 48 4d 42 53 32 30 32 31 37 35 0a 20 20 00 fb

00 ff ff ff ff ff ff 00 4c 2d 98 04 30 32 4d 43
06 13 01 03 80 2c 19 78 2a ee 91 a3 54 4c 99 26
0f 50 54 bf ef 80 71 4f 81 00 95 00 81 40 81 80
01 01 01 01 01 01 2f 26 40 a0 60 84 1a 30 30 20
35 00 bb f9 10 00 00 1a 00 00 00 fd 00 38 4b 1e
51 0e 00 0a 20 20 20 20 20 20 00 00 00 fc 00 53
79 6e 63 4d 61 73 74 65 72 0a 20 20 00 00 00 ff
00 48 4d 42 53 32 30 32 31 37 35 0a 20 20 00 fb

00 ff ff ff ff ff ff 00 4c 2d 98 04 30 32 4d 43
06 13 01 03 80 2c 19 78 2a ee 91 a3 54 4c 99 26
0f 50 54 bf ef 80 71 4f 81 00 95 00 81 40 81 80
01 01 01 01 01 01 2f 26 40 a0 60 84 1a 30 30 20
35 00 bb f9 10 00 00 1a 00 00 00 fd 00 38 4b 1e
51 0e 00 0a 20 20 20 20 20 20 00 00 00 fc 00 53
79 6e 63 4d 61 73 74 65 72 0a 20 20 00 00 00 ff
00 48 4d 42 53 32 30 32 31 37 35 0a 20 20 00 fb

00 ff ff ff ff ff ff 00 4c 2d 98 04 30 32 4d 43
06 13 01 03 80 2c 19 78 2a ee 91 a3 54 4c 99 26
0f 50 54 bf ef 80 71 4f 81 00 95 00 81 40 81 80
01 01 01 01 01 01 2f 26 40 a0 60 84 1a 30 30 20
35 00 bb f9 10 00 00 1a 00 00 00 fd 00 38 4b 1e
51 0e 00 0a 20 20 20 20 20 20 00 00 00 fc 00 53
79 6e 63 4d 61 73 74 65 72 0a 20 20 00 00 00 ff
00 48 4d 42 53 32 30 32 31 37 35 0a 20 20 00 fb

00 ff ff ff ff ff ff 00 4c 2d 98 04 30 32 4d 43
06 13 01 03 80 2c 19 78 2a ee 91 a3 54 4c 99 26
0f 50 54 bf ef 80 71 4f 81 00 95 00 81 40 81 80
01 01 01 01 01 01 2f 26 40 a0 60 84 1a 30 30 20
35 00 bb f9 10 00 00 1a 00 00 00 fd 00 38 4b 1e
51 0e 00 0a 20 20 20 20 20 20 00 00 00 fc 00 53
79 6e 63 4d 61 73 74 65 72 0a 20 20 00 00 00 ff
00 48 4d 42 53 32 30 32 31 37 35 0a 20 20 00 fb

00 ff ff ff ff ff ff 00 4c 2d 98 04 30 32 4d 43
06 13 01 03 80 2c 19 78 2a ee 91 a3 54 4c 99 26
0f 50 54 bf ef 80 71 4f 81 00 95 00 81 40 81 80
01 01 01 01 01 01 2f 26 40 a0 60 84 1a 30 30 20
35 00 bb f9 10 00 00 1a 00 00 00 fd 00 38 4b 1e
51 0e 00 0a 20 20 20 20 20 20 00 00 00 fc 00 53
79 6e 63 4d 61 73 74 65 72 0a 20 20 00 00 00 ff
00 48 4d 42 53 32 30 32 31 37 35 0a 20 20 00 fb

00 ff ff ff ff ff ff 00 4c 2d 98 04 30 32 4d 43
06 13 01 03 80 2c 19 78 2a ee 91 a3 54 4c 99 26
0f 50 54 bf ef 80 71 4f 81 00 95 00 81 40 81 80
01 01 01 01 01 01 2f 26 40 a0 60 84 1a 30 30 20
35 00 bb f9 10 00 00 1a 00 00 00 fd 00 38 4b 1e
51 0e 00 0a 20 20 20 20 20 20 00 00 00 fc 00 53
79 6e 63 4d 61 73 74 65 72 0a 20 20 00 00 00 ff
00 48 4d 42 53 32 30 32 31 37 35 0a 20 20 00 fb

00 ff ff ff ff ff ff 00 4c 2d 98 04 30 32 4d 43
06 13 01 03 80 2c 19 78 2a ee 91 a3 54 4c 99 26
0f 50 54 bf ef 80 71 4f 81 00 95 00 81 40 81 80
01 01 01 01 01 01 2f 26 40 a0 60 84 1a 30 30 20
35 00 bb f9 10 00 00 1a 00 00 00 fd 00 38 4b 1e
51 0e 00 0a 20 20 20 20 20 20 00 00 00 fc 00 53
79 6e 63 4d 61 73 74 65 72 0a 20 20 00 00 00 ff
00 48 4d 42 53 32 30 32 31 37 35 0a 20 20 00 fb

00 ff ff ff ff ff ff 00 4c 2d 98 04 30 32 4d 43
06 13 01 03 80 2c 19 78 2a ee 91 a3 54 4c 99 26
0f 50 54 bf ef 80 71 4f 81 00 95 00 81 40 81 80
01 01 01 01 01 01 2f 26 40 a0 60 84 1a 30 30 20
35 00 bb f9 10 00 00 1a 00 00 00 fd 00 38 4b 1e
51 0e 00 0a 20 20 20 20 20 20 00 00 00 fc 00 53
79 6e 63 4d 61 73 74 65 72 0a 20 20 00 00 00 ff
00 48 4d 42 53 32 30 32 31 37 35 0a 20 20 00 fb

00 ff ff ff ff ff ff 00 4c 2d 98 04 30 32 4d 43
06 13 01 03 80 2c 19 78 2a ee 91 a3 54 4c 99 26
0f 50 54 bf ef 80 71 4f 81 00 95 00 81 40 81 80
01 01 01 01 01 01 2f 26 40 a0 60 84 1a 30 30 20
35 00 bb f9 10 00 00 1a 00 00 00 fd 00 38 4b 1e
51 0e 00 0a 20 20 20 20 20 20 00 00 00 fc 00 53
79 6e 63 4d 61 73 74 65 72 0a 20 20 00 00 00 ff
00 48 4d 42 53 32 30 32 31 37 35 0a 20 20 00 fb

00 ff ff ff ff ff ff 00 4c 2d 98 04 30 32 4d 43
06 13 01 03 80 2c 19 78 2a ee 91 a3 54 4c 99 26
0f 50 54 bf ef 80 71 4f 81 00 95 00 81 40 81 80
01 01 01 01 01 01 2f 26 40 a0 60 84 1a 30 30 20
35 00 bb f9 10 00 00 1a 00 00 00 fd 00 38 4b 1e
51 0e 00 0a 20 20 20 20 20 20 00 00 00 fc 00 53
79 6e 63 4d 61 73 74 65 72 0a 20 20 00 00 00 ff
00 48 4d 42 53 32 30 32 31 37 35 0a 20 20 00 fb

----------------

Block 0, Base EDID:
  EDID Structure Version & Revision: 1.3
  Vendor & Product Identification:
    Manufacturer: SAM
    Model: 1176
    Serial Number: ...
    Made in: week 6 of 2009
  Basic Display Parameters & Features:
    Digital display
    Maximum image size: 44 cm x 25 cm
    Gamma: 2.20
    DPMS levels: Off
    RGB color display
    First detailed timing is the preferred timing
  Color Characteristics:
    Red  : 0.6396, 0.3300
    Green: 0.2998, 0.5996
    Blue : 0.1503, 0.0595
    White: 0.3125, 0.3291
  Established Timings I & II:
    IBM     :   720x400    70.081663 Hz   9:5     31.467 kHz     28.320000 MHz
    DMT 0x04:   640x480    59.940476 Hz   4:3     31.469 kHz     25.175000 MHz
    Apple   :   640x480    66.666667 Hz   4:3     35.000 kHz     30.240000 MHz
    DMT 0x05:   640x480    72.808802 Hz   4:3     37.861 kHz     31.500000 MHz
    DMT 0x06:   640x480    75.000000 Hz   4:3     37.500 kHz     31.500000 MHz
    DMT 0x08:   800x600    56.250000 Hz   4:3     35.156 kHz     36.000000 MHz
    DMT 0x09:   800x600    60.316541 Hz   4:3     37.879 kHz     40.000000 MHz
    DMT 0x0a:   800x600    72.187572 Hz   4:3     48.077 kHz     50.000000 MHz
    DMT 0x0b:   800x600    75.000000 Hz   4:3     46.875 kHz     49.500000 MHz
    Apple   :   832x624    74.551266 Hz   4:3     49.726 kHz     57.284000 MHz
    DMT 0x10:  1024x768    60.003840 Hz   4:3     48.363 kHz     65.000000 MHz
    DMT 0x11:  1024x768    70.069359 Hz   4:3     56.476 kHz     75.000000 MHz
    DMT 0x12:  1024x768    75.028582 Hz   4:3     60.023 kHz     78.750000 MHz
    DMT 0x24:  1280x1024   75.024675 Hz   5:4     79.976 kHz    135.000000 MHz
    Apple   :  1152x870    75.061550 Hz 192:145   68.681 kHz    100.000000 MHz
  Standard Timings:
    DMT 0x15:  1152x864    75.000000 Hz   4:3     67.500 kHz    108.000000 MHz
    DMT 0x1c:  1280x800    59.810326 Hz  16:10    49.702 kHz     83.500000 MHz
    DMT 0x2f:  1440x900    59.887445 Hz  16:10    55.935 kHz    106.500000 MHz
    DMT 0x20:  1280x960    60.000000 Hz   4:3     60.000 kHz    108.000000 MHz
    DMT 0x23:  1280x1024   60.019740 Hz   5:4     63.981 kHz    108.000000 MHz
  Detailed Timing Descriptors:
    DTD 1:  1600x900    59.978156 Hz  16:9     55.540 kHz     97.750000 MHz (443 mm x 249 mm)
                 Hfront   48 Hsync  32 Hback   80 Hpol P
                 Vfront    3 Vsync   5 Vback   18 Vpol N
    Display Range Limits:
      Monitor ranges (GTF): 56-75 Hz V, 30-81 kHz H, max dotclock 140 MHz
    Display Product Name: 'SyncMaster'
    Display Product Serial Number: ...
Checksum: 0xfb

----------------

Block 1, Unknown EDID Extension Block 0x00:
  00 ff ff ff ff ff ff 00 4c 2d 98 04 30 32 4d 43 '........L-..02MC'
  06 13 01 03 80 2c 19 78 2a ee 91 a3 54 4c 99 26 '.....,.x*...TL.&'
  0f 50 54 bf ef 80 71 4f 81 00 95 00 81 40 81 80 '.PT...qO.....@..'
  01 01 01 01 01 01 2f 26 40 a0 60 84 1a 30 30 20 '....../&@.`..00 '
  35 00 bb f9 10 00 00 1a 00 00 00 fd 00 38 4b 1e '5............8K.'
  51 0e 00 0a 20 20 20 20 20 20 00 00 00 fc 00 53 'Q...      .....S'
  79 6e 63 4d 61 73 74 65 72 0a 20 20 00 00 00 ff 'yncMaster.  ....'
  00 48 4d 42 53 32 30 32 31 37 35 0a 20 20 00 fb '.HMBS202175.  ..'
Checksum: 0xfb

----------------

Block 2, Unknown EDID Extension Block 0x00:
  00 ff ff ff ff ff ff 00 4c 2d 98 04 30 32 4d 43 '........L-..02MC'
  06 13 01 03 80 2c 19 78 2a ee 91 a3 54 4c 99 26 '.....,.x*...TL.&'
  0f 50 54 bf ef 80 71 4f 81 00 95 00 81 40 81 80 '.PT...qO.....@..'
  01 01 01 01 01 01 2f 26 40 a0 60 84 1a 30 30 20 '....../&@.`..00 '
  35 00 bb f9 10 00 00 1a 00 00 00 fd 00 38 4b 1e '5............8K.'
  51 0e 00 0a 20 20 20 20 20 20 00 00 00 fc 00 53 'Q...      .....S'
  79 6e 63 4d 61 73 74 65 72 0a 20 20 00 00 00 ff 'yncMaster.  ....'
  00 48 4d 42 53 32 30 32 31 37 35 0a 20 20 00 fb '.HMBS202175.  ..'
Checksum: 0xfb

----------------

Block 3, Unknown EDID Extension Block 0x00:
  00 ff ff ff ff ff ff 00 4c 2d 98 04 30 32 4d 43 '........L-..02MC'
  06 13 01 03 80 2c 19 78 2a ee 91 a3 54 4c 99 26 '.....,.x*...TL.&'
  0f 50 54 bf ef 80 71 4f 81 00 95 00 81 40 81 80 '.PT...qO.....@..'
  01 01 01 01 01 01 2f 26 40 a0 60 84 1a 30 30 20 '....../&@.`..00 '
  35 00 bb f9 10 00 00 1a 00 00 00 fd 00 38 4b 1e '5............8K.'
  51 0e 00 0a 20 20 20 20 20 20 00 00 00 fc 00 53 'Q...      .....S'
  79 6e 63 4d 61 73 74 65 72 0a 20 20 00 00 00 ff 'yncMaster.  ....'
  00 48 4d 42 53 32 30 32 31 37 35 0a 20 20 00 fb '.HMBS202175.  ..'
Checksum: 0xfb

----------------

Block 4, Unknown EDID Extension Block 0x00:
  00 ff ff ff ff ff ff 00 4c 2d 98 04 30 32 4d 43 '........L-..02MC'
  06 13 01 03 80 2c 19 78 2a ee 91 a3 54 4c 99 26 '.....,.x*...TL.&'
  0f 50 54 bf ef 80 71 4f 81 00 95 00 81 40 81 80 '.PT...qO.....@..'
  01 01 01 01 01 01 2f 26 40 a0 60 84 1a 30 30 20 '....../&@.`..00 '
  35 00 bb f9 10 00 00 1a 00 00 00 fd 00 38 4b 1e '5............8K.'
  51 0e 00 0a 20 20 20 20 20 20 00 00 00 fc 00 53 'Q...      .....S'
  79 6e 63 4d 61 73 74 65 72 0a 20 20 00 00 00 ff 'yncMaster.  ....'
  00 48 4d 42 53 32 30 32 31 37 35 0a 20 20 00 fb '.HMBS202175.  ..'
Checksum: 0xfb

----------------

Block 5, Unknown EDID Extension Block 0x00:
  00 ff ff ff ff ff ff 00 4c 2d 98 04 30 32 4d 43 '........L-..02MC'
  06 13 01 03 80 2c 19 78 2a ee 91 a3 54 4c 99 26 '.....,.x*...TL.&'
  0f 50 54 bf ef 80 71 4f 81 00 95 00 81 40 81 80 '.PT...qO.....@..'
  01 01 01 01 01 01 2f 26 40 a0 60 84 1a 30 30 20 '....../&@.`..00 '
  35 00 bb f9 10 00 00 1a 00 00 00 fd 00 38 4b 1e '5............8K.'
  51 0e 00 0a 20 20 20 20 20 20 00 00 00 fc 00 53 'Q...      .....S'
  79 6e 63 4d 61 73 74 65 72 0a 20 20 00 00 00 ff 'yncMaster.  ....'
  00 48 4d 42 53 32 30 32 31 37 35 0a 20 20 00 fb '.HMBS202175.  ..'
Checksum: 0xfb

----------------

Block 6, Unknown EDID Extension Block 0x00:
  00 ff ff ff ff ff ff 00 4c 2d 98 04 30 32 4d 43 '........L-..02MC'
  06 13 01 03 80 2c 19 78 2a ee 91 a3 54 4c 99 26 '.....,.x*...TL.&'
  0f 50 54 bf ef 80 71 4f 81 00 95 00 81 40 81 80 '.PT...qO.....@..'
  01 01 01 01 01 01 2f 26 40 a0 60 84 1a 30 30 20 '....../&@.`..00 '
  35 00 bb f9 10 00 00 1a 00 00 00 fd 00 38 4b 1e '5............8K.'
  51 0e 00 0a 20 20 20 20 20 20 00 00 00 fc 00 53 'Q...      .....S'
  79 6e 63 4d 61 73 74 65 72 0a 20 20 00 00 00 ff 'yncMaster.  ....'
  00 48 4d 42 53 32 30 32 31 37 35 0a 20 20 00 fb '.HMBS202175.  ..'
Checksum: 0xfb

----------------

Block 7, Unknown EDID Extension Block 0x00:
  00 ff ff ff ff ff ff 00 4c 2d 98 04 30 32 4d 43 '........L-..02MC'
  06 13 01 03 80 2c 19 78 2a ee 91 a3 54 4c 99 26 '.....,.x*...TL.&'
  0f 50 54 bf ef 80 71 4f 81 00 95 00 81 40 81 80 '.PT...qO.....@..'
  01 01 01 01 01 01 2f 26 40 a0 60 84 1a 30 30 20 '....../&@.`..00 '
  35 00 bb f9 10 00 00 1a 00 00 00 fd 00 38 4b 1e '5............8K.'
  51 0e 00 0a 20 20 20 20 20 20 00 00 00 fc 00 53 'Q...      .....S'
  79 6e 63 4d 61 73 74 65 72 0a 20 20 00 00 00 ff 'yncMaster.  ....'
  00 48 4d 42 53 32 30 32 31 37 35 0a 20 20 00 fb '.HMBS202175.  ..'
Checksum: 0xfb

----------------

Block 8, Unknown EDID Extension Block 0x00:
  00 ff ff ff ff ff ff 00 4c 2d 98 04 30 32 4d 43 '........L-..02MC'
  06 13 01 03 80 2c 19 78 2a ee 91 a3 54 4c 99 26 '.....,.x*...TL.&'
  0f 50 54 bf ef 80 71 4f 81 00 95 00 81 40 81 80 '.PT...qO.....@..'
  01 01 01 01 01 01 2f 26 40 a0 60 84 1a 30 30 20 '....../&@.`..00 '
  35 00 bb f9 10 00 00 1a 00 00 00 fd 00 38 4b 1e '5............8K.'
  51 0e 00 0a 20 20 20 20 20 20 00 00 00 fc 00 53 'Q...      .....S'
  79 6e 63 4d 61 73 74 65 72 0a 20 20 00 00 00 ff 'yncMaster.  ....'
  00 48 4d 42 53 32 30 32 31 37 35 0a 20 20 00 fb '.HMBS202175.  ..'
Checksum: 0xfb

----------------

Block 9, Unknown EDID Extension Block 0x00:
  00 ff ff ff ff ff ff 00 4c 2d 98 04 30 32 4d 43 '........L-..02MC'
  06 13 01 03 80 2c 19 78 2a ee 91 a3 54 4c 99 26 '.....,.x*...TL.&'
  0f 50 54 bf ef 80 71 4f 81 00 95 00 81 40 81 80 '.PT...qO.....@..'
  01 01 01 01 01 01 2f 26 40 a0 60 84 1a 30 30 20 '....../&@.`..00 '
  35 00 bb f9 10 00 00 1a 00 00 00 fd 00 38 4b 1e '5............8K.'
  51 0e 00 0a 20 20 20 20 20 20 00 00 00 fc 00 53 'Q...      .....S'
  79 6e 63 4d 61 73 74 65 72 0a 20 20 00 00 00 ff 'yncMaster.  ....'
  00 48 4d 42 53 32 30 32 31 37 35 0a 20 20 00 fb '.HMBS202175.  ..'
Checksum: 0xfb

----------------

Block 10, Unknown EDID Extension Block 0x00:
  00 ff ff ff ff ff ff 00 4c 2d 98 04 30 32 4d 43 '........L-..02MC'
  06 13 01 03 80 2c 19 78 2a ee 91 a3 54 4c 99 26 '.....,.x*...TL.&'
  0f 50 54 bf ef 80 71 4f 81 00 95 00 81 40 81 80 '.PT...qO.....@..'
  01 01 01 01 01 01 2f 26 40 a0 60 84 1a 30 30 20 '....../&@.`..00 '
  35 00 bb f9 10 00 00 1a 00 00 00 fd 00 38 4b 1e '5............8K.'
  51 0e 00 0a 20 20 20 20 20 20 00 00 00 fc 00 53 'Q...      .....S'
  79 6e 63 4d 61 73 74 65 72 0a 20 20 00 00 00 ff 'yncMaster.  ....'
  00 48 4d 42 53 32 30 32 31 37 35 0a 20 20 00 fb '.HMBS202175.  ..'
Checksum: 0xfb

----------------

Block 11, Unknown EDID Extension Block 0x00:
  00 ff ff ff ff ff ff 00 4c 2d 98 04 30 32 4d 43 '........L-..02MC'
  06 13 01 03 80 2c 19 78 2a ee 91 a3 54 4c 99 26 '.....,.x*...TL.&'
  0f 50 54 bf ef 80 71 4f 81 00 95 00 81 40 81 80 '.PT...qO.....@..'
  01 01 01 01 01 01 2f 26 40 a0 60 84 1a 30 30 20 '....../&@.`..00 '
  35 00 bb f9 10 00 00 1a 00 00 00 fd 00 38 4b 1e '5............8K.'
  51 0e 00 0a 20 20 20 20 20 20 00 00 00 fc 00 53 'Q...      .....S'
  79 6e 63 4d 61 73 74 65 72 0a 20 20 00 00 00 ff 'yncMaster.  ....'
  00 48 4d 42 53 32 30 32 31 37 35 0a 20 20 00 fb '.HMBS202175.  ..'
Checksum: 0xfb

----------------

Block 12, Unknown EDID Extension Block 0x00:
  00 ff ff ff ff ff ff 00 4c 2d 98 04 30 32 4d 43 '........L-..02MC'
  06 13 01 03 80 2c 19 78 2a ee 91 a3 54 4c 99 26 '.....,.x*...TL.&'
  0f 50 54 bf ef 80 71 4f 81 00 95 00 81 40 81 80 '.PT...qO.....@..'
  01 01 01 01 01 01 2f 26 40 a0 60 84 1a 30 30 20 '....../&@.`..00 '
  35 00 bb f9 10 00 00 1a 00 00 00 fd 00 38 4b 1e '5............8K.'
  51 0e 00 0a 20 20 20 20 20 20 00 00 00 fc 00 53 'Q...      .....S'
  79 6e 63 4d 61 73 74 65 72 0a 20 20 00 00 00 ff 'yncMaster.  ....'
  00 48 4d 42 53 32 30 32 31 37 35 0a 20 20 00 fb '.HMBS202175.  ..'
Checksum: 0xfb

----------------

Block 13, Unknown EDID Extension Block 0x00:
  00 ff ff ff ff ff ff 00 4c 2d 98 04 30 32 4d 43 '........L-..02MC'
  06 13 01 03 80 2c 19 78 2a ee 91 a3 54 4c 99 26 '.....,.x*...TL.&'
  0f 50 54 bf ef 80 71 4f 81 00 95 00 81 40 81 80 '.PT...qO.....@..'
  01 01 01 01 01 01 2f 26 40 a0 60 84 1a 30 30 20 '....../&@.`..00 '
  35 00 bb f9 10 00 00 1a 00 00 00 fd 00 38 4b 1e '5............8K.'
  51 0e 00 0a 20 20 20 20 20 20 00 00 00 fc 00 53 'Q...      .....S'
  79 6e 63 4d 61 73 74 65 72 0a 20 20 00 00 00 ff 'yncMaster.  ....'
  00 48 4d 42 53 32 30 32 31 37 35 0a 20 20 00 fb '.HMBS202175.  ..'
Checksum: 0xfb

----------------

Block 14, Unknown EDID Extension Block 0x00:
  00 ff ff ff ff ff ff 00 4c 2d 98 04 30 32 4d 43 '........L-..02MC'
  06 13 01 03 80 2c 19 78 2a ee 91 a3 54 4c 99 26 '.....,.x*...TL.&'
  0f 50 54 bf ef 80 71 4f 81 00 95 00 81 40 81 80 '.PT...qO.....@..'
  01 01 01 01 01 01 2f 26 40 a0 60 84 1a 30 30 20 '....../&@.`..00 '
  35 00 bb f9 10 00 00 1a 00 00 00 fd 00 38 4b 1e '5............8K.'
  51 0e 00 0a 20 20 20 20 20 20 00 00 00 fc 00 53 'Q...      .....S'
  79 6e 63 4d 61 73 74 65 72 0a 20 20 00 00 00 ff 'yncMaster.  ....'
  00 48 4d 42 53 32 30 32 31 37 35 0a 20 20 00 fb '.HMBS202175.  ..'
Checksum: 0xfb

----------------

Block 15, Unknown EDID Extension Block 0x00:
  00 ff ff ff ff ff ff 00 4c 2d 98 04 30 32 4d 43 '........L-..02MC'
  06 13 01 03 80 2c 19 78 2a ee 91 a3 54 4c 99 26 '.....,.x*...TL.&'
  0f 50 54 bf ef 80 71 4f 81 00 95 00 81 40 81 80 '.PT...qO.....@..'
  01 01 01 01 01 01 2f 26 40 a0 60 84 1a 30 30 20 '....../&@.`..00 '
  35 00 bb f9 10 00 00 1a 00 00 00 fd 00 38 4b 1e '5............8K.'
  51 0e 00 0a 20 20 20 20 20 20 00 00 00 fc 00 53 'Q...      .....S'
  79 6e 63 4d 61 73 74 65 72 0a 20 20 00 00 00 ff 'yncMaster.  ....'
  00 48 4d 42 53 32 30 32 31 37 35 0a 20 20 00 fb '.HMBS202175.  ..'
Checksum: 0xfb

----------------

Failures:

Block 0, Base EDID:
  Basic Display Parameters & Features: The chromaticities match sRGB, but sRGB is not signaled.
Block 1, Base EDID:
  Unknown Extension Block.
Block 2, Base EDID:
  Unknown Extension Block.
Block 3, Base EDID:
  Unknown Extension Block.
Block 4, Base EDID:
  Unknown Extension Block.
Block 5, Base EDID:
  Unknown Extension Block.
Block 6, Base EDID:
  Unknown Extension Block.
Block 7, Base EDID:
  Unknown Extension Block.
Block 8, Base EDID:
  Unknown Extension Block.
Block 9, Base EDID:
  Unknown Extension Block.
Block 10, Base EDID:
  Unknown Extension Block.
Block 11, Base EDID:
  Unknown Extension Block.
Block 12, Base EDID:
  Unknown Extension Block.
Block 13, Base EDID:
  Unknown Extension Block.
Block 14, Base EDID:
  Unknown Extension Block.
Block 15, Base EDID:
  Unknown Extension Block.
EDID:
  Base EDID: EDID specified 0 extension block(s), but found 15 extension block(s).
  Base EDID: EDID 1.3 requires a Block Map Extension in Block 1 if there are more than 2 blocks in the EDID.

EDID conformity: FAIL
