
EDID (hex):
00ffffffffffff004c834e3100000000
00190104951d11780a8595935b568d29
1f505400000001010101010101010101
0101010101013a1b5674500010303020
250025a5100000190000000f00000000
00000000001eb4021500000000fe0053
414d53554e470a2020202020000000fe
00313333415433322d3730310a20001b

Extracted contents:
header:          00 ff ff ff ff ff ff 00
serial number:   4c 83 4e 31 00 00 00 00 00 19
version:         01 04
basic params:    95 1d 11 78 0a
chroma info:     85 95 93 5b 56 8d 29 1f 50 54
established:     00 00 00
standard:        01 01 01 01 01 01 01 01 01 01 01 01 01 01 01 01
descriptor 1:    3a 1b 56 74 50 00 10 30 30 20 25 00 25 a5 10 00 00 19
descriptor 2:    00 00 00 0f 00 00 00 00 00 00 00 00 00 1e b4 02 15 00
descriptor 3:    00 00 00 fe 00 53 41 4d 53 55 4e 47 0a 20 20 20 20 20
descriptor 4:    00 00 00 fe 00 31 33 33 41 54 33 32 2d 37 30 31 0a 20
extensions:      00
checksum:        1b

EDID version: 1.4
Manufacturer: SDC Model 314e Serial Number --
Made in year 2015
Digital display
6 bits per primary color channel
DisplayPort interface
Maximum image size: 29 cm x 17 cm
Gamma: 2.20
Supported color formats: RGB 4:4:4, YCrCb 4:4:4
First detailed timing includes the native pixel format and preferred refresh rate
Display x,y Chromaticity:
  Red:   0.5761, 0.3554
  Green: 0.3369, 0.5517
  Blue:  0.1621, 0.1220
  White: 0.3134, 0.3291
Established timings supported:
Standard timings supported:
Detailed mode: Clock 69.700 MHz, 293 mm x 165 mm
               1366 1414 1446 1482 hborder 0
                768  770  775  784 vborder 0
               -hsync -vsync 
               VertFreq: 59 Hz, HorFreq: 47031 Hz
Manufacturer-specified data, tag 15
ASCII string: SAMSUNG
ASCII string: 133AT32-701
Checksum: 0x1b (valid)
EDID block does NOT conform to EDID 1.4!
	Missing name descriptor
	Missing monitor ranges
