edid-decode (hex):

00 ff ff ff ff ff ff 00 11 24 00 00 00 00 00 00
30 14 01 01 88 b4 65 78 ea f9 2d a3 55 46 98 25
11 47 4a bf ee 00 31 40 45 00 61 40 81 80 8b c0
a9 40 61 4a 81 c0 02 3a 80 18 71 38 2d 40 58 2c
45 00 13 8e 21 00 00 00 66 21 56 aa 51 00 1b 30
50 82 a3 00 ba d4 21 00 00 00 00 00 00 fd 00 01
55 01 50 10 00 00 00 00 00 00 00 00 00 00 00 fc
00 44 49 44 2d 48 44 4d 49 2d 46 48 44 0a 01 0a

02 03 1e 72 4a 90 1f 03 07 12 16 05 13 04 14 23
09 07 07 83 01 00 00 65 03 0c 00 20 00 fc ae 1a
00 a0 50 00 16 30 30 20 27 00 fa 3d 32 00 00 02
d8 09 80 a0 20 e0 2d 10 08 60 22 00 12 8e 21 08
00 06 02 3a 80 d0 72 38 2d 40 10 2c 45 80 34 cd
31 00 00 06 66 21 56 aa 51 00 1b 30 50 82 a3 00
00 00 00 00 00 04 8c 0a d0 8a 20 e0 2d 10 10 3e
96 00 13 8e 21 00 00 00 00 00 00 00 00 00 00 00

00 ff ff ff ff ff ff 00 11 24 00 00 00 00 00 00
30 14 01 01 88 b4 65 78 ea f9 2d a3 55 46 98 25
11 47 4a bf ee 00 31 40 45 00 61 40 81 80 8b c0
a9 40 61 4a 81 c0 02 3a 80 18 71 38 2d 40 58 2c
45 00 13 8e 21 00 00 00 66 21 56 aa 51 00 1b 30
50 82 a3 00 ba d4 21 00 00 00 00 00 00 fd 00 01
55 01 50 10 00 00 00 00 00 00 00 00 00 00 00 fc
00 44 49 44 2d 48 44 4d 49 2d 46 48 44 0a 01 0a

02 03 1e 72 4a 90 1f 03 07 12 16 05 13 04 14 23
09 07 07 83 01 00 00 65 03 0c 00 20 00 fc ae 1a
00 a0 50 00 16 30 30 20 27 00 fa 3d 32 00 00 02
d8 09 80 a0 20 e0 2d 10 08 60 22 00 12 8e 21 08
00 06 02 3a 80 d0 72 38 2d 40 10 2c 45 80 34 cd
31 00 00 06 66 21 56 aa 51 00 1b 30 50 82 a3 00
00 00 00 00 00 04 8c 0a d0 8a 20 e0 2d 10 10 3e
96 00 13 8e 21 00 00 00 00 00 00 00 00 00 00 00

----------------

Block 0, Base EDID:
  EDID Structure Version & Revision: 1.1
  Vendor & Product Identification:
    Manufacturer: DID
    Model: 0
    Made in: week 48 of 2010
  Basic Display Parameters & Features:
    Digital display
    Maximum image size: 180 cm x 101 cm
    Gamma: 2.20
    DPMS levels: Standby Suspend Off
    RGB color display
    First detailed timing is the preferred timing
  Color Characteristics:
    Red  : 0.6396, 0.3349
    Green: 0.2753, 0.5947
    Blue : 0.1445, 0.0683
    White: 0.2802, 0.2900
  Established Timings I & II:
    IBM     :   720x400    70.081663 Hz   9:5     31.467 kHz     28.320000 MHz
    DMT 0x04:   640x480    59.940476 Hz   4:3     31.469 kHz     25.175000 MHz
    Apple   :   640x480    66.666667 Hz   4:3     35.000 kHz     30.240000 MHz
    DMT 0x05:   640x480    72.808802 Hz   4:3     37.861 kHz     31.500000 MHz
    DMT 0x06:   640x480    75.000000 Hz   4:3     37.500 kHz     31.500000 MHz
    DMT 0x08:   800x600    56.250000 Hz   4:3     35.156 kHz     36.000000 MHz
    DMT 0x09:   800x600    60.316541 Hz   4:3     37.879 kHz     40.000000 MHz
    DMT 0x0a:   800x600    72.187572 Hz   4:3     48.077 kHz     50.000000 MHz
    DMT 0x0b:   800x600    75.000000 Hz   4:3     46.875 kHz     49.500000 MHz
    Apple   :   832x624    74.551266 Hz   4:3     49.726 kHz     57.284000 MHz
    DMT 0x10:  1024x768    60.003840 Hz   4:3     48.363 kHz     65.000000 MHz
    DMT 0x11:  1024x768    70.069359 Hz   4:3     56.476 kHz     75.000000 MHz
    DMT 0x12:  1024x768    75.028582 Hz   4:3     60.023 kHz     78.750000 MHz
  Standard Timings:
    DMT 0x04:   640x480    59.940476 Hz   4:3     31.469 kHz     25.175000 MHz
    Unknown :   800x800    60.000 Hz   1:1
    DMT 0x10:  1024x768    60.003840 Hz   4:3     48.363 kHz     65.000000 MHz
    DMT 0x23:  1280x1024   60.019740 Hz   5:4     63.981 kHz    108.000000 MHz
    Unknown :  1360x765    60.000 Hz  16:9
    DMT 0x33:  1600x1200   60.000000 Hz   4:3     75.000 kHz    162.000000 MHz
    Unknown :  1024x768    70.000 Hz   4:3
    DMT 0x55:  1280x720    60.000000 Hz  16:9     45.000 kHz     74.250000 MHz
  Detailed Timing Descriptors:
    DTD  1:  1920x1080   60.000000 Hz  16:9     67.500 kHz    148.500000 MHz (analog composite, sync-on-green, 531 mm x 398 mm)
                  Hfront   88 Hsync  44 Hback  148 Hpol N
                  Vfront    4 Vsync   5 Vback   36 Vpol N
    DTD  2:  1366x768    60.015162 Hz 683:384   47.712 kHz     85.500000 MHz (analog composite, sync-on-green, 698 mm x 468 mm)
                  Hfront   80 Hsync 130 Hback  216 Hpol N
                  Vfront   10 Vsync   3 Vback   14 Vpol N
    Display Range Limits:
      Monitor ranges (GTF): 1-85 Hz V, 1-80 kHz H, max dotclock 160 MHz
    Display Product Name: 'DID-HDMI-FHD'
  Extension blocks: 1
Checksum: 0x0a

----------------

Block 1, CTA-861 Extension Block:
  Revision: 3
  Basic audio support
  Supports YCbCr 4:4:4
  Supports YCbCr 4:2:2
  Native detailed modes: 2
  Video Data Block:
    VIC  16:  1920x1080   60.000000 Hz  16:9     67.500 kHz    148.500000 MHz (native)
    VIC  31:  1920x1080   50.000000 Hz  16:9     56.250 kHz    148.500000 MHz
    VIC   3:   720x480    59.940060 Hz  16:9     31.469 kHz     27.000000 MHz
    VIC   7:  1440x480i   59.940060 Hz  16:9     15.734 kHz     27.000000 MHz
    VIC  18:   720x576    50.000000 Hz  16:9     31.250 kHz     27.000000 MHz
    VIC  22:  1440x576i   50.000000 Hz  16:9     15.625 kHz     27.000000 MHz
    VIC   5:  1920x1080i  60.000000 Hz  16:9     33.750 kHz     74.250000 MHz
    VIC  19:  1280x720    50.000000 Hz  16:9     37.500 kHz     74.250000 MHz
    VIC   4:  1280x720    60.000000 Hz  16:9     45.000 kHz     74.250000 MHz
    VIC  20:  1920x1080i  50.000000 Hz  16:9     28.125 kHz     74.250000 MHz
  Audio Data Block:
    Linear PCM:
      Max channels: 2
      Supported sample rates (kHz): 48 44.1 32
      Supported sample sizes (bits): 24 20 16
  Speaker Allocation Data Block:
    FL/FR - Front Left/Right
  Vendor-Specific Data Block (HDMI), OUI 00-0C-03:
    Source physical address: 2.0.0.0
  Unknown CTA-861 Data Block (extended tag 0xae, length 27):
    1a 00 a0 50 00 16 30 30 20 27 00 fa 3d 32 00 00 '...P..00 '..=2..'
    02 d8 09 80 a0 20 e0 2d 10 08 60                '..... .-..`'
  Detailed Timing Descriptors:
    DTD  3:  1280x768    60.038678 Hz   5:3     47.431 kHz     68.300000 MHz (analog composite, 1018 mm x 573 mm)
                  Hfront   48 Hsync  32 Hback   80 Hpol N
                  Vfront    2 Vsync   7 Vback   13 Vpol N
    DTD  4:   640x480    60.000000 Hz   4:3     31.500 kHz     25.200000 MHz (analog composite, serrate, 530 mm x 398 mm)
                  Hfront    8 Hsync  96 Hback   40 Hpol N Hborder 8
                  Vfront    2 Vsync   2 Vback   41 Vpol N
    DTD  5:  1920x1080   50.000000 Hz  16:9     56.250 kHz    148.500000 MHz (analog composite, serrate, 820 mm x 461 mm)
                  Hfront  528 Hsync  44 Hback  148 Hpol N
                  Vfront    4 Vsync   5 Vback   36 Vpol N
    DTD  6:  1366x768    60.015162 Hz 683:384   47.712 kHz     85.500000 MHz (analog composite, serrate, sync-on-green)
                  Hfront   80 Hsync 130 Hback  216 Hpol N
                  Vfront   10 Vsync   3 Vback   14 Vpol N
    DTD  7:   720x480    59.940060 Hz   3:2     31.469 kHz     27.000000 MHz (analog composite, sync-on-green, 531 mm x 398 mm)
                  Hfront   16 Hsync  62 Hback   60 Hpol N
                  Vfront    9 Vsync   6 Vback   30 Vpol N
Checksum: 0x00  Unused space in Extension Block: 7 bytes

----------------

Block 2, Unknown EDID Extension Block 0x00:
  00 ff ff ff ff ff ff 00 11 24 00 00 00 00 00 00 '.........$......'
  30 14 01 01 88 b4 65 78 ea f9 2d a3 55 46 98 25 '0.....ex..-.UF.%'
  11 47 4a bf ee 00 31 40 45 00 61 40 81 80 8b c0 '.GJ...1@E.a@....'
  a9 40 61 4a 81 c0 02 3a 80 18 71 38 2d 40 58 2c '.@aJ...:..q8-@X,'
  45 00 13 8e 21 00 00 00 66 21 56 aa 51 00 1b 30 'E...!...f!V.Q..0'
  50 82 a3 00 ba d4 21 00 00 00 00 00 00 fd 00 01 'P.....!.........'
  55 01 50 10 00 00 00 00 00 00 00 00 00 00 00 fc 'U.P.............'
  00 44 49 44 2d 48 44 4d 49 2d 46 48 44 0a 01 0a '.DID-HDMI-FHD...'
Checksum: 0x0a

----------------

Block 3, CTA-861 Extension Block:
  Revision: 3
  Basic audio support
  Supports YCbCr 4:4:4
  Supports YCbCr 4:2:2
  Native detailed modes: 2
  Video Data Block:
    VIC  16:  1920x1080   60.000000 Hz  16:9     67.500 kHz    148.500000 MHz (native)
    VIC  31:  1920x1080   50.000000 Hz  16:9     56.250 kHz    148.500000 MHz
    VIC   3:   720x480    59.940060 Hz  16:9     31.469 kHz     27.000000 MHz
    VIC   7:  1440x480i   59.940060 Hz  16:9     15.734 kHz     27.000000 MHz
    VIC  18:   720x576    50.000000 Hz  16:9     31.250 kHz     27.000000 MHz
    VIC  22:  1440x576i   50.000000 Hz  16:9     15.625 kHz     27.000000 MHz
    VIC   5:  1920x1080i  60.000000 Hz  16:9     33.750 kHz     74.250000 MHz
    VIC  19:  1280x720    50.000000 Hz  16:9     37.500 kHz     74.250000 MHz
    VIC   4:  1280x720    60.000000 Hz  16:9     45.000 kHz     74.250000 MHz
    VIC  20:  1920x1080i  50.000000 Hz  16:9     28.125 kHz     74.250000 MHz
  Audio Data Block:
    Linear PCM:
      Max channels: 2
      Supported sample rates (kHz): 48 44.1 32
      Supported sample sizes (bits): 24 20 16
  Speaker Allocation Data Block:
    FL/FR - Front Left/Right
  Vendor-Specific Data Block (HDMI), OUI 00-0C-03:
    Source physical address: 2.0.0.0
  Unknown CTA-861 Data Block (extended tag 0xae, length 27):
    1a 00 a0 50 00 16 30 30 20 27 00 fa 3d 32 00 00 '...P..00 '..=2..'
    02 d8 09 80 a0 20 e0 2d 10 08 60                '..... .-..`'
  Detailed Timing Descriptors:
    DTD  8:  1280x768    60.038678 Hz   5:3     47.431 kHz     68.300000 MHz (analog composite, 1018 mm x 573 mm)
                  Hfront   48 Hsync  32 Hback   80 Hpol N
                  Vfront    2 Vsync   7 Vback   13 Vpol N
    DTD  9:   640x480    60.000000 Hz   4:3     31.500 kHz     25.200000 MHz (analog composite, serrate, 530 mm x 398 mm)
                  Hfront    8 Hsync  96 Hback   40 Hpol N Hborder 8
                  Vfront    2 Vsync   2 Vback   41 Vpol N
    DTD 10:  1920x1080   50.000000 Hz  16:9     56.250 kHz    148.500000 MHz (analog composite, serrate, 820 mm x 461 mm)
                  Hfront  528 Hsync  44 Hback  148 Hpol N
                  Vfront    4 Vsync   5 Vback   36 Vpol N
    DTD 11:  1366x768    60.015162 Hz 683:384   47.712 kHz     85.500000 MHz (analog composite, serrate, sync-on-green)
                  Hfront   80 Hsync 130 Hback  216 Hpol N
                  Vfront   10 Vsync   3 Vback   14 Vpol N
    DTD 12:   720x480    59.940060 Hz   3:2     31.469 kHz     27.000000 MHz (analog composite, sync-on-green, 531 mm x 398 mm)
                  Hfront   16 Hsync  62 Hback   60 Hpol N
                  Vfront    9 Vsync   6 Vback   30 Vpol N
Checksum: 0x00  Unused space in Extension Block: 7 bytes

----------------

Warnings:

Block 0, Base EDID:
  EDID Structure Version & Revision: EDID 1.1 is deprecated, do not use.
  Standard Timings: Standard Timing 1360x765 has a dubious odd vertical resolution.
  Detailed Timing Descriptor #1: DTD is similar but not identical to VIC 16.
Block 1, CTA-861 Extension Block:
  IT Video Formats are overscanned by default, but normally this should be underscanned.
  Unknown CTA-861 Data Block (extended tag 0xae, length 27).
  Detailed Timing Descriptor #4: The use of non-zero borders in a DTD is not recommended.
  Detailed Timing Descriptor #5: DTD is similar but not identical to VIC 31.
  Add a Colorimetry Data Block with the sRGB colorimetry bit set to avoid interop issues.
Block 3, CTA-861 Extension Block:
  IT Video Formats are overscanned by default, but normally this should be underscanned.
  Unknown CTA-861 Data Block (extended tag 0xae, length 27).
  Detailed Timing Descriptor #9: The use of non-zero borders in a DTD is not recommended.
  Detailed Timing Descriptor #10: DTD is similar but not identical to VIC 31.
  Add a Colorimetry Data Block with the sRGB colorimetry bit set to avoid interop issues.
EDID:
  Base EDID: Some timings are out of range of the Monitor Ranges:
    Maximum Clock: 162.000 MHz (Monitor: 160.000 MHz)
    Could be due to a Monitor Range off-by-one rounding issue

Failures:

Block 0, Base EDID:
  Basic Display Parameters & Features: Digital Video Interface Standard set to reserved value 0x08.
  Detailed Timing Descriptor #1: Mismatch of image size 531x398 mm vs display size 1800x1010 mm.
  Detailed Timing Descriptor #2: Mismatch of image size 698x468 mm vs display size 1800x1010 mm.
  Display Range Limits: Byte 11 is 0x00 instead of 0x0a.
  Display Range Limits: Bytes 12-17 must be 0x20.
Block 1, CTA-861 Extension Block:
  Vendor-Specific Data Block (HDMI), OUI 00-0C-03: The HDMI Specification requires EDID 1.3 instead of 1.1.
  Offset is 30, but should be 58.
  Detailed Timing Descriptor #3: Mismatch of image size 1018x573 mm vs display size 1800x1010 mm.
  Detailed Timing Descriptor #4: Mismatch of image size 530x398 mm vs display size 1800x1010 mm.
  Detailed Timing Descriptor #5: Mismatch of image size 820x461 mm vs display size 1800x1010 mm.
  Detailed Timing Descriptor #6: Mismatch of image size vs display size: image size is not set, but display size is.
  Detailed Timing Descriptor #7: Mismatch of image size 531x398 mm vs display size 1800x1010 mm.
  Missing VCDB, needed for Set Selectable RGB Quantization to avoid interop issues.
Block 2, Base EDID:
  Unknown Extension Block.
Block 3, CTA-861 Extension Block:
  Video Data Block: Duplicate VIC 16.
  Video Data Block: Duplicate VIC 31.
  Video Data Block: Duplicate VIC 3.
  Video Data Block: Duplicate VIC 7.
  Video Data Block: Duplicate VIC 18.
  Video Data Block: Duplicate VIC 22.
  Video Data Block: Duplicate VIC 5.
  Video Data Block: Duplicate VIC 19.
  Video Data Block: Duplicate VIC 4.
  Video Data Block: Duplicate VIC 20.
  Speaker Allocation Data Block: Only one instance of this Data Block is allowed.
  Vendor-Specific Data Block (HDMI), OUI 00-0C-03: The HDMI Specification requires EDID 1.3 instead of 1.1.
  Offset is 30, but should be 58.
  Detailed Timing Descriptor #8: Mismatch of image size 1018x573 mm vs display size 1800x1010 mm.
  Detailed Timing Descriptor #9: Mismatch of image size 530x398 mm vs display size 1800x1010 mm.
  Detailed Timing Descriptor #10: Mismatch of image size 820x461 mm vs display size 1800x1010 mm.
  Detailed Timing Descriptor #11: Mismatch of image size vs display size: image size is not set, but display size is.
  Detailed Timing Descriptor #12: Mismatch of image size 531x398 mm vs display size 1800x1010 mm.
  Missing VCDB, needed for Set Selectable RGB Quantization to avoid interop issues.
EDID:
  Base EDID: EDID specified 1 extension block(s), but found 3 extension block(s).
  CTA-861: Native progressive timings are a mix of several resolutions.

EDID conformity: FAIL
