edid-decode (hex):

00 ff ff ff ff ff ff 00 26 cd 04 48 58 c3 98 00
25 0e 01 04 a5 26 1e 78 e7 de 3d a4 59 4b 98 26
21 52 56 bf ef 00 81 80 81 8f 61 40 61 59 45 40
45 59 31 40 31 59 bc 34 00 98 51 00 2a 40 10 90
13 00 78 2d 11 00 00 1e 00 00 00 ff 00 30 0a 20
20 20 20 20 20 20 20 20 20 20 00 00 00 fc 00 41
53 34 38 32 31 20 20 20 20 20 20 0a 00 00 00 fd
00 38 55 18 50 0e 00 0a 20 20 20 20 20 20 00 1c

00 ff ff ff ff ff ff 00 26 cd 04 48 58 c3 98 00
25 0e 01 04 a5 26 1e 78 e7 de 3d a4 59 4b 98 26
21 52 56 bf ef 00 81 80 81 8f 61 40 61 59 45 40
45 59 31 40 31 59 bc 34 00 98 51 00 2a 40 10 90
13 00 78 2d 11 00 00 1e 00 00 00 ff 00 30 0a 20
20 20 20 20 20 20 20 20 20 20 00 00 00 fc 00 41
53 34 38 32 31 20 20 20 20 20 20 0a 00 00 00 fd
00 38 55 18 50 0e 00 0a 20 20 20 20 20 20 00 1c

----------------

Block 0, Base EDID:
  EDID Structure Version & Revision: 1.4
  Vendor & Product Identification:
    Manufacturer: IVM
    Model: 18436
    Serial Number: ...
    Made in: week 37 of 2004
  Basic Display Parameters & Features:
    Digital display
    Bits per primary color channel: 8
    DisplayPort interface
    Maximum image size: 38 cm x 30 cm
    Gamma: 2.20
    DPMS levels: Standby Suspend Off
    Supported color formats: RGB 4:4:4
    Default (sRGB) color space is primary color space
    First detailed timing includes the native pixel format and preferred refresh rate
    Display is continuous frequency
  Color Characteristics:
    Red  : 0.6435, 0.3486
    Green: 0.2958, 0.5957
    Blue : 0.1484, 0.1318
    White: 0.3232, 0.3369
  Established Timings I & II:
    IBM     :   720x400    70.081663 Hz   9:5     31.467 kHz     28.320000 MHz
    DMT 0x04:   640x480    59.940476 Hz   4:3     31.469 kHz     25.175000 MHz
    Apple   :   640x480    66.666667 Hz   4:3     35.000 kHz     30.240000 MHz
    DMT 0x05:   640x480    72.808802 Hz   4:3     37.861 kHz     31.500000 MHz
    DMT 0x06:   640x480    75.000000 Hz   4:3     37.500 kHz     31.500000 MHz
    DMT 0x08:   800x600    56.250000 Hz   4:3     35.156 kHz     36.000000 MHz
    DMT 0x09:   800x600    60.316541 Hz   4:3     37.879 kHz     40.000000 MHz
    DMT 0x0a:   800x600    72.187572 Hz   4:3     48.077 kHz     50.000000 MHz
    DMT 0x0b:   800x600    75.000000 Hz   4:3     46.875 kHz     49.500000 MHz
    Apple   :   832x624    74.551266 Hz   4:3     49.726 kHz     57.284000 MHz
    DMT 0x10:  1024x768    60.003840 Hz   4:3     48.363 kHz     65.000000 MHz
    DMT 0x11:  1024x768    70.069359 Hz   4:3     56.476 kHz     75.000000 MHz
    DMT 0x12:  1024x768    75.028582 Hz   4:3     60.023 kHz     78.750000 MHz
    DMT 0x24:  1280x1024   75.024675 Hz   5:4     79.976 kHz    135.000000 MHz
  Standard Timings:
    DMT 0x23:  1280x1024   60.019740 Hz   5:4     63.981 kHz    108.000000 MHz
    DMT 0x24:  1280x1024   75.024675 Hz   5:4     79.976 kHz    135.000000 MHz
    DMT 0x10:  1024x768    60.003840 Hz   4:3     48.363 kHz     65.000000 MHz
    DMT 0x13:  1024x768    84.996690 Hz   4:3     68.677 kHz     94.500000 MHz
    DMT 0x09:   800x600    60.316541 Hz   4:3     37.879 kHz     40.000000 MHz
    DMT 0x0c:   800x600    85.061274 Hz   4:3     53.674 kHz     56.250000 MHz
    DMT 0x04:   640x480    59.940476 Hz   4:3     31.469 kHz     25.175000 MHz
    DMT 0x07:   640x480    85.008312 Hz   4:3     43.269 kHz     36.000000 MHz
  Detailed Timing Descriptors:
    DTD 1:  1280x1024   75.024675 Hz   5:4     79.976 kHz    135.000000 MHz (376 mm x 301 mm)
                 Hfront   16 Hsync 144 Hback  248 Hpol P
                 Vfront    1 Vsync   3 Vback   38 Vpol P
    Display Product Serial Number: ...
    Display Product Name: 'AS4821      '
    Display Range Limits:
      Monitor ranges (GTF): 56-85 Hz V, 24-80 kHz H, max dotclock 140 MHz
Checksum: 0x1c

----------------

Block 1, Unknown EDID Extension Block 0x00:
  00 ff ff ff ff ff ff 00 26 cd 04 48 58 c3 98 00 '........&..HX...'
  25 0e 01 04 a5 26 1e 78 e7 de 3d a4 59 4b 98 26 '%....&.x..=.YK.&'
  21 52 56 bf ef 00 81 80 81 8f 61 40 61 59 45 40 '!RV.......a@aYE@'
  45 59 31 40 31 59 bc 34 00 98 51 00 2a 40 10 90 'EY1@1Y.4..Q.*@..'
  13 00 78 2d 11 00 00 1e 00 00 00 ff 00 30 0a 20 '..x-.........0. '
  20 20 20 20 20 20 20 20 20 20 00 00 00 fc 00 41 '          .....A'
  53 34 38 32 31 20 20 20 20 20 20 0a 00 00 00 fd 'S4821      .....'
  00 38 55 18 50 0e 00 0a 20 20 20 20 20 20 00 1c '.8U.P...      ..'
Checksum: 0x1c

----------------

Warnings:

Block 0, Base EDID:
  Display Range Limits: GTF support is deprecated in EDID 1.4.

Failures:

Block 0, Base EDID:
  Basic Display Parameters & Features: sRGB is signaled, but the chromaticities do not match.
  Display Product Name: One or more trailing spaces.
Block 1, Base EDID:
  Unknown Extension Block.
EDID:
  Base EDID: EDID specified 0 extension block(s), but found 1 extension block(s).

EDID conformity: FAIL
