
EDID (hex):
00ffffffffffff0010ac8e4001000000
25160103812c1978ea64b5ab5238ab25
13505400000001010101010101010101
010101010101302a40c8608464301850
1300bbf91000001e0000001000000000
00000000000000000000000000fc0048
5020416c6c2d496e2d4f6e6500000010
00384c1e53100a0a0a0a0a0a0a0a0083

Extracted contents:
header:          00 ff ff ff ff ff ff 00
serial number:   10 ac 8e 40 01 00 00 00 25 16
version:         01 03
basic params:    81 2c 19 78 ea
chroma info:     64 b5 ab 52 38 ab 25 13 50 54
established:     00 00 00
standard:        01 01 01 01 01 01 01 01 01 01 01 01 01 01 01 01
descriptor 1:    30 2a 40 c8 60 84 64 30 18 50 13 00 bb f9 10 00 00 1e
descriptor 2:    00 00 00 10 00 00 00 00 00 00 00 00 00 00 00 00 00 00
descriptor 3:    00 00 00 fc 00 48 50 20 41 6c 6c 2d 49 6e 2d 4f 6e 65
descriptor 4:    00 00 00 10 00 38 4c 1e 53 10 0a 0a 0a 0a 0a 0a 0a 0a
extensions:      00
checksum:        83

EDID version: 1.3
Manufacturer: DEL Model 408e Serial Number --
Made in week 37 of 2012
Digital display
DFP 1.x compatible TMDS
Maximum image size: 44 cm x 25 cm
Gamma: 2.20
DPMS levels: Standby Suspend Off
RGB color display
First detailed timing is preferred timing
Display x,y Chromaticity:
  Red:   0.6689, 0.3222
  Green: 0.2197, 0.6679
  Blue:  0.1464, 0.0771
  White: 0.3134, 0.3291
Established timings supported:
Standard timings supported:
Detailed mode: Clock 108.000 MHz, 443 mm x 249 mm
               1600 1624 1704 1800 hborder 0
                900  901  904 1000 vborder 0
               +hsync +vsync 
               VertFreq: 60 Hz, HorFreq: 60000 Hz
Dummy block
Dummy block
Checksum: 0x83 (valid)
EDID block does NOT conform to EDID 1.3!
	Name descriptor not terminated with a newline
	Missing monitor ranges
EDID block does not conform at all!
	Dummy block filled with garbage
