
EDID (hex):
00ffffffffffff001c54023468000000
17200104b55022783ba135a94f4aa527
0c5054bfcf00814081809500714f81c0
b300d1c0a9c0e77c70a0d0a029503020
3a00204f3100001a4ed470a0d0a04650
30403a00204f3100001c000000fd0030
90e0e051010a202020202020000000fc
004d333457510a2020202020202002a0
020343f1520102031112130423242526
1f107071475c3f2309070783010000e2
00c067030c00100038786d1a00000201
3090000000000000e305c301e6060501
626213565e00a0a0a029503020350020
4f3100001a6fc200a0a0a05550302035
00204f3100001cf4b000a0a0384d4030
203a00204f3100001a0000000000002c
7012790000030128f7e30004ff099f00
07001f009f05310018000700b92d0186
6f0d9f002f803f009f05310002000900
00000000000000000000000000000000
00000000000000000000000000000000
00000000000000000000000000000000
00000000000000000000000000000000
00000000000000000000000000005490

Extracted contents:
header:          00 ff ff ff ff ff ff 00
serial number:   1c 54 02 34 68 00 00 00 17 20
version:         01 04
basic params:    b5 50 22 78 3b
chroma info:     a1 35 a9 4f 4a a5 27 0c 50 54
established:     bf cf 00
standard:        81 40 81 80 95 00 71 4f 81 c0 b3 00 d1 c0 a9 c0
descriptor 1:    e7 7c 70 a0 d0 a0 29 50 30 20 3a 00 20 4f 31 00 00 1a
descriptor 2:    4e d4 70 a0 d0 a0 46 50 30 40 3a 00 20 4f 31 00 00 1c
descriptor 3:    00 00 00 fd 00 30 90 e0 e0 51 01 0a 20 20 20 20 20 20
descriptor 4:    00 00 00 fc 00 4d 33 34 57 51 0a 20 20 20 20 20 20 20
extensions:      02
checksum:        a0

EDID version: 1.4
Manufacturer: GBT Model 3402 Serial Number --
Made in week 23 of 2022
Digital display
10 bits per primary color channel
DisplayPort interface
Maximum image size: 80 cm x 34 cm
Gamma: 2.20
DPMS levels: Off
Supported color formats: RGB 4:4:4, YCrCb 4:4:4, YCrCb 4:2:2
First detailed timing includes the native pixel format and preferred refresh rate
Display is continuous frequency
Display x,y Chromaticity:
  Red:   0.6621, 0.3105
  Green: 0.2890, 0.6455
  Blue:  0.1523, 0.0498
  White: 0.3134, 0.3291
Established timings supported:
  720x400@70Hz 9:5 HorFreq: 31469 Hz Clock: 28.320 MHz
  640x480@60Hz 4:3 HorFreq: 31469 Hz Clock: 25.175 MHz
  640x480@67Hz 4:3 HorFreq: 35000 Hz Clock: 30.240 MHz
  640x480@72Hz 4:3 HorFreq: 37900 Hz Clock: 31.500 MHz
  640x480@75Hz 4:3 HorFreq: 37500 Hz Clock: 31.500 MHz
  800x600@56Hz 4:3 HorFreq: 35200 Hz Clock: 36.000 MHz
  800x600@60Hz 4:3 HorFreq: 37900 Hz Clock: 40.000 MHz
  800x600@72Hz 4:3 HorFreq: 48100 Hz Clock: 50.000 MHz
  800x600@75Hz 4:3 HorFreq: 46900 Hz Clock: 49.500 MHz
  1024x768@60Hz 4:3 HorFreq: 48400 Hz Clock: 65.000 MHz
  1024x768@70Hz 4:3 HorFreq: 56500 Hz Clock: 75.000 MHz
  1024x768@75Hz 4:3 HorFreq: 60000 Hz Clock: 78.750 MHz
  1280x1024@75Hz 5:4 HorFreq: 80000 Hz Clock: 135.000 MHz
Standard timings supported:
  1280x960@60Hz 4:3 HorFreq: 60000 Hz Clock: 108.000 MHz
  1280x1024@60Hz 5:4 HorFreq: 64000 Hz Clock: 108.000 MHz
  1440x900@60Hz 16:10 HorFreq: 55500 Hz Clock: 88.750 MHz
  1152x864@75Hz 4:3 HorFreq: 67500 Hz Clock: 108.000 MHz
  1280x720@60Hz 16:9
  1680x1050@60Hz 16:10 HorFreq: 64700 Hz Clock: 119.000 MHz
  1920x1080@60Hz 16:9
  1600x900@60Hz 16:9
Detailed mode: Clock 319.750 MHz, 800 mm x 335 mm
               3440 3488 3520 3600 hborder 0
               1440 1443 1453 1481 vborder 0
               +hsync -vsync 
               VertFreq: 59 Hz, HorFreq: 88819 Hz
Detailed mode: Clock 543.500 MHz, 800 mm x 335 mm
               3440 3488 3552 3600 hborder 0
               1440 1443 1453 1510 vborder 0
               -hsync +vsync 
               VertFreq: 99 Hz, HorFreq: 150972 Hz
Monitor ranges (bare limits): 48-144Hz V, 224-224kHz H, max dotclock 810MHz
Monitor name: M34WQ
Has 2 extension blocks
Checksum: 0xa0 (valid)

CTA extension block
Extension version: 3
63 bytes of CTA data
  Video data block
    VIC   1 640x480@60Hz 4:3  HorFreq: 31469 Hz Clock: 25.175 MHz
    VIC   2 720x480@60Hz 4:3  HorFreq: 31469 Hz Clock: 27.000 MHz
    VIC   3 720x480@60Hz 16:9  HorFreq: 31469 Hz Clock: 27.000 MHz
    VIC  17 720x576@50Hz 4:3  HorFreq: 31250 Hz Clock: 27.000 MHz
    VIC  18 720x576@50Hz 16:9  HorFreq: 31250 Hz Clock: 27.000 MHz
    VIC  19 1280x720@50Hz 16:9  HorFreq: 37500 Hz Clock: 74.250 MHz
    VIC   4 1280x720@60Hz 16:9  HorFreq: 45000 Hz Clock: 74.250 MHz
    VIC  35 2880x480@60Hz 4:3  HorFreq: 31469 Hz Clock: 108.000 MHz
    VIC  36 2880x480@60Hz 16:9  HorFreq: 31469 Hz Clock: 108.000 MHz
    VIC  37 2880x576@50Hz 4:3  HorFreq: 31250 Hz Clock: 108.000 MHz
    VIC  38 2880x576@50Hz 16:9  HorFreq: 31250 Hz Clock: 108.000 MHz
    VIC  31 1920x1080@50Hz 16:9  HorFreq: 56250 Hz Clock: 148.500 MHz
    VIC  16 1920x1080@60Hz 16:9  HorFreq: 67500 Hz Clock: 148.500 MHz
    VIC 112 1920x1080@48Hz 64:27  HorFreq: 54000 Hz Clock: 148.500 MHz
    VIC 113 2560x1080@48Hz 64:27  HorFreq: 52800 Hz Clock: 198.000 MHz
    VIC  71 1280x720@120Hz 64:27  HorFreq: 91000 Hz Clock: 148.500 MHz
    VIC  92 2560x1080@120Hz 64:27  HorFreq: 150000 Hz Clock: 495.000 MHz
    VIC  63 1920x1080@120Hz 16:9  HorFreq: 135000 Hz Clock: 297.000 MHz
  Audio data block
    Linear PCM, max channels 2
      Supported sample rates (kHz): 48 44.1 32
      Supported sample sizes (bits): 24 20 16
  Speaker allocation data block
    Speaker map:
      FL/FR - Front Left/Right
  Extended tag: Video capability data block
    YCbCr quantization: Selectable (via AVI YQ) (1)
    RGB quantization: Selectable (via AVI Q) (1)
    PT scan behaviour: No Data (0)
    IT scan behaviour: IT video formats not supported (0)
    CE scan behaviour: CE video formats not supported (0)
  Vendor-specific data block, OUI 000c03 (HDMI)
    Source physical address 1.0.0.0
    DC_36bit
    DC_30bit
    DC_Y444
    Maximum TMDS clock: 600MHz
  Vendor-specific data block, OUI 00001a
  Extended tag: Colorimetry data block
    xvYCC601
    xvYCC709
    BT2020YCC
    BT2020RGB
  Extended tag: HDR static metadata data block
    Electro optical transfer functions:
      Traditional gamma - SDR luminance range
      SMPTE ST2084
    Supported static metadata descriptors:
      Static metadata type 1
    Desired content max luminance: 98 (417.710 cd/m^2)
    Desired content max frame-average luminance: 98 (417.710 cd/m^2)
    Desired content min luminance: 19 (0.023 cd/m^2)
Underscans PC formats by default
Basic audio support
Supports YCbCr 4:4:4
Supports YCbCr 4:2:2
1 native detailed modes
Detailed mode: Clock 241.500 MHz, 800 mm x 335 mm
               2560 2608 2640 2720 hborder 0
               1440 1443 1448 1481 vborder 0
               +hsync -vsync 
               VertFreq: 59 Hz, HorFreq: 88786 Hz
Detailed mode: Clock 497.750 MHz, 800 mm x 335 mm
               2560 2608 2640 2720 hborder 0
               1440 1443 1448 1525 vborder 0
               -hsync +vsync 
               VertFreq: 119 Hz, HorFreq: 182996 Hz
Detailed mode: Clock 453.000 MHz, 800 mm x 335 mm
               2560 2608 2640 2720 hborder 0
               1080 1083 1093 1157 vborder 0
               +hsync -vsync 
               VertFreq: 143 Hz, HorFreq: 166544 Hz
Checksum: 0x2c (valid)


DisplayID extension block
Extension version: 18
Length 121, version 18, extension count 0
Checksum: 0x54 (valid)
Type 1 detailed timing: aspect: 16:9,  
Detailed mode: Clock 583.590 MHz, 0 mm x 0 mm
               2559 2566 2597 2718
               1439 1463 1470 1488
               -hsync -vsync
Type 1 detailed timing: aspect: 64:27, Preferred  
Detailed mode: Clock 772.410 MHz, 0 mm x 0 mm
               3439 3486 3549 3598
               1439 1441 1450 1488
               +hsync -vsync

EDID block does NOT conform to EDID 1.4!
	HDMI VSDB Max TMDS rate is > 340
Warning: One or more of the timings is out of range of the Monitor Ranges:
  Vertical Freq: 48 - 143 Hz
  Horizontal Freq: 31250 - 182996 Hz
  Maximum Clock: 543.500 MHz
