
EDID (hex):
00ffffffffffff005262060201010101
ff130103805932780af09da355499b26
0f474a21080081808bc0010101010101
010101010101023a801871382d40582c
450076f23100001e662150b051001b30
4070360076f23100001e000000fc0054
4f53484942412d54560a2020000000fd
00173d0f440f000a2020202020200124

Extracted contents:
header:          00 ff ff ff ff ff ff 00
serial number:   52 62 06 02 01 01 01 01 ff 13
version:         01 03
basic params:    80 59 32 78 0a
chroma info:     f0 9d a3 55 49 9b 26 0f 47 4a
established:     21 08 00
standard:        81 80 8b c0 01 01 01 01 01 01 01 01 01 01 01 01
descriptor 1:    02 3a 80 18 71 38 2d 40 58 2c 45 00 76 f2 31 00 00 1e
descriptor 2:    66 21 50 b0 51 00 1b 30 40 70 36 00 76 f2 31 00 00 1e
descriptor 3:    00 00 00 fc 00 54 4f 53 48 49 42 41 2d 54 56 0a 20 20
descriptor 4:    00 00 00 fd 00 17 3d 0f 44 0f 00 0a 20 20 20 20 20 20
extensions:      01
checksum:        24

EDID version: 1.3
Manufacturer: TSB Model 206 Serial Number --
Digital display
Maximum image size: 89 cm x 50 cm
Gamma: 2.20
RGB color display
First detailed timing is preferred timing
Display x,y Chromaticity:
  Red:   0.6396, 0.3349
  Green: 0.2851, 0.6054
  Blue:  0.1503, 0.0595
  White: 0.2802, 0.2900
Established timings supported:
  640x480@60Hz 4:3 HorFreq: 31469 Hz Clock: 25.175 MHz
  800x600@60Hz 4:3 HorFreq: 37900 Hz Clock: 40.000 MHz
  1024x768@60Hz 4:3 HorFreq: 48400 Hz Clock: 65.000 MHz
Standard timings supported:
  1280x1024@60Hz 5:4 HorFreq: 64000 Hz Clock: 108.000 MHz
  1360x765@60Hz 16:9
Detailed mode: Clock 148.500 MHz, 886 mm x 498 mm
               1920 2008 2052 2200 hborder 0
               1080 1084 1089 1125 vborder 0
               +hsync +vsync 
               VertFreq: 60 Hz, HorFreq: 67500 Hz
Detailed mode: Clock 85.500 MHz, 886 mm x 498 mm
               1360 1424 1536 1792 hborder 0
                768  771  777  795 vborder 0
               +hsync +vsync 
               VertFreq: 60 Hz, HorFreq: 47712 Hz
Monitor name: TOSHIBA-TV
Monitor ranges (GTF): 23-61Hz V, 15-68kHz H, max dotclock 150MHz
Has 1 extension blocks
Checksum: 0x24 (valid)
EDID block does not conform at all!
	Bad year of manufacture
	Bad week of manufacture


