
EDID (hex):
00ffffffffffff00320c400100000000
00120103901e13780ad7859359548c29
22505400000001010101010101010101
010101010101b027a08051841a303020
360030be1000001ab027a0805184e731
3020aa0030be1000001a000000fe0043
54303038803134315750320a00000000
00000000000000000002010a202000ea

Extracted contents:
header:          00 ff ff ff ff ff ff 00
serial number:   32 0c 40 01 00 00 00 00 00 12
version:         01 03
basic params:    90 1e 13 78 0a
chroma info:     d7 85 93 59 54 8c 29 22 50 54
established:     00 00 00
standard:        01 01 01 01 01 01 01 01 01 01 01 01 01 01 01 01
descriptor 1:    b0 27 a0 80 51 84 1a 30 30 20 36 00 30 be 10 00 00 1a
descriptor 2:    b0 27 a0 80 51 84 e7 31 30 20 aa 00 30 be 10 00 00 1a
descriptor 3:    00 00 00 fe 00 43 54 30 30 38 80 31 34 31 57 50 32 0a
descriptor 4:    00 00 00 00 00 00 00 00 00 00 00 00 00 02 01 0a 20 20
extensions:      00
checksum:        ea

EDID version: 1.3
Manufacturer: LPL Model 140 Serial Number --
Made in year 2008
Digital display
Maximum image size: 30 cm x 19 cm
Gamma: 2.20
RGB color display
First detailed timing is preferred timing
Display x,y Chromaticity:
  Red:   0.5771, 0.3486
  Green: 0.3291, 0.5498
  Blue:  0.1621, 0.1328
  White: 0.3134, 0.3291
Established timings supported:
Standard timings supported:
Detailed mode: Clock 101.600 MHz, 304 mm x 190 mm
               1440 1488 1520 1824 hborder 0
                900  903  909  926 vborder 0
               +hsync -vsync 
               VertFreq: 60 Hz, HorFreq: 55701 Hz
Detailed mode: Clock 101.600 MHz, 304 mm x 190 mm
               1440 1488 1520 1824 hborder 0
                900  910  920 1387 vborder 0
               +hsync -vsync 
               VertFreq: 40 Hz, HorFreq: 55701 Hz
ASCII string: CT008
Manufacturer-specified data, tag 0
Checksum: 0xea (valid)
EDID block does NOT conform to EDID 1.3!
	Digital display field contains garbage: 10
	Missing name descriptor
	Missing monitor ranges
	Detailed block string not properly terminated
