
EDID (hex):
00ffffffffffff0030e46e0500000000
001b01049522137803cde5955b558f27
1d505400000001010101010101010101
010101010101243680a070381f403020
350058c210000019000000fd00283c43
430e010a202020202020000000000000
00000000000000000000000000000002
000c44ff0a3c6e1215246e00000000d5

Extracted contents:
header:          00 ff ff ff ff ff ff 00
serial number:   30 e4 6e 05 00 00 00 00 00 1b
version:         01 04
basic params:    95 22 13 78 03
chroma info:     cd e5 95 5b 55 8f 27 1d 50 54
established:     00 00 00
standard:        01 01 01 01 01 01 01 01 01 01 01 01 01 01 01 01
descriptor 1:    24 36 80 a0 70 38 1f 40 30 20 35 00 58 c2 10 00 00 19
descriptor 2:    00 00 00 fd 00 28 3c 43 43 0e 01 0a 20 20 20 20 20 20
descriptor 3:    00 00 00 00 00 00 00 00 00 00 00 00 00 00 00 00 00 00
descriptor 4:    00 00 00 02 00 0c 44 ff 0a 3c 6e 12 15 24 6e 00 00 00
extensions:      00
checksum:        d5

EDID version: 1.4
Manufacturer: LGD Model 56e Serial Number --
Made in year 2017
Digital display
6 bits per primary color channel
DisplayPort interface
Maximum image size: 34 cm x 19 cm
Gamma: 2.20
Supported color formats: RGB 4:4:4
First detailed timing includes the native pixel format and preferred refresh rate
Display is continuous frequency
Display x,y Chromaticity:
  Red:   0.5849, 0.3554
  Green: 0.3349, 0.5595
  Blue:  0.1552, 0.1152
  White: 0.3134, 0.3291
Established timings supported:
Standard timings supported:
Detailed mode: Clock 138.600 MHz, 344 mm x 194 mm
               1920 1968 2000 2080 hborder 0
               1080 1083 1088 1111 vborder 0
               -hsync -vsync 
               VertFreq: 59 Hz, HorFreq: 66634 Hz
Monitor ranges (bare limits): 40-60Hz V, 67-67kHz H, max dotclock 140MHz
Manufacturer-specified data, tag 0
Manufacturer-specified data, tag 2
Checksum: 0xd5 (valid)
EDID block does NOT conform to EDID 1.4!
	Missing name descriptor
Warning: One or more of the timings is out of range of the Monitor Ranges:
  Vertical Freq: 59 - 59 Hz
  Horizontal Freq: 66634 - 66634 Hz
  Maximum Clock: 138.600 MHz
