
EDID (hex):
00ffffffffffff001ab3a40701000000
0913010368321d822ad425a455499b27
135054a54b0081c08180a94001010101
010101010101023a801871382d40582c
9600f1241100001e000000fd00324c1c
5210000a202020202020000000fc004c
4c2033323230540a20202020000000ff
00594538483230383433300a20200035

Extracted contents:
header:          00 ff ff ff ff ff ff 00
serial number:   1a b3 a4 07 01 00 00 00 09 13
version:         01 03
basic params:    68 32 1d 82 2a
chroma info:     d4 25 a4 55 49 9b 27 13 50 54
established:     a5 4b 00
standard:        81 c0 81 80 a9 40 01 01 01 01 01 01 01 01 01 01
descriptor 1:    02 3a 80 18 71 38 2d 40 58 2c 96 00 f1 24 11 00 00 1e
descriptor 2:    00 00 00 fd 00 32 4c 1c 52 10 00 0a 20 20 20 20 20 20
descriptor 3:    00 00 00 fc 00 4c 4c 20 33 32 32 30 54 0a 20 20 20 20
descriptor 4:    00 00 00 ff 00 59 45 38 48 32 30 38 34 33 30 0a 20 20
extensions:      00
checksum:        35

EDID version: 1.3
Manufacturer: FUS Model 7a4 Serial Number --
Made in week 9 of 2009
Analog display, Input voltage level: 0.7/0.7 V
Sync: Separate 
Maximum image size: 50 cm x 29 cm
Gamma: 2.30
DPMS levels: Off
RGB color display
First detailed timing is preferred timing
Display x,y Chromaticity:
  Red:   0.6435, 0.3330
  Green: 0.2861, 0.6054
  Blue:  0.1523, 0.0761
  White: 0.3134, 0.3291
Established timings supported:
  720x400@70Hz 9:5 HorFreq: 31469 Hz Clock: 28.320 MHz
  640x480@60Hz 4:3 HorFreq: 31469 Hz Clock: 25.175 MHz
  640x480@75Hz 4:3 HorFreq: 37500 Hz Clock: 31.500 MHz
  800x600@60Hz 4:3 HorFreq: 37900 Hz Clock: 40.000 MHz
  800x600@75Hz 4:3 HorFreq: 46900 Hz Clock: 49.500 MHz
  1024x768@60Hz 4:3 HorFreq: 48400 Hz Clock: 65.000 MHz
  1024x768@75Hz 4:3 HorFreq: 60000 Hz Clock: 78.750 MHz
  1280x1024@75Hz 5:4 HorFreq: 80000 Hz Clock: 135.000 MHz
Standard timings supported:
  1280x720@60Hz 16:9
  1280x1024@60Hz 5:4 HorFreq: 64000 Hz Clock: 108.000 MHz
  1600x1200@60Hz 4:3 HorFreq: 75000 Hz Clock: 162.000 MHz
Detailed mode: Clock 148.500 MHz, 497 mm x 292 mm
               1920 2008 2052 2200 hborder 0
               1080 1089 1095 1125 vborder 0
               +hsync +vsync 
               VertFreq: 60 Hz, HorFreq: 67500 Hz
Monitor ranges (GTF): 50-76Hz V, 28-82kHz H, max dotclock 160MHz
Monitor name: LL 3220T
Serial number: --
Checksum: 0x35 (valid)
One or more of the timings is out of range of the Monitor Ranges:
  Vertical Freq: 60 - 75 Hz
  Horizontal Freq: 31469 - 80000 Hz
  Maximum Clock: 162.000 MHz


