edid-decode (hex):

00 ff ff ff ff ff ff 00 25 cf 00 00 00 00 00 00
01 14 01 03 68 24 1d 78 ea 09 25 a2 57 4b 9a 24
18 50 54 a5 6b 00 31 4f 95 00 d1 c0 b3 00 81 80
81 c0 a9 c0 01 01 02 3a 80 18 71 38 2d 40 40 20
15 00 15 2c 21 00 00 1e 00 00 00 fd 00 37 4b 1e
50 0f 00 0a 20 20 20 20 20 20 00 00 00 fc 00 49
4e 4e 4f 2d 56 47 41 0a 20 20 20 20 66 21 56 b0
51 00 1b 30 40 70 36 00 fc 44 32 00 00 1e 00 e3

00 ff ff ff ff ff ff 00 25 cf 00 00 00 00 00 00
01 14 01 03 68 24 1d 78 ea 09 25 a2 57 4b 9a 24
18 50 54 a5 6b 00 31 4f 95 00 d1 c0 b3 00 81 80
81 c0 a9 c0 01 01 02 3a 80 18 71 38 2d 40 40 20
15 00 15 2c 21 00 00 1e 00 00 00 fd 00 37 4b 1e
50 0f 00 0a 20 20 20 20 20 20 00 00 00 fc 00 49
4e 4e 4f 2d 56 47 41 0a 20 20 20 20 66 21 56 b0
51 00 1b 30 40 70 36 00 fc 44 32 00 00 1e 00 e3

----------------

Block 0, Base EDID:
  EDID Structure Version & Revision: 1.3
  Vendor & Product Identification:
    Manufacturer: INO
    Model: 0
    Made in: week 1 of 2010
  Basic Display Parameters & Features:
    Analog display
    Signal Level Standard: 0.700 : 0.000 : 0.700 V p-p
    Blank level equals black level
    Sync: Separate
    Maximum image size: 36 cm x 29 cm
    Gamma: 2.20
    DPMS levels: Standby Suspend Off
    RGB color display
    First detailed timing is the preferred timing
  Color Characteristics:
    Red  : 0.6328, 0.3398
    Green: 0.2949, 0.6025
    Blue : 0.1406, 0.0957
    White: 0.3134, 0.3291
  Established Timings I & II:
    IBM     :   720x400    70.081663 Hz   9:5     31.467 kHz     28.320000 MHz
    DMT 0x04:   640x480    59.940476 Hz   4:3     31.469 kHz     25.175000 MHz
    DMT 0x06:   640x480    75.000000 Hz   4:3     37.500 kHz     31.500000 MHz
    DMT 0x09:   800x600    60.316541 Hz   4:3     37.879 kHz     40.000000 MHz
    DMT 0x0b:   800x600    75.000000 Hz   4:3     46.875 kHz     49.500000 MHz
    Apple   :   832x624    74.551266 Hz   4:3     49.726 kHz     57.284000 MHz
    DMT 0x10:  1024x768    60.003840 Hz   4:3     48.363 kHz     65.000000 MHz
    DMT 0x12:  1024x768    75.028582 Hz   4:3     60.023 kHz     78.750000 MHz
    DMT 0x24:  1280x1024   75.024675 Hz   5:4     79.976 kHz    135.000000 MHz
  Standard Timings:
    DMT 0x06:   640x480    75.000000 Hz   4:3     37.500 kHz     31.500000 MHz
    DMT 0x2f:  1440x900    59.887445 Hz  16:10    55.935 kHz    106.500000 MHz
    DMT 0x52:  1920x1080   60.000000 Hz  16:9     67.500 kHz    148.500000 MHz
    DMT 0x3a:  1680x1050   59.954250 Hz  16:10    65.290 kHz    146.250000 MHz
    DMT 0x23:  1280x1024   60.019740 Hz   5:4     63.981 kHz    108.000000 MHz
    DMT 0x55:  1280x720    60.000000 Hz  16:9     45.000 kHz     74.250000 MHz
    DMT 0x53:  1600x900    60.000000 Hz  16:9     60.000 kHz    108.000000 MHz (RB)
  Detailed Timing Descriptors:
    DTD 1:  1920x1080   60.000000 Hz  16:9     67.500 kHz    148.500000 MHz (533 mm x 300 mm)
                 Hfront   64 Hsync  32 Hback  184 Hpol P
                 Vfront    1 Vsync   5 Vback   39 Vpol P
    Display Range Limits:
      Monitor ranges (GTF): 55-75 Hz V, 30-80 kHz H, max dotclock 150 MHz
    Display Product Name: 'INNO-VGA'
    DTD 2:  1366x768    59.814889 Hz 683:384   47.553 kHz     85.500000 MHz (1020 mm x 580 mm)
                 Hfront   64 Hsync 112 Hback  256 Hpol P
                 Vfront    3 Vsync   6 Vback   18 Vpol P
Checksum: 0xe3

----------------

Block 1, Unknown EDID Extension Block 0x00:
  00 ff ff ff ff ff ff 00 25 cf 00 00 00 00 00 00 '........%.......'
  01 14 01 03 68 24 1d 78 ea 09 25 a2 57 4b 9a 24 '....h$.x..%.WK.$'
  18 50 54 a5 6b 00 31 4f 95 00 d1 c0 b3 00 81 80 '.PT.k.1O........'
  81 c0 a9 c0 01 01 02 3a 80 18 71 38 2d 40 40 20 '.......:..q8-@@ '
  15 00 15 2c 21 00 00 1e 00 00 00 fd 00 37 4b 1e '...,!........7K.'
  50 0f 00 0a 20 20 20 20 20 20 00 00 00 fc 00 49 'P...      .....I'
  4e 4e 4f 2d 56 47 41 0a 20 20 20 20 66 21 56 b0 'NNO-VGA.    f!V.'
  51 00 1b 30 40 70 36 00 fc 44 32 00 00 1e 00 e3 'Q..0@p6..D2.....'
Checksum: 0xe3

----------------

Warnings:

Block 0, Base EDID:
  Detailed Timing Descriptor #1: DTD is similar but not identical to VIC 16.

Failures:

Block 0, Base EDID:
  Detailed Timing Descriptor #1: Mismatch of image size 533x300 mm vs display size 360x290 mm.
  Detailed Timing Descriptor #2: Mismatch of image size 1020x580 mm vs display size 360x290 mm.
  Detailed Timing Descriptor #2: Invalid detailed timing descriptor ordering.
Block 1, Base EDID:
  Unknown Extension Block.
EDID:
  Base EDID: The DTD max image size is 1020x580mm, which is larger than the display size 360.0x290.0mm.
  Base EDID: EDID specified 0 extension block(s), but found 1 extension block(s).

EDID conformity: FAIL
