
EDID (hex):
00ffffffffffff000dae701700000000
1e1f0104a526157803ee95a3544c9926
0f505400000001010101010101010101
0101010101011a9980a070383e403020
a5007dd6100000181a9980a070380c48
3020a5007dd610000018000000fd003c
a5bcbc27010a202020202020000000fe
004e313733484d452d4741310a20011d
02031700721a000003013ca500000000
0000a500000000000000000000000000
00000000000000000000000000000000
00000000000000000000000000000000
00000000000000000000000000000000
00000000000000000000000000000000
00000000000000000000000000000000
000000000000000000000000000000ce

edid-decode (hex):

00 ff ff ff ff ff ff 00 0d ae 70 17 00 00 00 00
1e 1f 01 04 a5 26 15 78 03 ee 95 a3 54 4c 99 26
0f 50 54 00 00 00 01 01 01 01 01 01 01 01 01 01
01 01 01 01 01 01 1a 99 80 a0 70 38 3e 40 30 20
a5 00 7d d6 10 00 00 18 1a 99 80 a0 70 38 0c 48
30 20 a5 00 7d d6 10 00 00 18 00 00 00 fd 00 3c
a5 bc bc 27 01 0a 20 20 20 20 20 20 00 00 00 fe
00 4e 31 37 33 48 4d 45 2d 47 41 31 0a 20 01 1d

02 03 17 00 72 1a 00 00 03 01 3c a5 00 00 00 00
00 00 a5 00 00 00 00 00 00 00 00 00 00 00 00 00
00 00 00 00 00 00 00 00 00 00 00 00 00 00 00 00
00 00 00 00 00 00 00 00 00 00 00 00 00 00 00 00
00 00 00 00 00 00 00 00 00 00 00 00 00 00 00 00
00 00 00 00 00 00 00 00 00 00 00 00 00 00 00 00
00 00 00 00 00 00 00 00 00 00 00 00 00 00 00 00
00 00 00 00 00 00 00 00 00 00 00 00 00 00 00 ce

----------------

Block 0, Base EDID:
  EDID Structure Version & Revision: 1.4
  Vendor & Product Identification:
    Manufacturer: CMN
    Model: 6000
    Made in: week 30 of 2021
  Basic Display Parameters & Features:
    Digital display
    Bits per primary color channel: 8
    DisplayPort interface
    Maximum image size: 38 cm x 21 cm
    Gamma: 2.20
    Supported color formats: RGB 4:4:4
    First detailed timing includes the native pixel format and preferred refresh rate
    Display is continuous frequency
  Color Characteristics:
    Red  : 0.6396, 0.3300
    Green: 0.2998, 0.5996
    Blue : 0.1503, 0.0595
    White: 0.3134, 0.3291
  Established Timings I & II: none
  Standard Timings: none
  Detailed Timing Descriptors:
    DTD 1:  1920x1080  165.002358 Hz  16:9    188.433 kHz    391.940000 MHz (381 mm x 214 mm)
                 Hfront   48 Hsync  32 Hback   80 Hpol N
                 Vfront   10 Vsync   5 Vback   47 Vpol N
    DTD 2:  1920x1080   60.010412 Hz  16:9    188.433 kHz    391.940000 MHz (381 mm x 214 mm)
                 Hfront   48 Hsync  32 Hback   80 Hpol N
                 Vfront   10 Vsync   5 Vback 2045 Vpol N
    Display Range Limits:
      Monitor ranges (Bare Limits): 60-165 Hz V, 188-188 kHz H, max dotclock 390 MHz
    Alphanumeric Data String: 'N173HME-GA1'
  Extension blocks: 1
Checksum: 0x1d

----------------

Block 1, CTA-861 Extension Block:
  Revision: 3
  Native detailed modes: 0
  Vendor-Specific Data Block (AMD), OUI 00-00-1A:
    Version: 3.1
    Minimum Refresh Rate: 60 Hz
    Maximum Refresh Rate: 165 Hz
    Flags 1.x: 0x00
    Flags 2.x: 0x00
    Maximum luminance: 0 (50.000 cd/m^2)
    Minimum luminance: 0 (0.000 cd/m^2)
    Unknown: 0x00 0x00
Checksum: 0xce  Unused space in Extension Block: 104 bytes
