
EDID (hex):
00ffffffffffff0006af8cc600000000
001d0104a522137802a685a6544aa21d
0e505400000001010101010101010101
01010101010152d000a0f0703e803020
350058c11000001852d000a0f0703e80
3020350058c110000018000000fe0041
554f0a202020202020202020000000fe
00423135365a414e30332e37200a0089

edid-decode (hex):

00 ff ff ff ff ff ff 00 06 af 8c c6 00 00 00 00
00 1d 01 04 a5 22 13 78 02 a6 85 a6 54 4a a2 1d
0e 50 54 00 00 00 01 01 01 01 01 01 01 01 01 01
01 01 01 01 01 01 52 d0 00 a0 f0 70 3e 80 30 20
35 00 58 c1 10 00 00 18 52 d0 00 a0 f0 70 3e 80
30 20 35 00 58 c1 10 00 00 18 00 00 00 fe 00 41
55 4f 0a 20 20 20 20 20 20 20 20 20 00 00 00 fe
00 42 31 35 36 5a 41 4e 30 33 2e 37 20 0a 00 89

----------------

Block 0, Base EDID:
  EDID Structure Version & Revision: 1.4
  Vendor & Product Identification:
    Manufacturer: AUO
    Model: 50828
    Made in: 2019
  Basic Display Parameters & Features:
    Digital display
    Bits per primary color channel: 8
    DisplayPort interface
    Maximum image size: 34 cm x 19 cm
    Gamma: 2.20
    Supported color formats: RGB 4:4:4
    First detailed timing includes the native pixel format and preferred refresh rate
  Color Characteristics:
    Red  : 0.6503, 0.3300
    Green: 0.2900, 0.6347
    Blue : 0.1152, 0.0546
    White: 0.3134, 0.3291
  Established Timings I & II: none
  Standard Timings: none
  Detailed Timing Descriptors:
    DTD 1:  3840x2160   60.002250 Hz  16:9    133.325 kHz    533.300000 MHz (344 mm x 193 mm)
                 Hfront   48 Hsync  32 Hback   80 Hpol N
                 Vfront    3 Vsync   5 Vback   54 Vpol N
    DTD 2:  3840x2160   60.002250 Hz  16:9    133.325 kHz    533.300000 MHz (344 mm x 193 mm)
                 Hfront   48 Hsync  32 Hback   80 Hpol N
                 Vfront    3 Vsync   5 Vback   54 Vpol N
    Alphanumeric Data String: 'AUO'
    Alphanumeric Data String: 'B156ZAN03.7 '
Checksum: 0x89
