edid-decode (hex):

00 ff ff ff ff ff ff 00 30 ae 74 40 00 00 00 00
0a 14 01 03 80 1d 12 78 ea d0 a3 96 5b 57 94 26
23 52 59 00 00 00 01 01 01 01 01 01 01 01 01 01
01 01 01 01 01 01 d8 27 a0 8c 51 84 1a 30 30 20
36 00 1f b4 10 00 00 18 34 21 a0 8c 51 84 1a 30
30 20 36 00 1f b4 10 00 00 18 00 00 00 0f 00 95
0a 32 95 0a 28 1e 01 00 30 64 00 55 00 00 00 fe
00 4c 54 44 31 33 33 45 51 31 42 0a 20 20 00 87

00 ff ff ff ff ff ff 00 30 ae 74 40 00 00 00 00
0a 14 01 03 80 1d 12 78 ea d0 a3 96 5b 57 94 26
23 52 59 00 00 00 01 01 01 01 01 01 01 01 01 01
01 01 01 01 01 01 d8 27 a0 8c 51 84 1a 30 30 20
36 00 1f b4 10 00 00 18 34 21 a0 8c 51 84 1a 30
30 20 36 00 1f b4 10 00 00 18 00 00 00 0f 00 95
0a 32 95 0a 28 1e 01 00 30 64 00 55 00 00 00 fe
00 4c 54 44 31 33 33 45 51 31 42 0a 20 20 00 87

----------------

Block 0, Base EDID:
  EDID Structure Version & Revision: 1.3
  Vendor & Product Identification:
    Manufacturer: LEN
    Model: 16500
    Made in: week 10 of 2010
  Basic Display Parameters & Features:
    Digital display
    Maximum image size: 29 cm x 18 cm
    Gamma: 2.20
    DPMS levels: Standby Suspend Off
    RGB color display
    First detailed timing is the preferred timing
  Color Characteristics:
    Red  : 0.5888, 0.3564
    Green: 0.3398, 0.5781
    Blue : 0.1503, 0.1386
    White: 0.3203, 0.3505
  Established Timings I & II: none
  Standard Timings: none
  Detailed Timing Descriptors:
    DTD 1:  1440x900    59.995200 Hz  16:10    55.556 kHz    102.000000 MHz (287 mm x 180 mm)
                 Hfront   48 Hsync  32 Hback  316 Hpol N
                 Vfront    3 Vsync   6 Vback   17 Vpol N
    DTD 2:  1440x900    49.996000 Hz  16:10    46.296 kHz     85.000000 MHz (287 mm x 180 mm)
                 Hfront   48 Hsync  32 Hback  316 Hpol N
                 Vfront    3 Vsync   6 Vback   17 Vpol N
    Manufacturer-Specified Display Descriptor (0x0f): 00 0f 00 95 0a 32 95 0a 28 1e 01 00 30 64 00 55 '.....2..(...0d.U'
    Alphanumeric Data String: 'LTD133EQ1B'
Checksum: 0x87

----------------

Block 1, Unknown EDID Extension Block 0x00:
  00 ff ff ff ff ff ff 00 30 ae 74 40 00 00 00 00 '........0.t@....'
  0a 14 01 03 80 1d 12 78 ea d0 a3 96 5b 57 94 26 '.......x....[W.&'
  23 52 59 00 00 00 01 01 01 01 01 01 01 01 01 01 '#RY.............'
  01 01 01 01 01 01 d8 27 a0 8c 51 84 1a 30 30 20 '.......'..Q..00 '
  36 00 1f b4 10 00 00 18 34 21 a0 8c 51 84 1a 30 '6.......4!..Q..0'
  30 20 36 00 1f b4 10 00 00 18 00 00 00 0f 00 95 '0 6.............'
  0a 32 95 0a 28 1e 01 00 30 64 00 55 00 00 00 fe '.2..(...0d.U....'
  00 4c 54 44 31 33 33 45 51 31 42 0a 20 20 00 87 '.LTD133EQ1B.  ..'
Checksum: 0x87

----------------

Failures:

Block 0, Base EDID:
  Missing Display Product Name.
  Missing Display Range Limits Descriptor.
Block 1, Base EDID:
  Unknown Extension Block.
EDID:
  Base EDID: EDID specified 0 extension block(s), but found 1 extension block(s).

EDID conformity: FAIL
