
EDID (hex):
00ffffffffffff0030e4ff0500000000
001c010495221378ea38d5975e598e27
1c505400000001010101010101010101
010101010101293680a070381f403020
350058c21000001a572b80a070381f40
3020350058c21000001a000000fe004e
4d323256803135365746440a00000000
0000413196001000000a010a20200039

Extracted contents:
header:          00 ff ff ff ff ff ff 00
serial number:   30 e4 ff 05 00 00 00 00 00 1c
version:         01 04
basic params:    95 22 13 78 ea
chroma info:     38 d5 97 5e 59 8e 27 1c 50 54
established:     00 00 00
standard:        01 01 01 01 01 01 01 01 01 01 01 01 01 01 01 01
descriptor 1:    29 36 80 a0 70 38 1f 40 30 20 35 00 58 c2 10 00 00 1a
descriptor 2:    57 2b 80 a0 70 38 1f 40 30 20 35 00 58 c2 10 00 00 1a
descriptor 3:    00 00 00 fe 00 4e 4d 32 32 56 80 31 35 36 57 46 44 0a
descriptor 4:    00 00 00 00 00 00 41 31 96 00 10 00 00 0a 01 0a 20 20
extensions:      00
checksum:        39

EDID version: 1.4
Manufacturer: LGD Model 5ff Serial Number --
Made in year 2018
Digital display
6 bits per primary color channel
DisplayPort interface
Maximum image size: 34 cm x 19 cm
Gamma: 2.20
DPMS levels: Standby Suspend Off
Supported color formats: RGB 4:4:4, YCrCb 4:4:4
First detailed timing includes the native pixel format and preferred refresh rate
Display x,y Chromaticity:
  Red:   0.5898, 0.3701
  Green: 0.3496, 0.5546
  Blue:  0.1552, 0.1103
  White: 0.3134, 0.3291
Established timings supported:
Standard timings supported:
Detailed mode: Clock 138.650 MHz, 344 mm x 194 mm
               1920 1968 2000 2080 hborder 0
               1080 1083 1088 1111 vborder 0
               +hsync -vsync 
               VertFreq: 59 Hz, HorFreq: 66658 Hz
Detailed mode: Clock 110.950 MHz, 344 mm x 194 mm
               1920 1968 2000 2080 hborder 0
               1080 1083 1088 1111 vborder 0
               +hsync -vsync 
               VertFreq: 48 Hz, HorFreq: 53341 Hz
ASCII string: NM22V
Manufacturer-specified data, tag 0
Checksum: 0x39 (valid)
EDID block does NOT conform to EDID 1.4!
	Missing name descriptor
	Missing monitor ranges
	Detailed block string not properly terminated
