
EDID (hex):
00ffffffffffff0006af9d7400000000
1c1f0104a5261578030835ad5243b226
0d505400000001010101010101010101
0101010101017cce00a0f07028803020
35007dd6100000180000000f00000000
00000000000000000020000000fd0c30
903e3e7f010a202020202020000000fe
00423137335a414e30362e39200a0121
701379000003011400ef0184ff0e9f00
2f001f006f0827000200040000000000
00000000000000000000000000000000
00000000000000000000000000000000
00000000000000000000000000000000
00000000000000000000000000000000
00000000000000000000000000000000
00000000000000000000000000004a90

Extracted contents:
header:          00 ff ff ff ff ff ff 00
serial number:   06 af 9d 74 00 00 00 00 1c 1f
version:         01 04
basic params:    a5 26 15 78 03
chroma info:     08 35 ad 52 43 b2 26 0d 50 54
established:     00 00 00
standard:        01 01 01 01 01 01 01 01 01 01 01 01 01 01 01 01
descriptor 1:    7c ce 00 a0 f0 70 28 80 30 20 35 00 7d d6 10 00 00 18
descriptor 2:    00 00 00 0f 00 00 00 00 00 00 00 00 00 00 00 00 00 20
descriptor 3:    00 00 00 fd 0c 30 90 3e 3e 7f 01 0a 20 20 20 20 20 20
descriptor 4:    00 00 00 fe 00 42 31 37 33 5a 41 4e 30 36 2e 39 20 0a
extensions:      01
checksum:        21

EDID version: 1.4
Manufacturer: AUO Model 749d Serial Number --
Made in week 28 of 2021
Digital display
8 bits per primary color channel
DisplayPort interface
Maximum image size: 38 cm x 21 cm
Gamma: 2.20
Supported color formats: RGB 4:4:4
First detailed timing includes the native pixel format and preferred refresh rate
Display is continuous frequency
Display x,y Chromaticity:
  Red:   0.6757, 0.3203
  Green: 0.2636, 0.6953
  Blue:  0.1484, 0.0537
  White: 0.3134, 0.3291
Established timings supported:
Standard timings supported:
Detailed mode: Clock 528.600 MHz, 381 mm x 214 mm
               3840 3888 3920 4000 hborder 0
               2160 2163 2168 2200 vborder 0
               -hsync -vsync 
               VertFreq: 60 Hz, HorFreq: 132150 Hz
Manufacturer-specified data, tag 15
Monitor ranges (bare limits): 48-144Hz V, 62-317kHz H, max dotclock 1270MHz
ASCII string: B173ZAN06.9 
Has 1 extension blocks
Checksum: 0x21 (valid)

DisplayID extension block
Extension version: 19
Length 121, version 19, extension count 0
Checksum: 0x4a (valid)
Type 1 detailed timing: aspect: 16:9, Preferred  
Detailed mode: Clock 1267.200 MHz, 0 mm x 0 mm
               3839 3886 3917 3998
               2159 2161 2165 2198
               -hsync -vsync

EDID block does NOT conform to EDID 1.4!
	Missing name descriptor
EDID block does not conform at all!
	Has -553648128 nonconformant extension block(s)
