
EDID (hex):
00ffffffffffff00220e484000000000
2c1f0104a5351e78229ac5a3564d9c25
0f505400000001010101010101010101
010101010101023a801871382d403020
84000f282100001e000000ff00435a43
3233393746324b200d0a000000fc0048
50203834302047392041694f00000003
004d5bfe66788f334b7c8f00000000b9

Extracted contents:
header:          00 ff ff ff ff ff ff 00
serial number:   22 0e 48 40 00 00 00 00 2c 1f
version:         01 04
basic params:    a5 35 1e 78 22
chroma info:     9a c5 a3 56 4d 9c 25 0f 50 54
established:     00 00 00
standard:        01 01 01 01 01 01 01 01 01 01 01 01 01 01 01 01
descriptor 1:    02 3a 80 18 71 38 2d 40 30 20 84 00 0f 28 21 00 00 1e
descriptor 2:    00 00 00 ff 00 43 5a 43 32 33 39 37 46 32 4b 20 0d 0a
descriptor 3:    00 00 00 fc 00 48 50 20 38 34 30 20 47 39 20 41 69 4f
descriptor 4:    00 00 00 03 00 4d 5b fe 66 78 8f 33 4b 7c 8f 00 00 00
extensions:      00
checksum:        b9

EDID version: 1.4
Manufacturer: HPN Model 4048 Serial Number --
Made in week 44 of 2021
Digital display
8 bits per primary color channel
DisplayPort interface
Maximum image size: 53 cm x 30 cm
Gamma: 2.20
DPMS levels: Off
Supported color formats: RGB 4:4:4
First detailed timing includes the native pixel format and preferred refresh rate
Display x,y Chromaticity:
  Red:   0.6386, 0.3369
  Green: 0.3027, 0.6113
  Blue:  0.1474, 0.0585
  White: 0.3134, 0.3291
Established timings supported:
Standard timings supported:
Detailed mode: Clock 148.500 MHz, 527 mm x 296 mm
               1920 1968 2000 2200 hborder 0
               1080 1088 1092 1125 vborder 0
               +hsync +vsync 
               VertFreq: 60 Hz, HorFreq: 67500 Hz
Serial number: -- 
Manufacturer-specified data, tag 3
Checksum: 0xb9 (valid)
EDID block does NOT conform to EDID 1.4!
	Name descriptor not terminated with a newline
	Missing monitor ranges
	Detailed block string not properly terminated
