edid-decode (hex):

00 ff ff ff ff ff ff 00 22 0e 48 40 00 00 00 00
2c 1f 01 04 a5 35 1e 78 22 9a c5 a3 56 4d 9c 25
0f 50 54 00 00 00 01 01 01 01 01 01 01 01 01 01
01 01 01 01 01 01 02 3a 80 18 71 38 2d 40 30 20
84 00 0f 28 21 00 00 1e 00 00 00 ff 00 43 5a 43
32 33 39 37 46 32 4b 20 0d 0a 00 00 00 fc 00 48
50 20 38 34 30 20 47 39 20 41 69 4f 00 00 00 03
00 4d 5b fe 66 78 8f 33 4b 7c 8f 00 00 00 00 b9

----------------

Block 0, Base EDID:
  EDID Structure Version & Revision: 1.4
  Vendor & Product Identification:
    Manufacturer: HPN
    Model: 16456
    Made in: week 44 of 2021
  Basic Display Parameters & Features:
    Digital display
    Bits per primary color channel: 8
    DisplayPort interface
    Maximum image size: 53 cm x 30 cm
    Gamma: 2.20
    DPMS levels: Off
    Supported color formats: RGB 4:4:4
    First detailed timing includes the native pixel format and preferred refresh rate
  Color Characteristics:
    Red  : 0.6386, 0.3369
    Green: 0.3027, 0.6113
    Blue : 0.1474, 0.0585
    White: 0.3134, 0.3291
  Established Timings I & II: none
  Standard Timings: none
  Detailed Timing Descriptors:
    DTD 1:  1920x1080   60.000000 Hz  16:9     67.500 kHz    148.500000 MHz (527 mm x 296 mm)
                 Hfront   48 Hsync  32 Hback  200 Hpol P
                 Vfront    8 Vsync   4 Vback   33 Vpol P
    Display Product Serial Number: ...
    Display Product Name: 'HP 840 G9 AiO'
    Manufacturer-Specified Display Descriptor (0x03): 00 03 00 4d 5b fe 66 78 8f 33 4b 7c 8f 00 00 00 '...M[.fx.3K|....'
Checksum: 0xb9

----------------

Warnings:

Block 0, Base EDID:
  Detailed Timing Descriptor #1: DTD is similar but not identical to VIC 16.

Failures:

Block 0, Base EDID:
  Display Product Serial Number: ...

EDID conformity: FAIL
