
EDID (hex):
00ffffffffffff004293dd0594e00200
240f0103081e1789e837259e584a9726
195054bfee0001010101010101010101
010101010101c31e0020410020301060
130030e4100000184c1d003041002630
1888360030e410000000000000fd003c
4b1e3c08000a202020202020000000ff
004636544a3538303138383536340000

Extracted contents:
header:          00 ff ff ff ff ff ff 00
serial number:   42 93 dd 05 94 e0 02 00 24 0f
version:         01 03
basic params:    08 1e 17 89 e8
chroma info:     37 25 9e 58 4a 97 26 19 50 54
established:     bf ee 00
standard:        01 01 01 01 01 01 01 01 01 01 01 01 01 01 01 01
descriptor 1:    c3 1e 00 20 41 00 20 30 10 60 13 00 30 e4 10 00 00 18
descriptor 2:    4c 1d 00 30 41 00 26 30 18 88 36 00 30 e4 10 00 00 00
descriptor 3:    00 00 00 fd 00 3c 4b 1e 3c 08 00 0a 20 20 20 20 20 20
descriptor 4:    00 00 00 ff 00 46 36 54 4a 35 38 30 31 38 38 35 36 34
extensions:      00
checksum:        00

EDID version: 1.3
Manufacturer: PTS Model 5dd Serial Number --
Analog display, Input voltage level: 0.7/0.3 V
Sync: Separate 
Maximum image size: 30 cm x 23 cm
Gamma: 2.37
DPMS levels: Standby Suspend Off
RGB color display
Display x,y Chromaticity:
  Red:   0.6171, 0.3466
  Green: 0.2900, 0.5927
  Blue:  0.1484, 0.0996
  White: 0.3134, 0.3291
Established timings supported:
  720x400@70Hz 9:5 HorFreq: 31469 Hz Clock: 28.320 MHz
  640x480@60Hz 4:3 HorFreq: 31469 Hz Clock: 25.175 MHz
  640x480@67Hz 4:3 HorFreq: 35000 Hz Clock: 30.240 MHz
  640x480@72Hz 4:3 HorFreq: 37900 Hz Clock: 31.500 MHz
  640x480@75Hz 4:3 HorFreq: 37500 Hz Clock: 31.500 MHz
  800x600@56Hz 4:3 HorFreq: 35200 Hz Clock: 36.000 MHz
  800x600@60Hz 4:3 HorFreq: 37900 Hz Clock: 40.000 MHz
  800x600@72Hz 4:3 HorFreq: 48100 Hz Clock: 50.000 MHz
  800x600@75Hz 4:3 HorFreq: 46900 Hz Clock: 49.500 MHz
  832x624@75Hz 4:3 HorFreq: 49726 Hz Clock: 57.284 MHz
  1024x768@60Hz 4:3 HorFreq: 48400 Hz Clock: 65.000 MHz
  1024x768@70Hz 4:3 HorFreq: 56500 Hz Clock: 75.000 MHz
  1024x768@75Hz 4:3 HorFreq: 60000 Hz Clock: 78.750 MHz
Standard timings supported:
Detailed mode: Clock 78.750 MHz, 304 mm x 228 mm
               1024 1040 1136 1312 hborder 0
                768  769  772  800 vborder 0
               -hsync -vsync 
               VertFreq: 75 Hz, HorFreq: 60022 Hz
Detailed mode: Clock 75.000 MHz, 304 mm x 228 mm
               1024 1048 1184 1328 hborder 0
                768  771  777  806 vborder 0
               -hsync -vsync analog composite 
               VertFreq: 70 Hz, HorFreq: 56475 Hz
Monitor ranges (GTF): 60-75Hz V, 30-60kHz H, max dotclock 80MHz
Serial number: --
Checksum: 0x0 (valid)
EDID block does NOT conform to EDID 1.3!
	Missing name descriptor
	Missing preferred timing
One or more of the timings is out of range of the Monitor Ranges:
  Vertical Freq: 56 - 75 Hz
  Horizontal Freq: 31469 - 60022 Hz
  Maximum Clock: 78.750 MHz
EDID block does not conform at all!
	Bad year of manufacture
