edid-decode (hex):

00 ff ff ff ff ff ff 00 04 72 36 00 4f 0f 20 92
16 13 01 03 08 29 1a 78 ee e5 c5 a4 56 4a 9c 23
12 50 54 bf ef 80 95 00 61 4f 95 0f 81 80 81 40
81 c0 71 4f 01 01 6b 35 a0 f0 51 84 2a 30 60 98
36 00 9a 09 11 00 00 1c 00 00 00 fd 00 38 4b 1f
50 0e 0a 0a 20 20 20 20 20 20 00 00 00 fc 00 58
31 39 33 57 0a 20 20 20 20 20 20 20 00 00 00 ff
00 4c 43 4d 30 42 30 38 32 33 39 32 33 20 00 f5

00 ff ff ff ff ff ff 00 04 72 36 00 4f 0f 20 92
16 13 01 03 08 29 1a 78 ee e5 c5 a4 56 4a 9c 23
12 50 54 bf ef 80 95 00 61 4f 95 0f 81 80 81 40
81 c0 71 4f 01 01 6b 35 a0 f0 51 84 2a 30 60 98
36 00 9a 09 11 00 00 1c 00 00 00 fd 00 38 4b 1f
50 0e 0a 0a 20 20 20 20 20 20 00 00 00 fc 00 58
31 39 33 57 0a 20 20 20 20 20 20 20 00 00 00 ff
00 4c 43 4d 30 42 30 38 32 33 39 32 33 20 00 f5

----------------

Block 0, Base EDID:
  EDID Structure Version & Revision: 1.3
  Vendor & Product Identification:
    Manufacturer: ACR
    Model: 54
    Serial Number: ...
    Made in: week 22 of 2009
  Basic Display Parameters & Features:
    Analog display
    Signal Level Standard: 0.700 : 0.300 : 1.000 V p-p
    Blank level equals black level
    Sync: Separate
    Maximum image size: 41 cm x 26 cm
    Gamma: 2.20
    DPMS levels: Standby Suspend Off
    RGB color display
    Default (sRGB) color space is primary color space
    First detailed timing is the preferred timing
  Color Characteristics:
    Red  : 0.6435, 0.3378
    Green: 0.2900, 0.6103
    Blue : 0.1396, 0.0703
    White: 0.3134, 0.3291
  Established Timings I & II:
    IBM     :   720x400    70.081663 Hz   9:5     31.467 kHz     28.320000 MHz
    DMT 0x04:   640x480    59.940476 Hz   4:3     31.469 kHz     25.175000 MHz
    Apple   :   640x480    66.666667 Hz   4:3     35.000 kHz     30.240000 MHz
    DMT 0x05:   640x480    72.808802 Hz   4:3     37.861 kHz     31.500000 MHz
    DMT 0x06:   640x480    75.000000 Hz   4:3     37.500 kHz     31.500000 MHz
    DMT 0x08:   800x600    56.250000 Hz   4:3     35.156 kHz     36.000000 MHz
    DMT 0x09:   800x600    60.316541 Hz   4:3     37.879 kHz     40.000000 MHz
    DMT 0x0a:   800x600    72.187572 Hz   4:3     48.077 kHz     50.000000 MHz
    DMT 0x0b:   800x600    75.000000 Hz   4:3     46.875 kHz     49.500000 MHz
    Apple   :   832x624    74.551266 Hz   4:3     49.726 kHz     57.284000 MHz
    DMT 0x10:  1024x768    60.003840 Hz   4:3     48.363 kHz     65.000000 MHz
    DMT 0x11:  1024x768    70.069359 Hz   4:3     56.476 kHz     75.000000 MHz
    DMT 0x12:  1024x768    75.028582 Hz   4:3     60.023 kHz     78.750000 MHz
    DMT 0x24:  1280x1024   75.024675 Hz   5:4     79.976 kHz    135.000000 MHz
    Apple   :  1152x870    75.061550 Hz 192:145   68.681 kHz    100.000000 MHz
  Standard Timings:
    DMT 0x2f:  1440x900    59.887445 Hz  16:10    55.935 kHz    106.500000 MHz
    DMT 0x12:  1024x768    75.028582 Hz   4:3     60.023 kHz     78.750000 MHz
    DMT 0x30:  1440x900    74.984427 Hz  16:10    70.635 kHz    136.750000 MHz
    DMT 0x23:  1280x1024   60.019740 Hz   5:4     63.981 kHz    108.000000 MHz
    DMT 0x20:  1280x960    60.000000 Hz   4:3     60.000 kHz    108.000000 MHz
    DMT 0x55:  1280x720    60.000000 Hz  16:9     45.000 kHz     74.250000 MHz
    DMT 0x15:  1152x864    75.000000 Hz   4:3     67.500 kHz    108.000000 MHz
  Detailed Timing Descriptors:
    DTD 1:  1440x900    74.984427 Hz  16:10    70.635 kHz    136.750000 MHz (410 mm x 265 mm)
                 Hfront   96 Hsync 152 Hback  248 Hpol N
                 Vfront    3 Vsync   6 Vback   33 Vpol P
    Display Range Limits:
      Monitor ranges (Unknown (0x0a)): 56-75 Hz V, 31-80 kHz H, max dotclock 140 MHz
    Display Product Name: 'X193W'
    Display Product Serial Number: ...
Checksum: 0xf5

----------------

Block 1, Unknown EDID Extension Block 0x00:
  00 ff ff ff ff ff ff 00 04 72 36 00 4f 0f 20 92 '.........r6.O. .'
  16 13 01 03 08 29 1a 78 ee e5 c5 a4 56 4a 9c 23 '.....).x....VJ.#'
  12 50 54 bf ef 80 95 00 61 4f 95 0f 81 80 81 40 '.PT.....aO.....@'
  81 c0 71 4f 01 01 6b 35 a0 f0 51 84 2a 30 60 98 '..qO..k5..Q.*0`.'
  36 00 9a 09 11 00 00 1c 00 00 00 fd 00 38 4b 1f '6............8K.'
  50 0e 0a 0a 20 20 20 20 20 20 00 00 00 fc 00 58 'P...      .....X'
  31 39 33 57 0a 20 20 20 20 20 20 20 00 00 00 ff '193W.       ....'
  00 4c 43 4d 30 42 30 38 32 33 39 32 33 20 00 f5 '.LCM0B0823923 ..'
Checksum: 0xf5

----------------

Failures:

Block 0, Base EDID:
  Basic Display Parameters & Features: sRGB is signaled, but the chromaticities do not match.
  Display Range Limits: Unknown range class (0x0a).
  Display Product Serial Number: ...
Block 1, Base EDID:
  Unknown Extension Block.
EDID:
  Base EDID: EDID specified 0 extension block(s), but found 1 extension block(s).

EDID conformity: FAIL
