
EDID (hex):
00ffffffffffff0009e5520600000000
01190104951f1178023240a356559e26
0a505400000001010101010101010101
010101010101993680a0703828403020
360035ad1000001aae2b80a070382840
3020360035ad1000001a000000fe0039
30355648804e56313441323000000000
000041019e001000000a010a20200049

Extracted contents:
header:          00 ff ff ff ff ff ff 00
serial number:   09 e5 52 06 00 00 00 00 01 19
version:         01 04
basic params:    95 1f 11 78 02
chroma info:     32 40 a3 56 55 9e 26 0a 50 54
established:     00 00 00
standard:        01 01 01 01 01 01 01 01 01 01 01 01 01 01 01 01
descriptor 1:    99 36 80 a0 70 38 28 40 30 20 36 00 35 ad 10 00 00 1a
descriptor 2:    ae 2b 80 a0 70 38 28 40 30 20 36 00 35 ad 10 00 00 1a
descriptor 3:    00 00 00 fe 00 39 30 35 56 48 80 4e 56 31 34 41 32 30
descriptor 4:    00 00 00 00 00 00 41 01 9e 00 10 00 00 0a 01 0a 20 20
extensions:      00
checksum:        49

EDID version: 1.4
Manufacturer: BOE Model 652 Serial Number --
Made in week 1 of 2015
Digital display
6 bits per primary color channel
DisplayPort interface
Maximum image size: 31 cm x 17 cm
Gamma: 2.20
Supported color formats: RGB 4:4:4
First detailed timing includes the native pixel format and preferred refresh rate
Display x,y Chromaticity:
  Red:   0.6367, 0.3388
  Green: 0.3320, 0.6191
  Blue:  0.1494, 0.0390
  White: 0.3125, 0.3281
Established timings supported:
Standard timings supported:
Detailed mode: Clock 139.770 MHz, 309 mm x 173 mm
               1920 1968 2000 2080 hborder 0
               1080 1083 1089 1120 vborder 0
               +hsync -vsync 
               VertFreq: 59 Hz, HorFreq: 67197 Hz
Detailed mode: Clock 111.820 MHz, 309 mm x 173 mm
               1920 1968 2000 2080 hborder 0
               1080 1083 1089 1120 vborder 0
               +hsync -vsync 
               VertFreq: 47 Hz, HorFreq: 53759 Hz
ASCII string: 905VH
Manufacturer-specified data, tag 0
Checksum: 0x49 (valid)
EDID block does NOT conform to EDID 1.4!
	Missing name descriptor
	Missing monitor ranges
	Detailed block string not properly terminated
