edid-decode (hex):

00 ff ff ff ff ff ff 00 05 e3 01 02 f8 04 00 00
10 11 01 03 68 28 1e 78 2e 9d 60 a3 59 47 9a 24
11 50 54 af cf 00 71 40 71 4f 81 40 81 80 90 40
01 01 01 01 01 01 a8 2f 78 d0 51 1a 27 40 58 90
34 00 90 2c 11 00 00 1c 00 00 00 ff 00 42 39 34
37 34 4a 41 30 30 31 32 37 32 00 00 00 fd 00 37
4b 1d 52 0e 00 0a 20 20 20 20 20 20 00 00 00 fc
00 41 4f 43 20 32 30 31 53 0a 20 20 20 20 00 81

00 ff ff ff ff ff ff 00 05 e3 01 02 f8 04 00 00
10 11 01 03 68 28 1e 78 2e 9d 60 a3 59 47 9a 24
11 50 54 af cf 00 71 40 71 4f 81 40 81 80 90 40
01 01 01 01 01 01 a8 2f 78 d0 51 1a 27 40 58 90
34 00 90 2c 11 00 00 1c 00 00 00 ff 00 42 39 34
37 34 4a 41 30 30 31 32 37 32 00 00 00 fd 00 37
4b 1d 52 0e 00 0a 20 20 20 20 20 20 00 00 00 fc
00 41 4f 43 20 32 30 31 53 0a 20 20 20 20 00 81

----------------

Block 0, Base EDID:
  EDID Structure Version & Revision: 1.3
  Vendor & Product Identification:
    Manufacturer: AOC
    Model: 513
    Serial Number: ...
    Made in: week 16 of 2007
  Basic Display Parameters & Features:
    Analog display
    Signal Level Standard: 0.700 : 0.000 : 0.700 V p-p
    Blank level equals black level
    Sync: Separate
    Maximum image size: 40 cm x 30 cm
    Gamma: 2.20
    DPMS levels: Off
    RGB color display
    Default (sRGB) color space is primary color space
    First detailed timing is the preferred timing
  Color Characteristics:
    Red  : 0.6386, 0.3486
    Green: 0.2802, 0.6025
    Blue : 0.1416, 0.0683
    White: 0.3125, 0.3281
  Established Timings I & II:
    IBM     :   720x400    70.081663 Hz   9:5     31.467 kHz     28.320000 MHz
    DMT 0x04:   640x480    59.940476 Hz   4:3     31.469 kHz     25.175000 MHz
    DMT 0x05:   640x480    72.808802 Hz   4:3     37.861 kHz     31.500000 MHz
    DMT 0x06:   640x480    75.000000 Hz   4:3     37.500 kHz     31.500000 MHz
    DMT 0x08:   800x600    56.250000 Hz   4:3     35.156 kHz     36.000000 MHz
    DMT 0x09:   800x600    60.316541 Hz   4:3     37.879 kHz     40.000000 MHz
    DMT 0x0a:   800x600    72.187572 Hz   4:3     48.077 kHz     50.000000 MHz
    DMT 0x0b:   800x600    75.000000 Hz   4:3     46.875 kHz     49.500000 MHz
    DMT 0x10:  1024x768    60.003840 Hz   4:3     48.363 kHz     65.000000 MHz
    DMT 0x11:  1024x768    70.069359 Hz   4:3     56.476 kHz     75.000000 MHz
    DMT 0x12:  1024x768    75.028582 Hz   4:3     60.023 kHz     78.750000 MHz
    DMT 0x24:  1280x1024   75.024675 Hz   5:4     79.976 kHz    135.000000 MHz
  Standard Timings:
    GTF     :  1152x864    60.000000 Hz   4:3     53.700 kHz     81.624000 MHz
    DMT 0x15:  1152x864    75.000000 Hz   4:3     67.500 kHz    108.000000 MHz
    DMT 0x20:  1280x960    60.000000 Hz   4:3     60.000 kHz    108.000000 MHz
    DMT 0x23:  1280x1024   60.019740 Hz   5:4     63.981 kHz    108.000000 MHz
    DMT 0x2a:  1400x1050   59.978442 Hz   4:3     65.317 kHz    121.750000 MHz
  Detailed Timing Descriptors:
    DTD 1:  1400x1050   60.101601 Hz   4:3     65.451 kHz    122.000000 MHz (400 mm x 300 mm)
                 Hfront   88 Hsync 144 Hback  232 Hpol N
                 Vfront    3 Vsync   4 Vback   32 Vpol P
    Display Product Serial Number: ...
    Display Range Limits:
      Monitor ranges (GTF): 55-75 Hz V, 29-82 kHz H, max dotclock 140 MHz
    Display Product Name: 'AOC 201S'
Checksum: 0x81

----------------

Block 1, Unknown EDID Extension Block 0x00:
  00 ff ff ff ff ff ff 00 05 e3 01 02 f8 04 00 00 '................'
  10 11 01 03 68 28 1e 78 2e 9d 60 a3 59 47 9a 24 '....h(.x..`.YG.$'
  11 50 54 af cf 00 71 40 71 4f 81 40 81 80 90 40 '.PT...q@qO.@...@'
  01 01 01 01 01 01 a8 2f 78 d0 51 1a 27 40 58 90 '......./x.Q.'@X.'
  34 00 90 2c 11 00 00 1c 00 00 00 ff 00 42 39 34 '4..,.........B94'
  37 34 4a 41 30 30 31 32 37 32 00 00 00 fd 00 37 '74JA001272.....7'
  4b 1d 52 0e 00 0a 20 20 20 20 20 20 00 00 00 fc 'K.R...      ....'
  00 41 4f 43 20 32 30 31 53 0a 20 20 20 20 00 81 '.AOC 201S.    ..'
Checksum: 0x81

----------------

Failures:

Block 0, Base EDID:
  Basic Display Parameters & Features: sRGB is signaled, but the chromaticities do not match.
Block 1, Base EDID:
  Unknown Extension Block.
EDID:
  Base EDID: EDID specified 0 extension block(s), but found 1 extension block(s).

EDID conformity: FAIL
