
EDID (hex):
00ffffffffffff004a8b3b2a01010101
1715010380080d78ea1ec5ae4f34b126
0e505400000001010101010101010101
010101010101641ed00421002a507814
e800d0002500001e000000fc00373931
31440a20202020202020000000100000
00000000000000000000000000000010
00000000000000000000000000000060

Extracted contents:
header:          00 ff ff ff ff ff ff 00
serial number:   4a 8b 3b 2a 01 01 01 01 17 15
version:         01 03
basic params:    80 08 0d 78 ea
chroma info:     1e c5 ae 4f 34 b1 26 0e 50 54
established:     00 00 00
standard:        01 01 01 01 01 01 01 01 01 01 01 01 01 01 01 01
descriptor 1:    64 1e d0 04 21 00 2a 50 78 14 e8 00 d0 00 25 00 00 1e
descriptor 2:    00 00 00 fc 00 37 39 31 31 44 0a 20 20 20 20 20 20 20
descriptor 3:    00 00 00 10 00 00 00 00 00 00 00 00 00 00 00 00 00 00
descriptor 4:    00 00 00 10 00 00 00 00 00 00 00 00 00 00 00 00 00 00
extensions:      00
checksum:        60

EDID version: 1.3
Manufacturer: RTK Model 2a3b Serial Number --
Made in week 23 of 2011
Digital display
Maximum image size: 8 cm x 13 cm
Gamma: 2.20
DPMS levels: Standby Suspend Off
RGB color display
First detailed timing is preferred timing
Display x,y Chromaticity:
  Red:   0.6796, 0.3095
  Green: 0.2060, 0.6933
  Blue:  0.1513, 0.0546
  White: 0.3134, 0.3291
Established timings supported:
Standard timings supported:
Detailed mode: Clock 77.800 MHz, 720 mm x 1280 mm
                720  840  860  980 hborder 0
               1280 1294 1302 1322 vborder 0
               +hsync +vsync 
               VertFreq: 60 Hz, HorFreq: 79387 Hz
Monitor name: 7911D
Dummy block
Dummy block
Checksum: 0x60 (valid)
EDID block does NOT conform to EDID 1.3!
	Missing monitor ranges
