edid-decode (hex):

00 ff ff ff ff ff ff 00 4a 8b 3b 2a 01 01 01 01
17 15 01 03 80 3c 22 78 ea b1 a0 ae 4f 34 b1 26
0e 50 54 a5 4b 00 81 80 a9 40 d1 c0 71 4f 01 01
01 01 01 01 01 01 66 21 56 aa 51 00 1e 30 46 8f
33 00 55 50 21 00 00 1e 00 00 00 ff 00 4a 32 35
37 4d 39 36 42 30 30 46 4c 0a 00 00 00 fc 00 4b
59 56 20 48 44 4d 49 0a 20 20 20 20 00 00 00 fd
00 38 4c 1e 51 11 00 0a 20 20 20 20 20 20 01 99

d6 0f e1 0f e0 0f e1 0f e0 0f e0 0f dd 0f dc 0f
db 0f d9 0f d7 0f d7 0f d5 0f d6 0f d5 0f d7 0f
7f 00 94 00 ab 00 c5 00 de 00 f9 00 14 01 32 01
4e 01 6c 01 88 01 a7 01 c4 01 e2 01 fe 01 1b 02
40 03 31 03 2c 03 1f 03 17 03 09 03 fc 02 eb 02
da 02 c6 02 b3 02 9b 02 85 02 6b 02 52 02 36 02
6b 00 5a 00 49 00 3b 00 2b 00 1e 00 13 00 07 00
fd 0f f5 0f ee 0f e7 0f e2 0f dd 0f db 0f d8 0f

----------------

Block 0, Base EDID:
  EDID Structure Version & Revision: 1.3
  Vendor & Product Identification:
    Manufacturer: RTK
    Model: 10811
    Serial Number: ...
    Made in: week 23 of 2011
  Basic Display Parameters & Features:
    Digital display
    Maximum image size: 60 cm x 34 cm
    Gamma: 2.20
    DPMS levels: Standby Suspend Off
    RGB color display
    First detailed timing is the preferred timing
  Color Characteristics:
    Red  : 0.6816, 0.3115
    Green: 0.2031, 0.6923
    Blue : 0.1503, 0.0566
    White: 0.3125, 0.3281
  Established Timings I & II:
    IBM     :   720x400    70.081663 Hz   9:5     31.467 kHz     28.320000 MHz
    DMT 0x04:   640x480    59.940476 Hz   4:3     31.469 kHz     25.175000 MHz
    DMT 0x06:   640x480    75.000000 Hz   4:3     37.500 kHz     31.500000 MHz
    DMT 0x09:   800x600    60.316541 Hz   4:3     37.879 kHz     40.000000 MHz
    DMT 0x0b:   800x600    75.000000 Hz   4:3     46.875 kHz     49.500000 MHz
    DMT 0x10:  1024x768    60.003840 Hz   4:3     48.363 kHz     65.000000 MHz
    DMT 0x12:  1024x768    75.028582 Hz   4:3     60.023 kHz     78.750000 MHz
    DMT 0x24:  1280x1024   75.024675 Hz   5:4     79.976 kHz    135.000000 MHz
  Standard Timings:
    DMT 0x23:  1280x1024   60.019740 Hz   5:4     63.981 kHz    108.000000 MHz
    DMT 0x33:  1600x1200   60.000000 Hz   4:3     75.000 kHz    162.000000 MHz
    DMT 0x52:  1920x1080   60.000000 Hz  16:9     67.500 kHz    148.500000 MHz
    DMT 0x15:  1152x864    75.000000 Hz   4:3     67.500 kHz    108.000000 MHz
  Detailed Timing Descriptors:
    DTD 1:  1366x768    59.789541 Hz 683:384   47.712 kHz     85.500000 MHz (597 mm x 336 mm)
                 Hfront   70 Hsync 143 Hback  213 Hpol P
                 Vfront    3 Vsync   3 Vback   24 Vpol P
    Display Product Serial Number: ...
    Display Product Name: 'KYV HDMI'
    Display Range Limits:
      Monitor ranges (GTF): 56-76 Hz V, 30-81 kHz H, max dotclock 170 MHz
  Extension blocks: 1
Checksum: 0x99

----------------

Block 1, Unknown EDID Extension Block 0xd6:
  d6 0f e1 0f e0 0f e1 0f e0 0f e0 0f dd 0f dc 0f '................'
  db 0f d9 0f d7 0f d7 0f d5 0f d6 0f d5 0f d7 0f '................'
  7f 00 94 00 ab 00 c5 00 de 00 f9 00 14 01 32 01 '..............2.'
  4e 01 6c 01 88 01 a7 01 c4 01 e2 01 fe 01 1b 02 'N.l.............'
  40 03 31 03 2c 03 1f 03 17 03 09 03 fc 02 eb 02 '@.1.,...........'
  da 02 c6 02 b3 02 9b 02 85 02 6b 02 52 02 36 02 '..........k.R.6.'
  6b 00 5a 00 49 00 3b 00 2b 00 1e 00 13 00 07 00 'k.Z.I.;.+.......'
  fd 0f f5 0f ee 0f e7 0f e2 0f dd 0f db 0f d8 0f '................'
Checksum: 0x0f (should be 0x76)

----------------

Failures:

Block 1, Unknown EDID Extension Block 0xd6:
  Unknown Extension Block.
  Invalid checksum 0x0f (should be 0x76).

EDID conformity: FAIL
