
EDID (hex):
00ffffffffffff004ca3413100000000
00150103801f1178ea7df59157578f29
1e505400000001010101010101010101
010101010101411c56a0500016303020
250035ae100000190000000f00000000
000000000025d9066a00000000fe0053
414d53554e470a2020202020000000fe
00313430415432302d5630310a2000fa

Extracted contents:
header:          00 ff ff ff ff ff ff 00
serial number:   4c a3 41 31 00 00 00 00 00 15
version:         01 03
basic params:    80 1f 11 78 ea
chroma info:     7d f5 91 57 57 8f 29 1e 50 54
established:     00 00 00
standard:        01 01 01 01 01 01 01 01 01 01 01 01 01 01 01 01
descriptor 1:    41 1c 56 a0 50 00 16 30 30 20 25 00 35 ae 10 00 00 19
descriptor 2:    00 00 00 0f 00 00 00 00 00 00 00 00 00 25 d9 06 6a 00
descriptor 3:    00 00 00 fe 00 53 41 4d 53 55 4e 47 0a 20 20 20 20 20
descriptor 4:    00 00 00 fe 00 31 34 30 41 54 32 30 2d 56 30 31 0a 20
extensions:      00
checksum:        fa

EDID version: 1.3
Manufacturer: SEC Model 3141 Serial Number --
Made in year 2011
Digital display
Maximum image size: 31 cm x 17 cm
Gamma: 2.20
DPMS levels: Standby Suspend Off
RGB color display
First detailed timing is preferred timing
Display x,y Chromaticity:
  Red:   0.5673, 0.3427
  Green: 0.3427, 0.5595
  Blue:  0.1630, 0.1201
  White: 0.3134, 0.3291
Established timings supported:
Standard timings supported:
Detailed mode: Clock 72.330 MHz, 309 mm x 174 mm
               1366 1414 1446 1526 hborder 0
                768  770  775  790 vborder 0
               -hsync -vsync 
               VertFreq: 59 Hz, HorFreq: 47398 Hz
Manufacturer-specified data, tag 15
ASCII string: SAMSUNG
ASCII string: 140AT20-V01
Checksum: 0xfa (valid)
EDID block does NOT conform to EDID 1.3!
	Missing name descriptor
	Missing monitor ranges
