
EDID (hex):
00ffffffffffff00226440066abe0000
01110103802314780af7659f56579c26
11505400000001010101010101010101
010101010101781d56c2500026303042
680061c710000019000000fe00000000
00000000000000000000000000fc0048
5344313630504857310a202000000010
000a20202020202020202020202000a2

edid-decode (hex):

00 ff ff ff ff ff ff 00 22 64 40 06 6a be 00 00
01 11 01 03 80 23 14 78 0a f7 65 9f 56 57 9c 26
11 50 54 00 00 00 01 01 01 01 01 01 01 01 01 01
01 01 01 01 01 01 78 1d 56 c2 50 00 26 30 30 42
68 00 61 c7 10 00 00 19 00 00 00 fe 00 00 00 00
00 00 00 00 00 00 00 00 00 00 00 00 00 fc 00 48
53 44 31 36 30 50 48 57 31 0a 20 20 00 00 00 10
00 0a 20 20 20 20 20 20 20 20 20 20 20 20 00 a2

----------------

Block 0, Base EDID:
  EDID Structure Version & Revision: 1.3
  Vendor & Product Identification:
    Manufacturer: HSD
    Model: 1600
    Serial Number: 48746
    Made in: week 1 of 2007
  Basic Display Parameters & Features:
    Digital display
    Maximum image size: 35 cm x 20 cm
    Gamma: 2.20
    RGB color display
    First detailed timing is the preferred timing
  Color Characteristics:
    Red  : 0.6240, 0.3388
    Green: 0.3408, 0.6123
    Blue : 0.1494, 0.0683
    White: 0.3134, 0.3291
  Established Timings I & II: none
  Standard Timings: none
  Detailed Timing Descriptors:
    DTD 1:  1366x768    59.998727 Hz 683:384   48.359 kHz     75.440000 MHz (353 mm x 199 mm)
                 Hfront   48 Hsync  66 Hback   80 Hpol N
                 Vfront    6 Vsync   8 Vback   24 Vpol N
    Alphanumeric Data String: ''
    Display Product Name: 'HSD160PHW1'
    Dummy Descriptor:
Checksum: 0xa2


