
EDID (hex):
00ffffffffffff003064e35831393438
15100103801a10780a87ae99574f8c26
22505400000001010101010101010101
010101010101ee1a0080502010301030
130005a3100000180000000000000000
00000000000000000000000000fe0046
46373436a331323145585044000000fe
002939444d6d8fb0f101010a20200048

edid-decode (hex):

00 ff ff ff ff ff ff 00 30 64 e3 58 31 39 34 38
15 10 01 03 80 1a 10 78 0a 87 ae 99 57 4f 8c 26
22 50 54 00 00 00 01 01 01 01 01 01 01 01 01 01
01 01 01 01 01 01 ee 1a 00 80 50 20 10 30 10 30
13 00 05 a3 10 00 00 18 00 00 00 00 00 00 00 00
00 00 00 00 00 00 00 00 00 00 00 00 00 fe 00 46
46 37 34 36 a3 31 32 31 45 58 50 44 00 00 00 fe
00 29 39 44 4d 6d 8f b0 f1 01 01 0a 20 20 00 48

----------------

Block 0, Base EDID:
  EDID Structure Version & Revision: 1.3
  Vendor & Product Identification:
    Manufacturer: LCD
    Model: 22755
    Serial Number: 942946609
    Made in: week 21 of 2006
  Basic Display Parameters & Features:
    Digital display
    Maximum image size: 26 cm x 16 cm
    Gamma: 2.20
    RGB color display
    First detailed timing is the preferred timing
  Color Characteristics:
    Red  : 0.5996, 0.3398
    Green: 0.3095, 0.5498
    Blue : 0.1503, 0.1347
    White: 0.3154, 0.3300
  Established Timings I & II: none
  Standard Timings: none
  Detailed Timing Descriptors:
    DTD 1:  1280x800    60.003760 Hz  16:10    48.963 kHz     68.940000 MHz (261 mm x 163 mm)
                 Hfront   16 Hsync  48 Hback   64 Hpol N
                 Vfront    1 Vsync   3 Vback   12 Vpol N
    Empty Descriptor
    Alphanumeric Data String: 'FF746'
    Alphanumeric Data String: ')9DMm'
Checksum: 0x48
