
EDID (hex):
00ffffffffffff0026cd5c179d600000
230d0102682018782a9ea8a154469924
0e484ca443003159455961598199a94f
010101010101ea240060410028303060
130036e61000001e863d00c051003040
40a0130036e61000001e000000fc0048
4d373034550a202020202020000000fd
0032a01e6014000a2020202020200082

Extracted contents:
header:          00 ff ff ff ff ff ff 00
serial number:   26 cd 5c 17 9d 60 00 00 23 0d
version:         01 02
basic params:    68 20 18 78 2a
chroma info:     9e a8 a1 54 46 99 24 0e 48 4c
established:     a4 43 00
standard:        31 59 45 59 61 59 81 99 a9 4f 01 01 01 01 01 01
descriptor 1:    ea 24 00 60 41 00 28 30 30 60 13 00 36 e6 10 00 00 1e
descriptor 2:    86 3d 00 c0 51 00 30 40 40 a0 13 00 36 e6 10 00 00 1e
descriptor 3:    00 00 00 fc 00 48 4d 37 30 34 55 0a 20 20 20 20 20 20
descriptor 4:    00 00 00 fd 00 32 a0 1e 60 14 00 0a 20 20 20 20 20 20
extensions:      00
checksum:        82

EDID version: 1.2
Manufacturer: IVM Model 175c Serial Number --
Analog display, Input voltage level: 0.7/0.7 V
Sync: Separate 
Maximum image size: 32 cm x 24 cm
Gamma: 2.20
DPMS levels: Off
RGB color display
First detailed timing is preferred timing
Display x,y Chromaticity:
  Red:   0.6308, 0.3291
  Green: 0.2763, 0.5996
  Blue:  0.1425, 0.0566
  White: 0.2832, 0.2968
Established timings supported:
  720x400@70Hz 9:5 HorFreq: 31469 Hz Clock: 28.320 MHz
  640x480@60Hz 4:3 HorFreq: 31469 Hz Clock: 25.175 MHz
  640x480@75Hz 4:3 HorFreq: 37500 Hz Clock: 31.500 MHz
  800x600@75Hz 4:3 HorFreq: 46900 Hz Clock: 49.500 MHz
  1024x768@75Hz 4:3 HorFreq: 60000 Hz Clock: 78.750 MHz
  1280x1024@75Hz 5:4 HorFreq: 80000 Hz Clock: 135.000 MHz
Standard timings supported:
  640x480@85Hz 4:3 HorFreq: 43300 Hz Clock: 36.000 MHz
  800x600@85Hz 4:3 HorFreq: 53700 Hz Clock: 56.250 MHz
  1024x768@85Hz 4:3 HorFreq: 68700 Hz Clock: 94.500 MHz
  1280x1024@85Hz 5:4 HorFreq: 91100 Hz Clock: 157.500 MHz
  1600x1200@75Hz 4:3 HorFreq: 93800 Hz Clock: 202.500 MHz
Detailed mode: Clock 94.500 MHz, 310 mm x 230 mm
               1024 1072 1168 1376 hborder 0
                768  769  772  808 vborder 0
               +hsync +vsync 
               VertFreq: 84 Hz, HorFreq: 68677 Hz
Detailed mode: Clock 157.500 MHz, 310 mm x 230 mm
               1280 1344 1504 1728 hborder 0
               1024 1025 1028 1072 vborder 0
               +hsync +vsync 
               VertFreq: 85 Hz, HorFreq: 91145 Hz
Monitor name: HM704U
Monitor ranges (GTF): 50-160Hz V, 30-96kHz H, max dotclock 200MHz
Checksum: 0x82 (valid)
One or more of the timings is out of range of the Monitor Ranges:
  Vertical Freq: 60 - 85 Hz
  Horizontal Freq: 31469 - 93800 Hz
  Maximum Clock: 202.500 MHz
EDID block does not conform at all!
	Bad year of manufacture
