
EDID (hex):
00ffffffffffff002163053d00000000
00200104a5221378e38303a253468e22
204e5900000001010101010101010101
010101010101983b8010713850403020
360058c2100000190000000000000000
00000000000000000000000000fe0048
4b43204d59202020200a2020000000fe
00504231353643533032273120200019

edid-decode (hex):

00 ff ff ff ff ff ff 00 21 63 05 3d 00 00 00 00
00 20 01 04 a5 22 13 78 e3 83 03 a2 53 46 8e 22
20 4e 59 00 00 00 01 01 01 01 01 01 01 01 01 01
01 01 01 01 01 01 98 3b 80 10 71 38 50 40 30 20
36 00 58 c2 10 00 00 19 00 00 00 00 00 00 00 00
00 00 00 00 00 00 00 00 00 00 00 00 00 fe 00 48
4b 43 20 4d 59 20 20 20 20 0a 20 20 00 00 00 fe
00 50 42 31 35 36 43 53 30 32 27 31 20 20 00 19

----------------

Block 0, Base EDID:
  EDID Structure Version & Revision: 1.4
  Vendor & Product Identification:
    Manufacturer: HKC
    Model: 15621
    Made in: 2022
  Basic Display Parameters & Features:
    Digital display
    Bits per primary color channel: 8
    DisplayPort interface
    Maximum image size: 34 cm x 19 cm
    Gamma: 2.20
    DPMS levels: Standby Suspend Off
    Supported color formats: RGB 4:4:4
    First detailed timing includes the native pixel format and preferred refresh rate
    Display is continuous frequency
  Color Characteristics:
    Red  : 0.6347, 0.3242
    Green: 0.2734, 0.5576
    Blue : 0.1328, 0.1250
    White: 0.3046, 0.3505
  Established Timings I & II: none
  Standard Timings: none
  Detailed Timing Descriptors:
    DTD 1:  1920x1080   59.998742 Hz  16:9     69.599 kHz    152.560000 MHz (344 mm x 194 mm)
                 Hfront   48 Hsync  32 Hback  192 Hpol N
                 Vfront    3 Vsync   6 Vback   71 Vpol N
    Empty Descriptor
    Alphanumeric Data String: 'HKC MY    '
    Alphanumeric Data String: 'PB156CS02'1  '
Checksum: 0x19
