
EDID (hex):
00ffffffffffff0009e5502178563412
16190103812f1b78ea64b5ab5238ab25
13505400000001010101010101010101
010101010101023a801871382d40582c
4500dc0c1100001c000000fe00445649
0a202020202020202020000000100020
4d323135485730335f56310a000000fd
00384c1e5310000a20202020202000a8

Extracted contents:
header:          00 ff ff ff ff ff ff 00
serial number:   09 e5 50 21 78 56 34 12 16 19
version:         01 03
basic params:    81 2f 1b 78 ea
chroma info:     64 b5 ab 52 38 ab 25 13 50 54
established:     00 00 00
standard:        01 01 01 01 01 01 01 01 01 01 01 01 01 01 01 01
descriptor 1:    02 3a 80 18 71 38 2d 40 58 2c 45 00 dc 0c 11 00 00 1c
descriptor 2:    00 00 00 fe 00 44 56 49 0a 20 20 20 20 20 20 20 20 20
descriptor 3:    00 00 00 10 00 20 4d 32 31 35 48 57 30 33 5f 56 31 0a
descriptor 4:    00 00 00 fd 00 38 4c 1e 53 10 00 0a 20 20 20 20 20 20
extensions:      00
checksum:        a8

EDID version: 1.3
Manufacturer: BOE Model 2150 Serial Number --
Made in week 22 of 2015
Digital display
DFP 1.x compatible TMDS
Maximum image size: 47 cm x 27 cm
Gamma: 2.20
DPMS levels: Standby Suspend Off
RGB color display
First detailed timing is preferred timing
Display x,y Chromaticity:
  Red:   0.6689, 0.3222
  Green: 0.2197, 0.6679
  Blue:  0.1464, 0.0771
  White: 0.3134, 0.3291
Established timings supported:
Standard timings supported:
Detailed mode: Clock 148.500 MHz, 476 mm x 268 mm
               1920 2008 2052 2200 hborder 0
               1080 1084 1089 1125 vborder 0
               -hsync +vsync 
               VertFreq: 60 Hz, HorFreq: 67500 Hz
ASCII string: DVI
Dummy block
Monitor ranges (GTF): 56-76Hz V, 30-83kHz H, max dotclock 160MHz
Checksum: 0xa8 (valid)
EDID block does NOT conform to EDID 1.3!
	Missing name descriptor
EDID block does not conform at all!
	Dummy block filled with garbage
