
EDID (hex):
00ffffffffffff003669000000000000
10170104a52c19780a44e5a35a52a226
0e505400000001c101c101c101c101c1
01c101c101c1312e40006284223058a8
3500baf9100000180000001000061030
11010000000000000a20000000fe004d
53492041494f2050430a2020000000fc
004d53492041494f2050430a2020009c

Extracted contents:
header:          00 ff ff ff ff ff ff 00
serial number:   36 69 00 00 00 00 00 00 10 17
version:         01 04
basic params:    a5 2c 19 78 0a
chroma info:     44 e5 a3 5a 52 a2 26 0e 50 54
established:     00 00 00
standard:        01 c1 01 c1 01 c1 01 c1 01 c1 01 c1 01 c1 01 c1
descriptor 1:    31 2e 40 00 62 84 22 30 58 a8 35 00 ba f9 10 00 00 18
descriptor 2:    00 00 00 10 00 06 10 30 11 01 00 00 00 00 00 00 0a 20
descriptor 3:    00 00 00 fe 00 4d 53 49 20 41 49 4f 20 50 43 0a 20 20
descriptor 4:    00 00 00 fc 00 4d 53 49 20 41 49 4f 20 50 43 0a 20 20
extensions:      00
checksum:        9c

EDID version: 1.4
Manufacturer: MSI Model 0 Serial Number --
Made in week 16 of 2013
Digital display
8 bits per primary color channel
DisplayPort interface
Maximum image size: 44 cm x 25 cm
Gamma: 2.20
Supported color formats: RGB 4:4:4, YCrCb 4:4:4
First detailed timing includes the native pixel format and preferred refresh rate
Display x,y Chromaticity:
  Red:   0.6376, 0.3515
  Green: 0.3212, 0.6328
  Blue:  0.1513, 0.0566
  White: 0.3134, 0.3291
Established timings supported:
Standard timings supported:
  256x144@61Hz 16:9
  256x144@61Hz 16:9
  256x144@61Hz 16:9
  256x144@61Hz 16:9
  256x144@61Hz 16:9
  256x144@61Hz 16:9
  256x144@61Hz 16:9
  256x144@61Hz 16:9
Detailed mode: Clock 118.250 MHz, 442 mm x 249 mm
               1600 1688 1856 2112 hborder 0
                900  903  908  934 vborder 0
               -hsync -vsync 
               VertFreq: 59 Hz, HorFreq: 55989 Hz
Dummy block
ASCII string: MSI AIO PC
Monitor name: MSI AIO PC
Checksum: 0x9c (valid)
	Missing monitor ranges
EDID block does not conform at all!
	Dummy block filled with garbage
