
EDID (hex):
00ffffffffffff0009e5840900000000
1f1e010495221378024465a75751a127
10505400000001010101010101010101
0101010101015c3780cc703820403020
360058c21000001a4a2c80cc70382040
3020360058c21000001a000000fe0033
33324a4b800000000000000000000000
000101219e001000000a010a2020006b

Extracted contents:
header:          00 ff ff ff ff ff ff 00
serial number:   09 e5 84 09 00 00 00 00 1f 1e
version:         01 04
basic params:    95 22 13 78 02
chroma info:     44 65 a7 57 51 a1 27 10 50 54
established:     00 00 00
standard:        01 01 01 01 01 01 01 01 01 01 01 01 01 01 01 01
descriptor 1:    5c 37 80 cc 70 38 20 40 30 20 36 00 58 c2 10 00 00 1a
descriptor 2:    4a 2c 80 cc 70 38 20 40 30 20 36 00 58 c2 10 00 00 1a
descriptor 3:    00 00 00 fe 00 33 33 32 4a 4b 80 00 00 00 00 00 00 00
descriptor 4:    00 00 00 00 00 01 01 21 9e 00 10 00 00 0a 01 0a 20 20
extensions:      00
checksum:        6b

EDID version: 1.4
Manufacturer: BOE Model 984 Serial Number --
Made in week 31 of 2020
Digital display
6 bits per primary color channel
DisplayPort interface
Maximum image size: 34 cm x 19 cm
Gamma: 2.20
Supported color formats: RGB 4:4:4
First detailed timing includes the native pixel format and preferred refresh rate
Display x,y Chromaticity:
  Red:   0.6533, 0.3398
  Green: 0.3173, 0.6289
  Blue:  0.1533, 0.0644
  White: 0.3134, 0.3291
Established timings supported:
Standard timings supported:
Detailed mode: Clock 141.720 MHz, 344 mm x 194 mm
               1920 1968 2000 2124 hborder 0
               1080 1083 1089 1112 vborder 0
               +hsync -vsync 
               VertFreq: 60 Hz, HorFreq: 66723 Hz
Detailed mode: Clock 113.380 MHz, 344 mm x 194 mm
               1920 1968 2000 2124 hborder 0
               1080 1083 1089 1112 vborder 0
               +hsync -vsync 
               VertFreq: 48 Hz, HorFreq: 53380 Hz
ASCII string: 332JK
Manufacturer-specified data, tag 0
Checksum: 0x6b (valid)
EDID block does NOT conform to EDID 1.4!
	Missing name descriptor
	Missing monitor ranges
	Detailed block string not properly terminated


