
EDID (hex):
00ffffffffffff0009e5590a00000000
141f0104a52216780795f5a5554b9b24
0e505400000001010101010101010101
010101010101ea3d80c870b02e403020
360059d71000001a883180c870b02e40
3020360059d71000001a000000fe0059
524a3037804e5631364e343500000000
000341219e001100000a410a20200040

Extracted contents:
header:          00 ff ff ff ff ff ff 00
serial number:   09 e5 59 0a 00 00 00 00 14 1f
version:         01 04
basic params:    a5 22 16 78 07
chroma info:     95 f5 a5 55 4b 9b 24 0e 50 54
established:     00 00 00
standard:        01 01 01 01 01 01 01 01 01 01 01 01 01 01 01 01
descriptor 1:    ea 3d 80 c8 70 b0 2e 40 30 20 36 00 59 d7 10 00 00 1a
descriptor 2:    88 31 80 c8 70 b0 2e 40 30 20 36 00 59 d7 10 00 00 1a
descriptor 3:    00 00 00 fe 00 59 52 4a 30 37 80 4e 56 31 36 4e 34 35
descriptor 4:    00 00 00 00 00 03 41 21 9e 00 11 00 00 0a 41 0a 20 20
extensions:      00
checksum:        40

EDID version: 1.4
Manufacturer: BOE Model a59 Serial Number --
Made in week 20 of 2021
Digital display
8 bits per primary color channel
DisplayPort interface
Maximum image size: 34 cm x 22 cm
Gamma: 2.20
Supported color formats: RGB 4:4:4
Default (sRGB) color space is primary color space
First detailed timing includes the native pixel format and preferred refresh rate
Display is continuous frequency
Display x,y Chromaticity:
  Red:   0.6464, 0.3330
  Green: 0.2939, 0.6064
  Blue:  0.1435, 0.0576
  White: 0.3134, 0.3291
Established timings supported:
Standard timings supported:
Detailed mode: Clock 158.500 MHz, 345 mm x 215 mm
               1920 1968 2000 2120 hborder 0
               1200 1203 1209 1246 vborder 0
               +hsync -vsync 
               VertFreq: 60 Hz, HorFreq: 74764 Hz
Detailed mode: Clock 126.800 MHz, 345 mm x 215 mm
               1920 1968 2000 2120 hborder 0
               1200 1203 1209 1246 vborder 0
               +hsync -vsync 
               VertFreq: 48 Hz, HorFreq: 59811 Hz
ASCII string: YRJ07
Manufacturer-specified data, tag 0
Checksum: 0x40 (valid)
EDID block does NOT conform to EDID 1.4!
	sRGB is signaled, but the chromaticities do not match
	Missing name descriptor
	Missing monitor ranges
	Detailed block string not properly terminated
