
EDID (hex):
00ffffffffffff000469d12000000000
32150103802c1978ead285a358539e26
0f5054bfef00714f8140818081c08100
a9c001010101312e40006284223058a8
3500bbf91000001d000000fd00374b1f
5511000a202020202020000000ff0042
434c4d49423532363532310a000000fc
00415355532056533230390a20200033

Extracted contents:
header:          00 ff ff ff ff ff ff 00
serial number:   04 69 d1 20 00 00 00 00 32 15
version:         01 03
basic params:    80 2c 19 78 ea
chroma info:     d2 85 a3 58 53 9e 26 0f 50 54
established:     bf ef 00
standard:        71 4f 81 40 81 80 81 c0 81 00 a9 c0 01 01 01 01
descriptor 1:    31 2e 40 00 62 84 22 30 58 a8 35 00 bb f9 10 00 00 1d
descriptor 2:    00 00 00 fd 00 37 4b 1f 55 11 00 0a 20 20 20 20 20 20
descriptor 3:    00 00 00 ff 00 42 43 4c 4d 49 42 35 32 36 35 32 31 0a
descriptor 4:    00 00 00 fc 00 41 53 55 53 20 56 53 32 30 39 0a 20 20
extensions:      00
checksum:        33

EDID version: 1.3
Manufacturer: ACI Model 20d1 Serial Number --
Made in week 50 of 2011
Digital display
Maximum image size: 44 cm x 25 cm
Gamma: 2.20
DPMS levels: Standby Suspend Off
RGB color display
First detailed timing is preferred timing
Display x,y Chromaticity:
  Red:   0.6396, 0.3447
  Green: 0.3242, 0.6191
  Blue:  0.1503, 0.0585
  White: 0.3134, 0.3291
Established timings supported:
  720x400@70Hz 9:5 HorFreq: 31469 Hz Clock: 28.320 MHz
  640x480@60Hz 4:3 HorFreq: 31469 Hz Clock: 25.175 MHz
  640x480@67Hz 4:3 HorFreq: 35000 Hz Clock: 30.240 MHz
  640x480@72Hz 4:3 HorFreq: 37900 Hz Clock: 31.500 MHz
  640x480@75Hz 4:3 HorFreq: 37500 Hz Clock: 31.500 MHz
  800x600@56Hz 4:3 HorFreq: 35200 Hz Clock: 36.000 MHz
  800x600@60Hz 4:3 HorFreq: 37900 Hz Clock: 40.000 MHz
  800x600@72Hz 4:3 HorFreq: 48100 Hz Clock: 50.000 MHz
  800x600@75Hz 4:3 HorFreq: 46900 Hz Clock: 49.500 MHz
  832x624@75Hz 4:3 HorFreq: 49726 Hz Clock: 57.284 MHz
  1024x768@60Hz 4:3 HorFreq: 48400 Hz Clock: 65.000 MHz
  1024x768@70Hz 4:3 HorFreq: 56500 Hz Clock: 75.000 MHz
  1024x768@75Hz 4:3 HorFreq: 60000 Hz Clock: 78.750 MHz
  1280x1024@75Hz 5:4 HorFreq: 80000 Hz Clock: 135.000 MHz
Standard timings supported:
  1152x864@75Hz 4:3 HorFreq: 67500 Hz Clock: 108.000 MHz
  1280x960@60Hz 4:3 HorFreq: 60000 Hz Clock: 108.000 MHz
  1280x1024@60Hz 5:4 HorFreq: 64000 Hz Clock: 108.000 MHz
  1280x720@60Hz 16:9
  1280x800@60Hz 16:10
  1600x900@60Hz 16:9
Detailed mode: Clock 118.250 MHz, 443 mm x 249 mm
               1600 1688 1856 2112 hborder 0
                900  903  908  934 vborder 0
               -hsync +vsync 
               VertFreq: 59 Hz, HorFreq: 55989 Hz
Monitor ranges (GTF): 55-75Hz V, 31-85kHz H, max dotclock 170MHz
Serial number: --
Monitor name: ASUS VS209
Checksum: 0x33 (valid)
