
EDID (hex):
00ffffffffffff0026347d21c5a53101
260d010380211b7828a69ca15a4b9824
164c5721080081800101010101010101
010101010101d50980a020e02d101060
a2004a0e110000186419004041002630
188836004a0e11000018302a00985100
2a40307013004a0e1100001e000000fc
00513137204469676974616c0a20008d

Extracted contents:
header:          00 ff ff ff ff ff ff 00
serial number:   26 34 7d 21 c5 a5 31 01 26 0d
version:         01 03
basic params:    80 21 1b 78 28
chroma info:     a6 9c a1 5a 4b 98 24 16 4c 57
established:     21 08 00
standard:        81 80 01 01 01 01 01 01 01 01 01 01 01 01 01 01
descriptor 1:    d5 09 80 a0 20 e0 2d 10 10 60 a2 00 4a 0e 11 00 00 18
descriptor 2:    64 19 00 40 41 00 26 30 18 88 36 00 4a 0e 11 00 00 18
descriptor 3:    30 2a 00 98 51 00 2a 40 30 70 13 00 4a 0e 11 00 00 1e
descriptor 4:    00 00 00 fc 00 51 31 37 20 44 69 67 69 74 61 6c 0a 20
extensions:      00
checksum:        8d

EDID version: 1.3
Manufacturer: IQT Model 217d Serial Number --
Digital display
Maximum image size: 33 cm x 27 cm
Gamma: 2.20
DPMS levels: Off
RGB color display
Display x,y Chromaticity:
  Red:   0.6308, 0.3535
  Green: 0.2939, 0.5957
  Blue:  0.1425, 0.0869
  White: 0.2998, 0.3398
Established timings supported:
  640x480@60Hz 4:3 HorFreq: 31469 Hz Clock: 25.175 MHz
  800x600@60Hz 4:3 HorFreq: 37900 Hz Clock: 40.000 MHz
  1024x768@60Hz 4:3 HorFreq: 48400 Hz Clock: 65.000 MHz
Standard timings supported:
  1280x1024@60Hz 5:4 HorFreq: 64000 Hz Clock: 108.000 MHz
Detailed mode: Clock 25.170 MHz, 330 mm x 270 mm
                640  656  752  800 hborder 0
                480  490  492  525 vborder 0
               -hsync -vsync 
               VertFreq: 59 Hz, HorFreq: 31462 Hz
Detailed mode: Clock 65.000 MHz, 330 mm x 270 mm
               1024 1048 1184 1344 hborder 0
                768  771  777  806 vborder 0
               -hsync -vsync 
               VertFreq: 60 Hz, HorFreq: 48363 Hz
Detailed mode: Clock 108.000 MHz, 330 mm x 270 mm
               1280 1328 1440 1688 hborder 0
               1024 1025 1028 1066 vborder 0
               +hsync +vsync 
               VertFreq: 60 Hz, HorFreq: 63981 Hz
Monitor name: Q17 Digital
Checksum: 0x8d (valid)
EDID block does NOT conform to EDID 1.3!
	Missing preferred timing
	Missing monitor ranges
EDID block does not conform at all!
	Bad year of manufacture


