edid-decode (hex):

00 ff ff ff ff ff ff 00 26 34 7d 21 c5 a5 31 01
26 0d 01 03 80 21 1b 78 28 a6 9c a1 5a 4b 98 24
16 4c 57 21 08 00 81 80 01 01 01 01 01 01 01 01
01 01 01 01 01 01 d5 09 80 a0 20 e0 2d 10 10 60
a2 00 4a 0e 11 00 00 18 64 19 00 40 41 00 26 30
18 88 36 00 4a 0e 11 00 00 18 30 2a 00 98 51 00
2a 40 30 70 13 00 4a 0e 11 00 00 1e 00 00 00 fc
00 51 31 37 20 44 69 67 69 74 61 6c 0a 20 00 8d

----------------

Block 0, Base EDID:
  EDID Structure Version & Revision: 1.3
  Vendor & Product Identification:
    Manufacturer: IQT
    Model: 8573
    Serial Number: ...
    Made in: week 38 of 2003
  Basic Display Parameters & Features:
    Digital display
    Maximum image size: 33 cm x 27 cm
    Gamma: 2.20
    DPMS levels: Off
    RGB color display
  Color Characteristics:
    Red  : 0.6308, 0.3535
    Green: 0.2939, 0.5957
    Blue : 0.1425, 0.0869
    White: 0.2998, 0.3398
  Established Timings I & II:
    DMT 0x04:   640x480    59.940476 Hz   4:3     31.469 kHz     25.175000 MHz
    DMT 0x09:   800x600    60.316541 Hz   4:3     37.879 kHz     40.000000 MHz
    DMT 0x10:  1024x768    60.003840 Hz   4:3     48.363 kHz     65.000000 MHz
  Standard Timings:
    DMT 0x23:  1280x1024   60.019740 Hz   5:4     63.981 kHz    108.000000 MHz
  Detailed Timing Descriptors:
    DTD 1:   640x480    59.928571 Hz   4:3     31.462 kHz     25.170000 MHz (330 mm x 270 mm)
                 Hfront   16 Hsync  96 Hback   48 Hpol N
                 Vfront   10 Vsync   2 Vback   33 Vpol N
    DTD 2:  1024x768    60.003840 Hz   4:3     48.363 kHz     65.000000 MHz (330 mm x 270 mm)
                 Hfront   24 Hsync 136 Hback  160 Hpol N
                 Vfront    3 Vsync   6 Vback   29 Vpol N
    DTD 3:  1280x1024   60.019740 Hz   5:4     63.981 kHz    108.000000 MHz (330 mm x 270 mm)
                 Hfront   48 Hsync 112 Hback  248 Hpol P
                 Vfront    1 Vsync   3 Vback   38 Vpol P
    Display Product Name: 'Q17 Digital'
Checksum: 0x8d

----------------

Failures:

Block 0, Base EDID:
  Basic Display Parameters & Features: EDID 1.3 requires that the first detailed timing is the preferred timing.
  Missing Display Range Limits Descriptor.

EDID conformity: FAIL
