edid-decode (hex):

00 ff ff ff ff ff ff 00 09 e5 1b 09 00 00 00 00
0b 1e 01 04 a5 1f 11 78 06 c0 36 a4 54 4b 9d 25
0e 50 52 00 00 00 01 01 01 01 01 01 01 01 01 01
01 01 01 01 01 01 c0 39 80 18 71 38 28 40 30 20
36 00 36 ad 10 00 00 1a 34 2e 80 18 71 38 28 40
30 20 36 00 36 ad 10 00 00 1a 00 00 00 fe 00 4d
57 36 4d 31 81 4e 45 31 34 4e 34 36 00 00 00 00
00 02 41 21 a8 00 11 00 00 0a 01 0a 20 20 00 ec

00 ff ff ff ff ff ff 00 09 e5 1b 09 00 00 00 00
0b 1e 01 04 a5 1f 11 78 06 c0 36 a4 54 4b 9d 25
0e 50 52 00 00 00 01 01 01 01 01 01 01 01 01 01
01 01 01 01 01 01 c0 39 80 18 71 38 28 40 30 20
36 00 36 ad 10 00 00 1a 34 2e 80 18 71 38 28 40
30 20 36 00 36 ad 10 00 00 1a 00 00 00 fe 00 4d
57 36 4d 31 81 4e 45 31 34 4e 34 36 00 00 00 00
00 02 41 21 a8 00 11 00 00 0a 01 0a 20 20 00 ec

----------------

Block 0, Base EDID:
  EDID Structure Version & Revision: 1.4
  Vendor & Product Identification:
    Manufacturer: BOE
    Model: 2331
    Made in: week 11 of 2020
  Basic Display Parameters & Features:
    Digital display
    Bits per primary color channel: 8
    DisplayPort interface
    Maximum image size: 31 cm x 17 cm
    Gamma: 2.20
    Supported color formats: RGB 4:4:4
    Default (sRGB) color space is primary color space
    First detailed timing includes the native pixel format and preferred refresh rate
  Color Characteristics:
    Red  : 0.6435, 0.3281
    Green: 0.2929, 0.6132
    Blue : 0.1445, 0.0576
    White: 0.3134, 0.3222
  Established Timings I & II: none
  Standard Timings: none
  Detailed Timing Descriptors:
    DTD 1:  1920x1080   60.000000 Hz  16:9     67.200 kHz    147.840000 MHz (310 mm x 173 mm)
                 Hfront   48 Hsync  32 Hback  200 Hpol P
                 Vfront    3 Vsync   6 Vback   31 Vpol N
    DTD 2:  1920x1080   48.003247 Hz  16:9     53.764 kHz    118.280000 MHz (310 mm x 173 mm)
                 Hfront   48 Hsync  32 Hback  200 Hpol P
                 Vfront    3 Vsync   6 Vback   31 Vpol N
    Alphanumeric Data String: 'MW6M1'
    Manufacturer-Specified Display Descriptor (0x00): 00 00 00 02 41 21 a8 00 11 00 00 0a 01 0a 20 20 '....A!........  '
Checksum: 0xec

----------------

Block 1, Unknown EDID Extension Block 0x00:
  00 ff ff ff ff ff ff 00 09 e5 1b 09 00 00 00 00 '................'
  0b 1e 01 04 a5 1f 11 78 06 c0 36 a4 54 4b 9d 25 '.......x..6.TK.%'
  0e 50 52 00 00 00 01 01 01 01 01 01 01 01 01 01 '.PR.............'
  01 01 01 01 01 01 c0 39 80 18 71 38 28 40 30 20 '.......9..q8(@0 '
  36 00 36 ad 10 00 00 1a 34 2e 80 18 71 38 28 40 '6.6.....4...q8(@'
  30 20 36 00 36 ad 10 00 00 1a 00 00 00 fe 00 4d '0 6.6..........M'
  57 36 4d 31 81 4e 45 31 34 4e 34 36 00 00 00 00 'W6M1.NE14N46....'
  00 02 41 21 a8 00 11 00 00 0a 01 0a 20 20 00 ec '..A!........  ..'
Checksum: 0xec

----------------

Warnings:

Block 0, Base EDID:
  Missing Display Product Name.

Failures:

Block 0, Base EDID:
  Basic Display Parameters & Features: sRGB is signaled, but the chromaticities do not match.
  Alphanumeric Data String: Non-printable character.
Block 1, Base EDID:
  Unknown Extension Block.
EDID:
  Base EDID: EDID specified 0 extension block(s), but found 1 extension block(s).

EDID conformity: FAIL
