
EDID (hex):
00ffffffffffff000472ce7f46d7a98e
0f1b0103800605781eee91a3544c9926
0f505400000000000000000000000000
000000000000689c4050b0a03f500820
180c3c32000000188c694074b0a03f50
1820180c3c3200000018000000fc004d
520a20202020202020202020000000fd
003c5a1f873c000a2020202020200198
0203280265030c00100067d85dc40151
8000755c12ca01071bb9d9fc4c1e51e5
a93499ae2a799829689c4050b0a03f50
0820180c3c32000000188c694074b0a0
3f501820180c3c320000001800000000
00000000000000000000000000000000
00000000000000000000000000000000
000000000000000000000000000000e6

edid-decode (hex):

00 ff ff ff ff ff ff 00 04 72 ce 7f 46 d7 a9 8e
0f 1b 01 03 80 06 05 78 1e ee 91 a3 54 4c 99 26
0f 50 54 00 00 00 00 00 00 00 00 00 00 00 00 00
00 00 00 00 00 00 68 9c 40 50 b0 a0 3f 50 08 20
18 0c 3c 32 00 00 00 18 8c 69 40 74 b0 a0 3f 50
18 20 18 0c 3c 32 00 00 00 18 00 00 00 fc 00 4d
52 0a 20 20 20 20 20 20 20 20 20 20 00 00 00 fd
00 3c 5a 1f 87 3c 00 0a 20 20 20 20 20 20 01 98

02 03 28 02 65 03 0c 00 10 00 67 d8 5d c4 01 51
80 00 75 5c 12 ca 01 07 1b b9 d9 fc 4c 1e 51 e5
a9 34 99 ae 2a 79 98 29 68 9c 40 50 b0 a0 3f 50
08 20 18 0c 3c 32 00 00 00 18 8c 69 40 74 b0 a0
3f 50 18 20 18 0c 3c 32 00 00 00 18 00 00 00 00
00 00 00 00 00 00 00 00 00 00 00 00 00 00 00 00
00 00 00 00 00 00 00 00 00 00 00 00 00 00 00 00
00 00 00 00 00 00 00 00 00 00 00 00 00 00 00 e6

----------------

Block 0, Base EDID:
  EDID Structure Version & Revision: 1.3
  Vendor & Product Identification:
    Manufacturer: ACR
    Model: 32718
    Serial Number: 2393495366
    Made in: week 15 of 2017
  Basic Display Parameters & Features:
    Digital display
    Maximum image size: 6 cm x 5 cm
    Gamma: 2.20
    Undefined display color type
    Default (sRGB) color space is primary color space
    First detailed timing is the preferred timing
  Color Characteristics:
    Red  : 0.6396, 0.3300
    Green: 0.2998, 0.5996
    Blue : 0.1503, 0.0595
    White: 0.3125, 0.3291
  Established Timings I & II: none
  Standard Timings:
  Detailed Timing Descriptors:
    DTD 1:  2880x1440   90.000180 Hz   2:1    135.270 kHz    400.400000 MHz (60 mm x 50 mm)
                 Hfront    8 Hsync  32 Hback   40 Hpol N
                 Vfront   49 Vsync   8 Vback    6 Vpol N
    DTD 2:  2880x1440   60.004601 Hz   2:1     90.187 kHz    270.200000 MHz (60 mm x 50 mm)
                 Hfront   24 Hsync  32 Hback   60 Hpol N
                 Vfront   49 Vsync   8 Vback    6 Vpol N
    Display Product Name: 'MR'
    Display Range Limits:
      Monitor ranges (GTF): 60-90 Hz V, 31-135 kHz H, max dotclock 600 MHz
  Extension blocks: 1
Checksum: 0x98

----------------

Block 1, CTA-861 Extension Block:
  Revision: 3
  Native detailed modes: 2
  Vendor-Specific Data Block (HDMI), OUI 00-0C-03:
    Source physical address: 1.0.0.0
  Vendor-Specific Data Block (HDMI Forum), OUI C4-5D-D8:
    Version: 1
    Maximum TMDS Character Rate: 405 MHz
    SCDC Present
  Vendor-Specific Data Block (Microsoft), OUI CA-12-5C:
    Version: 1
    Display Product Primary Use Case: 7 (Virtual reality headset)
    Container ID: 1bb9d9fc-4c1e-51e5-a934-99ae2a799829
  Detailed Timing Descriptors:
    DTD 3:  2880x1440   90.000180 Hz   2:1    135.270 kHz    400.400000 MHz (60 mm x 50 mm)
                 Hfront    8 Hsync  32 Hback   40 Hpol N
                 Vfront   49 Vsync   8 Vback    6 Vpol N
    DTD 4:  2880x1440   60.004601 Hz   2:1     90.187 kHz    270.200000 MHz (60 mm x 50 mm)
                 Hfront   24 Hsync  32 Hback   60 Hpol N
                 Vfront   49 Vsync   8 Vback    6 Vpol N
Checksum: 0xe6  Unused space in Extension Block: 51 bytes
