
EDID (hex):
00ffffffffffff004cad172200000000
301b010380301b780a78f1a655489b26
12505400000001010101010101010101
010101010110023a801871382d40582c
4500dd0c1100001e000000fd00383d1e
5111000a202020202020000000ff0030
300a20202020202020202020000000fc
005345432d35303041324d490a2001f9
00ffffffffffff004cad172200000000
301b010380301b780a78f1a655489b26
12505400000001010101010101010101
010101010110023a801871382d40582c
4500dd0c1100001e000000fd00383d1e
5111000a202020202020000000ff0030
300a20202020202020202020000000fc
005345432d35303041324d490a2001f9

edid-decode (hex):

00 ff ff ff ff ff ff 00 4c ad 17 22 00 00 00 00
30 1b 01 03 80 30 1b 78 0a 78 f1 a6 55 48 9b 26
12 50 54 00 00 00 01 01 01 01 01 01 01 01 01 01
01 01 01 01 01 10 02 3a 80 18 71 38 2d 40 58 2c
45 00 dd 0c 11 00 00 1e 00 00 00 fd 00 38 3d 1e
51 11 00 0a 20 20 20 20 20 20 00 00 00 ff 00 30
30 0a 20 20 20 20 20 20 20 20 20 20 00 00 00 fc
00 53 45 43 2d 35 30 30 41 32 4d 49 0a 20 01 f9

00 ff ff ff ff ff ff 00 4c ad 17 22 00 00 00 00
30 1b 01 03 80 30 1b 78 0a 78 f1 a6 55 48 9b 26
12 50 54 00 00 00 01 01 01 01 01 01 01 01 01 01
01 01 01 01 01 10 02 3a 80 18 71 38 2d 40 58 2c
45 00 dd 0c 11 00 00 1e 00 00 00 fd 00 38 3d 1e
51 11 00 0a 20 20 20 20 20 20 00 00 00 ff 00 30
30 0a 20 20 20 20 20 20 20 20 20 20 00 00 00 fc
00 53 45 43 2d 35 30 30 41 32 4d 49 0a 20 01 f9

----------------

Block 0, Base EDID:
  EDID Structure Version & Revision: 1.3
  Vendor & Product Identification:
    Manufacturer: SEM
    Model: 8727
    Made in: week 48 of 2017
  Basic Display Parameters & Features:
    Digital display
    Maximum image size: 48 cm x 27 cm
    Gamma: 2.20
    RGB color display
    First detailed timing is the preferred timing
  Color Characteristics:
    Red  : 0.6494, 0.3349
    Green: 0.2832, 0.6054
    Blue : 0.1513, 0.0732
    White: 0.3125, 0.3291
  Established Timings I & II: none
  Standard Timings:
  Detailed Timing Descriptors:
    DTD 1:  1920x1080   60.000000 Hz  16:9     67.500 kHz    148.500000 MHz (477 mm x 268 mm)
                 Hfront   88 Hsync  44 Hback  148 Hpol P
                 Vfront    4 Vsync   5 Vback   36 Vpol P
    Display Range Limits:
      Monitor ranges (GTF): 56-61 Hz V, 30-81 kHz H, max dotclock 170 MHz
    Display Product Serial Number: '00'
    Display Product Name: 'SEC-500A2MI'
  Extension blocks: 1
Checksum: 0xf9

----------------

Block 1, Unknown EDID Extension Block 0x00:
  00 ff ff ff ff ff ff 00 4c ad 17 22 00 00 00 00 '........L.."....'
  30 1b 01 03 80 30 1b 78 0a 78 f1 a6 55 48 9b 26 '0....0.x.x..UH.&'
  12 50 54 00 00 00 01 01 01 01 01 01 01 01 01 01 '.PT.............'
  01 01 01 01 01 10 02 3a 80 18 71 38 2d 40 58 2c '.......:..q8-@X,'
  45 00 dd 0c 11 00 00 1e 00 00 00 fd 00 38 3d 1e 'E............8=.'
  51 11 00 0a 20 20 20 20 20 20 00 00 00 ff 00 30 'Q...      .....0'
  30 0a 20 20 20 20 20 20 20 20 20 20 00 00 00 fc '0.          ....'
  00 53 45 43 2d 35 30 30 41 32 4d 49 0a 20 01 f9 '.SEC-500A2MI. ..'
Checksum: 0xf9


