
EDID (hex):
00ffffffffffff0009e5290c67000000
11210104a5221378079451a6544ea027
0e505400000001010101010101010101
010101010101743880a070384e403020
350058c21000001a000000fd003090a7
a723010a202020202020000000fe0042
4f45204e4a0a202020202020000000fe
004e4531353646484d2d4e58390a01fd
7020790200220014e14a05847f079f00
2f001f0037044d00020004002b000c27
003c8f00002700303b0000250009e14a
05e14a05309080810013721a00000301
30900000535153519000000000000000
00000000000000000000000000000000
00000000000000000000000000000000
00000000000000000000000000003590

edid-decode (hex):

00 ff ff ff ff ff ff 00 09 e5 29 0c 67 00 00 00
11 21 01 04 a5 22 13 78 07 94 51 a6 54 4e a0 27
0e 50 54 00 00 00 01 01 01 01 01 01 01 01 01 01
01 01 01 01 01 01 74 38 80 a0 70 38 4e 40 30 20
35 00 58 c2 10 00 00 1a 00 00 00 fd 00 30 90 a7
a7 23 01 0a 20 20 20 20 20 20 00 00 00 fe 00 42
4f 45 20 4e 4a 0a 20 20 20 20 20 20 00 00 00 fe
00 4e 45 31 35 36 46 48 4d 2d 4e 58 39 0a 01 fd

70 20 79 02 00 22 00 14 e1 4a 05 84 7f 07 9f 00
2f 00 1f 00 37 04 4d 00 02 00 04 00 2b 00 0c 27
00 3c 8f 00 00 27 00 30 3b 00 00 25 00 09 e1 4a
05 e1 4a 05 30 90 80 81 00 13 72 1a 00 00 03 01
30 90 00 00 53 51 53 51 90 00 00 00 00 00 00 00
00 00 00 00 00 00 00 00 00 00 00 00 00 00 00 00
00 00 00 00 00 00 00 00 00 00 00 00 00 00 00 00
00 00 00 00 00 00 00 00 00 00 00 00 00 00 35 90

----------------

Block 0, Base EDID:
  EDID Structure Version & Revision: 1.4
  Vendor & Product Identification:
    Manufacturer: BOE
    Model: 3113
    Serial Number: 103
    Made in: week 17 of 2023
  Basic Display Parameters & Features:
    Digital display
    Bits per primary color channel: 8
    DisplayPort interface
    Maximum image size: 34 cm x 19 cm
    Gamma: 2.20
    Supported color formats: RGB 4:4:4
    Default (sRGB) color space is primary color space
    First detailed timing includes the native pixel format and preferred refresh rate
    Display is continuous frequency
  Color Characteristics:
    Red  : 0.6503, 0.3291
    Green: 0.3056, 0.6250
    Blue : 0.1533, 0.0556
    White: 0.3125, 0.3291
  Established Timings I & II: none
  Standard Timings: none
  Detailed Timing Descriptors:
    DTD 1:  1920x1080   60.000664 Hz  16:9     69.481 kHz    144.520000 MHz (344 mm x 194 mm)
                 Hfront   48 Hsync  32 Hback   80 Hpol P
                 Vfront    3 Vsync   5 Vback   70 Vpol N
    Display Range Limits:
      Monitor ranges (Bare Limits): 48-144 Hz V, 167-167 kHz H, max dotclock 350 MHz
    Alphanumeric Data String: 'BOE NJ'
    Alphanumeric Data String: 'NE156FHM-NX9'
  Extension blocks: 1
Checksum: 0xfd

----------------

Block 1, DisplayID Extension Block:
  Version: 2.0
  Extension Count: 0
  Display Product Primary Use Case: None of the listed primary use cases; generic display
  Video Timing Modes Type 7 - Detailed Timings Data Block:
    DTD:  1920x1080  144.002425 Hz  16:9    166.755 kHz    346.850000 MHz (aspect 16:9, no 3D stereo, preferred)
               Hfront   48 Hsync  32 Hback   80 Hpol N
               Vfront    3 Vsync   5 Vback   70 Vpol N
  Adaptive Sync Data Block:
    Descriptor #1:
      Native Panel Range
      Fixed Average V-Total and Adaptive V-Total
      'Max Single Frame Duration Increase' field value without jitter impact
      'Max Single Frame Duration Decrease' field value without jitter impact
      Max Duration Increase: 0.00 ms
      Max Duration Decrease: 0.00 ms
      Min Refresh Rate: 60 Hz
      Max Refresh Rate: 144 Hz
    Descriptor #2:
      Native Panel Range
      Fixed Average V-Total and Adaptive V-Total
      'Max Single Frame Duration Increase' field value without jitter impact
      'Max Single Frame Duration Decrease' field value without jitter impact
      Max Duration Increase: 0.00 ms
      Max Duration Decrease: 0.00 ms
      Min Refresh Rate: 48 Hz
      Max Refresh Rate: 60 Hz
  Dynamic Video Timing Range Limits Data Block:
    Minimum Pixel Clock: 346850 kHz
    Maximum Pixel Clock: 346850 kHz
    Minimum Vertical Refresh Rate: 48 Hz
    Maximum Vertical Refresh Rate: 144 Hz
    Seamless Dynamic Video Timing Support: Yes
  CTA-861 DisplayID Data Block:
  Vendor-Specific Data Block (AMD), OUI 00-00-1A:
    Version: 3.1
    Minimum Refresh Rate: 48 Hz
    Maximum Refresh Rate: 144 Hz
    Flags 1.x: 0x00
    Flags 2.x: 0x00
    Maximum luminance: 83 (301.833 cd/m^2)
    Minimum luminance: 81 (0.305 cd/m^2)
    Unknown: 0x53 0x51
  Checksum: 0x35
Checksum: 0x90
