
EDID (hex):
00ffffffffffff0030ae055101000000
01190104a5331d781b2cc5a45650a128
0f505400000001010101010101010101
010101010101023a801871382d40582c
4500dd0c1100001e000000fc004c454e
2d43353133302d420a20000000fd0039
3e1e5a14350055502100001a000000ff
004c4d3233305746332d534c51340088

Extracted contents:
header:          00 ff ff ff ff ff ff 00
serial number:   30 ae 05 51 01 00 00 00 01 19
version:         01 04
basic params:    a5 33 1d 78 1b
chroma info:     2c c5 a4 56 50 a1 28 0f 50 54
established:     00 00 00
standard:        01 01 01 01 01 01 01 01 01 01 01 01 01 01 01 01
descriptor 1:    02 3a 80 18 71 38 2d 40 58 2c 45 00 dd 0c 11 00 00 1e
descriptor 2:    00 00 00 fc 00 4c 45 4e 2d 43 35 31 33 30 2d 42 0a 20
descriptor 3:    00 00 00 fd 00 39 3e 1e 5a 14 35 00 55 50 21 00 00 1a
descriptor 4:    00 00 00 ff 00 4c 4d 32 33 30 57 46 33 2d 53 4c 51 34
extensions:      00
checksum:        88

EDID version: 1.4
Manufacturer: LEN Model 5105 Serial Number --
Made in week 1 of 2015
Digital display
8 bits per primary color channel
DisplayPort interface
Maximum image size: 51 cm x 29 cm
Gamma: 2.20
Supported color formats: RGB 4:4:4, YCrCb 4:4:4, YCrCb 4:2:2
First detailed timing includes the native pixel format and preferred refresh rate
Display is continuous frequency
Display x,y Chromaticity:
  Red:   0.6406, 0.3378
  Green: 0.3154, 0.6289
  Blue:  0.1591, 0.0585
  White: 0.3134, 0.3291
Established timings supported:
Standard timings supported:
Detailed mode: Clock 148.500 MHz, 477 mm x 268 mm
               1920 2008 2052 2200 hborder 0
               1080 1084 1089 1125 vborder 0
               +hsync +vsync 
               VertFreq: 60 Hz, HorFreq: 67500 Hz
Monitor name: LEN-C5130-B
Monitor ranges (invalid): 57-62Hz V, 30-90kHz H, max dotclock 200MHz
Serial number: --
Checksum: 0x88 (valid)
EDID block does not conform at all!
	Detailed blocks filled with garbage
	Range descriptor contains garbage
