
EDID (hex):
00ffffffffffff0030ae055101000000
01190104a5331d781b2565a3544fa027
ab505400000001010101010101010101
0101010101011a388000713814406040
8400fd1e1100001e000000fc004c454e
2d43353130352d420a20000000fd0039
3e1e5a14000a202020202020000000ff
004c4d3233305746332d534c51340030

Extracted contents:
header:          00 ff ff ff ff ff ff 00
serial number:   30 ae 05 51 01 00 00 00 01 19
version:         01 04
basic params:    a5 33 1d 78 1b
chroma info:     25 65 a3 54 4f a0 27 ab 50 54
established:     00 00 00
standard:        01 01 01 01 01 01 01 01 01 01 01 01 01 01 01 01
descriptor 1:    1a 38 80 00 71 38 14 40 60 40 84 00 fd 1e 11 00 00 1e
descriptor 2:    00 00 00 fc 00 4c 45 4e 2d 43 35 31 30 35 2d 42 0a 20
descriptor 3:    00 00 00 fd 00 39 3e 1e 5a 14 00 0a 20 20 20 20 20 20
descriptor 4:    00 00 00 ff 00 4c 4d 32 33 30 57 46 33 2d 53 4c 51 34
extensions:      00
checksum:        30

EDID version: 1.4
Manufacturer: LEN Model 5105 Serial Number --
Made in week 1 of 2015
Digital display
8 bits per primary color channel
DisplayPort interface
Maximum image size: 51 cm x 29 cm
Gamma: 2.20
Supported color formats: RGB 4:4:4, YCrCb 4:4:4, YCrCb 4:2:2
First detailed timing includes the native pixel format and preferred refresh rate
Display is continuous frequency
Display x,y Chromaticity:
  Red:   0.6367, 0.3300
  Green: 0.3095, 0.6259
  Blue:  0.1533, 0.6699
  White: 0.3134, 0.3291
Established timings supported:
Standard timings supported:
Detailed mode: Clock 143.620 MHz, 509 mm x 286 mm
               1920 2016 2080 2176 hborder 0
               1080 1088 1092 1100 vborder 0
               +hsync +vsync 
               VertFreq: 60 Hz, HorFreq: 66001 Hz
Monitor name: LEN-C5105-B
Monitor ranges (GTF): 57-62Hz V, 30-90kHz H, max dotclock 200MHz
Serial number: --
Checksum: 0x30 (valid)
