edid-decode (hex):

00 ff ff ff ff ff ff 00 4d 10 8d 14 00 00 00 00
05 1c 01 04 a5 22 13 78 0e 5c 41 a9 53 34 bd 25
0c 50 52 00 00 00 01 01 01 01 01 01 01 01 01 01
01 01 01 01 01 01 4d d0 00 a0 f0 70 3e 80 30 20
35 00 58 c2 10 00 00 18 00 00 00 00 00 00 00 00
00 00 00 00 00 00 00 00 00 00 00 00 00 fe 00 46
4e 56 44 52 80 4c 51 31 35 36 44 31 00 00 00 00
00 02 41 03 28 01 12 00 00 0b 01 0a 20 20 00 f0

00 ff ff ff ff ff ff 00 4d 10 8d 14 00 00 00 00
05 1c 01 04 a5 22 13 78 0e 5c 41 a9 53 34 bd 25
0c 50 52 00 00 00 01 01 01 01 01 01 01 01 01 01
01 01 01 01 01 01 4d d0 00 a0 f0 70 3e 80 30 20
35 00 58 c2 10 00 00 18 00 00 00 00 00 00 00 00
00 00 00 00 00 00 00 00 00 00 00 00 00 fe 00 46
4e 56 44 52 80 4c 51 31 35 36 44 31 00 00 00 00
00 02 41 03 28 01 12 00 00 0b 01 0a 20 20 00 f0

----------------

Block 0, Base EDID:
  EDID Structure Version & Revision: 1.4
  Vendor & Product Identification:
    Manufacturer: SHP
    Model: 5261
    Made in: week 5 of 2018
  Basic Display Parameters & Features:
    Digital display
    Bits per primary color channel: 8
    DisplayPort interface
    Maximum image size: 34 cm x 19 cm
    Gamma: 2.20
    Supported color formats: RGB 4:4:4, YCrCb 4:4:4
    Default (sRGB) color space is primary color space
    First detailed timing includes the native pixel format and preferred refresh rate
  Color Characteristics:
    Red  : 0.6611, 0.3251
    Green: 0.2060, 0.7382
    Blue : 0.1455, 0.0468
    White: 0.3125, 0.3212
  Established Timings I & II: none
  Standard Timings: none
  Detailed Timing Descriptors:
    DTD 1:  3840x2160   59.996625 Hz  16:9    133.312 kHz    533.250000 MHz (344 mm x 194 mm)
                 Hfront   48 Hsync  32 Hback   80 Hpol N
                 Vfront    3 Vsync   5 Vback   54 Vpol N
    Empty Descriptor
    Alphanumeric Data String: 'FNVDR'
    Manufacturer-Specified Display Descriptor (0x00): 00 00 00 02 41 03 28 01 12 00 00 0b 01 0a 20 20 '....A.(.......  '
Checksum: 0xf0

----------------

Block 1, Unknown EDID Extension Block 0x00:
  00 ff ff ff ff ff ff 00 4d 10 8d 14 00 00 00 00 '........M.......'
  05 1c 01 04 a5 22 13 78 0e 5c 41 a9 53 34 bd 25 '.....".x.\A.S4.%'
  0c 50 52 00 00 00 01 01 01 01 01 01 01 01 01 01 '.PR.............'
  01 01 01 01 01 01 4d d0 00 a0 f0 70 3e 80 30 20 '......M....p>.0 '
  35 00 58 c2 10 00 00 18 00 00 00 00 00 00 00 00 '5.X.............'
  00 00 00 00 00 00 00 00 00 00 00 00 00 fe 00 46 '...............F'
  4e 56 44 52 80 4c 51 31 35 36 44 31 00 00 00 00 'NVDR.LQ156D1....'
  00 02 41 03 28 01 12 00 00 0b 01 0a 20 20 00 f0 '..A.(.......  ..'
Checksum: 0xf0

----------------

Warnings:

Block 0, Base EDID:
  Missing Display Product Name.

Failures:

Block 0, Base EDID:
  Basic Display Parameters & Features: sRGB is signaled, but the chromaticities do not match.
  Empty Descriptor: Use Dummy Descriptor instead of all zeroes.
  Alphanumeric Data String: Non-printable character.
Block 1, Base EDID:
  Unknown Extension Block.
EDID:
  Base EDID: EDID specified 0 extension block(s), but found 1 extension block(s).

EDID conformity: FAIL
