
EDID (hex):
00ffffffffffff002889021401010101
071b0104a51c10780216c5a4544b9b26
0f5054000000d1c00101010101010101
0101010101011a3680a070381f403020
3500159c10000018112480a070381f40
30203500159c10000018000000fc004c
414d3132354d303037440a20000000ff
004b3742303338303635310a202000d5

Extracted contents:
header:          00 ff ff ff ff ff ff 00
serial number:   28 89 02 14 01 01 01 01 07 1b
version:         01 04
basic params:    a5 1c 10 78 02
chroma info:     16 c5 a4 54 4b 9b 26 0f 50 54
established:     00 00 00
standard:        d1 c0 01 01 01 01 01 01 01 01 01 01 01 01 01 01
descriptor 1:    1a 36 80 a0 70 38 1f 40 30 20 35 00 15 9c 10 00 00 18
descriptor 2:    11 24 80 a0 70 38 1f 40 30 20 35 00 15 9c 10 00 00 18
descriptor 3:    00 00 00 fc 00 4c 41 4d 31 32 35 4d 30 30 37 44 0a 20
descriptor 4:    00 00 00 ff 00 4b 37 42 30 33 38 30 36 35 31 0a 20 20
extensions:      00
checksum:        d5

EDID version: 1.4
Manufacturer: JDI Model 1402 Serial Number --
Made in week 7 of 2017
Digital display
8 bits per primary color channel
DisplayPort interface
Maximum image size: 28 cm x 16 cm
Gamma: 2.20
Supported color formats: RGB 4:4:4
First detailed timing includes the native pixel format and preferred refresh rate
Display x,y Chromaticity:
  Red:   0.6406, 0.3291
  Green: 0.2939, 0.6074
  Blue:  0.1513, 0.0585
  White: 0.3134, 0.3291
Established timings supported:
Standard timings supported:
  1920x1080@60Hz 16:9
Detailed mode: Clock 138.500 MHz, 277 mm x 156 mm
               1920 1968 2000 2080 hborder 0
               1080 1083 1088 1111 vborder 0
               -hsync -vsync 
               VertFreq: 59 Hz, HorFreq: 66586 Hz
Detailed mode: Clock 92.330 MHz, 277 mm x 156 mm
               1920 1968 2000 2080 hborder 0
               1080 1083 1088 1111 vborder 0
               -hsync -vsync 
               VertFreq: 39 Hz, HorFreq: 44389 Hz
Monitor name: LAM125M007D
Serial number: --
Checksum: 0xd5 (valid)
	Missing monitor ranges
