
EDID (hex):
00ffffffffffff004eae960500000000
1310010380291f78eaa6a5a3574a9d25
125054bfef00a941a940818081907186
010101010101ae3340b060b027400840
5a0098321100001e000000fd00384c1f
5c11000a202020202020000000fc0058
37323030410a202020202020000000ff
00303631395041303436380a20200029

edid-decode (hex):

00 ff ff ff ff ff ff 00 4e ae 96 05 00 00 00 00
13 10 01 03 80 29 1f 78 ea a6 a5 a3 57 4a 9d 25
12 50 54 bf ef 00 a9 41 a9 40 81 80 81 90 71 86
01 01 01 01 01 01 ae 33 40 b0 60 b0 27 40 08 40
5a 00 98 32 11 00 00 1e 00 00 00 fd 00 38 4c 1f
5c 11 00 0a 20 20 20 20 20 20 00 00 00 fc 00 58
37 32 30 30 41 0a 20 20 20 20 20 20 00 00 00 ff
00 30 36 31 39 50 41 30 34 36 38 0a 20 20 00 29

----------------

Block 0, Base EDID:
  EDID Structure Version & Revision: 1.3
  Vendor & Product Identification:
    Manufacturer: SUN
    Model: 1430
    Made in: week 19 of 2006
  Basic Display Parameters & Features:
    Digital display
    Maximum image size: 41 cm x 31 cm
    Gamma: 2.20
    DPMS levels: Standby Suspend Off
    RGB color display
    First detailed timing is the preferred timing
  Color Characteristics:
    Red  : 0.6386, 0.3417
    Green: 0.2900, 0.6152
    Blue : 0.1464, 0.0722
    White: 0.3134, 0.3291
  Established Timings I & II:
    IBM     :   720x400    70.081663 Hz   9:5     31.467 kHz     28.320000 MHz
    DMT 0x04:   640x480    59.940476 Hz   4:3     31.469 kHz     25.175000 MHz
    Apple   :   640x480    66.666667 Hz   4:3     35.000 kHz     30.240000 MHz
    DMT 0x05:   640x480    72.808802 Hz   4:3     37.861 kHz     31.500000 MHz
    DMT 0x06:   640x480    75.000000 Hz   4:3     37.500 kHz     31.500000 MHz
    DMT 0x08:   800x600    56.250000 Hz   4:3     35.156 kHz     36.000000 MHz
    DMT 0x09:   800x600    60.316541 Hz   4:3     37.879 kHz     40.000000 MHz
    DMT 0x0a:   800x600    72.187572 Hz   4:3     48.077 kHz     50.000000 MHz
    DMT 0x0b:   800x600    75.000000 Hz   4:3     46.875 kHz     49.500000 MHz
    Apple   :   832x624    74.551266 Hz   4:3     49.726 kHz     57.284000 MHz
    DMT 0x10:  1024x768    60.003840 Hz   4:3     48.363 kHz     65.000000 MHz
    DMT 0x11:  1024x768    70.069359 Hz   4:3     56.476 kHz     75.000000 MHz
    DMT 0x12:  1024x768    75.028582 Hz   4:3     60.023 kHz     78.750000 MHz
    DMT 0x24:  1280x1024   75.024675 Hz   5:4     79.976 kHz    135.000000 MHz
  Standard Timings:
    GTF     :  1600x1200   61.000119 Hz   4:3     75.823 kHz    163.778000 MHz
    DMT 0x33:  1600x1200   60.000000 Hz   4:3     75.000 kHz    162.000000 MHz
    DMT 0x23:  1280x1024   60.019740 Hz   5:4     63.981 kHz    108.000000 MHz
    GTF     :  1280x1024   75.999957 Hz   5:4     81.320 kHz    141.822000 MHz
    GTF     :  1152x921    66.000114 Hz   5:4     63.162 kHz     97.017000 MHz
  Detailed Timing Descriptors:
    DTD 1:  1600x1200   60.123683 Hz   4:3     74.493 kHz    132.300000 MHz (408 mm x 306 mm)
                 Hfront    8 Hsync  64 Hback  104 Hpol P
                 Vfront    5 Vsync  10 Vback   24 Vpol P
    Display Range Limits:
      Monitor ranges (GTF): 56-76 Hz V, 31-92 kHz H, max dotclock 170 MHz
    Display Product Name: 'X7200A'
    Display Product Serial Number: '0619PA0468'
Checksum: 0x29
