edid-decode (hex):

00 ff ff ff ff ff ff 00 4c 2d 35 2c 00 00 00 00
24 07 01 01 28 1c 15 47 e8 e2 f9 9e 59 4e 99 27
10 48 4c ff f8 00 31 59 45 59 01 01 01 01 01 01
01 01 01 01 01 01 10 0e 80 c0 20 e0 1d 10 38 38
13 00 0b c8 10 00 00 18 f9 15 20 f8 30 58 1f 20
20 40 13 00 0b c8 10 00 00 1e 64 19 00 40 41 00
26 30 18 88 36 00 0b c8 10 00 00 18 00 00 00 fd
00 32 78 1e 37 ff 00 0a 20 20 20 20 20 20 00 74

----------------

Block 0, Base EDID:
  EDID Structure Version & Revision: 1.1
  Vendor & Product Identification:
    Manufacturer: SAM
    Model: 11317
    Made in: week 36 of 1997
  Basic Display Parameters & Features:
    Analog display
    Input voltage level: 0.714/0.286 V
    Blank level equals black level
    Sync: Separate
    Maximum image size: 28 cm x 21 cm
    Gamma: 1.71
    DPMS levels: Standby Suspend Off
    RGB color display
  Color Characteristics:
    Red  : 0.6201, 0.3496
    Green: 0.3046, 0.5996
    Blue : 0.1552, 0.0654
    White: 0.2832, 0.2978
  Established Timings I & II:
    IBM     :   720x400    70.082 Hz   9:5    31.467 kHz  28.320 MHz
    IBM     :   720x400    87.850 Hz   9:5    39.444 kHz  35.500 MHz
    DMT 0x04:   640x480    59.940 Hz   4:3    31.469 kHz  25.175 MHz
    Apple   :   640x480    66.667 Hz   4:3    35.000 kHz  30.240 MHz
    DMT 0x05:   640x480    72.809 Hz   4:3    37.861 kHz  31.500 MHz
    DMT 0x06:   640x480    75.000 Hz   4:3    37.500 kHz  31.500 MHz
    DMT 0x08:   800x600    56.250 Hz   4:3    35.156 kHz  36.000 MHz
    DMT 0x09:   800x600    60.317 Hz   4:3    37.879 kHz  40.000 MHz
    DMT 0x0a:   800x600    72.188 Hz   4:3    48.077 kHz  50.000 MHz
    DMT 0x0b:   800x600    75.000 Hz   4:3    46.875 kHz  49.500 MHz
    Apple   :   832x624    74.551 Hz   4:3    49.726 kHz  57.284 MHz
    DMT 0x0f:  1024x768i   86.958 Hz   4:3    35.522 kHz  44.900 MHz
    DMT 0x10:  1024x768    60.004 Hz   4:3    48.363 kHz  65.000 MHz
  Standard Timings:
    DMT 0x07:   640x480    85.008 Hz   4:3    43.269 kHz  36.000 MHz
    DMT 0x0c:   800x600    85.061 Hz   4:3    53.674 kHz  56.250 MHz
  Detailed Timing Descriptors:
    DTD 1:   640x480    85.008 Hz   4:3    43.269 kHz  36.000 MHz (267 mm x 200 mm)
                 Hfront   56 Hsync  56 Hback  80 Hpol N
                 Vfront    1 Vsync   3 Vback  25 Vpol N
    DTD 2:   800x600    85.061 Hz   4:3    53.674 kHz  56.250 MHz (267 mm x 200 mm)
                 Hfront   32 Hsync  64 Hback 152 Hpol P
                 Vfront    1 Vsync   3 Vback  27 Vpol P
    DTD 3:  1024x768    60.004 Hz   4:3    48.363 kHz  65.000 MHz (267 mm x 200 mm)
                 Hfront   24 Hsync 136 Hback 160 Hpol N
                 Vfront    3 Vsync   6 Vback  29 Vpol N
  Display Range Limits:
    Monitor ranges (GTF): 50-120 Hz V, 30-55 kHz H, max dotclock 2550 MHz
Checksum: 0x74

----------------

Warnings:

Block 0, Base EDID:
  EDID Structure Version & Revision: EDID 1.1 is deprecated, do not use.

Failures:

Block 0, Base EDID:
  Detailed Timing Descriptor #1: Mismatch of image size 267x200 mm vs display size 280x210 mm.
  Detailed Timing Descriptor #2: Mismatch of image size 267x200 mm vs display size 280x210 mm.
  Detailed Timing Descriptor #3: Mismatch of image size 267x200 mm vs display size 280x210 mm.

EDID conformity: FAIL
