
EDID (hex):
00ffffffffffff000daeb61300000000
151e0104951d11780228659759548e27
1e505400000001010101010101010101
010101010101a43880e670382c403020
a60025a51000001a502d80e670382c40
3020a60025a51000001a000000fe0046
47344e57803133334843450a00000000
0000413199001000000a010a202000cf

Extracted contents:
header:          00 ff ff ff ff ff ff 00
serial number:   0d ae b6 13 00 00 00 00 15 1e
version:         01 04
basic params:    95 1d 11 78 02
chroma info:     28 65 97 59 54 8e 27 1e 50 54
established:     00 00 00
standard:        01 01 01 01 01 01 01 01 01 01 01 01 01 01 01 01
descriptor 1:    a4 38 80 e6 70 38 2c 40 30 20 a6 00 25 a5 10 00 00 1a
descriptor 2:    50 2d 80 e6 70 38 2c 40 30 20 a6 00 25 a5 10 00 00 1a
descriptor 3:    00 00 00 fe 00 46 47 34 4e 57 80 31 33 33 48 43 45 0a
descriptor 4:    00 00 00 00 00 00 41 31 99 00 10 00 00 0a 01 0a 20 20
extensions:      00
checksum:        cf

EDID version: 1.4
Manufacturer: CMN Model 13b6 Serial Number --
Made in week 21 of 2020
Digital display
6 bits per primary color channel
DisplayPort interface
Maximum image size: 29 cm x 17 cm
Gamma: 2.20
Supported color formats: RGB 4:4:4
First detailed timing includes the native pixel format and preferred refresh rate
Display x,y Chromaticity:
  Red:   0.5898, 0.3496
  Green: 0.3300, 0.5546
  Blue:  0.1533, 0.1191
  White: 0.3134, 0.3291
Established timings supported:
Standard timings supported:
Detailed mode: Clock 145.000 MHz, 293 mm x 165 mm
               1920 1968 2000 2150 hborder 0
               1080 1090 1096 1124 vborder 0
               +hsync -vsync 
               VertFreq: 60 Hz, HorFreq: 67441 Hz
Detailed mode: Clock 116.000 MHz, 293 mm x 165 mm
               1920 1968 2000 2150 hborder 0
               1080 1090 1096 1124 vborder 0
               +hsync -vsync 
               VertFreq: 48 Hz, HorFreq: 53953 Hz
ASCII string: FG4NW
Manufacturer-specified data, tag 0
Checksum: 0xcf (valid)
EDID block does NOT conform to EDID 1.4!
	Missing name descriptor
	Missing monitor ranges
	Detailed block string not properly terminated
