
EDID (hex):
00ffffffffffff0009e51111c7353a42
211c0104801c107802d4e09759569129
1f505400000001010101010101010101
0101010101013e1c56dc500016303020
4400159c1000001a0000001000000000
00000000000000000000000000100042
4f4531322e350a202020202000000010
00000000000000000000000000000088

Extracted contents:
header:          00 ff ff ff ff ff ff 00
serial number:   09 e5 11 11 c7 35 3a 42 21 1c
version:         01 04
basic params:    80 1c 10 78 02
chroma info:     d4 e0 97 59 56 91 29 1f 50 54
established:     00 00 00
standard:        01 01 01 01 01 01 01 01 01 01 01 01 01 01 01 01
descriptor 1:    3e 1c 56 dc 50 00 16 30 30 20 44 00 15 9c 10 00 00 1a
descriptor 2:    00 00 00 10 00 00 00 00 00 00 00 00 00 00 00 00 00 00
descriptor 3:    00 00 00 10 00 42 4f 45 31 32 2e 35 0a 20 20 20 20 20
descriptor 4:    00 00 00 10 00 00 00 00 00 00 00 00 00 00 00 00 00 00
extensions:      00
checksum:        88

EDID version: 1.4
Manufacturer: BOE Model 1111 Serial Number --
Made in week 33 of 2018
Digital display
Color depth is undefined
Digital interface is not defined
Maximum image size: 28 cm x 16 cm
Gamma: 2.20
Supported color formats: RGB 4:4:4
First detailed timing includes the native pixel format and preferred refresh rate
Display x,y Chromaticity:
  Red:   0.5927, 0.3486
  Green: 0.3369, 0.5664
  Blue:  0.1630, 0.1230
  White: 0.3125, 0.3281
Established timings supported:
Standard timings supported:
Detailed mode: Clock 72.300 MHz, 277 mm x 156 mm
               1366 1414 1446 1586 hborder 0
                768  772  776  790 vborder 0
               +hsync -vsync 
               VertFreq: 57 Hz, HorFreq: 45586 Hz
Dummy block
Dummy block
Dummy block
Checksum: 0x88 (valid)
EDID block does NOT conform to EDID 1.4!
	Missing name descriptor
	Missing monitor ranges
EDID block does not conform at all!
	Dummy block filled with garbage
