
EDID (hex):
00ffffffffffff004f2e1e001d020000
12110103814728780b3f00a754469825
11494b254a0081c00101010101010101
010101010101201c50a0500016303020
3500c6902100001ca91a00a050001630
30207300c6902100001a000000fd0038
4b0f3a08000a202020202020000000fc
003433322d5331320a2020202020012d
02031971468502030406072309070783
01000065030c001000011d8018711c17
20582c2500c6902100009e011d007251
d01e206e285500c6902100001e8c0ad0
8a20e02d10103e9600c690210000188c
0ad08a20e02d10103e96001490210000
188c0aa01451f01600267c4300c69021
00009800000000000000000000000084

Extracted contents:
header:          00 ff ff ff ff ff ff 00
serial number:   4f 2e 1e 00 1d 02 00 00 12 11
version:         01 03
basic params:    81 47 28 78 0b
chroma info:     3f 00 a7 54 46 98 25 11 49 4b
established:     25 4a 00
standard:        81 c0 01 01 01 01 01 01 01 01 01 01 01 01 01 01
descriptor 1:    20 1c 50 a0 50 00 16 30 30 20 35 00 c6 90 21 00 00 1c
descriptor 2:    a9 1a 00 a0 50 00 16 30 30 20 73 00 c6 90 21 00 00 1a
descriptor 3:    00 00 00 fd 00 38 4b 0f 3a 08 00 0a 20 20 20 20 20 20
descriptor 4:    00 00 00 fc 00 34 33 32 2d 53 31 32 0a 20 20 20 20 20
extensions:      01
checksum:        2d

EDID version: 1.3
Manufacturer: SYN Model 1e Serial Number --
Made in week 18 of 2007
Digital display
DFP 1.x compatible TMDS
Maximum image size: 71 cm x 40 cm
Gamma: 2.20
RGB color display
First detailed timing is preferred timing
Supports GTF timings within operating range
Display x,y Chromaticity:
  Red:   0.6523, 0.3310
  Green: 0.2763, 0.5966
  Blue:  0.1445, 0.0664
  White: 0.2851, 0.2929
Established timings supported:
  640x480@60Hz 4:3 HorFreq: 31469 Hz Clock: 25.175 MHz
  640x480@75Hz 4:3 HorFreq: 37500 Hz Clock: 31.500 MHz
  800x600@60Hz 4:3 HorFreq: 37900 Hz Clock: 40.000 MHz
  800x600@75Hz 4:3 HorFreq: 46900 Hz Clock: 49.500 MHz
  1024x768@60Hz 4:3 HorFreq: 48400 Hz Clock: 65.000 MHz
  1024x768@75Hz 4:3 HorFreq: 60000 Hz Clock: 78.750 MHz
Standard timings supported:
  1280x720@60Hz 16:9
Detailed mode: Clock 72.000 MHz, 710 mm x 400 mm
               1360 1408 1440 1520 hborder 0
                768  771  776  790 vborder 0
               -hsync +vsync 
               VertFreq: 59 Hz, HorFreq: 47368 Hz
Detailed mode: Clock 68.250 MHz, 710 mm x 400 mm
               1280 1328 1360 1440 hborder 0
                768  775  778  790 vborder 0
               +hsync -vsync 
               VertFreq: 59 Hz, HorFreq: 47395 Hz
Monitor ranges (GTF): 56-75Hz V, 15-58kHz H, max dotclock 80MHz
Monitor name: 432-S12
Has 1 extension blocks
Checksum: 0x2d (valid)

CTA extension block
Extension version: 3
21 bytes of CTA data
  Video data block
    VIC   5 1920x1080i@60Hz 16:9 (native) HorFreq: 33750 Hz Clock: 74.250 MHz
    VIC   2 720x480@60Hz 4:3  HorFreq: 31469 Hz Clock: 27.000 MHz
    VIC   3 720x480@60Hz 16:9  HorFreq: 31469 Hz Clock: 27.000 MHz
    VIC   4 1280x720@60Hz 16:9  HorFreq: 45000 Hz Clock: 74.250 MHz
    VIC   6 1440x480i@60Hz 4:3  HorFreq: 15734 Hz Clock: 27.000 MHz
    VIC   7 1440x480i@60Hz 16:9  HorFreq: 15734 Hz Clock: 27.000 MHz
  Audio data block
    Linear PCM, max channels 2
      Supported sample rates (kHz): 48 44.1 32
      Supported sample sizes (bits): 24 20 16
  Speaker allocation data block
    Speaker map:
      FL/FR - Front Left/Right
  Vendor-specific data block, OUI 000c03 (HDMI)
    Source physical address 1.0.0.0
Basic audio support
Supports YCbCr 4:4:4
Supports YCbCr 4:2:2
1 native detailed modes
Detailed mode: Clock 74.250 MHz, 710 mm x 400 mm
               1920 2008 2052 2200 hborder 0
                540  542  547  563 vborder 0
               +hsync +vsync interlaced 
               VertFreq: 59 Hz, HorFreq: 33750 Hz
Detailed mode: Clock 74.250 MHz, 710 mm x 400 mm
               1280 1390 1430 1650 hborder 0
                720  725  730  750 vborder 0
               +hsync +vsync 
               VertFreq: 60 Hz, HorFreq: 45000 Hz
Detailed mode: Clock 27.000 MHz, 710 mm x 400 mm
                720  736  798  858 hborder 0
                480  489  495  525 vborder 0
               -hsync -vsync 
               VertFreq: 59 Hz, HorFreq: 31468 Hz
Detailed mode: Clock 27.000 MHz, 532 mm x 400 mm
                720  736  798  858 hborder 0
                480  489  495  525 vborder 0
               -hsync -vsync 
               VertFreq: 59 Hz, HorFreq: 31468 Hz
Detailed mode: Clock 27.000 MHz, 710 mm x 400 mm
               1440 1478 1602 1716 hborder 0
                240  244  247  262 vborder 0
               -hsync -vsync interlaced 
               VertFreq: 60 Hz, HorFreq: 15734 Hz
Checksum: 0x84 (valid)

One or more of the timings is out of range of the Monitor Ranges:
  Vertical Freq: 59 - 75 Hz
  Horizontal Freq: 15734 - 60000 Hz
  Maximum Clock: 78.750 MHz
