
EDID (hex):
00ffffffffffff0030ae000901000000
24190104a5351e7822ec40a656519c26
10505400000001010101010101010101
010101010101023a801871382d40582c
45000f282100001e000000fd00393e0f
5014000a202020202020000000ff004c
4d3233385746312d534c4531000000fc
004c454e2d4d3930302d420a20200085

Extracted contents:
header:          00 ff ff ff ff ff ff 00
serial number:   30 ae 00 09 01 00 00 00 24 19
version:         01 04
basic params:    a5 35 1e 78 22
chroma info:     ec 40 a6 56 51 9c 26 10 50 54
established:     00 00 00
standard:        01 01 01 01 01 01 01 01 01 01 01 01 01 01 01 01
descriptor 1:    02 3a 80 18 71 38 2d 40 58 2c 45 00 0f 28 21 00 00 1e
descriptor 2:    00 00 00 fd 00 39 3e 0f 50 14 00 0a 20 20 20 20 20 20
descriptor 3:    00 00 00 ff 00 4c 4d 32 33 38 57 46 31 2d 53 4c 45 31
descriptor 4:    00 00 00 fc 00 4c 45 4e 2d 4d 39 30 30 2d 42 0a 20 20
extensions:      00
checksum:        85

EDID version: 1.4
Manufacturer: LEN Model 900 Serial Number --
Made in week 36 of 2015
Digital display
8 bits per primary color channel
DisplayPort interface
Maximum image size: 53 cm x 30 cm
Gamma: 2.20
DPMS levels: Off
Supported color formats: RGB 4:4:4
First detailed timing includes the native pixel format and preferred refresh rate
Display x,y Chromaticity:
  Red:   0.6513, 0.3378
  Green: 0.3193, 0.6093
  Blue:  0.1494, 0.0625
  White: 0.3125, 0.3281
Established timings supported:
Standard timings supported:
Detailed mode: Clock 148.500 MHz, 527 mm x 296 mm
               1920 2008 2052 2200 hborder 0
               1080 1084 1089 1125 vborder 0
               +hsync +vsync 
               VertFreq: 60 Hz, HorFreq: 67500 Hz
Monitor ranges (GTF): 57-62Hz V, 15-80kHz H, max dotclock 200MHz
Serial number: --
Monitor name: LEN-M900-B
Checksum: 0x85 (valid)
