
EDID (hex):
00ffffffffffff001e6dd73a01010101
02100103185d34960af330a75442aa26
0f484cbfee003159455961597140714a
01010101010164190040410026301888
3600a20b32000018d609809020e01d10
1060a200a20832080818000000fc0034
3250433152522d5a4c0a2020000000fd
0034551f450b000a202020202020003a

Extracted contents:
header:          00 ff ff ff ff ff ff 00
serial number:   1e 6d d7 3a 01 01 01 01 02 10
version:         01 03
basic params:    18 5d 34 96 0a
chroma info:     f3 30 a7 54 42 aa 26 0f 48 4c
established:     bf ee 00
standard:        31 59 45 59 61 59 71 40 71 4a 01 01 01 01 01 01
descriptor 1:    64 19 00 40 41 00 26 30 18 88 36 00 a2 0b 32 00 00 18
descriptor 2:    d6 09 80 90 20 e0 1d 10 10 60 a2 00 a2 08 32 08 08 18
descriptor 3:    00 00 00 fc 00 34 32 50 43 31 52 52 2d 5a 4c 0a 20 20
descriptor 4:    00 00 00 fd 00 34 55 1f 45 0b 00 0a 20 20 20 20 20 20
extensions:      00
checksum:        3a

EDID version: 1.3
Manufacturer: GSM Model 3ad7 Serial Number --
Made in week 2 of 2006
Analog display, Input voltage level: 0.7/0.3 V
Configurable signal levels
Sync: Separate 
Maximum image size: 93 cm x 52 cm
Gamma: 2.50
RGB color display
First detailed timing is preferred timing
Display x,y Chromaticity:
  Red:   0.6552, 0.3310
  Green: 0.2578, 0.6669
  Blue:  0.1484, 0.0615
  White: 0.2812, 0.2968
Established timings supported:
  720x400@70Hz 9:5 HorFreq: 31469 Hz Clock: 28.320 MHz
  640x480@60Hz 4:3 HorFreq: 31469 Hz Clock: 25.175 MHz
  640x480@67Hz 4:3 HorFreq: 35000 Hz Clock: 30.240 MHz
  640x480@72Hz 4:3 HorFreq: 37900 Hz Clock: 31.500 MHz
  640x480@75Hz 4:3 HorFreq: 37500 Hz Clock: 31.500 MHz
  800x600@56Hz 4:3 HorFreq: 35200 Hz Clock: 36.000 MHz
  800x600@60Hz 4:3 HorFreq: 37900 Hz Clock: 40.000 MHz
  800x600@72Hz 4:3 HorFreq: 48100 Hz Clock: 50.000 MHz
  800x600@75Hz 4:3 HorFreq: 46900 Hz Clock: 49.500 MHz
  832x624@75Hz 4:3 HorFreq: 49726 Hz Clock: 57.284 MHz
  1024x768@60Hz 4:3 HorFreq: 48400 Hz Clock: 65.000 MHz
  1024x768@70Hz 4:3 HorFreq: 56500 Hz Clock: 75.000 MHz
  1024x768@75Hz 4:3 HorFreq: 60000 Hz Clock: 78.750 MHz
Standard timings supported:
  640x480@85Hz 4:3 HorFreq: 43300 Hz Clock: 36.000 MHz
  800x600@85Hz 4:3 HorFreq: 53700 Hz Clock: 56.250 MHz
  1024x768@85Hz 4:3 HorFreq: 68700 Hz Clock: 94.500 MHz
  1152x864@60Hz 4:3
  1152x864@70Hz 4:3
Detailed mode: Clock 65.000 MHz, 930 mm x 523 mm
               1024 1048 1184 1344 hborder 0
                768  771  777  806 vborder 0
               -hsync -vsync 
               VertFreq: 60 Hz, HorFreq: 48363 Hz
Detailed mode: Clock 25.180 MHz, 930 mm x 520 mm
                640  656  752  784 hborder 8
                480  490  492  509 vborder 8
               -hsync -vsync 
               VertFreq: 63 Hz, HorFreq: 32117 Hz
Monitor name: 42PC1RR-ZL
Monitor ranges (GTF): 52-85Hz V, 31-69kHz H, max dotclock 110MHz
Checksum: 0x3a (valid)
