
EDID (hex):
00ffffffffffff0038a3116800000000
11150104b5402878e2aeb5ad4f34b126
0d5054bfef808100818090408bc09500
a940b300d100e26800a0a0402e603020
360081902100001a000000fd001e571f
631b000a202020202020000000fc0050
41333031570a202020202020000000ff
00313431303132333655570a2020005c

Extracted contents:
header:          00 ff ff ff ff ff ff 00
serial number:   38 a3 11 68 00 00 00 00 11 15
version:         01 04
basic params:    b5 40 28 78 e2
chroma info:     ae b5 ad 4f 34 b1 26 0d 50 54
established:     bf ef 80
standard:        81 00 81 80 90 40 8b c0 95 00 a9 40 b3 00 d1 00
descriptor 1:    e2 68 00 a0 a0 40 2e 60 30 20 36 00 81 90 21 00 00 1a
descriptor 2:    00 00 00 fd 00 1e 57 1f 63 1b 00 0a 20 20 20 20 20 20
descriptor 3:    00 00 00 fc 00 50 41 33 30 31 57 0a 20 20 20 20 20 20
descriptor 4:    00 00 00 ff 00 31 34 31 30 31 32 33 36 55 57 0a 20 20
extensions:      00
checksum:        5c

EDID version: 1.4
Manufacturer: NEC Model 6811 Serial Number --
Made in week 17 of 2011
Digital display
10 bits per primary color channel
DisplayPort interface
Maximum image size: 64 cm x 40 cm
Gamma: 2.20
DPMS levels: Standby Suspend Off
Supported color formats: RGB 4:4:4
First detailed timing includes the native pixel format and preferred refresh rate
Display x,y Chromaticity:
  Red:   0.6777, 0.3105
  Green: 0.2060, 0.6933
  Blue:  0.1503, 0.0537
  White: 0.3134, 0.3291
Established timings supported:
  720x400@70Hz 9:5 HorFreq: 31469 Hz Clock: 28.320 MHz
  640x480@60Hz 4:3 HorFreq: 31469 Hz Clock: 25.175 MHz
  640x480@67Hz 4:3 HorFreq: 35000 Hz Clock: 30.240 MHz
  640x480@72Hz 4:3 HorFreq: 37900 Hz Clock: 31.500 MHz
  640x480@75Hz 4:3 HorFreq: 37500 Hz Clock: 31.500 MHz
  800x600@56Hz 4:3 HorFreq: 35200 Hz Clock: 36.000 MHz
  800x600@60Hz 4:3 HorFreq: 37900 Hz Clock: 40.000 MHz
  800x600@72Hz 4:3 HorFreq: 48100 Hz Clock: 50.000 MHz
  800x600@75Hz 4:3 HorFreq: 46900 Hz Clock: 49.500 MHz
  832x624@75Hz 4:3 HorFreq: 49726 Hz Clock: 57.284 MHz
  1024x768@60Hz 4:3 HorFreq: 48400 Hz Clock: 65.000 MHz
  1024x768@70Hz 4:3 HorFreq: 56500 Hz Clock: 75.000 MHz
  1024x768@75Hz 4:3 HorFreq: 60000 Hz Clock: 78.750 MHz
  1280x1024@75Hz 5:4 HorFreq: 80000 Hz Clock: 135.000 MHz
  1152x870@75Hz 192:145 HorFreq: 67500 Hz Clock: 108.000 MHz
Standard timings supported:
  1280x800@60Hz 16:10
  1280x1024@60Hz 5:4 HorFreq: 64000 Hz Clock: 108.000 MHz
  1400x1050@60Hz 4:3 HorFreq: 64700 Hz Clock: 101.000 MHz
  1360x765@60Hz 16:9
  1440x900@60Hz 16:10 HorFreq: 55500 Hz Clock: 88.750 MHz
  1600x1200@60Hz 4:3 HorFreq: 75000 Hz Clock: 162.000 MHz
  1680x1050@60Hz 16:10 HorFreq: 64700 Hz Clock: 119.000 MHz
  1920x1200@60Hz 16:10 HorFreq: 74000 Hz Clock: 154.000 MHz
Detailed mode: Clock 268.500 MHz, 641 mm x 400 mm
               2560 2608 2640 2720 hborder 0
               1600 1603 1609 1646 vborder 0
               +hsync -vsync 
               VertFreq: 59 Hz, HorFreq: 98713 Hz
Monitor ranges (GTF): 30-87Hz V, 31-99kHz H, max dotclock 270MHz
Monitor name: PA301W
Serial number: --
Checksum: 0x5c (valid)


