
EDID (hex):
00ffffffffffff0009e5340a00000000
141f0104a522167802fd25945d58942a
21505400000001010101010101010101
010101010101af41805471b028403020
360059d71000001a8c34805471b02840
3020360059d71000001a000000fe004a
46444b4d804e56313657554d00000000
0001410199001000000a010a202000f4

Extracted contents:
header:          00 ff ff ff ff ff ff 00
serial number:   09 e5 34 0a 00 00 00 00 14 1f
version:         01 04
basic params:    a5 22 16 78 02
chroma info:     fd 25 94 5d 58 94 2a 21 50 54
established:     00 00 00
standard:        01 01 01 01 01 01 01 01 01 01 01 01 01 01 01 01
descriptor 1:    af 41 80 54 71 b0 28 40 30 20 36 00 59 d7 10 00 00 1a
descriptor 2:    8c 34 80 54 71 b0 28 40 30 20 36 00 59 d7 10 00 00 1a
descriptor 3:    00 00 00 fe 00 4a 46 44 4b 4d 80 4e 56 31 36 57 55 4d
descriptor 4:    00 00 00 00 00 01 41 01 99 00 10 00 00 0a 01 0a 20 20
extensions:      00
checksum:        f4

EDID version: 1.4
Manufacturer: BOE Model a34 Serial Number --
Made in week 20 of 2021
Digital display
8 bits per primary color channel
DisplayPort interface
Maximum image size: 34 cm x 22 cm
Gamma: 2.20
Supported color formats: RGB 4:4:4
First detailed timing includes the native pixel format and preferred refresh rate
Display x,y Chromaticity:
  Red:   0.5810, 0.3662
  Green: 0.3466, 0.5791
  Blue:  0.1640, 0.1308
  White: 0.3134, 0.3291
Established timings supported:
Standard timings supported:
Detailed mode: Clock 168.150 MHz, 345 mm x 215 mm
               1920 1968 2000 2260 hborder 0
               1200 1203 1209 1240 vborder 0
               +hsync -vsync 
               VertFreq: 60 Hz, HorFreq: 74402 Hz
Detailed mode: Clock 134.520 MHz, 345 mm x 215 mm
               1920 1968 2000 2260 hborder 0
               1200 1203 1209 1240 vborder 0
               +hsync -vsync 
               VertFreq: 48 Hz, HorFreq: 59522 Hz
ASCII string: JFDKM
Manufacturer-specified data, tag 0
Checksum: 0xf4 (valid)
EDID block does NOT conform to EDID 1.4!
	Missing name descriptor
	Missing monitor ranges
	Detailed block string not properly terminated
