
EDID (hex):
00ffffffffffff00410c7ec0e6470000
1e1701036e2213782a554da3554a9727
154f54a1080001010101010101010101
010101010101662156aa51001e30468f
330058c21000001e000000ff00554b35
31333330303138343036000000fc0050
68696c69707320313636564c000000fd
00383f1e3c08000a20202020202000a5

Extracted contents:
header:          00 ff ff ff ff ff ff 00
serial number:   41 0c 7e c0 e6 47 00 00 1e 17
version:         01 03
basic params:    6e 22 13 78 2a
chroma info:     55 4d a3 55 4a 97 27 15 4f 54
established:     a1 08 00
standard:        01 01 01 01 01 01 01 01 01 01 01 01 01 01 01 01
descriptor 1:    66 21 56 aa 51 00 1e 30 46 8f 33 00 58 c2 10 00 00 1e
descriptor 2:    00 00 00 ff 00 55 4b 35 31 33 33 30 30 31 38 34 30 36
descriptor 3:    00 00 00 fc 00 50 68 69 6c 69 70 73 20 31 36 36 56 4c
descriptor 4:    00 00 00 fd 00 38 3f 1e 3c 08 00 0a 20 20 20 20 20 20
extensions:      00
checksum:        a5

EDID version: 1.3
Manufacturer: PHL Model c07e Serial Number --
Made in week 30 of 2013
Analog display, Input voltage level: 0.7/0.7 V
Sync: Separate Composite SyncOnGreen 
Maximum image size: 34 cm x 19 cm
Gamma: 2.20
DPMS levels: Off
RGB color display
First detailed timing is preferred timing
Display x,y Chromaticity:
  Red:   0.6376, 0.3330
  Green: 0.2900, 0.5908
  Blue:  0.1533, 0.0820
  White: 0.3115, 0.3291
Established timings supported:
  720x400@70Hz 9:5 HorFreq: 31469 Hz Clock: 28.320 MHz
  640x480@60Hz 4:3 HorFreq: 31469 Hz Clock: 25.175 MHz
  800x600@60Hz 4:3 HorFreq: 37900 Hz Clock: 40.000 MHz
  1024x768@60Hz 4:3 HorFreq: 48400 Hz Clock: 65.000 MHz
Standard timings supported:
Detailed mode: Clock 85.500 MHz, 344 mm x 194 mm
               1366 1436 1579 1792 hborder 0
                768  771  774  798 vborder 0
               +hsync +vsync 
               VertFreq: 59 Hz, HorFreq: 47712 Hz
Serial number: --
Monitor ranges (GTF): 56-63Hz V, 30-60kHz H, max dotclock 80MHz
Checksum: 0xa5 (valid)
EDID block does NOT conform to EDID 1.3!
	Name descriptor not terminated with a newline
One or more of the timings is out of range of the Monitor Ranges:
  Vertical Freq: 59 - 70 Hz
  Horizontal Freq: 31469 - 48400 Hz
  Maximum Clock: 85.500 MHz
