
EDID (hex):
00ffffffffffff000523ef1b770e0000
2f0b01030e1f1878e8e4de9e544a9723
1c4c54bfee00614c0101010101010101
010101010101d60980a0205e63101060
520830e41000001a000000ff00414630
4f31313437333730330a000000fc0041
476e656f766f20462d31350a000000fd
00324c1e3e08000a2020202020200098

Extracted contents:
header:          00 ff ff ff ff ff ff 00
serial number:   05 23 ef 1b 77 0e 00 00 2f 0b
version:         01 03
basic params:    0e 1f 18 78 e8
chroma info:     e4 de 9e 54 4a 97 23 1c 4c 54
established:     bf ee 00
standard:        61 4c 01 01 01 01 01 01 01 01 01 01 01 01 01 01
descriptor 1:    d6 09 80 a0 20 5e 63 10 10 60 52 08 30 e4 10 00 00 1a
descriptor 2:    00 00 00 ff 00 41 46 30 4f 31 31 34 37 33 37 30 33 0a
descriptor 3:    00 00 00 fc 00 41 47 6e 65 6f 76 6f 20 46 2d 31 35 0a
descriptor 4:    00 00 00 fd 00 32 4c 1e 3e 08 00 0a 20 20 20 20 20 20
extensions:      00
checksum:        98

EDID version: 1.3
Manufacturer: AIC Model 1bef Serial Number --
Analog display, Input voltage level: 0.7/0.3 V
Sync: Separate Composite SyncOnGreen 
Maximum image size: 31 cm x 24 cm
Gamma: 2.20
DPMS levels: Standby Suspend Off
RGB color display
Display x,y Chromaticity:
  Red:   0.6201, 0.3300
  Green: 0.2900, 0.5898
  Blue:  0.1396, 0.1103
  White: 0.2998, 0.3300
Established timings supported:
  720x400@70Hz 9:5 HorFreq: 31469 Hz Clock: 28.320 MHz
  640x480@60Hz 4:3 HorFreq: 31469 Hz Clock: 25.175 MHz
  640x480@67Hz 4:3 HorFreq: 35000 Hz Clock: 30.240 MHz
  640x480@72Hz 4:3 HorFreq: 37900 Hz Clock: 31.500 MHz
  640x480@75Hz 4:3 HorFreq: 37500 Hz Clock: 31.500 MHz
  800x600@56Hz 4:3 HorFreq: 35200 Hz Clock: 36.000 MHz
  800x600@60Hz 4:3 HorFreq: 37900 Hz Clock: 40.000 MHz
  800x600@72Hz 4:3 HorFreq: 48100 Hz Clock: 50.000 MHz
  800x600@75Hz 4:3 HorFreq: 46900 Hz Clock: 49.500 MHz
  832x624@75Hz 4:3 HorFreq: 49726 Hz Clock: 57.284 MHz
  1024x768@60Hz 4:3 HorFreq: 48400 Hz Clock: 65.000 MHz
  1024x768@70Hz 4:3 HorFreq: 56500 Hz Clock: 75.000 MHz
  1024x768@75Hz 4:3 HorFreq: 60000 Hz Clock: 78.750 MHz
Standard timings supported:
  1024x768@72Hz 4:3
Detailed mode: Clock 25.180 MHz, 304 mm x 228 mm
                640  656  752  800 hborder 0
                350  387  389  449 vborder 0
               +hsync -vsync 
               VertFreq: 70 Hz, HorFreq: 31475 Hz
Serial number: --
Monitor name: AGneovo F-15
Monitor ranges (GTF): 50-76Hz V, 30-62kHz H, max dotclock 80MHz
Checksum: 0x98 (valid)
EDID block does NOT conform to EDID 1.3!
	Missing preferred timing
EDID block does not conform at all!
	Bad year of manufacture
