
EDID (hex):
00ffffffffffff000dae321400000000
2f1e0104a51f117803ee95a3544c9926
0f505400000001010101010101010101
010101010101363680a0703820403020
350035ad10000018000000fd00283c43
430e010a202020202020000000fe0043
4d4e0a202020202020202020000000fe
004e3134304843452d4554320a20005f

Extracted contents:
header:          00 ff ff ff ff ff ff 00
serial number:   0d ae 32 14 00 00 00 00 2f 1e
version:         01 04
basic params:    a5 1f 11 78 03
chroma info:     ee 95 a3 54 4c 99 26 0f 50 54
established:     00 00 00
standard:        01 01 01 01 01 01 01 01 01 01 01 01 01 01 01 01
descriptor 1:    36 36 80 a0 70 38 20 40 30 20 35 00 35 ad 10 00 00 18
descriptor 2:    00 00 00 fd 00 28 3c 43 43 0e 01 0a 20 20 20 20 20 20
descriptor 3:    00 00 00 fe 00 43 4d 4e 0a 20 20 20 20 20 20 20 20 20
descriptor 4:    00 00 00 fe 00 4e 31 34 30 48 43 45 2d 45 54 32 0a 20
extensions:      00
checksum:        5f

EDID version: 1.4
Manufacturer: CMN Model 1432 Serial Number --
Made in week 47 of 2020
Digital display
8 bits per primary color channel
DisplayPort interface
Maximum image size: 31 cm x 17 cm
Gamma: 2.20
Supported color formats: RGB 4:4:4
First detailed timing includes the native pixel format and preferred refresh rate
Display is continuous frequency
Display x,y Chromaticity:
  Red:   0.6396, 0.3300
  Green: 0.2998, 0.5996
  Blue:  0.1503, 0.0595
  White: 0.3134, 0.3291
Established timings supported:
Standard timings supported:
Detailed mode: Clock 138.780 MHz, 309 mm x 173 mm
               1920 1968 2000 2080 hborder 0
               1080 1083 1088 1112 vborder 0
               -hsync -vsync 
               VertFreq: 60 Hz, HorFreq: 66721 Hz
Monitor ranges (bare limits): 40-60Hz V, 67-67kHz H, max dotclock 140MHz
ASCII string: CMN
ASCII string: N140HCE-ET2
Checksum: 0x5f (valid)
EDID block does NOT conform to EDID 1.4!
	Missing name descriptor
Warning: One or more of the timings is out of range of the Monitor Ranges:
  Vertical Freq: 60 - 60 Hz
  Horizontal Freq: 66721 - 66721 Hz
  Maximum Clock: 138.780 MHz
