
EDID (hex):
00ffffffffffff0030e43b0500000000
001a0104951d1178022a059358559129
1e505400000001010101010101010101
0101010101012e3680a070381f403020
350026a510000019572b80a070381f40
3020350026a510000019000000fe004c
4720446973706c61790a2020000000fe
004c503133335746322d53504c380010

Extracted contents:
header:          00 ff ff ff ff ff ff 00
serial number:   30 e4 3b 05 00 00 00 00 00 1a
version:         01 04
basic params:    95 1d 11 78 02
chroma info:     2a 05 93 58 55 91 29 1e 50 54
established:     00 00 00
standard:        01 01 01 01 01 01 01 01 01 01 01 01 01 01 01 01
descriptor 1:    2e 36 80 a0 70 38 1f 40 30 20 35 00 26 a5 10 00 00 19
descriptor 2:    57 2b 80 a0 70 38 1f 40 30 20 35 00 26 a5 10 00 00 19
descriptor 3:    00 00 00 fe 00 4c 47 20 44 69 73 70 6c 61 79 0a 20 20
descriptor 4:    00 00 00 fe 00 4c 50 31 33 33 57 46 32 2d 53 50 4c 38
extensions:      00
checksum:        10

EDID version: 1.4
Manufacturer: LGD Model 53b Serial Number --
Made in year 2016
Digital display
6 bits per primary color channel
DisplayPort interface
Maximum image size: 29 cm x 17 cm
Gamma: 2.20
Supported color formats: RGB 4:4:4
First detailed timing includes the native pixel format and preferred refresh rate
Display x,y Chromaticity:
  Red:   0.5742, 0.3457
  Green: 0.3339, 0.5683
  Blue:  0.1601, 0.1171
  White: 0.3134, 0.3291
Established timings supported:
Standard timings supported:
Detailed mode: Clock 138.700 MHz, 294 mm x 165 mm
               1920 1968 2000 2080 hborder 0
               1080 1083 1088 1111 vborder 0
               -hsync -vsync 
               VertFreq: 60 Hz, HorFreq: 66682 Hz
Detailed mode: Clock 110.950 MHz, 294 mm x 165 mm
               1920 1968 2000 2080 hborder 0
               1080 1083 1088 1111 vborder 0
               -hsync -vsync 
               VertFreq: 48 Hz, HorFreq: 53341 Hz
ASCII string: LG Display
ASCII string: LP133WF2-SPL8
Checksum: 0x10 (valid)
EDID block does NOT conform to EDID 1.4!
	Missing name descriptor
	Missing monitor ranges
