
EDID (hex):
00ffffffffffff0005e3601904060000
0117010380291a782a3ac5a4554d9f25
125054bfef009500818081c001010101
010101010101ab22a0a050841a303020
360098ff1000001a000000fd00324c1e
530e000a202020202020000000fc0031
3936300a2020202020202020000000ff
0041505a4431394130303135343000bd

Extracted contents:
header:          00 ff ff ff ff ff ff 00
serial number:   05 e3 60 19 04 06 00 00 01 17
version:         01 03
basic params:    80 29 1a 78 2a
chroma info:     3a c5 a4 55 4d 9f 25 12 50 54
established:     bf ef 00
standard:        95 00 81 80 81 c0 01 01 01 01 01 01 01 01 01 01
descriptor 1:    ab 22 a0 a0 50 84 1a 30 30 20 36 00 98 ff 10 00 00 1a
descriptor 2:    00 00 00 fd 00 32 4c 1e 53 0e 00 0a 20 20 20 20 20 20
descriptor 3:    00 00 00 fc 00 31 39 36 30 0a 20 20 20 20 20 20 20 20
descriptor 4:    00 00 00 ff 00 41 50 5a 44 31 39 41 30 30 31 35 34 30
extensions:      00
checksum:        bd

EDID version: 1.3
Manufacturer: AOC Model 1960 Serial Number --
Made in week 1 of 2013
Digital display
Maximum image size: 41 cm x 26 cm
Gamma: 2.20
DPMS levels: Off
RGB color display
First detailed timing is preferred timing
Display x,y Chromaticity:
  Red:   0.6406, 0.3349
  Green: 0.3027, 0.6230
  Blue:  0.1474, 0.0703
  White: 0.3134, 0.3291
Established timings supported:
  720x400@70Hz 9:5 HorFreq: 31469 Hz Clock: 28.320 MHz
  640x480@60Hz 4:3 HorFreq: 31469 Hz Clock: 25.175 MHz
  640x480@67Hz 4:3 HorFreq: 35000 Hz Clock: 30.240 MHz
  640x480@72Hz 4:3 HorFreq: 37900 Hz Clock: 31.500 MHz
  640x480@75Hz 4:3 HorFreq: 37500 Hz Clock: 31.500 MHz
  800x600@56Hz 4:3 HorFreq: 35200 Hz Clock: 36.000 MHz
  800x600@60Hz 4:3 HorFreq: 37900 Hz Clock: 40.000 MHz
  800x600@72Hz 4:3 HorFreq: 48100 Hz Clock: 50.000 MHz
  800x600@75Hz 4:3 HorFreq: 46900 Hz Clock: 49.500 MHz
  832x624@75Hz 4:3 HorFreq: 49726 Hz Clock: 57.284 MHz
  1024x768@60Hz 4:3 HorFreq: 48400 Hz Clock: 65.000 MHz
  1024x768@70Hz 4:3 HorFreq: 56500 Hz Clock: 75.000 MHz
  1024x768@75Hz 4:3 HorFreq: 60000 Hz Clock: 78.750 MHz
  1280x1024@75Hz 5:4 HorFreq: 80000 Hz Clock: 135.000 MHz
Standard timings supported:
  1440x900@60Hz 16:10 HorFreq: 55500 Hz Clock: 88.750 MHz
  1280x1024@60Hz 5:4 HorFreq: 64000 Hz Clock: 108.000 MHz
  1280x720@60Hz 16:9
Detailed mode: Clock 88.750 MHz, 408 mm x 255 mm
               1440 1488 1520 1600 hborder 0
                900  903  909  926 vborder 0
               +hsync -vsync 
               VertFreq: 59 Hz, HorFreq: 55468 Hz
Monitor ranges (GTF): 50-76Hz V, 30-83kHz H, max dotclock 140MHz
Monitor name: 1960
Serial number: --
Checksum: 0xbd (valid)
