
EDID (hex):
00ffffffffffff004d107d1400000000
2d1a0104a51d117806de50a3544c9926
0f505400000001010101010101010101
010101010101cd9180a0c00834703020
350026a510000018ad7480a0c0083470
3020350026a510000018000000100000
000000000000000000000000000000fe
004c513133335a314a5a32350a2000ff

Extracted contents:
header:          00 ff ff ff ff ff ff 00
serial number:   4d 10 7d 14 00 00 00 00 2d 1a
version:         01 04
basic params:    a5 1d 11 78 06
chroma info:     de 50 a3 54 4c 99 26 0f 50 54
established:     00 00 00
standard:        01 01 01 01 01 01 01 01 01 01 01 01 01 01 01 01
descriptor 1:    cd 91 80 a0 c0 08 34 70 30 20 35 00 26 a5 10 00 00 18
descriptor 2:    ad 74 80 a0 c0 08 34 70 30 20 35 00 26 a5 10 00 00 18
descriptor 3:    00 00 00 10 00 00 00 00 00 00 00 00 00 00 00 00 00 00
descriptor 4:    00 00 00 fe 00 4c 51 31 33 33 5a 31 4a 5a 32 35 0a 20
extensions:      00
checksum:        ff

EDID version: 1.4
Manufacturer: SHP Model 147d Serial Number --
Made in week 45 of 2016
Digital display
8 bits per primary color channel
DisplayPort interface
Maximum image size: 29 cm x 17 cm
Gamma: 2.20
Supported color formats: RGB 4:4:4
Default (sRGB) color space is primary color space
First detailed timing includes the native pixel format and preferred refresh rate
Display x,y Chromaticity:
  Red:   0.6396, 0.3291
  Green: 0.2998, 0.5996
  Blue:  0.1494, 0.0595
  White: 0.3125, 0.3281
Established timings supported:
Standard timings supported:
Detailed mode: Clock 373.250 MHz, 294 mm x 165 mm
               3200 3248 3280 3360 hborder 0
               1800 1803 1808 1852 vborder 0
               -hsync -vsync 
               VertFreq: 59 Hz, HorFreq: 111086 Hz
Detailed mode: Clock 298.690 MHz, 294 mm x 165 mm
               3200 3248 3280 3360 hborder 0
               1800 1803 1808 1852 vborder 0
               -hsync -vsync 
               VertFreq: 47 Hz, HorFreq: 88895 Hz
Dummy block
ASCII string: LQ133Z1JZ25
Checksum: 0xff (valid)
EDID block does NOT conform to EDID 1.4!
	sRGB is signaled, but the chromaticities do not match
	Missing name descriptor
	Missing monitor ranges
