edid-decode (hex):

00 ff ff ff ff ff ff 00 4c 2d 75 4a 35 31 4e 43
1c 0b 01 02 0f 1e 17 61 ea 52 20 a0 54 49 97 25
1c 4e 54 b7 6e 00 31 4f 45 4f 61 4f 01 01 01 01
01 01 01 01 01 01 64 19 00 40 41 00 26 30 18 88
36 00 30 e4 10 00 00 18 00 00 00 fd 00 32 4b 1e
3d 08 00 0a 20 20 20 20 20 20 00 00 00 fc 00 35
37 30 53 2f 35 38 30 53 20 54 46 54 00 00 00 ff
00 48 31 43 52 37 31 35 33 38 35 0a 20 20 00 49

00 ff ff ff ff ff ff 00 4c 2d 75 4a 35 31 4e 43
1c 0b 01 02 0f 1e 17 61 ea 52 20 a0 54 49 97 25
1c 4e 54 b7 6e 00 31 4f 45 4f 61 4f 01 01 01 01
01 01 01 01 01 01 64 19 00 40 41 00 26 30 18 88
36 00 30 e4 10 00 00 18 00 00 00 fd 00 32 4b 1e
3d 08 00 0a 20 20 20 20 20 20 00 00 00 fc 00 35
37 30 53 2f 35 38 30 53 20 54 46 54 00 00 00 ff
00 48 31 43 52 37 31 35 33 38 35 0a 20 20 00 49

----------------

Block 0, Base EDID:
  EDID Structure Version & Revision: 1.2
  Vendor & Product Identification:
    Manufacturer: SAM
    Model: 19061
    Serial Number: ...
    Made in: week 28 of 2001
  Basic Display Parameters & Features:
    Analog display
    Signal Level Standard: 0.700 : 0.300 : 1.000 V p-p
    Blank level equals black level
    Sync: Separate Composite SyncOnGreen Serration
    Maximum image size: 30 cm x 23 cm
    Gamma: 1.97
    DPMS levels: Standby Suspend Off
    RGB color display
    First detailed timing is the preferred timing
  Color Characteristics:
    Red  : 0.6259, 0.3291
    Green: 0.2851, 0.5917
    Blue : 0.1445, 0.1113
    White: 0.3046, 0.3281
  Established Timings I & II:
    IBM     :   720x400    70.081663 Hz   9:5     31.467 kHz     28.320000 MHz
    DMT 0x04:   640x480    59.940476 Hz   4:3     31.469 kHz     25.175000 MHz
    Apple   :   640x480    66.666667 Hz   4:3     35.000 kHz     30.240000 MHz
    DMT 0x06:   640x480    75.000000 Hz   4:3     37.500 kHz     31.500000 MHz
    DMT 0x08:   800x600    56.250000 Hz   4:3     35.156 kHz     36.000000 MHz
    DMT 0x09:   800x600    60.316541 Hz   4:3     37.879 kHz     40.000000 MHz
    DMT 0x0b:   800x600    75.000000 Hz   4:3     46.875 kHz     49.500000 MHz
    Apple   :   832x624    74.551266 Hz   4:3     49.726 kHz     57.284000 MHz
    DMT 0x10:  1024x768    60.003840 Hz   4:3     48.363 kHz     65.000000 MHz
    DMT 0x11:  1024x768    70.069359 Hz   4:3     56.476 kHz     75.000000 MHz
    DMT 0x12:  1024x768    75.028582 Hz   4:3     60.023 kHz     78.750000 MHz
  Standard Timings:
    DMT 0x06:   640x480    75.000000 Hz   4:3     37.500 kHz     31.500000 MHz
    DMT 0x0b:   800x600    75.000000 Hz   4:3     46.875 kHz     49.500000 MHz
    DMT 0x12:  1024x768    75.028582 Hz   4:3     60.023 kHz     78.750000 MHz
  Detailed Timing Descriptors:
    DTD 1:  1024x768    60.003840 Hz   4:3     48.363 kHz     65.000000 MHz (304 mm x 228 mm)
                 Hfront   24 Hsync 136 Hback  160 Hpol N
                 Vfront    3 Vsync   6 Vback   29 Vpol N
    Display Range Limits:
      Monitor ranges (GTF): 50-75 Hz V, 30-61 kHz H, max dotclock 80 MHz
    Display Product Name: '570S/580S TFT'
    Display Product Serial Number: ...
Checksum: 0x49

----------------

Block 1, Unknown EDID Extension Block 0x00:
  00 ff ff ff ff ff ff 00 4c 2d 75 4a 35 31 4e 43 '........L-uJ51NC'
  1c 0b 01 02 0f 1e 17 61 ea 52 20 a0 54 49 97 25 '.......a.R .TI.%'
  1c 4e 54 b7 6e 00 31 4f 45 4f 61 4f 01 01 01 01 '.NT.n.1OEOaO....'
  01 01 01 01 01 01 64 19 00 40 41 00 26 30 18 88 '......d..@A.&0..'
  36 00 30 e4 10 00 00 18 00 00 00 fd 00 32 4b 1e '6.0..........2K.'
  3d 08 00 0a 20 20 20 20 20 20 00 00 00 fc 00 35 '=...      .....5'
  37 30 53 2f 35 38 30 53 20 54 46 54 00 00 00 ff '70S/580S TFT....'
  00 48 31 43 52 37 31 35 33 38 35 0a 20 20 00 49 '.H1CR715385.  .I'
Checksum: 0x49

----------------

Warnings:

Block 0, Base EDID:
  EDID Structure Version & Revision: EDID 1.2 is deprecated, do not use.

Failures:

Block 1, Base EDID:
  Unknown Extension Block.
EDID:
  Base EDID: EDID specified 0 extension block(s), but found 1 extension block(s).

EDID conformity: FAIL
