edid-decode (hex):

00 ff ff ff ff ff ff 00 4d 10 30 14 00 00 00 00
24 19 01 04 a5 23 13 78 0e df 50 a3 54 35 b5 26
0f 50 54 00 00 00 01 01 01 01 01 01 01 01 01 01
01 01 01 01 01 01 4d d0 00 a0 f0 70 3e 80 30 20
35 00 5a c2 10 00 00 18 4d d0 00 a0 f0 70 68 82
30 20 35 00 00 00 00 00 00 00 00 00 00 fe 00 34
33 4e 38 30 80 4c 51 31 35 36 44 31 00 00 00 00
00 02 01 03 23 00 11 00 00 0b 01 0a 20 20 00 c0

----------------

Block 0, Base EDID:
  EDID Structure Version & Revision: 1.4
  Vendor & Product Identification:
    Manufacturer: SHP
    Model: 5168
    Made in: week 36 of 2015
  Basic Display Parameters & Features:
    Digital display
    Bits per primary color channel: 8
    DisplayPort interface
    Maximum image size: 35 cm x 19 cm
    Gamma: 2.20
    Supported color formats: RGB 4:4:4, YCrCb 4:4:4
    Default (sRGB) color space is primary color space
    First detailed timing includes the native pixel format and preferred refresh rate
  Color Characteristics:
    Red  : 0.6396, 0.3291
    Green: 0.2099, 0.7099
    Blue : 0.1494, 0.0595
    White: 0.3125, 0.3281
  Established Timings I & II: none
  Standard Timings: none
  Detailed Timing Descriptors:
    DTD 1:  3840x2160   59.997 Hz  16:9   133.312 kHz 533.250 MHz (346 mm x 194 mm)
                 Hfront   48 Hsync  32 Hback  80 Hpol N
                 Vfront    3 Vsync   5 Vback  54 Vpol N
    DTD 2:  3840x2160   48.023 Hz  16:9   133.312 kHz 533.250 MHz (analog composite, sync-on-green)
                 Hfront   48 Hsync  32 Hback  80 Hpol N
                 Vfront    3 Vsync   5 Vback 608 Vpol N
    Alphanumeric Data String: '43N80'
    Manufacturer-Specified Display Descriptor (0x00): 00 00 00 02 01 03 23 00 11 00 00 0b 01 0a 20 20 '......#.......  '
Checksum: 0xc0
