
EDID (hex):
00ffffffffffff000cb8650600000000
1c1d010380342178eb5ad5a7564b9b24
135054210800818095009040b300a940
010101010101483f80a0700014503020
840020d38400001af339801871382d40
582c450098658400001a9a29a0d05184
2230509836009e011100001c000000fc
00435831323354502d430a2020200136
02031b77478183848593949f230f5707
834f000066030c001000808c0ad08a20
e02d10103e9600138e21000018fa1c80
18711c1620582c2500c48e2100009e01
1d00bc52d01e20b8285540c48e210000
1e8c0ad08a20e02d10103e9600138e21
0000188c0ad08a20e02d10103e9600c4
8e21000018000000000000000000000b

Extracted contents:
header:          00 ff ff ff ff ff ff 00
serial number:   0c b8 65 06 00 00 00 00 1c 1d
version:         01 03
basic params:    80 34 21 78 eb
chroma info:     5a d5 a7 56 4b 9b 24 13 50 54
established:     21 08 00
standard:        81 80 95 00 90 40 b3 00 a9 40 01 01 01 01 01 01
descriptor 1:    48 3f 80 a0 70 00 14 50 30 20 84 00 20 d3 84 00 00 1a
descriptor 2:    f3 39 80 18 71 38 2d 40 58 2c 45 00 98 65 84 00 00 1a
descriptor 3:    9a 29 a0 d0 51 84 22 30 50 98 36 00 9e 01 11 00 00 1c
descriptor 4:    00 00 00 fc 00 43 58 31 32 33 54 50 2d 43 0a 20 20 20
extensions:      01
checksum:        36

EDID version: 1.3
Manufacturer: CEX Model 665 Serial Number --
Made in week 28 of 2019
Digital display
Maximum image size: 52 cm x 33 cm
Gamma: 2.20
DPMS levels: Standby Suspend Off
RGB color display
First detailed timing is preferred timing
Supports GTF timings within operating range
Display x,y Chromaticity:
  Red:   0.6533, 0.3369
  Green: 0.2949, 0.6074
  Blue:  0.1435, 0.0751
  White: 0.3134, 0.3291
Established timings supported:
  640x480@60Hz 4:3 HorFreq: 31469 Hz Clock: 25.175 MHz
  800x600@60Hz 4:3 HorFreq: 37900 Hz Clock: 40.000 MHz
  1024x768@60Hz 4:3 HorFreq: 48400 Hz Clock: 65.000 MHz
Standard timings supported:
  1280x1024@60Hz 5:4 HorFreq: 64000 Hz Clock: 108.000 MHz
  1440x900@60Hz 16:10 HorFreq: 55500 Hz Clock: 88.750 MHz
  1400x1050@60Hz 4:3 HorFreq: 64700 Hz Clock: 101.000 MHz
  1680x1050@60Hz 16:10 HorFreq: 64700 Hz Clock: 119.000 MHz
  1600x1200@60Hz 4:3 HorFreq: 75000 Hz Clock: 162.000 MHz
Detailed mode: Clock 162.000 MHz, 2080 mm x 1235 mm
               1920 1968 2000 2080 hborder 0
               1280 1288 1292 1300 vborder 0
               +hsync -vsync 
               VertFreq: 59 Hz, HorFreq: 77884 Hz
Detailed mode: Clock 148.350 MHz, 2200 mm x 1125 mm
               1920 2008 2052 2200 hborder 0
               1080 1084 1089 1125 vborder 0
               +hsync -vsync 
               VertFreq: 59 Hz, HorFreq: 67431 Hz
Detailed mode: Clock 106.500 MHz, 414 mm x 257 mm
               1440 1520 1672 1904 hborder 0
                900  903  909  934 vborder 0
               -hsync +vsync 
               VertFreq: 59 Hz, HorFreq: 55934 Hz
Monitor name: CX123TP-C
Has 1 extension blocks
Checksum: 0x36 (valid)

CTA extension block
Extension version: 3
23 bytes of CTA data
  Video data block
    VIC   1 640x480@60Hz 4:3 (native) HorFreq: 31469 Hz Clock: 25.175 MHz
    VIC   3 720x480@60Hz 16:9 (native) HorFreq: 31469 Hz Clock: 27.000 MHz
    VIC   4 1280x720@60Hz 16:9 (native) HorFreq: 45000 Hz Clock: 74.250 MHz
    VIC   5 1920x1080i@60Hz 16:9 (native) HorFreq: 33750 Hz Clock: 74.250 MHz
    VIC  19 1280x720@50Hz 16:9 (native) HorFreq: 37500 Hz Clock: 74.250 MHz
    VIC  20 1920x1080i@50Hz 16:9 (native) HorFreq: 28125 Hz Clock: 74.250 MHz
    VIC  31 1920x1080@50Hz 16:9 (native) HorFreq: 56250 Hz Clock: 148.500 MHz
  Audio data block
    Linear PCM, max channels 8
      Supported sample rates (kHz): 192 96 48 44.1 32
      Supported sample sizes (bits): 24 20 16
  Speaker allocation data block
    Speaker map:
      FL/FR - Front Left/Right
      LFE - Low Frequency Effects
      FC - Front Center
      BL/BR - Back Left/Right
      RLC/RRC - Rear Left/Right of Center
  Vendor-specific data block, OUI 000c03 (HDMI)
    Source physical address 1.0.0.0
    Supports_AI
Basic audio support
Supports YCbCr 4:4:4
Supports YCbCr 4:2:2
7 native detailed modes
Detailed mode: Clock 27.000 MHz, 531 mm x 398 mm
                720  736  798  858 hborder 0
                480  489  495  525 vborder 0
               -hsync -vsync 
               VertFreq: 59 Hz, HorFreq: 31468 Hz
Detailed mode: Clock 74.180 MHz, 708 mm x 398 mm
               1920 2008 2052 2200 hborder 0
                540  542  547  562 vborder 0
               +hsync +vsync interlaced 
               VertFreq: 59 Hz, HorFreq: 33718 Hz
Detailed mode: Clock 74.250 MHz, 708 mm x 398 mm
               1280 1720 1760 1980 hborder 0
                720  725  730  750 vborder 0
               +hsync +vsync 
               VertFreq: 50 Hz, HorFreq: 37500 Hz
Detailed mode: Clock 27.000 MHz, 531 mm x 398 mm
                720  736  798  858 hborder 0
                480  489  495  525 vborder 0
               -hsync -vsync 
               VertFreq: 59 Hz, HorFreq: 31468 Hz
Detailed mode: Clock 27.000 MHz, 708 mm x 398 mm
                720  736  798  858 hborder 0
                480  489  495  525 vborder 0
               -hsync -vsync 
               VertFreq: 59 Hz, HorFreq: 31468 Hz
Checksum: 0xb (valid)

EDID block does NOT conform to EDID 1.3!
	Missing monitor ranges
