
EDID (hex):
00ffffffffffff003669c14d01000000
0c20010380462778aeee95a3544c9926
0f5054a5cb0081809500b300d1c081bc
953cb33cd1fc6a5e00a0a0a029503020
3500bc862100001a000000ff00444331
48303232333030323932000000fd0030
901efa3c000a202020202020000000fc
004d534920473332314351500a200117
020333f34a010203049012131f3f6123
090707830100006a030c001000387820
000067d85dc40178c000681a00000101
3090edd4bc00a0a0a02950302035001d
4d3100001e98e200a0a0a02950302035
001d4d3100001efc3100a050a0295030
2035001d4d3100001e00000000000000
00000000000000000000000000000080

Extracted contents:
header:          00 ff ff ff ff ff ff 00
serial number:   36 69 c1 4d 01 00 00 00 0c 20
version:         01 03
basic params:    80 46 27 78 ae
chroma info:     ee 95 a3 54 4c 99 26 0f 50 54
established:     a5 cb 00
standard:        81 80 95 00 b3 00 d1 c0 81 bc 95 3c b3 3c d1 fc
descriptor 1:    6a 5e 00 a0 a0 a0 29 50 30 20 35 00 bc 86 21 00 00 1a
descriptor 2:    00 00 00 ff 00 44 43 31 48 30 32 32 33 30 30 32 39 32
descriptor 3:    00 00 00 fd 00 30 90 1e fa 3c 00 0a 20 20 20 20 20 20
descriptor 4:    00 00 00 fc 00 4d 53 49 20 47 33 32 31 43 51 50 0a 20
extensions:      01
checksum:        17

EDID version: 1.3
Manufacturer: MSI Model 4dc1 Serial Number --
Made in week 12 of 2022
Digital display
Maximum image size: 70 cm x 39 cm
Gamma: 2.20
DPMS levels: Standby Off
RGB color display
Default (sRGB) color space is primary color space
First detailed timing is preferred timing
Display x,y Chromaticity:
  Red:   0.6396, 0.3300
  Green: 0.2998, 0.5996
  Blue:  0.1503, 0.0595
  White: 0.3134, 0.3291
Established timings supported:
  720x400@70Hz 9:5 HorFreq: 31469 Hz Clock: 28.320 MHz
  640x480@60Hz 4:3 HorFreq: 31469 Hz Clock: 25.175 MHz
  640x480@75Hz 4:3 HorFreq: 37500 Hz Clock: 31.500 MHz
  800x600@60Hz 4:3 HorFreq: 37900 Hz Clock: 40.000 MHz
  800x600@72Hz 4:3 HorFreq: 48100 Hz Clock: 50.000 MHz
  800x600@75Hz 4:3 HorFreq: 46900 Hz Clock: 49.500 MHz
  1024x768@60Hz 4:3 HorFreq: 48400 Hz Clock: 65.000 MHz
  1024x768@75Hz 4:3 HorFreq: 60000 Hz Clock: 78.750 MHz
  1280x1024@75Hz 5:4 HorFreq: 80000 Hz Clock: 135.000 MHz
Standard timings supported:
  1280x1024@60Hz 5:4 HorFreq: 64000 Hz Clock: 108.000 MHz
  1440x900@60Hz 16:10 HorFreq: 55500 Hz Clock: 88.750 MHz
  1680x1050@60Hz 16:10 HorFreq: 64700 Hz Clock: 119.000 MHz
  1920x1080@60Hz 16:9
  1280x1024@120Hz 5:4
  1440x900@120Hz 16:10
  1680x1050@120Hz 16:10
  1920x1080@120Hz 16:9
Detailed mode: Clock 241.700 MHz, 700 mm x 390 mm
               2560 2608 2640 2720 hborder 0
               1440 1443 1448 1481 vborder 0
               +hsync -vsync 
               VertFreq: 60 Hz, HorFreq: 88860 Hz
Serial number: --
Monitor ranges (GTF): 48-144Hz V, 30-250kHz H, max dotclock 600MHz
Monitor name: MSI G321CQP
Has 1 extension blocks
Checksum: 0x17 (valid)

CTA extension block
Extension version: 3
47 bytes of CTA data
  Video data block
    VIC   1 640x480@60Hz 4:3  HorFreq: 31469 Hz Clock: 25.175 MHz
    VIC   2 720x480@60Hz 4:3  HorFreq: 31469 Hz Clock: 27.000 MHz
    VIC   3 720x480@60Hz 16:9  HorFreq: 31469 Hz Clock: 27.000 MHz
    VIC   4 1280x720@60Hz 16:9  HorFreq: 45000 Hz Clock: 74.250 MHz
    VIC  16 1920x1080@60Hz 16:9 (native) HorFreq: 67500 Hz Clock: 148.500 MHz
    VIC  18 720x576@50Hz 16:9  HorFreq: 31250 Hz Clock: 27.000 MHz
    VIC  19 1280x720@50Hz 16:9  HorFreq: 37500 Hz Clock: 74.250 MHz
    VIC  31 1920x1080@50Hz 16:9  HorFreq: 56250 Hz Clock: 148.500 MHz
    VIC  63 1920x1080@120Hz 16:9  HorFreq: 135000 Hz Clock: 297.000 MHz
    VIC  97 3840x2160@60Hz 16:9  HorFreq: 135000 Hz Clock: 594.000 MHz
  Audio data block
    Linear PCM, max channels 2
      Supported sample rates (kHz): 48 44.1 32
      Supported sample sizes (bits): 24 20 16
  Speaker allocation data block
    Speaker map:
      FL/FR - Front Left/Right
  Vendor-specific data block, OUI 000c03 (HDMI)
    Source physical address 1.0.0.0
    DC_36bit
    DC_30bit
    DC_Y444
    Maximum TMDS clock: 600MHz
    Extended HDMI video details:
  Vendor-specific data block, OUI c45dd8 (HDMI Forum)
    Version: 1
    Maximum TMDS Character Rate: 600MHz
    SCDC Present
    SCDC Read Request Capable
  Vendor-specific data block, OUI 00001a
Underscans PC formats by default
Basic audio support
Supports YCbCr 4:4:4
Supports YCbCr 4:2:2
3 native detailed modes
Detailed mode: Clock 483.400 MHz, 797 mm x 333 mm
               2560 2608 2640 2720 hborder 0
               1440 1443 1448 1481 vborder 0
               +hsync +vsync 
               VertFreq: 120 Hz, HorFreq: 177720 Hz
Detailed mode: Clock 580.080 MHz, 797 mm x 333 mm
               2560 2608 2640 2720 hborder 0
               1440 1443 1448 1481 vborder 0
               +hsync +vsync 
               VertFreq: 144 Hz, HorFreq: 213264 Hz
Detailed mode: Clock 127.960 MHz, 797 mm x 333 mm
               1280 1328 1360 1440 hborder 0
               1440 1443 1448 1481 vborder 0
               +hsync +vsync 
               VertFreq: 60 Hz, HorFreq: 88861 Hz
Checksum: 0x80 (valid)

EDID block does NOT conform to EDID 1.3!
	sRGB is signaled, but the chromaticities do not match
	HDMI VSDB Max TMDS rate is > 340
EDID block does not conform at all!
	Both the serial number and the serial string are set
