edid-decode (hex):

00 ff ff ff ff ff ff 00 09 e5 7b 09 00 00 00 00
1b 1e 01 04 95 1a 0e 78 03 50 65 9a 5f 59 96 28
1f 50 54 00 00 00 01 01 01 01 01 01 01 01 01 01
01 01 01 01 01 01 09 1e 56 dc 50 00 28 30 30 20
36 00 00 90 10 00 00 1a 08 18 56 dc 50 00 28 30
30 20 36 00 00 90 10 00 00 1a 00 00 00 fe 00 48
48 38 54 34 80 4e 56 31 31 41 32 33 00 00 00 00
00 00 41 21 94 00 10 00 00 09 01 0a 20 20 00 37

----------------

Block 0, Base EDID:
  EDID Structure Version & Revision: 1.4
  Vendor & Product Identification:
    Manufacturer: BOE
    Model: 2427
    Made in: week 27 of 2020
  Basic Display Parameters & Features:
    Digital display
    Bits per primary color channel: 6
    DisplayPort interface
    Maximum image size: 26 cm x 14 cm
    Gamma: 2.20
    Supported color formats: RGB 4:4:4
    First detailed timing includes the native pixel format and preferred refresh rate
    Display is continuous frequency
  Color Characteristics:
    Red  : 0.6025, 0.3720
    Green: 0.3476, 0.5859
    Blue : 0.1572, 0.1230
    White: 0.3134, 0.3291
  Established Timings I & II: none
  Standard Timings: none
  Detailed Timing Descriptors:
    DTD 1:  1366x768    60.000562 Hz 683:384   48.480 kHz     76.890000 MHz (256 mm x 144 mm)
                 Hfront   48 Hsync  32 Hback  140 Hpol P
                 Vfront    3 Vsync   6 Vback   31 Vpol N
    DTD 2:  1366x768    48.006692 Hz 683:384   38.789 kHz     61.520000 MHz (256 mm x 144 mm)
                 Hfront   48 Hsync  32 Hback  140 Hpol P
                 Vfront    3 Vsync   6 Vback   31 Vpol N
    Alphanumeric Data String: 'HH8T4'
    Manufacturer-Specified Display Descriptor (0x00): 00 00 00 00 41 21 94 00 10 00 00 09 01 0a 20 20 '....A!........  '
Checksum: 0x37

----------------

Warnings:

Block 0, Base EDID:
  Missing Display Product Name.

Failures:

Block 0, Base EDID:
  Alphanumeric Data String: Non-printable character.
  Missing Display Range Limits Descriptor.

EDID conformity: FAIL
