
EDID (hex):
00ffffffffffff0010ac7da14c4a3930
021f0103805825782af661ae4f46aa26
0e505421080001010101010101010101
0101010101013c9b00a0f04038603020
3500706f3100001a000000ff0023484c
41594d78677741426e49000000fd0018
781e8d3c010a202020202020000000fc
0044656c6c204157333832314457011b
020337f148101f04130312013f230907
018301000068030c002000383c006ad8
5dc401788000000278e305c000e2006a
e606050178601f31dd00a0f040426030
203500706f3100001ad14c00a0f04027
6030203500706f3100001a055f00a0a0
a0335030203500706f3100001a6fc200
a0a0a0555030203500706f3100001a4d

Extracted contents:
header:          00 ff ff ff ff ff ff 00
serial number:   10 ac 7d a1 4c 4a 39 30 02 1f
version:         01 03
basic params:    80 58 25 78 2a
chroma info:     f6 61 ae 4f 46 aa 26 0e 50 54
established:     21 08 00
standard:        01 01 01 01 01 01 01 01 01 01 01 01 01 01 01 01
descriptor 1:    3c 9b 00 a0 f0 40 38 60 30 20 35 00 70 6f 31 00 00 1a
descriptor 2:    00 00 00 ff 00 23 48 4c 41 59 4d 78 67 77 41 42 6e 49
descriptor 3:    00 00 00 fd 00 18 78 1e 8d 3c 01 0a 20 20 20 20 20 20
descriptor 4:    00 00 00 fc 00 44 65 6c 6c 20 41 57 33 38 32 31 44 57
extensions:      01
checksum:        1b

EDID version: 1.3
Manufacturer: DEL Model a17d Serial Number --
Made in week 2 of 2021
Digital display
Maximum image size: 88 cm x 37 cm
Gamma: 2.20
DPMS levels: Off
RGB color display
First detailed timing is preferred timing
Display x,y Chromaticity:
  Red:   0.6826, 0.3115
  Green: 0.2744, 0.6660
  Blue:  0.1494, 0.0566
  White: 0.3125, 0.3291
Established timings supported:
  640x480@60Hz 4:3 HorFreq: 31469 Hz Clock: 25.175 MHz
  800x600@60Hz 4:3 HorFreq: 37900 Hz Clock: 40.000 MHz
  1024x768@60Hz 4:3 HorFreq: 48400 Hz Clock: 65.000 MHz
Standard timings supported:
Detailed mode: Clock 397.400 MHz, 880 mm x 367 mm
               3840 3888 3920 4000 hborder 0
               1600 1603 1608 1656 vborder 0
               +hsync -vsync 
               VertFreq: 59 Hz, HorFreq: 99350 Hz
Serial number: --
Monitor ranges (bare limits): 24-120Hz V, 30-141kHz H, max dotclock 600MHz
Has 1 extension blocks
Checksum: 0x1b (valid)

CTA extension block
Extension version: 3
51 bytes of CTA data
  Video data block
    VIC  16 1920x1080@60Hz 16:9  HorFreq: 67500 Hz Clock: 148.500 MHz
    VIC  31 1920x1080@50Hz 16:9  HorFreq: 56250 Hz Clock: 148.500 MHz
    VIC   4 1280x720@60Hz 16:9  HorFreq: 45000 Hz Clock: 74.250 MHz
    VIC  19 1280x720@50Hz 16:9  HorFreq: 37500 Hz Clock: 74.250 MHz
    VIC   3 720x480@60Hz 16:9  HorFreq: 31469 Hz Clock: 27.000 MHz
    VIC  18 720x576@50Hz 16:9  HorFreq: 31250 Hz Clock: 27.000 MHz
    VIC   1 640x480@60Hz 4:3  HorFreq: 31469 Hz Clock: 25.175 MHz
    VIC  63 1920x1080@120Hz 16:9  HorFreq: 135000 Hz Clock: 297.000 MHz
  Audio data block
    Linear PCM, max channels 2
      Supported sample rates (kHz): 48 44.1 32
      Supported sample sizes (bits): 16
  Speaker allocation data block
    Speaker map:
      FL/FR - Front Left/Right
  Vendor-specific data block, OUI 000c03 (HDMI)
    Source physical address 2.0.0.0
    DC_36bit
    DC_30bit
    DC_Y444
    Maximum TMDS clock: 300MHz
  Vendor-specific data block, OUI c45dd8 (HDMI Forum)
    Version: 1
    Maximum TMDS Character Rate: 600MHz
    SCDC Present
  Extended tag: Colorimetry data block
    BT2020YCC
    BT2020RGB
  Extended tag: Video capability data block
    YCbCr quantization: No Data (0)
    RGB quantization: Selectable (via AVI Q) (1)
    PT scan behaviour: Always Underscanned (2)
    IT scan behaviour: Always Underscanned (2)
    CE scan behaviour: Always Underscanned (2)
  Extended tag: HDR static metadata data block
    Electro optical transfer functions:
      Traditional gamma - SDR luminance range
      SMPTE ST2084
    Supported static metadata descriptors:
      Static metadata type 1
    Desired content max luminance: 120 (672.717 cd/m^2)
    Desired content max frame-average luminance: 96 (400.000 cd/m^2)
    Desired content min luminance: 31 (0.099 cd/m^2)
Underscans PC formats by default
Basic audio support
Supports YCbCr 4:4:4
Supports YCbCr 4:2:2
1 native detailed modes
Detailed mode: Clock 566.250 MHz, 880 mm x 367 mm
               3840 3888 3920 4000 hborder 0
               1600 1603 1608 1666 vborder 0
               +hsync -vsync 
               VertFreq: 84 Hz, HorFreq: 141562 Hz
Detailed mode: Clock 196.650 MHz, 880 mm x 367 mm
               3840 3888 3920 4000 hborder 0
               1600 1603 1608 1639 vborder 0
               +hsync -vsync 
               VertFreq: 29 Hz, HorFreq: 49162 Hz
Detailed mode: Clock 243.250 MHz, 880 mm x 367 mm
               2560 2608 2640 2720 hborder 0
               1440 1443 1448 1491 vborder 0
               +hsync -vsync 
               VertFreq: 59 Hz, HorFreq: 89430 Hz
Checksum: 0x4d (valid)

EDID block does NOT conform to EDID 1.3!
	Name descriptor not terminated with a newline
EDID block does not conform at all!
	Both the serial number and the serial string are set
	Detailed blocks filled with garbage
	Range descriptor contains garbage
