
EDID (hex):
00ffffffffffff003e4e051200000000
00120103801009780a0dc9a057479827
12484c00000001010101010101010101
010101010101011d007251d01e206e28
5500a05a0000001e011d8018711c1620
582c2500a05a0000009e000000fc004f
52494f4e0a20202020202020000000fd
003b3d0f2e08000a202020202020010b
02031d71478405030201070623090701
8301000068030c001000800f008c0ad0
8a20e02d10103e9600a05a000000188c
0ad08a20e02d10103e9600281e000000
18000000000000000000000000000000
00000000000000000000000000000000
00000000000000000000000000000000
0000000000000000000000000000002a

Extracted contents:
header:          00 ff ff ff ff ff ff 00
serial number:   3e 4e 05 12 00 00 00 00 00 12
version:         01 03
basic params:    80 10 09 78 0a
chroma info:     0d c9 a0 57 47 98 27 12 48 4c
established:     00 00 00
standard:        01 01 01 01 01 01 01 01 01 01 01 01 01 01 01 01
descriptor 1:    01 1d 00 72 51 d0 1e 20 6e 28 55 00 a0 5a 00 00 00 1e
descriptor 2:    01 1d 80 18 71 1c 16 20 58 2c 25 00 a0 5a 00 00 00 9e
descriptor 3:    00 00 00 fc 00 4f 52 49 4f 4e 0a 20 20 20 20 20 20 20
descriptor 4:    00 00 00 fd 00 3b 3d 0f 2e 08 00 0a 20 20 20 20 20 20
extensions:      01
checksum:        0b

EDID version: 1.3
Manufacturer: ORN Model 1205 Serial Number --
Made in year 2008
Digital display
Maximum image size: 16 cm x 9 cm
Gamma: 2.20
RGB color display
First detailed timing is preferred timing
Display x,y Chromaticity:
  Red:   0.6250, 0.3398
  Green: 0.2802, 0.5947
  Blue:  0.1552, 0.0703
  White: 0.2832, 0.2978
Established timings supported:
Standard timings supported:
Detailed mode: Clock 74.250 MHz, 160 mm x 90 mm
               1280 1390 1430 1650 hborder 0
                720  725  730  750 vborder 0
               +hsync +vsync 
               VertFreq: 60 Hz, HorFreq: 45000 Hz
Detailed mode: Clock 74.250 MHz, 160 mm x 90 mm
               1920 2008 2052 2200 hborder 0
                540  542  547  562 vborder 0
               +hsync +vsync interlaced 
               VertFreq: 60 Hz, HorFreq: 33750 Hz
Monitor name: ORION
Monitor ranges (GTF): 59-61Hz V, 15-46kHz H, max dotclock 80MHz
Has 1 extension blocks
Checksum: 0xb (valid)

CTA extension block
Extension version: 3
25 bytes of CTA data
  Video data block
    VIC   4 1280x720@60Hz 16:9 (native) HorFreq: 45000 Hz Clock: 74.250 MHz
    VIC   5 1920x1080i@60Hz 16:9  HorFreq: 33750 Hz Clock: 74.250 MHz
    VIC   3 720x480@60Hz 16:9  HorFreq: 31469 Hz Clock: 27.000 MHz
    VIC   2 720x480@60Hz 4:3  HorFreq: 31469 Hz Clock: 27.000 MHz
    VIC   1 640x480@60Hz 4:3  HorFreq: 31469 Hz Clock: 25.175 MHz
    VIC   7 1440x480i@60Hz 16:9  HorFreq: 15734 Hz Clock: 27.000 MHz
    VIC   6 1440x480i@60Hz 4:3  HorFreq: 15734 Hz Clock: 27.000 MHz
  Audio data block
    Linear PCM, max channels 2
      Supported sample rates (kHz): 48 44.1 32
      Supported sample sizes (bits): 16
  Speaker allocation data block
    Speaker map:
      FL/FR - Front Left/Right
  Vendor-specific data block, OUI 000c03 (HDMI)
    Source physical address 1.0.0.0
    Supports_AI
    Maximum TMDS clock: 75MHz
Basic audio support
Supports YCbCr 4:4:4
Supports YCbCr 4:2:2
1 native detailed modes
Detailed mode: Clock 27.000 MHz, 160 mm x 90 mm
                720  736  798  858 hborder 0
                480  489  495  525 vborder 0
               -hsync -vsync 
               VertFreq: 59 Hz, HorFreq: 31468 Hz
Detailed mode: Clock 27.000 MHz, 40 mm x 30 mm
                720  736  798  858 hborder 0
                480  489  495  525 vborder 0
               -hsync -vsync 
               VertFreq: 59 Hz, HorFreq: 31468 Hz
Checksum: 0x2a (valid)
