
EDID (hex):
00ffffffffffff0030e45c0700000000
00200104b522167807b895a4544b9b26
0f505400000001010101010101010101
010101010101fdd700a0a0405e603020
360059d71000001a655600a0a0405e60
3020360059d71000001a000000fe0056
324d3532803136305751320a00000000
0003413d9e001100000b410a20200123
7020790200250109e16f08e16f083078
80810013721a0000030130780000534a
534a7800000000000000000000000000
00000000000000000000000000000000
00000000000000000000000000000000
00000000000000000000000000000000
00000000000000000000000000000000
0000000000000000000000000000e090

edid-decode (hex):

00 ff ff ff ff ff ff 00 30 e4 5c 07 00 00 00 00
00 20 01 04 b5 22 16 78 07 b8 95 a4 54 4b 9b 26
0f 50 54 00 00 00 01 01 01 01 01 01 01 01 01 01
01 01 01 01 01 01 fd d7 00 a0 a0 40 5e 60 30 20
36 00 59 d7 10 00 00 1a 65 56 00 a0 a0 40 5e 60
30 20 36 00 59 d7 10 00 00 1a 00 00 00 fe 00 56
32 4d 35 32 80 31 36 30 57 51 32 0a 00 00 00 00
00 03 41 3d 9e 00 11 00 00 0b 41 0a 20 20 01 23

70 20 79 02 00 25 01 09 e1 6f 08 e1 6f 08 30 78
80 81 00 13 72 1a 00 00 03 01 30 78 00 00 53 4a
53 4a 78 00 00 00 00 00 00 00 00 00 00 00 00 00
00 00 00 00 00 00 00 00 00 00 00 00 00 00 00 00
00 00 00 00 00 00 00 00 00 00 00 00 00 00 00 00
00 00 00 00 00 00 00 00 00 00 00 00 00 00 00 00
00 00 00 00 00 00 00 00 00 00 00 00 00 00 00 00
00 00 00 00 00 00 00 00 00 00 00 00 00 00 e0 90

----------------

Block 0, Base EDID:
  EDID Structure Version & Revision: 1.4
  Vendor & Product Identification:
    Manufacturer: LGD
    Model: 1884
    Made in: 2022
  Basic Display Parameters & Features:
    Digital display
    Bits per primary color channel: 10
    DisplayPort interface
    Maximum image size: 34 cm x 22 cm
    Gamma: 2.20
    Supported color formats: RGB 4:4:4
    Default (sRGB) color space is primary color space
    First detailed timing includes the native pixel format and preferred refresh rate
    Display is continuous frequency
  Color Characteristics:
    Red  : 0.6425, 0.3310
    Green: 0.2949, 0.6054
    Blue : 0.1503, 0.0595
    White: 0.3134, 0.3291
  Established Timings I & II: none
  Standard Timings: none
  Detailed Timing Descriptors:
    DTD 1:  2560x1600  120.001823 Hz  16:10   203.283 kHz    552.930000 MHz (345 mm x 215 mm)
                 Hfront   48 Hsync  32 Hback   80 Hpol P
                 Vfront    3 Vsync   6 Vback   85 Vpol N
    DTD 2:  2560x1600   48.000295 Hz  16:10    81.312 kHz    221.170000 MHz (345 mm x 215 mm)
                 Hfront   48 Hsync  32 Hback   80 Hpol P
                 Vfront    3 Vsync   6 Vback   85 Vpol N
    Alphanumeric Data String: 'V2M52'
    Manufacturer-Specified Display Descriptor (0x00): 00 00 00 03 41 3d 9e 00 11 00 00 0b 41 0a 20 20 '....A=......A.  '
  Extension blocks: 1
Checksum: 0x23

----------------

Block 1, DisplayID Extension Block:
  Version: 2.0
  Extension Count: 0
  Display Product Primary Use Case: None of the listed primary use cases; generic display
  Dynamic Video Timing Range Limits Data Block:
    Minimum Pixel Clock: 552930 kHz
    Maximum Pixel Clock: 552930 kHz
    Minimum Vertical Refresh Rate: 48 Hz
    Maximum Vertical Refresh Rate: 120 Hz
    Seamless Dynamic Video Timing Support: Yes
  CTA-861 DisplayID Data Block:
  Vendor-Specific Data Block (AMD), OUI 00-00-1A:
    Version: 3.1
    Minimum Refresh Rate: 48 Hz
    Maximum Refresh Rate: 120 Hz
    Flags 1.x: 0x00
    Flags 2.x: 0x00
    Maximum luminance: 83 (301.833 cd/m^2)
    Minimum luminance: 74 (0.254 cd/m^2)
    Unknown: 0x53 0x4a
  Checksum: 0xe0
Checksum: 0x90
