edid-decode (hex):

00 ff ff ff ff ff ff 00 4c 83 4f 82 00 00 00 00
00 19 01 04 95 22 13 78 0a 32 35 95 57 56 8e 29
1f 50 54 00 00 00 01 01 01 01 01 01 01 01 01 01
01 01 01 01 01 01 29 36 80 a0 70 38 1f 40 30 20
25 00 58 c2 10 00 00 1a 54 2b 80 a0 70 38 1f 40
30 20 25 00 58 c2 10 00 00 1a 00 00 00 fe 00 32
56 48 35 4e 80 31 35 36 48 4c 0a 20 00 00 00 00
00 00 41 21 96 01 10 00 00 0a 01 0a 20 20 00 a2

----------------

Block 0, Base EDID:
  EDID Structure Version & Revision: 1.4
  Vendor & Product Identification:
    Manufacturer: SDC
    Model: 33359
    Made in: 2015
  Basic Display Parameters & Features:
    Digital display
    Bits per primary color channel: 6
    DisplayPort interface
    Maximum image size: 34 cm x 19 cm
    Gamma: 2.20
    Supported color formats: RGB 4:4:4, YCrCb 4:4:4
    First detailed timing includes the native pixel format and preferred refresh rate
  Color Characteristics:
    Red  : 0.5820, 0.3427
    Green: 0.3359, 0.5566
    Blue : 0.1601, 0.1240
    White: 0.3134, 0.3291
  Established Timings I & II: none
  Standard Timings: none
  Detailed Timing Descriptors:
    DTD 1:  1920x1080   59.998788 Hz  16:9     66.659 kHz    138.650000 MHz (344 mm x 194 mm)
                 Hfront   48 Hsync  32 Hback   80 Hpol P
                 Vfront    2 Vsync   5 Vback   24 Vpol N
    DTD 2:  1920x1080   47.999031 Hz  16:9     53.327 kHz    110.920000 MHz (344 mm x 194 mm)
                 Hfront   48 Hsync  32 Hback   80 Hpol P
                 Vfront    2 Vsync   5 Vback   24 Vpol N
    Alphanumeric Data String: '2VH5N'
    Manufacturer-Specified Display Descriptor (0x00): 00 00 00 00 41 21 96 01 10 00 00 0a 01 0a 20 20 '....A!........  '
Checksum: 0xa2

----------------

Warnings:

Block 0, Base EDID:
  Missing Display Product Name.

Failures:

Block 0, Base EDID:
  Alphanumeric Data String: Non-printable character.

EDID conformity: FAIL
