edid-decode (hex):

00 ff ff ff ff ff ff 00 3a 93 08 00 01 00 00 00
0a 11 01 03 80 2b 1b 78 0a b5 34 a5 56 4a 9a 25
10 50 54 af cf 00 81 80 81 8f 95 00 95 0f 01 01
01 01 01 01 01 01 1c 39 90 30 62 1a 27 40 68 b0
36 00 b1 0f 11 00 00 18 00 00 00 fe 00 0a 20 20
20 20 20 20 20 20 20 20 20 20 00 00 00 fc 00 4d
41 57 2d 53 45 52 49 41 4c 0a 20 20 00 00 00 ff
00 0a 20 20 20 20 20 20 20 20 20 20 20 20 00 00

00 ff ff ff ff ff ff 00 3a 93 08 00 01 00 00 00
0a 11 01 03 80 2b 1b 78 0a b5 34 a5 56 4a 9a 25
10 50 54 af cf 00 81 80 81 8f 95 00 95 0f 01 01
01 01 01 01 01 01 1c 39 90 30 62 1a 27 40 68 b0
36 00 b1 0f 11 00 00 18 00 00 00 fe 00 0a 20 20
20 20 20 20 20 20 20 20 20 20 00 00 00 fc 00 4d
41 57 2d 53 45 52 49 41 4c 0a 20 20 00 00 00 ff
00 0a 20 20 20 20 20 20 20 20 20 20 20 20 00 00

----------------

Block 0, Base EDID:
  EDID Structure Version & Revision: 1.3
  Vendor & Product Identification:
    Manufacturer: NTS
    Model: 8
    Serial Number: ...
    Made in: week 10 of 2007
  Basic Display Parameters & Features:
    Digital display
    Maximum image size: 43 cm x 27 cm
    Gamma: 2.20
    RGB color display
    First detailed timing is the preferred timing
  Color Characteristics:
    Red  : 0.6464, 0.3388
    Green: 0.2900, 0.6025
    Blue : 0.1445, 0.0654
    White: 0.3134, 0.3281
  Established Timings I & II:
    IBM     :   720x400    70.081663 Hz   9:5     31.467 kHz     28.320000 MHz
    DMT 0x04:   640x480    59.940476 Hz   4:3     31.469 kHz     25.175000 MHz
    DMT 0x05:   640x480    72.808802 Hz   4:3     37.861 kHz     31.500000 MHz
    DMT 0x06:   640x480    75.000000 Hz   4:3     37.500 kHz     31.500000 MHz
    DMT 0x08:   800x600    56.250000 Hz   4:3     35.156 kHz     36.000000 MHz
    DMT 0x09:   800x600    60.316541 Hz   4:3     37.879 kHz     40.000000 MHz
    DMT 0x0a:   800x600    72.187572 Hz   4:3     48.077 kHz     50.000000 MHz
    DMT 0x0b:   800x600    75.000000 Hz   4:3     46.875 kHz     49.500000 MHz
    DMT 0x10:  1024x768    60.003840 Hz   4:3     48.363 kHz     65.000000 MHz
    DMT 0x11:  1024x768    70.069359 Hz   4:3     56.476 kHz     75.000000 MHz
    DMT 0x12:  1024x768    75.028582 Hz   4:3     60.023 kHz     78.750000 MHz
    DMT 0x24:  1280x1024   75.024675 Hz   5:4     79.976 kHz    135.000000 MHz
  Standard Timings:
    DMT 0x23:  1280x1024   60.019740 Hz   5:4     63.981 kHz    108.000000 MHz
    DMT 0x24:  1280x1024   75.024675 Hz   5:4     79.976 kHz    135.000000 MHz
    DMT 0x2f:  1440x900    59.887445 Hz  16:10    55.935 kHz    106.500000 MHz
    DMT 0x30:  1440x900    74.984427 Hz  16:10    70.635 kHz    136.750000 MHz
  Detailed Timing Descriptors:
    DTD 1:  1680x1050   59.933753 Hz  16:10    65.268 kHz    146.200000 MHz (433 mm x 271 mm)
                 Hfront  104 Hsync 176 Hback  280 Hpol N
                 Vfront    3 Vsync   6 Vback   30 Vpol N
    Alphanumeric Data String: ''
    Display Product Name: 'MAW-SERIAL'
    Display Product Serial Number: ...
Checksum: 0x00

----------------

Block 1, Unknown EDID Extension Block 0x00:
  00 ff ff ff ff ff ff 00 3a 93 08 00 01 00 00 00 '........:.......'
  0a 11 01 03 80 2b 1b 78 0a b5 34 a5 56 4a 9a 25 '.....+.x..4.VJ.%'
  10 50 54 af cf 00 81 80 81 8f 95 00 95 0f 01 01 '.PT.............'
  01 01 01 01 01 01 1c 39 90 30 62 1a 27 40 68 b0 '.......9.0b.'@h.'
  36 00 b1 0f 11 00 00 18 00 00 00 fe 00 0a 20 20 '6.............  '
  20 20 20 20 20 20 20 20 20 20 00 00 00 fc 00 4d '          .....M'
  41 57 2d 53 45 52 49 41 4c 0a 20 20 00 00 00 ff 'AW-SERIAL.  ....'
  00 0a 20 20 20 20 20 20 20 20 20 20 20 20 00 00 '..            ..'
Checksum: 0x00

----------------

Failures:

Block 0, Base EDID:
  Alphanumeric Data String: Empty string.
  Display Product Serial Number: ...
  Missing Display Range Limits Descriptor.
Block 1, Base EDID:
  Unknown Extension Block.
EDID:
  Base EDID: EDID specified 0 extension block(s), but found 1 extension block(s).

EDID conformity: FAIL
