
EDID (hex):
00ffffffffffff0030e4570200000000
00130104951e137802d7859359548c29
22505400000001010101010101010101
010101010101ca21a080508414303020
360030be1000001a7017a0c050841430
3020360030be1000001a000000fe0038
3735564b813134315750320a00000000
00004131210000000009010a20200098

Extracted contents:
header:          00 ff ff ff ff ff ff 00
serial number:   30 e4 57 02 00 00 00 00 00 13
version:         01 04
basic params:    95 1e 13 78 02
chroma info:     d7 85 93 59 54 8c 29 22 50 54
established:     00 00 00
standard:        01 01 01 01 01 01 01 01 01 01 01 01 01 01 01 01
descriptor 1:    ca 21 a0 80 50 84 14 30 30 20 36 00 30 be 10 00 00 1a
descriptor 2:    70 17 a0 c0 50 84 14 30 30 20 36 00 30 be 10 00 00 1a
descriptor 3:    00 00 00 fe 00 38 37 35 56 4b 81 31 34 31 57 50 32 0a
descriptor 4:    00 00 00 00 00 00 41 31 21 00 00 00 00 09 01 0a 20 20
extensions:      00
checksum:        98

EDID version: 1.4
Manufacturer: LGD Model 257 Serial Number --
Made in year 2009
Digital display
6 bits per primary color channel
DisplayPort interface
Maximum image size: 30 cm x 19 cm
Gamma: 2.20
Supported color formats: RGB 4:4:4
First detailed timing includes the native pixel format and preferred refresh rate
Display x,y Chromaticity:
  Red:   0.5771, 0.3486
  Green: 0.3291, 0.5498
  Blue:  0.1621, 0.1328
  White: 0.3134, 0.3291
Established timings supported:
Standard timings supported:
Detailed mode: Clock 86.500 MHz, 304 mm x 190 mm
               1440 1488 1520 1568 hborder 0
                900  903  909  920 vborder 0
               +hsync -vsync 
               VertFreq: 59 Hz, HorFreq: 55165 Hz
Detailed mode: Clock 60.000 MHz, 304 mm x 190 mm
               1440 1488 1520 1632 hborder 0
                900  903  909  920 vborder 0
               +hsync -vsync 
               VertFreq: 39 Hz, HorFreq: 36764 Hz
ASCII string: 875VK
Manufacturer-specified data, tag 0
Checksum: 0x98 (valid)
EDID block does NOT conform to EDID 1.4!
	Missing name descriptor
	Missing monitor ranges
	Detailed block string not properly terminated
