
EDID (hex):
00ffffffffffff0009e5b90700000000
341c0104951d107802a0f0965d59962a
20505400000001010101010101010101
010101010101023a801871382d403020
360025a51000001a682e801871382d40
3020360025a51000001a000000fe0039
30325658804e56313354303000000000
0000412196001000000a010a20200055

Extracted contents:
header:          00 ff ff ff ff ff ff 00
serial number:   09 e5 b9 07 00 00 00 00 34 1c
version:         01 04
basic params:    95 1d 10 78 02
chroma info:     a0 f0 96 5d 59 96 2a 20 50 54
established:     00 00 00
standard:        01 01 01 01 01 01 01 01 01 01 01 01 01 01 01 01
descriptor 1:    02 3a 80 18 71 38 2d 40 30 20 36 00 25 a5 10 00 00 1a
descriptor 2:    68 2e 80 18 71 38 2d 40 30 20 36 00 25 a5 10 00 00 1a
descriptor 3:    00 00 00 fe 00 39 30 32 56 58 80 4e 56 31 33 54 30 30
descriptor 4:    00 00 00 00 00 00 41 21 96 00 10 00 00 0a 01 0a 20 20
extensions:      00
checksum:        55

EDID version: 1.4
Manufacturer: BOE Model 7b9 Serial Number --
Made in week 52 of 2018
Digital display
6 bits per primary color channel
DisplayPort interface
Maximum image size: 29 cm x 16 cm
Gamma: 2.20
Supported color formats: RGB 4:4:4
First detailed timing includes the native pixel format and preferred refresh rate
Display x,y Chromaticity:
  Red:   0.5878, 0.3652
  Green: 0.3476, 0.5859
  Blue:  0.1669, 0.1279
  White: 0.3125, 0.3281
Established timings supported:
Standard timings supported:
Detailed mode: Clock 148.500 MHz, 293 mm x 165 mm
               1920 1968 2000 2200 hborder 0
               1080 1083 1089 1125 vborder 0
               +hsync -vsync 
               VertFreq: 60 Hz, HorFreq: 67500 Hz
Detailed mode: Clock 118.800 MHz, 293 mm x 165 mm
               1920 1968 2000 2200 hborder 0
               1080 1083 1089 1125 vborder 0
               +hsync -vsync 
               VertFreq: 48 Hz, HorFreq: 54000 Hz
ASCII string: 902VX
Manufacturer-specified data, tag 0
Checksum: 0x55 (valid)
EDID block does NOT conform to EDID 1.4!
	Missing name descriptor
	Missing monitor ranges
	Detailed block string not properly terminated
