
EDID (hex):
00ffffffffffff00061031ae249af88e
161d0104b53c2278200c51ae5241b326
0e505400000001010101010101010101
0101010101014dd000a0f0703e803020
350055502100001a565e00a0a0a02950
3020350055502100001a000000fc0069
4d61630a2020202020202020000000ff
003032303630344632343941333801c2
02031f8070fa100000127631fc78fbff
02108862d369fa1000faf8f8feffffcd
9180a0c0083470302035005550210000
1a000000000000000000000000000000
00000000000000000000000000000000
00000000000000000000000000000000
00000000000000000000000000000000
00000000000000000000000000000044

Extracted contents:
header:          00 ff ff ff ff ff ff 00
serial number:   06 10 31 ae 24 9a f8 8e 16 1d
version:         01 04
basic params:    b5 3c 22 78 20
chroma info:     0c 51 ae 52 41 b3 26 0e 50 54
established:     00 00 00
standard:        01 01 01 01 01 01 01 01 01 01 01 01 01 01 01 01
descriptor 1:    4d d0 00 a0 f0 70 3e 80 30 20 35 00 55 50 21 00 00 1a
descriptor 2:    56 5e 00 a0 a0 a0 29 50 30 20 35 00 55 50 21 00 00 1a
descriptor 3:    00 00 00 fc 00 69 4d 61 63 0a 20 20 20 20 20 20 20 20
descriptor 4:    00 00 00 ff 00 30 32 30 36 30 34 46 32 34 39 41 33 38
extensions:      01
checksum:        c2

EDID version: 1.4
Manufacturer: APP Model ae31 Serial Number --
Made in week 22 of 2019
Digital display
10 bits per primary color channel
DisplayPort interface
Maximum image size: 60 cm x 34 cm
Gamma: 2.20
DPMS levels: Off
Supported color formats: RGB 4:4:4
Display x,y Chromaticity:
  Red:   0.6796, 0.3203
  Green: 0.2568, 0.6992
  Blue:  0.1494, 0.0556
  White: 0.3125, 0.3291
Established timings supported:
Standard timings supported:
Detailed mode: Clock 533.250 MHz, 597 mm x 336 mm
               3840 3888 3920 4000 hborder 0
               2160 2163 2168 2222 vborder 0
               +hsync -vsync 
               VertFreq: 59 Hz, HorFreq: 133312 Hz
Detailed mode: Clock 241.500 MHz, 597 mm x 336 mm
               2560 2608 2640 2720 hborder 0
               1440 1443 1448 1481 vborder 0
               +hsync -vsync 
               VertFreq: 59 Hz, HorFreq: 88786 Hz
Monitor name: iMac
Serial number: --
Has 1 extension blocks
Checksum: 0xc2 (valid)

CTA extension block
Extension version: 3
27 bytes of CTA data
  Vendor-specific data block, OUI 0010fa
  Vendor-specific data block, OUI 0010fa
Underscans PC formats by default
0 native detailed modes
Detailed mode: Clock 373.250 MHz, 597 mm x 336 mm
               3200 3248 3280 3360 hborder 0
               1800 1803 1808 1852 vborder 0
               +hsync -vsync 
               VertFreq: 59 Hz, HorFreq: 111086 Hz
Checksum: 0x44 (valid)

EDID block does NOT conform to EDID 1.4!
	Required 640x480p60 timings are missing in the established timings
	and/or in the SVD list (VIC 1)
	Missing monitor ranges
EDID block does not conform at all!
	Both the serial number and the serial string are set
