
EDID (hex):
00ffffffffffff001c542a2701010101
16220104c53b2178fb7750ad4f46aa26
0c5054ffff80714f81c0810081408180
9500a9c0b3004dd000a0f0703e803020
350055502100001e000000fd0c30a05e
5e8c010a202020202020000000fc004d
323755410a20202020202020000000ff
003234323230423030313833300a029f
020333714d031304290f1f10403f6061
757623090707830100006d1a00000203
30a0000f694a694ae305c301e6060d01
69694a565e00a0a0a029503020350055
502100001e6fc200a0a0a05550302035
0055502100001e08b180f072386240a8
d0350055502100001e00000000000000
00000000000000000000000000000072
70127903000301502fe70004ff09b300
1b801f009f053b0008800700bae90104
ff0e4f0007801f006f083c0009800700
eb190204ff0e59002f801f006f081d00
02800400ceac0104ff0e9f002f801f00
6f087e00028004000000000000000000
00000000000000000000000000000000
00000000000000000000000000006890

edid-decode (hex):

00 ff ff ff ff ff ff 00 1c 54 2a 27 01 01 01 01
16 22 01 04 c5 3b 21 78 fb 77 50 ad 4f 46 aa 26
0c 50 54 ff ff 80 71 4f 81 c0 81 00 81 40 81 80
95 00 a9 c0 b3 00 4d d0 00 a0 f0 70 3e 80 30 20
35 00 55 50 21 00 00 1e 00 00 00 fd 0c 30 a0 5e
5e 8c 01 0a 20 20 20 20 20 20 00 00 00 fc 00 4d
32 37 55 41 0a 20 20 20 20 20 20 20 00 00 00 ff
00 32 34 32 32 30 42 30 30 31 38 33 30 0a 02 9f

02 03 33 71 4d 03 13 04 29 0f 1f 10 40 3f 60 61
75 76 23 09 07 07 83 01 00 00 6d 1a 00 00 02 03
30 a0 00 0f 69 4a 69 4a e3 05 c3 01 e6 06 0d 01
69 69 4a 56 5e 00 a0 a0 a0 29 50 30 20 35 00 55
50 21 00 00 1e 6f c2 00 a0 a0 a0 55 50 30 20 35
00 55 50 21 00 00 1e 08 b1 80 f0 72 38 62 40 a8
d0 35 00 55 50 21 00 00 1e 00 00 00 00 00 00 00
00 00 00 00 00 00 00 00 00 00 00 00 00 00 00 72

70 12 79 03 00 03 01 50 2f e7 00 04 ff 09 b3 00
1b 80 1f 00 9f 05 3b 00 08 80 07 00 ba e9 01 04
ff 0e 4f 00 07 80 1f 00 6f 08 3c 00 09 80 07 00
eb 19 02 04 ff 0e 59 00 2f 80 1f 00 6f 08 1d 00
02 80 04 00 ce ac 01 04 ff 0e 9f 00 2f 80 1f 00
6f 08 7e 00 02 80 04 00 00 00 00 00 00 00 00 00
00 00 00 00 00 00 00 00 00 00 00 00 00 00 00 00
00 00 00 00 00 00 00 00 00 00 00 00 00 00 68 90

----------------

Block 0, Base EDID:
  EDID Structure Version & Revision: 1.4
  Vendor & Product Identification:
    Manufacturer: GBT
    Model: 10026
    Serial Number: 16843009
    Made in: week 22 of 2024
  Basic Display Parameters & Features:
    Digital display
    Bits per primary color channel: 12
    DisplayPort interface
    Maximum image size: 59 cm x 33 cm
    Gamma: 2.20
    DPMS levels: Standby Suspend Off
    Supported color formats: RGB 4:4:4, YCrCb 4:4:4, YCrCb 4:2:2
    First detailed timing includes the native pixel format and preferred refresh rate
    Display is continuous frequency
  Color Characteristics:
    Red  : 0.6767, 0.3115
    Green: 0.2744, 0.6669
    Blue : 0.1494, 0.0478
    White: 0.3125, 0.3281
  Established Timings I & II:
    IBM     :   720x400    70.081663 Hz   9:5     31.467 kHz     28.320000 MHz
    IBM     :   720x400    87.849542 Hz   9:5     39.444 kHz     35.500000 MHz
    DMT 0x04:   640x480    59.940476 Hz   4:3     31.469 kHz     25.175000 MHz
    Apple   :   640x480    66.666667 Hz   4:3     35.000 kHz     30.240000 MHz
    DMT 0x05:   640x480    72.808802 Hz   4:3     37.861 kHz     31.500000 MHz
    DMT 0x06:   640x480    75.000000 Hz   4:3     37.500 kHz     31.500000 MHz
    DMT 0x08:   800x600    56.250000 Hz   4:3     35.156 kHz     36.000000 MHz
    DMT 0x09:   800x600    60.316541 Hz   4:3     37.879 kHz     40.000000 MHz
    DMT 0x0a:   800x600    72.187572 Hz   4:3     48.077 kHz     50.000000 MHz
    DMT 0x0b:   800x600    75.000000 Hz   4:3     46.875 kHz     49.500000 MHz
    Apple   :   832x624    74.551266 Hz   4:3     49.726 kHz     57.284000 MHz
    DMT 0x0f:  1024x768i   86.957532 Hz   4:3     35.522 kHz     44.900000 MHz
    DMT 0x10:  1024x768    60.003840 Hz   4:3     48.363 kHz     65.000000 MHz
    DMT 0x11:  1024x768    70.069359 Hz   4:3     56.476 kHz     75.000000 MHz
    DMT 0x12:  1024x768    75.028582 Hz   4:3     60.023 kHz     78.750000 MHz
    DMT 0x24:  1280x1024   75.024675 Hz   5:4     79.976 kHz    135.000000 MHz
    Apple   :  1152x870    75.061550 Hz 192:145   68.681 kHz    100.000000 MHz
  Standard Timings:
    DMT 0x15:  1152x864    75.000000 Hz   4:3     67.500 kHz    108.000000 MHz
    DMT 0x55:  1280x720    60.000000 Hz  16:9     45.000 kHz     74.250000 MHz
    DMT 0x1c:  1280x800    59.810326 Hz  16:10    49.702 kHz     83.500000 MHz
    DMT 0x20:  1280x960    60.000000 Hz   4:3     60.000 kHz    108.000000 MHz
    DMT 0x23:  1280x1024   60.019740 Hz   5:4     63.981 kHz    108.000000 MHz
    DMT 0x2f:  1440x900    59.887445 Hz  16:10    55.935 kHz    106.500000 MHz
    DMT 0x53:  1600x900    60.000000 Hz  16:9     60.000 kHz    108.000000 MHz (RB)
    DMT 0x3a:  1680x1050   59.954250 Hz  16:10    65.290 kHz    146.250000 MHz
  Detailed Timing Descriptors:
    DTD 1:  3840x2160   59.996625 Hz  16:9    133.312 kHz    533.250000 MHz (597 mm x 336 mm)
                 Hfront   48 Hsync  32 Hback   80 Hpol P
                 Vfront    3 Vsync   5 Vback   54 Vpol P
    Display Range Limits:
      Monitor ranges (Bare Limits): 48-160 Hz V, 349-349 kHz H, max dotclock 1400 MHz
    Display Product Name: 'M27UA'
    Display Product Serial Number: '24220B001830'
  Extension blocks: 2
Checksum: 0x9f

----------------

Block 1, CTA-861 Extension Block:
  Revision: 3
  Basic audio support
  Supports YCbCr 4:4:4
  Supports YCbCr 4:2:2
  Native detailed modes: 1
  Video Data Block:
    VIC   3:   720x480    59.940060 Hz  16:9     31.469 kHz     27.000000 MHz
    VIC  19:  1280x720    50.000000 Hz  16:9     37.500 kHz     74.250000 MHz
    VIC   4:  1280x720    60.000000 Hz  16:9     45.000 kHz     74.250000 MHz
    VIC  41:  1280x720   100.000000 Hz  16:9     75.000 kHz    148.500000 MHz
    VIC  15:  1440x480    59.940060 Hz  16:9     31.469 kHz     54.000000 MHz
    VIC  31:  1920x1080   50.000000 Hz  16:9     56.250 kHz    148.500000 MHz
    VIC  16:  1920x1080   60.000000 Hz  16:9     67.500 kHz    148.500000 MHz
    VIC  64:  1920x1080  100.000000 Hz  16:9    112.500 kHz    297.000000 MHz
    VIC  63:  1920x1080  120.000000 Hz  16:9    135.000 kHz    297.000000 MHz
    VIC  96:  3840x2160   50.000000 Hz  16:9    112.500 kHz    594.000000 MHz
    VIC  97:  3840x2160   60.000000 Hz  16:9    135.000 kHz    594.000000 MHz
    VIC 117:  3840x2160  100.000000 Hz  16:9    225.000 kHz   1188.000000 MHz
    VIC 118:  3840x2160  120.000000 Hz  16:9    270.000 kHz   1188.000000 MHz
  Audio Data Block:
    Linear PCM:
      Max channels: 2
      Supported sample rates (kHz): 48 44.1 32
      Supported sample sizes (bits): 24 20 16
  Speaker Allocation Data Block:
    FL/FR - Front Left/Right
  Vendor-Specific Data Block (AMD), OUI 00-00-1A:
    Version: 2.3
    Minimum Refresh Rate: 48 Hz
    Maximum Refresh Rate: 160 Hz
    Flags 1.x: 0x00
    Flags 2.x: 0x0f
    Maximum luminance: 105 (486.099 cd/m^2)
    Minimum luminance: 74 (0.409 cd/m^2)
    Maximum luminance (without local dimming): 105 (486.099 cd/m^2)
    Minimum luminance (without local dimming): 74 (0.409 cd/m^2)
  Colorimetry Data Block:
    xvYCC601
    xvYCC709
    BT2020YCC
    BT2020RGB
    Gamut Boundary Description Metadata Profile P0
  HDR Static Metadata Data Block:
    Electro optical transfer functions:
      Traditional gamma - SDR luminance range
      SMPTE ST2084
      Hybrid Log-Gamma
    Supported static metadata descriptors:
      Static metadata type 1
    Desired content max luminance: 105 (486.099 cd/m^2)
    Desired content max frame-average luminance: 105 (486.099 cd/m^2)
    Desired content min luminance: 74 (0.409 cd/m^2)
  Detailed Timing Descriptors:
    DTD 2:  2560x1440   59.950550 Hz  16:9     88.787 kHz    241.500000 MHz (597 mm x 336 mm)
                 Hfront   48 Hsync  32 Hback   80 Hpol P
                 Vfront    3 Vsync   5 Vback   33 Vpol P
    DTD 3:  2560x1440  119.997589 Hz  16:9    182.996 kHz    497.750000 MHz (597 mm x 336 mm)
                 Hfront   48 Hsync  32 Hback   80 Hpol P
                 Vfront    3 Vsync   5 Vback   77 Vpol P
    DTD 4:  1920x1080  143.981985 Hz  16:9    169.611 kHz    453.200000 MHz (597 mm x 336 mm)
                 Hfront  168 Hsync 208 Hback  376 Hpol P
                 Vfront    3 Vsync   5 Vback   90 Vpol P
Checksum: 0x72  Unused space in Extension Block: 22 bytes

----------------

Block 2, DisplayID Extension Block:
  Version: 1.2
  Extension Count: 0
  Display Product Type: Standalone display device
  Video Timing Modes Type 1 - Detailed Timings Data Block:
    DTD:  2560x1440  144.000000 Hz  16:9    216.000 kHz    591.840000 MHz (aspect 16:9, no 3D stereo)
               Hfront   28 Hsync  32 Hback  120 Hpol P
               Vfront    9 Vsync   8 Vback   43 Vpol P
    DTD:  3840x2160  143.999991 Hz  16:9    319.824 kHz   1253.710000 MHz (aspect 16:9, no 3D stereo)
               Hfront    8 Hsync  32 Hback   40 Hpol P
               Vfront   10 Vsync   8 Vback   43 Vpol P
    DTD:  3840x2160  160.000930 Hz  16:9    350.402 kHz   1377.080000 MHz (aspect 16:9, no 3D stereo)
               Hfront   48 Hsync  32 Hback   10 Hpol P
               Vfront    3 Vsync   5 Vback   22 Vpol P
    DTD:  3840x2160  119.998907 Hz  16:9    274.438 kHz   1097.750000 MHz (aspect 16:9, no 3D stereo)
               Hfront   48 Hsync  32 Hback   80 Hpol P
               Vfront    3 Vsync   5 Vback  119 Vpol P
  Checksum: 0x68
Checksum: 0x90


