
EDID (hex):
00ffffffffffff0009d1759201010101
0014010380301e782a78f5a655489b26
125054bfef80b300950081808140714f
01010101010121399030621a274068b0
3600da281100001c662150b051001b30
40703600da281100001e000000fd0037
4c1e520f000a202020202020000000fc
005650323231320a20202020202001c3

Extracted contents:
header:          00 ff ff ff ff ff ff 00
serial number:   09 d1 75 92 01 01 01 01 00 14
version:         01 03
basic params:    80 30 1e 78 2a
chroma info:     78 f5 a6 55 48 9b 26 12 50 54
established:     bf ef 80
standard:        b3 00 95 00 81 80 81 40 71 4f 01 01 01 01 01 01
descriptor 1:    21 39 90 30 62 1a 27 40 68 b0 36 00 da 28 11 00 00 1c
descriptor 2:    66 21 50 b0 51 00 1b 30 40 70 36 00 da 28 11 00 00 1e
descriptor 3:    00 00 00 fd 00 37 4c 1e 52 0f 00 0a 20 20 20 20 20 20
descriptor 4:    00 00 00 fc 00 56 50 32 32 31 32 0a 20 20 20 20 20 20
extensions:      01
checksum:        c3

EDID version: 1.3
Manufacturer: BNQ Model 9275 Serial Number --
Made in year 2010
Digital display
Maximum image size: 48 cm x 30 cm
Gamma: 2.20
DPMS levels: Off
RGB color display
First detailed timing is preferred timing
Display x,y Chromaticity:
  Red:   0.6494, 0.3349
  Green: 0.2832, 0.6054
  Blue:  0.1513, 0.0732
  White: 0.3134, 0.3291
Established timings supported:
  720x400@70Hz 9:5 HorFreq: 31469 Hz Clock: 28.320 MHz
  640x480@60Hz 4:3 HorFreq: 31469 Hz Clock: 25.175 MHz
  640x480@67Hz 4:3 HorFreq: 35000 Hz Clock: 30.240 MHz
  640x480@72Hz 4:3 HorFreq: 37900 Hz Clock: 31.500 MHz
  640x480@75Hz 4:3 HorFreq: 37500 Hz Clock: 31.500 MHz
  800x600@56Hz 4:3 HorFreq: 35200 Hz Clock: 36.000 MHz
  800x600@60Hz 4:3 HorFreq: 37900 Hz Clock: 40.000 MHz
  800x600@72Hz 4:3 HorFreq: 48100 Hz Clock: 50.000 MHz
  800x600@75Hz 4:3 HorFreq: 46900 Hz Clock: 49.500 MHz
  832x624@75Hz 4:3 HorFreq: 49726 Hz Clock: 57.284 MHz
  1024x768@60Hz 4:3 HorFreq: 48400 Hz Clock: 65.000 MHz
  1024x768@70Hz 4:3 HorFreq: 56500 Hz Clock: 75.000 MHz
  1024x768@75Hz 4:3 HorFreq: 60000 Hz Clock: 78.750 MHz
  1280x1024@75Hz 5:4 HorFreq: 80000 Hz Clock: 135.000 MHz
  1152x870@75Hz 192:145 HorFreq: 67500 Hz Clock: 108.000 MHz
Standard timings supported:
  1680x1050@60Hz 16:10 HorFreq: 64700 Hz Clock: 119.000 MHz
  1440x900@60Hz 16:10 HorFreq: 55500 Hz Clock: 88.750 MHz
  1280x1024@60Hz 5:4 HorFreq: 64000 Hz Clock: 108.000 MHz
  1280x960@60Hz 4:3 HorFreq: 60000 Hz Clock: 108.000 MHz
  1152x864@75Hz 4:3 HorFreq: 67500 Hz Clock: 108.000 MHz
Detailed mode: Clock 146.250 MHz, 474 mm x 296 mm
               1680 1784 1960 2240 hborder 0
               1050 1053 1059 1089 vborder 0
               -hsync +vsync 
               VertFreq: 59 Hz, HorFreq: 65290 Hz
Detailed mode: Clock 85.500 MHz, 474 mm x 296 mm
               1360 1424 1536 1792 hborder 0
                768  771  777  795 vborder 0
               +hsync +vsync 
               VertFreq: 60 Hz, HorFreq: 47712 Hz
Monitor ranges (GTF): 55-76Hz V, 30-82kHz H, max dotclock 150MHz
Monitor name: VP2212
Has 1 extension blocks
Checksum: 0xc3 (valid)
