edid-decode (hex):

00 ff ff ff ff ff ff 00 4e 81 50 04 00 00 00 00
1e 19 01 01 80 1f 11 78 0a c4 d1 92 58 50 96 26
1c 4b 4e 00 00 00 01 01 01 01 01 01 01 01 01 01
01 01 01 01 01 01 12 1b 56 5a 50 00 19 30 1e 0e
66 00 36 ae 10 00 00 19 00 00 00 fe 00 00 20 20
20 20 20 20 20 20 20 20 20 20 00 00 00 fc 00 58
52 31 34 30 45 41 31 54 00 00 0a 20 00 00 00 fe
00 00 00 00 00 00 00 00 00 00 00 00 00 00 00 27

----------------

Block 0, Base EDID:
  EDID Structure Version & Revision: 1.1
  Vendor & Product Identification:
    Manufacturer: STA
    Model: 1104
    Made in: week 30 of 2015
  Basic Display Parameters & Features:
    Digital display
    Maximum image size: 31 cm x 17 cm
    Gamma: 2.20
    RGB color display
    First detailed timing is the preferred timing
  Color Characteristics:
    Red  : 0.5732, 0.3437
    Green: 0.3134, 0.5859
    Blue : 0.1513, 0.1103
    White: 0.2929, 0.3056
  Established Timings I & II: none
  Standard Timings: none
  Detailed Timing Descriptors:
    DTD 1:  1366x768    60.020371 Hz 683:384   47.596 kHz     69.300000 MHz (310 mm x 174 mm)
                 Hfront   30 Hsync  14 Hback   46 Hpol N
                 Vfront    6 Vsync   6 Vback   13 Vpol N
    Alphanumeric Data String: ''
    Display Product Name: 'XR140EA1T'
    Alphanumeric Data String: ''
Checksum: 0x27

----------------

Warnings:

Block 0, Base EDID:
  EDID Structure Version & Revision: EDID 1.1 is deprecated, do not use.

Failures:

Block 0, Base EDID:
  Alphanumeric Data String: Non-printable character.
  Display Product Name: Non-printable character.
  Alphanumeric Data String: Non-printable character.

EDID conformity: FAIL
