
EDID (hex):
00ffffffffffff0024a9442001000000
20100101081e17fffa9ecd91544c9923
174d50bfee80314a454a614a01010101
01010101010164190040410026301888
360030e410000018000000fc00313530
0a202020202020202020000000fe0031
35300a202020202020202020000000fe
000a202020202020202020202020000c

Extracted contents:
header:          00 ff ff ff ff ff ff 00
serial number:   24 a9 44 20 01 00 00 00 20 10
version:         01 01
basic params:    08 1e 17 ff fa
chroma info:     9e cd 91 54 4c 99 23 17 4d 50
established:     bf ee 80
standard:        31 4a 45 4a 61 4a 01 01 01 01 01 01 01 01 01 01
descriptor 1:    64 19 00 40 41 00 26 30 18 88 36 00 30 e4 10 00 00 18
descriptor 2:    00 00 00 fc 00 31 35 30 0a 20 20 20 20 20 20 20 20 20
descriptor 3:    00 00 00 fe 00 31 35 30 0a 20 20 20 20 20 20 20 20 20
descriptor 4:    00 00 00 fe 00 0a 20 20 20 20 20 20 20 20 20 20 20 20
extensions:      00
checksum:        0c

EDID version: 1.1
Manufacturer: IEI Model 2044 Serial Number --
Made in week 32 of 2006
Analog display, Input voltage level: 0.7/0.3 V
Sync: Separate 
Maximum image size: 30 cm x 23 cm
Gamma: 1.0
DPMS levels: Standby Suspend Off
Undefined display color type
First detailed timing is preferred timing
Display x,y Chromaticity:
  Red:   0.5683, 0.3291
  Green: 0.2998, 0.5996
  Blue:  0.1396, 0.0898
  White: 0.3037, 0.3134
Established timings supported:
  720x400@70Hz 9:5 HorFreq: 31469 Hz Clock: 28.320 MHz
  640x480@60Hz 4:3 HorFreq: 31469 Hz Clock: 25.175 MHz
  640x480@67Hz 4:3 HorFreq: 35000 Hz Clock: 30.240 MHz
  640x480@72Hz 4:3 HorFreq: 37900 Hz Clock: 31.500 MHz
  640x480@75Hz 4:3 HorFreq: 37500 Hz Clock: 31.500 MHz
  800x600@56Hz 4:3 HorFreq: 35200 Hz Clock: 36.000 MHz
  800x600@60Hz 4:3 HorFreq: 37900 Hz Clock: 40.000 MHz
  800x600@72Hz 4:3 HorFreq: 48100 Hz Clock: 50.000 MHz
  800x600@75Hz 4:3 HorFreq: 46900 Hz Clock: 49.500 MHz
  832x624@75Hz 4:3 HorFreq: 49726 Hz Clock: 57.284 MHz
  1024x768@60Hz 4:3 HorFreq: 48400 Hz Clock: 65.000 MHz
  1024x768@70Hz 4:3 HorFreq: 56500 Hz Clock: 75.000 MHz
  1024x768@75Hz 4:3 HorFreq: 60000 Hz Clock: 78.750 MHz
  1152x870@75Hz 192:145 HorFreq: 67500 Hz Clock: 108.000 MHz
Standard timings supported:
  640x480@70Hz 4:3
  800x600@70Hz 4:3
  1024x768@70Hz 4:3 HorFreq: 56500 Hz Clock: 75.000 MHz
Detailed mode: Clock 65.000 MHz, 304 mm x 228 mm
               1024 1048 1184 1344 hborder 0
                768  771  777  806 vborder 0
               -hsync -vsync 
               VertFreq: 60 Hz, HorFreq: 48363 Hz
Monitor name: 150
ASCII string: 150
ASCII string: 
Checksum: 0xc (valid)
EDID block does NOT conform to EDID 1.0!
	Has descriptor blocks other than detailed timings
