
EDID (hex):
00ffffffffffff0006af9f2c00000000
1e1f0104a51d1278037ab5a7534aa126
0d505400000001010101010101010101
010101010101fa3c80b870b024401010
3e001eb210000018a72880b870b02440
10103e001eb210000018000000000000
00000000000000000000000000000002
000c2dff103cc80c1820c82020200116
7020790200220014c36102847f07b700
0f800f00af04230002000d00250009c3
6102c36102283c80810010721a000003
01283c0000605a605a3c000000000000
00000000000000000000000000000000
00000000000000000000000000000000
00000000000000000000000000000000
00000000000000000000000000003290

Extracted contents:
header:          00 ff ff ff ff ff ff 00
serial number:   06 af 9f 2c 00 00 00 00 1e 1f
version:         01 04
basic params:    a5 1d 12 78 03
chroma info:     7a b5 a7 53 4a a1 26 0d 50 54
established:     00 00 00
standard:        01 01 01 01 01 01 01 01 01 01 01 01 01 01 01 01
descriptor 1:    fa 3c 80 b8 70 b0 24 40 10 10 3e 00 1e b2 10 00 00 18
descriptor 2:    a7 28 80 b8 70 b0 24 40 10 10 3e 00 1e b2 10 00 00 18
descriptor 3:    00 00 00 00 00 00 00 00 00 00 00 00 00 00 00 00 00 00
descriptor 4:    00 00 00 02 00 0c 2d ff 10 3c c8 0c 18 20 c8 20 20 20
extensions:      01
checksum:        16

EDID version: 1.4
Manufacturer: AUO Model 2c9f Serial Number --
Made in week 30 of 2021
Digital display
8 bits per primary color channel
DisplayPort interface
Maximum image size: 29 cm x 18 cm
Gamma: 2.20
Supported color formats: RGB 4:4:4
First detailed timing includes the native pixel format and preferred refresh rate
Display is continuous frequency
Display x,y Chromaticity:
  Red:   0.6533, 0.3271
  Green: 0.2910, 0.6308
  Blue:  0.1503, 0.0537
  White: 0.3134, 0.3291
Established timings supported:
Standard timings supported:
Detailed mode: Clock 156.100 MHz, 286 mm x 178 mm
               1920 1936 1952 2104 hborder 0
               1200 1203 1217 1236 vborder 0
               -hsync -vsync 
               VertFreq: 60 Hz, HorFreq: 74192 Hz
Detailed mode: Clock 104.070 MHz, 286 mm x 178 mm
               1920 1936 1952 2104 hborder 0
               1200 1203 1217 1236 vborder 0
               -hsync -vsync 
               VertFreq: 40 Hz, HorFreq: 49462 Hz
Manufacturer-specified data, tag 0
Manufacturer-specified data, tag 2
Has 1 extension blocks
Checksum: 0x16 (valid)

DisplayID extension block
Extension version: 32
Length 121, version 32, extension count 0
Checksum: 0x32 (valid)
Unknown displayid data block 0x22
Unknown displayid data block 0x25
Unknown displayid data block 0x81

EDID block does NOT conform to EDID 1.4!
	Missing name descriptor
	Missing monitor ranges
EDID block does not conform at all!
	Has -369098752 nonconformant extension block(s)
