
EDID (hex):
00ffffffffffff0030ae304101000000
01190104a5301b781b2565a3544fa027
ab505400000001010101010101010101
01010101010119388000713814406040
8400dc0c1100001e000000fc004c454e
2d43343133302d430a20000000fd0039
3e1e5a14010a202020202020000000ff
004c4d3231355746332d534c4e34004f

Extracted contents:
header:          00 ff ff ff ff ff ff 00
serial number:   30 ae 30 41 01 00 00 00 01 19
version:         01 04
basic params:    a5 30 1b 78 1b
chroma info:     25 65 a3 54 4f a0 27 ab 50 54
established:     00 00 00
standard:        01 01 01 01 01 01 01 01 01 01 01 01 01 01 01 01
descriptor 1:    19 38 80 00 71 38 14 40 60 40 84 00 dc 0c 11 00 00 1e
descriptor 2:    00 00 00 fc 00 4c 45 4e 2d 43 34 31 33 30 2d 43 0a 20
descriptor 3:    00 00 00 fd 00 39 3e 1e 5a 14 01 0a 20 20 20 20 20 20
descriptor 4:    00 00 00 ff 00 4c 4d 32 31 35 57 46 33 2d 53 4c 4e 34
extensions:      00
checksum:        4f

EDID version: 1.4
Manufacturer: LEN Model 4130 Serial Number --
Made in week 1 of 2015
Digital display
8 bits per primary color channel
DisplayPort interface
Maximum image size: 48 cm x 27 cm
Gamma: 2.20
Supported color formats: RGB 4:4:4, YCrCb 4:4:4, YCrCb 4:2:2
First detailed timing includes the native pixel format and preferred refresh rate
Display is continuous frequency
Display x,y Chromaticity:
  Red:   0.6367, 0.3300
  Green: 0.3095, 0.6259
  Blue:  0.1533, 0.6699
  White: 0.3134, 0.3291
Established timings supported:
Standard timings supported:
Detailed mode: Clock 143.610 MHz, 476 mm x 268 mm
               1920 2016 2080 2176 hborder 0
               1080 1088 1092 1100 vborder 0
               +hsync +vsync 
               VertFreq: 59 Hz, HorFreq: 65997 Hz
Monitor name: LEN-C4130-C
Monitor ranges (bare limits): 57-62Hz V, 30-90kHz H, max dotclock 200MHz
Serial number: --
Checksum: 0x4f (valid)
