
EDID (hex):
00ffffffffffff000469ab2401010101
271b010380342078ea0d45a556539d25
0e5054230800818081409500a940b300
d1c001010101283c80a070b023403020
360006442100001a000000fd00323d1e
5311000a202020202020000000fc0042
453234410a20202020202020000000ff
0048394c4d51533133343730310a00ae

Extracted contents:
header:          00 ff ff ff ff ff ff 00
serial number:   04 69 ab 24 01 01 01 01 27 1b
version:         01 03
basic params:    80 34 20 78 ea
chroma info:     0d 45 a5 56 53 9d 25 0e 50 54
established:     23 08 00
standard:        81 80 81 40 95 00 a9 40 b3 00 d1 c0 01 01 01 01
descriptor 1:    28 3c 80 a0 70 b0 23 40 30 20 36 00 06 44 21 00 00 1a
descriptor 2:    00 00 00 fd 00 32 3d 1e 53 11 00 0a 20 20 20 20 20 20
descriptor 3:    00 00 00 fc 00 42 45 32 34 41 0a 20 20 20 20 20 20 20
descriptor 4:    00 00 00 ff 00 48 39 4c 4d 51 53 31 33 34 37 30 31 0a
extensions:      00
checksum:        ae

EDID version: 1.3
Manufacturer: ACI Model 24ab Serial Number --
Made in week 39 of 2017
Digital display
Maximum image size: 52 cm x 32 cm
Gamma: 2.20
DPMS levels: Standby Suspend Off
RGB color display
First detailed timing is preferred timing
Display x,y Chromaticity:
  Red:   0.6445, 0.3359
  Green: 0.3271, 0.6142
  Blue:  0.1455, 0.0546
  White: 0.3134, 0.3291
Established timings supported:
  640x480@60Hz 4:3 HorFreq: 31469 Hz Clock: 25.175 MHz
  800x600@56Hz 4:3 HorFreq: 35200 Hz Clock: 36.000 MHz
  800x600@60Hz 4:3 HorFreq: 37900 Hz Clock: 40.000 MHz
  1024x768@60Hz 4:3 HorFreq: 48400 Hz Clock: 65.000 MHz
Standard timings supported:
  1280x1024@60Hz 5:4 HorFreq: 64000 Hz Clock: 108.000 MHz
  1280x960@60Hz 4:3 HorFreq: 60000 Hz Clock: 108.000 MHz
  1440x900@60Hz 16:10 HorFreq: 55500 Hz Clock: 88.750 MHz
  1600x1200@60Hz 4:3 HorFreq: 75000 Hz Clock: 162.000 MHz
  1680x1050@60Hz 16:10 HorFreq: 64700 Hz Clock: 119.000 MHz
  1920x1080@60Hz 16:9
Detailed mode: Clock 154.000 MHz, 518 mm x 324 mm
               1920 1968 2000 2080 hborder 0
               1200 1203 1209 1235 vborder 0
               +hsync -vsync 
               VertFreq: 59 Hz, HorFreq: 74038 Hz
Monitor ranges (GTF): 50-61Hz V, 30-83kHz H, max dotclock 170MHz
Monitor name: BE24A
Serial number: --
Checksum: 0xae (valid)
