edid-decode (hex):

00 ff ff ff ff ff ff 00 0d af 20 17 00 00 00 00
02 15 01 03 80 26 15 78 0a d8 95 a3 55 4d 9d 27
0f 50 54 00 00 00 01 01 01 01 01 01 01 01 01 01
01 01 01 01 01 01 88 3b 80 36 71 38 3b 40 5d 3e
6a 00 7e d7 10 00 00 18 00 00 00 fe 00 4e 31 37
33 48 47 45 2d 4c 31 31 0a 20 00 00 00 fe 00 43
4d 4f 0a 20 20 20 20 20 20 20 20 20 00 00 00 fe
00 4e 31 37 33 48 47 45 2d 4c 31 31 0a 20 00 dc

----------------

Block 0, Base EDID:
  EDID Structure Version & Revision: 1.3
  Vendor & Product Identification:
    Manufacturer: CMO
    Model: 5920
    Made in: week 2 of 2011
  Basic Display Parameters & Features:
    Digital display
    Maximum image size: 38 cm x 21 cm
    Gamma: 2.20
    RGB color display
    First detailed timing is the preferred timing
  Color Characteristics:
    Red  : 0.6396, 0.3330
    Green: 0.3027, 0.6132
    Blue : 0.1542, 0.0595
    White: 0.3134, 0.3291
  Established Timings I & II: none
  Standard Timings: none
  Detailed Timing Descriptors:
    DTD 1:  1920x1080   60.000709 Hz  16:9     68.341 kHz    152.400000 MHz (382 mm x 215 mm)
                 Hfront   93 Hsync  62 Hback  155 Hpol N
                 Vfront    6 Vsync  10 Vback   43 Vpol N
    Alphanumeric Data String: 'N173HGE-L11'
    Alphanumeric Data String: 'CMO'
    Alphanumeric Data String: 'N173HGE-L11'
Checksum: 0xdc

----------------

Failures:

Block 0, Base EDID:
  Missing Display Product Name.
  Missing Display Range Limits Descriptor.

EDID conformity: FAIL
