
EDID (hex):
00ffffffffffff000daf201700000000
021501049026157802ed95a3544c9c26
0f505400000001010101010101010101
010101010101e13680ae703826403423
36007ed71000001a1d2480a070381f40
302035007ed71000001a000000fe0039
33463736803137334847450a00000000
000041319e0000000002010a2020002a

Extracted contents:
header:          00 ff ff ff ff ff ff 00
serial number:   0d af 20 17 00 00 00 00 02 15
version:         01 04
basic params:    90 26 15 78 02
chroma info:     ed 95 a3 54 4c 9c 26 0f 50 54
established:     00 00 00
standard:        01 01 01 01 01 01 01 01 01 01 01 01 01 01 01 01
descriptor 1:    e1 36 80 ae 70 38 26 40 34 23 36 00 7e d7 10 00 00 1a
descriptor 2:    1d 24 80 a0 70 38 1f 40 30 20 35 00 7e d7 10 00 00 1a
descriptor 3:    00 00 00 fe 00 39 33 46 37 36 80 31 37 33 48 47 45 0a
descriptor 4:    00 00 00 00 00 00 41 31 9e 00 00 00 00 02 01 0a 20 20
extensions:      00
checksum:        2a

EDID version: 1.4
Manufacturer: CMO Model 1720 Serial Number --
Made in week 2 of 2011
Digital display
6 bits per primary color channel
Digital interface is not defined
Maximum image size: 38 cm x 21 cm
Gamma: 2.20
Supported color formats: RGB 4:4:4
First detailed timing includes the native pixel format and preferred refresh rate
Display x,y Chromaticity:
  Red:   0.6396, 0.3300
  Green: 0.2998, 0.6103
  Blue:  0.1503, 0.0595
  White: 0.3134, 0.3291
Established timings supported:
Standard timings supported:
Detailed mode: Clock 140.490 MHz, 382 mm x 215 mm
               1920 1972 2007 2094 hborder 0
               1080 1083 1089 1118 vborder 0
               +hsync -vsync 
               VertFreq: 60 Hz, HorFreq: 67091 Hz
Detailed mode: Clock 92.450 MHz, 382 mm x 215 mm
               1920 1968 2000 2080 hborder 0
               1080 1083 1088 1111 vborder 0
               +hsync -vsync 
               VertFreq: 40 Hz, HorFreq: 44447 Hz
ASCII string: 93F76
Manufacturer-specified data, tag 0
Checksum: 0x2a (valid)
EDID block does NOT conform to EDID 1.4!
	Missing name descriptor
	Missing monitor ranges
	Detailed block string not properly terminated
