
EDID (hex):
00ffffffffffff005a63205301010101
06120103802f1d782efe25a95432b425
105054bfef80b300a940904081808140
714fd1c0310a7c2e90a0601a1e403020
3600d1231100001c000000ff0051514d
3038303630303533380a000000fd0032
4b1e5211000a202020202020000000fc
0056503232353077620a2020202000cb

Extracted contents:
header:          00 ff ff ff ff ff ff 00
serial number:   5a 63 20 53 01 01 01 01 06 12
version:         01 03
basic params:    80 2f 1d 78 2e
chroma info:     fe 25 a9 54 32 b4 25 10 50 54
established:     bf ef 80
standard:        b3 00 a9 40 90 40 81 80 81 40 71 4f d1 c0 31 0a
descriptor 1:    7c 2e 90 a0 60 1a 1e 40 30 20 36 00 d1 23 11 00 00 1c
descriptor 2:    00 00 00 ff 00 51 51 4d 30 38 30 36 30 30 35 33 38 0a
descriptor 3:    00 00 00 fd 00 32 4b 1e 52 11 00 0a 20 20 20 20 20 20
descriptor 4:    00 00 00 fc 00 56 50 32 32 35 30 77 62 0a 20 20 20 20
extensions:      00
checksum:        cb

EDID version: 1.3
Manufacturer: VSC Model 5320 Serial Number --
Made in week 6 of 2008
Digital display
Maximum image size: 47 cm x 29 cm
Gamma: 2.20
DPMS levels: Off
RGB color display
Default (sRGB) color space is primary color space
First detailed timing is preferred timing
Display x,y Chromaticity:
  Red:   0.6630, 0.3310
  Green: 0.1982, 0.7050
  Blue:  0.1445, 0.0644
  White: 0.3134, 0.3291
Established timings supported:
  720x400@70Hz 9:5 HorFreq: 31469 Hz Clock: 28.320 MHz
  640x480@60Hz 4:3 HorFreq: 31469 Hz Clock: 25.175 MHz
  640x480@67Hz 4:3 HorFreq: 35000 Hz Clock: 30.240 MHz
  640x480@72Hz 4:3 HorFreq: 37900 Hz Clock: 31.500 MHz
  640x480@75Hz 4:3 HorFreq: 37500 Hz Clock: 31.500 MHz
  800x600@56Hz 4:3 HorFreq: 35200 Hz Clock: 36.000 MHz
  800x600@60Hz 4:3 HorFreq: 37900 Hz Clock: 40.000 MHz
  800x600@72Hz 4:3 HorFreq: 48100 Hz Clock: 50.000 MHz
  800x600@75Hz 4:3 HorFreq: 46900 Hz Clock: 49.500 MHz
  832x624@75Hz 4:3 HorFreq: 49726 Hz Clock: 57.284 MHz
  1024x768@60Hz 4:3 HorFreq: 48400 Hz Clock: 65.000 MHz
  1024x768@70Hz 4:3 HorFreq: 56500 Hz Clock: 75.000 MHz
  1024x768@75Hz 4:3 HorFreq: 60000 Hz Clock: 78.750 MHz
  1280x1024@75Hz 5:4 HorFreq: 80000 Hz Clock: 135.000 MHz
  1152x870@75Hz 192:145 HorFreq: 67500 Hz Clock: 108.000 MHz
Standard timings supported:
  1680x1050@60Hz 16:10 HorFreq: 64700 Hz Clock: 119.000 MHz
  1600x1200@60Hz 4:3 HorFreq: 75000 Hz Clock: 162.000 MHz
  1400x1050@60Hz 4:3 HorFreq: 64700 Hz Clock: 101.000 MHz
  1280x1024@60Hz 5:4 HorFreq: 64000 Hz Clock: 108.000 MHz
  1280x960@60Hz 4:3 HorFreq: 60000 Hz Clock: 108.000 MHz
  1152x864@75Hz 4:3 HorFreq: 67500 Hz Clock: 108.000 MHz
  1920x1080@60Hz 16:9
  640x400@70Hz 16:10
Detailed mode: Clock 119.000 MHz, 465 mm x 291 mm
               1680 1728 1760 1840 hborder 0
               1050 1053 1059 1080 vborder 0
               -hsync +vsync 
               VertFreq: 59 Hz, HorFreq: 64673 Hz
Serial number: --
Monitor ranges (GTF): 50-75Hz V, 30-82kHz H, max dotclock 170MHz
Monitor name: VP2250wb
Checksum: 0xcb (valid)
EDID block does NOT conform to EDID 1.3!
	sRGB is signaled, but the chromaticities do not match
