
EDID (hex):
00ffffffffffff0009e503d000000000
1e1e0102801f11780e428ea951449323
154c5300000001010101010101010101
010101010101423780cc70381e403020
360035ae10000019000000fc000a2020
20202020202020202020000000fe0042
4f452043510a202020202020000000fe
004e5631343046484d2d4e35310a0016

edid-decode (hex):

00 ff ff ff ff ff ff 00 09 e5 03 d0 00 00 00 00
1e 1e 01 02 80 1f 11 78 0e 42 8e a9 51 44 93 23
15 4c 53 00 00 00 01 01 01 01 01 01 01 01 01 01
01 01 01 01 01 01 42 37 80 cc 70 38 1e 40 30 20
36 00 35 ae 10 00 00 19 00 00 00 fc 00 0a 20 20
20 20 20 20 20 20 20 20 20 20 00 00 00 fe 00 42
4f 45 20 43 51 0a 20 20 20 20 20 20 00 00 00 fe
00 4e 56 31 34 30 46 48 4d 2d 4e 35 31 0a 00 16

----------------

Block 0, Base EDID:
  EDID Structure Version & Revision: 1.2
  Vendor & Product Identification:
    Manufacturer: BOE
    Model: 53251
    Made in: week 30 of 2020
  Basic Display Parameters & Features:
    Digital display
    Maximum image size: 31 cm x 17 cm
    Gamma: 2.20
    RGB color display
    Default (sRGB) color space is primary color space
    First detailed timing is the preferred timing
  Color Characteristics:
    Red  : 0.6611, 0.3164
    Green: 0.2656, 0.5761
    Blue : 0.1386, 0.0820
    White: 0.2998, 0.3261
  Established Timings I & II: none
  Standard Timings: none
  Detailed Timing Descriptors:
    DTD 1:  1920x1080   60.000679 Hz  16:9     66.601 kHz    141.460000 MHz (309 mm x 174 mm)
                 Hfront   48 Hsync  32 Hback  124 Hpol N
                 Vfront    3 Vsync   6 Vback   21 Vpol N
    Display Product Name: ''
    Alphanumeric Data String: 'BOE CQ'
    Alphanumeric Data String: 'NV140FHM-N51'
Checksum: 0x16
