edid-decode (hex):

00 ff ff ff ff ff ff 00 09 e5 03 d0 00 00 00 00
1e 1e 01 02 80 1f 11 78 0e 42 8e a9 51 44 93 23
15 4c 53 00 00 00 01 01 01 01 01 01 01 01 01 01
01 01 01 01 01 01 42 37 80 cc 70 38 1e 40 30 20
36 00 35 ae 10 00 00 19 00 00 00 fc 00 0a 20 20
20 20 20 20 20 20 20 20 20 20 00 00 00 fe 00 42
4f 45 20 43 51 0a 20 20 20 20 20 20 00 00 00 fe
00 4e 56 31 34 30 46 48 4d 2d 4e 35 31 0a 00 16

00 ff ff ff ff ff ff 00 09 e5 03 d0 00 00 00 00
1e 1e 01 02 80 1f 11 78 0e 42 8e a9 51 44 93 23
15 4c 53 00 00 00 01 01 01 01 01 01 01 01 01 01
01 01 01 01 01 01 42 37 80 cc 70 38 1e 40 30 20
36 00 35 ae 10 00 00 19 00 00 00 fc 00 0a 20 20
20 20 20 20 20 20 20 20 20 20 00 00 00 fe 00 42
4f 45 20 43 51 0a 20 20 20 20 20 20 00 00 00 fe
00 4e 56 31 34 30 46 48 4d 2d 4e 35 31 0a 00 16

----------------

Block 0, Base EDID:
  EDID Structure Version & Revision: 1.2
  Vendor & Product Identification:
    Manufacturer: BOE
    Model: 53251
    Made in: week 30 of 2020
  Basic Display Parameters & Features:
    Digital display
    Maximum image size: 31 cm x 17 cm
    Gamma: 2.20
    RGB color display
    Default (sRGB) color space is primary color space
    First detailed timing is the preferred timing
  Color Characteristics:
    Red  : 0.6611, 0.3164
    Green: 0.2656, 0.5761
    Blue : 0.1386, 0.0820
    White: 0.2998, 0.3261
  Established Timings I & II: none
  Standard Timings: none
  Detailed Timing Descriptors:
    DTD 1:  1920x1080   60.000679 Hz  16:9     66.601 kHz    141.460000 MHz (309 mm x 174 mm)
                 Hfront   48 Hsync  32 Hback  124 Hpol N
                 Vfront    3 Vsync   6 Vback   21 Vpol N
    Display Product Name: ''
    Alphanumeric Data String: 'BOE CQ'
    Alphanumeric Data String: 'NV140FHM-N51'
Checksum: 0x16

----------------

Block 1, Unknown EDID Extension Block 0x00:
  00 ff ff ff ff ff ff 00 09 e5 03 d0 00 00 00 00 '................'
  1e 1e 01 02 80 1f 11 78 0e 42 8e a9 51 44 93 23 '.......x.B..QD.#'
  15 4c 53 00 00 00 01 01 01 01 01 01 01 01 01 01 '.LS.............'
  01 01 01 01 01 01 42 37 80 cc 70 38 1e 40 30 20 '......B7..p8.@0 '
  36 00 35 ae 10 00 00 19 00 00 00 fc 00 0a 20 20 '6.5...........  '
  20 20 20 20 20 20 20 20 20 20 00 00 00 fe 00 42 '          .....B'
  4f 45 20 43 51 0a 20 20 20 20 20 20 00 00 00 fe 'OE CQ.      ....'
  00 4e 56 31 34 30 46 48 4d 2d 4e 35 31 0a 00 16 '.NV140FHM-N51...'
Checksum: 0x16

----------------

Warnings:

Block 0, Base EDID:
  EDID Structure Version & Revision: EDID 1.2 is deprecated, do not use.

Failures:

Block 0, Base EDID:
  Basic Display Parameters & Features: sRGB is signaled, but the chromaticities do not match.
  Display Product Name: Empty string.
Block 1, Base EDID:
  Unknown Extension Block.
EDID:
  Base EDID: EDID specified 0 extension block(s), but found 1 extension block(s).

EDID conformity: FAIL
