
EDID (hex):
00ffffffffffff005924000002000000
340f0104a5221b15e2b69ca15a4b9824
164c57adcf008180818f010101010101
010101010101302a009851002a403070
1300520e1100001e000000fd00384c1e
510e000a202020202020000000fc0050
726573746967696f4c43440a000000ff
003030303030310a0a0a0a0a0a0a0014

Extracted contents:
header:          00 ff ff ff ff ff ff 00
serial number:   59 24 00 00 02 00 00 00 34 0f
version:         01 04
basic params:    a5 22 1b 15 e2
chroma info:     b6 9c a1 5a 4b 98 24 16 4c 57
established:     ad cf 00
standard:        81 80 81 8f 01 01 01 01 01 01 01 01 01 01 01 01
descriptor 1:    30 2a 00 98 51 00 2a 40 30 70 13 00 52 0e 11 00 00 1e
descriptor 2:    00 00 00 fd 00 38 4c 1e 51 0e 00 0a 20 20 20 20 20 20
descriptor 3:    00 00 00 fc 00 50 72 65 73 74 69 67 69 6f 4c 43 44 0a
descriptor 4:    00 00 00 ff 00 30 30 30 30 30 31 0a 0a 0a 0a 0a 0a 0a
extensions:      00
checksum:        14

EDID version: 1.4
Manufacturer: VID Model 0 Serial Number --
Digital display
8 bits per primary color channel
DisplayPort interface
Maximum image size: 34 cm x 27 cm
Gamma: 1.21
DPMS levels: Standby Suspend Off
Supported color formats: RGB 4:4:4
First detailed timing includes the native pixel format and preferred refresh rate
Display x,y Chromaticity:
  Red:   0.6308, 0.3544
  Green: 0.2939, 0.5957
  Blue:  0.1425, 0.0869
  White: 0.2998, 0.3398
Established timings supported:
  720x400@70Hz 9:5 HorFreq: 31469 Hz Clock: 28.320 MHz
  640x480@60Hz 4:3 HorFreq: 31469 Hz Clock: 25.175 MHz
  640x480@72Hz 4:3 HorFreq: 37900 Hz Clock: 31.500 MHz
  640x480@75Hz 4:3 HorFreq: 37500 Hz Clock: 31.500 MHz
  800x600@60Hz 4:3 HorFreq: 37900 Hz Clock: 40.000 MHz
  800x600@72Hz 4:3 HorFreq: 48100 Hz Clock: 50.000 MHz
  800x600@75Hz 4:3 HorFreq: 46900 Hz Clock: 49.500 MHz
  1024x768@60Hz 4:3 HorFreq: 48400 Hz Clock: 65.000 MHz
  1024x768@70Hz 4:3 HorFreq: 56500 Hz Clock: 75.000 MHz
  1024x768@75Hz 4:3 HorFreq: 60000 Hz Clock: 78.750 MHz
  1280x1024@75Hz 5:4 HorFreq: 80000 Hz Clock: 135.000 MHz
Standard timings supported:
  1280x1024@60Hz 5:4 HorFreq: 64000 Hz Clock: 108.000 MHz
  1280x1024@75Hz 5:4 HorFreq: 80000 Hz Clock: 135.000 MHz
Detailed mode: Clock 108.000 MHz, 338 mm x 270 mm
               1280 1328 1440 1688 hborder 0
               1024 1025 1028 1066 vborder 0
               +hsync +vsync 
               VertFreq: 60 Hz, HorFreq: 63981 Hz
Monitor ranges (GTF): 56-76Hz V, 30-81kHz H, max dotclock 140MHz
Monitor name: PrestigioLCD
Serial number: --
Checksum: 0x14 (valid)
EDID block does NOT conform to EDID 1.4!
	Detailed block string not properly terminated
EDID block does not conform at all!
	Bad year of manufacture
