edid-decode (hex):

00 ff ff ff ff ff ff 00 4c 83 4c 46 00 00 00 00
00 16 01 03 80 1f 11 78 ea 76 15 95 5b 57 90 2a
21 50 54 00 00 00 01 01 01 01 01 01 01 01 01 01
01 01 01 01 01 01 8a 1b 56 5a 50 00 27 30 30 20
55 00 35 ae 10 00 00 19 00 00 00 0f 00 00 00 00
00 00 00 00 00 25 d9 06 6a 00 00 00 00 fe 00 53
41 4d 53 55 4e 47 0a 20 4c 83 41 54 00 00 00 fe
00 4c 54 4e 31 34 30 41 54 32 38 4c 30 31 00 17

00 ff ff ff ff ff ff 00 4c 83 4c 46 00 00 00 00
00 16 01 03 80 1f 11 78 ea 76 15 95 5b 57 90 2a
21 50 54 00 00 00 01 01 01 01 01 01 01 01 01 01
01 01 01 01 01 01 8a 1b 56 5a 50 00 27 30 30 20
55 00 35 ae 10 00 00 19 00 00 00 0f 00 00 00 00
00 00 00 00 00 25 d9 06 6a 00 00 00 00 fe 00 53
41 4d 53 55 4e 47 0a 20 4c 83 41 54 00 00 00 fe
00 4c 54 4e 31 34 30 41 54 32 38 4c 30 31 00 17

----------------

Block 0, Base EDID:
  EDID Structure Version & Revision: 1.3
  Vendor & Product Identification:
    Manufacturer: SDC
    Model: 17996
    Made in: 2012
  Basic Display Parameters & Features:
    Digital display
    Maximum image size: 31 cm x 17 cm
    Gamma: 2.20
    DPMS levels: Standby Suspend Off
    RGB color display
    First detailed timing is the preferred timing
  Color Characteristics:
    Red  : 0.5830, 0.3583
    Green: 0.3408, 0.5644
    Blue : 0.1640, 0.1298
    White: 0.3134, 0.3291
  Established Timings I & II: none
  Standard Timings: none
  Detailed Timing Descriptors:
    DTD 1:  1366x768    60.000409 Hz 683:384   48.420 kHz     70.500000 MHz (309 mm x 174 mm)
                 Hfront   48 Hsync  32 Hback   10 Hpol N
                 Vfront    5 Vsync   5 Vback   29 Vpol N
    Manufacturer-Specified Display Descriptor (0x0f): 00 0f 00 00 00 00 00 00 00 00 00 25 d9 06 6a 00 '...........%..j.'
    Alphanumeric Data String: 'SAMSUNG'
    Alphanumeric Data String: 'LTN140AT28L01'
Checksum: 0x17

----------------

Block 1, Unknown EDID Extension Block 0x00:
  00 ff ff ff ff ff ff 00 4c 83 4c 46 00 00 00 00 '........L.LF....'
  00 16 01 03 80 1f 11 78 ea 76 15 95 5b 57 90 2a '.......x.v..[W.*'
  21 50 54 00 00 00 01 01 01 01 01 01 01 01 01 01 '!PT.............'
  01 01 01 01 01 01 8a 1b 56 5a 50 00 27 30 30 20 '........VZP.'00 '
  55 00 35 ae 10 00 00 19 00 00 00 0f 00 00 00 00 'U.5.............'
  00 00 00 00 00 25 d9 06 6a 00 00 00 00 fe 00 53 '.....%..j......S'
  41 4d 53 55 4e 47 0a 20 4c 83 41 54 00 00 00 fe 'AMSUNG. L.AT....'
  00 4c 54 4e 31 34 30 41 54 32 38 4c 30 31 00 17 '.LTN140AT28L01..'
Checksum: 0x17

----------------

Failures:

Block 0, Base EDID:
  Alphanumeric Data String: Non-space after newline.
  Missing Display Product Name.
  Missing Display Range Limits Descriptor.
Block 1, Base EDID:
  Unknown Extension Block.
EDID:
  Base EDID: EDID specified 0 extension block(s), but found 1 extension block(s).

EDID conformity: FAIL
