
EDID (hex):
00ffffffffffff0010acb84053333330
201a0104b53c22783a7225ac5033b726
0b50542108008100b300d100a9408180
d1c0010101014dd000a0f0703e803020
350055502100001a000000ff00334438
4638363841303333530a000000fc0044
454c4c205550323731354b0a000000fd
001d4b1fb436010a2020202020200118

Extracted contents:
header:          00 ff ff ff ff ff ff 00
serial number:   10 ac b8 40 53 33 33 30 20 1a
version:         01 04
basic params:    b5 3c 22 78 3a
chroma info:     72 25 ac 50 33 b7 26 0b 50 54
established:     21 08 00
standard:        81 00 b3 00 d1 00 a9 40 81 80 d1 c0 01 01 01 01
descriptor 1:    4d d0 00 a0 f0 70 3e 80 30 20 35 00 55 50 21 00 00 1a
descriptor 2:    00 00 00 ff 00 33 44 38 46 38 36 38 41 30 33 33 53 0a
descriptor 3:    00 00 00 fc 00 44 45 4c 4c 20 55 50 32 37 31 35 4b 0a
descriptor 4:    00 00 00 fd 00 1d 4b 1f b4 36 01 0a 20 20 20 20 20 20
extensions:      01
checksum:        18

EDID version: 1.4
Manufacturer: DEL Model 40b8 Serial Number --
Made in week 32 of 2016
Digital display
10 bits per primary color channel
DisplayPort interface
Maximum image size: 60 cm x 34 cm
Gamma: 2.20
DPMS levels: Off
Supported color formats: RGB 4:4:4, YCrCb 4:4:4, YCrCb 4:2:2
First detailed timing includes the native pixel format and preferred refresh rate
Display x,y Chromaticity:
  Red:   0.6728, 0.3154
  Green: 0.1992, 0.7167
  Blue:  0.1484, 0.0449
  White: 0.3134, 0.3291
Established timings supported:
  640x480@60Hz 4:3 HorFreq: 31469 Hz Clock: 25.175 MHz
  800x600@60Hz 4:3 HorFreq: 37900 Hz Clock: 40.000 MHz
  1024x768@60Hz 4:3 HorFreq: 48400 Hz Clock: 65.000 MHz
Standard timings supported:
  1280x800@60Hz 16:10
  1680x1050@60Hz 16:10 HorFreq: 64700 Hz Clock: 119.000 MHz
  1920x1200@60Hz 16:10 HorFreq: 74000 Hz Clock: 154.000 MHz
  1600x1200@60Hz 4:3 HorFreq: 75000 Hz Clock: 162.000 MHz
  1280x1024@60Hz 5:4 HorFreq: 64000 Hz Clock: 108.000 MHz
  1920x1080@60Hz 16:9
Detailed mode: Clock 533.250 MHz, 597 mm x 336 mm
               3840 3888 3920 4000 hborder 0
               2160 2163 2168 2222 vborder 0
               +hsync -vsync 
               VertFreq: 59 Hz, HorFreq: 133312 Hz
Serial number: --
Monitor name: DELL UP2715K
Monitor ranges (bare limits): 29-75Hz V, 31-180kHz H, max dotclock 540MHz
Has 1 extension blocks
Checksum: 0x18 (valid)
