edid-decode (hex):

00 ff ff ff ff ff ff 00 3a ac 00 00 01 01 01 01
0d 11 01 03 08 25 17 78 2a 47 a0 99 59 4f 8c 26
1d 50 54 23 08 00 81 00 95 00 01 01 01 01 01 01
01 01 01 01 01 01 68 29 a0 d0 51 84 22 30 50 98
36 00 6f e6 10 00 00 1e 00 00 00 fd 00 3b 3d 1e
40 0b 00 0a 20 20 20 20 20 20 00 00 00 ff 00 53
65 72 69 61 6c 4e 75 6d 62 65 72 0a 00 00 00 fc
00 4d 41 37 57 0a 20 20 20 20 20 20 20 20 00 c7

----------------

Block 0, Base EDID:
  EDID Structure Version & Revision: 1.3
  Vendor & Product Identification:
    Manufacturer: NUL
    Model: 0
    Serial Number: ...
    Made in: week 13 of 2007
  Basic Display Parameters & Features:
    Analog display
    Signal Level Standard: 0.700 : 0.300 : 1.000 V p-p
    Blank level equals black level
    Sync: Separate
    Maximum image size: 37 cm x 23 cm
    Gamma: 2.20
    DPMS levels: Off
    RGB color display
    First detailed timing is the preferred timing
  Color Characteristics:
    Red  : 0.5986, 0.3476
    Green: 0.3095, 0.5498
    Blue : 0.1503, 0.1152
    White: 0.3125, 0.3281
  Established Timings I & II:
    DMT 0x04:   640x480    59.940476 Hz   4:3     31.469 kHz     25.175000 MHz
    DMT 0x08:   800x600    56.250000 Hz   4:3     35.156 kHz     36.000000 MHz
    DMT 0x09:   800x600    60.316541 Hz   4:3     37.879 kHz     40.000000 MHz
    DMT 0x10:  1024x768    60.003840 Hz   4:3     48.363 kHz     65.000000 MHz
  Standard Timings:
    DMT 0x1c:  1280x800    59.810326 Hz  16:10    49.702 kHz     83.500000 MHz
    DMT 0x2f:  1440x900    59.887445 Hz  16:10    55.935 kHz    106.500000 MHz
  Detailed Timing Descriptors:
    DTD 1:  1440x900    59.606284 Hz   8:5     55.672 kHz    106.000000 MHz (367 mm x 230 mm)
                 Hfront   80 Hsync 152 Hback  232 Hpol P
                 Vfront    3 Vsync   6 Vback   25 Vpol P
    Display Range Limits:
      Monitor ranges (GTF): 59-61 Hz V, 30-64 kHz H, max dotclock 110 MHz
    Display Product Serial Number: ...
    Display Product Name: 'MA7W'
Checksum: 0xc7

----------------

Failures:

EDID:
  Base EDID: Some timings are out of range of the Monitor Ranges:
    Vertical Freq: 56.250 - 60.317 Hz (Monitor: 59.000 - 61.000 Hz)

EDID conformity: FAIL
