
EDID (hex):
00ffffffffffff000dae891400000000
10180104901f117802f8459657549228
23505400000001010101010101010101
010101010101631b568450000c302b10
220035ad1000001a4212568450000c30
2b10220035ad1000001a000000fe0039
46304450813134304247450a00000000
00004131940010000001010a20200037

Extracted contents:
header:          00 ff ff ff ff ff ff 00
serial number:   0d ae 89 14 00 00 00 00 10 18
version:         01 04
basic params:    90 1f 11 78 02
chroma info:     f8 45 96 57 54 92 28 23 50 54
established:     00 00 00
standard:        01 01 01 01 01 01 01 01 01 01 01 01 01 01 01 01
descriptor 1:    63 1b 56 84 50 00 0c 30 2b 10 22 00 35 ad 10 00 00 1a
descriptor 2:    42 12 56 84 50 00 0c 30 2b 10 22 00 35 ad 10 00 00 1a
descriptor 3:    00 00 00 fe 00 39 46 30 44 50 81 31 34 30 42 47 45 0a
descriptor 4:    00 00 00 00 00 00 41 31 94 00 10 00 00 01 01 0a 20 20
extensions:      00
checksum:        37

EDID version: 1.4
Manufacturer: CMN Model 1489 Serial Number --
Made in week 16 of 2014
Digital display
6 bits per primary color channel
Digital interface is not defined
Maximum image size: 31 cm x 17 cm
Gamma: 2.20
Supported color formats: RGB 4:4:4
First detailed timing includes the native pixel format and preferred refresh rate
Display x,y Chromaticity:
  Red:   0.5888, 0.3427
  Green: 0.3300, 0.5703
  Blue:  0.1572, 0.1367
  White: 0.3134, 0.3291
Established timings supported:
Standard timings supported:
Detailed mode: Clock 70.110 MHz, 309 mm x 173 mm
               1366 1409 1425 1498 hborder 0
                768  770  772  780 vborder 0
               +hsync -vsync 
               VertFreq: 60 Hz, HorFreq: 46802 Hz
Detailed mode: Clock 46.740 MHz, 309 mm x 173 mm
               1366 1409 1425 1498 hborder 0
                768  770  772  780 vborder 0
               +hsync -vsync 
               VertFreq: 40 Hz, HorFreq: 31201 Hz
ASCII string: 9F0DP
Manufacturer-specified data, tag 0
Checksum: 0x37 (valid)
EDID block does NOT conform to EDID 1.4!
	Missing name descriptor
	Missing monitor ranges
	Detailed block string not properly terminated
