
EDID (hex):
00ffffffffffff0006af9fcb00000000
001f0104a51e137803ee95a3544c9926
0f505400000001010101010101010101
0101010101014452c0a080783e503020
35002cbc10000018000000fd00303c58
5815010a202020202020000000fe0041
554f0a202020202020202020000000fe
004231343051414e30352e30200a0071

Extracted contents:
header:          00 ff ff ff ff ff ff 00
serial number:   06 af 9f cb 00 00 00 00 00 1f
version:         01 04
basic params:    a5 1e 13 78 03
chroma info:     ee 95 a3 54 4c 99 26 0f 50 54
established:     00 00 00
standard:        01 01 01 01 01 01 01 01 01 01 01 01 01 01 01 01
descriptor 1:    44 52 c0 a0 80 78 3e 50 30 20 35 00 2c bc 10 00 00 18
descriptor 2:    00 00 00 fd 00 30 3c 58 58 15 01 0a 20 20 20 20 20 20
descriptor 3:    00 00 00 fe 00 41 55 4f 0a 20 20 20 20 20 20 20 20 20
descriptor 4:    00 00 00 fe 00 42 31 34 30 51 41 4e 30 35 2e 30 20 0a
extensions:      00
checksum:        71

EDID version: 1.4
Manufacturer: AUO Model cb9f Serial Number --
Made in year 2021
Digital display
8 bits per primary color channel
DisplayPort interface
Maximum image size: 30 cm x 19 cm
Gamma: 2.20
Supported color formats: RGB 4:4:4
First detailed timing includes the native pixel format and preferred refresh rate
Display is continuous frequency
Display x,y Chromaticity:
  Red:   0.6396, 0.3300
  Green: 0.2998, 0.5996
  Blue:  0.1503, 0.0595
  White: 0.3134, 0.3291
Established timings supported:
Standard timings supported:
Detailed mode: Clock 210.600 MHz, 300 mm x 188 mm
               2240 2288 2320 2400 hborder 0
               1400 1403 1408 1462 vborder 0
               -hsync -vsync 
               VertFreq: 60 Hz, HorFreq: 87750 Hz
Monitor ranges (bare limits): 48-60Hz V, 88-88kHz H, max dotclock 210MHz
ASCII string: AUO
ASCII string: B140QAN05.0 
Checksum: 0x71 (valid)
EDID block does NOT conform to EDID 1.4!
	Missing name descriptor
Warning: One or more of the timings is out of range of the Monitor Ranges:
  Vertical Freq: 60 - 60 Hz
  Horizontal Freq: 87750 - 87750 Hz
  Maximum Clock: 210.600 MHz
