
EDID (hex):
00ffffffffffff000e115614e2000000
1b0d01036c1f1778ea7ea5a0584e9625
1e5054a56a0001010101010101010101
01010101010164190040410026301888
360030e410000018000000fd00384c1e
3c08000a202020202020000000fc0043
4f4d50415120313532300a20000000ff
00434e333237505a3232360a202000ca

Extracted contents:
header:          00 ff ff ff ff ff ff 00
serial number:   0e 11 56 14 e2 00 00 00 1b 0d
version:         01 03
basic params:    6c 1f 17 78 ea
chroma info:     7e a5 a0 58 4e 96 25 1e 50 54
established:     a5 6a 00
standard:        01 01 01 01 01 01 01 01 01 01 01 01 01 01 01 01
descriptor 1:    64 19 00 40 41 00 26 30 18 88 36 00 30 e4 10 00 00 18
descriptor 2:    00 00 00 fd 00 38 4c 1e 3c 08 00 0a 20 20 20 20 20 20
descriptor 3:    00 00 00 fc 00 43 4f 4d 50 41 51 20 31 35 32 30 0a 20
descriptor 4:    00 00 00 ff 00 43 4e 33 32 37 50 5a 32 32 36 0a 20 20
extensions:      00
checksum:        ca

EDID version: 1.3
Manufacturer: CPQ Model 1456 Serial Number --
Analog display, Input voltage level: 0.7/0.7 V
Sync: Separate Composite 
Maximum image size: 31 cm x 23 cm
Gamma: 2.20
DPMS levels: Standby Suspend Off
RGB color display
First detailed timing is preferred timing
Display x,y Chromaticity:
  Red:   0.6259, 0.3466
  Green: 0.3076, 0.5878
  Blue:  0.1464, 0.1191
  White: 0.3134, 0.3291
Established timings supported:
  720x400@70Hz 9:5 HorFreq: 31469 Hz Clock: 28.320 MHz
  640x480@60Hz 4:3 HorFreq: 31469 Hz Clock: 25.175 MHz
  640x480@75Hz 4:3 HorFreq: 37500 Hz Clock: 31.500 MHz
  800x600@60Hz 4:3 HorFreq: 37900 Hz Clock: 40.000 MHz
  800x600@75Hz 4:3 HorFreq: 46900 Hz Clock: 49.500 MHz
  832x624@75Hz 4:3 HorFreq: 49726 Hz Clock: 57.284 MHz
  1024x768@60Hz 4:3 HorFreq: 48400 Hz Clock: 65.000 MHz
  1024x768@75Hz 4:3 HorFreq: 60000 Hz Clock: 78.750 MHz
Standard timings supported:
Detailed mode: Clock 65.000 MHz, 304 mm x 228 mm
               1024 1048 1184 1344 hborder 0
                768  771  777  806 vborder 0
               -hsync -vsync 
               VertFreq: 60 Hz, HorFreq: 48363 Hz
Monitor ranges (GTF): 56-76Hz V, 30-60kHz H, max dotclock 80MHz
Monitor name: COMPAQ 1520
Serial number: --
Checksum: 0xca (valid)
EDID block does not conform at all!
	Bad year of manufacture
