
EDID (hex):
00ffffffffffff0038a3746601010101
171001030e663978ee1a0da655459724
11474aa109008180a94081c001010101
0101010101011b2150a051001e304888
3500fa3c3200001c000000fd0030551f
5c11000a202020202020000000fc004c
4344343631300a2020202020000000ff
00363642303036313359410a20200071

Extracted contents:
header:          00 ff ff ff ff ff ff 00
serial number:   38 a3 74 66 01 01 01 01 17 10
version:         01 03
basic params:    0e 66 39 78 ee
chroma info:     1a 0d a6 55 45 97 24 11 47 4a
established:     a1 09 00
standard:        81 80 a9 40 81 c0 01 01 01 01 01 01 01 01 01 01
descriptor 1:    1b 21 50 a0 51 00 1e 30 48 88 35 00 fa 3c 32 00 00 1c
descriptor 2:    00 00 00 fd 00 30 55 1f 5c 11 00 0a 20 20 20 20 20 20
descriptor 3:    00 00 00 fc 00 4c 43 44 34 36 31 30 0a 20 20 20 20 20
descriptor 4:    00 00 00 ff 00 36 36 42 30 30 36 31 33 59 41 0a 20 20
extensions:      00
checksum:        71

EDID version: 1.3
Manufacturer: NEC Model 6674 Serial Number --
Made in week 23 of 2006
Analog display, Input voltage level: 0.7/0.3 V
Sync: Separate Composite SyncOnGreen 
Maximum image size: 102 cm x 57 cm
Gamma: 2.20
DPMS levels: Standby Suspend Off
RGB color display
Default (sRGB) color space is primary color space
First detailed timing is preferred timing
Display x,y Chromaticity:
  Red:   0.6484, 0.3330
  Green: 0.2714, 0.5917
  Blue:  0.1406, 0.0664
  White: 0.2802, 0.2900
Established timings supported:
  720x400@70Hz 9:5 HorFreq: 31469 Hz Clock: 28.320 MHz
  640x480@60Hz 4:3 HorFreq: 31469 Hz Clock: 25.175 MHz
  800x600@60Hz 4:3 HorFreq: 37900 Hz Clock: 40.000 MHz
  1024x768@60Hz 4:3 HorFreq: 48400 Hz Clock: 65.000 MHz
  1280x1024@75Hz 5:4 HorFreq: 80000 Hz Clock: 135.000 MHz
Standard timings supported:
  1280x1024@60Hz 5:4 HorFreq: 64000 Hz Clock: 108.000 MHz
  1600x1200@60Hz 4:3 HorFreq: 75000 Hz Clock: 162.000 MHz
  1280x720@60Hz 16:9
Detailed mode: Clock 84.750 MHz, 1018 mm x 572 mm
               1360 1432 1568 1776 hborder 0
                768  771  776  798 vborder 0
               -hsync +vsync 
               VertFreq: 59 Hz, HorFreq: 47719 Hz
Monitor ranges (GTF): 48-85Hz V, 31-92kHz H, max dotclock 170MHz
Monitor name: LCD4610
Serial number: --
Checksum: 0x71 (valid)
EDID block does NOT conform to EDID 1.3!
	sRGB is signaled, but the chromaticities do not match
