
EDID (hex):
00ffffffffffff00410c6dd001010101
00140103805d34782af9aba2554a9a25
0f474a2dcc0081c0818095008bc0b300
01010101010121399030621a274068b0
3600a20c3200001c662150b051001b30
40703600a20c3200001c000000fd0038
4c1e530f000a202020202020000000fc
00504849343250464c333630350a0180

Extracted contents:
header:          00 ff ff ff ff ff ff 00
serial number:   41 0c 6d d0 01 01 01 01 00 14
version:         01 03
basic params:    80 5d 34 78 2a
chroma info:     f9 ab a2 55 4a 9a 25 0f 47 4a
established:     2d cc 00
standard:        81 c0 81 80 95 00 8b c0 b3 00 01 01 01 01 01 01
descriptor 1:    21 39 90 30 62 1a 27 40 68 b0 36 00 a2 0c 32 00 00 1c
descriptor 2:    66 21 50 b0 51 00 1b 30 40 70 36 00 a2 0c 32 00 00 1c
descriptor 3:    00 00 00 fd 00 38 4c 1e 53 0f 00 0a 20 20 20 20 20 20
descriptor 4:    00 00 00 fc 00 50 48 49 34 32 50 46 4c 33 36 30 35 0a
extensions:      01
checksum:        80

EDID version: 1.3
Manufacturer: PHL Model d06d Serial Number --
Made in year 2010
Digital display
Maximum image size: 93 cm x 52 cm
Gamma: 2.20
DPMS levels: Off
RGB color display
First detailed timing is preferred timing
Display x,y Chromaticity:
  Red:   0.6357, 0.3349
  Green: 0.2910, 0.6025
  Blue:  0.1464, 0.0605
  White: 0.2792, 0.2919
Established timings supported:
  640x480@60Hz 4:3 HorFreq: 31469 Hz Clock: 25.175 MHz
  640x480@72Hz 4:3 HorFreq: 37900 Hz Clock: 31.500 MHz
  640x480@75Hz 4:3 HorFreq: 37500 Hz Clock: 31.500 MHz
  800x600@60Hz 4:3 HorFreq: 37900 Hz Clock: 40.000 MHz
  800x600@72Hz 4:3 HorFreq: 48100 Hz Clock: 50.000 MHz
  800x600@75Hz 4:3 HorFreq: 46900 Hz Clock: 49.500 MHz
  1024x768@60Hz 4:3 HorFreq: 48400 Hz Clock: 65.000 MHz
  1024x768@70Hz 4:3 HorFreq: 56500 Hz Clock: 75.000 MHz
Standard timings supported:
  1280x720@60Hz 16:9
  1280x1024@60Hz 5:4 HorFreq: 64000 Hz Clock: 108.000 MHz
  1440x900@60Hz 16:10 HorFreq: 55500 Hz Clock: 88.750 MHz
  1360x765@60Hz 16:9
  1680x1050@60Hz 16:10 HorFreq: 64700 Hz Clock: 119.000 MHz
Detailed mode: Clock 146.250 MHz, 930 mm x 524 mm
               1680 1784 1960 2240 hborder 0
               1050 1053 1059 1089 vborder 0
               -hsync +vsync 
               VertFreq: 59 Hz, HorFreq: 65290 Hz
Detailed mode: Clock 85.500 MHz, 930 mm x 524 mm
               1360 1424 1536 1792 hborder 0
                768  771  777  795 vborder 0
               -hsync +vsync 
               VertFreq: 60 Hz, HorFreq: 47712 Hz
Monitor ranges (GTF): 56-76Hz V, 30-83kHz H, max dotclock 150MHz
Monitor name: PHI42PFL3605
Has 1 extension blocks
Checksum: 0x80 (valid)
