edid-decode (hex):

00 ff ff ff ff ff ff 00 0e 14 eb 1c 00 00 00 00
1b 17 01 03 80 0f 09 78 0a a7 5f 99 56 58 8c 29
1b 51 54 00 00 00 01 01 01 01 01 01 01 01 01 01
01 01 01 01 01 01 48 1c 00 a0 50 20 26 30 3b 27
59 00 98 5e 00 00 00 19 48 1c 00 a0 50 20 26 30
3b 27 59 00 98 5e 00 00 00 19 00 00 00 fe 00 43
50 54 20 20 20 20 20 20 20 20 20 20 00 00 00 fe
00 43 4c 41 41 30 37 30 57 42 30 31 20 20 00 8e

----------------

Block 0, Base EDID:
  EDID Structure Version & Revision: 1.3
  Vendor & Product Identification:
    Manufacturer: CPT
    Model: 7403
    Made in: week 27 of 2013
  Basic Display Parameters & Features:
    Digital display
    Maximum image size: 15 cm x 9 cm
    Gamma: 2.20
    RGB color display
    First detailed timing is the preferred timing
  Color Characteristics:
    Red  : 0.5996, 0.3378
    Green: 0.3447, 0.5498
    Blue : 0.1611, 0.1064
    White: 0.3193, 0.3310
  Established Timings I & II: none
  Standard Timings: none
  Detailed Timing Descriptors:
    DTD 1:  1280x800    59.997348 Hz   8:5     50.278 kHz     72.400000 MHz (152 mm x 94 mm)
                 Hfront   59 Hsync  39 Hback   62 Hpol N
                 Vfront    5 Vsync   9 Vback   24 Vpol N
    DTD 2:  1280x800    59.997348 Hz   8:5     50.278 kHz     72.400000 MHz (152 mm x 94 mm)
                 Hfront   59 Hsync  39 Hback   62 Hpol N
                 Vfront    5 Vsync   9 Vback   24 Vpol N
    Alphanumeric Data String: 'CPT          '
    Alphanumeric Data String: 'CLAA070WB01  '
Checksum: 0x8e

----------------

Warnings:

Block 0, Base EDID:
  Basic Display Parameters & Features: Dubious maximum image size (15x9 is smaller than 10x10 cm).

Failures:

Block 0, Base EDID:
  Alphanumeric Data String: One or more trailing spaces.
  Alphanumeric Data String: One or more trailing spaces.
  Missing Display Product Name.
  Missing Display Range Limits Descriptor.

EDID conformity: FAIL
