edid-decode (hex):

00 ff ff ff ff ff ff 00 0d ae 17 14 00 00 00 00
00 1e 01 04 a5 1e 13 78 03 c4 cf a5 55 4e 9b 24
10 51 57 00 00 00 01 01 01 01 01 01 01 01 01 01
01 01 01 01 01 01 42 3c 80 a0 70 b0 24 40 2e 1e
a6 00 2d bc 10 00 00 18 00 00 00 fd 00 30 3c 4a
4a 0f 01 0a 20 20 20 20 20 20 00 00 00 fe 00 43
4d 4e 01 0a 20 20 20 20 20 20 20 20 00 00 00 fe
00 4e 31 34 30 4a 43 4e 2d 47 53 39 0a 20 00 81

00 ff ff ff ff ff ff 00 0d ae 17 14 00 00 00 00
00 1e 01 04 a5 1e 13 78 03 c4 cf a5 55 4e 9b 24
10 51 57 00 00 00 01 01 01 01 01 01 01 01 01 01
01 01 01 01 01 01 42 3c 80 a0 70 b0 24 40 2e 1e
a6 00 2d bc 10 00 00 18 00 00 00 fd 00 30 3c 4a
4a 0f 01 0a 20 20 20 20 20 20 00 00 00 fe 00 43
4d 4e 01 0a 20 20 20 20 20 20 20 20 00 00 00 fe
00 4e 31 34 30 4a 43 4e 2d 47 53 39 0a 20 00 81

----------------

Block 0, Base EDID:
  EDID Structure Version & Revision: 1.4
  Vendor & Product Identification:
    Manufacturer: CMN
    Model: 5143
    Made in: 2020
  Basic Display Parameters & Features:
    Digital display
    Bits per primary color channel: 8
    DisplayPort interface
    Maximum image size: 30 cm x 19 cm
    Gamma: 2.20
    Supported color formats: RGB 4:4:4
    First detailed timing includes the native pixel format and preferred refresh rate
    Display is continuous frequency
  Color Characteristics:
    Red  : 0.6474, 0.3320
    Green: 0.3056, 0.6054
    Blue : 0.1435, 0.0625
    White: 0.3193, 0.3427
  Established Timings I & II: none
  Standard Timings: none
  Detailed Timing Descriptors:
    DTD 1:  1920x1200   60.002801 Hz  16:10    74.163 kHz    154.260000 MHz (301 mm x 188 mm)
                 Hfront   46 Hsync  30 Hback   84 Hpol N
                 Vfront   10 Vsync   6 Vback   20 Vpol N
    Display Range Limits:
      Monitor ranges (Bare Limits): 48-60 Hz V, 74-74 kHz H, max dotclock 150 MHz
    Alphanumeric Data String: 'CMN'
    Alphanumeric Data String: 'N140JCN-GS9'
Checksum: 0x81

----------------

Block 1, Unknown EDID Extension Block 0x00:
  00 ff ff ff ff ff ff 00 0d ae 17 14 00 00 00 00 '................'
  00 1e 01 04 a5 1e 13 78 03 c4 cf a5 55 4e 9b 24 '.......x....UN.$'
  10 51 57 00 00 00 01 01 01 01 01 01 01 01 01 01 '.QW.............'
  01 01 01 01 01 01 42 3c 80 a0 70 b0 24 40 2e 1e '......B<..p.$@..'
  a6 00 2d bc 10 00 00 18 00 00 00 fd 00 30 3c 4a '..-..........0<J'
  4a 0f 01 0a 20 20 20 20 20 20 00 00 00 fe 00 43 'J...      .....C'
  4d 4e 01 0a 20 20 20 20 20 20 20 20 00 00 00 fe 'MN..        ....'
  00 4e 31 34 30 4a 43 4e 2d 47 53 39 0a 20 00 81 '.N140JCN-GS9. ..'
Checksum: 0x81

----------------

Warnings:

Block 0, Base EDID:
  Missing Display Product Name.
EDID:
  Base EDID: Some timings are out of range of the Monitor Ranges:
    Maximum Clock: 154.260 MHz (Monitor: 150.000 MHz)
    Could be due to a Monitor Range off-by-one rounding issue

Failures:

Block 0, Base EDID:
  Alphanumeric Data String: Non-printable character.
Block 1, Base EDID:
  Unknown Extension Block.
EDID:
  Base EDID: EDID specified 0 extension block(s), but found 1 extension block(s).

EDID conformity: FAIL
