
EDID (hex):
00ffffffffffff000dae171400000000
001e0104a51e137803056ca6554e9824
10515600000001010101010101010101
010101010101423c80a070b024402e1e
a6002dbc10000018000000fd00303c4a
4a0f010a202020202020000000fe0043
4d4e010a2020202020202020000000fe
004e3134304a434e2d4753390a2000a6

Extracted contents:
header:          00 ff ff ff ff ff ff 00
serial number:   0d ae 17 14 00 00 00 00 00 1e
version:         01 04
basic params:    a5 1e 13 78 03
chroma info:     05 6c a6 55 4e 98 24 10 51 56
established:     00 00 00
standard:        01 01 01 01 01 01 01 01 01 01 01 01 01 01 01 01
descriptor 1:    42 3c 80 a0 70 b0 24 40 2e 1e a6 00 2d bc 10 00 00 18
descriptor 2:    00 00 00 fd 00 30 3c 4a 4a 0f 01 0a 20 20 20 20 20 20
descriptor 3:    00 00 00 fe 00 43 4d 4e 01 0a 20 20 20 20 20 20 20 20
descriptor 4:    00 00 00 fe 00 4e 31 34 30 4a 43 4e 2d 47 53 39 0a 20
extensions:      00
checksum:        a6

EDID version: 1.4
Manufacturer: CMN Model 1417 Serial Number --
Made in year 2020
Digital display
8 bits per primary color channel
DisplayPort interface
Maximum image size: 30 cm x 19 cm
Gamma: 2.20
Supported color formats: RGB 4:4:4
First detailed timing includes the native pixel format and preferred refresh rate
Display is continuous frequency
Display x,y Chromaticity:
  Red:   0.6484, 0.3320
  Green: 0.3056, 0.5947
  Blue:  0.1416, 0.0644
  White: 0.3193, 0.3359
Established timings supported:
Standard timings supported:
Detailed mode: Clock 154.260 MHz, 301 mm x 188 mm
               1920 1966 1996 2080 hborder 0
               1200 1210 1216 1236 vborder 0
               -hsync -vsync 
               VertFreq: 60 Hz, HorFreq: 74163 Hz
Monitor ranges (bare limits): 48-60Hz V, 74-74kHz H, max dotclock 150MHz
ASCII string: CMN
ASCII string: N140JCN-GS9
Checksum: 0xa6 (valid)
EDID block does NOT conform to EDID 1.4!
	Missing name descriptor
	Detailed block string not properly terminated
Warning: One or more of the timings is out of range of the Monitor Ranges:
  Vertical Freq: 60 - 60 Hz
  Horizontal Freq: 74163 - 74163 Hz
  Maximum Clock: 154.260 MHz
