edid-decode (hex):

00 ff ff ff ff ff ff 00 4d 10 4b 15 00 00 00 00
0e 1d 01 04 a5 1f 11 78 0e de 50 a3 54 4c 99 26
0f 50 54 00 00 00 01 01 01 01 01 01 01 01 01 01
01 01 01 01 01 01 1a 36 80 a0 70 38 1e 40 30 20
35 00 35 ae 10 00 00 18 48 2b 80 a0 70 38 1e 40
30 20 35 00 35 ae 10 00 00 18 00 00 00 fe 00 46
44 39 52 37 80 4c 51 31 34 30 4d 31 00 00 00 00
00 02 41 03 1e 01 12 00 00 0a 01 0a 20 20 00 56

00 ff ff ff ff ff ff 00 4d 10 4b 15 00 00 00 00
0e 1d 01 04 a5 1f 11 78 0e de 50 a3 54 4c 99 26
0f 50 54 00 00 00 01 01 01 01 01 01 01 01 01 01
01 01 01 01 01 01 1a 36 80 a0 70 38 1e 40 30 20
35 00 35 ae 10 00 00 18 48 2b 80 a0 70 38 1e 40
30 20 35 00 35 ae 10 00 00 18 00 00 00 fe 00 46
44 39 52 37 80 4c 51 31 34 30 4d 31 00 00 00 00
00 02 41 03 1e 01 12 00 00 0a 01 0a 20 20 00 56

----------------

Block 0, Base EDID:
  EDID Structure Version & Revision: 1.4
  Vendor & Product Identification:
    Manufacturer: SHP
    Model: 5451
    Made in: week 14 of 2019
  Basic Display Parameters & Features:
    Digital display
    Bits per primary color channel: 8
    DisplayPort interface
    Maximum image size: 31 cm x 17 cm
    Gamma: 2.20
    Supported color formats: RGB 4:4:4, YCrCb 4:4:4
    Default (sRGB) color space is primary color space
    First detailed timing includes the native pixel format and preferred refresh rate
  Color Characteristics:
    Red  : 0.6396, 0.3291
    Green: 0.2998, 0.5996
    Blue : 0.1494, 0.0595
    White: 0.3125, 0.3281
  Established Timings I & II: none
  Standard Timings: none
  Detailed Timing Descriptors:
    DTD 1:  1920x1080   59.987872 Hz  16:9     66.587 kHz    138.500000 MHz (309 mm x 174 mm)
                 Hfront   48 Hsync  32 Hback   80 Hpol N
                 Vfront    3 Vsync   5 Vback   22 Vpol N
    DTD 2:  1920x1080   47.990298 Hz  16:9     53.269 kHz    110.800000 MHz (309 mm x 174 mm)
                 Hfront   48 Hsync  32 Hback   80 Hpol N
                 Vfront    3 Vsync   5 Vback   22 Vpol N
    Alphanumeric Data String: 'FD9R7'
    Manufacturer-Specified Display Descriptor (0x00): 00 00 00 02 41 03 1e 01 12 00 00 0a 01 0a 20 20 '....A.........  '
Checksum: 0x56

----------------

Block 1, Unknown EDID Extension Block 0x00:
  00 ff ff ff ff ff ff 00 4d 10 4b 15 00 00 00 00 '........M.K.....'
  0e 1d 01 04 a5 1f 11 78 0e de 50 a3 54 4c 99 26 '.......x..P.TL.&'
  0f 50 54 00 00 00 01 01 01 01 01 01 01 01 01 01 '.PT.............'
  01 01 01 01 01 01 1a 36 80 a0 70 38 1e 40 30 20 '.......6..p8.@0 '
  35 00 35 ae 10 00 00 18 48 2b 80 a0 70 38 1e 40 '5.5.....H+..p8.@'
  30 20 35 00 35 ae 10 00 00 18 00 00 00 fe 00 46 '0 5.5..........F'
  44 39 52 37 80 4c 51 31 34 30 4d 31 00 00 00 00 'D9R7.LQ140M1....'
  00 02 41 03 1e 01 12 00 00 0a 01 0a 20 20 00 56 '..A.........  .V'
Checksum: 0x56

----------------

Warnings:

Block 0, Base EDID:
  Missing Display Product Name.

Failures:

Block 0, Base EDID:
  Basic Display Parameters & Features: sRGB is signaled, but the chromaticities do not match.
  Alphanumeric Data String: Non-printable character.
Block 1, Base EDID:
  Unknown Extension Block.
EDID:
  Base EDID: EDID specified 0 extension block(s), but found 1 extension block(s).

EDID conformity: FAIL
