edid-decode (hex):

00 ff ff ff ff ff ff 00 4c 83 4a 58 00 00 00 00
00 19 01 04 a5 1d 11 78 ea ee 95 a3 54 4c 99 26
0f 50 54 00 00 00 01 01 01 01 01 01 01 01 01 01
01 01 01 01 01 01 23 8d 80 74 c0 08 10 70 30 20
25 00 25 a5 10 00 00 19 00 00 00 0f 00 00 00 00
00 00 00 00 00 37 82 05 46 00 00 00 00 fe 00 53
41 4d 53 55 4e 47 0a 20 4c 83 59 4c 00 00 00 fe
00 31 33 33 59 4c 30 32 2d 43 30 32 0a 20 00 41

00 ff ff ff ff ff ff 00 4c 83 4a 58 00 00 00 00
00 19 01 04 a5 1d 11 78 ea ee 95 a3 54 4c 99 26
0f 50 54 00 00 00 01 01 01 01 01 01 01 01 01 01
01 01 01 01 01 01 23 8d 80 74 c0 08 10 70 30 20
25 00 25 a5 10 00 00 19 00 00 00 0f 00 00 00 00
00 00 00 00 00 37 82 05 46 00 00 00 00 fe 00 53
41 4d 53 55 4e 47 0a 20 4c 83 59 4c 00 00 00 fe
00 31 33 33 59 4c 30 32 2d 43 30 32 0a 20 00 41

----------------

Block 0, Base EDID:
  EDID Structure Version & Revision: 1.4
  Vendor & Product Identification:
    Manufacturer: SDC
    Model: 22602
    Made in: 2015
  Basic Display Parameters & Features:
    Digital display
    Bits per primary color channel: 8
    DisplayPort interface
    Maximum image size: 29 cm x 17 cm
    Gamma: 2.20
    DPMS levels: Standby Suspend Off
    Supported color formats: RGB 4:4:4, YCrCb 4:4:4
    First detailed timing includes the native pixel format and preferred refresh rate
  Color Characteristics:
    Red  : 0.6396, 0.3300
    Green: 0.2998, 0.5996
    Blue : 0.1503, 0.0595
    White: 0.3134, 0.3291
  Established Timings I & II: none
  Standard Timings: none
  Detailed Timing Descriptors:
    DTD 1:  3200x1800   59.999774 Hz  16:9    108.960 kHz    361.310000 MHz (293 mm x 165 mm)
                 Hfront   48 Hsync  32 Hback   36 Hpol N
                 Vfront    2 Vsync   5 Vback    9 Vpol N
    Manufacturer-Specified Display Descriptor (0x0f): 00 0f 00 00 00 00 00 00 00 00 00 37 82 05 46 00 '...........7..F.'
    Alphanumeric Data String: 'SAMSUNG'
    Alphanumeric Data String: '133YL02-C02'
Checksum: 0x41

----------------

Block 1, Unknown EDID Extension Block 0x00:
  00 ff ff ff ff ff ff 00 4c 83 4a 58 00 00 00 00 '........L.JX....'
  00 19 01 04 a5 1d 11 78 ea ee 95 a3 54 4c 99 26 '.......x....TL.&'
  0f 50 54 00 00 00 01 01 01 01 01 01 01 01 01 01 '.PT.............'
  01 01 01 01 01 01 23 8d 80 74 c0 08 10 70 30 20 '......#..t...p0 '
  25 00 25 a5 10 00 00 19 00 00 00 0f 00 00 00 00 '%.%.............'
  00 00 00 00 00 37 82 05 46 00 00 00 00 fe 00 53 '.....7..F......S'
  41 4d 53 55 4e 47 0a 20 4c 83 59 4c 00 00 00 fe 'AMSUNG. L.YL....'
  00 31 33 33 59 4c 30 32 2d 43 30 32 0a 20 00 41 '.133YL02-C02. .A'
Checksum: 0x41

----------------

Warnings:

Block 0, Base EDID:
  Missing Display Product Name.

Failures:

Block 0, Base EDID:
  Alphanumeric Data String: Non-space after newline.
Block 1, Base EDID:
  Unknown Extension Block.
EDID:
  Base EDID: EDID specified 0 extension block(s), but found 1 extension block(s).

EDID conformity: FAIL
