edid-decode (hex):

00 ff ff ff ff ff ff 00 09 e5 f4 03 00 00 00 00
13 1c 01 04 a5 1f 11 78 02 3f 62 94 5e 56 94 28
21 4f 58 00 00 00 01 01 01 01 01 01 01 01 01 01
01 01 01 01 01 01 c8 36 80 cc 70 38 14 40 30 20
36 00 35 ae 10 00 00 1a 86 24 80 cc 70 38 14 40
64 64 44 05 35 ad 10 00 00 1a 00 00 00 fe 00 53
54 41 52 52 59 0a 20 20 20 20 20 20 00 00 00 fe
00 4e 56 31 34 30 46 48 44 2d 4e 34 33 0a 00 97

00 ff ff ff ff ff ff 00 09 e5 f4 03 00 00 00 00
13 1c 01 04 a5 1f 11 78 02 3f 62 94 5e 56 94 28
21 4f 58 00 00 00 01 01 01 01 01 01 01 01 01 01
01 01 01 01 01 01 c8 36 80 cc 70 38 14 40 30 20
36 00 35 ae 10 00 00 1a 86 24 80 cc 70 38 14 40
64 64 44 05 35 ad 10 00 00 1a 00 00 00 fe 00 53
54 41 52 52 59 0a 20 20 20 20 20 20 00 00 00 fe
00 4e 56 31 34 30 46 48 44 2d 4e 34 33 0a 00 97

----------------

Block 0, Base EDID:
  EDID Structure Version & Revision: 1.4
  Vendor & Product Identification:
    Manufacturer: BOE
    Model: 1012
    Made in: week 19 of 2018
  Basic Display Parameters & Features:
    Digital display
    Bits per primary color channel: 8
    DisplayPort interface
    Maximum image size: 31 cm x 17 cm
    Gamma: 2.20
    Supported color formats: RGB 4:4:4
    First detailed timing includes the native pixel format and preferred refresh rate
  Color Characteristics:
    Red  : 0.5781, 0.3701
    Green: 0.3388, 0.5810
    Blue : 0.1572, 0.1308
    White: 0.3085, 0.3457
  Established Timings I & II: none
  Standard Timings: none
  Detailed Timing Descriptors:
    DTD 1:  1920x1080   60.023968 Hz  16:9     66.026 kHz    140.240000 MHz (309 mm x 174 mm)
                 Hfront   48 Hsync  32 Hback  124 Hpol P
                 Vfront    3 Vsync   6 Vback   11 Vpol N
    DTD 2:  1920x1080   40.018832 Hz  16:9     44.021 kHz     93.500000 MHz (309 mm x 173 mm)
                 Hfront  100 Hsync 100 Hback    4 Hpol P
                 Vfront   20 Vsync  20 Vback  -20 Vpol N
    Alphanumeric Data String: 'STARRY'
    Alphanumeric Data String: 'NV140FHD-N43'
Checksum: 0x97

----------------

Block 1, Unknown EDID Extension Block 0x00:
  00 ff ff ff ff ff ff 00 09 e5 f4 03 00 00 00 00 '................'
  13 1c 01 04 a5 1f 11 78 02 3f 62 94 5e 56 94 28 '.......x.?b.^V.('
  21 4f 58 00 00 00 01 01 01 01 01 01 01 01 01 01 '!OX.............'
  01 01 01 01 01 01 c8 36 80 cc 70 38 14 40 30 20 '.......6..p8.@0 '
  36 00 35 ae 10 00 00 1a 86 24 80 cc 70 38 14 40 '6.5......$..p8.@'
  64 64 44 05 35 ad 10 00 00 1a 00 00 00 fe 00 53 'ddD.5..........S'
  54 41 52 52 59 0a 20 20 20 20 20 20 00 00 00 fe 'TARRY.      ....'
  00 4e 56 31 34 30 46 48 44 2d 4e 34 33 0a 00 97 '.NV140FHD-N43...'
Checksum: 0x97

----------------

Warnings:

Block 0, Base EDID:
  Missing Display Product Name.

Failures:

Block 0, Base EDID:
  Detailed Timing Descriptor #2: 0 or negative vertical back porch.
Block 1, Base EDID:
  Unknown Extension Block.
EDID:
  Base EDID: EDID specified 0 extension block(s), but found 1 extension block(s).

EDID conformity: FAIL
