edid-decode (hex):

00 ff ff ff ff ff ff 00 4c a3 59 36 00 00 00 00
00 16 01 04 90 22 13 78 0a 85 95 99 57 4f 8f 26
21 50 54 00 00 00 01 01 01 01 01 01 01 01 01 01
01 01 01 01 01 01 64 32 40 64 62 84 48 30 a0 60
35 00 58 c2 10 00 00 19 98 21 40 64 62 84 48 30
a0 60 35 00 58 c2 10 00 00 19 00 00 00 00 00 00
00 00 00 00 00 00 00 00 00 00 00 00 00 00 00 02
00 0c 4c ff 0a 3c 64 20 1d 36 64 00 00 00 00 26

----------------

Block 0, Base EDID:
  EDID Structure Version & Revision: 1.4
  Vendor & Product Identification:
    Manufacturer: SEC
    Model: 13913
    Made in: 2012
  Basic Display Parameters & Features:
    Digital display
    Bits per primary color channel: 6
    Digital interface is not defined
    Maximum image size: 34 cm x 19 cm
    Gamma: 2.20
    Supported color formats: RGB 4:4:4, YCrCb 4:4:4
    First detailed timing includes the native pixel format and preferred refresh rate
  Color Characteristics:
    Red  : 0.5996, 0.3398
    Green: 0.3095, 0.5595
    Blue : 0.1503, 0.1298
    White: 0.3134, 0.3291
  Established Timings I & II: none
  Standard Timings: none
  Detailed Timing Descriptors:
    DTD 1:  1600x900    59.998 Hz  16:9    58.318 kHz 129.000 MHz (344 mm x 194 mm)
                 Hfront  160 Hsync  96 Hback 356 Hpol N
                 Vfront    3 Vsync   5 Vback  64 Vpol N
    DTD 2:  1600x900    39.999 Hz  16:9    38.879 kHz  86.000 MHz (344 mm x 194 mm)
                 Hfront  160 Hsync  96 Hback 356 Hpol N
                 Vfront    3 Vsync   5 Vback  64 Vpol N
    Empty Descriptor
    Manufacturer-Specified Display Descriptor (0x02): 00 02 00 0c 4c ff 0a 3c 64 20 1d 36 64 00 00 00 '....L..<d .6d...'
Checksum: 0x26
