edid-decode (hex):

00 ff ff ff ff ff ff 00 30 ae 96 8a 00 00 00 00
2a 1e 01 04 a5 22 16 78 03 9d 25 a5 55 4b 9b 25
0f 50 54 00 00 00 01 01 01 01 01 01 01 01 01 01
01 01 01 01 01 01 62 6b 00 c8 a0 40 3c 60 30 20
36 00 59 d7 10 00 00 1a 00 00 00 fd 00 28 3c 64
64 1c 01 0a 20 20 20 20 20 20 00 00 00 fe 00 42
4f 45 20 43 51 0a 20 20 20 20 20 20 00 00 00 fe
00 4e 45 31 36 30 51 44 4d 2d 4e 36 33 0a 00 8e

00 ff ff ff ff ff ff 00 30 ae 96 8a 00 00 00 00
2a 1e 01 04 a5 22 16 78 03 9d 25 a5 55 4b 9b 25
0f 50 54 00 00 00 01 01 01 01 01 01 01 01 01 01
01 01 01 01 01 01 62 6b 00 c8 a0 40 3c 60 30 20
36 00 59 d7 10 00 00 1a 00 00 00 fd 00 28 3c 64
64 1c 01 0a 20 20 20 20 20 20 00 00 00 fe 00 42
4f 45 20 43 51 0a 20 20 20 20 20 20 00 00 00 fe
00 4e 45 31 36 30 51 44 4d 2d 4e 36 33 0a 00 8e

----------------

Block 0, Base EDID:
  EDID Structure Version & Revision: 1.4
  Vendor & Product Identification:
    Manufacturer: LEN
    Model: 35478
    Made in: week 42 of 2020
  Basic Display Parameters & Features:
    Digital display
    Bits per primary color channel: 8
    DisplayPort interface
    Maximum image size: 34 cm x 22 cm
    Gamma: 2.20
    Supported color formats: RGB 4:4:4
    First detailed timing includes the native pixel format and preferred refresh rate
    Display is continuous frequency
  Color Characteristics:
    Red  : 0.6464, 0.3330
    Green: 0.2958, 0.6064
    Blue : 0.1445, 0.0605
    White: 0.3134, 0.3291
  Established Timings I & II: none
  Standard Timings: none
  Detailed Timing Descriptors:
    DTD 1:  2560x1600   60.000873 Hz  16:10    99.601 kHz    274.900000 MHz (345 mm x 215 mm)
                 Hfront   48 Hsync  32 Hback  120 Hpol P
                 Vfront    3 Vsync   6 Vback   51 Vpol N
    Display Range Limits:
      Monitor ranges (Bare Limits): 40-60 Hz V, 100-100 kHz H, max dotclock 280 MHz
    Alphanumeric Data String: 'BOE CQ'
    Alphanumeric Data String: 'NE160QDM-N63'
Checksum: 0x8e

----------------

Block 1, Unknown EDID Extension Block 0x00:
  00 ff ff ff ff ff ff 00 30 ae 96 8a 00 00 00 00 '........0.......'
  2a 1e 01 04 a5 22 16 78 03 9d 25 a5 55 4b 9b 25 '*....".x..%.UK.%'
  0f 50 54 00 00 00 01 01 01 01 01 01 01 01 01 01 '.PT.............'
  01 01 01 01 01 01 62 6b 00 c8 a0 40 3c 60 30 20 '......bk...@<`0 '
  36 00 59 d7 10 00 00 1a 00 00 00 fd 00 28 3c 64 '6.Y..........(<d'
  64 1c 01 0a 20 20 20 20 20 20 00 00 00 fe 00 42 'd...      .....B'
  4f 45 20 43 51 0a 20 20 20 20 20 20 00 00 00 fe 'OE CQ.      ....'
  00 4e 45 31 36 30 51 44 4d 2d 4e 36 33 0a 00 8e '.NE160QDM-N63...'
Checksum: 0x8e

----------------

Warnings:

Block 0, Base EDID:
  Missing Display Product Name.

Failures:

Block 1, Base EDID:
  Unknown Extension Block.
EDID:
  Base EDID: EDID specified 0 extension block(s), but found 1 extension block(s).

EDID conformity: FAIL
