
EDID (hex):
00ffffffffffff0030ae000000000000
0916010380291a782acbd5a655519125
175054a98d00818081c08140714f9040
9500010101019a29a0d0518422305098
360098ff1000001e000000fd00374b18
470e000a202020202020000000ff0037
34394243334b413030303231000000fc
004c454e2d4d36322d450a202020007b

Extracted contents:
header:          00 ff ff ff ff ff ff 00
serial number:   30 ae 00 00 00 00 00 00 09 16
version:         01 03
basic params:    80 29 1a 78 2a
chroma info:     cb d5 a6 55 51 91 25 17 50 54
established:     a9 8d 00
standard:        81 80 81 c0 81 40 71 4f 90 40 95 00 01 01 01 01
descriptor 1:    9a 29 a0 d0 51 84 22 30 50 98 36 00 98 ff 10 00 00 1e
descriptor 2:    00 00 00 fd 00 37 4b 18 47 0e 00 0a 20 20 20 20 20 20
descriptor 3:    00 00 00 ff 00 37 34 39 42 43 33 4b 41 30 30 30 32 31
descriptor 4:    00 00 00 fc 00 4c 45 4e 2d 4d 36 32 2d 45 0a 20 20 20
extensions:      00
checksum:        7b

EDID version: 1.3
Manufacturer: LEN Model 0 Serial Number --
Made in week 9 of 2012
Digital display
Maximum image size: 41 cm x 26 cm
Gamma: 2.20
DPMS levels: Off
RGB color display
First detailed timing is preferred timing
Display x,y Chromaticity:
  Red:   0.6513, 0.3320
  Green: 0.3183, 0.5693
  Blue:  0.1474, 0.0908
  White: 0.3134, 0.3291
Established timings supported:
  720x400@70Hz 9:5 HorFreq: 31469 Hz Clock: 28.320 MHz
  640x480@60Hz 4:3 HorFreq: 31469 Hz Clock: 25.175 MHz
  640x480@72Hz 4:3 HorFreq: 37900 Hz Clock: 31.500 MHz
  800x600@60Hz 4:3 HorFreq: 37900 Hz Clock: 40.000 MHz
  800x600@72Hz 4:3 HorFreq: 48100 Hz Clock: 50.000 MHz
  1024x768@60Hz 4:3 HorFreq: 48400 Hz Clock: 65.000 MHz
  1024x768@70Hz 4:3 HorFreq: 56500 Hz Clock: 75.000 MHz
  1280x1024@75Hz 5:4 HorFreq: 80000 Hz Clock: 135.000 MHz
Standard timings supported:
  1280x1024@60Hz 5:4 HorFreq: 64000 Hz Clock: 108.000 MHz
  1280x720@60Hz 16:9
  1280x960@60Hz 4:3 HorFreq: 60000 Hz Clock: 108.000 MHz
  1152x864@75Hz 4:3 HorFreq: 67500 Hz Clock: 108.000 MHz
  1400x1050@60Hz 4:3 HorFreq: 64700 Hz Clock: 101.000 MHz
  1440x900@60Hz 16:10 HorFreq: 55500 Hz Clock: 88.750 MHz
Detailed mode: Clock 106.500 MHz, 408 mm x 255 mm
               1440 1520 1672 1904 hborder 0
                900  903  909  934 vborder 0
               +hsync +vsync 
               VertFreq: 59 Hz, HorFreq: 55934 Hz
Monitor ranges (GTF): 55-75Hz V, 24-71kHz H, max dotclock 140MHz
Serial number: --
Monitor name: LEN-M62-E
Checksum: 0x7b (valid)
One or more of the timings is out of range of the Monitor Ranges:
  Vertical Freq: 59 - 75 Hz
  Horizontal Freq: 31469 - 80000 Hz
  Maximum Clock: 135.000 MHz
