edid-decode (hex):

00 ff ff ff ff ff ff 00 63 18 00 00 00 00 00 00
1a 16 01 03 60 22 17 78 ae 37 25 9e 58 4a 97 26
19 50 54 a7 ce 00 45 40 45 4f 01 01 01 01 01 01
01 01 01 01 01 01 c3 1e 00 20 41 00 20 30 10 60
13 00 00 00 00 00 00 1e 64 19 00 40 41 00 26 30
18 88 36 00 00 00 00 00 00 18 00 00 00 fd 00 38
4b 1e 4e 08 00 0a 20 20 20 20 20 20 00 00 00 fc
00 31 35 22 20 4d 6f 6e 69 74 6f 72 0a 20 00 ff

00 ff ff ff ff ff ff 00 63 18 00 00 00 00 00 00
1a 16 01 03 60 22 17 78 ae 37 25 9e 58 4a 97 26
19 50 54 a7 ce 00 45 40 45 4f 01 01 01 01 01 01
01 01 01 01 01 01 c3 1e 00 20 41 00 20 30 10 60
13 00 00 00 00 00 00 1e 64 19 00 40 41 00 26 30
18 88 36 00 00 00 00 00 00 18 00 00 00 fd 00 38
4b 1e 4e 08 00 0a 20 20 20 20 20 20 00 00 00 fc
00 31 35 22 20 4d 6f 6e 69 74 6f 72 0a 20 00 ff

----------------

Block 0, Base EDID:
  EDID Structure Version & Revision: 1.3
  Vendor & Product Identification:
    Manufacturer: XXX
    Model: 0
    Made in: week 26 of 2012
  Basic Display Parameters & Features:
    Analog display
    Signal Level Standard: 0.700 : 0.000 : 0.700 V p-p
    Blank level equals black level
    Maximum image size: 34 cm x 23 cm
    Gamma: 2.20
    DPMS levels: Standby Off
    RGB color display
    Default (sRGB) color space is primary color space
    First detailed timing is the preferred timing
  Color Characteristics:
    Red  : 0.6171, 0.3466
    Green: 0.2900, 0.5927
    Blue : 0.1484, 0.0996
    White: 0.3134, 0.3291
  Established Timings I & II:
    IBM     :   720x400    70.081663 Hz   9:5     31.467 kHz     28.320000 MHz
    DMT 0x04:   640x480    59.940476 Hz   4:3     31.469 kHz     25.175000 MHz
    DMT 0x06:   640x480    75.000000 Hz   4:3     37.500 kHz     31.500000 MHz
    DMT 0x08:   800x600    56.250000 Hz   4:3     35.156 kHz     36.000000 MHz
    DMT 0x09:   800x600    60.316541 Hz   4:3     37.879 kHz     40.000000 MHz
    DMT 0x0a:   800x600    72.187572 Hz   4:3     48.077 kHz     50.000000 MHz
    DMT 0x0b:   800x600    75.000000 Hz   4:3     46.875 kHz     49.500000 MHz
    DMT 0x10:  1024x768    60.003840 Hz   4:3     48.363 kHz     65.000000 MHz
    DMT 0x11:  1024x768    70.069359 Hz   4:3     56.476 kHz     75.000000 MHz
    DMT 0x12:  1024x768    75.028582 Hz   4:3     60.023 kHz     78.750000 MHz
  Standard Timings:
    DMT 0x09:   800x600    60.316541 Hz   4:3     37.879 kHz     40.000000 MHz
    DMT 0x0b:   800x600    75.000000 Hz   4:3     46.875 kHz     49.500000 MHz
  Detailed Timing Descriptors:
    DTD 1:  1024x768    75.028582 Hz   4:3     60.023 kHz     78.750000 MHz
                 Hfront   16 Hsync  96 Hback  176 Hpol P
                 Vfront    1 Vsync   3 Vback   28 Vpol P
    DTD 2:  1024x768    60.003840 Hz   4:3     48.363 kHz     65.000000 MHz
                 Hfront   24 Hsync 136 Hback  160 Hpol N
                 Vfront    3 Vsync   6 Vback   29 Vpol N
    Display Range Limits:
      Monitor ranges (GTF): 56-75 Hz V, 30-78 kHz H, max dotclock 80 MHz
    Display Product Name: '15" Monitor'
Checksum: 0xff

----------------

Block 1, Unknown EDID Extension Block 0x00:
  00 ff ff ff ff ff ff 00 63 18 00 00 00 00 00 00 '........c.......'
  1a 16 01 03 60 22 17 78 ae 37 25 9e 58 4a 97 26 '....`".x.7%.XJ.&'
  19 50 54 a7 ce 00 45 40 45 4f 01 01 01 01 01 01 '.PT...E@EO......'
  01 01 01 01 01 01 c3 1e 00 20 41 00 20 30 10 60 '......... A. 0.`'
  13 00 00 00 00 00 00 1e 64 19 00 40 41 00 26 30 '........d..@A.&0'
  18 88 36 00 00 00 00 00 00 18 00 00 00 fd 00 38 '..6............8'
  4b 1e 4e 08 00 0a 20 20 20 20 20 20 00 00 00 fc 'K.N...      ....'
  00 31 35 22 20 4d 6f 6e 69 74 6f 72 0a 20 00 ff '.15" Monitor. ..'
Checksum: 0xff

----------------

Failures:

Block 0, Base EDID:
  Basic Display Parameters & Features: sRGB is signaled, but the chromaticities do not match.
  Detailed Timing Descriptor #1: Mismatch of image size vs display size: image size is not set, but display size is.
  Detailed Timing Descriptor #2: Mismatch of image size vs display size: image size is not set, but display size is.
Block 1, Base EDID:
  Unknown Extension Block.
EDID:
  Base EDID: EDID specified 0 extension block(s), but found 1 extension block(s).

EDID conformity: FAIL
