edid-decode (hex):

00 ff ff ff ff ff ff 00 0d ae b9 15 00 00 00 00
1d 16 01 03 80 22 13 78 0a 46 35 9e 57 57 94 27
14 50 54 00 00 00 01 01 01 01 01 01 01 01 01 01
01 01 01 01 01 01 96 3b 80 32 71 38 3e 40 5a 3c
69 00 58 c2 10 00 00 18 00 00 00 fe 00 4e 31 35
36 48 47 45 2d 4c 41 31 0a 20 00 00 00 fe 00 43
4d 4e 0a 20 20 20 20 20 20 20 20 20 00 00 00 fe
00 4e 31 35 36 48 47 45 2d 4c 41 31 0a 20 00 32

----------------

Block 0, Base EDID:
  EDID Structure Version & Revision: 1.3
  Vendor & Product Identification:
    Manufacturer: CMN
    Model: 5561
    Made in: week 29 of 2012
  Basic Display Parameters & Features:
    Digital display
    Maximum image size: 34 cm x 19 cm
    Gamma: 2.20
    RGB color display
    First detailed timing is preferred timing
  Color Characteristics:
    Red  : 0.6181, 0.3398
    Green: 0.3408, 0.5800
    Blue : 0.1523, 0.0810
    White: 0.3134, 0.3291
  Established Timings I & II: none
  Standard Timings: none
  Detailed Timing Descriptors:
    DTD 1:  1920x1080   60.006 Hz  16:9    68.527 kHz 152.540 MHz (344 mm x 194 mm)
                 Hfront   90 Hsync  60 Hback 156 Hpol N
                 Vfront    6 Vsync   9 Vback  47 Vpol N
    Alphanumeric Data String: 'N156HGE-LA1'
    Alphanumeric Data String: 'CMN'
    Alphanumeric Data String: 'N156HGE-LA1'
Checksum: 0x32
