
EDID (hex):
00ffffffffffff00593a710001010101
091401031c4627782a422fa354459926
0f4a4ca54e0001010101010101010101
010101010101662150b051001b304070
3600b9882100001e6419004041002630
18883600b98821000018000000fc0045
33323056410a202020202020000000fd
00384b1f500f000a2020202020200072

Extracted contents:
header:          00 ff ff ff ff ff ff 00
serial number:   59 3a 71 00 01 01 01 01 09 14
version:         01 03
basic params:    1c 46 27 78 2a
chroma info:     42 2f a3 54 45 99 26 0f 4a 4c
established:     a5 4e 00
standard:        01 01 01 01 01 01 01 01 01 01 01 01 01 01 01 01
descriptor 1:    66 21 50 b0 51 00 1b 30 40 70 36 00 b9 88 21 00 00 1e
descriptor 2:    64 19 00 40 41 00 26 30 18 88 36 00 b9 88 21 00 00 18
descriptor 3:    00 00 00 fc 00 45 33 32 30 56 41 0a 20 20 20 20 20 20
descriptor 4:    00 00 00 fd 00 38 4b 1f 50 0f 00 0a 20 20 20 20 20 20
extensions:      00
checksum:        72

EDID version: 1.3
Manufacturer: VIZ Model 71 Serial Number --
Made in week 9 of 2010
Analog display, Input voltage level: 0.7/0.3 V
Configurable signal levels
Sync: Separate Composite 
Maximum image size: 70 cm x 39 cm
Gamma: 2.20
DPMS levels: Off
RGB color display
First detailed timing is preferred timing
Display x,y Chromaticity:
  Red:   0.6376, 0.3281
  Green: 0.2695, 0.5996
  Blue:  0.1484, 0.0605
  White: 0.2919, 0.2998
Established timings supported:
  720x400@70Hz 9:5 HorFreq: 31469 Hz Clock: 28.320 MHz
  640x480@60Hz 4:3 HorFreq: 31469 Hz Clock: 25.175 MHz
  640x480@75Hz 4:3 HorFreq: 37500 Hz Clock: 31.500 MHz
  800x600@60Hz 4:3 HorFreq: 37900 Hz Clock: 40.000 MHz
  800x600@75Hz 4:3 HorFreq: 46900 Hz Clock: 49.500 MHz
  1024x768@60Hz 4:3 HorFreq: 48400 Hz Clock: 65.000 MHz
  1024x768@70Hz 4:3 HorFreq: 56500 Hz Clock: 75.000 MHz
  1024x768@75Hz 4:3 HorFreq: 60000 Hz Clock: 78.750 MHz
Standard timings supported:
Detailed mode: Clock 85.500 MHz, 697 mm x 392 mm
               1360 1424 1536 1792 hborder 0
                768  771  777  795 vborder 0
               +hsync +vsync 
               VertFreq: 60 Hz, HorFreq: 47712 Hz
Detailed mode: Clock 65.000 MHz, 697 mm x 392 mm
               1024 1048 1184 1344 hborder 0
                768  771  777  806 vborder 0
               -hsync -vsync 
               VertFreq: 60 Hz, HorFreq: 48363 Hz
Monitor name: E320VA
Monitor ranges (GTF): 56-75Hz V, 31-80kHz H, max dotclock 150MHz
Checksum: 0x72 (valid)
