edid-decode (hex):

00 ff ff ff ff ff ff 00 4c 83 49 43 00 00 00 00
00 19 01 04 a5 1c 10 78 0a ab f5 99 59 54 90 27
1e 50 54 00 00 00 01 01 01 01 01 01 01 01 01 01
01 01 01 01 01 01 62 39 80 dc 70 38 40 40 30 20
25 00 14 9b 10 00 00 19 f0 2d 80 dc 70 38 40 40
30 20 25 00 14 9b 10 00 00 19 00 00 00 00 00 00
00 00 00 00 00 00 00 00 00 00 00 00 00 00 00 02
00 0c 33 c8 0a 3c 96 14 28 20 96 00 00 00 00 9a

----------------

Block 0, Base EDID:
  EDID Structure Version & Revision: 1.4
  Vendor & Product Identification:
    Manufacturer: SDC
    Model: 17225
    Made in: 2015
  Basic Display Parameters & Features:
    Digital display
    Bits per primary color channel: 8
    DisplayPort interface
    Maximum image size: 28 cm x 16 cm
    Gamma: 2.20
    Supported color formats: RGB 4:4:4, YCrCb 4:4:4
    First detailed timing includes the native pixel format and preferred refresh rate
  Color Characteristics:
    Red  : 0.5996, 0.3496
    Green: 0.3300, 0.5654
    Blue : 0.1552, 0.1201
    White: 0.3134, 0.3291
  Established Timings I & II: none
  Standard Timings: none
  Detailed Timing Descriptors:
    DTD 1:  1920x1080   60.004248 Hz  16:9     68.645 kHz    146.900000 MHz (276 mm x 155 mm)
                 Hfront   48 Hsync  32 Hback  140 Hpol N
                 Vfront    2 Vsync   5 Vback   57 Vpol N
    DTD 2:  1920x1080   48.036076 Hz  16:9     54.953 kHz    117.600000 MHz (276 mm x 155 mm)
                 Hfront   48 Hsync  32 Hback  140 Hpol N
                 Vfront    2 Vsync   5 Vback   57 Vpol N
    Empty Descriptor
    Manufacturer-Specified Display Descriptor (0x02): 00 02 00 0c 33 c8 0a 3c 96 14 28 20 96 00 00 00 '....3..<..( ....'
Checksum: 0x9a

----------------

Warnings:

Block 0, Base EDID:
  Missing Display Product Name.

Failures:

Block 0, Base EDID:
  Empty Descriptor: Use Dummy Descriptor instead of all zeroes.

EDID conformity: FAIL
