
EDID (hex):
00ffffffffffff001e6d884afbe70300
060f01030e241bbfe89ad9a1544b9924
12484cffff10d14ae1406159818f8199
a94fa959714fa759403062b0324040c0
13005e061100001e0000000000000000
00000000000000000000000000fd0032
a01e6f1f000a202020202020000000fc
0046393230500a2020202020202000c3

Extracted contents:
header:          00 ff ff ff ff ff ff 00
serial number:   1e 6d 88 4a fb e7 03 00 06 0f
version:         01 03
basic params:    0e 24 1b bf e8
chroma info:     9a d9 a1 54 4b 99 24 12 48 4c
established:     ff ff 10
standard:        d1 4a e1 40 61 59 81 8f 81 99 a9 4f a9 59 71 4f
descriptor 1:    a7 59 40 30 62 b0 32 40 40 c0 13 00 5e 06 11 00 00 1e
descriptor 2:    00 00 00 00 00 00 00 00 00 00 00 00 00 00 00 00 00 00
descriptor 3:    00 00 00 fd 00 32 a0 1e 6f 1f 00 0a 20 20 20 20 20 20
descriptor 4:    00 00 00 fc 00 46 39 32 30 50 0a 20 20 20 20 20 20 20
extensions:      00
checksum:        c3

EDID version: 1.3
Manufacturer: GSM Model 4a88 Serial Number --
Analog display, Input voltage level: 0.7/0.3 V
Sync: Separate Composite SyncOnGreen 
Maximum image size: 36 cm x 27 cm
Gamma: 2.91
DPMS levels: Standby Suspend Off
RGB color display
Display x,y Chromaticity:
  Red:   0.6308, 0.3291
  Green: 0.2949, 0.5996
  Blue:  0.1435, 0.0712
  White: 0.2832, 0.2978
Established timings supported:
  720x400@70Hz 9:5 HorFreq: 31469 Hz Clock: 28.320 MHz
  720x400@88Hz 9:5 HorFreq: 39500 Hz Clock: 35.500 MHz
  640x480@60Hz 4:3 HorFreq: 31469 Hz Clock: 25.175 MHz
  640x480@67Hz 4:3 HorFreq: 35000 Hz Clock: 30.240 MHz
  640x480@72Hz 4:3 HorFreq: 37900 Hz Clock: 31.500 MHz
  640x480@75Hz 4:3 HorFreq: 37500 Hz Clock: 31.500 MHz
  800x600@56Hz 4:3 HorFreq: 35200 Hz Clock: 36.000 MHz
  800x600@60Hz 4:3 HorFreq: 37900 Hz Clock: 40.000 MHz
  800x600@72Hz 4:3 HorFreq: 48100 Hz Clock: 50.000 MHz
  800x600@75Hz 4:3 HorFreq: 46900 Hz Clock: 49.500 MHz
  832x624@75Hz 4:3 HorFreq: 49726 Hz Clock: 57.284 MHz
  1280x768i@87Hz 5:3 HorFreq: 35522 Hz Clock: 44.900 MHz
  1024x768@60Hz 4:3 HorFreq: 48400 Hz Clock: 65.000 MHz
  1024x768@70Hz 4:3 HorFreq: 56500 Hz Clock: 75.000 MHz
  1024x768@75Hz 4:3 HorFreq: 60000 Hz Clock: 78.750 MHz
  1280x1024@75Hz 5:4 HorFreq: 80000 Hz Clock: 135.000 MHz
Standard timings supported:
  1920x1440@70Hz 4:3
  2048x1536@60Hz 4:3
  1024x768@85Hz 4:3 HorFreq: 68700 Hz Clock: 94.500 MHz
  1280x1024@75Hz 5:4 HorFreq: 80000 Hz Clock: 135.000 MHz
  1280x1024@85Hz 5:4 HorFreq: 91100 Hz Clock: 157.500 MHz
  1600x1200@75Hz 4:3 HorFreq: 93800 Hz Clock: 202.500 MHz
  1600x1200@85Hz 4:3 HorFreq: 106300 Hz Clock: 229.500 MHz
  1152x864@75Hz 4:3 HorFreq: 67500 Hz Clock: 108.000 MHz
Detailed mode: Clock 229.510 MHz, 350 mm x 262 mm
               1600 1664 1856 2160 hborder 0
               1200 1201 1204 1250 vborder 0
               +hsync +vsync 
               VertFreq: 85 Hz, HorFreq: 106254 Hz
Manufacturer-specified data, tag 0
Monitor ranges (GTF): 50-160Hz V, 30-111kHz H, max dotclock 310MHz
Monitor name: F920P
Checksum: 0xc3 (valid)
EDID block does NOT conform to EDID 1.3!
	Missing preferred timing
EDID block does not conform at all!
	Bad year of manufacture
