
EDID (hex):
00ffffffffffff0009e5080800000000
011c0104952213780a24109759548e27
1e505400000001010101010101010101
010101010101641b5677500013303020
360058c21000001aa21756b950002d30
3020360058c21000001a000000fe0039
43563335804e5431354e343200000000
00004101940010000009010a20200005

Extracted contents:
header:          00 ff ff ff ff ff ff 00
serial number:   09 e5 08 08 00 00 00 00 01 1c
version:         01 04
basic params:    95 22 13 78 0a
chroma info:     24 10 97 59 54 8e 27 1e 50 54
established:     00 00 00
standard:        01 01 01 01 01 01 01 01 01 01 01 01 01 01 01 01
descriptor 1:    64 1b 56 77 50 00 13 30 30 20 36 00 58 c2 10 00 00 1a
descriptor 2:    a2 17 56 b9 50 00 2d 30 30 20 36 00 58 c2 10 00 00 1a
descriptor 3:    00 00 00 fe 00 39 43 56 33 35 80 4e 54 31 35 4e 34 32
descriptor 4:    00 00 00 00 00 00 41 01 94 00 10 00 00 09 01 0a 20 20
extensions:      00
checksum:        05

EDID version: 1.4
Manufacturer: BOE Model 808 Serial Number --
Made in week 1 of 2018
Digital display
6 bits per primary color channel
DisplayPort interface
Maximum image size: 34 cm x 19 cm
Gamma: 2.20
Supported color formats: RGB 4:4:4, YCrCb 4:4:4
First detailed timing includes the native pixel format and preferred refresh rate
Display x,y Chromaticity:
  Red:   0.5898, 0.3496
  Green: 0.3291, 0.5546
  Blue:  0.1523, 0.1181
  White: 0.3125, 0.3281
Established timings supported:
Standard timings supported:
Detailed mode: Clock 70.120 MHz, 344 mm x 194 mm
               1366 1414 1446 1485 hborder 0
                768  771  777  787 vborder 0
               +hsync -vsync 
               VertFreq: 59 Hz, HorFreq: 47218 Hz
Detailed mode: Clock 60.500 MHz, 344 mm x 194 mm
               1366 1414 1446 1551 hborder 0
                768  771  777  813 vborder 0
               +hsync -vsync 
               VertFreq: 47 Hz, HorFreq: 39007 Hz
ASCII string: 9CV35
Manufacturer-specified data, tag 0
Checksum: 0x5 (valid)
EDID block does NOT conform to EDID 1.4!
	Missing name descriptor
	Missing monitor ranges
	Detailed block string not properly terminated
