edid-decode (hex):

00 ff ff ff ff ff ff 00 06 af 3c 10 00 00 00 00
00 16 01 04 90 1f 11 78 02 10 b5 97 58 57 92 26
1e 50 54 00 00 00 01 01 01 01 01 01 01 01 01 01
01 01 01 01 01 01 ce 1d 56 d2 50 00 26 30 10 10
3e 00 35 ad 10 00 00 18 df 13 56 d2 50 00 26 30
10 10 3e 00 35 ad 10 00 00 18 00 00 00 00 00 00
00 00 00 00 00 00 00 00 00 00 00 00 00 00 00 02
00 0c 39 cc 0d 3c 64 0f 0c 1b 6f 20 20 20 00 0d

----------------

Block 0, Base EDID:
  EDID Structure Version & Revision: 1.4
  Vendor & Product Identification:
    Manufacturer: AUO
    Model: 4156
    Made in: 2012
  Basic Display Parameters & Features:
    Digital display
    Bits per primary color channel: 6
    Digital interface is not defined
    Maximum image size: 31 cm x 17 cm
    Gamma: 2.20
    Supported color formats: RGB 4:4:4
    First detailed timing includes the native pixel format and preferred refresh rate
  Color Characteristics:
    Red  : 0.5898, 0.3447
    Green: 0.3398, 0.5703
    Blue : 0.1503, 0.1201
    White: 0.3134, 0.3291
  Established Timings I & II: none
  Standard Timings: none
  Detailed Timing Descriptors:
    DTD 1:  1366x768    60.066632 Hz 683:384   48.414 kHz     76.300000 MHz (309 mm x 173 mm)
                 Hfront   16 Hsync  16 Hback  178 Hpol N
                 Vfront    3 Vsync  14 Vback   21 Vpol N
    DTD 2:  1366x768    40.047046 Hz 683:384   32.278 kHz     50.870000 MHz (309 mm x 173 mm)
                 Hfront   16 Hsync  16 Hback  178 Hpol N
                 Vfront    3 Vsync  14 Vback   21 Vpol N
    Empty Descriptor
    Manufacturer-Specified Display Descriptor (0x02): 00 02 00 0c 39 cc 0d 3c 64 0f 0c 1b 6f 20 20 20 '....9..<d...o   '
Checksum: 0x0d

----------------

Warnings:

Block 0, Base EDID:
  Missing Display Product Name.

Failures:

Block 0, Base EDID:
  Empty Descriptor: Use Dummy Descriptor instead of all zeroes.

EDID conformity: FAIL
