
EDID (hex):
00ffffffffffff003064062339373135
29110103801d12780a87f594574f8c27
27505400000001010101010101010101
0101010101012a1c00a850201e301030
22001fb4100000180000000000000000
00000000000000000000000000fe0052
50373734a331333345574444000000fe
00080c101428507fd801010a202000c6

Extracted contents:
header:          00 ff ff ff ff ff ff 00
serial number:   30 64 06 23 39 37 31 35 29 11
version:         01 03
basic params:    80 1d 12 78 0a
chroma info:     87 f5 94 57 4f 8c 27 27 50 54
established:     00 00 00
standard:        01 01 01 01 01 01 01 01 01 01 01 01 01 01 01 01
descriptor 1:    2a 1c 00 a8 50 20 1e 30 10 30 22 00 1f b4 10 00 00 18
descriptor 2:    00 00 00 00 00 00 00 00 00 00 00 00 00 00 00 00 00 00
descriptor 3:    00 00 00 fe 00 52 50 37 37 34 a3 31 33 33 45 57 44 44
descriptor 4:    00 00 00 fe 00 08 0c 10 14 28 50 7f d8 01 01 0a 20 20
extensions:      00
checksum:        c6

EDID version: 1.3
Manufacturer: LCD Model 2306 Serial Number --
Made in week 41 of 2007
Digital display
Maximum image size: 29 cm x 18 cm
Gamma: 2.20
RGB color display
First detailed timing is preferred timing
Display x,y Chromaticity:
  Red:   0.5800, 0.3398
  Green: 0.3095, 0.5498
  Blue:  0.1552, 0.1552
  White: 0.3134, 0.3291
Established timings supported:
Standard timings supported:
Detailed mode: Clock 72.100 MHz, 287 mm x 180 mm
               1280 1296 1344 1448 hborder 0
                800  802  804  830 vborder 0
               -hsync -vsync 
               VertFreq: 59 Hz, HorFreq: 49792 Hz
Manufacturer-specified data, tag 0
ASCII string: RP774
ASCII string: 
Checksum: 0xc6 (valid)
EDID block does NOT conform to EDID 1.3!
	Missing name descriptor
	Missing monitor ranges
	Detailed block string not properly terminated
