edid-decode (hex):

00 ff ff ff ff ff ff 00 26 85 12 65 00 00 00 00
1e 16 01 04 68 3c 22 78 0a 3d 25 a3 59 51 a0 25
0f 50 54 21 08 00 81 c0 81 40 81 80 81 00 b3 00
71 40 95 00 a9 c0 64 19 00 40 41 00 26 30 18 88
36 00 00 c0 10 00 00 18 66 21 56 aa 51 00 1e 30
46 8f 33 00 55 c0 10 00 00 1e 00 00 00 fc 00 44
50 32 56 47 41 20 56 31 37 33 0a 20 00 00 00 fd
00 3b 3c 1c 52 12 00 00 00 00 00 00 00 00 00 db

00 ff ff ff ff ff ff 00 26 85 12 65 00 00 00 00
1e 16 01 04 68 3c 22 78 0a 3d 25 a3 59 51 a0 25
0f 50 54 21 08 00 81 c0 81 40 81 80 81 00 b3 00
71 40 95 00 a9 c0 64 19 00 40 41 00 26 30 18 88
36 00 00 c0 10 00 00 18 66 21 56 aa 51 00 1e 30
46 8f 33 00 55 c0 10 00 00 1e 00 00 00 fc 00 44
50 32 56 47 41 20 56 31 37 33 0a 20 00 00 00 fd
00 3b 3c 1c 52 12 00 00 00 00 00 00 00 00 00 db

----------------

Block 0, Base EDID:
  EDID Structure Version & Revision: 1.4
  Vendor & Product Identification:
    Manufacturer: ITE
    Model: 25874
    Made in: week 30 of 2012
  Basic Display Parameters & Features:
    Analog display
    Signal Level Standard: 0.700 : 0.000 : 0.700 V p-p
    Blank level equals black level
    Sync: Separate
    Maximum image size: 60 cm x 34 cm
    Gamma: 2.20
    RGB color display
    First detailed timing includes the native pixel format and preferred refresh rate
  Color Characteristics:
    Red  : 0.6367, 0.3505
    Green: 0.3193, 0.6259
    Blue : 0.1445, 0.0605
    White: 0.3134, 0.3291
  Established Timings I & II:
    DMT 0x04:   640x480    59.940476 Hz   4:3     31.469 kHz     25.175000 MHz
    DMT 0x09:   800x600    60.316541 Hz   4:3     37.879 kHz     40.000000 MHz
    DMT 0x10:  1024x768    60.003840 Hz   4:3     48.363 kHz     65.000000 MHz
  Standard Timings:
    DMT 0x55:  1280x720    60.000000 Hz  16:9     45.000 kHz     74.250000 MHz
    DMT 0x20:  1280x960    60.000000 Hz   4:3     60.000 kHz    108.000000 MHz
    DMT 0x23:  1280x1024   60.019740 Hz   5:4     63.981 kHz    108.000000 MHz
    DMT 0x1c:  1280x800    59.810326 Hz  16:10    49.702 kHz     83.500000 MHz
    DMT 0x3a:  1680x1050   59.954250 Hz  16:10    65.290 kHz    146.250000 MHz
    GTF     :  1152x864    60.000000 Hz   4:3     53.700 kHz     81.624000 MHz
    DMT 0x2f:  1440x900    59.887445 Hz  16:10    55.935 kHz    106.500000 MHz
    DMT 0x53:  1600x900    60.000000 Hz  16:9     60.000 kHz    108.000000 MHz (RB)
  Detailed Timing Descriptors:
    DTD 1:  1024x768    60.003840 Hz   4:3     48.363 kHz     65.000000 MHz (256 mm x 192 mm)
                 Hfront   24 Hsync 136 Hback  160 Hpol N
                 Vfront    3 Vsync   6 Vback   29 Vpol N
    DTD 2:  1366x768    59.789541 Hz 683:384   47.712 kHz     85.500000 MHz (341 mm x 192 mm)
                 Hfront   70 Hsync 143 Hback  213 Hpol P
                 Vfront    3 Vsync   3 Vback   24 Vpol P
    Display Product Name: 'DP2VGA V173'
    Display Range Limits:
      Monitor ranges (GTF): 59-60 Hz V, 28-82 kHz H, max dotclock 180 MHz
Checksum: 0xdb

----------------

Block 1, Unknown EDID Extension Block 0x00:
  00 ff ff ff ff ff ff 00 26 85 12 65 00 00 00 00 '........&..e....'
  1e 16 01 04 68 3c 22 78 0a 3d 25 a3 59 51 a0 25 '....h<"x.=%.YQ.%'
  0f 50 54 21 08 00 81 c0 81 40 81 80 81 00 b3 00 '.PT!.....@......'
  71 40 95 00 a9 c0 64 19 00 40 41 00 26 30 18 88 'q@....d..@A.&0..'
  36 00 00 c0 10 00 00 18 66 21 56 aa 51 00 1e 30 '6.......f!V.Q..0'
  46 8f 33 00 55 c0 10 00 00 1e 00 00 00 fc 00 44 'F.3.U..........D'
  50 32 56 47 41 20 56 31 37 33 0a 20 00 00 00 fd 'P2VGA V173. ....'
  00 3b 3c 1c 52 12 00 00 00 00 00 00 00 00 00 db '.;<.R...........'
Checksum: 0xdb

----------------

Warnings:

Block 0, Base EDID:
  Display Range Limits: GTF support is deprecated in EDID 1.4.

Failures:

Block 0, Base EDID:
  Detailed Timing Descriptor #1: Mismatch of image size 256x192 mm vs display size 600x340 mm.
  Detailed Timing Descriptor #2: Mismatch of image size 341x192 mm vs display size 600x340 mm.
  Display Range Limits: GTF can't be combined with non-continuous frequencies.
  Display Range Limits: Byte 11 is 0x00 instead of 0x0a.
  Display Range Limits: Bytes 12-17 must be 0x20.
Block 1, Base EDID:
  Unknown Extension Block.
EDID:
  Base EDID: EDID specified 0 extension block(s), but found 1 extension block(s).

EDID conformity: FAIL
