
EDID (hex):
00ffffffffffff002685126500000000
1e160104003c2278200320a755459624
11494b21080081c0814081808100b300
71409500a9c064190040410026301888
360000c010000018662156aa51001e30
468f330055c01000001e000000fc0044
50325647412020563135380a000000fd
003b3c1c4c1100000000000000000095

Extracted contents:
header:          00 ff ff ff ff ff ff 00
serial number:   26 85 12 65 00 00 00 00 1e 16
version:         01 04
basic params:    00 3c 22 78 20
chroma info:     03 20 a7 55 45 96 24 11 49 4b
established:     21 08 00
standard:        81 c0 81 40 81 80 81 00 b3 00 71 40 95 00 a9 c0
descriptor 1:    64 19 00 40 41 00 26 30 18 88 36 00 00 c0 10 00 00 18
descriptor 2:    66 21 56 aa 51 00 1e 30 46 8f 33 00 55 c0 10 00 00 1e
descriptor 3:    00 00 00 fc 00 44 50 32 56 47 41 20 20 56 31 35 38 0a
descriptor 4:    00 00 00 fd 00 3b 3c 1c 4c 11 00 00 00 00 00 00 00 00
extensions:      00
checksum:        95

EDID version: 1.4
Manufacturer: ITE Model 6512 Serial Number --
Made in week 30 of 2012
Analog display, Input voltage level: 0.7/0.3 V
Blank level equals black level
Sync: 
Maximum image size: 60 cm x 34 cm
Gamma: 2.20
DPMS levels: Off
Monochrome or grayscale display
Display x,y Chromaticity:
  Red:   0.6523, 0.3320
  Green: 0.2695, 0.5888
  Blue:  0.1406, 0.0683
  White: 0.2851, 0.2929
Established timings supported:
  640x480@60Hz 4:3 HorFreq: 31469 Hz Clock: 25.175 MHz
  800x600@60Hz 4:3 HorFreq: 37900 Hz Clock: 40.000 MHz
  1024x768@60Hz 4:3 HorFreq: 48400 Hz Clock: 65.000 MHz
Standard timings supported:
  1280x720@60Hz 16:9
  1280x960@60Hz 4:3 HorFreq: 60000 Hz Clock: 108.000 MHz
  1280x1024@60Hz 5:4 HorFreq: 64000 Hz Clock: 108.000 MHz
  1280x800@60Hz 16:10
  1680x1050@60Hz 16:10 HorFreq: 64700 Hz Clock: 119.000 MHz
  1152x864@60Hz 4:3
  1440x900@60Hz 16:10 HorFreq: 55500 Hz Clock: 88.750 MHz
  1600x900@60Hz 16:9
Detailed mode: Clock 65.000 MHz, 256 mm x 192 mm
               1024 1048 1184 1344 hborder 0
                768  771  777  806 vborder 0
               -hsync -vsync 
               VertFreq: 60 Hz, HorFreq: 48363 Hz
Detailed mode: Clock 85.500 MHz, 341 mm x 192 mm
               1366 1436 1579 1792 hborder 0
                768  771  774  798 vborder 0
               +hsync +vsync 
               VertFreq: 59 Hz, HorFreq: 47712 Hz
Monitor name: DP2VGA  V158
Monitor ranges (GTF): 59-60Hz V, 28-76kHz H, max dotclock 170MHz
Checksum: 0x95 (valid)


