edid-decode (hex):

00 ff ff ff ff ff ff 00 07 21 07 01 07 04 23 20
0e 21 01 04 a5 08 0d 78 aa b0 65 a6 56 53 9d 28
0c 50 54 00 00 00 01 01 01 01 01 01 01 01 01 01
01 01 01 01 01 01 f4 38 38 aa 40 80 18 70 50 0a
e2 00 84 4a 00 00 00 1e 2c 1a d0 8c 20 00 28 50
40 08 a0 01 84 4a 00 00 00 1e 9e 16 00 8c 30 00
38 40 30 0a a8 01 84 4a 00 00 00 1e 00 00 00 fc
00 41 59 41 4e 45 4f 48 44 0a 20 20 20 20 01 7b

02 03 10 30 d0 50 20 00 2e 50 20 0a a0 01 71 b5
68 10 58 22 20 2a 3a 40 0a 12 46 00 84 4a 00 00
00 1e ce 0e 58 a0 20 20 2e 30 20 0a a0 01 84 4a
00 00 00 1e ea 15 88 8c 20 80 38 40 30 0a 8a 04
84 4a 00 00 00 9e fa 0f 1c a4 20 c0 18 30 44 08
c4 00 84 4a 00 00 00 9e d6 0b f8 22 10 80 3a 30
12 0a 64 00 84 4a 00 00 00 9e 00 00 00 00 00 00
00 00 00 00 00 00 00 00 00 00 00 00 00 00 00 32

00 ff ff ff ff ff ff 00 07 21 07 01 07 04 23 20
0e 21 01 04 a5 08 0d 78 aa b0 65 a6 56 53 9d 28
0c 50 54 00 00 00 01 01 01 01 01 01 01 01 01 01
01 01 01 01 01 01 f4 38 38 aa 40 80 18 70 50 0a
e2 00 84 4a 00 00 00 1e 2c 1a d0 8c 20 00 28 50
40 08 a0 01 84 4a 00 00 00 1e 9e 16 00 8c 30 00
38 40 30 0a a8 01 84 4a 00 00 00 1e 00 00 00 fc
00 41 59 41 4e 45 4f 48 44 0a 20 20 20 20 01 7b

02 03 10 30 d0 50 20 00 2e 50 20 0a a0 01 71 b5
68 10 58 22 20 2a 3a 40 0a 12 46 00 84 4a 00 00
00 1e ce 0e 58 a0 20 20 2e 30 20 0a a0 01 84 4a
00 00 00 1e ea 15 88 8c 20 80 38 40 30 0a 8a 04
84 4a 00 00 00 9e fa 0f 1c a4 20 c0 18 30 44 08
c4 00 84 4a 00 00 00 9e d6 0b f8 22 10 80 3a 30
12 0a 64 00 84 4a 00 00 00 9e 00 00 00 00 00 00
00 00 00 00 00 00 00 00 00 00 00 00 00 00 00 32

----------------

Block 0, Base EDID:
  EDID Structure Version & Revision: 1.4
  Vendor & Product Identification:
    Manufacturer: AYA
    Model: 263
    Serial Number: ...
    Made in: week 14 of 2023
  Basic Display Parameters & Features:
    Digital display
    Bits per primary color channel: 8
    DisplayPort interface
    Maximum image size: 8 cm x 13 cm
    Gamma: 2.20
    DPMS levels: Standby Off
    Supported color formats: RGB 4:4:4, YCrCb 4:4:4
    First detailed timing includes the native pixel format and preferred refresh rate
  Color Characteristics:
    Red  : 0.6503, 0.3388
    Green: 0.3242, 0.6132
    Blue : 0.1572, 0.0488
    White: 0.3134, 0.3291
  Established Timings I & II: none
  Standard Timings: none
  Detailed Timing Descriptors:
    DTD  1:  1080x1920   60.000000 Hz   9:16   116.640 kHz    145.800000 MHz (132 mm x 74 mm)
                  Hfront   80 Hsync  10 Hback   80 Hpol P
                  Vfront   14 Vsync   2 Vback    8 Vpol P
    DTD  2:   720x1280   59.020437 Hz   9:16    77.907 kHz     67.000000 MHz (132 mm x 74 mm)
                  Hfront   64 Hsync   8 Hback   68 Hpol P
                  Vfront   10 Vsync  16 Vback   14 Vpol P
    DTD  3:   768x1024   59.043074 Hz   3:4     63.767 kHz     57.900000 MHz (132 mm x 74 mm)
                  Hfront   48 Hsync  10 Hback   82 Hpol P
                  Vfront   10 Vsync  24 Vback   22 Vpol P
    Display Product Name: 'AYANEOHD'
  Extension blocks: 1
Checksum: 0x7b

----------------

Block 1, CTA-861 Extension Block:
  Revision: 3
  Supports YCbCr 4:4:4
  Supports YCbCr 4:2:2
  Native detailed modes: 0
  Video Format Data Block:
    NTSC fractional frame rates are preferred
    RID 16@24p:  5120x2880   24.000000 Hz  64:27    88.200 kHz    465.696000 MHz
    RID 16@30p:  5120x2880   30.000000 Hz  64:27    88.200 kHz    465.696000 MHz
    RID 16@60p:  5120x2880   60.000000 Hz  64:27   178.800 kHz    951.216000 MHz
    RID 10@30p:  5120x1440   30.000000 Hz  32:9     44.400 kHz    236.208000 MHz
    RID 10@60p:  5120x1440   60.000000 Hz  32:9     90.000 kHz    472.320000 MHz
    RID 1@30p:  1280x720    30.000000 Hz  16:9     22.200 kHz     35.520000 MHz
    RID 1@60p:  1280x720    60.000000 Hz  16:9     45.600 kHz     67.488000 MHz
    RID 16@30p:  5120x2880   30.000000 Hz  64:27    88.200 kHz    465.696000 MHz
    RID 16@60p:  5120x2880   60.000000 Hz  64:27   178.800 kHz    951.216000 MHz
    RID 24@24p: 11520x6480   24.000000 Hz  64:27   197.400 kHz   2305.632000 MHz
    RID 24@30p: 11520x6480   30.000000 Hz  64:27   197.400 kHz   2305.632000 MHz
    RID 24@60p: 11520x6480   60.000000 Hz  64:27   400.800 kHz   4681.344000 MHz
  Detailed Timing Descriptors:
    DTD  4:   600x1066   58.937773 Hz 300:533   66.246 kHz     42.000000 MHz (132 mm x 74 mm)
                  Hfront   10 Hsync  18 Hback    6 Hpol P
                  Vfront    4 Vsync   6 Vback   48 Vpol P
    DTD  5:   600x800    58.946124 Hz   3:4     49.868 kHz     37.900000 MHz (132 mm x 74 mm)
                  Hfront   32 Hsync  10 Hback  118 Hpol P
                  Vfront   10 Vsync  16 Vback   20 Vpol P
    DTD  6:   648x2304i  58.910131 Hz   9:32    71.193 kHz     56.100000 MHz (132 mm x 74 mm)
                  Hfront   48 Hsync  10 Hback   82 Hpol P
                  Vfront   24 Vsync  10 Vback   22 Vpol P Vfront +0.5 Odd Field
                  Vfront   24 Vsync  10 Vback   22 Vpol P Vback  +0.5 Even Field
    DTD  7:   540x1920i  59.011266 Hz   9:32    58.097 kHz     40.900000 MHz (132 mm x 74 mm)
                  Hfront   68 Hsync   8 Hback   88 Hpol P
                  Vfront   12 Vsync   4 Vback    8 Vpol P Vfront +0.5 Odd Field
                  Vfront   12 Vsync   4 Vback    8 Vpol P Vback  +0.5 Even Field
    DTD  8:   504x1792i  59.004403 Hz   9:32    56.320 kHz     30.300000 MHz (132 mm x 74 mm)
                  Hfront   18 Hsync  10 Hback    6 Hpol P
                  Vfront    6 Vsync   4 Vback   48 Vpol P Vfront +0.5 Odd Field
                  Vfront    6 Vsync   4 Vback   48 Vpol P Vback  +0.5 Even Field
Checksum: 0x32  Unused space in Extension Block: 21 bytes

----------------

Block 2, Unknown EDID Extension Block 0x00:
  00 ff ff ff ff ff ff 00 07 21 07 01 07 04 23 20 '.........!....# '
  0e 21 01 04 a5 08 0d 78 aa b0 65 a6 56 53 9d 28 '.!.....x..e.VS.('
  0c 50 54 00 00 00 01 01 01 01 01 01 01 01 01 01 '.PT.............'
  01 01 01 01 01 01 f4 38 38 aa 40 80 18 70 50 0a '.......88.@..pP.'
  e2 00 84 4a 00 00 00 1e 2c 1a d0 8c 20 00 28 50 '...J....,... .(P'
  40 08 a0 01 84 4a 00 00 00 1e 9e 16 00 8c 30 00 '@....J........0.'
  38 40 30 0a a8 01 84 4a 00 00 00 1e 00 00 00 fc '8@0....J........'
  00 41 59 41 4e 45 4f 48 44 0a 20 20 20 20 01 7b '.AYANEOHD.    .{'
Checksum: 0x7b

----------------

Block 3, CTA-861 Extension Block:
  Revision: 3
  Supports YCbCr 4:4:4
  Supports YCbCr 4:2:2
  Native detailed modes: 0
  Video Format Data Block:
    NTSC fractional frame rates are preferred
    RID 16@24p:  5120x2880   24.000000 Hz  64:27    88.200 kHz    465.696000 MHz
    RID 16@30p:  5120x2880   30.000000 Hz  64:27    88.200 kHz    465.696000 MHz
    RID 16@60p:  5120x2880   60.000000 Hz  64:27   178.800 kHz    951.216000 MHz
    RID 10@30p:  5120x1440   30.000000 Hz  32:9     44.400 kHz    236.208000 MHz
    RID 10@60p:  5120x1440   60.000000 Hz  32:9     90.000 kHz    472.320000 MHz
    RID 1@30p:  1280x720    30.000000 Hz  16:9     22.200 kHz     35.520000 MHz
    RID 1@60p:  1280x720    60.000000 Hz  16:9     45.600 kHz     67.488000 MHz
    RID 16@30p:  5120x2880   30.000000 Hz  64:27    88.200 kHz    465.696000 MHz
    RID 16@60p:  5120x2880   60.000000 Hz  64:27   178.800 kHz    951.216000 MHz
    RID 24@24p: 11520x6480   24.000000 Hz  64:27   197.400 kHz   2305.632000 MHz
    RID 24@30p: 11520x6480   30.000000 Hz  64:27   197.400 kHz   2305.632000 MHz
    RID 24@60p: 11520x6480   60.000000 Hz  64:27   400.800 kHz   4681.344000 MHz
  Detailed Timing Descriptors:
    DTD  9:   600x1066   58.937773 Hz 300:533   66.246 kHz     42.000000 MHz (132 mm x 74 mm)
                  Hfront   10 Hsync  18 Hback    6 Hpol P
                  Vfront    4 Vsync   6 Vback   48 Vpol P
    DTD 10:   600x800    58.946124 Hz   3:4     49.868 kHz     37.900000 MHz (132 mm x 74 mm)
                  Hfront   32 Hsync  10 Hback  118 Hpol P
                  Vfront   10 Vsync  16 Vback   20 Vpol P
    DTD 11:   648x2304i  58.910131 Hz   9:32    71.193 kHz     56.100000 MHz (132 mm x 74 mm)
                  Hfront   48 Hsync  10 Hback   82 Hpol P
                  Vfront   24 Vsync  10 Vback   22 Vpol P Vfront +0.5 Odd Field
                  Vfront   24 Vsync  10 Vback   22 Vpol P Vback  +0.5 Even Field
    DTD 12:   540x1920i  59.011266 Hz   9:32    58.097 kHz     40.900000 MHz (132 mm x 74 mm)
                  Hfront   68 Hsync   8 Hback   88 Hpol P
                  Vfront   12 Vsync   4 Vback    8 Vpol P Vfront +0.5 Odd Field
                  Vfront   12 Vsync   4 Vback    8 Vpol P Vback  +0.5 Even Field
    DTD 13:   504x1792i  59.004403 Hz   9:32    56.320 kHz     30.300000 MHz (132 mm x 74 mm)
                  Hfront   18 Hsync  10 Hback    6 Hpol P
                  Vfront    6 Vsync   4 Vback   48 Vpol P Vfront +0.5 Odd Field
                  Vfront    6 Vsync   4 Vback   48 Vpol P Vback  +0.5 Even Field
Checksum: 0x32  Unused space in Extension Block: 21 bytes

----------------

Warnings:

Block 0, Base EDID:
  Basic Display Parameters & Features: Dubious maximum image size (8x13 is smaller than 10x10 cm).
Block 1, CTA-861 Extension Block:
  IT Video Formats are overscanned by default, but normally this should be underscanned.
  Add a Colorimetry Data Block with the sRGB colorimetry bit set to avoid interop issues.
Block 3, CTA-861 Extension Block:
  IT Video Formats are overscanned by default, but normally this should be underscanned.
  Add a Colorimetry Data Block with the sRGB colorimetry bit set to avoid interop issues.

Failures:

Block 0, Base EDID:
  Detailed Timing Descriptor #1: Mismatch of image size 132x74 mm vs display size 80x130 mm.
  Detailed Timing Descriptor #2: Mismatch of image size 132x74 mm vs display size 80x130 mm.
  Detailed Timing Descriptor #3: Mismatch of image size 132x74 mm vs display size 80x130 mm.
Block 1, CTA-861 Extension Block:
  Video Format Data Block: Unknown RID 32.
  Video Format Data Block: Unknown RID 0.
  Video Format Data Block: Unknown RID 46.
  Video Format Data Block: Unknown RID 32.
  Video Format Data Block: Unknown RID 32.
  Video Format Data Block: RID 1@30p not allowed since it maps to VIC 62.
  Video Format Data Block: RID 1@60p not allowed since it maps to VIC 4.
  Video Format Data Block: Unknown RID 49.
  Video Format Data Block: Unknown RID 53.
  Video Format Data Block: Unknown RID 40.
  Video Format Data Block: Unknown RID 34.
  Video Format Data Block: Unknown RID 32.
  Offset is 16, but should be 21.
  Detailed Timing Descriptor #4: Mismatch of image size 132x74 mm vs display size 80x130 mm.
  Detailed Timing Descriptor #5: Mismatch of image size 132x74 mm vs display size 80x130 mm.
  Detailed Timing Descriptor #6: Mismatch of image size 132x74 mm vs display size 80x130 mm.
  Detailed Timing Descriptor #7: Mismatch of image size 132x74 mm vs display size 80x130 mm.
  Detailed Timing Descriptor #8: Mismatch of image size 132x74 mm vs display size 80x130 mm.
  Required 640x480p60 timings are missing in the established timings and the SVD list (VIC 1).
  Missing VCDB, needed for Set Selectable RGB Quantization to avoid interop issues.
Block 2, Base EDID:
  Unknown Extension Block.
Block 3, CTA-861 Extension Block:
  Video Format Data Block: Unknown RID 32.
  Video Format Data Block: Unknown RID 0.
  Video Format Data Block: Unknown RID 46.
  Video Format Data Block: Unknown RID 32.
  Video Format Data Block: Unknown RID 32.
  Video Format Data Block: RID 1@30p not allowed since it maps to VIC 62.
  Video Format Data Block: RID 1@60p not allowed since it maps to VIC 4.
  Video Format Data Block: Unknown RID 49.
  Video Format Data Block: Unknown RID 53.
  Video Format Data Block: Unknown RID 40.
  Video Format Data Block: Unknown RID 34.
  Video Format Data Block: Unknown RID 32.
  Offset is 16, but should be 21.
  Detailed Timing Descriptor #9: Mismatch of image size 132x74 mm vs display size 80x130 mm.
  Detailed Timing Descriptor #10: Mismatch of image size 132x74 mm vs display size 80x130 mm.
  Detailed Timing Descriptor #11: Mismatch of image size 132x74 mm vs display size 80x130 mm.
  Detailed Timing Descriptor #12: Mismatch of image size 132x74 mm vs display size 80x130 mm.
  Detailed Timing Descriptor #13: Mismatch of image size 132x74 mm vs display size 80x130 mm.
  Required 640x480p60 timings are missing in the established timings and the SVD list (VIC 1).
  Missing VCDB, needed for Set Selectable RGB Quantization to avoid interop issues.
EDID:
  Base EDID: The DTD max image size is 132x74mm, which is larger than the display size 80.0x130.0mm.
  Base EDID: EDID specified 1 extension block(s), but found 3 extension block(s).

EDID conformity: FAIL
