
EDID (hex):
00ffffffffffff004293d50301010101
2910010368261e96ea6e06a1544c9926
194f54bfef0081800101010101010101
010101010101302a009851002c403070
1300782d1100001e000000fc00584150
2d313932690a20202020000000fd0038
4c1e510e000a202020202020000000ff
0046375449364130303238383739005e

Extracted contents:
header:          00 ff ff ff ff ff ff 00
serial number:   42 93 d5 03 01 01 01 01 29 10
version:         01 03
basic params:    68 26 1e 96 ea
chroma info:     6e 06 a1 54 4c 99 26 19 4f 54
established:     bf ef 00
standard:        81 80 01 01 01 01 01 01 01 01 01 01 01 01 01 01
descriptor 1:    30 2a 00 98 51 00 2c 40 30 70 13 00 78 2d 11 00 00 1e
descriptor 2:    00 00 00 fc 00 58 41 50 2d 31 39 32 69 0a 20 20 20 20
descriptor 3:    00 00 00 fd 00 38 4c 1e 51 0e 00 0a 20 20 20 20 20 20
descriptor 4:    00 00 00 ff 00 46 37 54 49 36 41 30 30 32 38 38 37 39
extensions:      00
checksum:        5e

EDID version: 1.3
Manufacturer: PTS Model 3d5 Serial Number --
Made in week 41 of 2006
Analog display, Input voltage level: 0.7/0.7 V
Sync: Separate 
Maximum image size: 38 cm x 30 cm
Gamma: 2.50
DPMS levels: Standby Suspend Off
RGB color display
First detailed timing is preferred timing
Display x,y Chromaticity:
  Red:   0.6298, 0.3300
  Green: 0.2998, 0.5996
  Blue:  0.1484, 0.0976
  White: 0.3095, 0.3300
Established timings supported:
  720x400@70Hz 9:5 HorFreq: 31469 Hz Clock: 28.320 MHz
  640x480@60Hz 4:3 HorFreq: 31469 Hz Clock: 25.175 MHz
  640x480@67Hz 4:3 HorFreq: 35000 Hz Clock: 30.240 MHz
  640x480@72Hz 4:3 HorFreq: 37900 Hz Clock: 31.500 MHz
  640x480@75Hz 4:3 HorFreq: 37500 Hz Clock: 31.500 MHz
  800x600@56Hz 4:3 HorFreq: 35200 Hz Clock: 36.000 MHz
  800x600@60Hz 4:3 HorFreq: 37900 Hz Clock: 40.000 MHz
  800x600@72Hz 4:3 HorFreq: 48100 Hz Clock: 50.000 MHz
  800x600@75Hz 4:3 HorFreq: 46900 Hz Clock: 49.500 MHz
  832x624@75Hz 4:3 HorFreq: 49726 Hz Clock: 57.284 MHz
  1024x768@60Hz 4:3 HorFreq: 48400 Hz Clock: 65.000 MHz
  1024x768@70Hz 4:3 HorFreq: 56500 Hz Clock: 75.000 MHz
  1024x768@75Hz 4:3 HorFreq: 60000 Hz Clock: 78.750 MHz
  1280x1024@75Hz 5:4 HorFreq: 80000 Hz Clock: 135.000 MHz
Standard timings supported:
  1280x1024@60Hz 5:4 HorFreq: 64000 Hz Clock: 108.000 MHz
Detailed mode: Clock 108.000 MHz, 376 mm x 301 mm
               1280 1328 1440 1688 hborder 0
               1024 1025 1028 1068 vborder 0
               +hsync +vsync 
               VertFreq: 59 Hz, HorFreq: 63981 Hz
Monitor name: XAP-192i
Monitor ranges (GTF): 56-76Hz V, 30-81kHz H, max dotclock 140MHz
Serial number: --
Checksum: 0x5e (valid)
