edid-decode (hex):

00 ff ff ff ff ff ff 00 21 43 3d 00 00 00 00 00
28 1d 01 02 95 1f 11 78 0e 42 8e a9 51 44 93 23
15 4c 53 00 00 00 01 01 01 01 01 01 01 01 01 01
01 01 01 01 01 01 42 37 80 cc 70 38 1e 40 30 20
36 00 35 ae 10 00 00 19 00 00 00 fe 00 20 20 20
20 20 20 20 20 20 20 20 20 20 00 00 00 fe 00 31
34 30 50 4d 34 32 44 31 35 36 38 20 00 00 00 fe
00 31 34 30 50 4d 34 32 44 31 35 36 38 20 00 b3

----------------

Block 0, Base EDID:
  EDID Structure Version & Revision: 1.2
  Vendor & Product Identification:
    Manufacturer: HJC
    Model: 61
    Made in: week 40 of 2019
  Basic Display Parameters & Features:
    Digital display
    DFP 1.x compatible TMDS
    Maximum image size: 31 cm x 17 cm
    Gamma: 2.20
    RGB color display
    Default (sRGB) color space is primary color space
    First detailed timing is the preferred timing
  Color Characteristics:
    Red  : 0.6611, 0.3164
    Green: 0.2656, 0.5761
    Blue : 0.1386, 0.0820
    White: 0.2998, 0.3261
  Established Timings I & II: none
  Standard Timings: none
  Detailed Timing Descriptors:
    DTD 1:  1920x1080   60.000679 Hz  16:9     66.601 kHz    141.460000 MHz (309 mm x 174 mm)
                 Hfront   48 Hsync  32 Hback  124 Hpol N
                 Vfront    3 Vsync   6 Vback   21 Vpol N
    Alphanumeric Data String: '             '
    Alphanumeric Data String: '140PM42D1568 '
    Alphanumeric Data String: '140PM42D1568 '
Checksum: 0xb3

----------------

Warnings:

Block 0, Base EDID:
  EDID Structure Version & Revision: EDID 1.2 is deprecated, do not use.

Failures:

Block 0, Base EDID:
  Basic Display Parameters & Features: Digital Video Interface Standard set to reserved value 0x14.
  Basic Display Parameters & Features: sRGB is signaled, but the chromaticities do not match.
  Alphanumeric Data String: One or more trailing spaces.
  Alphanumeric Data String: One or more trailing spaces.
  Alphanumeric Data String: One or more trailing spaces.

EDID conformity: FAIL
