edid-decode (hex):

00 ff ff ff ff ff ff 00 0d ae 62 13 00 00 00 00
31 1a 01 04 95 1d 10 78 02 50 85 94 56 53 96 28
23 50 54 00 00 00 01 01 01 01 01 01 01 01 01 01
01 01 01 01 01 01 74 1d 56 de 50 00 17 30 44 2d
47 00 25 a4 10 00 00 1a a3 13 56 de 50 00 17 30
44 2d 47 00 25 a4 10 00 00 1a 00 00 00 00 00 00
00 00 00 00 00 00 00 00 00 00 00 00 00 00 00 02
00 0c 3a e2 0d 3c 6e 0b 0d 18 7b 00 00 00 00 e4

----------------

Block 0, Base EDID:
  EDID Structure Version & Revision: 1.4
  Vendor & Product Identification:
    Manufacturer: CMN
    Model: 4962
    Made in: week 49 of 2016
  Basic Display Parameters & Features:
    Digital display
    Bits per primary color channel: 6
    DisplayPort interface
    Maximum image size: 29 cm x 16 cm
    Gamma: 2.20
    Supported color formats: RGB 4:4:4
    First detailed timing includes the native pixel format and preferred refresh rate
  Color Characteristics:
    Red  : 0.5791, 0.3369
    Green: 0.3242, 0.5859
    Blue : 0.1582, 0.1367
    White: 0.3134, 0.3291
  Established Timings I & II: none
  Standard Timings: none
  Detailed Timing Descriptors:
    DTD 1:  1366x768    60.026686 Hz 683:384   47.481 kHz     75.400000 MHz (293 mm x 164 mm)
                 Hfront   68 Hsync  45 Hback  109 Hpol P
                 Vfront    4 Vsync   7 Vback   12 Vpol N
    DTD 2:  1366x768    40.020444 Hz 683:384   31.656 kHz     50.270000 MHz (293 mm x 164 mm)
                 Hfront   68 Hsync  45 Hback  109 Hpol P
                 Vfront    4 Vsync   7 Vback   12 Vpol N
    Empty Descriptor
    Manufacturer-Specified Display Descriptor (0x02): 00 02 00 0c 3a e2 0d 3c 6e 0b 0d 18 7b 00 00 00 '....:..<n...{...'
Checksum: 0xe4

----------------

Warnings:

Block 0, Base EDID:
  Missing Display Product Name.

Failures:

Block 0, Base EDID:
  Empty Descriptor: Use Dummy Descriptor instead of all zeroes.

EDID conformity: FAIL
