
EDID (hex):
00ffffffffffff000dae621300000000
0e180104951d10780250859456539628
23505400000001010101010101010101
010101010101da1d56e250002030442d
470025a410000018000000fe004e3133
334247452d4541420a20000000fe0043
4d4e0a202020202020202020000000fe
004e3133334247452d4541420a2000aa

Extracted contents:
header:          00 ff ff ff ff ff ff 00
serial number:   0d ae 62 13 00 00 00 00 0e 18
version:         01 04
basic params:    95 1d 10 78 02
chroma info:     50 85 94 56 53 96 28 23 50 54
established:     00 00 00
standard:        01 01 01 01 01 01 01 01 01 01 01 01 01 01 01 01
descriptor 1:    da 1d 56 e2 50 00 20 30 44 2d 47 00 25 a4 10 00 00 18
descriptor 2:    00 00 00 fe 00 4e 31 33 33 42 47 45 2d 45 41 42 0a 20
descriptor 3:    00 00 00 fe 00 43 4d 4e 0a 20 20 20 20 20 20 20 20 20
descriptor 4:    00 00 00 fe 00 4e 31 33 33 42 47 45 2d 45 41 42 0a 20
extensions:      00
checksum:        aa

EDID version: 1.4
Manufacturer: CMN Model 1362 Serial Number --
Made in week 14 of 2014
Digital display
6 bits per primary color channel
DisplayPort interface
Maximum image size: 29 cm x 16 cm
Gamma: 2.20
Supported color formats: RGB 4:4:4
First detailed timing includes the native pixel format and preferred refresh rate
Display x,y Chromaticity:
  Red:   0.5791, 0.3369
  Green: 0.3242, 0.5859
  Blue:  0.1582, 0.1367
  White: 0.3134, 0.3291
Established timings supported:
Standard timings supported:
Detailed mode: Clock 76.420 MHz, 293 mm x 164 mm
               1366 1434 1479 1592 hborder 0
                768  772  779  800 vborder 0
               -hsync -vsync 
               VertFreq: 60 Hz, HorFreq: 48002 Hz
ASCII string: N133BGE-EAB
ASCII string: CMN
ASCII string: N133BGE-EAB
Checksum: 0xaa (valid)
EDID block does NOT conform to EDID 1.4!
	Missing name descriptor
	Missing monitor ranges
