edid-decode (hex):

00 ff ff ff ff ff ff 00 63 18 01 00 01 00 00 00
32 22 01 03 68 29 17 78 ea d6 a5 a2 59 4a 95 24
14 50 54 a9 08 00 81 00 81 40 81 80 81 c0 71 40
01 01 45 40 01 01 66 21 56 aa 51 00 1e 30 46 8f
33 00 9a e6 10 00 00 1e e6 29 56 aa 51 00 1e 30
46 8f 33 00 9a e6 10 00 00 1e 00 00 00 fd 00 1e
4c 1e 96 0c 00 0a 20 20 20 20 20 20 00 00 00 fc
00 56 47 41 0a 20 20 20 20 20 20 20 20 20 00 52

00 ff ff ff ff ff ff 00 63 18 01 00 01 00 00 00
32 22 01 03 68 29 17 78 ea d6 a5 a2 59 4a 95 24
14 50 54 a9 08 00 81 00 81 40 81 80 81 c0 71 40
01 01 45 40 01 01 66 21 56 aa 51 00 1e 30 46 8f
33 00 9a e6 10 00 00 1e e6 29 56 aa 51 00 1e 30
46 8f 33 00 9a e6 10 00 00 1e 00 00 00 fd 00 1e
4c 1e 96 0c 00 0a 20 20 20 20 20 20 00 00 00 fc
00 56 47 41 0a 20 20 20 20 20 20 20 20 20 00 52

----------------

Block 0, Base EDID:
  EDID Structure Version & Revision: 1.3
  Vendor & Product Identification:
    Manufacturer: XXX
    Model: 1
    Serial Number: ...
    Made in: week 50 of 2024
  Basic Display Parameters & Features:
    Analog display
    Signal Level Standard: 0.700 : 0.000 : 0.700 V p-p
    Blank level equals black level
    Sync: Separate
    Maximum image size: 41 cm x 23 cm
    Gamma: 2.20
    DPMS levels: Standby Suspend Off
    RGB color display
    First detailed timing is the preferred timing
  Color Characteristics:
    Red  : 0.6357, 0.3486
    Green: 0.2900, 0.5839
    Blue : 0.1425, 0.0800
    White: 0.3134, 0.3291
  Established Timings I & II:
    IBM     :   720x400    70.081663 Hz   9:5     31.467 kHz     28.320000 MHz
    DMT 0x04:   640x480    59.940476 Hz   4:3     31.469 kHz     25.175000 MHz
    DMT 0x05:   640x480    72.808802 Hz   4:3     37.861 kHz     31.500000 MHz
    DMT 0x09:   800x600    60.316541 Hz   4:3     37.879 kHz     40.000000 MHz
    DMT 0x10:  1024x768    60.003840 Hz   4:3     48.363 kHz     65.000000 MHz
  Standard Timings:
    DMT 0x1c:  1280x800    59.810326 Hz  16:10    49.702 kHz     83.500000 MHz
    DMT 0x20:  1280x960    60.000000 Hz   4:3     60.000 kHz    108.000000 MHz
    DMT 0x23:  1280x1024   60.019740 Hz   5:4     63.981 kHz    108.000000 MHz
    DMT 0x55:  1280x720    60.000000 Hz  16:9     45.000 kHz     74.250000 MHz
    GTF     :  1152x864    60.000000 Hz   4:3     53.700 kHz     81.624000 MHz
    DMT 0x09:   800x600    60.316541 Hz   4:3     37.879 kHz     40.000000 MHz
  Detailed Timing Descriptors:
    DTD 1:  1366x768    59.789541 Hz 683:384   47.712 kHz     85.500000 MHz (410 mm x 230 mm)
                 Hfront   70 Hsync 143 Hback  213 Hpol P
                 Vfront    3 Vsync   3 Vback   24 Vpol P
    DTD 2:  1366x768    75.006154 Hz 683:384   59.855 kHz    107.260000 MHz (410 mm x 230 mm)
                 Hfront   70 Hsync 143 Hback  213 Hpol P
                 Vfront    3 Vsync   3 Vback   24 Vpol P
    Display Range Limits:
      Monitor ranges (GTF): 30-76 Hz V, 30-150 kHz H, max dotclock 120 MHz
    Display Product Name: 'VGA'
Checksum: 0x52

----------------

Block 1, Unknown EDID Extension Block 0x00:
  00 ff ff ff ff ff ff 00 63 18 01 00 01 00 00 00 '........c.......'
  32 22 01 03 68 29 17 78 ea d6 a5 a2 59 4a 95 24 '2"..h).x....YJ.$'
  14 50 54 a9 08 00 81 00 81 40 81 80 81 c0 71 40 '.PT......@....q@'
  01 01 45 40 01 01 66 21 56 aa 51 00 1e 30 46 8f '..E@..f!V.Q..0F.'
  33 00 9a e6 10 00 00 1e e6 29 56 aa 51 00 1e 30 '3........)V.Q..0'
  46 8f 33 00 9a e6 10 00 00 1e 00 00 00 fd 00 1e 'F.3.............'
  4c 1e 96 0c 00 0a 20 20 20 20 20 20 00 00 00 fc 'L.....      ....'
  00 56 47 41 0a 20 20 20 20 20 20 20 20 20 00 52 '.VGA.         .R'
Checksum: 0x52

----------------

Failures:

Block 1, Base EDID:
  Unknown Extension Block.
EDID:
  Base EDID: EDID specified 0 extension block(s), but found 1 extension block(s).

EDID conformity: FAIL
