
EDID (hex):
00ffffffffffff000daf221400000000
14100103801e13780ac0059857528927
20505400000001010101010101010101
010101010101ab22a0a050841a303020
36002fbe10000018000000fe004e3134
3143322d4c30310a2020000000fe0043
4d4f0a202020202020202020000000fe
004e31343143322d4c30310a2020006c

Extracted contents:
header:          00 ff ff ff ff ff ff 00
serial number:   0d af 22 14 00 00 00 00 14 10
version:         01 03
basic params:    80 1e 13 78 0a
chroma info:     c0 05 98 57 52 89 27 20 50 54
established:     00 00 00
standard:        01 01 01 01 01 01 01 01 01 01 01 01 01 01 01 01
descriptor 1:    ab 22 a0 a0 50 84 1a 30 30 20 36 00 2f be 10 00 00 18
descriptor 2:    00 00 00 fe 00 4e 31 34 31 43 32 2d 4c 30 31 0a 20 20
descriptor 3:    00 00 00 fe 00 43 4d 4f 0a 20 20 20 20 20 20 20 20 20
descriptor 4:    00 00 00 fe 00 4e 31 34 31 43 32 2d 4c 30 31 0a 20 20
extensions:      00
checksum:        6c

EDID version: 1.3
Manufacturer: CMO Model 1422 Serial Number --
Made in week 20 of 2006
Digital display
Maximum image size: 30 cm x 19 cm
Gamma: 2.20
RGB color display
First detailed timing is preferred timing
Display x,y Chromaticity:
  Red:   0.5966, 0.3398
  Green: 0.3203, 0.5351
  Blue:  0.1523, 0.1250
  White: 0.3134, 0.3291
Established timings supported:
Standard timings supported:
Detailed mode: Clock 88.750 MHz, 303 mm x 190 mm
               1440 1488 1520 1600 hborder 0
                900  903  909  926 vborder 0
               -hsync -vsync 
               VertFreq: 59 Hz, HorFreq: 55468 Hz
ASCII string: N141C2-L01
ASCII string: CMO
ASCII string: N141C2-L01
Checksum: 0x6c (valid)
EDID block does NOT conform to EDID 1.3!
	Missing name descriptor
	Missing monitor ranges
