
EDID (hex):
00ffffffffffff0041d2636137353030
05110103812b20ffaae696a3544a9926
0f4f54bfef008180a940315945596159
819901010101483f403062b0324040c0
1300b0441100001e000000fd0038561f
5c11000a202020202020000000ff0037
303553303131314b30303537000000fc
0050583231324d0a2020202020200064

Extracted contents:
header:          00 ff ff ff ff ff ff 00
serial number:   41 d2 63 61 37 35 30 30 05 11
version:         01 03
basic params:    81 2b 20 ff aa
chroma info:     e6 96 a3 54 4a 99 26 0f 4f 54
established:     bf ef 00
standard:        81 80 a9 40 31 59 45 59 61 59 81 99 01 01 01 01
descriptor 1:    48 3f 40 30 62 b0 32 40 40 c0 13 00 b0 44 11 00 00 1e
descriptor 2:    00 00 00 fd 00 38 56 1f 5c 11 00 0a 20 20 20 20 20 20
descriptor 3:    00 00 00 ff 00 37 30 35 53 30 31 31 31 4b 30 30 35 37
descriptor 4:    00 00 00 fc 00 50 58 32 31 32 4d 0a 20 20 20 20 20 20
extensions:      00
checksum:        64

EDID version: 1.3
Manufacturer: PNR Model 6163 Serial Number --
Made in week 5 of 2007
Digital display
DFP 1.x compatible TMDS
Maximum image size: 43 cm x 32 cm
Gamma: 1.0
DPMS levels: Standby Off
RGB color display
First detailed timing is preferred timing
Display x,y Chromaticity:
  Red:   0.6396, 0.3300
  Green: 0.2900, 0.5996
  Blue:  0.1503, 0.0595
  White: 0.3095, 0.3300
Established timings supported:
  720x400@70Hz 9:5 HorFreq: 31469 Hz Clock: 28.320 MHz
  640x480@60Hz 4:3 HorFreq: 31469 Hz Clock: 25.175 MHz
  640x480@67Hz 4:3 HorFreq: 35000 Hz Clock: 30.240 MHz
  640x480@72Hz 4:3 HorFreq: 37900 Hz Clock: 31.500 MHz
  640x480@75Hz 4:3 HorFreq: 37500 Hz Clock: 31.500 MHz
  800x600@56Hz 4:3 HorFreq: 35200 Hz Clock: 36.000 MHz
  800x600@60Hz 4:3 HorFreq: 37900 Hz Clock: 40.000 MHz
  800x600@72Hz 4:3 HorFreq: 48100 Hz Clock: 50.000 MHz
  800x600@75Hz 4:3 HorFreq: 46900 Hz Clock: 49.500 MHz
  832x624@75Hz 4:3 HorFreq: 49726 Hz Clock: 57.284 MHz
  1024x768@60Hz 4:3 HorFreq: 48400 Hz Clock: 65.000 MHz
  1024x768@70Hz 4:3 HorFreq: 56500 Hz Clock: 75.000 MHz
  1024x768@75Hz 4:3 HorFreq: 60000 Hz Clock: 78.750 MHz
  1280x1024@75Hz 5:4 HorFreq: 80000 Hz Clock: 135.000 MHz
Standard timings supported:
  1280x1024@60Hz 5:4 HorFreq: 64000 Hz Clock: 108.000 MHz
  1600x1200@60Hz 4:3 HorFreq: 75000 Hz Clock: 162.000 MHz
  640x480@85Hz 4:3 HorFreq: 43300 Hz Clock: 36.000 MHz
  800x600@85Hz 4:3 HorFreq: 53700 Hz Clock: 56.250 MHz
  1024x768@85Hz 4:3 HorFreq: 68700 Hz Clock: 94.500 MHz
  1280x1024@85Hz 5:4 HorFreq: 91100 Hz Clock: 157.500 MHz
Detailed mode: Clock 162.000 MHz, 432 mm x 324 mm
               1600 1664 1856 2160 hborder 0
               1200 1201 1204 1250 vborder 0
               +hsync +vsync 
               VertFreq: 60 Hz, HorFreq: 75000 Hz
Monitor ranges (GTF): 56-86Hz V, 31-92kHz H, max dotclock 170MHz
Serial number: --
Monitor name: PX212M
Checksum: 0x64 (valid)


