
EDID (hex):
00ffffffffffff003674502101000000
1213010380301b78cad6a5a2594a9524
145054adcf0081800101010101010101
0101010101011a3680a070381f403020
350070cf1000001a21399030621a2740
68b0360055001100001c9a29a0d05184
22305098360054ff1000001c000000fc
004449474954414c0a2020202020002b

Extracted contents:
header:          00 ff ff ff ff ff ff 00
serial number:   36 74 50 21 01 00 00 00 12 13
version:         01 03
basic params:    80 30 1b 78 ca
chroma info:     d6 a5 a2 59 4a 95 24 14 50 54
established:     ad cf 00
standard:        81 80 01 01 01 01 01 01 01 01 01 01 01 01 01 01
descriptor 1:    1a 36 80 a0 70 38 1f 40 30 20 35 00 70 cf 10 00 00 1a
descriptor 2:    21 39 90 30 62 1a 27 40 68 b0 36 00 55 00 11 00 00 1c
descriptor 3:    9a 29 a0 d0 51 84 22 30 50 98 36 00 54 ff 10 00 00 1c
descriptor 4:    00 00 00 fc 00 44 49 47 49 54 41 4c 0a 20 20 20 20 20
extensions:      00
checksum:        2b

EDID version: 1.3
Manufacturer: MST Model 2150 Serial Number --
Made in week 18 of 2009
Digital display
Maximum image size: 48 cm x 27 cm
Gamma: 2.20
DPMS levels: Standby Suspend
RGB color display
First detailed timing is preferred timing
Display x,y Chromaticity:
  Red:   0.6357, 0.3486
  Green: 0.2900, 0.5839
  Blue:  0.1425, 0.0800
  White: 0.3134, 0.3291
Established timings supported:
  720x400@70Hz 9:5 HorFreq: 31469 Hz Clock: 28.320 MHz
  640x480@60Hz 4:3 HorFreq: 31469 Hz Clock: 25.175 MHz
  640x480@72Hz 4:3 HorFreq: 37900 Hz Clock: 31.500 MHz
  640x480@75Hz 4:3 HorFreq: 37500 Hz Clock: 31.500 MHz
  800x600@60Hz 4:3 HorFreq: 37900 Hz Clock: 40.000 MHz
  800x600@72Hz 4:3 HorFreq: 48100 Hz Clock: 50.000 MHz
  800x600@75Hz 4:3 HorFreq: 46900 Hz Clock: 49.500 MHz
  1024x768@60Hz 4:3 HorFreq: 48400 Hz Clock: 65.000 MHz
  1024x768@70Hz 4:3 HorFreq: 56500 Hz Clock: 75.000 MHz
  1024x768@75Hz 4:3 HorFreq: 60000 Hz Clock: 78.750 MHz
  1280x1024@75Hz 5:4 HorFreq: 80000 Hz Clock: 135.000 MHz
Standard timings supported:
  1280x1024@60Hz 5:4 HorFreq: 64000 Hz Clock: 108.000 MHz
Detailed mode: Clock 138.500 MHz, 368 mm x 207 mm
               1920 1968 2000 2080 hborder 0
               1080 1083 1088 1111 vborder 0
               +hsync -vsync 
               VertFreq: 59 Hz, HorFreq: 66586 Hz
Detailed mode: Clock 146.250 MHz, 341 mm x 256 mm
               1680 1784 1960 2240 hborder 0
               1050 1053 1059 1089 vborder 0
               -hsync +vsync 
               VertFreq: 59 Hz, HorFreq: 65290 Hz
Detailed mode: Clock 106.500 MHz, 340 mm x 255 mm
               1440 1520 1672 1904 hborder 0
                900  903  909  934 vborder 0
               -hsync +vsync 
               VertFreq: 59 Hz, HorFreq: 55934 Hz
Monitor name: DIGITAL
Checksum: 0x2b (valid)
EDID block does NOT conform to EDID 1.3!
	Missing monitor ranges
