edid-decode (hex):

00 ff ff ff ff ff ff 00 36 74 50 21 00 00 00 00
01 14 01 03 80 33 1d 78 ea d6 a5 a2 59 4a 95 24
14 50 54 ad cf 00 31 4a 45 4a 61 4c 81 80 81 8a
81 8c 81 c0 01 01 02 3a 80 18 71 38 2d 40 58 2c
45 00 70 cf 10 00 00 1e 7c 2e 90 a0 60 1a 1e 40
30 20 36 00 c7 00 11 00 00 1a ab 22 a0 a0 50 84
1a 30 30 20 36 00 c5 ff 10 00 00 1a 00 00 00 fc
00 44 49 47 49 54 41 4c 0a 20 20 20 20 20 00 53

00 ff ff ff ff ff ff 00 36 74 50 21 00 00 00 00
01 14 01 03 80 33 1d 78 ea d6 a5 a2 59 4a 95 24
14 50 54 ad cf 00 31 4a 45 4a 61 4c 81 80 81 8a
81 8c 81 c0 01 01 02 3a 80 18 71 38 2d 40 58 2c
45 00 70 cf 10 00 00 1e 7c 2e 90 a0 60 1a 1e 40
30 20 36 00 c7 00 11 00 00 1a ab 22 a0 a0 50 84
1a 30 30 20 36 00 c5 ff 10 00 00 1a 00 00 00 fc
00 44 49 47 49 54 41 4c 0a 20 20 20 20 20 00 53

----------------

Block 0, Base EDID:
  EDID Structure Version & Revision: 1.3
  Vendor & Product Identification:
    Manufacturer: MST
    Model: 8528
    Made in: week 1 of 2010
  Basic Display Parameters & Features:
    Digital display
    Maximum image size: 51 cm x 29 cm
    Gamma: 2.20
    DPMS levels: Standby Suspend Off
    RGB color display
    First detailed timing is the preferred timing
  Color Characteristics:
    Red  : 0.6357, 0.3486
    Green: 0.2900, 0.5839
    Blue : 0.1425, 0.0800
    White: 0.3134, 0.3291
  Established Timings I & II:
    IBM     :   720x400    70.081663 Hz   9:5     31.467 kHz     28.320000 MHz
    DMT 0x04:   640x480    59.940476 Hz   4:3     31.469 kHz     25.175000 MHz
    DMT 0x05:   640x480    72.808802 Hz   4:3     37.861 kHz     31.500000 MHz
    DMT 0x06:   640x480    75.000000 Hz   4:3     37.500 kHz     31.500000 MHz
    DMT 0x09:   800x600    60.316541 Hz   4:3     37.879 kHz     40.000000 MHz
    DMT 0x0a:   800x600    72.187572 Hz   4:3     48.077 kHz     50.000000 MHz
    DMT 0x0b:   800x600    75.000000 Hz   4:3     46.875 kHz     49.500000 MHz
    DMT 0x10:  1024x768    60.003840 Hz   4:3     48.363 kHz     65.000000 MHz
    DMT 0x11:  1024x768    70.069359 Hz   4:3     56.476 kHz     75.000000 MHz
    DMT 0x12:  1024x768    75.028582 Hz   4:3     60.023 kHz     78.750000 MHz
    DMT 0x24:  1280x1024   75.024675 Hz   5:4     79.976 kHz    135.000000 MHz
  Standard Timings:
    GTF     :   640x480    70.000000 Hz   4:3     35.000 kHz     28.560000 MHz
    GTF     :   800x600    70.000000 Hz   4:3     43.750 kHz     45.500000 MHz
    DMT 0x11:  1024x768    70.069359 Hz   4:3     56.476 kHz     75.000000 MHz
    DMT 0x23:  1280x1024   60.019740 Hz   5:4     63.981 kHz    108.000000 MHz
    GTF     :  1280x1024   69.999805 Hz   5:4     74.620 kHz    128.943000 MHz
    GTF     :  1280x1024   72.000069 Hz   5:4     76.824 kHz    132.752000 MHz
    DMT 0x55:  1280x720    60.000000 Hz  16:9     45.000 kHz     74.250000 MHz
  Detailed Timing Descriptors:
    DTD 1:  1920x1080   60.000000 Hz  16:9     67.500 kHz    148.500000 MHz (368 mm x 207 mm)
                 Hfront   88 Hsync  44 Hback  148 Hpol P
                 Vfront    4 Vsync   5 Vback   36 Vpol P
    DTD 2:  1680x1050   59.883253 Hz  16:10    64.674 kHz    119.000000 MHz (455 mm x 256 mm)
                 Hfront   48 Hsync  32 Hback   80 Hpol P
                 Vfront    3 Vsync   6 Vback   21 Vpol N
    DTD 3:  1440x900    59.901458 Hz  16:10    55.469 kHz     88.750000 MHz (453 mm x 255 mm)
                 Hfront   48 Hsync  32 Hback   80 Hpol P
                 Vfront    3 Vsync   6 Vback   17 Vpol N
    Display Product Name: 'DIGITAL'
Checksum: 0x53

----------------

Block 1, Unknown EDID Extension Block 0x00:
  00 ff ff ff ff ff ff 00 36 74 50 21 00 00 00 00 '........6tP!....'
  01 14 01 03 80 33 1d 78 ea d6 a5 a2 59 4a 95 24 '.....3.x....YJ.$'
  14 50 54 ad cf 00 31 4a 45 4a 61 4c 81 80 81 8a '.PT...1JEJaL....'
  81 8c 81 c0 01 01 02 3a 80 18 71 38 2d 40 58 2c '.......:..q8-@X,'
  45 00 70 cf 10 00 00 1e 7c 2e 90 a0 60 1a 1e 40 'E.p.....|...`..@'
  30 20 36 00 c7 00 11 00 00 1a ab 22 a0 a0 50 84 '0 6........"..P.'
  1a 30 30 20 36 00 c5 ff 10 00 00 1a 00 00 00 fc '.00 6...........'
  00 44 49 47 49 54 41 4c 0a 20 20 20 20 20 00 53 '.DIGITAL.     .S'
Checksum: 0x53

----------------

Failures:

Block 0, Base EDID:
  Detailed Timing Descriptor #1: Mismatch of image size 368x207 mm vs display size 510x290 mm.
  Detailed Timing Descriptor #2: Mismatch of image size 455x256 mm vs display size 510x290 mm.
  Detailed Timing Descriptor #3: Mismatch of image size 453x255 mm vs display size 510x290 mm.
  Missing Display Range Limits Descriptor.
Block 1, Base EDID:
  Unknown Extension Block.
EDID:
  Base EDID: EDID specified 0 extension block(s), but found 1 extension block(s).

EDID conformity: FAIL
