
EDID (hex):
00ffffffffffff0046ae501801000000
07150103682c1964efc5c6a3574a9c23
124f54af0f008180818fa9c081c00101
010101010101302a40c8608464301850
13009ae61000001e662150b051001b30
407036009ae61000001e2f1300204158
1820408033009ae61000001c000000fc
004c656e6f766f2041494f20200a0087

Extracted contents:
header:          00 ff ff ff ff ff ff 00
serial number:   46 ae 50 18 01 00 00 00 07 15
version:         01 03
basic params:    68 2c 19 64 ef
chroma info:     c5 c6 a3 57 4a 9c 23 12 4f 54
established:     af 0f 00
standard:        81 80 81 8f a9 c0 81 c0 01 01 01 01 01 01 01 01
descriptor 1:    30 2a 40 c8 60 84 64 30 18 50 13 00 9a e6 10 00 00 1e
descriptor 2:    66 21 50 b0 51 00 1b 30 40 70 36 00 9a e6 10 00 00 1e
descriptor 3:    2f 13 00 20 41 58 18 20 40 80 33 00 9a e6 10 00 00 1c
descriptor 4:    00 00 00 fc 00 4c 65 6e 6f 76 6f 20 41 49 4f 20 20 0a
extensions:      00
checksum:        87

EDID version: 1.3
Manufacturer: QUN Model 1850 Serial Number --
Made in week 7 of 2011
Analog display, Input voltage level: 0.7/0.7 V
Sync: Separate 
Maximum image size: 44 cm x 25 cm
Gamma: 2.00
DPMS levels: Standby Suspend Off
RGB color display
Default (sRGB) color space is primary color space
First detailed timing is preferred timing
Supports GTF timings within operating range
Display x,y Chromaticity:
  Red:   0.6396, 0.3398
  Green: 0.2900, 0.6103
  Blue:  0.1396, 0.0703
  White: 0.3095, 0.3300
Established timings supported:
  720x400@70Hz 9:5 HorFreq: 31469 Hz Clock: 28.320 MHz
  640x480@60Hz 4:3 HorFreq: 31469 Hz Clock: 25.175 MHz
  640x480@72Hz 4:3 HorFreq: 37900 Hz Clock: 31.500 MHz
  640x480@75Hz 4:3 HorFreq: 37500 Hz Clock: 31.500 MHz
  800x600@56Hz 4:3 HorFreq: 35200 Hz Clock: 36.000 MHz
  800x600@60Hz 4:3 HorFreq: 37900 Hz Clock: 40.000 MHz
  1024x768@60Hz 4:3 HorFreq: 48400 Hz Clock: 65.000 MHz
  1024x768@70Hz 4:3 HorFreq: 56500 Hz Clock: 75.000 MHz
  1024x768@75Hz 4:3 HorFreq: 60000 Hz Clock: 78.750 MHz
  1280x1024@75Hz 5:4 HorFreq: 80000 Hz Clock: 135.000 MHz
Standard timings supported:
  1280x1024@60Hz 5:4 HorFreq: 64000 Hz Clock: 108.000 MHz
  1280x1024@75Hz 5:4 HorFreq: 80000 Hz Clock: 135.000 MHz
  1600x900@60Hz 16:9
  1280x720@60Hz 16:9
Detailed mode: Clock 108.000 MHz, 410 mm x 230 mm
               1600 1624 1704 1800 hborder 0
                900  901  904 1000 vborder 0
               +hsync +vsync 
               VertFreq: 60 Hz, HorFreq: 60000 Hz
Detailed mode: Clock 85.500 MHz, 410 mm x 230 mm
               1360 1424 1536 1792 hborder 0
                768  771  777  795 vborder 0
               +hsync +vsync 
               VertFreq: 60 Hz, HorFreq: 47712 Hz
Detailed mode: Clock 49.110 MHz, 410 mm x 230 mm
               1024 1088 1216 1312 hborder 0
                600  603  606  624 vborder 0
               -hsync +vsync 
               VertFreq: 59 Hz, HorFreq: 37431 Hz
Monitor name: Lenovo AIO  
Checksum: 0x87 (valid)
EDID block does NOT conform to EDID 1.3!
	sRGB is signaled, but the chromaticities do not match
	Missing monitor ranges
