
EDID (hex):
00ffffffffffff004c83594200000000
00190104a51d11780a9f65a2574c9b26
12505400000001010101010101010101
0101010101012a3680a070381f403020
250025a5100000191c2480a070381f40
3020250025a510000019000000000000
00000000000000000000000000000002
000c33ff0a3c96152929960000000082

Extracted contents:
header:          00 ff ff ff ff ff ff 00
serial number:   4c 83 59 42 00 00 00 00 00 19
version:         01 04
basic params:    a5 1d 11 78 0a
chroma info:     9f 65 a2 57 4c 9b 26 12 50 54
established:     00 00 00
standard:        01 01 01 01 01 01 01 01 01 01 01 01 01 01 01 01
descriptor 1:    2a 36 80 a0 70 38 1f 40 30 20 25 00 25 a5 10 00 00 19
descriptor 2:    1c 24 80 a0 70 38 1f 40 30 20 25 00 25 a5 10 00 00 19
descriptor 3:    00 00 00 00 00 00 00 00 00 00 00 00 00 00 00 00 00 00
descriptor 4:    00 00 00 02 00 0c 33 ff 0a 3c 96 15 29 29 96 00 00 00
extensions:      00
checksum:        82

EDID version: 1.4
Manufacturer: SDC Model 4259 Serial Number --
Made in year 2015
Digital display
8 bits per primary color channel
DisplayPort interface
Maximum image size: 29 cm x 17 cm
Gamma: 2.20
Supported color formats: RGB 4:4:4, YCrCb 4:4:4
First detailed timing includes the native pixel format and preferred refresh rate
Display x,y Chromaticity:
  Red:   0.6347, 0.3408
  Green: 0.2998, 0.6083
  Blue:  0.1494, 0.0722
  White: 0.3134, 0.3291
Established timings supported:
Standard timings supported:
Detailed mode: Clock 138.660 MHz, 293 mm x 165 mm
               1920 1968 2000 2080 hborder 0
               1080 1082 1087 1111 vborder 0
               -hsync -vsync 
               VertFreq: 60 Hz, HorFreq: 66663 Hz
Detailed mode: Clock 92.440 MHz, 293 mm x 165 mm
               1920 1968 2000 2080 hborder 0
               1080 1082 1087 1111 vborder 0
               -hsync -vsync 
               VertFreq: 40 Hz, HorFreq: 44442 Hz
Manufacturer-specified data, tag 0
Manufacturer-specified data, tag 2
Checksum: 0x82 (valid)
EDID block does NOT conform to EDID 1.4!
	Missing name descriptor
	Missing monitor ranges
