
EDID (hex):
00ffffffffffff000dae761700000000
151f0104a526157803ee95a3544c9926
0f505400000001010101010101010101
0101010101011a9980a070380c483020
36007dd61000001a000000fd003ca5bc
bc27010a202020202020000000fe0043
5858323480313733484d450a00000000
0002410f9e000000000f410a202001e7
70137900000301141a9900847f079f00
2f001f0037043d000900040000000000
00000000000000000000000000000000
00000000000000000000000000000000
00000000000000000000000000000000
00000000000000000000000000000000
00000000000000000000000000000000
00000000000000000000000000002d90

Extracted contents:
header:          00 ff ff ff ff ff ff 00
serial number:   0d ae 76 17 00 00 00 00 15 1f
version:         01 04
basic params:    a5 26 15 78 03
chroma info:     ee 95 a3 54 4c 99 26 0f 50 54
established:     00 00 00
standard:        01 01 01 01 01 01 01 01 01 01 01 01 01 01 01 01
descriptor 1:    1a 99 80 a0 70 38 0c 48 30 20 36 00 7d d6 10 00 00 1a
descriptor 2:    00 00 00 fd 00 3c a5 bc bc 27 01 0a 20 20 20 20 20 20
descriptor 3:    00 00 00 fe 00 43 58 58 32 34 80 31 37 33 48 4d 45 0a
descriptor 4:    00 00 00 00 00 02 41 0f 9e 00 00 00 00 0f 41 0a 20 20
extensions:      01
checksum:        e7

EDID version: 1.4
Manufacturer: CMN Model 1776 Serial Number --
Made in week 21 of 2021
Digital display
8 bits per primary color channel
DisplayPort interface
Maximum image size: 38 cm x 21 cm
Gamma: 2.20
Supported color formats: RGB 4:4:4
First detailed timing includes the native pixel format and preferred refresh rate
Display is continuous frequency
Display x,y Chromaticity:
  Red:   0.6396, 0.3300
  Green: 0.2998, 0.5996
  Blue:  0.1503, 0.0595
  White: 0.3134, 0.3291
Established timings supported:
Standard timings supported:
Detailed mode: Clock 391.940 MHz, 381 mm x 214 mm
               1920 1968 2000 2080 hborder 0
               1080 1083 1089 3140 vborder 0
               +hsync -vsync 
               VertFreq: 60 Hz, HorFreq: 188432 Hz
Monitor ranges (bare limits): 60-165Hz V, 188-188kHz H, max dotclock 390MHz
ASCII string: CXX24
Manufacturer-specified data, tag 0
Has 1 extension blocks
Checksum: 0xe7 (valid)

DisplayID extension block
Extension version: 19
Length 121, version 19, extension count 0
Checksum: 0x2d (valid)
Type 1 detailed timing: aspect: 16:9, Preferred  
Detailed mode: Clock 391.940 MHz, 0 mm x 0 mm
               1919 1966 1997 2078
               1079 1088 1092 1140
               -hsync -vsync

EDID block does NOT conform to EDID 1.4!
	Missing name descriptor
	Detailed block string not properly terminated
Warning: One or more of the timings is out of range of the Monitor Ranges:
  Vertical Freq: 60 - 60 Hz
  Horizontal Freq: 188432 - 188432 Hz
  Maximum Clock: 391.940 MHz
EDID block does not conform at all!
	Has 419430400 nonconformant extension block(s)
