
EDID (hex):
00ffffffffffff004d10451400000000
2f190104a523137806df50a35435b526
0f505400000001010101010101010101
0101010101014dd000a0f0703e803020
35005ac2100000184dd000a0f070fa81
302035005ac2100000184dd000a0f070
6882302035005ac21000001800000002
000a2dff0f3cab29173dab0000000086

Extracted contents:
header:          00 ff ff ff ff ff ff 00
serial number:   4d 10 45 14 00 00 00 00 2f 19
version:         01 04
basic params:    a5 23 13 78 06
chroma info:     df 50 a3 54 35 b5 26 0f 50 54
established:     00 00 00
standard:        01 01 01 01 01 01 01 01 01 01 01 01 01 01 01 01
descriptor 1:    4d d0 00 a0 f0 70 3e 80 30 20 35 00 5a c2 10 00 00 18
descriptor 2:    4d d0 00 a0 f0 70 fa 81 30 20 35 00 5a c2 10 00 00 18
descriptor 3:    4d d0 00 a0 f0 70 68 82 30 20 35 00 5a c2 10 00 00 18
descriptor 4:    00 00 00 02 00 0a 2d ff 0f 3c ab 29 17 3d ab 00 00 00
extensions:      00
checksum:        86

EDID version: 1.4
Manufacturer: SHP Model 1445 Serial Number --
Made in week 47 of 2015
Digital display
8 bits per primary color channel
DisplayPort interface
Maximum image size: 35 cm x 19 cm
Gamma: 2.20
Supported color formats: RGB 4:4:4
Default (sRGB) color space is primary color space
First detailed timing includes the native pixel format and preferred refresh rate
Display x,y Chromaticity:
  Red:   0.6396, 0.3291
  Green: 0.2099, 0.7099
  Blue:  0.1494, 0.0595
  White: 0.3125, 0.3281
Established timings supported:
Standard timings supported:
Detailed mode: Clock 533.250 MHz, 346 mm x 194 mm
               3840 3888 3920 4000 hborder 0
               2160 2163 2168 2222 vborder 0
               -hsync -vsync 
               VertFreq: 59 Hz, HorFreq: 133312 Hz
Detailed mode: Clock 533.250 MHz, 346 mm x 194 mm
               3840 3888 3920 4000 hborder 0
               2160 2163 2168 2666 vborder 0
               -hsync -vsync 
               VertFreq: 50 Hz, HorFreq: 133312 Hz
Detailed mode: Clock 533.250 MHz, 346 mm x 194 mm
               3840 3888 3920 4000 hborder 0
               2160 2163 2168 2776 vborder 0
               -hsync -vsync 
               VertFreq: 48 Hz, HorFreq: 133312 Hz
Manufacturer-specified data, tag 2
Checksum: 0x86 (valid)
EDID block does NOT conform to EDID 1.4!
	sRGB is signaled, but the chromaticities do not match
	Missing name descriptor
	Missing monitor ranges


