
EDID (hex):
00ffffffffffff004d10632101010101
181101030e1e1778eaebe594524e8b26
205054bfee0001010101010101010101
01010101010164190040410026301888
360030e410000018000000fc004c4c2d
313533412d420a202020000000fd0037
4c183e08000a202020202020000000ff
0037543030303132360a20202020005a

Extracted contents:
header:          00 ff ff ff ff ff ff 00
serial number:   4d 10 63 21 01 01 01 01 18 11
version:         01 03
basic params:    0e 1e 17 78 ea
chroma info:     eb e5 94 52 4e 8b 26 20 50 54
established:     bf ee 00
standard:        01 01 01 01 01 01 01 01 01 01 01 01 01 01 01 01
descriptor 1:    64 19 00 40 41 00 26 30 18 88 36 00 30 e4 10 00 00 18
descriptor 2:    00 00 00 fc 00 4c 4c 2d 31 35 33 41 2d 42 0a 20 20 20
descriptor 3:    00 00 00 fd 00 37 4c 18 3e 08 00 0a 20 20 20 20 20 20
descriptor 4:    00 00 00 ff 00 37 54 30 30 30 31 32 36 0a 20 20 20 20
extensions:      00
checksum:        5a

EDID version: 1.3
Manufacturer: SHP Model 2163 Serial Number --
Made in week 24 of 2007
Analog display, Input voltage level: 0.7/0.3 V
Sync: Separate Composite SyncOnGreen 
Maximum image size: 30 cm x 23 cm
Gamma: 2.20
DPMS levels: Standby Suspend Off
RGB color display
First detailed timing is preferred timing
Display x,y Chromaticity:
  Red:   0.5810, 0.3222
  Green: 0.3066, 0.5458
  Blue:  0.1513, 0.1269
  White: 0.3134, 0.3291
Established timings supported:
  720x400@70Hz 9:5 HorFreq: 31469 Hz Clock: 28.320 MHz
  640x480@60Hz 4:3 HorFreq: 31469 Hz Clock: 25.175 MHz
  640x480@67Hz 4:3 HorFreq: 35000 Hz Clock: 30.240 MHz
  640x480@72Hz 4:3 HorFreq: 37900 Hz Clock: 31.500 MHz
  640x480@75Hz 4:3 HorFreq: 37500 Hz Clock: 31.500 MHz
  800x600@56Hz 4:3 HorFreq: 35200 Hz Clock: 36.000 MHz
  800x600@60Hz 4:3 HorFreq: 37900 Hz Clock: 40.000 MHz
  800x600@72Hz 4:3 HorFreq: 48100 Hz Clock: 50.000 MHz
  800x600@75Hz 4:3 HorFreq: 46900 Hz Clock: 49.500 MHz
  832x624@75Hz 4:3 HorFreq: 49726 Hz Clock: 57.284 MHz
  1024x768@60Hz 4:3 HorFreq: 48400 Hz Clock: 65.000 MHz
  1024x768@70Hz 4:3 HorFreq: 56500 Hz Clock: 75.000 MHz
  1024x768@75Hz 4:3 HorFreq: 60000 Hz Clock: 78.750 MHz
Standard timings supported:
Detailed mode: Clock 65.000 MHz, 304 mm x 228 mm
               1024 1048 1184 1344 hborder 0
                768  771  777  806 vborder 0
               -hsync -vsync 
               VertFreq: 60 Hz, HorFreq: 48363 Hz
Monitor name: LL-153A-B
Monitor ranges (GTF): 55-76Hz V, 24-62kHz H, max dotclock 80MHz
Serial number: --
Checksum: 0x5a (valid)
