
EDID (hex):
00ffffffffffff0006afaf0800000000
00210104a51f117802dff5a6554a9824
10505400000001010101010101010101
010101010101093780b8703824401010
3e0035ae1000001a072c80b870382440
10103e0035ae1000001a000000fe0052
4b474d32144231343048414e00000000
00028102ee000100000a410a2020008f

edid-decode (hex):

00 ff ff ff ff ff ff 00 06 af af 08 00 00 00 00
00 21 01 04 a5 1f 11 78 02 df f5 a6 55 4a 98 24
10 50 54 00 00 00 01 01 01 01 01 01 01 01 01 01
01 01 01 01 01 01 09 37 80 b8 70 38 24 40 10 10
3e 00 35 ae 10 00 00 1a 07 2c 80 b8 70 38 24 40
10 10 3e 00 35 ae 10 00 00 1a 00 00 00 fe 00 52
4b 47 4d 32 14 42 31 34 30 48 41 4e 00 00 00 00
00 02 81 02 ee 00 01 00 00 0a 41 0a 20 20 00 8f

----------------

Block 0, Base EDID:
  EDID Structure Version & Revision: 1.4
  Vendor & Product Identification:
    Manufacturer: AUO
    Model: 2223
    Made in: 2023
  Basic Display Parameters & Features:
    Digital display
    Bits per primary color channel: 8
    DisplayPort interface
    Maximum image size: 31 cm x 17 cm
    Gamma: 2.20
    Supported color formats: RGB 4:4:4
    First detailed timing includes the native pixel format and preferred refresh rate
  Color Characteristics:
    Red  : 0.6513, 0.3330
    Green: 0.2919, 0.5966
    Blue : 0.1435, 0.0654
    White: 0.3134, 0.3291
  Established Timings I & II: none
  Standard Timings: none
  Detailed Timing Descriptors:
    DTD 1:  1920x1080   60.002623 Hz  16:9     66.963 kHz    140.890000 MHz (309 mm x 174 mm)
                 Hfront   16 Hsync  16 Hback  152 Hpol P
                 Vfront    3 Vsync  14 Vback   19 Vpol N
    DTD 2:  1920x1080   48.001247 Hz  16:9     53.569 kHz    112.710000 MHz (309 mm x 174 mm)
                 Hfront   16 Hsync  16 Hback  152 Hpol P
                 Vfront    3 Vsync  14 Vback   19 Vpol N
    Alphanumeric Data String: 'RKGM2'
    Manufacturer-Specified Display Descriptor (0x00): 00 00 00 02 81 02 ee 00 01 00 00 0a 41 0a 20 20 '............A.  '
Checksum: 0x8f
