
EDID (hex):
00ffffffffffff001c54004801010101
1e1f0104c5462778fb9f75ad5243ac24
0c5054254a00d1c081809500b3000101
0101010101014dd000a0f0703e803020
3500b9882100001e000000fd0c307812
1277010a202020202020000000fc0041
4f52555320464f3438550a20000000ff
003231333030423030353836390a02a0
020333714d020311121304292f20103f
615d23090707830100006d1a00000201
2878000000000000e305e301e6060d01
656512f65b006ea0a01f5017201804b9
882100001e3ec200a0a0a05550302035
00b9882100001e000000000000000000
00000000000000000000000000000000
000000000000000000000000000000f1
7012670000030164bace0104ff0e0f02
2f801f006f08630004800700ba7e0006
6f0d9f002f801f009f053d0002800400
75fd00066f0d9f002f801f009f053d00
028004000f6b0008ff0e9f002f801f00
37043d00028004001fd60008ff0e9f00
2f801f0037043d00028004007c000000
00000000000000000000000000007c14

Extracted contents:
header:          00 ff ff ff ff ff ff 00
serial number:   1c 54 00 48 01 01 01 01 1e 1f
version:         01 04
basic params:    c5 46 27 78 fb
chroma info:     9f 75 ad 52 43 ac 24 0c 50 54
established:     25 4a 00
standard:        d1 c0 81 80 95 00 b3 00 01 01 01 01 01 01 01 01
descriptor 1:    4d d0 00 a0 f0 70 3e 80 30 20 35 00 b9 88 21 00 00 1e
descriptor 2:    00 00 00 fd 0c 30 78 12 12 77 01 0a 20 20 20 20 20 20
descriptor 3:    00 00 00 fc 00 41 4f 52 55 53 20 46 4f 34 38 55 0a 20
descriptor 4:    00 00 00 ff 00 32 31 33 30 30 42 30 30 35 38 36 39 0a
extensions:      02
checksum:        a0

EDID version: 1.4
Manufacturer: GBT Model 4800 Serial Number --
Made in week 30 of 2021
Digital display
12 bits per primary color channel
DisplayPort interface
Maximum image size: 70 cm x 39 cm
Gamma: 2.20
DPMS levels: Standby Suspend Off
Supported color formats: RGB 4:4:4, YCrCb 4:4:4, YCrCb 4:2:2
First detailed timing includes the native pixel format and preferred refresh rate
Display is continuous frequency
Display x,y Chromaticity:
  Red:   0.6777, 0.3212
  Green: 0.2646, 0.6748
  Blue:  0.1416, 0.0498
  White: 0.3134, 0.3291
Established timings supported:
  640x480@60Hz 4:3 HorFreq: 31469 Hz Clock: 25.175 MHz
  640x480@75Hz 4:3 HorFreq: 37500 Hz Clock: 31.500 MHz
  800x600@60Hz 4:3 HorFreq: 37900 Hz Clock: 40.000 MHz
  800x600@75Hz 4:3 HorFreq: 46900 Hz Clock: 49.500 MHz
  1024x768@60Hz 4:3 HorFreq: 48400 Hz Clock: 65.000 MHz
  1024x768@75Hz 4:3 HorFreq: 60000 Hz Clock: 78.750 MHz
Standard timings supported:
  1920x1080@60Hz 16:9
  1280x1024@60Hz 5:4 HorFreq: 64000 Hz Clock: 108.000 MHz
  1440x900@60Hz 16:10 HorFreq: 55500 Hz Clock: 88.750 MHz
  1680x1050@60Hz 16:10 HorFreq: 64700 Hz Clock: 119.000 MHz
Detailed mode: Clock 533.250 MHz, 697 mm x 392 mm
               3840 3888 3920 4000 hborder 0
               2160 2163 2168 2222 vborder 0
               +hsync +vsync 
               VertFreq: 59 Hz, HorFreq: 133312 Hz
Monitor ranges (bare limits): 48-120Hz V, 18-273kHz H, max dotclock 1190MHz
Monitor name: AORUS FO48U
Serial number: --
Has 2 extension blocks
Checksum: 0xa0 (valid)

CTA extension block
Extension version: 3
47 bytes of CTA data
  Video data block
    VIC   2 720x480@60Hz 4:3  HorFreq: 31469 Hz Clock: 27.000 MHz
    VIC   3 720x480@60Hz 16:9  HorFreq: 31469 Hz Clock: 27.000 MHz
    VIC  17 720x576@50Hz 4:3  HorFreq: 31250 Hz Clock: 27.000 MHz
    VIC  18 720x576@50Hz 16:9  HorFreq: 31250 Hz Clock: 27.000 MHz
    VIC  19 1280x720@50Hz 16:9  HorFreq: 37500 Hz Clock: 74.250 MHz
    VIC   4 1280x720@60Hz 16:9  HorFreq: 45000 Hz Clock: 74.250 MHz
    VIC  41 1280x720@100Hz 16:9  HorFreq: 75000 Hz Clock: 148.500 MHz
    VIC  47 1280x720@120Hz 16:9  HorFreq: 90000 Hz Clock: 148.500 MHz
    VIC  32 1920x1080@24Hz 16:9  HorFreq: 27000 Hz Clock: 74.250 MHz
    VIC  16 1920x1080@60Hz 16:9  HorFreq: 67500 Hz Clock: 148.500 MHz
    VIC  63 1920x1080@120Hz 16:9  HorFreq: 135000 Hz Clock: 297.000 MHz
    VIC  97 3840x2160@60Hz 16:9  HorFreq: 135000 Hz Clock: 594.000 MHz
    VIC  93 3840x2160@24Hz 16:9  HorFreq: 54000 Hz Clock: 297.000 MHz
  Audio data block
    Linear PCM, max channels 2
      Supported sample rates (kHz): 48 44.1 32
      Supported sample sizes (bits): 24 20 16
  Speaker allocation data block
    Speaker map:
      FL/FR - Front Left/Right
  Vendor-specific data block, OUI 00001a
  Extended tag: Colorimetry data block
    xvYCC601
    xvYCC709
    BT2020cYCC
    BT2020YCC
    BT2020RGB
  Extended tag: HDR static metadata data block
    Electro optical transfer functions:
      Traditional gamma - SDR luminance range
      SMPTE ST2084
      Hybrid Log-Gamma
    Supported static metadata descriptors:
      Static metadata type 1
    Desired content max luminance: 101 (445.755 cd/m^2)
    Desired content max frame-average luminance: 101 (445.755 cd/m^2)
    Desired content min luminance: 18 (0.022 cd/m^2)
Basic audio support
Supports YCbCr 4:4:4
Supports YCbCr 4:2:2
1 native detailed modes
Detailed mode: Clock 235.420 MHz, 697 mm x 392 mm
               2560 2583 2615 2670 hborder 0
               1440 1457 1465 1471 vborder 0
               +hsync +vsync 
               VertFreq: 59 Hz, HorFreq: 88172 Hz
Detailed mode: Clock 497.260 MHz, 697 mm x 392 mm
               2560 2608 2640 2720 hborder 0
               1440 1443 1448 1525 vborder 0
               +hsync +vsync 
               VertFreq: 119 Hz, HorFreq: 182816 Hz
Checksum: 0xf1 (valid)


DisplayID extension block
Extension version: 18
Length 103, version 18, extension count 0
Checksum: 0x7c (valid)
Type 1 detailed timing: aspect: 16:9,  
Detailed mode: Clock 1184.580 MHz, 0 mm x 0 mm
               3839 3886 3917 4366
               2159 2163 2170 2258
               +hsync +vsync
Type 1 detailed timing: aspect: 64:27,  
Detailed mode: Clock 324.420 MHz, 0 mm x 0 mm
               3439 3486 3517 3598
               1439 1441 1445 1500
               +hsync +vsync
Type 1 detailed timing: aspect: 64:27,  
Detailed mode: Clock 648.850 MHz, 0 mm x 0 mm
               3439 3486 3517 3598
               1439 1441 1445 1500
               +hsync +vsync
Type 1 detailed timing: aspect: undefined,  
Detailed mode: Clock 274.070 MHz, 0 mm x 0 mm
               3839 3886 3917 3998
               1079 1081 1085 1140
               +hsync +vsync
Type 1 detailed timing: aspect: undefined,  
Detailed mode: Clock 548.150 MHz, 0 mm x 0 mm
               3839 3886 3917 3998
               1079 1081 1085 1140
               +hsync +vsync

Warning: One or more of the timings is out of range of the Monitor Ranges:
  Vertical Freq: 24 - 120 Hz
  Horizontal Freq: 27000 - 182816 Hz
  Maximum Clock: 594.000 MHz
EDID block does not conform at all!
	Both the serial number and the serial string are set


