
EDID (hex):
00ffffffffffff0006af2d5000000000
1a1b0104a51d107802a4159e554e9b26
0f505400000001010101010101010101
010101010101b43780a070383e403a2a
350025a21000001ab43780a070385c41
3a2a350025a21000001a000000fe0052
4e355454804231333348414e00000000
00024102a8011100000a010a2020003c

Extracted contents:
header:          00 ff ff ff ff ff ff 00
serial number:   06 af 2d 50 00 00 00 00 1a 1b
version:         01 04
basic params:    a5 1d 10 78 02
chroma info:     a4 15 9e 55 4e 9b 26 0f 50 54
established:     00 00 00
standard:        01 01 01 01 01 01 01 01 01 01 01 01 01 01 01 01
descriptor 1:    b4 37 80 a0 70 38 3e 40 3a 2a 35 00 25 a2 10 00 00 1a
descriptor 2:    b4 37 80 a0 70 38 5c 41 3a 2a 35 00 25 a2 10 00 00 1a
descriptor 3:    00 00 00 fe 00 52 4e 35 54 54 80 42 31 33 33 48 41 4e
descriptor 4:    00 00 00 00 00 02 41 02 a8 01 11 00 00 0a 01 0a 20 20
extensions:      00
checksum:        3c

EDID version: 1.4
Manufacturer: AUO Model 502d Serial Number --
Made in week 26 of 2017
Digital display
8 bits per primary color channel
DisplayPort interface
Maximum image size: 29 cm x 16 cm
Gamma: 2.20
Supported color formats: RGB 4:4:4
First detailed timing includes the native pixel format and preferred refresh rate
Display x,y Chromaticity:
  Red:   0.6191, 0.3339
  Green: 0.3056, 0.6054
  Blue:  0.1484, 0.0595
  White: 0.3134, 0.3291
Established timings supported:
Standard timings supported:
Detailed mode: Clock 142.600 MHz, 293 mm x 162 mm
               1920 1978 2020 2080 hborder 0
               1080 1083 1088 1142 vborder 0
               +hsync -vsync 
               VertFreq: 60 Hz, HorFreq: 68557 Hz
Detailed mode: Clock 142.600 MHz, 293 mm x 162 mm
               1920 1978 2020 2080 hborder 0
               1080 1083 1088 1428 vborder 0
               +hsync -vsync 
               VertFreq: 48 Hz, HorFreq: 68557 Hz
ASCII string: RN5TT
Manufacturer-specified data, tag 0
Checksum: 0x3c (valid)
EDID block does NOT conform to EDID 1.4!
	Missing name descriptor
	Missing monitor ranges
	Detailed block string not properly terminated
