
EDID (hex):
00ffffffffffff0006afa42600000000
01200104b51e1378032204a9544a9e24
0e535900000001010101010101010101
010101010101188640a0b00852703020
35002dbc10000018000000fd002878e3
e345010a202020202020000000fe0041
554f0a202020202020202020000000fe
004231343051414e30342e48200a013f
7013790000030114300c01843f0b9f00
2f001f00070751000200040000000000
00000000000000000000000000000000
00000000000000000000000000000000
00000000000000000000000000000000
00000000000000000000000000000000
00000000000000000000000000000000
0000000000000000000000000000ff90

edid-decode (hex):

00 ff ff ff ff ff ff 00 06 af a4 26 00 00 00 00
01 20 01 04 b5 1e 13 78 03 22 04 a9 54 4a 9e 24
0e 53 59 00 00 00 01 01 01 01 01 01 01 01 01 01
01 01 01 01 01 01 18 86 40 a0 b0 08 52 70 30 20
35 00 2d bc 10 00 00 18 00 00 00 fd 00 28 78 e3
e3 45 01 0a 20 20 20 20 20 20 00 00 00 fe 00 41
55 4f 0a 20 20 20 20 20 20 20 20 20 00 00 00 fe
00 42 31 34 30 51 41 4e 30 34 2e 48 20 0a 01 3f

70 13 79 00 00 03 01 14 30 0c 01 84 3f 0b 9f 00
2f 00 1f 00 07 07 51 00 02 00 04 00 00 00 00 00
00 00 00 00 00 00 00 00 00 00 00 00 00 00 00 00
00 00 00 00 00 00 00 00 00 00 00 00 00 00 00 00
00 00 00 00 00 00 00 00 00 00 00 00 00 00 00 00
00 00 00 00 00 00 00 00 00 00 00 00 00 00 00 00
00 00 00 00 00 00 00 00 00 00 00 00 00 00 00 00
00 00 00 00 00 00 00 00 00 00 00 00 00 00 ff 90

----------------

Block 0, Base EDID:
  EDID Structure Version & Revision: 1.4
  Vendor & Product Identification:
    Manufacturer: AUO
    Model: 9892
    Made in: week 1 of 2022
  Basic Display Parameters & Features:
    Digital display
    Bits per primary color channel: 10
    DisplayPort interface
    Maximum image size: 30 cm x 19 cm
    Gamma: 2.20
    Supported color formats: RGB 4:4:4
    First detailed timing includes the native pixel format and preferred refresh rate
    Display is continuous frequency
  Color Characteristics:
    Red  : 0.6601, 0.3300
    Green: 0.2890, 0.6191
    Blue : 0.1406, 0.0546
    White: 0.3251, 0.3476
  Established Timings I & II: none
  Standard Timings: none
  Detailed Timing Descriptors:
    DTD 1:  2880x1800   60.000559 Hz  16:10   112.921 kHz    343.280000 MHz (301 mm x 188 mm)
                 Hfront   48 Hsync  32 Hback   80 Hpol N
                 Vfront    3 Vsync   5 Vback   74 Vpol N
    Display Range Limits:
      Monitor ranges (Bare Limits): 40-120 Hz V, 227-227 kHz H, max dotclock 690 MHz
    Alphanumeric Data String: 'AUO'
    Alphanumeric Data String: 'B140QAN04.H '
  Extension blocks: 1
Checksum: 0x3f

----------------

Block 1, DisplayID Extension Block:
  Version: 1.3
  Extension Count: 0
  Display Product Type: Extension Section
  Video Timing Modes Type 1 - Detailed Timings Data Block:
    DTD:  2880x1800  120.002866 Hz  16:9    225.845 kHz    686.570000 MHz (aspect 16:9, no 3D stereo, preferred)
               Hfront   48 Hsync  32 Hback   80 Hpol N
               Vfront    3 Vsync   5 Vback   74 Vpol N
  Checksum: 0xff
Checksum: 0x90
