edid-decode (hex):

00 ff ff ff ff ff ff 00 30 64 00 53 30 35 30 31
28 0f 01 03 80 1d 15 78 0a 2d 8e 9b 54 4c 8a 26
20 50 54 00 00 00 61 40 01 01 01 01 01 01 01 01
01 01 01 01 01 01 64 19 00 40 41 00 26 30 18 88
36 00 1f d7 10 00 00 18 28 15 00 40 41 00 26 30
18 88 36 00 1f d7 10 00 00 00 00 00 00 fe 00 47
35 39 38 33 a4 31 34 31 45 43 37 0a 00 00 00 fe
00 f3 e0 d2 c8 9d 68 42 00 01 01 0a 20 20 00 7a

----------------

Block 0, Base EDID:
  EDID Structure Version & Revision: 1.3
  Vendor & Product Identification:
    Manufacturer: LCD
    Model: 21248
    Serial Number: ...
    Made in: week 40 of 2005
  Basic Display Parameters & Features:
    Digital display
    Maximum image size: 29 cm x 21 cm
    Gamma: 2.20
    RGB color display
    First detailed timing is the preferred timing
  Color Characteristics:
    Red  : 0.6054, 0.3300
    Green: 0.2998, 0.5400
    Blue : 0.1503, 0.1250
    White: 0.3154, 0.3300
  Established Timings I & II: none
  Standard Timings:
    DMT 0x10:  1024x768    60.004 Hz   4:3    48.363 kHz  65.000 MHz
  Detailed Timing Descriptors:
    DTD 1:  1024x768    60.004 Hz   4:3    48.363 kHz  65.000 MHz (287 mm x 215 mm)
                 Hfront   24 Hsync 136 Hback 160 Hpol N
                 Vfront    3 Vsync   6 Vback  29 Vpol N
    DTD 2:  1024x768    49.997 Hz   4:3    40.298 kHz  54.160 MHz (287 mm x 215 mm)
                 Hfront   24 Hsync 136 Hback 160 Hpol N
                 Vfront    3 Vsync   6 Vback  29 Vpol N
    SPWG Module Revision: 0
    SPWG Descriptor #3:
      SPWG PC Maker P/N: 'G5983'
      SPWG LCD Supplier EEDID Revision: 164
      SPWG Manufacturer P/N: '141EC7'
    SPWG Descriptor #4:
      SMBUS Values: 0xf3 0xe0 0xd2 0xc8 0x9d 0x68 0x42 0x00
      LVDS Channels: 1
      Panel Self Test Present
Checksum: 0x7a

----------------

Failures:

Block 0, Base EDID:
  Missing Display Product Name.
  Missing Display Range Limits Descriptor.

EDID conformity: FAIL
