edid-decode (hex):

00 ff ff ff ff ff ff 00 39 e2 3c 0a 01 01 01 01
00 15 01 04 a5 46 27 78 22 97 7d a4 56 4b 98 1d
10 47 4a 2f ce 00 01 01 01 01 01 01 01 01 01 01
01 01 01 01 01 01 02 3a 80 18 71 38 2d 40 58 2c
45 00 ba 88 21 00 00 1e 00 00 00 fd 00 38 4c 1e
53 0b 00 0a 20 20 20 20 20 20 00 00 00 fc 00 4e
4f 42 4c 45 58 20 4c 43 44 0a 20 20 00 00 00 fe
00 33 32 4c 43 38 32 39 46 54 0a 20 20 20 00 8a

00 ff ff ff ff ff ff 00 39 e2 3c 0a 01 01 01 01
00 15 01 04 a5 46 27 78 22 97 7d a4 56 4b 98 1d
10 47 4a 2f ce 00 01 01 01 01 01 01 01 01 01 01
01 01 01 01 01 01 02 3a 80 18 71 38 2d 40 58 2c
45 00 ba 88 21 00 00 1e 00 00 00 fd 00 38 4c 1e
53 0b 00 0a 20 20 20 20 20 20 00 00 00 fc 00 4e
4f 42 4c 45 58 20 4c 43 44 0a 20 20 00 00 00 fe
00 33 32 4c 43 38 32 39 46 54 0a 20 20 20 00 8a

----------------

Block 0, Base EDID:
  EDID Structure Version & Revision: 1.4
  Vendor & Product Identification:
    Manufacturer: NOB
    Model: 2620
    Serial Number: ...
    Made in: 2011
  Basic Display Parameters & Features:
    Digital display
    Bits per primary color channel: 8
    DisplayPort interface
    Maximum image size: 70 cm x 39 cm
    Gamma: 2.20
    DPMS levels: Off
    Supported color formats: RGB 4:4:4
    First detailed timing includes the native pixel format and preferred refresh rate
  Color Characteristics:
    Red  : 0.6425, 0.3369
    Green: 0.2939, 0.5966
    Blue : 0.1142, 0.0654
    White: 0.2802, 0.2900
  Established Timings I & II:
    DMT 0x04:   640x480    59.940476 Hz   4:3     31.469 kHz     25.175000 MHz
    DMT 0x05:   640x480    72.808802 Hz   4:3     37.861 kHz     31.500000 MHz
    DMT 0x06:   640x480    75.000000 Hz   4:3     37.500 kHz     31.500000 MHz
    DMT 0x08:   800x600    56.250000 Hz   4:3     35.156 kHz     36.000000 MHz
    DMT 0x09:   800x600    60.316541 Hz   4:3     37.879 kHz     40.000000 MHz
    DMT 0x0a:   800x600    72.187572 Hz   4:3     48.077 kHz     50.000000 MHz
    DMT 0x0b:   800x600    75.000000 Hz   4:3     46.875 kHz     49.500000 MHz
    DMT 0x10:  1024x768    60.003840 Hz   4:3     48.363 kHz     65.000000 MHz
    DMT 0x11:  1024x768    70.069359 Hz   4:3     56.476 kHz     75.000000 MHz
    DMT 0x12:  1024x768    75.028582 Hz   4:3     60.023 kHz     78.750000 MHz
  Standard Timings: none
  Detailed Timing Descriptors:
    DTD 1:  1920x1080   60.000000 Hz  16:9     67.500 kHz    148.500000 MHz (698 mm x 392 mm)
                 Hfront   88 Hsync  44 Hback  148 Hpol P
                 Vfront    4 Vsync   5 Vback   36 Vpol P
    Display Range Limits:
      Monitor ranges (GTF): 56-76 Hz V, 30-83 kHz H, max dotclock 110 MHz
    Display Product Name: 'NOBLEX LCD'
    Alphanumeric Data String: '32LC829FT'
Checksum: 0x8a

----------------

Block 1, Unknown EDID Extension Block 0x00:
  00 ff ff ff ff ff ff 00 39 e2 3c 0a 01 01 01 01 '........9.<.....'
  00 15 01 04 a5 46 27 78 22 97 7d a4 56 4b 98 1d '.....F'x".}.VK..'
  10 47 4a 2f ce 00 01 01 01 01 01 01 01 01 01 01 '.GJ/............'
  01 01 01 01 01 01 02 3a 80 18 71 38 2d 40 58 2c '.......:..q8-@X,'
  45 00 ba 88 21 00 00 1e 00 00 00 fd 00 38 4c 1e 'E...!........8L.'
  53 0b 00 0a 20 20 20 20 20 20 00 00 00 fc 00 4e 'S...      .....N'
  4f 42 4c 45 58 20 4c 43 44 0a 20 20 00 00 00 fe 'OBLEX LCD.  ....'
  00 33 32 4c 43 38 32 39 46 54 0a 20 20 20 00 8a '.32LC829FT.   ..'
Checksum: 0x8a

----------------

Warnings:

Block 0, Base EDID:
  Display Range Limits: GTF support is deprecated in EDID 1.4.
EDID:
  Base EDID: Some timings are out of range of the Monitor Ranges:
    Maximum Clock: 148.500 MHz (Monitor: 110.000 MHz)

Failures:

Block 0, Base EDID:
  Display Range Limits: GTF can't be combined with non-continuous frequencies.
Block 1, Base EDID:
  Unknown Extension Block.
EDID:
  Base EDID: EDID specified 0 extension block(s), but found 1 extension block(s).

EDID conformity: FAIL
