
EDID (hex):
00ffffffffffff004d79000001000000
0f160103682b1b782a249da554479924
11474aa1080001010101010101010101
0101010101017f2150aa51001d30468f
3300ba8921000000000000ff0054560a
20202020202020202020000000fc0054
56204d6f6e69746f720a202000000010
003030303030003030303030303000ce

edid-decode (hex):

00 ff ff ff ff ff ff 00 4d 79 00 00 01 00 00 00
0f 16 01 03 68 2b 1b 78 2a 24 9d a5 54 47 99 24
11 47 4a a1 08 00 01 01 01 01 01 01 01 01 01 01
01 01 01 01 01 01 7f 21 50 aa 51 00 1d 30 46 8f
33 00 ba 89 21 00 00 00 00 00 00 ff 00 54 56 0a
20 20 20 20 20 20 20 20 20 20 00 00 00 fc 00 54
56 20 4d 6f 6e 69 74 6f 72 0a 20 20 00 00 00 10
00 30 30 30 30 30 00 30 30 30 30 30 30 30 00 ce

----------------

Block 0, Base EDID:
  EDID Structure Version & Revision: 1.3
  Vendor & Product Identification:
    Manufacturer: SKY
    Model: 0
    Serial Number: 1
    Made in: week 15 of 2012
  Basic Display Parameters & Features:
    Analog display
    Signal Level Standard: 0.700 : 0.000 : 0.700 V p-p
    Blank level equals black level
    Sync: Separate
    Maximum image size: 43 cm x 27 cm
    Gamma: 2.20
    DPMS levels: Off
    RGB color display
    First detailed timing is the preferred timing
  Color Characteristics:
    Red  : 0.6445, 0.3300
    Green: 0.2783, 0.5976
    Blue : 0.1425, 0.0673
    White: 0.2802, 0.2900
  Established Timings I & II:
    IBM     :   720x400    70.081663 Hz   9:5     31.467 kHz     28.320000 MHz
    DMT 0x04:   640x480    59.940476 Hz   4:3     31.469 kHz     25.175000 MHz
    DMT 0x09:   800x600    60.316541 Hz   4:3     37.879 kHz     40.000000 MHz
    DMT 0x10:  1024x768    60.003840 Hz   4:3     48.363 kHz     65.000000 MHz
  Standard Timings: none
  Detailed Timing Descriptors:
    DTD 1:  1360x768    60.241302 Hz  85:48    48.012 kHz     85.750000 MHz (analog composite, sync-on-green, 698 mm x 393 mm)
                 Hfront   70 Hsync 143 Hback  213 Hpol N
                 Vfront    3 Vsync   3 Vback   23 Vpol N
    Display Product Serial Number: 'TV'
    Display Product Name: 'TV Monitor'
    Dummy Descriptor:
Checksum: 0xce
