
EDID (hex):
00ffffffffffff0009e5f20a00000000
201f0104a51e137803ee96a3544c9926
0f4e5100000001010101010101010101
01010101010160d200a0a04032603020
35002ebd10000018c89d00a0a0403260
302035002ebd10000018000000fd0030
78c6c636010a202020202020000000fe
004e4531343051444d2d4e58322001f8
701379000003011430690005ff099f00
2f001f003f0631000200040000000000
00000000000000000000000000000000
00000000000000000000000000000000
00000000000000000000000000000000
00000000000000000000000000000000
00000000000000000000000000000000
00000000000000000000000000004d90

Extracted contents:
header:          00 ff ff ff ff ff ff 00
serial number:   09 e5 f2 0a 00 00 00 00 20 1f
version:         01 04
basic params:    a5 1e 13 78 03
chroma info:     ee 96 a3 54 4c 99 26 0f 4e 51
established:     00 00 00
standard:        01 01 01 01 01 01 01 01 01 01 01 01 01 01 01 01
descriptor 1:    60 d2 00 a0 a0 40 32 60 30 20 35 00 2e bd 10 00 00 18
descriptor 2:    c8 9d 00 a0 a0 40 32 60 30 20 35 00 2e bd 10 00 00 18
descriptor 3:    00 00 00 fd 00 30 78 c6 c6 36 01 0a 20 20 20 20 20 20
descriptor 4:    00 00 00 fe 00 4e 45 31 34 30 51 44 4d 2d 4e 58 32 20
extensions:      01
checksum:        f8

EDID version: 1.4
Manufacturer: BOE Model af2 Serial Number --
Made in week 32 of 2021
Digital display
8 bits per primary color channel
DisplayPort interface
Maximum image size: 30 cm x 19 cm
Gamma: 2.20
Supported color formats: RGB 4:4:4
First detailed timing includes the native pixel format and preferred refresh rate
Display is continuous frequency
Display x,y Chromaticity:
  Red:   0.6396, 0.3300
  Green: 0.2998, 0.5996
  Blue:  0.1503, 0.0595
  White: 0.3056, 0.3183
Established timings supported:
Standard timings supported:
Detailed mode: Clock 538.560 MHz, 302 mm x 189 mm
               2560 2608 2640 2720 hborder 0
               1600 1603 1608 1650 vborder 0
               -hsync -vsync 
               VertFreq: 120 Hz, HorFreq: 198000 Hz
Detailed mode: Clock 403.920 MHz, 302 mm x 189 mm
               2560 2608 2640 2720 hborder 0
               1600 1603 1608 1650 vborder 0
               -hsync -vsync 
               VertFreq: 90 Hz, HorFreq: 148500 Hz
Monitor ranges (bare limits): 48-120Hz V, 198-198kHz H, max dotclock 540MHz
ASCII string: NE140QDM-NX2 
Has 1 extension blocks
Checksum: 0xf8 (valid)

DisplayID extension block
Extension version: 19
Length 121, version 19, extension count 0
Checksum: 0x4d (valid)
Type 1 detailed timing: aspect: 16:10,  
Detailed mode: Clock 269.280 MHz, 0 mm x 0 mm
               2559 2606 2637 2718
               1599 1601 1605 1648
               -hsync -vsync

EDID block does NOT conform to EDID 1.4!
	Missing name descriptor
Warning: One or more of the timings is out of range of the Monitor Ranges:
  Vertical Freq: 90 - 120 Hz
  Horizontal Freq: 148500 - 198000 Hz
  Maximum Clock: 538.560 MHz
EDID block does not conform at all!
	Has 134217728 nonconformant extension block(s)
