
EDID (hex):
00ffffffffffff004ca3553200000000
000f0103802115780a87f594574f8c27
27505400000001010101010101010101
010101010101383f800871b023406420
26004bcf100000190000000f00000000
000000000046d2026400000000fe0046
443136320031353455320a20000000fe
00324451597db3e1ff02010a2020001d

Extracted contents:
header:          00 ff ff ff ff ff ff 00
serial number:   4c a3 55 32 00 00 00 00 00 0f
version:         01 03
basic params:    80 21 15 78 0a
chroma info:     87 f5 94 57 4f 8c 27 27 50 54
established:     00 00 00
standard:        01 01 01 01 01 01 01 01 01 01 01 01 01 01 01 01
descriptor 1:    38 3f 80 08 71 b0 23 40 64 20 26 00 4b cf 10 00 00 19
descriptor 2:    00 00 00 0f 00 00 00 00 00 00 00 00 00 46 d2 02 64 00
descriptor 3:    00 00 00 fe 00 46 44 31 36 32 00 31 35 34 55 32 0a 20
descriptor 4:    00 00 00 fe 00 32 44 51 59 7d b3 e1 ff 02 01 0a 20 20
extensions:      00
checksum:        1d

EDID version: 1.3
Manufacturer: SEC Model 3255 Serial Number --
Digital display
Maximum image size: 33 cm x 21 cm
Gamma: 2.20
RGB color display
First detailed timing is preferred timing
Display x,y Chromaticity:
  Red:   0.5800, 0.3398
  Green: 0.3095, 0.5498
  Blue:  0.1552, 0.1552
  White: 0.3134, 0.3291
Established timings supported:
Standard timings supported:
Detailed mode: Clock 161.840 MHz, 331 mm x 207 mm
               1920 2020 2052 2184 hborder 0
               1200 1202 1208 1235 vborder 0
               -hsync -vsync 
               VertFreq: 60 Hz, HorFreq: 74102 Hz
Manufacturer-specified data, tag 15
ASCII string: FD162
ASCII string: 2DQY}
Checksum: 0x1d (valid)
EDID block does NOT conform to EDID 1.3!
	Missing name descriptor
	Missing monitor ranges
	Detailed block string not properly terminated
EDID block does not conform at all!
	Bad year of manufacture
