
EDID (hex):
00ffffffffffff004ca3553200000000
000c0103801e17780aad719657528927
23505400000001010101010101010101
010101010101483f40f061b032404080
6e1130e4100000190000000f00000000
000000000019af023200000000fe0032
523239303231353055320a20000000fe
00e2b493774e2e0f00020a2020200079

Extracted contents:
header:          00 ff ff ff ff ff ff 00
serial number:   4c a3 55 32 00 00 00 00 00 0c
version:         01 03
basic params:    80 1e 17 78 0a
chroma info:     ad 71 96 57 52 89 27 23 50 54
established:     00 00 00
standard:        01 01 01 01 01 01 01 01 01 01 01 01 01 01 01 01
descriptor 1:    48 3f 40 f0 61 b0 32 40 40 80 6e 11 30 e4 10 00 00 19
descriptor 2:    00 00 00 0f 00 00 00 00 00 00 00 00 00 19 af 02 32 00
descriptor 3:    00 00 00 fe 00 32 52 32 39 30 32 31 35 30 55 32 0a 20
descriptor 4:    00 00 00 fe 00 e2 b4 93 77 4e 2e 0f 00 02 0a 20 20 20
extensions:      00
checksum:        79

EDID version: 1.3
Manufacturer: SEC Model 3255 Serial Number --
Digital display
Maximum image size: 30 cm x 23 cm
Gamma: 2.20
RGB color display
First detailed timing is preferred timing
Display x,y Chromaticity:
  Red:   0.5878, 0.3417
  Green: 0.3232, 0.5361
  Blue:  0.1533, 0.1396
  White: 0.3125, 0.3291
Established timings supported:
Standard timings supported:
Detailed mode: Clock 162.000 MHz, 304 mm x 228 mm
               1600 1664 2048 2096 hborder 0
               1200 1206 1236 1250 vborder 0
               -hsync -vsync 
               VertFreq: 61 Hz, HorFreq: 77290 Hz
Manufacturer-specified data, tag 15
ASCII string: 2R2902150U2
ASCII string: 
Checksum: 0x79 (valid)
EDID block does NOT conform to EDID 1.3!
	Missing name descriptor
	Missing monitor ranges
	Detailed block string not properly terminated
EDID block does not conform at all!
	Bad year of manufacture
