
EDID (hex):
00ffffffffffff0006af9b2b00000000
001f0104b51e137803ee95a3544c9926
0f505400000001010101010101010101
0101010101014452c0a080783e503020
35002cbc1000001ad041c0a080783e50
302035002cbc1000001a000000fe0047
52475831804231343051414d00000000
000541239e001100000b410a202000d2

Extracted contents:
header:          00 ff ff ff ff ff ff 00
serial number:   06 af 9b 2b 00 00 00 00 00 1f
version:         01 04
basic params:    b5 1e 13 78 03
chroma info:     ee 95 a3 54 4c 99 26 0f 50 54
established:     00 00 00
standard:        01 01 01 01 01 01 01 01 01 01 01 01 01 01 01 01
descriptor 1:    44 52 c0 a0 80 78 3e 50 30 20 35 00 2c bc 10 00 00 1a
descriptor 2:    d0 41 c0 a0 80 78 3e 50 30 20 35 00 2c bc 10 00 00 1a
descriptor 3:    00 00 00 fe 00 47 52 47 58 31 80 42 31 34 30 51 41 4d
descriptor 4:    00 00 00 00 00 05 41 23 9e 00 11 00 00 0b 41 0a 20 20
extensions:      00
checksum:        d2

EDID version: 1.4
Manufacturer: AUO Model 2b9b Serial Number --
Made in year 2021
Digital display
10 bits per primary color channel
DisplayPort interface
Maximum image size: 30 cm x 19 cm
Gamma: 2.20
Supported color formats: RGB 4:4:4
First detailed timing includes the native pixel format and preferred refresh rate
Display is continuous frequency
Display x,y Chromaticity:
  Red:   0.6396, 0.3300
  Green: 0.2998, 0.5996
  Blue:  0.1503, 0.0595
  White: 0.3134, 0.3291
Established timings supported:
Standard timings supported:
Detailed mode: Clock 210.600 MHz, 300 mm x 188 mm
               2240 2288 2320 2400 hborder 0
               1400 1403 1408 1462 vborder 0
               +hsync -vsync 
               VertFreq: 60 Hz, HorFreq: 87750 Hz
Detailed mode: Clock 168.480 MHz, 300 mm x 188 mm
               2240 2288 2320 2400 hborder 0
               1400 1403 1408 1462 vborder 0
               +hsync -vsync 
               VertFreq: 48 Hz, HorFreq: 70200 Hz
ASCII string: GRGX1
Manufacturer-specified data, tag 0
Checksum: 0xd2 (valid)
EDID block does NOT conform to EDID 1.4!
	Missing name descriptor
	Missing monitor ranges
	Detailed block string not properly terminated
