edid-decode (hex):

00 ff ff ff ff ff ff 00 06 af 9b 2b 00 00 00 00
00 1f 01 04 b5 1e 13 78 03 ee 95 a3 54 4c 99 26
0f 50 54 00 00 00 01 01 01 01 01 01 01 01 01 01
01 01 01 01 01 01 44 52 c0 a0 80 78 3e 50 30 20
35 00 2c bc 10 00 00 1a d0 41 c0 a0 80 78 3e 50
30 20 35 00 2c bc 10 00 00 1a 00 00 00 fe 00 47
52 47 58 31 80 42 31 34 30 51 41 4d 00 00 00 00
00 05 41 23 9e 00 11 00 00 0b 41 0a 20 20 00 d2

----------------

Block 0, Base EDID:
  EDID Structure Version & Revision: 1.4
  Vendor & Product Identification:
    Manufacturer: AUO
    Model: 11163
    Made in: 2021
  Basic Display Parameters & Features:
    Digital display
    Bits per primary color channel: 10
    DisplayPort interface
    Maximum image size: 30 cm x 19 cm
    Gamma: 2.20
    Supported color formats: RGB 4:4:4
    First detailed timing includes the native pixel format and preferred refresh rate
    Display is continuous frequency
  Color Characteristics:
    Red  : 0.6396, 0.3300
    Green: 0.2998, 0.5996
    Blue : 0.1503, 0.0595
    White: 0.3134, 0.3291
  Established Timings I & II: none
  Standard Timings: none
  Detailed Timing Descriptors:
    DTD 1:  2240x1400   60.020520 Hz  16:10    87.750 kHz    210.600000 MHz (300 mm x 188 mm)
                 Hfront   48 Hsync  32 Hback   80 Hpol P
                 Vfront    3 Vsync   5 Vback   54 Vpol N
    DTD 2:  2240x1400   48.016416 Hz  16:10    70.200 kHz    168.480000 MHz (300 mm x 188 mm)
                 Hfront   48 Hsync  32 Hback   80 Hpol P
                 Vfront    3 Vsync   5 Vback   54 Vpol N
    Alphanumeric Data String: 'GRGX1'
    Manufacturer-Specified Display Descriptor (0x00): 00 00 00 05 41 23 9e 00 11 00 00 0b 41 0a 20 20 '....A#......A.  '
Checksum: 0xd2

----------------

Warnings:

Block 0, Base EDID:
  Missing Display Product Name.

Failures:

Block 0, Base EDID:
  Alphanumeric Data String: Non-printable character.
  Missing Display Range Limits Descriptor.

EDID conformity: FAIL
