
EDID (hex):
00ffffffffffff0006af3d2100000000
00190104951f117802c32592575a942a
22505400000001010101010101010101
010101010101143780b2703828403064
310035ad10000018b82480b270382840
3064310035ad10000018000000000000
00000000000000000000000000000002
001048ff0f3c6e152a236e202020004c

Extracted contents:
header:          00 ff ff ff ff ff ff 00
serial number:   06 af 3d 21 00 00 00 00 00 19
version:         01 04
basic params:    95 1f 11 78 02
chroma info:     c3 25 92 57 5a 94 2a 22 50 54
established:     00 00 00
standard:        01 01 01 01 01 01 01 01 01 01 01 01 01 01 01 01
descriptor 1:    14 37 80 b2 70 38 28 40 30 64 31 00 35 ad 10 00 00 18
descriptor 2:    b8 24 80 b2 70 38 28 40 30 64 31 00 35 ad 10 00 00 18
descriptor 3:    00 00 00 00 00 00 00 00 00 00 00 00 00 00 00 00 00 00
descriptor 4:    00 00 00 02 00 10 48 ff 0f 3c 6e 15 2a 23 6e 20 20 20
extensions:      00
checksum:        4c

EDID version: 1.4
Manufacturer: AUO Model 213d Serial Number --
Made in year 2015
Digital display
6 bits per primary color channel
DisplayPort interface
Maximum image size: 31 cm x 17 cm
Gamma: 2.20
Supported color formats: RGB 4:4:4
First detailed timing includes the native pixel format and preferred refresh rate
Display x,y Chromaticity:
  Red:   0.5732, 0.3398
  Green: 0.3515, 0.5810
  Blue:  0.1640, 0.1347
  White: 0.3134, 0.3291
Established timings supported:
Standard timings supported:
Detailed mode: Clock 141.000 MHz, 309 mm x 173 mm
               1920 1968 2068 2098 hborder 0
               1080 1083 1084 1120 vborder 0
               -hsync -vsync 
               VertFreq: 60 Hz, HorFreq: 67206 Hz
Detailed mode: Clock 94.000 MHz, 309 mm x 173 mm
               1920 1968 2068 2098 hborder 0
               1080 1083 1084 1120 vborder 0
               -hsync -vsync 
               VertFreq: 40 Hz, HorFreq: 44804 Hz
Manufacturer-specified data, tag 0
Manufacturer-specified data, tag 2
Checksum: 0x4c (valid)
EDID block does NOT conform to EDID 1.4!
	Missing name descriptor
	Missing monitor ranges
