
EDID (hex):
00ffffffffffff0006af3d2100000000
00190104951f117802a2b59157589428
1c505400000001010101010101010101
010101010101843a8034713828403064
310035ad100000180000000f00000000
00000000000000000020000000fe0041
554f0a202020202020202020000000fe
004231343048414e30322e31200a004e

Extracted contents:
header:          00 ff ff ff ff ff ff 00
serial number:   06 af 3d 21 00 00 00 00 00 19
version:         01 04
basic params:    95 1f 11 78 02
chroma info:     a2 b5 91 57 58 94 28 1c 50 54
established:     00 00 00
standard:        01 01 01 01 01 01 01 01 01 01 01 01 01 01 01 01
descriptor 1:    84 3a 80 34 71 38 28 40 30 64 31 00 35 ad 10 00 00 18
descriptor 2:    00 00 00 0f 00 00 00 00 00 00 00 00 00 00 00 00 00 20
descriptor 3:    00 00 00 fe 00 41 55 4f 0a 20 20 20 20 20 20 20 20 20
descriptor 4:    00 00 00 fe 00 42 31 34 30 48 41 4e 30 32 2e 31 20 0a
extensions:      00
checksum:        4e

EDID version: 1.4
Manufacturer: AUO Model 213d Serial Number --
Made in year 2015
Digital display
6 bits per primary color channel
DisplayPort interface
Maximum image size: 31 cm x 17 cm
Gamma: 2.20
Supported color formats: RGB 4:4:4
First detailed timing includes the native pixel format and preferred refresh rate
Display x,y Chromaticity:
  Red:   0.5683, 0.3417
  Green: 0.3437, 0.5800
  Blue:  0.1582, 0.1123
  White: 0.3134, 0.3291
Established timings supported:
Standard timings supported:
Detailed mode: Clock 149.800 MHz, 309 mm x 173 mm
               1920 1968 2068 2228 hborder 0
               1080 1083 1084 1120 vborder 0
               -hsync -vsync 
               VertFreq: 60 Hz, HorFreq: 67235 Hz
Manufacturer-specified data, tag 15
ASCII string: AUO
ASCII string: B140HAN02.1 
Checksum: 0x4e (valid)
EDID block does NOT conform to EDID 1.4!
	Missing name descriptor
	Missing monitor ranges
