
EDID (hex):
00ffffffffffff004ca3433600000000
00130103801e11780ae3f59059579027
1e505400000001010101010101010101
0101010101014a1d56d8500016303020
250035ae100000190000000f00000000
000000000025d9066a00000000fe0053
414d53554e470a2020202020000000fe
00313430415432312d3630310a20004d

edid-decode (hex):

00 ff ff ff ff ff ff 00 4c a3 43 36 00 00 00 00
00 13 01 03 80 1e 11 78 0a e3 f5 90 59 57 90 27
1e 50 54 00 00 00 01 01 01 01 01 01 01 01 01 01
01 01 01 01 01 01 4a 1d 56 d8 50 00 16 30 30 20
25 00 35 ae 10 00 00 19 00 00 00 0f 00 00 00 00
00 00 00 00 00 25 d9 06 6a 00 00 00 00 fe 00 53
41 4d 53 55 4e 47 0a 20 20 20 20 20 00 00 00 fe
00 31 34 30 41 54 32 31 2d 36 30 31 0a 20 00 4d

----------------

Block 0, Base EDID:
  EDID Structure Version & Revision: 1.3
  Vendor & Product Identification:
    Manufacturer: SEC
    Model: 13891
    Made in: 2009
  Basic Display Parameters & Features:
    Digital display
    Maximum image size: 30 cm x 17 cm
    Gamma: 2.20
    RGB color display
    First detailed timing is the preferred timing
  Color Characteristics:
    Red  : 0.5654, 0.3496
    Green: 0.3398, 0.5654
    Blue : 0.1552, 0.1201
    White: 0.3134, 0.3291
  Established Timings I & II: none
  Standard Timings: none
  Detailed Timing Descriptors:
    DTD 1:  1366x768    59.994559 Hz 683:384   47.396 kHz     74.980000 MHz (309 mm x 174 mm)
                 Hfront   48 Hsync  32 Hback  136 Hpol N
                 Vfront    2 Vsync   5 Vback   15 Vpol N
    Manufacturer-Specified Display Descriptor (0x0f): 00 0f 00 00 00 00 00 00 00 00 00 25 d9 06 6a 00 '...........%..j.'
    Alphanumeric Data String: 'SAMSUNG'
    Alphanumeric Data String: '140AT21-601'
Checksum: 0x4d
