
EDID (hex):
00ffffffffffff004c83554200000000
00190104a51d10780a28659759548e27
1e505400000001010101010101010101
010101010101ce1d56f0500018304030
250025a410000019d81356f050001830
4030250025a410000019000000000000
00000000000000000000000000000002
000c4cff0a3c64191125640000000080

Extracted contents:
header:          00 ff ff ff ff ff ff 00
serial number:   4c 83 55 42 00 00 00 00 00 19
version:         01 04
basic params:    a5 1d 10 78 0a
chroma info:     28 65 97 59 54 8e 27 1e 50 54
established:     00 00 00
standard:        01 01 01 01 01 01 01 01 01 01 01 01 01 01 01 01
descriptor 1:    ce 1d 56 f0 50 00 18 30 40 30 25 00 25 a4 10 00 00 19
descriptor 2:    d8 13 56 f0 50 00 18 30 40 30 25 00 25 a4 10 00 00 19
descriptor 3:    00 00 00 00 00 00 00 00 00 00 00 00 00 00 00 00 00 00
descriptor 4:    00 00 00 02 00 0c 4c ff 0a 3c 64 19 11 25 64 00 00 00
extensions:      00
checksum:        80

EDID version: 1.4
Manufacturer: SDC Model 4255 Serial Number --
Made in year 2015
Digital display
8 bits per primary color channel
DisplayPort interface
Maximum image size: 29 cm x 16 cm
Gamma: 2.20
Supported color formats: RGB 4:4:4, YCrCb 4:4:4
First detailed timing includes the native pixel format and preferred refresh rate
Display x,y Chromaticity:
  Red:   0.5898, 0.3496
  Green: 0.3300, 0.5546
  Blue:  0.1533, 0.1191
  White: 0.3134, 0.3291
Established timings supported:
Standard timings supported:
Detailed mode: Clock 76.300 MHz, 293 mm x 164 mm
               1366 1430 1478 1606 hborder 0
                768  770  775  792 vborder 0
               -hsync -vsync 
               VertFreq: 59 Hz, HorFreq: 47509 Hz
Detailed mode: Clock 50.800 MHz, 293 mm x 164 mm
               1366 1430 1478 1606 hborder 0
                768  770  775  792 vborder 0
               -hsync -vsync 
               VertFreq: 39 Hz, HorFreq: 31631 Hz
Manufacturer-specified data, tag 0
Manufacturer-specified data, tag 2
Checksum: 0x80 (valid)
EDID block does NOT conform to EDID 1.4!
	Missing name descriptor
	Missing monitor ranges
