
EDID (hex):
00ffffffffffff0006cf101000000000
000a01036c0000960eee91a3544c9926
0f5054bfef80714f814fa94f8bc0950f
4bc0d100d140302aa0d0518422305098
36009a011100001e08399030621a2740
68b03600b80e1100001e000000fd0030
4b1e5fff000a202020202020000000fc
004b564d205377697463680a202000a9

Extracted contents:
header:          00 ff ff ff ff ff ff 00
serial number:   06 cf 10 10 00 00 00 00 00 0a
version:         01 03
basic params:    6c 00 00 96 0e
chroma info:     ee 91 a3 54 4c 99 26 0f 50 54
established:     bf ef 80
standard:        71 4f 81 4f a9 4f 8b c0 95 0f 4b c0 d1 00 d1 40
descriptor 1:    30 2a a0 d0 51 84 22 30 50 98 36 00 9a 01 11 00 00 1e
descriptor 2:    08 39 90 30 62 1a 27 40 68 b0 36 00 b8 0e 11 00 00 1e
descriptor 3:    00 00 00 fd 00 30 4b 1e 5f ff 00 0a 20 20 20 20 20 20
descriptor 4:    00 00 00 fc 00 4b 56 4d 20 53 77 69 74 63 68 0a 20 20
extensions:      00
checksum:        a9

EDID version: 1.3
Manufacturer: AVO Model 1010 Serial Number --
Analog display, Input voltage level: 0.7/0.7 V
Sync: Separate Composite 
Image size is variable
Gamma: 2.50
RGB color display
Default (sRGB) color space is primary color space
First detailed timing is preferred timing
Display x,y Chromaticity:
  Red:   0.6396, 0.3300
  Green: 0.2998, 0.5996
  Blue:  0.1503, 0.0595
  White: 0.3125, 0.3291
Established timings supported:
  720x400@70Hz 9:5 HorFreq: 31469 Hz Clock: 28.320 MHz
  640x480@60Hz 4:3 HorFreq: 31469 Hz Clock: 25.175 MHz
  640x480@67Hz 4:3 HorFreq: 35000 Hz Clock: 30.240 MHz
  640x480@72Hz 4:3 HorFreq: 37900 Hz Clock: 31.500 MHz
  640x480@75Hz 4:3 HorFreq: 37500 Hz Clock: 31.500 MHz
  800x600@56Hz 4:3 HorFreq: 35200 Hz Clock: 36.000 MHz
  800x600@60Hz 4:3 HorFreq: 37900 Hz Clock: 40.000 MHz
  800x600@72Hz 4:3 HorFreq: 48100 Hz Clock: 50.000 MHz
  800x600@75Hz 4:3 HorFreq: 46900 Hz Clock: 49.500 MHz
  832x624@75Hz 4:3 HorFreq: 49726 Hz Clock: 57.284 MHz
  1024x768@60Hz 4:3 HorFreq: 48400 Hz Clock: 65.000 MHz
  1024x768@70Hz 4:3 HorFreq: 56500 Hz Clock: 75.000 MHz
  1024x768@75Hz 4:3 HorFreq: 60000 Hz Clock: 78.750 MHz
  1280x1024@75Hz 5:4 HorFreq: 80000 Hz Clock: 135.000 MHz
  1152x870@75Hz 192:145 HorFreq: 67500 Hz Clock: 108.000 MHz
Standard timings supported:
  1152x864@75Hz 4:3 HorFreq: 67500 Hz Clock: 108.000 MHz
  1280x960@75Hz 4:3
  1600x1200@75Hz 4:3 HorFreq: 93800 Hz Clock: 202.500 MHz
  1360x765@60Hz 16:9
  1440x900@75Hz 16:10 HorFreq: 82300 Hz Clock: 156.000 MHz
  848x477@60Hz 16:9
  1920x1200@60Hz 16:10 HorFreq: 74000 Hz Clock: 154.000 MHz
  1920x1440@60Hz 4:3 HorFreq: 90000 Hz Clock: 234.000 MHz
Detailed mode: Clock 108.000 MHz, 410 mm x 257 mm
               1440 1520 1672 1904 hborder 0
                900  903  909  934 vborder 0
               +hsync +vsync 
               VertFreq: 60 Hz, HorFreq: 56722 Hz
Detailed mode: Clock 146.000 MHz, 440 mm x 270 mm
               1680 1784 1960 2240 hborder 0
               1050 1053 1059 1089 vborder 0
               +hsync +vsync 
               VertFreq: 59 Hz, HorFreq: 65178 Hz
Monitor ranges (GTF): 48-75Hz V, 30-95kHz H, max dotclock 2550MHz
Monitor name: KVM Switch
Checksum: 0xa9 (valid)
EDID block does not conform at all!
	Bad year of manufacture
