
EDID (hex):
00ffffffffffff0006af2d4600000000
311a0104951d117802c3159358599229
22505400000001010101010101010101
010101010101143780b8703824401010
3e0025a51000001a102c80b870382440
10103e0025a51000001a000000fe0046
3756444a804231333348414e00000000
000181019e011100000a010a202000da

Extracted contents:
header:          00 ff ff ff ff ff ff 00
serial number:   06 af 2d 46 00 00 00 00 31 1a
version:         01 04
basic params:    95 1d 11 78 02
chroma info:     c3 15 93 58 59 92 29 22 50 54
established:     00 00 00
standard:        01 01 01 01 01 01 01 01 01 01 01 01 01 01 01 01
descriptor 1:    14 37 80 b8 70 38 24 40 10 10 3e 00 25 a5 10 00 00 1a
descriptor 2:    10 2c 80 b8 70 38 24 40 10 10 3e 00 25 a5 10 00 00 1a
descriptor 3:    00 00 00 fe 00 46 37 56 44 4a 80 42 31 33 33 48 41 4e
descriptor 4:    00 00 00 00 00 01 81 01 9e 01 11 00 00 0a 01 0a 20 20
extensions:      00
checksum:        da

EDID version: 1.4
Manufacturer: AUO Model 462d Serial Number --
Made in week 49 of 2016
Digital display
6 bits per primary color channel
DisplayPort interface
Maximum image size: 29 cm x 17 cm
Gamma: 2.20
Supported color formats: RGB 4:4:4
First detailed timing includes the native pixel format and preferred refresh rate
Display x,y Chromaticity:
  Red:   0.5771, 0.3437
  Green: 0.3476, 0.5732
  Blue:  0.1601, 0.1337
  White: 0.3134, 0.3291
Established timings supported:
Standard timings supported:
Detailed mode: Clock 141.000 MHz, 293 mm x 165 mm
               1920 1936 1952 2104 hborder 0
               1080 1083 1097 1116 vborder 0
               +hsync -vsync 
               VertFreq: 60 Hz, HorFreq: 67015 Hz
Detailed mode: Clock 112.800 MHz, 293 mm x 165 mm
               1920 1936 1952 2104 hborder 0
               1080 1083 1097 1116 vborder 0
               +hsync -vsync 
               VertFreq: 48 Hz, HorFreq: 53612 Hz
ASCII string: F7VDJ
Manufacturer-specified data, tag 0
Checksum: 0xda (valid)
EDID block does NOT conform to EDID 1.4!
	Missing name descriptor
	Missing monitor ranges
	Detailed block string not properly terminated
