edid-decode (hex):

00 ff ff ff ff ff ff 00 0d ae 18 11 00 00 00 00
0f 17 01 04 90 1a 0e 78 02 69 65 96 57 52 8f 27
22 50 54 00 00 00 01 01 01 01 01 01 01 01 01 01
01 01 01 01 01 01 bc 1b 56 86 50 00 14 30 29 1b
34 00 00 90 10 00 00 1a 30 16 56 86 50 00 14 30
29 1b 34 00 00 90 10 00 00 1a 00 00 00 fe 00 39
47 54 50 4a 80 31 31 36 42 47 45 0a 00 00 00 00
00 00 41 31 94 00 10 00 00 01 01 0a 20 20 00 0d

----------------

Block 0, Base EDID:
  EDID Structure Version & Revision: 1.4
  Vendor & Product Identification:
    Manufacturer: CMN
    Model: 4376
    Made in: week 15 of 2013
  Basic Display Parameters & Features:
    Digital display
    Bits per primary color channel: 6
    Digital interface is not defined
    Maximum image size: 26 cm x 14 cm
    Gamma: 2.20
    Supported color formats: RGB 4:4:4
    First detailed timing includes the native pixel format and preferred refresh rate
  Color Characteristics:
    Red  : 0.5869, 0.3417
    Green: 0.3222, 0.5595
    Blue : 0.1533, 0.1347
    White: 0.3134, 0.3291
  Established Timings I & II: none
  Standard Timings: none
  Detailed Timing Descriptors:
    DTD 1:  1366x768    60.068 Hz 683:384  47.333 kHz  71.000 MHz (256 mm x 144 mm)
                 Hfront   41 Hsync  27 Hback  66 Hpol P
                 Vfront    3 Vsync   4 Vback  13 Vpol N
    DTD 2:  1366x768    48.054 Hz 683:384  37.867 kHz  56.800 MHz (256 mm x 144 mm)
                 Hfront   41 Hsync  27 Hback  66 Hpol P
                 Vfront    3 Vsync   4 Vback  13 Vpol N
    Alphanumeric Data String: '9GTPJ'
    Manufacturer-Specified Display Descriptor (0x00): 00 00 00 00 41 31 94 00 10 00 00 01 01 0a 20 20 '....A1........  '
Checksum: 0xd

----------------

Failures:

Block 0, Base EDID:
  Alphanumeric Data String: Non-printable character.
  Missing Display Product Name.

EDID conformity: FAIL
