edid-decode (hex):

00 ff ff ff ff ff ff 00 0d ae dc 15 00 00 00 00
24 19 01 04 e5 22 13 78 1a c3 c5 91 55 54 94 28
24 50 54 00 00 00 01 01 01 01 01 01 01 01 01 01
01 01 01 01 01 01 82 2e 56 a0 50 00 24 30 30 20
35 00 55 c0 10 00 00 1a da 1d 56 e2 50 00 20 30
44 2d 47 00 55 c0 10 00 00 1a e7 13 56 e2 50 00
20 30 44 2d 47 00 55 c0 10 00 00 1a 00 00 00 10
00 00 00 00 00 00 00 00 00 00 00 00 00 00 00 69

00 ff ff ff ff ff ff 00 0d ae dc 15 00 00 00 00
24 19 01 04 e5 22 13 78 1a c3 c5 91 55 54 94 28
24 50 54 00 00 00 01 01 01 01 01 01 01 01 01 01
01 01 01 01 01 01 82 2e 56 a0 50 00 24 30 30 20
35 00 55 c0 10 00 00 1a da 1d 56 e2 50 00 20 30
44 2d 47 00 55 c0 10 00 00 1a e7 13 56 e2 50 00
20 30 44 2d 47 00 55 c0 10 00 00 1a 00 00 00 10
00 00 00 00 00 00 00 00 00 00 00 00 00 00 00 69

----------------

Block 0, Base EDID:
  EDID Structure Version & Revision: 1.4
  Vendor & Product Identification:
    Manufacturer: CMN
    Model: 5596
    Made in: week 36 of 2015
  Basic Display Parameters & Features:
    Digital display
    Bits per primary color channel: 16
    DisplayPort interface
    Maximum image size: 34 cm x 19 cm
    Gamma: 2.20
    Supported color formats: RGB 4:4:4, YCrCb 4:4:4, YCrCb 4:2:2
    First detailed timing includes the native pixel format and preferred refresh rate
  Color Characteristics:
    Red  : 0.5693, 0.3320
    Green: 0.3281, 0.5810
    Blue : 0.1591, 0.1406
    White: 0.3134, 0.3291
  Established Timings I & II: none
  Standard Timings: none
  Detailed Timing Descriptors:
    DTD 1:  1366x768    97.041007 Hz 683:384   78.021 kHz    119.060000 MHz (341 mm x 192 mm)
                 Hfront   48 Hsync  32 Hback   80 Hpol P
                 Vfront    3 Vsync   5 Vback   28 Vpol N
    DTD 2:  1366x768    60.003141 Hz 683:384   48.003 kHz     76.420000 MHz (341 mm x 192 mm)
                 Hfront   68 Hsync  45 Hback  113 Hpol P
                 Vfront    4 Vsync   7 Vback   21 Vpol N
    DTD 3:  1366x768    40.004711 Hz 683:384   32.004 kHz     50.950000 MHz (341 mm x 192 mm)
                 Hfront   68 Hsync  45 Hback  113 Hpol P
                 Vfront    4 Vsync   7 Vback   21 Vpol N
    Dummy Descriptor:
Checksum: 0x69

----------------

Block 1, Unknown EDID Extension Block 0x00:
  00 ff ff ff ff ff ff 00 0d ae dc 15 00 00 00 00 '................'
  24 19 01 04 e5 22 13 78 1a c3 c5 91 55 54 94 28 '$....".x....UT.('
  24 50 54 00 00 00 01 01 01 01 01 01 01 01 01 01 '$PT.............'
  01 01 01 01 01 01 82 2e 56 a0 50 00 24 30 30 20 '........V.P.$00 '
  35 00 55 c0 10 00 00 1a da 1d 56 e2 50 00 20 30 '5.U.......V.P. 0'
  44 2d 47 00 55 c0 10 00 00 1a e7 13 56 e2 50 00 'D-G.U.......V.P.'
  20 30 44 2d 47 00 55 c0 10 00 00 1a 00 00 00 10 ' 0D-G.U.........'
  00 00 00 00 00 00 00 00 00 00 00 00 00 00 00 69 '...............i'
Checksum: 0x69

----------------

Warnings:

Block 0, Base EDID:
  Missing Display Product Name.

Failures:

Block 1, Base EDID:
  Unknown Extension Block.
EDID:
  Base EDID: EDID specified 0 extension block(s), but found 1 extension block(s).

EDID conformity: FAIL
