edid-decode (hex):

00 ff ff ff ff ff ff 00 41 0c 7c b1 8e 49 0f 01
0c 09 01 01 0e 1f 17 b1 e8 ef 22 a2 55 47 99 25
0f 48 4f a4 42 00 81 80 61 59 45 59 31 59 01 01
01 01 01 01 01 01 30 2a 00 98 51 00 2a 40 30 70
13 00 32 e6 10 00 00 3d 00 00 00 ff 00 20 49 4f
20 20 31 37 37 37 39 30 38 36 00 00 00 fc 00 50
48 49 4c 49 50 53 20 31 30 37 53 0a 00 00 00 fd
00 32 78 1e 46 0b 00 0a 20 20 20 20 20 20 00 ba

00 ff ff ff ff ff ff 00 41 0c 7c b1 8e 49 0f 01
0c 09 01 01 0e 1f 17 b1 e8 ef 22 a2 55 47 99 25
0f 48 4f a4 42 00 81 80 61 59 45 59 31 59 01 01
01 01 01 01 01 01 30 2a 00 98 51 00 2a 40 30 70
13 00 32 e6 10 00 00 3d 00 00 00 ff 00 20 49 4f
20 20 31 37 37 37 39 30 38 36 00 00 00 fc 00 50
48 49 4c 49 50 53 20 31 30 37 53 0a 00 00 00 fd
00 32 78 1e 46 0b 00 0a 20 20 20 20 20 20 00 ba

----------------

Block 0, Base EDID:
  EDID Structure Version & Revision: 1.1
  Vendor & Product Identification:
    Manufacturer: PHL
    Model: 45436
    Serial Number: ...
    Made in: week 12 of 1999
  Basic Display Parameters & Features:
    Analog display
    Signal Level Standard: 0.700 : 0.300 : 1.000 V p-p
    Blank level equals black level
    Sync: Separate Composite SyncOnGreen
    Maximum image size: 31 cm x 23 cm
    Gamma: 2.77
    DPMS levels: Standby Suspend Off
    RGB color display
  Color Characteristics:
    Red  : 0.6357, 0.3339
    Green: 0.2802, 0.6005
    Blue : 0.1445, 0.0605
    White: 0.2812, 0.3105
  Established Timings I & II:
    IBM     :   720x400    70.081663 Hz   9:5     31.467 kHz     28.320000 MHz
    DMT 0x04:   640x480    59.940476 Hz   4:3     31.469 kHz     25.175000 MHz
    DMT 0x06:   640x480    75.000000 Hz   4:3     37.500 kHz     31.500000 MHz
    DMT 0x0b:   800x600    75.000000 Hz   4:3     46.875 kHz     49.500000 MHz
    DMT 0x12:  1024x768    75.028582 Hz   4:3     60.023 kHz     78.750000 MHz
  Standard Timings:
    DMT 0x23:  1280x1024   60.019740 Hz   5:4     63.981 kHz    108.000000 MHz
    DMT 0x13:  1024x768    84.996690 Hz   4:3     68.677 kHz     94.500000 MHz
    DMT 0x0c:   800x600    85.061274 Hz   4:3     53.674 kHz     56.250000 MHz
    DMT 0x07:   640x480    85.008312 Hz   4:3     43.269 kHz     36.000000 MHz
  Detailed Timing Descriptors:
    DTD 1:  1280x1024   60.019740 Hz   5:4     63.981 kHz    108.000000 MHz (interleaved right even, 306 mm x 230 mm)
                 Hfront   48 Hsync 112 Hback  248 Hpol N
                 Vfront    1 Vsync   3 Vback   38 Vpol P
    Display Product Serial Number: ...
    Display Product Name: 'PHILIPS 107S'
    Display Range Limits:
      Monitor ranges (GTF): 50-120 Hz V, 30-70 kHz H, max dotclock 110 MHz
Checksum: 0xba

----------------

Block 1, Unknown EDID Extension Block 0x00:
  00 ff ff ff ff ff ff 00 41 0c 7c b1 8e 49 0f 01 '........A.|..I..'
  0c 09 01 01 0e 1f 17 b1 e8 ef 22 a2 55 47 99 25 '..........".UG.%'
  0f 48 4f a4 42 00 81 80 61 59 45 59 31 59 01 01 '.HO.B...aYEY1Y..'
  01 01 01 01 01 01 30 2a 00 98 51 00 2a 40 30 70 '......0*..Q.*@0p'
  13 00 32 e6 10 00 00 3d 00 00 00 ff 00 20 49 4f '..2....=..... IO'
  20 20 31 37 37 37 39 30 38 36 00 00 00 fc 00 50 '  17779086.....P'
  48 49 4c 49 50 53 20 31 30 37 53 0a 00 00 00 fd 'HILIPS 107S.....'
  00 32 78 1e 46 0b 00 0a 20 20 20 20 20 20 00 ba '.2x.F...      ..'
Checksum: 0xba

----------------

Warnings:

Block 0, Base EDID:
  EDID Structure Version & Revision: EDID 1.1 is deprecated, do not use.
  Detailed Timing Descriptor #1: DTD is similar but not identical to DMT 0x23.

Failures:

Block 1, Base EDID:
  Unknown Extension Block.
EDID:
  Base EDID: EDID specified 0 extension block(s), but found 1 extension block(s).

EDID conformity: FAIL
