
EDID (hex):
00ffffffffffff0004724f045fb16761
101a0104b55224783beed1a555489b26
125054230800d1c0b300950081808140
81c081000101b5997050d0a034500820
6808336b3100001c0f7a7050d0a02950
0820b804336b3100001c000000fd001e
4ba0a03c010a202020202020000000fc
0041636572205852333431434b0a01b1
020323f14b01030412130514221f9007
23090707830100006a030c0010003878
200000023a801871382d40582c450033
6b3100001e011d007251d01e206e2855
00336b3100001e8c0ad08a20e02d1010
3e9600336b31000018cd4600a0a0381f
4030203a00336b3100001aef5170e0d4
a0355000703a50336b3100001c00003d

Extracted contents:
header:          00 ff ff ff ff ff ff 00
serial number:   04 72 4f 04 5f b1 67 61 10 1a
version:         01 04
basic params:    b5 52 24 78 3b
chroma info:     ee d1 a5 55 48 9b 26 12 50 54
established:     23 08 00
standard:        d1 c0 b3 00 95 00 81 80 81 40 81 c0 81 00 01 01
descriptor 1:    b5 99 70 50 d0 a0 34 50 08 20 68 08 33 6b 31 00 00 1c
descriptor 2:    0f 7a 70 50 d0 a0 29 50 08 20 b8 04 33 6b 31 00 00 1c
descriptor 3:    00 00 00 fd 00 1e 4b a0 a0 3c 01 0a 20 20 20 20 20 20
descriptor 4:    00 00 00 fc 00 41 63 65 72 20 58 52 33 34 31 43 4b 0a
extensions:      01
checksum:        b1

EDID version: 1.4
Manufacturer: ACR Model 44f Serial Number --
Made in week 16 of 2016
Digital display
10 bits per primary color channel
DisplayPort interface
Maximum image size: 82 cm x 36 cm
Gamma: 2.20
DPMS levels: Off
Supported color formats: RGB 4:4:4, YCrCb 4:4:4, YCrCb 4:2:2
First detailed timing includes the native pixel format and preferred refresh rate
Display is continuous frequency
Display x,y Chromaticity:
  Red:   0.6474, 0.3339
  Green: 0.2841, 0.6074
  Blue:  0.1513, 0.0712
  White: 0.3125, 0.3291
Established timings supported:
  640x480@60Hz 4:3 HorFreq: 31469 Hz Clock: 25.175 MHz
  800x600@56Hz 4:3 HorFreq: 35200 Hz Clock: 36.000 MHz
  800x600@60Hz 4:3 HorFreq: 37900 Hz Clock: 40.000 MHz
  1024x768@60Hz 4:3 HorFreq: 48400 Hz Clock: 65.000 MHz
Standard timings supported:
  1920x1080@60Hz 16:9
  1680x1050@60Hz 16:10 HorFreq: 64700 Hz Clock: 119.000 MHz
  1440x900@60Hz 16:10 HorFreq: 55500 Hz Clock: 88.750 MHz
  1280x1024@60Hz 5:4 HorFreq: 64000 Hz Clock: 108.000 MHz
  1280x960@60Hz 4:3 HorFreq: 60000 Hz Clock: 108.000 MHz
  1280x720@60Hz 16:9
  1280x800@60Hz 16:10
Detailed mode: Clock 393.490 MHz, 819 mm x 363 mm
               3440 3448 3480 3520 hborder 0
               1440 1478 1486 1492 vborder 0
               -hsync +vsync 
               VertFreq: 74 Hz, HorFreq: 111786 Hz
Detailed mode: Clock 312.470 MHz, 819 mm x 363 mm
               3440 3448 3480 3520 hborder 0
               1440 1467 1475 1481 vborder 0
               -hsync +vsync 
               VertFreq: 59 Hz, HorFreq: 88769 Hz
Monitor ranges (bare limits): 30-75Hz V, 160-160kHz H, max dotclock 600MHz
Monitor name: Acer XR341CK
Has 1 extension blocks
Checksum: 0xb1 (valid)

CTA extension block
Extension version: 3
31 bytes of CTA data
  Video data block
    VIC   1 640x480@60Hz 4:3  HorFreq: 31469 Hz Clock: 25.175 MHz
    VIC   3 720x480@60Hz 16:9  HorFreq: 31469 Hz Clock: 27.000 MHz
    VIC   4 1280x720@60Hz 16:9  HorFreq: 45000 Hz Clock: 74.250 MHz
    VIC  18 720x576@50Hz 16:9  HorFreq: 31250 Hz Clock: 27.000 MHz
    VIC  19 1280x720@50Hz 16:9  HorFreq: 37500 Hz Clock: 74.250 MHz
    VIC   5 1920x1080i@60Hz 16:9  HorFreq: 33750 Hz Clock: 74.250 MHz
    VIC  20 1920x1080i@50Hz 16:9  HorFreq: 28125 Hz Clock: 74.250 MHz
    VIC  34 1920x1080@30Hz 16:9  HorFreq: 33750 Hz Clock: 74.250 MHz
    VIC  31 1920x1080@50Hz 16:9  HorFreq: 56250 Hz Clock: 148.500 MHz
    VIC  16 1920x1080@60Hz 16:9 (native) HorFreq: 67500 Hz Clock: 148.500 MHz
    VIC   7 1440x480i@60Hz 16:9  HorFreq: 15734 Hz Clock: 27.000 MHz
  Audio data block
    Linear PCM, max channels 2
      Supported sample rates (kHz): 48 44.1 32
      Supported sample sizes (bits): 24 20 16
  Speaker allocation data block
    Speaker map:
      FL/FR - Front Left/Right
  Vendor-specific data block, OUI 000c03 (HDMI)
    Source physical address 1.0.0.0
    DC_36bit
    DC_30bit
    DC_Y444
    Maximum TMDS clock: 600MHz
    Extended HDMI video details:
Underscans PC formats by default
Basic audio support
Supports YCbCr 4:4:4
Supports YCbCr 4:2:2
1 native detailed modes
Detailed mode: Clock 148.500 MHz, 819 mm x 363 mm
               1920 2008 2052 2200 hborder 0
               1080 1084 1089 1125 vborder 0
               +hsync +vsync 
               VertFreq: 60 Hz, HorFreq: 67500 Hz
Detailed mode: Clock 74.250 MHz, 819 mm x 363 mm
               1280 1390 1430 1650 hborder 0
                720  725  730  750 vborder 0
               +hsync +vsync 
               VertFreq: 60 Hz, HorFreq: 45000 Hz
Detailed mode: Clock 27.000 MHz, 819 mm x 363 mm
                720  736  798  858 hborder 0
                480  489  495  525 vborder 0
               -hsync -vsync 
               VertFreq: 59 Hz, HorFreq: 31468 Hz
Detailed mode: Clock 181.250 MHz, 819 mm x 363 mm
               2560 2608 2640 2720 hborder 0
               1080 1083 1093 1111 vborder 0
               +hsync -vsync 
               VertFreq: 59 Hz, HorFreq: 66636 Hz
Detailed mode: Clock 209.750 MHz, 819 mm x 363 mm
               3440 3696 4064 4688 hborder 0
               1440 1443 1453 1493 vborder 0
               -hsync +vsync 
               VertFreq: 29 Hz, HorFreq: 44741 Hz
Checksum: 0x3d (valid)

EDID block does NOT conform to EDID 1.4!
	HDMI VSDB Max TMDS rate is > 340
Warning: One or more of the timings is out of range of the Monitor Ranges:
  Vertical Freq: 29 - 74 Hz
  Horizontal Freq: 15734 - 111786 Hz
  Maximum Clock: 393.490 MHz
