
EDID (hex):
00ffffffffffff0006afad5300000000
31200104a51d127803c42ca855489d24
0f4f5600000001010101010101010101
010101010101183d80bc70b024401010
3e001eb210000018000000fd00283c4b
4b10010a202020202020000000fe0041
554f0a202020202020202020000000fe
004231333355414e30322e34200a00ff

edid-decode (hex):

00 ff ff ff ff ff ff 00 06 af ad 53 00 00 00 00
31 20 01 04 a5 1d 12 78 03 c4 2c a8 55 48 9d 24
0f 4f 56 00 00 00 01 01 01 01 01 01 01 01 01 01
01 01 01 01 01 01 18 3d 80 bc 70 b0 24 40 10 10
3e 00 1e b2 10 00 00 18 00 00 00 fd 00 28 3c 4b
4b 10 01 0a 20 20 20 20 20 20 00 00 00 fe 00 41
55 4f 0a 20 20 20 20 20 20 20 20 20 00 00 00 fe
00 42 31 33 33 55 41 4e 30 32 2e 34 20 0a 00 ff

----------------

Block 0, Base EDID:
  EDID Structure Version & Revision: 1.4
  Vendor & Product Identification:
    Manufacturer: AUO
    Model: 21421
    Made in: week 49 of 2022
  Basic Display Parameters & Features:
    Digital display
    Bits per primary color channel: 8
    DisplayPort interface
    Maximum image size: 29 cm x 18 cm
    Gamma: 2.20
    Supported color formats: RGB 4:4:4
    First detailed timing includes the native pixel format and preferred refresh rate
    Display is continuous frequency
  Color Characteristics:
    Red  : 0.6591, 0.3320
    Green: 0.2822, 0.6132
    Blue : 0.1406, 0.0605
    White: 0.3115, 0.3359
  Established Timings I & II: none
  Standard Timings: none
  Detailed Timing Descriptors:
    DTD 1:  1920x1200   60.027143 Hz  16:10    74.194 kHz    156.400000 MHz (286 mm x 178 mm)
                 Hfront   16 Hsync  16 Hback  156 Hpol N
                 Vfront    3 Vsync  14 Vback   19 Vpol N
    Display Range Limits:
      Monitor ranges (Bare Limits): 40-60 Hz V, 75-75 kHz H, max dotclock 160 MHz
    Alphanumeric Data String: 'AUO'
    Alphanumeric Data String: 'B133UAN02.4 '
Checksum: 0xff
