edid-decode (hex):

00 ff ff ff ff ff ff 00 06 af 3c 19 00 00 00 00
00 13 01 04 90 1f 11 78 02 c8 a5 9e 57 54 92 26
99 50 54 00 00 00 01 01 01 01 01 01 01 01 01 01
01 01 01 01 01 01 bc 1b 56 6a 50 00 23 30 26 16
36 00 35 ad 10 00 00 1a bc 1b 56 8a 51 00 f0 30
26 16 36 00 35 ad 10 00 00 1a 00 00 00 fe 00 47
4a 34 37 35 80 42 31 34 30 58 57 31 00 00 00 00
00 00 41 22 94 01 01 00 00 01 01 0a 20 20 00 e6

----------------

Block 0, Base EDID:
  EDID Structure Version & Revision: 1.4
  Vendor & Product Identification:
    Manufacturer: AUO
    Model: 6460
    Made in: 2009
  Basic Display Parameters & Features:
    Digital display
    Bits per primary color channel: 6
    Digital interface is not defined
    Maximum image size: 31 cm x 17 cm
    Gamma: 2.20
    Supported color formats: RGB 4:4:4
    First detailed timing includes the native pixel format and preferred refresh rate
  Color Characteristics:
    Red  : 0.6201, 0.3398
    Green: 0.3300, 0.5703
    Blue : 0.1503, 0.5996
    White: 0.3134, 0.3291
  Established Timings I & II: none
  Standard Timings: none
  Detailed Timing Descriptors:
    DTD 1:  1366x768    60.066869 Hz 683:384   48.234 kHz     71.000000 MHz (309 mm x 173 mm)
                 Hfront   38 Hsync  22 Hback   46 Hpol P
                 Vfront    3 Vsync   6 Vback   26 Vpol N
    DTD 2:  1366x768    40.020743 Hz 683:384   40.341 kHz     71.000000 MHz (309 mm x 173 mm)
                 Hfront   38 Hsync  22 Hback  334 Hpol P
                 Vfront    3 Vsync   6 Vback  231 Vpol N
    Alphanumeric Data String: 'GJ475'
    Manufacturer-Specified Display Descriptor (0x00): 00 00 00 00 41 22 94 01 01 00 00 01 01 0a 20 20 '....A"........  '
Checksum: 0xe6

----------------

Failures:

Block 0, Base EDID:
  Alphanumeric Data String: Non-printable character.
  Missing Display Product Name.

EDID conformity: FAIL
