
EDID (hex):
00ffffffffffff005a63230e01010101
23140103802f1e782e78f5a655489b26
125054bfef80a9409500904081808140
714f310a010121399030621a274068b0
3600da281100001c000000ff00524147
3130333530303938370a000000fd0032
7818ba21000a202020202020000000fc
00565832323638776d0a202020200187
02010403fd5e905e611a274014143600
da281100001ea067905e611a27401414
3600da281100001e5b56905e611a2740
14143600da281100001e000000000000
00000000000000000000000000000000
00000000000000000000000000000000
00000000000000000000000000000000
000000000000000000000000000000c6

Extracted contents:
header:          00 ff ff ff ff ff ff 00
serial number:   5a 63 23 0e 01 01 01 01 23 14
version:         01 03
basic params:    80 2f 1e 78 2e
chroma info:     78 f5 a6 55 48 9b 26 12 50 54
established:     bf ef 80
standard:        a9 40 95 00 90 40 81 80 81 40 71 4f 31 0a 01 01
descriptor 1:    21 39 90 30 62 1a 27 40 68 b0 36 00 da 28 11 00 00 1c
descriptor 2:    00 00 00 ff 00 52 41 47 31 30 33 35 30 30 39 38 37 0a
descriptor 3:    00 00 00 fd 00 32 78 18 ba 21 00 0a 20 20 20 20 20 20
descriptor 4:    00 00 00 fc 00 56 58 32 32 36 38 77 6d 0a 20 20 20 20
extensions:      01
checksum:        87

EDID version: 1.3
Manufacturer: VSC Model e23 Serial Number --
Made in week 35 of 2010
Digital display
Maximum image size: 47 cm x 30 cm
Gamma: 2.20
DPMS levels: Off
RGB color display
Default (sRGB) color space is primary color space
First detailed timing is preferred timing
Display x,y Chromaticity:
  Red:   0.6494, 0.3349
  Green: 0.2832, 0.6054
  Blue:  0.1513, 0.0732
  White: 0.3134, 0.3291
Established timings supported:
  720x400@70Hz 9:5 HorFreq: 31469 Hz Clock: 28.320 MHz
  640x480@60Hz 4:3 HorFreq: 31469 Hz Clock: 25.175 MHz
  640x480@67Hz 4:3 HorFreq: 35000 Hz Clock: 30.240 MHz
  640x480@72Hz 4:3 HorFreq: 37900 Hz Clock: 31.500 MHz
  640x480@75Hz 4:3 HorFreq: 37500 Hz Clock: 31.500 MHz
  800x600@56Hz 4:3 HorFreq: 35200 Hz Clock: 36.000 MHz
  800x600@60Hz 4:3 HorFreq: 37900 Hz Clock: 40.000 MHz
  800x600@72Hz 4:3 HorFreq: 48100 Hz Clock: 50.000 MHz
  800x600@75Hz 4:3 HorFreq: 46900 Hz Clock: 49.500 MHz
  832x624@75Hz 4:3 HorFreq: 49726 Hz Clock: 57.284 MHz
  1024x768@60Hz 4:3 HorFreq: 48400 Hz Clock: 65.000 MHz
  1024x768@70Hz 4:3 HorFreq: 56500 Hz Clock: 75.000 MHz
  1024x768@75Hz 4:3 HorFreq: 60000 Hz Clock: 78.750 MHz
  1280x1024@75Hz 5:4 HorFreq: 80000 Hz Clock: 135.000 MHz
  1152x870@75Hz 192:145 HorFreq: 67500 Hz Clock: 108.000 MHz
Standard timings supported:
  1600x1200@60Hz 4:3 HorFreq: 75000 Hz Clock: 162.000 MHz
  1440x900@60Hz 16:10 HorFreq: 55500 Hz Clock: 88.750 MHz
  1400x1050@60Hz 4:3 HorFreq: 64700 Hz Clock: 101.000 MHz
  1280x1024@60Hz 5:4 HorFreq: 64000 Hz Clock: 108.000 MHz
  1280x960@60Hz 4:3 HorFreq: 60000 Hz Clock: 108.000 MHz
  1152x864@75Hz 4:3 HorFreq: 67500 Hz Clock: 108.000 MHz
  640x400@70Hz 16:10
Detailed mode: Clock 146.250 MHz, 474 mm x 296 mm
               1680 1784 1960 2240 hborder 0
               1050 1053 1059 1089 vborder 0
               -hsync +vsync 
               VertFreq: 59 Hz, HorFreq: 65290 Hz
Serial number: --
Monitor ranges (GTF): 50-120Hz V, 24-186kHz H, max dotclock 330MHz
Monitor name: VX2268wm
Has 1 extension blocks
Checksum: 0x87 (valid)

CTA extension block
Extension version: 1
0 8-byte timing descriptors
Detailed mode: Clock 243.170 MHz, 474 mm x 296 mm
               1680 1700 1720 2030 hborder 0
               1050 1053 1059 1089 vborder 0
               +hsync +vsync 
               VertFreq: 109 Hz, HorFreq: 119788 Hz
Detailed mode: Clock 265.280 MHz, 474 mm x 296 mm
               1680 1700 1720 2030 hborder 0
               1050 1053 1059 1089 vborder 0
               +hsync +vsync 
               VertFreq: 119 Hz, HorFreq: 130679 Hz
Detailed mode: Clock 221.070 MHz, 474 mm x 296 mm
               1680 1700 1720 2030 hborder 0
               1050 1053 1059 1089 vborder 0
               +hsync +vsync 
               VertFreq: 100 Hz, HorFreq: 108901 Hz
Checksum: 0xc6 (valid)

EDID block does NOT conform to EDID 1.3!
	sRGB is signaled, but the chromaticities do not match
EDID block does not conform at all!
	Has 1 nonconformant extension block(s)
	Both the serial number and the serial string are set
