
EDID (hex):
00ffffffffffff0026cf890400000000
15140103801a0e780a12309156539228
1e505400000001010101010101010101
010101010101051e56c2500035303020
3c000090100000190000000000000000
00000000000000000000000000fd0037
412b3108000a202020202020000000fc
004d3131364e575231205230200a0078

Extracted contents:
header:          00 ff ff ff ff ff ff 00
serial number:   26 cf 89 04 00 00 00 00 15 14
version:         01 03
basic params:    80 1a 0e 78 0a
chroma info:     12 30 91 56 53 92 28 1e 50 54
established:     00 00 00
standard:        01 01 01 01 01 01 01 01 01 01 01 01 01 01 01 01
descriptor 1:    05 1e 56 c2 50 00 35 30 30 20 3c 00 00 90 10 00 00 19
descriptor 2:    00 00 00 00 00 00 00 00 00 00 00 00 00 00 00 00 00 00
descriptor 3:    00 00 00 fd 00 37 41 2b 31 08 00 0a 20 20 20 20 20 20
descriptor 4:    00 00 00 fc 00 4d 31 31 36 4e 57 52 31 20 52 30 20 0a
extensions:      00
checksum:        78

EDID version: 1.3
Manufacturer: IVO Model 489 Serial Number --
Made in week 21 of 2010
Digital display
Maximum image size: 26 cm x 14 cm
Gamma: 2.20
RGB color display
First detailed timing is preferred timing
Display x,y Chromaticity:
  Red:   0.5664, 0.3369
  Green: 0.3242, 0.5722
  Blue:  0.1562, 0.1201
  White: 0.3125, 0.3281
Established timings supported:
Standard timings supported:
Detailed mode: Clock 76.850 MHz, 256 mm x 144 mm
               1366 1414 1446 1560 hborder 0
                768  771  783  821 vborder 0
               -hsync -vsync 
               VertFreq: 60 Hz, HorFreq: 49262 Hz
Manufacturer-specified data, tag 0
Monitor ranges (GTF): 55-65Hz V, 43-49kHz H, max dotclock 80MHz
Monitor name: M116NWR1 R0 
Checksum: 0x78 (valid)
One or more of the timings is out of range of the Monitor Ranges:
  Vertical Freq: 60 - 60 Hz
  Horizontal Freq: 49262 - 49262 Hz
  Maximum Clock: 76.850 MHz
