edid-decode (hex):

00 ff ff ff ff ff ff 00 26 cf 89 04 00 00 00 00
1e 14 01 03 80 1a 0e 78 0a bb d0 94 57 55 91 27
21 50 54 00 00 00 01 01 01 01 01 01 01 01 01 01
01 01 01 01 01 01 05 1e 56 c2 50 00 35 30 30 20
3c 00 00 90 10 00 00 19 00 00 00 00 00 00 00 00
00 00 00 00 00 00 00 00 00 00 00 00 00 fd 00 37
41 2b 31 08 00 0a 20 20 20 20 20 20 00 00 00 fc
00 4d 31 31 36 4e 57 52 31 20 52 31 20 0a 00 1e

----------------

Block 0, Base EDID:
  EDID Structure Version & Revision: 1.3
  Vendor & Product Identification:
    Manufacturer: IVO
    Model: 1161
    Made in: week 30 of 2010
  Basic Display Parameters & Features:
    Digital display
    Maximum image size: 26 cm x 14 cm
    Gamma: 2.20
    RGB color display
    First detailed timing is the preferred timing
  Color Characteristics:
    Red  : 0.5800, 0.3427
    Green: 0.3339, 0.5693
    Blue : 0.1552, 0.1298
    White: 0.3125, 0.3281
  Established Timings I & II: none
  Standard Timings: none
  Detailed Timing Descriptors:
    DTD 1:  1366x768    60.003 Hz 683:384  49.263 kHz  76.850 MHz (256 mm x 144 mm)
                 Hfront   48 Hsync  32 Hback 114 Hpol N
                 Vfront    3 Vsync  12 Vback  38 Vpol N
    Empty Descriptor
  Display Range Limits:
    Monitor ranges (GTF): 55-65 Hz V, 43-49 kHz H, max dotclock 80 MHz
    Display Product Name: 'M116NWR1 R1 '
Checksum: 0x1e

----------------

Failures:

Block 0, Base EDID:
  Empty Descriptor: Use Dummy Descriptor instead of all zeroes.
  Display Product Name: One or more trailing spaces.

EDID conformity: FAIL
