
EDID (hex):
00ffffffffffff0009e5be0700000000
0b1c0104951d117802de50a3544c9926
0f505400000001010101010101010101
0101010101013d36806e70383c403020
350026a51000001a2824806e70383c40
3020350026a51000001a000000000000
00000000000000000000000000000000
000c3bff0b3c6e17121f960000000047

edid-decode (hex):

00 ff ff ff ff ff ff 00 09 e5 be 07 00 00 00 00
0b 1c 01 04 95 1d 11 78 02 de 50 a3 54 4c 99 26
0f 50 54 00 00 00 01 01 01 01 01 01 01 01 01 01
01 01 01 01 01 01 3d 36 80 6e 70 38 3c 40 30 20
35 00 26 a5 10 00 00 1a 28 24 80 6e 70 38 3c 40
30 20 35 00 26 a5 10 00 00 1a 00 00 00 00 00 00
00 00 00 00 00 00 00 00 00 00 00 00 00 00 00 00
00 0c 3b ff 0b 3c 6e 17 12 1f 96 00 00 00 00 47

----------------

Block 0, Base EDID:
  EDID Structure Version & Revision: 1.4
  Vendor & Product Identification:
    Manufacturer: BOE
    Model: 1982
    Made in: week 11 of 2018
  Basic Display Parameters & Features:
    Digital display
    Bits per primary color channel: 6
    DisplayPort interface
    Maximum image size: 29 cm x 17 cm
    Gamma: 2.20
    Supported color formats: RGB 4:4:4
    First detailed timing includes the native pixel format and preferred refresh rate
  Color Characteristics:
    Red  : 0.6396, 0.3291
    Green: 0.2998, 0.5996
    Blue : 0.1494, 0.0595
    White: 0.3125, 0.3281
  Established Timings I & II: none
  Standard Timings: none
  Detailed Timing Descriptors:
    DTD 1:  1920x1080   59.999136 Hz  16:9     68.399 kHz    138.850000 MHz (294 mm x 165 mm)
                 Hfront   48 Hsync  32 Hback   30 Hpol P
                 Vfront    3 Vsync   5 Vback   52 Vpol N
    DTD 2:  1920x1080   39.996543 Hz  16:9     45.596 kHz     92.560000 MHz (294 mm x 165 mm)
                 Hfront   48 Hsync  32 Hback   30 Hpol P
                 Vfront    3 Vsync   5 Vback   52 Vpol N
    Empty Descriptor
    Manufacturer-Specified Display Descriptor (0x00): 00 00 00 0c 3b ff 0b 3c 6e 17 12 1f 96 00 00 00 '....;..<n.......'
Checksum: 0x47


