edid-decode (hex):

00 ff ff ff ff ff ff 00 09 e5 08 07 00 00 00 00
01 1a 01 04 95 1d 10 78 02 92 90 97 59 55 91 28
20 50 54 00 00 00 01 01 01 01 01 01 01 01 01 01
01 01 01 01 01 01 c6 1d 56 e2 50 00 1e 30 26 16
44 00 15 9c 10 00 00 1a d1 17 56 e2 50 00 1e 30
26 16 44 00 15 9c 10 00 00 1a 00 00 00 fe 00 30
34 50 33 47 80 48 42 31 33 32 30 31 00 00 00 00
00 00 41 11 94 00 10 00 00 09 01 0a 20 20 00 15

----------------

Block 0, Base EDID:
  EDID Structure Version & Revision: 1.4
  Vendor & Product Identification:
    Manufacturer: BOE
    Model: 1800
    Made in: week 1 of 2016
  Basic Display Parameters & Features:
    Digital display
    Bits per primary color channel: 6
    DisplayPort interface
    Maximum image size: 29 cm x 16 cm
    Gamma: 2.20
    Supported color formats: RGB 4:4:4
    First detailed timing includes the native pixel format and preferred refresh rate
  Color Characteristics:
    Red  : 0.5917, 0.3486
    Green: 0.3320, 0.5683
    Blue : 0.1582, 0.1259
    White: 0.3125, 0.3281
  Established Timings I & II: none
  Standard Timings: none
  Detailed Timing Descriptors:
    DTD 1:  1366x768    59.996096 Hz 683:384   47.877 kHz     76.220000 MHz (277 mm x 156 mm)
                 Hfront   38 Hsync  22 Hback  166 Hpol P
                 Vfront    4 Vsync   4 Vback   22 Vpol N
    DTD 2:  1366x768    47.992154 Hz 683:384   38.298 kHz     60.970000 MHz (277 mm x 156 mm)
                 Hfront   38 Hsync  22 Hback  166 Hpol P
                 Vfront    4 Vsync   4 Vback   22 Vpol N
    Alphanumeric Data String: '04P3G'
    Manufacturer-Specified Display Descriptor (0x00): 00 00 00 00 41 11 94 00 10 00 00 09 01 0a 20 20 '....A.........  '
Checksum: 0x15

----------------

Failures:

Block 0, Base EDID:
  Alphanumeric Data String: Non-printable character.
  Missing Display Product Name.

EDID conformity: FAIL
