
EDID (hex):
00ffffffffffff0009e5080700000000
011a0104951d10780292909759559128
20505400000001010101010101010101
010101010101c61d56e250001e302616
4400159c1000001ad11756e250001e30
26164400159c1000001a000000fe0030
34503347804842313332303100000000
00004111940010000009010a20200015

Extracted contents:
header:          00 ff ff ff ff ff ff 00
serial number:   09 e5 08 07 00 00 00 00 01 1a
version:         01 04
basic params:    95 1d 10 78 02
chroma info:     92 90 97 59 55 91 28 20 50 54
established:     00 00 00
standard:        01 01 01 01 01 01 01 01 01 01 01 01 01 01 01 01
descriptor 1:    c6 1d 56 e2 50 00 1e 30 26 16 44 00 15 9c 10 00 00 1a
descriptor 2:    d1 17 56 e2 50 00 1e 30 26 16 44 00 15 9c 10 00 00 1a
descriptor 3:    00 00 00 fe 00 30 34 50 33 47 80 48 42 31 33 32 30 31
descriptor 4:    00 00 00 00 00 00 41 11 94 00 10 00 00 09 01 0a 20 20
extensions:      00
checksum:        15

EDID version: 1.4
Manufacturer: BOE Model 708 Serial Number --
Made in week 1 of 2016
Digital display
6 bits per primary color channel
DisplayPort interface
Maximum image size: 29 cm x 16 cm
Gamma: 2.20
Supported color formats: RGB 4:4:4
First detailed timing includes the native pixel format and preferred refresh rate
Display x,y Chromaticity:
  Red:   0.5917, 0.3486
  Green: 0.3320, 0.5683
  Blue:  0.1582, 0.1259
  White: 0.3125, 0.3281
Established timings supported:
Standard timings supported:
Detailed mode: Clock 76.220 MHz, 277 mm x 156 mm
               1366 1404 1426 1592 hborder 0
                768  772  776  798 vborder 0
               +hsync -vsync 
               VertFreq: 59 Hz, HorFreq: 47876 Hz
Detailed mode: Clock 60.970 MHz, 277 mm x 156 mm
               1366 1404 1426 1592 hborder 0
                768  772  776  798 vborder 0
               +hsync -vsync 
               VertFreq: 47 Hz, HorFreq: 38297 Hz
ASCII string: 04P3G
Manufacturer-specified data, tag 0
Checksum: 0x15 (valid)
EDID block does NOT conform to EDID 1.4!
	Missing name descriptor
	Missing monitor ranges
	Detailed block string not properly terminated
