
EDID (hex):
00ffffffffffff001e6df63a01010101
2b0a0101281c15a0e8bf599e58469b24
0f484cbfe8003bca3140314f3159454f
455961400101100e80c020e01d103838
130004c310000018000000fd0032781e
3606000a202020202020000000fc0053
747564696f576f726b732035000000fc
003532560a20202020202020202000f3

Extracted contents:
header:          00 ff ff ff ff ff ff 00
serial number:   1e 6d f6 3a 01 01 01 01 2b 0a
version:         01 01
basic params:    28 1c 15 a0 e8
chroma info:     bf 59 9e 58 46 9b 24 0f 48 4c
established:     bf e8 00
standard:        3b ca 31 40 31 4f 31 59 45 4f 45 59 61 40 01 01
descriptor 1:    10 0e 80 c0 20 e0 1d 10 38 38 13 00 04 c3 10 00 00 18
descriptor 2:    00 00 00 fd 00 32 78 1e 36 06 00 0a 20 20 20 20 20 20
descriptor 3:    00 00 00 fc 00 53 74 75 64 69 6f 57 6f 72 6b 73 20 35
descriptor 4:    00 00 00 fc 00 35 32 56 0a 20 20 20 20 20 20 20 20 20
extensions:      00
checksum:        f3

EDID version: 1.1
Manufacturer: GSM Model 3af6 Serial Number --
Analog display, Input voltage level: 0.714/0.286 V
Sync: Separate 
Maximum image size: 28 cm x 21 cm
Gamma: 2.60
DPMS levels: Standby Suspend Off
RGB color display
Display x,y Chromaticity:
  Red:   0.6191, 0.3466
  Green: 0.2763, 0.6083
  Blue:  0.1416, 0.0595
  White: 0.2832, 0.2978
Established timings supported:
  720x400@70Hz 9:5 HorFreq: 31469 Hz Clock: 28.320 MHz
  640x480@60Hz 4:3 HorFreq: 31469 Hz Clock: 25.175 MHz
  640x480@67Hz 4:3 HorFreq: 35000 Hz Clock: 30.240 MHz
  640x480@72Hz 4:3 HorFreq: 37900 Hz Clock: 31.500 MHz
  640x480@75Hz 4:3 HorFreq: 37500 Hz Clock: 31.500 MHz
  800x600@56Hz 4:3 HorFreq: 35200 Hz Clock: 36.000 MHz
  800x600@60Hz 4:3 HorFreq: 37900 Hz Clock: 40.000 MHz
  800x600@72Hz 4:3 HorFreq: 48100 Hz Clock: 50.000 MHz
  800x600@75Hz 4:3 HorFreq: 46900 Hz Clock: 49.500 MHz
  832x624@75Hz 4:3 HorFreq: 49726 Hz Clock: 57.284 MHz
  1024x768@60Hz 4:3 HorFreq: 48400 Hz Clock: 65.000 MHz
Standard timings supported:
  720x405@70Hz 16:9
  640x480@60Hz 4:3 HorFreq: 31469 Hz Clock: 25.175 MHz
  640x480@75Hz 4:3 HorFreq: 37500 Hz Clock: 31.500 MHz
  640x480@85Hz 4:3 HorFreq: 43300 Hz Clock: 36.000 MHz
  800x600@75Hz 4:3 HorFreq: 46900 Hz Clock: 49.500 MHz
  800x600@85Hz 4:3 HorFreq: 53700 Hz Clock: 56.250 MHz
  1024x768@60Hz 4:3 HorFreq: 48400 Hz Clock: 65.000 MHz
Detailed mode: Clock 36.000 MHz, 260 mm x 195 mm
                640  696  752  832 hborder 0
                480  481  484  509 vborder 0
               -hsync -vsync 
               VertFreq: 85 Hz, HorFreq: 43269 Hz
Monitor ranges (GTF): 50-120Hz V, 30-54kHz H, max dotclock 60MHz
Monitor name: StudioWorks 552V
Checksum: 0xf3 (valid)
EDID block does NOT conform to EDID 1.0!
	Has descriptor blocks other than detailed timings
One or more of the timings is out of range of the Monitor Ranges:
  Vertical Freq: 56 - 85 Hz
  Horizontal Freq: 31469 - 53700 Hz
  Maximum Clock: 65.000 MHz
EDID block does not conform at all!
	Bad year of manufacture
