
EDID (hex):
00ffffffffffff0052d45e00e1020000
330e010380261e78ea1145a45a4aa024
14505421080081800101010101010101
010101010101302a009851002c403070
1300782d1100001e000000fd00324b1e
500b000a202020202020000000fc0054
3931300a2020202020202020000000fc
0020202020202020202020202020005f

Extracted contents:
header:          00 ff ff ff ff ff ff 00
serial number:   52 d4 5e 00 e1 02 00 00 33 0e
version:         01 03
basic params:    80 26 1e 78 ea
chroma info:     11 45 a4 5a 4a a0 24 14 50 54
established:     21 08 00
standard:        81 80 01 01 01 01 01 01 01 01 01 01 01 01 01 01
descriptor 1:    30 2a 00 98 51 00 2c 40 30 70 13 00 78 2d 11 00 00 1e
descriptor 2:    00 00 00 fd 00 32 4b 1e 50 0b 00 0a 20 20 20 20 20 20
descriptor 3:    00 00 00 fc 00 54 39 31 30 0a 20 20 20 20 20 20 20 20
descriptor 4:    00 00 00 fc 00 20 20 20 20 20 20 20 20 20 20 20 20 20
extensions:      00
checksum:        5f

EDID version: 1.3
Manufacturer: TVT Model 5e Serial Number --
Digital display
Maximum image size: 38 cm x 30 cm
Gamma: 2.20
DPMS levels: Standby Suspend Off
RGB color display
First detailed timing is preferred timing
Display x,y Chromaticity:
  Red:   0.6406, 0.3525
  Green: 0.2890, 0.6259
  Blue:  0.1416, 0.0781
  White: 0.3134, 0.3291
Established timings supported:
  640x480@60Hz 4:3 HorFreq: 31469 Hz Clock: 25.175 MHz
  800x600@60Hz 4:3 HorFreq: 37900 Hz Clock: 40.000 MHz
  1024x768@60Hz 4:3 HorFreq: 48400 Hz Clock: 65.000 MHz
Standard timings supported:
  1280x1024@60Hz 5:4 HorFreq: 64000 Hz Clock: 108.000 MHz
Detailed mode: Clock 108.000 MHz, 376 mm x 301 mm
               1280 1328 1440 1688 hborder 0
               1024 1025 1028 1068 vborder 0
               +hsync +vsync 
               VertFreq: 59 Hz, HorFreq: 63981 Hz
Monitor ranges (GTF): 50-75Hz V, 30-80kHz H, max dotclock 110MHz
Monitor name: T910
Checksum: 0x5f (valid)
EDID block does not conform at all!
	Bad year of manufacture
