
EDID (hex):
00ffffffffffff0009e52d0900000000
0c1e0104a522137803cea0a4564c9c26
11505400000001010101010101010101
0101010101019a3680a0703828403020
360058c21000001aae2b80a070382840
3020360058c21000001a000000fe0042
4f452048460a202020202020000000fe
004e4531353646484d2d4e36310a0145
00000000000000000000000000000000
00000000000000000000000000000000
00000000000000000000000000000000
00000000000000000000000000000000
00000000000000000000000000000000
00000000000000000000000000000000
00000000000000000000000000000000
00000000000000000000000000000000

Extracted contents:
header:          00 ff ff ff ff ff ff 00
serial number:   09 e5 2d 09 00 00 00 00 0c 1e
version:         01 04
basic params:    a5 22 13 78 03
chroma info:     ce a0 a4 56 4c 9c 26 11 50 54
established:     00 00 00
standard:        01 01 01 01 01 01 01 01 01 01 01 01 01 01 01 01
descriptor 1:    9a 36 80 a0 70 38 28 40 30 20 36 00 58 c2 10 00 00 1a
descriptor 2:    ae 2b 80 a0 70 38 28 40 30 20 36 00 58 c2 10 00 00 1a
descriptor 3:    00 00 00 fe 00 42 4f 45 20 48 46 0a 20 20 20 20 20 20
descriptor 4:    00 00 00 fe 00 4e 45 31 35 36 46 48 4d 2d 4e 36 31 0a
extensions:      01
checksum:        45

EDID version: 1.4
Manufacturer: BOE Model 92d Serial Number --
Made in week 12 of 2020
Digital display
8 bits per primary color channel
DisplayPort interface
Maximum image size: 34 cm x 19 cm
Gamma: 2.20
Supported color formats: RGB 4:4:4
First detailed timing includes the native pixel format and preferred refresh rate
Display is continuous frequency
Display x,y Chromaticity:
  Red:   0.6435, 0.3359
  Green: 0.2998, 0.6113
  Blue:  0.1503, 0.0683
  White: 0.3125, 0.3281
Established timings supported:
Standard timings supported:
Detailed mode: Clock 139.780 MHz, 344 mm x 194 mm
               1920 1968 2000 2080 hborder 0
               1080 1083 1089 1120 vborder 0
               +hsync -vsync 
               VertFreq: 60 Hz, HorFreq: 67201 Hz
Detailed mode: Clock 111.820 MHz, 344 mm x 194 mm
               1920 1968 2000 2080 hborder 0
               1080 1083 1089 1120 vborder 0
               +hsync -vsync 
               VertFreq: 47 Hz, HorFreq: 53759 Hz
ASCII string: BOE HF
ASCII string: NE156FHM-N61
Has 1 extension blocks
Checksum: 0x45 (valid)

Unknown extension block

EDID block does NOT conform to EDID 1.4!
	Missing name descriptor
	Missing monitor ranges
EDID block does not conform at all!
	Has -1157627904 nonconformant extension block(s)
