
EDID (hex):
00ffffffffffff0009e5630900000000
161e0104a51d1278034410a6514b9c25
10505400000001010101010101010101
010101010101b53a806470b028403020
36001eb31000001af82e806470b02840
302036001eb31000001a000000fe0033
464e4459804e56313333575500000000
000241339e001100000a010a202000d7

Extracted contents:
header:          00 ff ff ff ff ff ff 00
serial number:   09 e5 63 09 00 00 00 00 16 1e
version:         01 04
basic params:    a5 1d 12 78 03
chroma info:     44 10 a6 51 4b 9c 25 10 50 54
established:     00 00 00
standard:        01 01 01 01 01 01 01 01 01 01 01 01 01 01 01 01
descriptor 1:    b5 3a 80 64 70 b0 28 40 30 20 36 00 1e b3 10 00 00 1a
descriptor 2:    f8 2e 80 64 70 b0 28 40 30 20 36 00 1e b3 10 00 00 1a
descriptor 3:    00 00 00 fe 00 33 46 4e 44 59 80 4e 56 31 33 33 57 55
descriptor 4:    00 00 00 00 00 02 41 33 9e 00 11 00 00 0a 01 0a 20 20
extensions:      00
checksum:        d7

EDID version: 1.4
Manufacturer: BOE Model 963 Serial Number --
Made in week 22 of 2020
Digital display
8 bits per primary color channel
DisplayPort interface
Maximum image size: 29 cm x 18 cm
Gamma: 2.20
Supported color formats: RGB 4:4:4
First detailed timing includes the native pixel format and preferred refresh rate
Display is continuous frequency
Display x,y Chromaticity:
  Red:   0.6494, 0.3164
  Green: 0.2939, 0.6093
  Blue:  0.1445, 0.0634
  White: 0.3125, 0.3281
Established timings supported:
Standard timings supported:
Detailed mode: Clock 150.290 MHz, 286 mm x 179 mm
               1920 1968 2000 2020 hborder 0
               1200 1203 1209 1240 vborder 0
               +hsync -vsync 
               VertFreq: 60 Hz, HorFreq: 74400 Hz
Detailed mode: Clock 120.240 MHz, 286 mm x 179 mm
               1920 1968 2000 2020 hborder 0
               1200 1203 1209 1240 vborder 0
               +hsync -vsync 
               VertFreq: 48 Hz, HorFreq: 59524 Hz
ASCII string: 3FNDY
Manufacturer-specified data, tag 0
Checksum: 0xd7 (valid)
EDID block does NOT conform to EDID 1.4!
	Missing name descriptor
	Missing monitor ranges
	Detailed block string not properly terminated
