
EDID (hex):
00ffffffffffff0025d8010000000000
191f010480221378034e61945d558c26
1b4e5200000001010101010101010101
010101010101c83a801871383c403020
360058c21000001a072f801871383c40
3020360058c21000001a000000fe0042
4c510a202020202020202020000000fe
00494e4e4f4c55583135360a202000cb

Extracted contents:
header:          00 ff ff ff ff ff ff 00
serial number:   25 d8 01 00 00 00 00 00 19 1f
version:         01 04
basic params:    80 22 13 78 03
chroma info:     4e 61 94 5d 55 8c 26 1b 4e 52
established:     00 00 00
standard:        01 01 01 01 01 01 01 01 01 01 01 01 01 01 01 01
descriptor 1:    c8 3a 80 18 71 38 3c 40 30 20 36 00 58 c2 10 00 00 1a
descriptor 2:    07 2f 80 18 71 38 3c 40 30 20 36 00 58 c2 10 00 00 1a
descriptor 3:    00 00 00 fe 00 42 4c 51 0a 20 20 20 20 20 20 20 20 20
descriptor 4:    00 00 00 fe 00 49 4e 4e 4f 4c 55 58 31 35 36 0a 20 20
extensions:      00
checksum:        cb

EDID version: 1.4
Manufacturer: INX Model 1 Serial Number --
Made in week 25 of 2021
Digital display
Color depth is undefined
Digital interface is not defined
Maximum image size: 34 cm x 19 cm
Gamma: 2.20
Supported color formats: RGB 4:4:4
First detailed timing includes the native pixel format and preferred refresh rate
Display is continuous frequency
Display x,y Chromaticity:
  Red:   0.5791, 0.3632
  Green: 0.3349, 0.5488
  Blue:  0.1494, 0.1074
  White: 0.3046, 0.3212
Established timings supported:
Standard timings supported:
Detailed mode: Clock 150.480 MHz, 344 mm x 194 mm
               1920 1968 2000 2200 hborder 0
               1080 1083 1089 1140 vborder 0
               +hsync -vsync 
               VertFreq: 60 Hz, HorFreq: 68400 Hz
Detailed mode: Clock 120.390 MHz, 344 mm x 194 mm
               1920 1968 2000 2200 hborder 0
               1080 1083 1089 1140 vborder 0
               +hsync -vsync 
               VertFreq: 48 Hz, HorFreq: 54722 Hz
ASCII string: BLQ
ASCII string: INNOLUX156
Checksum: 0xcb (valid)
EDID block does NOT conform to EDID 1.4!
	Missing name descriptor
	Missing monitor ranges
