edid-decode (hex):

00 ff ff ff ff ff ff 00 25 d8 01 00 00 00 00 00
19 1f 01 04 80 22 13 78 03 4e 61 94 5d 55 8c 26
1b 4e 52 00 00 00 01 01 01 01 01 01 01 01 01 01
01 01 01 01 01 01 c8 3a 80 18 71 38 3c 40 30 20
36 00 58 c2 10 00 00 1a 07 2f 80 18 71 38 3c 40
30 20 36 00 58 c2 10 00 00 1a 00 00 00 fe 00 42
4c 51 0a 20 20 20 20 20 20 20 20 20 00 00 00 fe
00 49 4e 4e 4f 4c 55 58 31 35 36 0a 20 20 00 cb

----------------

Block 0, Base EDID:
  EDID Structure Version & Revision: 1.4
  Vendor & Product Identification:
    Manufacturer: INX
    Model: 1
    Made in: week 25 of 2021
  Basic Display Parameters & Features:
    Digital display
    Color depth is undefined
    Digital interface is not defined
    Maximum image size: 34 cm x 19 cm
    Gamma: 2.20
    Supported color formats: RGB 4:4:4
    First detailed timing includes the native pixel format and preferred refresh rate
    Display is continuous frequency
  Color Characteristics:
    Red  : 0.5791, 0.3632
    Green: 0.3349, 0.5488
    Blue : 0.1494, 0.1074
    White: 0.3046, 0.3212
  Established Timings I & II: none
  Standard Timings: none
  Detailed Timing Descriptors:
    DTD 1:  1920x1080   60.000000 Hz  16:9     68.400 kHz    150.480000 MHz (344 mm x 194 mm)
                 Hfront   48 Hsync  32 Hback  200 Hpol P
                 Vfront    3 Vsync   6 Vback   51 Vpol N
    DTD 2:  1920x1080   48.002392 Hz  16:9     54.723 kHz    120.390000 MHz (344 mm x 194 mm)
                 Hfront   48 Hsync  32 Hback  200 Hpol P
                 Vfront    3 Vsync   6 Vback   51 Vpol N
    Alphanumeric Data String: 'BLQ'
    Alphanumeric Data String: 'INNOLUX156'
Checksum: 0xcb

----------------

Warnings:

Block 0, Base EDID:
  Missing Display Product Name.

Failures:

Block 0, Base EDID:
  Missing Display Range Limits Descriptor.

EDID conformity: FAIL
