
EDID (hex):
00ffffffffffff0006af9aad00000000
291f0104a522167803a7f5a75549a426
0c505400000001010101010101010101
01010101010194c080a070b0ec403020
a50058d71000001894c080a070b0bc4a
3020a50058d710000018000000fd0030
a5eded31010a202020202020000000fe
004231363055414e30312e4a200a00a2

Extracted contents:
header:          00 ff ff ff ff ff ff 00
serial number:   06 af 9a ad 00 00 00 00 29 1f
version:         01 04
basic params:    a5 22 16 78 03
chroma info:     a7 f5 a7 55 49 a4 26 0c 50 54
established:     00 00 00
standard:        01 01 01 01 01 01 01 01 01 01 01 01 01 01 01 01
descriptor 1:    94 c0 80 a0 70 b0 ec 40 30 20 a5 00 58 d7 10 00 00 18
descriptor 2:    94 c0 80 a0 70 b0 bc 4a 30 20 a5 00 58 d7 10 00 00 18
descriptor 3:    00 00 00 fd 00 30 a5 ed ed 31 01 0a 20 20 20 20 20 20
descriptor 4:    00 00 00 fe 00 42 31 36 30 55 41 4e 30 31 2e 4a 20 0a
extensions:      00
checksum:        a2

EDID version: 1.4
Manufacturer: AUO Model ad9a Serial Number --
Made in week 41 of 2021
Digital display
8 bits per primary color channel
DisplayPort interface
Maximum image size: 34 cm x 22 cm
Gamma: 2.20
Supported color formats: RGB 4:4:4
First detailed timing includes the native pixel format and preferred refresh rate
Display is continuous frequency
Display x,y Chromaticity:
  Red:   0.6542, 0.3339
  Green: 0.2861, 0.6435
  Blue:  0.1513, 0.0498
  White: 0.3134, 0.3291
Established timings supported:
Standard timings supported:
Detailed mode: Clock 493.000 MHz, 344 mm x 215 mm
               1920 1968 2000 2080 hborder 0
               1200 1210 1215 1436 vborder 0
               -hsync -vsync 
               VertFreq: 165 Hz, HorFreq: 237019 Hz
Detailed mode: Clock 493.000 MHz, 344 mm x 215 mm
               1920 1968 2000 2080 hborder 0
               1200 1210 1215 3948 vborder 0
               -hsync -vsync 
               VertFreq: 60 Hz, HorFreq: 237019 Hz
Monitor ranges (bare limits): 48-165Hz V, 237-237kHz H, max dotclock 490MHz
ASCII string: B160UAN01.J 
Checksum: 0xa2 (valid)
EDID block does NOT conform to EDID 1.4!
	Missing name descriptor
Warning: One or more of the timings is out of range of the Monitor Ranges:
  Vertical Freq: 60 - 165 Hz
  Horizontal Freq: 237019 - 237019 Hz
  Maximum Clock: 493.000 MHz


