edid-decode (hex):

00 ff ff ff ff ff ff 00 21 31 02 50 31 f1 31 01
08 0f 01 03 08 21 1b 78 ea ae a5 a6 54 4c 99 26
14 50 54 a7 ef 80 81 80 01 01 01 01 01 01 01 01
01 01 01 01 01 01 30 2a 00 98 51 00 2a 40 30 70
13 00 4a 0e 11 00 00 1e a0 0f 20 00 31 58 1c 20
28 80 14 00 4a 0e 11 00 00 1e 00 00 00 fd 00 38
4b 1f 53 ff 00 0a 20 20 20 20 20 20 00 00 00 fc
00 4c 37 32 44 20 44 2d 73 75 62 0a 20 20 00 85

00 ff ff ff ff ff ff 00 21 31 02 50 31 f1 31 01
08 0f 01 03 08 21 1b 78 ea ae a5 a6 54 4c 99 26
14 50 54 a7 ef 80 81 80 01 01 01 01 01 01 01 01
01 01 01 01 01 01 30 2a 00 98 51 00 2a 40 30 70
13 00 4a 0e 11 00 00 1e a0 0f 20 00 31 58 1c 20
28 80 14 00 4a 0e 11 00 00 1e 00 00 00 fd 00 38
4b 1f 53 ff 00 0a 20 20 20 20 20 20 00 00 00 fc
00 4c 37 32 44 20 44 2d 73 75 62 0a 20 20 00 85

----------------

Block 0, Base EDID:
  EDID Structure Version & Revision: 1.3
  Vendor & Product Identification:
    Manufacturer: HIQ
    Model: 20482
    Serial Number: ...
    Made in: week 8 of 2005
  Basic Display Parameters & Features:
    Analog display
    Signal Level Standard: 0.700 : 0.300 : 1.000 V p-p
    Blank level equals black level
    Sync: Separate
    Maximum image size: 33 cm x 27 cm
    Gamma: 2.20
    DPMS levels: Standby Suspend Off
    RGB color display
    First detailed timing is the preferred timing
  Color Characteristics:
    Red  : 0.6503, 0.3300
    Green: 0.2998, 0.5996
    Blue : 0.1503, 0.0800
    White: 0.3134, 0.3291
  Established Timings I & II:
    IBM     :   720x400    70.081663 Hz   9:5     31.467 kHz     28.320000 MHz
    DMT 0x04:   640x480    59.940476 Hz   4:3     31.469 kHz     25.175000 MHz
    DMT 0x06:   640x480    75.000000 Hz   4:3     37.500 kHz     31.500000 MHz
    DMT 0x08:   800x600    56.250000 Hz   4:3     35.156 kHz     36.000000 MHz
    DMT 0x09:   800x600    60.316541 Hz   4:3     37.879 kHz     40.000000 MHz
    DMT 0x0a:   800x600    72.187572 Hz   4:3     48.077 kHz     50.000000 MHz
    DMT 0x0b:   800x600    75.000000 Hz   4:3     46.875 kHz     49.500000 MHz
    Apple   :   832x624    74.551266 Hz   4:3     49.726 kHz     57.284000 MHz
    DMT 0x10:  1024x768    60.003840 Hz   4:3     48.363 kHz     65.000000 MHz
    DMT 0x11:  1024x768    70.069359 Hz   4:3     56.476 kHz     75.000000 MHz
    DMT 0x12:  1024x768    75.028582 Hz   4:3     60.023 kHz     78.750000 MHz
    DMT 0x24:  1280x1024   75.024675 Hz   5:4     79.976 kHz    135.000000 MHz
    Apple   :  1152x870    75.061550 Hz 192:145   68.681 kHz    100.000000 MHz
  Standard Timings:
    DMT 0x23:  1280x1024   60.019740 Hz   5:4     63.981 kHz    108.000000 MHz
  Detailed Timing Descriptors:
    DTD 1:  1280x1024   60.019740 Hz   5:4     63.981 kHz    108.000000 MHz (330 mm x 270 mm)
                 Hfront   48 Hsync 112 Hback  248 Hpol P
                 Vfront    1 Vsync   3 Vback   38 Vpol P
    DTD 2:   800x600    60.316541 Hz   4:3     37.879 kHz     40.000000 MHz (330 mm x 270 mm)
                 Hfront   40 Hsync 128 Hback   88 Hpol P
                 Vfront    1 Vsync   4 Vback   23 Vpol P
    Display Range Limits:
      Monitor ranges (GTF): 56-75 Hz V, 31-83 kHz H, max dotclock 2550 MHz
    Display Product Name: 'L72D D-sub'
Checksum: 0x85

----------------

Block 1, Unknown EDID Extension Block 0x00:
  00 ff ff ff ff ff ff 00 21 31 02 50 31 f1 31 01 '........!1.P1.1.'
  08 0f 01 03 08 21 1b 78 ea ae a5 a6 54 4c 99 26 '.....!.x....TL.&'
  14 50 54 a7 ef 80 81 80 01 01 01 01 01 01 01 01 '.PT.............'
  01 01 01 01 01 01 30 2a 00 98 51 00 2a 40 30 70 '......0*..Q.*@0p'
  13 00 4a 0e 11 00 00 1e a0 0f 20 00 31 58 1c 20 '..J....... .1X. '
  28 80 14 00 4a 0e 11 00 00 1e 00 00 00 fd 00 38 '(...J..........8'
  4b 1f 53 ff 00 0a 20 20 20 20 20 20 00 00 00 fc 'K.S...      ....'
  00 4c 37 32 44 20 44 2d 73 75 62 0a 20 20 00 85 '.L72D D-sub.  ..'
Checksum: 0x85

----------------

Failures:

Block 1, Base EDID:
  Unknown Extension Block.
EDID:
  Base EDID: EDID specified 0 extension block(s), but found 1 extension block(s).

EDID conformity: FAIL
