
EDID (hex):
00ffffffffffff004dd9f00801010101
250d01012e5c347808bf0ea25a43ac2a
134e51bfef80a940818f714f61594559
315931408159bc34009851002a401090
1300148f2100001e000000fd0030590f
5c11000a202020202020000000fc0050
464d2d343242320a20202020000000ff
00323031313338300a202020202000ae

Extracted contents:
header:          00 ff ff ff ff ff ff 00
serial number:   4d d9 f0 08 01 01 01 01 25 0d
version:         01 01
basic params:    2e 5c 34 78 08
chroma info:     bf 0e a2 5a 43 ac 2a 13 4e 51
established:     bf ef 80
standard:        a9 40 81 8f 71 4f 61 59 45 59 31 59 31 40 81 59
descriptor 1:    bc 34 00 98 51 00 2a 40 10 90 13 00 14 8f 21 00 00 1e
descriptor 2:    00 00 00 fd 00 30 59 0f 5c 11 00 0a 20 20 20 20 20 20
descriptor 3:    00 00 00 fc 00 50 46 4d 2d 34 32 42 32 0a 20 20 20 20
descriptor 4:    00 00 00 ff 00 32 30 31 31 33 38 30 0a 20 20 20 20 20
extensions:      00
checksum:        ae

EDID version: 1.1
Manufacturer: SNY Model 8f0 Serial Number --
Analog display, Input voltage level: 0.714/0.286 V
Sync: Separate Composite SyncOnGreen 
Maximum image size: 92 cm x 52 cm
Gamma: 2.20
RGB color display
Display x,y Chromaticity:
  Red:   0.6347, 0.3544
  Green: 0.2646, 0.6748
  Blue:  0.1640, 0.0742
  White: 0.3076, 0.3183
Established timings supported:
  720x400@70Hz 9:5 HorFreq: 31469 Hz Clock: 28.320 MHz
  640x480@60Hz 4:3 HorFreq: 31469 Hz Clock: 25.175 MHz
  640x480@67Hz 4:3 HorFreq: 35000 Hz Clock: 30.240 MHz
  640x480@72Hz 4:3 HorFreq: 37900 Hz Clock: 31.500 MHz
  640x480@75Hz 4:3 HorFreq: 37500 Hz Clock: 31.500 MHz
  800x600@56Hz 4:3 HorFreq: 35200 Hz Clock: 36.000 MHz
  800x600@60Hz 4:3 HorFreq: 37900 Hz Clock: 40.000 MHz
  800x600@72Hz 4:3 HorFreq: 48100 Hz Clock: 50.000 MHz
  800x600@75Hz 4:3 HorFreq: 46900 Hz Clock: 49.500 MHz
  832x624@75Hz 4:3 HorFreq: 49726 Hz Clock: 57.284 MHz
  1024x768@60Hz 4:3 HorFreq: 48400 Hz Clock: 65.000 MHz
  1024x768@70Hz 4:3 HorFreq: 56500 Hz Clock: 75.000 MHz
  1024x768@75Hz 4:3 HorFreq: 60000 Hz Clock: 78.750 MHz
  1280x1024@75Hz 5:4 HorFreq: 80000 Hz Clock: 135.000 MHz
  1152x870@75Hz 192:145 HorFreq: 67500 Hz Clock: 108.000 MHz
Standard timings supported:
  1600x1200@60Hz 4:3 HorFreq: 75000 Hz Clock: 162.000 MHz
  1280x1024@75Hz 5:4 HorFreq: 80000 Hz Clock: 135.000 MHz
  1152x864@75Hz 4:3 HorFreq: 67500 Hz Clock: 108.000 MHz
  1024x768@85Hz 4:3 HorFreq: 68700 Hz Clock: 94.500 MHz
  800x600@85Hz 4:3 HorFreq: 53700 Hz Clock: 56.250 MHz
  640x480@85Hz 4:3 HorFreq: 43300 Hz Clock: 36.000 MHz
  640x480@60Hz 4:3 HorFreq: 31469 Hz Clock: 25.175 MHz
  1280x960@85Hz 4:3 HorFreq: 85900 Hz Clock: 148.500 MHz
Detailed mode: Clock 135.000 MHz, 532 mm x 399 mm
               1280 1296 1440 1688 hborder 0
               1024 1025 1028 1066 vborder 0
               +hsync +vsync 
               VertFreq: 75 Hz, HorFreq: 79976 Hz
Monitor ranges (GTF): 48-89Hz V, 15-92kHz H, max dotclock 170MHz
Monitor name: PFM-42B2
Serial number: --
Checksum: 0xae (valid)
EDID block does NOT conform to EDID 1.0!
	Has descriptor blocks other than detailed timings
EDID block does not conform at all!
	Bad year of manufacture
