
EDID (hex):
00ffffffffffff001e6d883e01010101
0b1401036a221378ea2335a4554d9b25
12505421080031404540614001010101
010101010101662150b051001b304070
360096e51000001e0000000000000000
00000000000000000000000000fd0039
3f1e3209000a202020202020000000fc
0057313634330a20202020202020005a

Extracted contents:
header:          00 ff ff ff ff ff ff 00
serial number:   1e 6d 88 3e 01 01 01 01 0b 14
version:         01 03
basic params:    6a 22 13 78 ea
chroma info:     23 35 a4 55 4d 9b 25 12 50 54
established:     21 08 00
standard:        31 40 45 40 61 40 01 01 01 01 01 01 01 01 01 01
descriptor 1:    66 21 50 b0 51 00 1b 30 40 70 36 00 96 e5 10 00 00 1e
descriptor 2:    00 00 00 00 00 00 00 00 00 00 00 00 00 00 00 00 00 00
descriptor 3:    00 00 00 fd 00 39 3f 1e 32 09 00 0a 20 20 20 20 20 20
descriptor 4:    00 00 00 fc 00 57 31 36 34 33 0a 20 20 20 20 20 20 20
extensions:      00
checksum:        5a

EDID version: 1.3
Manufacturer: GSM Model 3e88 Serial Number --
Made in week 11 of 2010
Analog display, Input voltage level: 0.7/0.7 V
Sync: Separate SyncOnGreen 
Maximum image size: 34 cm x 19 cm
Gamma: 2.20
DPMS levels: Standby Suspend Off
RGB color display
First detailed timing is preferred timing
Display x,y Chromaticity:
  Red:   0.6406, 0.3339
  Green: 0.3007, 0.6083
  Blue:  0.1445, 0.0732
  White: 0.3134, 0.3291
Established timings supported:
  640x480@60Hz 4:3 HorFreq: 31469 Hz Clock: 25.175 MHz
  800x600@60Hz 4:3 HorFreq: 37900 Hz Clock: 40.000 MHz
  1024x768@60Hz 4:3 HorFreq: 48400 Hz Clock: 65.000 MHz
Standard timings supported:
  640x480@60Hz 4:3 HorFreq: 31469 Hz Clock: 25.175 MHz
  800x600@60Hz 4:3 HorFreq: 37900 Hz Clock: 40.000 MHz
  1024x768@60Hz 4:3 HorFreq: 48400 Hz Clock: 65.000 MHz
Detailed mode: Clock 85.500 MHz, 406 mm x 229 mm
               1360 1424 1536 1792 hborder 0
                768  771  777  795 vborder 0
               +hsync +vsync 
               VertFreq: 60 Hz, HorFreq: 47712 Hz
Manufacturer-specified data, tag 0
Monitor ranges (GTF): 57-63Hz V, 30-50kHz H, max dotclock 90MHz
Monitor name: W1643
Checksum: 0x5a (valid)
