edid-decode (hex):

00 ff ff ff ff ff ff 00 0d af 10 15 00 00 00 00
00 00 01 03 80 1e 17 78 0a 0a b5 97 57 51 89 26
1e 50 54 00 00 00 01 01 01 01 01 01 01 01 01 01
01 01 01 01 01 01 30 2a 78 20 51 1a 10 40 30 70
34 00 30 e4 10 00 00 18 00 00 00 fe 00 4e 31 35
30 50 35 2d 4c 30 32 0a 20 20 00 00 00 fe 00 43
4d 4f 0a 20 20 20 20 20 20 20 20 20 00 00 00 fe
00 4e 31 35 30 50 35 2d 4c 30 32 0a 20 20 00 8f

----------------

Block 0, Base EDID:
  EDID Structure Version & Revision: 1.3
  Vendor & Product Identification:
    Manufacturer: CMO
    Model: 5392
    Made in: 1990
  Basic Display Parameters & Features:
    Digital display
    Maximum image size: 30 cm x 23 cm
    Gamma: 2.20
    RGB color display
    First detailed timing is preferred timing
  Color Characteristics:
    Red  : 0.5898, 0.3398
    Green: 0.3183, 0.5371
    Blue : 0.1503, 0.1201
    White: 0.3134, 0.3291
  Established Timings I & II: none
  Standard Timings: none
  Detailed Timing Descriptors:
    DTD 1:  1400x1050   60.020 Hz   4:3    63.981 kHz 108.000 MHz (304 mm x 228 mm)
                 Hfront   48 Hsync 112 Hback 128 Hpol N
                 Vfront    3 Vsync   4 Vback   9 Vpol N
    Alphanumeric Data String: 'N150P5-L02'
    Alphanumeric Data String: 'CMO'
    Alphanumeric Data String: 'N150P5-L02'
Checksum: 0x8f

----------------

Failures:

Block 0, Base EDID:
  Missing Display Product Name.
  Missing Display Range Limits Descriptor.

EDID conformity: FAIL
