
EDID (hex):
00ffffffffffff0006af9da100000000
1a1f0104b5261578035b91af5039bc25
0c545700000001010101010101010101
01010101010194d900a0f070a0803020
35007dd6100000180000000f00000000
00000000000000000020000000fd0c30
7818186f010a202020202020000000fe
00423137335a414e30362e41200a0202
02030f00e3058000e60605018b8b1100
00000000000000000000000000000000
00000000000000000000000000000000
00000000000000000000000000000000
00000000000000000000000000000000
00000000000000000000000000000000
00000000000000000000000000000000
0000000000000000000000000000006b
701379000003011428b30184ff0e9f00
2f001f006f089f000200040000000000
00000000000000000000000000000000
00000000000000000000000000000000
00000000000000000000000000000000
00000000000000000000000000000000
00000000000000000000000000000000
0000000000000000000000000000e690

Extracted contents:
header:          00 ff ff ff ff ff ff 00
serial number:   06 af 9d a1 00 00 00 00 1a 1f
version:         01 04
basic params:    b5 26 15 78 03
chroma info:     5b 91 af 50 39 bc 25 0c 54 57
established:     00 00 00
standard:        01 01 01 01 01 01 01 01 01 01 01 01 01 01 01 01
descriptor 1:    94 d9 00 a0 f0 70 a0 80 30 20 35 00 7d d6 10 00 00 18
descriptor 2:    00 00 00 0f 00 00 00 00 00 00 00 00 00 00 00 00 00 20
descriptor 3:    00 00 00 fd 0c 30 78 18 18 6f 01 0a 20 20 20 20 20 20
descriptor 4:    00 00 00 fe 00 42 31 37 33 5a 41 4e 30 36 2e 41 20 0a
extensions:      02
checksum:        02

EDID version: 1.4
Manufacturer: AUO Model a19d Serial Number --
Made in week 26 of 2021
Digital display
10 bits per primary color channel
DisplayPort interface
Maximum image size: 38 cm x 21 cm
Gamma: 2.20
Supported color formats: RGB 4:4:4
First detailed timing includes the native pixel format and preferred refresh rate
Display is continuous frequency
Display x,y Chromaticity:
  Red:   0.6845, 0.3134
  Green: 0.2246, 0.7373
  Blue:  0.1464, 0.0478
  White: 0.3281, 0.3408
Established timings supported:
Standard timings supported:
Detailed mode: Clock 557.000 MHz, 381 mm x 214 mm
               3840 3888 3920 4000 hborder 0
               2160 2163 2168 2320 vborder 0
               -hsync -vsync 
               VertFreq: 60 Hz, HorFreq: 139250 Hz
Manufacturer-specified data, tag 15
Monitor ranges (bare limits): 48-120Hz V, 24-279kHz H, max dotclock 1110MHz
ASCII string: B173ZAN06.A 
Has 2 extension blocks
Checksum: 0x2 (valid)

CTA extension block
Extension version: 3
11 bytes of CTA data
  Extended tag: Colorimetry data block
    BT2020RGB
  Extended tag: HDR static metadata data block
    Electro optical transfer functions:
      Traditional gamma - SDR luminance range
      SMPTE ST2084
    Supported static metadata descriptors:
      Static metadata type 1
    Desired content max luminance: 139 (1015.241 cd/m^2)
    Desired content max frame-average luminance: 139 (1015.241 cd/m^2)
    Desired content min luminance: 17 (0.045 cd/m^2)
0 native detailed modes
Checksum: 0x6b (valid)


DisplayID extension block
Extension version: 19
Length 121, version 19, extension count 0
Checksum: 0xe6 (valid)
Type 1 detailed timing: aspect: 16:9, Preferred  
Detailed mode: Clock 1114.000 MHz, 0 mm x 0 mm
               3839 3886 3917 3998
               2159 2161 2165 2318
               -hsync -vsync

EDID block does NOT conform to EDID 1.4!
	Required 640x480p60 timings are missing in the established timings
	and/or in the SVD list (VIC 1)
	Missing name descriptor
