
EDID (hex):
00ffffffffffff00410c4e55e46c0900
090d0103681c15b9e8bfc89e58479924
0f484ca4480045590101010101010101
01010101010164190040410026301888
36000eca10000018000000ff00204358
20203631373730300a20000000fc0031
3035450a2020202020202020000000fd
0032781e3607000a202020202020007d

edid-decode (hex):

00 ff ff ff ff ff ff 00 41 0c 4e 55 e4 6c 09 00
09 0d 01 03 68 1c 15 b9 e8 bf c8 9e 58 47 99 24
0f 48 4c a4 48 00 45 59 01 01 01 01 01 01 01 01
01 01 01 01 01 01 64 19 00 40 41 00 26 30 18 88
36 00 0e ca 10 00 00 18 00 00 00 ff 00 20 43 58
20 20 36 31 37 37 30 30 0a 20 00 00 00 fc 00 31
30 35 45 0a 20 20 20 20 20 20 20 20 00 00 00 fd
00 32 78 1e 36 07 00 0a 20 20 20 20 20 20 00 7d

----------------

Block 0, Base EDID:
  EDID Structure Version & Revision: 1.3
  Vendor & Product Identification:
    Manufacturer: PHL
    Model: 21838
    Serial Number: 617700
    Made in: week 9 of 2003
  Basic Display Parameters & Features:
    Analog display
    Signal Level Standard: 0.700 : 0.000 : 0.700 V p-p
    Blank level equals black level
    Sync: Separate
    Maximum image size: 28 cm x 21 cm
    Gamma: 2.85
    DPMS levels: Standby Suspend Off
    RGB color display
  Color Characteristics:
    Red  : 0.6191, 0.3466
    Green: 0.2802, 0.6005
    Blue : 0.1435, 0.0585
    White: 0.2832, 0.2968
  Established Timings I & II:
    IBM     :   720x400    70.081663 Hz   9:5     31.467 kHz     28.320000 MHz
    DMT 0x04:   640x480    59.940476 Hz   4:3     31.469 kHz     25.175000 MHz
    DMT 0x06:   640x480    75.000000 Hz   4:3     37.500 kHz     31.500000 MHz
    DMT 0x0b:   800x600    75.000000 Hz   4:3     46.875 kHz     49.500000 MHz
    DMT 0x10:  1024x768    60.003840 Hz   4:3     48.363 kHz     65.000000 MHz
  Standard Timings:
    DMT 0x0c:   800x600    85.061274 Hz   4:3     53.674 kHz     56.250000 MHz
  Detailed Timing Descriptors:
    DTD 1:  1024x768    60.003840 Hz   4:3     48.363 kHz     65.000000 MHz (270 mm x 202 mm)
                 Hfront   24 Hsync 136 Hback  160 Hpol N
                 Vfront    3 Vsync   6 Vback   29 Vpol N
    Display Product Serial Number: ' CX  617700'
    Display Product Name: '105E'
    Display Range Limits:
      Monitor ranges (GTF): 50-120 Hz V, 30-54 kHz H, max dotclock 70 MHz
Checksum: 0x7d
