edid-decode (hex):

00 ff ff ff ff ff ff 00 0e 14 ec 04 00 00 00 00
31 12 01 03 80 17 0e 78 0a 50 75 8f 55 58 94 27
1b 50 54 00 00 00 01 01 01 01 01 01 01 01 01 01
01 01 01 01 01 01 d0 11 00 c0 40 58 19 20 30 20
36 00 de 82 00 00 00 19 00 00 00 00 00 00 00 00
00 00 00 00 00 00 00 00 00 00 00 00 00 fe 00 43
50 54 20 20 20 20 20 20 20 20 20 20 00 00 00 fe
00 43 4c 41 41 31 30 32 4e 41 32 43 20 20 00 7f

----------------

Block 0, Base EDID:
  EDID Structure Version & Revision: 1.3
  Vendor & Product Identification:
    Manufacturer: CPT
    Model: 1260
    Made in: week 49 of 2008
  Basic Display Parameters & Features:
    Digital display
    Maximum image size: 23 cm x 14 cm
    Gamma: 2.20
    RGB color display
    First detailed timing is the preferred timing
  Color Characteristics:
    Red  : 0.5595, 0.3330
    Green: 0.3437, 0.5781
    Blue : 0.1533, 0.1083
    White: 0.3134, 0.3291
  Established Timings I & II: none
  Standard Timings: none
  Detailed Timing Descriptors:
    DTD 1:  1024x600    60.000 Hz 128:75   37.500 kHz  45.600 MHz (222 mm x 130 mm)
                 Hfront   48 Hsync  32 Hback 112 Hpol N
                 Vfront    3 Vsync   6 Vback  16 Vpol N
    Empty Descriptor
    Alphanumeric Data String: 'CPT          '
    Alphanumeric Data String: 'CLAA102NA2C  '
Checksum: 0x7f

----------------

Failures:

Block 0, Base EDID:
  Empty Descriptor: Use Dummy Descriptor instead of all zeroes.
  Alphanumeric Data String: One or more trailing spaces.
  Alphanumeric Data String: One or more trailing spaces.
  Missing Display Product Name.
  Missing Display Range Limits Descriptor.

EDID conformity: FAIL
