
EDID (hex):
00ffffffffffff0030e47f0300000000
00160103801d11780a8f15985b558f27
21505400000001010101010101010101
0101010101012e2640b860840c303030
230026a6100000190000000000000000
00000000000000000000000000fe004c
4720446973706c61790a2020000000fe
004c503133335744322d534c423100bd

edid-decode (hex):

00 ff ff ff ff ff ff 00 30 e4 7f 03 00 00 00 00
00 16 01 03 80 1d 11 78 0a 8f 15 98 5b 55 8f 27
21 50 54 00 00 00 01 01 01 01 01 01 01 01 01 01
01 01 01 01 01 01 2e 26 40 b8 60 84 0c 30 30 30
23 00 26 a6 10 00 00 19 00 00 00 00 00 00 00 00
00 00 00 00 00 00 00 00 00 00 00 00 00 fe 00 4c
47 20 44 69 73 70 6c 61 79 0a 20 20 00 00 00 fe
00 4c 50 31 33 33 57 44 32 2d 53 4c 42 31 00 bd

----------------

Block 0, Base EDID:
  EDID Structure Version & Revision: 1.3
  Vendor & Product Identification:
    Manufacturer: LGD
    Model: 895
    Made in: 2012
  Basic Display Parameters & Features:
    Digital display
    Maximum image size: 29 cm x 17 cm
    Gamma: 2.20
    RGB color display
    First detailed timing is the preferred timing
  Color Characteristics:
    Red  : 0.5957, 0.3554
    Green: 0.3349, 0.5615
    Blue : 0.1523, 0.1298
    White: 0.3134, 0.3291
  Established Timings I & II: none
  Standard Timings: none
  Detailed Timing Descriptors:
    DTD 1:  1600x900    60.073460 Hz  16:9     54.787 kHz     97.740000 MHz (294 mm x 166 mm)
                 Hfront   48 Hsync  48 Hback   88 Hpol N
                 Vfront    2 Vsync   3 Vback    7 Vpol N
    Empty Descriptor
    Alphanumeric Data String: 'LG Display'
    Alphanumeric Data String: 'LP133WD2-SLB1'
Checksum: 0xbd
