
EDID (hex):
00ffffffffffff0030e41b0300000000
00150103801f11780a37459658578e28
1e505400000001010101010101010101
010101010101581b567e50000e302430
350036ae100000190000000000000000
00000000000000000000000000fe004c
4720446973706c61790a2020000000fe
004c503134305748362d544a423100c2

Extracted contents:
header:          00 ff ff ff ff ff ff 00
serial number:   30 e4 1b 03 00 00 00 00 00 15
version:         01 03
basic params:    80 1f 11 78 0a
chroma info:     37 45 96 58 57 8e 28 1e 50 54
established:     00 00 00
standard:        01 01 01 01 01 01 01 01 01 01 01 01 01 01 01 01
descriptor 1:    58 1b 56 7e 50 00 0e 30 24 30 35 00 36 ae 10 00 00 19
descriptor 2:    00 00 00 00 00 00 00 00 00 00 00 00 00 00 00 00 00 00
descriptor 3:    00 00 00 fe 00 4c 47 20 44 69 73 70 6c 61 79 0a 20 20
descriptor 4:    00 00 00 fe 00 4c 50 31 34 30 57 48 36 2d 54 4a 42 31
extensions:      00
checksum:        c2

EDID version: 1.3
Manufacturer: LGD Model 31b Serial Number --
Made in year 2011
Digital display
Maximum image size: 31 cm x 17 cm
Gamma: 2.20
RGB color display
First detailed timing is preferred timing
Display x,y Chromaticity:
  Red:   0.5859, 0.3466
  Green: 0.3408, 0.5576
  Blue:  0.1572, 0.1171
  White: 0.3134, 0.3291
Established timings supported:
Standard timings supported:
Detailed mode: Clock 70.000 MHz, 310 mm x 174 mm
               1366 1402 1450 1492 hborder 0
                768  771  776  782 vborder 0
               -hsync -vsync 
               VertFreq: 59 Hz, HorFreq: 46916 Hz
Manufacturer-specified data, tag 0
ASCII string: LG Display
ASCII string: LP140WH6-TJB1
Checksum: 0xc2 (valid)
EDID block does NOT conform to EDID 1.3!
	Missing name descriptor
	Missing monitor ranges
