
EDID (hex):
00ffffffffffff0006af2d5200000000
301c0104951d117802a4159e554e9b26
0f505400000001010101010101010101
010101010101b43780a070383e403a2a
350025a51000001a232580a070383e40
3a2a350025a51000001a000000fe0032
444b344b004231333348414e00000000
00008122a8001100000b010a2020004d

edid-decode (hex):

00 ff ff ff ff ff ff 00 06 af 2d 52 00 00 00 00
30 1c 01 04 95 1d 11 78 02 a4 15 9e 55 4e 9b 26
0f 50 54 00 00 00 01 01 01 01 01 01 01 01 01 01
01 01 01 01 01 01 b4 37 80 a0 70 38 3e 40 3a 2a
35 00 25 a5 10 00 00 1a 23 25 80 a0 70 38 3e 40
3a 2a 35 00 25 a5 10 00 00 1a 00 00 00 fe 00 32
44 4b 34 4b 00 42 31 33 33 48 41 4e 00 00 00 00
00 00 81 22 a8 00 11 00 00 0b 01 0a 20 20 00 4d

----------------

Block 0, Base EDID:
  EDID Structure Version & Revision: 1.4
  Vendor & Product Identification:
    Manufacturer: AUO
    Model: 21037
    Made in: week 48 of 2018
  Basic Display Parameters & Features:
    Digital display
    Bits per primary color channel: 6
    DisplayPort interface
    Maximum image size: 29 cm x 17 cm
    Gamma: 2.20
    Supported color formats: RGB 4:4:4
    First detailed timing includes the native pixel format and preferred refresh rate
  Color Characteristics:
    Red  : 0.6191, 0.3339
    Green: 0.3056, 0.6054
    Blue : 0.1484, 0.0595
    White: 0.3134, 0.3291
  Established Timings I & II: none
  Standard Timings: none
  Detailed Timing Descriptors:
    DTD 1:  1920x1080   60.033006 Hz  16:9     68.558 kHz    142.600000 MHz (293 mm x 165 mm)
                 Hfront   58 Hsync  42 Hback   60 Hpol P
                 Vfront    3 Vsync   5 Vback   54 Vpol N
    DTD 2:  1920x1080   40.023407 Hz  16:9     45.707 kHz     95.070000 MHz (293 mm x 165 mm)
                 Hfront   58 Hsync  42 Hback   60 Hpol P
                 Vfront    3 Vsync   5 Vback   54 Vpol N
    Alphanumeric Data String: '2DK4K'
    Manufacturer-Specified Display Descriptor (0x00): 00 00 00 00 81 22 a8 00 11 00 00 0b 01 0a 20 20 '....."........  '
Checksum: 0x4d
