
EDID (hex):
00ffffffffffff004c83415400000000
00160104902213780a36259356559329
1d505400000001010101010101010101
010101010101ce1d56f0500018304030
250058c21000001ad81356f050001830
4030250058c21000001a000000fe0050
3133584b8031353641540a2000000000
00004121940010000001010a20200054

Extracted contents:
header:          00 ff ff ff ff ff ff 00
serial number:   4c 83 41 54 00 00 00 00 00 16
version:         01 04
basic params:    90 22 13 78 0a
chroma info:     36 25 93 56 55 93 29 1d 50 54
established:     00 00 00
standard:        01 01 01 01 01 01 01 01 01 01 01 01 01 01 01 01
descriptor 1:    ce 1d 56 f0 50 00 18 30 40 30 25 00 58 c2 10 00 00 1a
descriptor 2:    d8 13 56 f0 50 00 18 30 40 30 25 00 58 c2 10 00 00 1a
descriptor 3:    00 00 00 fe 00 50 31 33 58 4b 80 31 35 36 41 54 0a 20
descriptor 4:    00 00 00 00 00 00 41 21 94 00 10 00 00 01 01 0a 20 20
extensions:      00
checksum:        54

EDID version: 1.4
Manufacturer: SDC Model 5441 Serial Number --
Made in year 2012
Digital display
6 bits per primary color channel
Digital interface is not defined
Maximum image size: 34 cm x 19 cm
Gamma: 2.20
Supported color formats: RGB 4:4:4, YCrCb 4:4:4
First detailed timing includes the native pixel format and preferred refresh rate
Display x,y Chromaticity:
  Red:   0.5742, 0.3388
  Green: 0.3330, 0.5761
  Blue:  0.1601, 0.1152
  White: 0.3134, 0.3291
Established timings supported:
Standard timings supported:
Detailed mode: Clock 76.300 MHz, 344 mm x 194 mm
               1366 1430 1478 1606 hborder 0
                768  770  775  792 vborder 0
               +hsync -vsync 
               VertFreq: 59 Hz, HorFreq: 47509 Hz
Detailed mode: Clock 50.800 MHz, 344 mm x 194 mm
               1366 1430 1478 1606 hborder 0
                768  770  775  792 vborder 0
               +hsync -vsync 
               VertFreq: 39 Hz, HorFreq: 31631 Hz
ASCII string: P13XK
Manufacturer-specified data, tag 0
Checksum: 0x54 (valid)
EDID block does NOT conform to EDID 1.4!
	Missing name descriptor
	Missing monitor ranges
	Detailed block string not properly terminated
