
EDID (hex):
00ffffffffffff00412f390001010101
320e0103806e3e786a0b32a0563bb329
134849bfee8031594559615971408140
81809040010164190040410026301888
36003b6c320000180e1f008051001e30
408037004e6c4200001c000000fd0037
3d18410c000a202020202020000000fc
005044502d35304d5845310a202000d8

Extracted contents:
header:          00 ff ff ff ff ff ff 00
serial number:   41 2f 39 00 01 01 01 01 32 0e
version:         01 03
basic params:    80 6e 3e 78 6a
chroma info:     0b 32 a0 56 3b b3 29 13 48 49
established:     bf ee 80
standard:        31 59 45 59 61 59 71 40 81 40 81 80 90 40 01 01
descriptor 1:    64 19 00 40 41 00 26 30 18 88 36 00 3b 6c 32 00 00 18
descriptor 2:    0e 1f 00 80 51 00 1e 30 40 80 37 00 4e 6c 42 00 00 1c
descriptor 3:    00 00 00 fd 00 37 3d 18 41 0c 00 0a 20 20 20 20 20 20
descriptor 4:    00 00 00 fc 00 50 44 50 2d 35 30 4d 58 45 31 0a 20 20
extensions:      00
checksum:        d8

EDID version: 1.3
Manufacturer: PIO Model 39 Serial Number --
Digital display
Maximum image size: 110 cm x 62 cm
Gamma: 2.20
DPMS levels: Suspend Off
RGB color display
First detailed timing is preferred timing
Display x,y Chromaticity:
  Red:   0.6250, 0.3359
  Green: 0.2324, 0.7021
  Blue:  0.1601, 0.0771
  White: 0.2812, 0.2871
Established timings supported:
  720x400@70Hz 9:5 HorFreq: 31469 Hz Clock: 28.320 MHz
  640x480@60Hz 4:3 HorFreq: 31469 Hz Clock: 25.175 MHz
  640x480@67Hz 4:3 HorFreq: 35000 Hz Clock: 30.240 MHz
  640x480@72Hz 4:3 HorFreq: 37900 Hz Clock: 31.500 MHz
  640x480@75Hz 4:3 HorFreq: 37500 Hz Clock: 31.500 MHz
  800x600@56Hz 4:3 HorFreq: 35200 Hz Clock: 36.000 MHz
  800x600@60Hz 4:3 HorFreq: 37900 Hz Clock: 40.000 MHz
  800x600@72Hz 4:3 HorFreq: 48100 Hz Clock: 50.000 MHz
  800x600@75Hz 4:3 HorFreq: 46900 Hz Clock: 49.500 MHz
  832x624@75Hz 4:3 HorFreq: 49726 Hz Clock: 57.284 MHz
  1024x768@60Hz 4:3 HorFreq: 48400 Hz Clock: 65.000 MHz
  1024x768@70Hz 4:3 HorFreq: 56500 Hz Clock: 75.000 MHz
  1024x768@75Hz 4:3 HorFreq: 60000 Hz Clock: 78.750 MHz
  1152x870@75Hz 192:145 HorFreq: 67500 Hz Clock: 108.000 MHz
Standard timings supported:
  640x480@85Hz 4:3 HorFreq: 43300 Hz Clock: 36.000 MHz
  800x600@85Hz 4:3 HorFreq: 53700 Hz Clock: 56.250 MHz
  1024x768@85Hz 4:3 HorFreq: 68700 Hz Clock: 94.500 MHz
  1152x864@60Hz 4:3
  1280x960@60Hz 4:3 HorFreq: 60000 Hz Clock: 108.000 MHz
  1280x1024@60Hz 5:4 HorFreq: 64000 Hz Clock: 108.000 MHz
  1400x1050@60Hz 4:3 HorFreq: 64700 Hz Clock: 101.000 MHz
Detailed mode: Clock 65.000 MHz, 827 mm x 620 mm
               1024 1048 1184 1344 hborder 0
                768  771  777  806 vborder 0
               -hsync -vsync 
               VertFreq: 60 Hz, HorFreq: 48363 Hz
Detailed mode: Clock 79.500 MHz, 1102 mm x 620 mm
               1280 1344 1472 1664 hborder 0
                768  771  778  798 vborder 0
               -hsync +vsync 
               VertFreq: 59 Hz, HorFreq: 47776 Hz
Monitor ranges (GTF): 55-61Hz V, 24-65kHz H, max dotclock 120MHz
Monitor name: PDP-50MXE1
Checksum: 0xd8 (valid)
One or more of the timings is out of range of the Monitor Ranges:
  Vertical Freq: 56 - 85 Hz
  Horizontal Freq: 31469 - 68700 Hz
  Maximum Clock: 108.000 MHz
EDID block does not conform at all!
	Bad year of manufacture
