
EDID (hex):
00ffffffffffff0006afeb2100000000
001a0104a5231378022425a85036b626
0e505400000001010101010101010101
01010101010166d000a0f0703e803020
350059c2100000180000000f00000000
00000000000000000020000000fe0041
554f0a202020202020202020000000fe
00423135365a414e30322e31200a0014

Extracted contents:
header:          00 ff ff ff ff ff ff 00
serial number:   06 af eb 21 00 00 00 00 00 1a
version:         01 04
basic params:    a5 23 13 78 02
chroma info:     24 25 a8 50 36 b6 26 0e 50 54
established:     00 00 00
standard:        01 01 01 01 01 01 01 01 01 01 01 01 01 01 01 01
descriptor 1:    66 d0 00 a0 f0 70 3e 80 30 20 35 00 59 c2 10 00 00 18
descriptor 2:    00 00 00 0f 00 00 00 00 00 00 00 00 00 00 00 00 00 20
descriptor 3:    00 00 00 fe 00 41 55 4f 0a 20 20 20 20 20 20 20 20 20
descriptor 4:    00 00 00 fe 00 42 31 35 36 5a 41 4e 30 32 2e 31 20 0a
extensions:      00
checksum:        14

EDID version: 1.4
Manufacturer: AUO Model 21eb Serial Number --
Made in year 2016
Digital display
8 bits per primary color channel
DisplayPort interface
Maximum image size: 35 cm x 19 cm
Gamma: 2.20
Supported color formats: RGB 4:4:4
First detailed timing includes the native pixel format and preferred refresh rate
Display x,y Chromaticity:
  Red:   0.6562, 0.3144
  Green: 0.2119, 0.7109
  Blue:  0.1484, 0.0566
  White: 0.3134, 0.3291
Established timings supported:
Standard timings supported:
Detailed mode: Clock 533.500 MHz, 345 mm x 194 mm
               3840 3888 3920 4000 hborder 0
               2160 2163 2168 2222 vborder 0
               -hsync -vsync 
               VertFreq: 60 Hz, HorFreq: 133375 Hz
Manufacturer-specified data, tag 15
ASCII string: AUO
ASCII string: B156ZAN02.1 
Checksum: 0x14 (valid)
EDID block does NOT conform to EDID 1.4!
	Missing name descriptor
	Missing monitor ranges
