edid-decode (hex):

00 ff ff ff ff ff ff 00 2e 83 72 17 ab 00 00 00
0f 13 01 03 68 29 1a 78 ea f0 65 98 57 51 91 27
21 50 54 ad ce 00 95 00 81 80 71 4f 01 01 01 01
01 01 01 01 01 01 9a 29 a0 d0 51 84 22 30 50 98
36 00 9a 00 11 00 00 1c 0e 1f 00 80 51 00 1e 30
40 80 37 00 9a 00 11 00 00 1c 00 00 00 fd 00 38
4b 1f 44 09 00 0a 20 20 20 20 20 20 00 00 00 fc
00 57 37 30 30 36 53 0a 20 20 20 20 20 20 00 c5

00 ff ff ff ff ff ff 00 2e 83 72 17 ab 00 00 00
0f 13 01 03 68 29 1a 78 ea f0 65 98 57 51 91 27
21 50 54 ad ce 00 95 00 81 80 71 4f 01 01 01 01
01 01 01 01 01 01 9a 29 a0 d0 51 84 22 30 50 98
36 00 9a 00 11 00 00 1c 0e 1f 00 80 51 00 1e 30
40 80 37 00 9a 00 11 00 00 1c 00 00 00 fd 00 38
4b 1f 44 09 00 0a 20 20 20 20 20 20 00 00 00 fc
00 57 37 30 30 36 53 0a 20 20 20 20 20 20 00 c5

----------------

Block 0, Base EDID:
  EDID Structure Version & Revision: 1.3
  Vendor & Product Identification:
    Manufacturer: KTC
    Model: 6002
    Serial Number: ...
    Made in: week 15 of 2009
  Basic Display Parameters & Features:
    Analog display
    Signal Level Standard: 0.700 : 0.000 : 0.700 V p-p
    Blank level equals black level
    Sync: Separate
    Maximum image size: 41 cm x 26 cm
    Gamma: 2.20
    DPMS levels: Standby Suspend Off
    RGB color display
    First detailed timing is the preferred timing
  Color Characteristics:
    Red  : 0.5966, 0.3427
    Green: 0.3164, 0.5664
    Blue : 0.1533, 0.1308
    White: 0.3134, 0.3291
  Established Timings I & II:
    IBM     :   720x400    70.081663 Hz   9:5     31.467 kHz     28.320000 MHz
    DMT 0x04:   640x480    59.940476 Hz   4:3     31.469 kHz     25.175000 MHz
    DMT 0x05:   640x480    72.808802 Hz   4:3     37.861 kHz     31.500000 MHz
    DMT 0x06:   640x480    75.000000 Hz   4:3     37.500 kHz     31.500000 MHz
    DMT 0x09:   800x600    60.316541 Hz   4:3     37.879 kHz     40.000000 MHz
    DMT 0x0a:   800x600    72.187572 Hz   4:3     48.077 kHz     50.000000 MHz
    DMT 0x0b:   800x600    75.000000 Hz   4:3     46.875 kHz     49.500000 MHz
    DMT 0x10:  1024x768    60.003840 Hz   4:3     48.363 kHz     65.000000 MHz
    DMT 0x11:  1024x768    70.069359 Hz   4:3     56.476 kHz     75.000000 MHz
    DMT 0x12:  1024x768    75.028582 Hz   4:3     60.023 kHz     78.750000 MHz
  Standard Timings:
    DMT 0x2f:  1440x900    59.887445 Hz  16:10    55.935 kHz    106.500000 MHz
    DMT 0x23:  1280x1024   60.019740 Hz   5:4     63.981 kHz    108.000000 MHz
    DMT 0x15:  1152x864    75.000000 Hz   4:3     67.500 kHz    108.000000 MHz
  Detailed Timing Descriptors:
    DTD 1:  1440x900    59.887445 Hz  16:10    55.935 kHz    106.500000 MHz (410 mm x 256 mm)
                 Hfront   80 Hsync 152 Hback  232 Hpol N
                 Vfront    3 Vsync   6 Vback   25 Vpol P
    DTD 2:  1280x768    59.870228 Hz   5:3     47.776 kHz     79.500000 MHz (410 mm x 256 mm)
                 Hfront   64 Hsync 128 Hback  192 Hpol N
                 Vfront    3 Vsync   7 Vback   20 Vpol P
    Display Range Limits:
      Monitor ranges (GTF): 56-75 Hz V, 31-68 kHz H, max dotclock 90 MHz
    Display Product Name: 'W7006S'
Checksum: 0xc5

----------------

Block 1, Unknown EDID Extension Block 0x00:
  00 ff ff ff ff ff ff 00 2e 83 72 17 ab 00 00 00 '..........r.....'
  0f 13 01 03 68 29 1a 78 ea f0 65 98 57 51 91 27 '....h).x..e.WQ.''
  21 50 54 ad ce 00 95 00 81 80 71 4f 01 01 01 01 '!PT.......qO....'
  01 01 01 01 01 01 9a 29 a0 d0 51 84 22 30 50 98 '.......)..Q."0P.'
  36 00 9a 00 11 00 00 1c 0e 1f 00 80 51 00 1e 30 '6...........Q..0'
  40 80 37 00 9a 00 11 00 00 1c 00 00 00 fd 00 38 '@.7............8'
  4b 1f 44 09 00 0a 20 20 20 20 20 20 00 00 00 fc 'K.D...      ....'
  00 57 37 30 30 36 53 0a 20 20 20 20 20 20 00 c5 '.W7006S.      ..'
Checksum: 0xc5

----------------

Failures:

Block 1, Base EDID:
  Unknown Extension Block.
EDID:
  Base EDID: Some timings are out of range of the Monitor Ranges:
    Maximum Clock: 108.000 MHz (Monitor: 90.000 MHz)
  Base EDID: EDID specified 0 extension block(s), but found 1 extension block(s).

EDID conformity: FAIL
