edid-decode (hex):

00 ff ff ff ff ff ff 00 5d 2e 10 00 0c 00 00 00
20 11 01 03 80 2a 20 00 8c 1d 95 a3 59 49 97 24
13 50 54 af df 80 81 80 95 00 95 0f 01 01 01 01
01 01 01 01 01 01 6b 35 a0 f0 51 84 2a 30 60 98
36 00 00 00 00 00 00 1e 00 00 00 fc 00 31 39 57
20 4d 4f 4e 49 54 4f 52 0a 0a 00 00 00 fd 00 38
4c 1e 4c 0e 00 0a 20 20 20 20 20 20 00 00 00 10
00 00 00 00 00 00 00 00 00 00 00 00 00 00 01 81

00 ff ff ff ff ff ff 00 5d 2e 10 00 0c 00 00 00
20 11 01 03 80 2a 20 00 8c 1d 95 a3 59 49 97 24
13 50 54 af df 80 81 80 95 00 95 0f 01 01 01 01
01 01 01 01 01 01 6b 35 a0 f0 51 84 2a 30 60 98
36 00 00 00 00 00 00 1e 00 00 00 fc 00 31 39 57
20 4d 4f 4e 49 54 4f 52 0a 0a 00 00 00 fd 00 38
4c 1e 4c 0e 00 0a 20 20 20 20 20 20 00 00 00 10
00 00 00 00 00 00 00 00 00 00 00 00 00 00 01 81

----------------

Block 0, Base EDID:
  EDID Structure Version & Revision: 1.3
  Vendor & Product Identification:
    Manufacturer: WIN
    Model: 16
    Serial Number: ...
    Made in: week 32 of 2007
  Basic Display Parameters & Features:
    Digital display
    Maximum image size: 42 cm x 32 cm
    Gamma: 1.00
    DPMS levels: Standby
    RGB color display
    Default (sRGB) color space is primary color space
  Color Characteristics:
    Red  : 0.6367, 0.3486
    Green: 0.2880, 0.5908
    Blue : 0.1425, 0.0751
    White: 0.3134, 0.3291
  Established Timings I & II:
    IBM     :   720x400    70.081663 Hz   9:5     31.467 kHz     28.320000 MHz
    DMT 0x04:   640x480    59.940476 Hz   4:3     31.469 kHz     25.175000 MHz
    DMT 0x05:   640x480    72.808802 Hz   4:3     37.861 kHz     31.500000 MHz
    DMT 0x06:   640x480    75.000000 Hz   4:3     37.500 kHz     31.500000 MHz
    DMT 0x08:   800x600    56.250000 Hz   4:3     35.156 kHz     36.000000 MHz
    DMT 0x09:   800x600    60.316541 Hz   4:3     37.879 kHz     40.000000 MHz
    DMT 0x0a:   800x600    72.187572 Hz   4:3     48.077 kHz     50.000000 MHz
    DMT 0x0b:   800x600    75.000000 Hz   4:3     46.875 kHz     49.500000 MHz
    DMT 0x0f:  1024x768i   86.957532 Hz   4:3     35.522 kHz     44.900000 MHz
    DMT 0x10:  1024x768    60.003840 Hz   4:3     48.363 kHz     65.000000 MHz
    DMT 0x11:  1024x768    70.069359 Hz   4:3     56.476 kHz     75.000000 MHz
    DMT 0x12:  1024x768    75.028582 Hz   4:3     60.023 kHz     78.750000 MHz
    DMT 0x24:  1280x1024   75.024675 Hz   5:4     79.976 kHz    135.000000 MHz
    Apple   :  1152x870    75.061550 Hz 192:145   68.681 kHz    100.000000 MHz
  Standard Timings:
    DMT 0x23:  1280x1024   60.019740 Hz   5:4     63.981 kHz    108.000000 MHz
    DMT 0x2f:  1440x900    59.887445 Hz  16:10    55.935 kHz    106.500000 MHz
    DMT 0x30:  1440x900    74.984427 Hz  16:10    70.635 kHz    136.750000 MHz
  Detailed Timing Descriptors:
    DTD 1:  1440x900    74.984427 Hz   8:5     70.635 kHz    136.750000 MHz
                 Hfront   96 Hsync 152 Hback  248 Hpol P
                 Vfront    3 Vsync   6 Vback   33 Vpol P
    Display Product Name: '19W MONITOR'
    Display Range Limits:
      Monitor ranges (GTF): 56-76 Hz V, 30-76 kHz H, max dotclock 140 MHz
    Dummy Descriptor:
  Extension blocks: 1
Checksum: 0x81

----------------

Block 1, Unknown EDID Extension Block 0x00:
  00 ff ff ff ff ff ff 00 5d 2e 10 00 0c 00 00 00 '........].......'
  20 11 01 03 80 2a 20 00 8c 1d 95 a3 59 49 97 24 ' ....* .....YI.$'
  13 50 54 af df 80 81 80 95 00 95 0f 01 01 01 01 '.PT.............'
  01 01 01 01 01 01 6b 35 a0 f0 51 84 2a 30 60 98 '......k5..Q.*0`.'
  36 00 00 00 00 00 00 1e 00 00 00 fc 00 31 39 57 '6............19W'
  20 4d 4f 4e 49 54 4f 52 0a 0a 00 00 00 fd 00 38 ' MONITOR.......8'
  4c 1e 4c 0e 00 0a 20 20 20 20 20 20 00 00 00 10 'L.L...      ....'
  00 00 00 00 00 00 00 00 00 00 00 00 00 00 01 81 '................'
Checksum: 0x81

----------------

Warnings:

Block 0, Base EDID:
  Basic Display Parameters & Features: sRGB is signaled, but the gamma != 2.2.
  Detailed Timing Descriptor #1: DTD is similar but not identical to DMT 0x30.

Failures:

Block 0, Base EDID:
  Basic Display Parameters & Features: sRGB is signaled, but the chromaticities do not match.
  Basic Display Parameters & Features: EDID 1.3 requires that the first detailed timing is the preferred timing.
  Detailed Timing Descriptor #1: Mismatch of image size vs display size: image size is not set, but display size is.
  Display Product Name: Non-space after newline.
Block 1, Base EDID:
  Unknown Extension Block.
EDID:
  Base EDID: Some timings are out of range of the Monitor Ranges:
    Vertical Freq: 56.250 - 86.958 Hz (Monitor: 56.000 - 76.000 Hz)
    Horizontal Freq: 31.466 - 79.976 kHz (Monitor: 30.000 - 76.000 kHz)

EDID conformity: FAIL
