
EDID (hex):
00ffffffffffff004d10761500000000
24200104a51a10780ede50a3544c9926
0f505400000001010101010101010101
010101010101283c80a070b023403020
360003a210000018203080a070b02340
3020360003a210000018000000fe0033
34305439804c513132304e3100000000
0002410387010200000a410a20200037

edid-decode (hex):

00 ff ff ff ff ff ff 00 4d 10 76 15 00 00 00 00
24 20 01 04 a5 1a 10 78 0e de 50 a3 54 4c 99 26
0f 50 54 00 00 00 01 01 01 01 01 01 01 01 01 01
01 01 01 01 01 01 28 3c 80 a0 70 b0 23 40 30 20
36 00 03 a2 10 00 00 18 20 30 80 a0 70 b0 23 40
30 20 36 00 03 a2 10 00 00 18 00 00 00 fe 00 33
34 30 54 39 80 4c 51 31 32 30 4e 31 00 00 00 00
00 02 41 03 87 01 02 00 00 0a 41 0a 20 20 00 37

----------------

Block 0, Base EDID:
  EDID Structure Version & Revision: 1.4
  Vendor & Product Identification:
    Manufacturer: SHP
    Model: 5494
    Made in: week 36 of 2022
  Basic Display Parameters & Features:
    Digital display
    Bits per primary color channel: 8
    DisplayPort interface
    Maximum image size: 26 cm x 16 cm
    Gamma: 2.20
    Supported color formats: RGB 4:4:4, YCrCb 4:4:4
    Default (sRGB) color space is primary color space
    First detailed timing includes the native pixel format and preferred refresh rate
  Color Characteristics:
    Red  : 0.6396, 0.3291
    Green: 0.2998, 0.5996
    Blue : 0.1494, 0.0595
    White: 0.3125, 0.3281
  Established Timings I & II: none
  Standard Timings: none
  Detailed Timing Descriptors:
    DTD 1:  1920x1200   59.950171 Hz  16:10    74.038 kHz    154.000000 MHz (259 mm x 162 mm)
                 Hfront   48 Hsync  32 Hback   80 Hpol N
                 Vfront    3 Vsync   6 Vback   26 Vpol N
    DTD 2:  1920x1200   47.960137 Hz  16:10    59.231 kHz    123.200000 MHz (259 mm x 162 mm)
                 Hfront   48 Hsync  32 Hback   80 Hpol N
                 Vfront    3 Vsync   6 Vback   26 Vpol N
    Alphanumeric Data String: '340T9'
    Manufacturer-Specified Display Descriptor (0x00): 00 00 00 02 41 03 87 01 02 00 00 0a 41 0a 20 20 '....A.......A.  '
Checksum: 0x37
