edid-decode (hex):

00 ff ff ff ff ff ff 00 14 cc 6f 07 00 00 00 00
1d 0f 01 03 81 26 1f 78 0a ee 95 a3 54 4c 99 26
0f 50 54 af cf 00 81 80 81 8a 01 01 01 01 01 01
01 01 01 01 01 01 30 2a 00 98 51 00 2a 40 30 70
13 00 78 2d 11 00 00 1e 00 00 00 fd 00 31 4c 33
55 0e 00 0a 20 20 20 20 20 20 00 00 00 fc 00 45
46 4c 2d 31 39 30 32 2f 30 33 58 0a 00 00 00 fe
00 45 46 46 49 4e 45 54 0a 0a 0a 0a 0a 0a 00 61

00 ff ff ff ff ff ff 00 14 cc 6f 07 00 00 00 00
1d 0f 01 03 81 26 1f 78 0a ee 95 a3 54 4c 99 26
0f 50 54 af cf 00 81 80 81 8a 01 01 01 01 01 01
01 01 01 01 01 01 30 2a 00 98 51 00 2a 40 30 70
13 00 78 2d 11 00 00 1e 00 00 00 fd 00 31 4c 33
55 0e 00 0a 20 20 20 20 20 20 00 00 00 fc 00 45
46 4c 2d 31 39 30 32 2f 30 33 58 0a 00 00 00 fe
00 45 46 46 49 4e 45 54 0a 0a 0a 0a 0a 0a 00 61

----------------

Block 0, Base EDID:
  EDID Structure Version & Revision: 1.3
  Vendor & Product Identification:
    Manufacturer: EFL
    Model: 1903
    Made in: week 29 of 2005
  Basic Display Parameters & Features:
    Digital display
    DFP 1.x compatible TMDS
    Maximum image size: 38 cm x 31 cm
    Gamma: 2.20
    RGB color display
    First detailed timing is the preferred timing
  Color Characteristics:
    Red  : 0.6396, 0.3300
    Green: 0.2998, 0.5996
    Blue : 0.1503, 0.0595
    White: 0.3134, 0.3291
  Established Timings I & II:
    IBM     :   720x400    70.081663 Hz   9:5     31.467 kHz     28.320000 MHz
    DMT 0x04:   640x480    59.940476 Hz   4:3     31.469 kHz     25.175000 MHz
    DMT 0x05:   640x480    72.808802 Hz   4:3     37.861 kHz     31.500000 MHz
    DMT 0x06:   640x480    75.000000 Hz   4:3     37.500 kHz     31.500000 MHz
    DMT 0x08:   800x600    56.250000 Hz   4:3     35.156 kHz     36.000000 MHz
    DMT 0x09:   800x600    60.316541 Hz   4:3     37.879 kHz     40.000000 MHz
    DMT 0x0a:   800x600    72.187572 Hz   4:3     48.077 kHz     50.000000 MHz
    DMT 0x0b:   800x600    75.000000 Hz   4:3     46.875 kHz     49.500000 MHz
    DMT 0x10:  1024x768    60.003840 Hz   4:3     48.363 kHz     65.000000 MHz
    DMT 0x11:  1024x768    70.069359 Hz   4:3     56.476 kHz     75.000000 MHz
    DMT 0x12:  1024x768    75.028582 Hz   4:3     60.023 kHz     78.750000 MHz
    DMT 0x24:  1280x1024   75.024675 Hz   5:4     79.976 kHz    135.000000 MHz
  Standard Timings:
    DMT 0x23:  1280x1024   60.019740 Hz   5:4     63.981 kHz    108.000000 MHz
    GTF     :  1280x1024   69.999805 Hz   5:4     74.620 kHz    128.943000 MHz
  Detailed Timing Descriptors:
    DTD 1:  1280x1024   60.019740 Hz   5:4     63.981 kHz    108.000000 MHz (376 mm x 301 mm)
                 Hfront   48 Hsync 112 Hback  248 Hpol P
                 Vfront    1 Vsync   3 Vback   38 Vpol P
    Display Range Limits:
      Monitor ranges (GTF): 49-76 Hz V, 51-85 kHz H, max dotclock 140 MHz
    Display Product Name: 'EFL-1902/03X'
    Alphanumeric Data String: 'EFFINET'
Checksum: 0x61

----------------

Block 1, Unknown EDID Extension Block 0x00:
  00 ff ff ff ff ff ff 00 14 cc 6f 07 00 00 00 00 '..........o.....'
  1d 0f 01 03 81 26 1f 78 0a ee 95 a3 54 4c 99 26 '.....&.x....TL.&'
  0f 50 54 af cf 00 81 80 81 8a 01 01 01 01 01 01 '.PT.............'
  01 01 01 01 01 01 30 2a 00 98 51 00 2a 40 30 70 '......0*..Q.*@0p'
  13 00 78 2d 11 00 00 1e 00 00 00 fd 00 31 4c 33 '..x-.........1L3'
  55 0e 00 0a 20 20 20 20 20 20 00 00 00 fc 00 45 'U...      .....E'
  46 4c 2d 31 39 30 32 2f 30 33 58 0a 00 00 00 fe 'FL-1902/03X.....'
  00 45 46 46 49 4e 45 54 0a 0a 0a 0a 0a 0a 00 61 '.EFFINET.......a'
Checksum: 0x61

----------------

Failures:

Block 0, Base EDID:
  Alphanumeric Data String: Non-space after newline.
Block 1, Base EDID:
  Unknown Extension Block.
EDID:
  Base EDID: Some timings are out of range of the Monitor Ranges:
    Horizontal Freq: 31.466 - 79.976 kHz (Monitor: 51.000 - 85.000 kHz)
  Base EDID: EDID specified 0 extension block(s), but found 1 extension block(s).

EDID conformity: FAIL
