
EDID (hex):
00ffffffffffff001ed607063d36bd00
1a0d0102681e1778ea63f89e564c9824
195055bfee0061400101010101010101
010101010101000000fc004b564d0047
35363130200a2020000000fc00313032
34783736380a00000000000000000000
00000000000000000000000000000000
000000000000000000000000000000ea

Extracted contents:
header:          00 ff ff ff ff ff ff 00
serial number:   1e d6 07 06 3d 36 bd 00 1a 0d
version:         01 02
basic params:    68 1e 17 78 ea
chroma info:     63 f8 9e 56 4c 98 24 19 50 55
established:     bf ee 00
standard:        61 40 01 01 01 01 01 01 01 01 01 01 01 01 01 01
descriptor 1:    00 00 00 fc 00 4b 56 4d 00 47 35 36 31 30 20 0a 20 20
descriptor 2:    00 00 00 fc 00 31 30 32 34 78 37 36 38 0a 00 00 00 00
descriptor 3:    00 00 00 00 00 00 00 00 00 00 00 00 00 00 00 00 00 00
descriptor 4:    00 00 00 00 00 00 00 00 00 00 00 00 00 00 00 00 00 00
extensions:      00
checksum:        ea

EDID version: 1.2
Manufacturer: GVV Model 607 Serial Number --
Analog display, Input voltage level: 0.7/0.7 V
Sync: Separate 
Maximum image size: 30 cm x 23 cm
Gamma: 2.20
DPMS levels: Standby Suspend Off
RGB color display
First detailed timing is preferred timing
Display x,y Chromaticity:
  Red:   0.6181, 0.3378
  Green: 0.2968, 0.5966
  Blue:  0.1435, 0.1005
  White: 0.3144, 0.3320
Established timings supported:
  720x400@70Hz 9:5 HorFreq: 31469 Hz Clock: 28.320 MHz
  640x480@60Hz 4:3 HorFreq: 31469 Hz Clock: 25.175 MHz
  640x480@67Hz 4:3 HorFreq: 35000 Hz Clock: 30.240 MHz
  640x480@72Hz 4:3 HorFreq: 37900 Hz Clock: 31.500 MHz
  640x480@75Hz 4:3 HorFreq: 37500 Hz Clock: 31.500 MHz
  800x600@56Hz 4:3 HorFreq: 35200 Hz Clock: 36.000 MHz
  800x600@60Hz 4:3 HorFreq: 37900 Hz Clock: 40.000 MHz
  800x600@72Hz 4:3 HorFreq: 48100 Hz Clock: 50.000 MHz
  800x600@75Hz 4:3 HorFreq: 46900 Hz Clock: 49.500 MHz
  832x624@75Hz 4:3 HorFreq: 49726 Hz Clock: 57.284 MHz
  1024x768@60Hz 4:3 HorFreq: 48400 Hz Clock: 65.000 MHz
  1024x768@70Hz 4:3 HorFreq: 56500 Hz Clock: 75.000 MHz
  1024x768@75Hz 4:3 HorFreq: 60000 Hz Clock: 78.750 MHz
Standard timings supported:
  1024x768@60Hz 4:3 HorFreq: 48400 Hz Clock: 65.000 MHz
Monitor name: KVM1024x768
Manufacturer-specified data, tag 0
Manufacturer-specified data, tag 0
Checksum: 0xea (valid)
EDID block does not conform at all!
	Bad year of manufacture
