
EDID (hex):
00ffffffffffff0009e5310700000000
081b0104951a0e7802e990955c589429
24505400000001010101010101010101
010101010101ce1d56e350001e303020
350000901000001a0000000000000000
00000000000000000000000000fe0042
4f452043510a202020202020000000fe
004e5431313657484d2d4e34320a00c8

Extracted contents:
header:          00 ff ff ff ff ff ff 00
serial number:   09 e5 31 07 00 00 00 00 08 1b
version:         01 04
basic params:    95 1a 0e 78 02
chroma info:     e9 90 95 5c 58 94 29 24 50 54
established:     00 00 00
standard:        01 01 01 01 01 01 01 01 01 01 01 01 01 01 01 01
descriptor 1:    ce 1d 56 e3 50 00 1e 30 30 20 35 00 00 90 10 00 00 1a
descriptor 2:    00 00 00 00 00 00 00 00 00 00 00 00 00 00 00 00 00 00
descriptor 3:    00 00 00 fe 00 42 4f 45 20 43 51 0a 20 20 20 20 20 20
descriptor 4:    00 00 00 fe 00 4e 54 31 31 36 57 48 4d 2d 4e 34 32 0a
extensions:      00
checksum:        c8

EDID version: 1.4
Manufacturer: BOE Model 731 Serial Number --
Made in week 8 of 2017
Digital display
6 bits per primary color channel
DisplayPort interface
Maximum image size: 26 cm x 14 cm
Gamma: 2.20
Supported color formats: RGB 4:4:4
First detailed timing includes the native pixel format and preferred refresh rate
Display x,y Chromaticity:
  Red:   0.5849, 0.3613
  Green: 0.3457, 0.5791
  Blue:  0.1621, 0.1416
  White: 0.3125, 0.3281
Established timings supported:
Standard timings supported:
Detailed mode: Clock 76.300 MHz, 256 mm x 144 mm
               1366 1414 1446 1593 hborder 0
                768  771  776  798 vborder 0
               +hsync -vsync 
               VertFreq: 60 Hz, HorFreq: 47897 Hz
Manufacturer-specified data, tag 0
ASCII string: BOE CQ
ASCII string: NT116WHM-N42
Checksum: 0xc8 (valid)
EDID block does NOT conform to EDID 1.4!
	Missing name descriptor
	Missing monitor ranges
