
EDID (hex):
00ffffffffffff0009e5a70600000000
01190104951d11780a56c0995a56912a
24505400000001010101010101010101
010101010101363680a0703820403020
350026a51000001a5e2b80a070382040
3020350026a51000001a000000fe0034
46354854804e54313357484d00000000
00004101940010000009010a202000e7

Extracted contents:
header:          00 ff ff ff ff ff ff 00
serial number:   09 e5 a7 06 00 00 00 00 01 19
version:         01 04
basic params:    95 1d 11 78 0a
chroma info:     56 c0 99 5a 56 91 2a 24 50 54
established:     00 00 00
standard:        01 01 01 01 01 01 01 01 01 01 01 01 01 01 01 01
descriptor 1:    36 36 80 a0 70 38 20 40 30 20 35 00 26 a5 10 00 00 1a
descriptor 2:    5e 2b 80 a0 70 38 20 40 30 20 35 00 26 a5 10 00 00 1a
descriptor 3:    00 00 00 fe 00 34 46 35 48 54 80 4e 54 31 33 57 48 4d
descriptor 4:    00 00 00 00 00 00 41 01 94 00 10 00 00 09 01 0a 20 20
extensions:      00
checksum:        e7

EDID version: 1.4
Manufacturer: BOE Model 6a7 Serial Number --
Made in week 1 of 2015
Digital display
6 bits per primary color channel
DisplayPort interface
Maximum image size: 29 cm x 17 cm
Gamma: 2.20
Supported color formats: RGB 4:4:4, YCrCb 4:4:4
First detailed timing includes the native pixel format and preferred refresh rate
Display x,y Chromaticity:
  Red:   0.5986, 0.3525
  Green: 0.3369, 0.5683
  Blue:  0.1669, 0.1406
  White: 0.3125, 0.3281
Established timings supported:
Standard timings supported:
Detailed mode: Clock 138.780 MHz, 294 mm x 165 mm
               1920 1968 2000 2080 hborder 0
               1080 1083 1088 1112 vborder 0
               +hsync -vsync 
               VertFreq: 60 Hz, HorFreq: 66721 Hz
Detailed mode: Clock 111.020 MHz, 294 mm x 165 mm
               1920 1968 2000 2080 hborder 0
               1080 1083 1088 1112 vborder 0
               +hsync -vsync 
               VertFreq: 47 Hz, HorFreq: 53375 Hz
ASCII string: 4F5HT
Manufacturer-specified data, tag 0
Checksum: 0xe7 (valid)
EDID block does NOT conform to EDID 1.4!
	Missing name descriptor
	Missing monitor ranges
	Detailed block string not properly terminated
