
EDID (hex):
00ffffffffffff001ab36008800c0000
0a19010380351e782adda5a455509e26
0f5054a54b00d1c0b30095008180a9c0
81c001010101023a801871382d40582c
4500132b2100001e000000fd00304c1e
5211000a202020202020000000fc0050
3234542d37204c45440a2020000000ff
00595639453030333230300a202000b7

Extracted contents:
header:          00 ff ff ff ff ff ff 00
serial number:   1a b3 60 08 80 0c 00 00 0a 19
version:         01 03
basic params:    80 35 1e 78 2a
chroma info:     dd a5 a4 55 50 9e 26 0f 50 54
established:     a5 4b 00
standard:        d1 c0 b3 00 95 00 81 80 a9 c0 81 c0 01 01 01 01
descriptor 1:    02 3a 80 18 71 38 2d 40 58 2c 45 00 13 2b 21 00 00 1e
descriptor 2:    00 00 00 fd 00 30 4c 1e 52 11 00 0a 20 20 20 20 20 20
descriptor 3:    00 00 00 fc 00 50 32 34 54 2d 37 20 4c 45 44 0a 20 20
descriptor 4:    00 00 00 ff 00 59 56 39 45 30 30 33 32 30 30 0a 20 20
extensions:      00
checksum:        b7

EDID version: 1.3
Manufacturer: FUS Model 860 Serial Number --
Made in week 10 of 2015
Digital display
Maximum image size: 53 cm x 30 cm
Gamma: 2.20
DPMS levels: Off
RGB color display
First detailed timing is preferred timing
Display x,y Chromaticity:
  Red:   0.6435, 0.3330
  Green: 0.3154, 0.6181
  Blue:  0.1503, 0.0605
  White: 0.3134, 0.3291
Established timings supported:
  720x400@70Hz 9:5 HorFreq: 31469 Hz Clock: 28.320 MHz
  640x480@60Hz 4:3 HorFreq: 31469 Hz Clock: 25.175 MHz
  640x480@75Hz 4:3 HorFreq: 37500 Hz Clock: 31.500 MHz
  800x600@60Hz 4:3 HorFreq: 37900 Hz Clock: 40.000 MHz
  800x600@75Hz 4:3 HorFreq: 46900 Hz Clock: 49.500 MHz
  1024x768@60Hz 4:3 HorFreq: 48400 Hz Clock: 65.000 MHz
  1024x768@75Hz 4:3 HorFreq: 60000 Hz Clock: 78.750 MHz
  1280x1024@75Hz 5:4 HorFreq: 80000 Hz Clock: 135.000 MHz
Standard timings supported:
  1920x1080@60Hz 16:9
  1680x1050@60Hz 16:10 HorFreq: 64700 Hz Clock: 119.000 MHz
  1440x900@60Hz 16:10 HorFreq: 55500 Hz Clock: 88.750 MHz
  1280x1024@60Hz 5:4 HorFreq: 64000 Hz Clock: 108.000 MHz
  1600x900@60Hz 16:9
  1280x720@60Hz 16:9
Detailed mode: Clock 148.500 MHz, 531 mm x 299 mm
               1920 2008 2052 2200 hborder 0
               1080 1084 1089 1125 vborder 0
               +hsync +vsync 
               VertFreq: 60 Hz, HorFreq: 67500 Hz
Monitor ranges (GTF): 48-76Hz V, 30-82kHz H, max dotclock 170MHz
Monitor name: P24T-7 LED
Serial number: --
Checksum: 0xb7 (valid)
