
EDID (hex):
00ffffffffffff000e6f2d1400000000
00210104951f117802f4a5915b599529
1d505400000001010101010101010101
010101010101293680a070381f403020
350035ad1000001a542b80a070381f40
3020350035ad1000001a000000fe004a
315758478043534f5420543900000000
0000413199001000000a010a202000e3

edid-decode (hex):

00 ff ff ff ff ff ff 00 0e 6f 2d 14 00 00 00 00
00 21 01 04 95 1f 11 78 02 f4 a5 91 5b 59 95 29
1d 50 54 00 00 00 01 01 01 01 01 01 01 01 01 01
01 01 01 01 01 01 29 36 80 a0 70 38 1f 40 30 20
35 00 35 ad 10 00 00 1a 54 2b 80 a0 70 38 1f 40
30 20 35 00 35 ad 10 00 00 1a 00 00 00 fe 00 4a
31 57 58 47 80 43 53 4f 54 20 54 39 00 00 00 00
00 00 41 31 99 00 10 00 00 0a 01 0a 20 20 00 e3

----------------

Block 0, Base EDID:
  EDID Structure Version & Revision: 1.4
  Vendor & Product Identification:
    Manufacturer: CSO
    Model: 5165
    Made in: 2023
  Basic Display Parameters & Features:
    Digital display
    Bits per primary color channel: 6
    DisplayPort interface
    Maximum image size: 31 cm x 17 cm
    Gamma: 2.20
    Supported color formats: RGB 4:4:4
    First detailed timing includes the native pixel format and preferred refresh rate
  Color Characteristics:
    Red  : 0.5693, 0.3583
    Green: 0.3486, 0.5820
    Blue : 0.1621, 0.1152
    White: 0.3134, 0.3291
  Established Timings I & II: none
  Standard Timings: none
  Detailed Timing Descriptors:
    DTD 1:  1920x1080   59.998788 Hz  16:9     66.659 kHz    138.650000 MHz (309 mm x 173 mm)
                 Hfront   48 Hsync  32 Hback   80 Hpol P
                 Vfront    3 Vsync   5 Vback   23 Vpol N
    DTD 2:  1920x1080   47.999031 Hz  16:9     53.327 kHz    110.920000 MHz (309 mm x 173 mm)
                 Hfront   48 Hsync  32 Hback   80 Hpol P
                 Vfront    3 Vsync   5 Vback   23 Vpol N
    Alphanumeric Data String: 'J1WXG'
    Manufacturer-Specified Display Descriptor (0x00): 00 00 00 00 41 31 99 00 10 00 00 0a 01 0a 20 20 '....A1........  '
Checksum: 0xe3
