edid-decode (hex):

00 ff ff ff ff ff ff 00 30 e4 4d 02 00 00 00 00
00 14 01 04 95 1d 11 78 02 d5 d5 96 59 56 8c 27
1f 50 54 00 00 00 01 01 01 01 01 01 01 01 01 01
01 01 01 01 01 01 7e 1d 56 d7 50 00 19 30 30 20
36 00 26 a6 10 00 00 1a a6 13 56 d2 50 00 19 30
30 20 36 00 26 a6 10 00 00 1a 00 00 00 fe 00 44
52 33 34 37 80 31 33 33 57 48 31 0a 00 00 00 00
00 00 41 31 16 00 00 00 00 09 01 0a 20 20 00 06

----------------

Block 0, Base EDID:
  EDID Structure Version & Revision: 1.4
  Vendor & Product Identification:
    Manufacturer: LGD
    Model: 589
    Made in: 2010
  Basic Display Parameters & Features:
    Digital display
    Bits per primary color channel: 6
    DisplayPort interface
    Maximum image size: 29 cm x 17 cm
    Gamma: 2.20
    Supported color formats: RGB 4:4:4
    First detailed timing includes the native pixel format and preferred refresh rate
  Color Characteristics:
    Red  : 0.5888, 0.3486
    Green: 0.3369, 0.5478
    Blue : 0.1552, 0.1220
    White: 0.3134, 0.3291
  Established Timings I & II: none
  Standard Timings: none
  Detailed Timing Descriptors:
    DTD 1:  1366x768    60.220159 Hz 683:384   47.755 kHz     75.500000 MHz (294 mm x 166 mm)
                 Hfront   48 Hsync  32 Hback  135 Hpol P
                 Vfront    3 Vsync   6 Vback   16 Vpol N
    DTD 2:  1366x768    40.247470 Hz 683:384   31.916 kHz     50.300000 MHz (294 mm x 166 mm)
                 Hfront   48 Hsync  32 Hback  130 Hpol P
                 Vfront    3 Vsync   6 Vback   16 Vpol N
    Alphanumeric Data String: 'DR347'
    Manufacturer-Specified Display Descriptor (0x00): 00 00 00 00 41 31 16 00 00 00 00 09 01 0a 20 20 '....A1........  '
Checksum: 0x06

----------------

Warnings:

Block 0, Base EDID:
  Missing Display Product Name.

Failures:

Block 0, Base EDID:
  Alphanumeric Data String: Non-printable character.

EDID conformity: FAIL
