edid-decode (hex):

00 ff ff ff ff ff ff 00 06 af 92 28 00 00 00 00
0f 1f 01 04 b5 26 15 78 01 ef 95 a7 52 35 b5 26
0f 50 54 00 00 00 01 01 01 01 01 01 01 01 01 01
01 01 01 01 01 01 94 d9 00 a0 f0 70 a0 80 30 20
35 00 7d d6 10 00 00 1a 00 00 00 fd 0c 3c 78 18
18 6f 01 0a 20 20 20 20 20 20 00 00 00 fe 00 50
56 37 4b 4a 80 42 31 37 33 5a 41 4e 00 00 00 00
00 05 81 0f a8 00 02 00 00 0f 01 0a 20 20 02 a4

02 03 0f 00 e3 05 80 00 e6 06 05 01 6b 6b 47 00
00 00 00 00 00 00 00 00 00 00 00 00 00 00 00 00
00 00 00 00 00 00 00 00 00 00 00 00 00 00 00 00
00 00 00 00 00 00 00 00 00 00 00 00 00 00 00 00
00 00 00 00 00 00 00 00 00 00 00 00 00 00 00 00
00 00 00 00 00 00 00 00 00 00 00 00 00 00 00 00
00 00 00 00 00 00 00 00 00 00 00 00 00 00 00 00
00 00 00 00 00 00 00 00 00 00 00 00 00 00 00 75

00 ff ff ff ff ff ff 00 06 af 92 28 00 00 00 00
0f 1f 01 04 b5 26 15 78 01 ef 95 a7 52 35 b5 26
0f 50 54 00 00 00 01 01 01 01 01 01 01 01 01 01
01 01 01 01 01 01 94 d9 00 a0 f0 70 a0 80 30 20
35 00 7d d6 10 00 00 1a 00 00 00 fd 0c 3c 78 18
18 6f 01 0a 20 20 20 20 20 20 00 00 00 fe 00 50
56 37 4b 4a 80 42 31 37 33 5a 41 4e 00 00 00 00
00 05 81 0f a8 00 02 00 00 0f 01 0a 20 20 02 a4

00 ff ff ff ff ff ff 00 06 af 92 28 00 00 00 00
0f 1f 01 04 b5 26 15 78 01 ef 95 a7 52 35 b5 26
0f 50 54 00 00 00 01 01 01 01 01 01 01 01 01 01
01 01 01 01 01 01 94 d9 00 a0 f0 70 a0 80 30 20
35 00 7d d6 10 00 00 1a 00 00 00 fd 0c 3c 78 18
18 6f 01 0a 20 20 20 20 20 20 00 00 00 fe 00 50
56 37 4b 4a 80 42 31 37 33 5a 41 4e 00 00 00 00
00 05 81 0f a8 00 02 00 00 0f 01 0a 20 20 02 a4

02 03 0f 00 e3 05 80 00 e6 06 05 01 6b 6b 47 00
00 00 00 00 00 00 00 00 00 00 00 00 00 00 00 00
00 00 00 00 00 00 00 00 00 00 00 00 00 00 00 00
00 00 00 00 00 00 00 00 00 00 00 00 00 00 00 00
00 00 00 00 00 00 00 00 00 00 00 00 00 00 00 00
00 00 00 00 00 00 00 00 00 00 00 00 00 00 00 00
00 00 00 00 00 00 00 00 00 00 00 00 00 00 00 00
00 00 00 00 00 00 00 00 00 00 00 00 00 00 00 75

00 ff ff ff ff ff ff 00 06 af 92 28 00 00 00 00
0f 1f 01 04 b5 26 15 78 01 ef 95 a7 52 35 b5 26
0f 50 54 00 00 00 01 01 01 01 01 01 01 01 01 01
01 01 01 01 01 01 94 d9 00 a0 f0 70 a0 80 30 20
35 00 7d d6 10 00 00 1a 00 00 00 fd 0c 3c 78 18
18 6f 01 0a 20 20 20 20 20 20 00 00 00 fe 00 50
56 37 4b 4a 80 42 31 37 33 5a 41 4e 00 00 00 00
00 05 81 0f a8 00 02 00 00 0f 01 0a 20 20 02 a4

----------------

Block 0, Base EDID:
  EDID Structure Version & Revision: 1.4
  Vendor & Product Identification:
    Manufacturer: AUO
    Model: 10386
    Made in: week 15 of 2021
  Basic Display Parameters & Features:
    Digital display
    Bits per primary color channel: 10
    DisplayPort interface
    Maximum image size: 38 cm x 21 cm
    Gamma: 2.20
    Supported color formats: RGB 4:4:4
    First detailed timing does not include the native pixel format and preferred refresh rate
    Display is continuous frequency
  Color Characteristics:
    Red  : 0.6552, 0.3222
    Green: 0.2099, 0.7099
    Blue : 0.1503, 0.0595
    White: 0.3134, 0.3291
  Established Timings I & II: none
  Standard Timings: none
  Detailed Timing Descriptors:
    DTD 1:  3840x2160   60.021552 Hz  16:9    139.250 kHz    557.000000 MHz (381 mm x 214 mm)
                 Hfront   48 Hsync  32 Hback   80 Hpol P
                 Vfront    3 Vsync   5 Vback  152 Vpol N
    Display Range Limits:
      Monitor ranges (Bare Limits): 60-120 Hz V, 279-279 kHz H, max dotclock 1110 MHz
    Alphanumeric Data String: 'PV7KJ'
    Manufacturer-Specified Display Descriptor (0x00): 00 00 00 05 81 0f a8 00 02 00 00 0f 01 0a 20 20 '..............  '
  Extension blocks: 2
Checksum: 0xa4

----------------

Block 1, CTA-861 Extension Block:
  Revision: 3
  Native detailed modes: 0
  Colorimetry Data Block:
    BT2020RGB
  HDR Static Metadata Data Block:
    Electro optical transfer functions:
      Traditional gamma - SDR luminance range
      SMPTE ST2084
    Supported static metadata descriptors:
      Static metadata type 1
    Desired content max luminance: 107 (507.620 cd/m^2)
    Desired content max frame-average luminance: 107 (507.620 cd/m^2)
    Desired content min luminance: 71 (0.394 cd/m^2)
Checksum: 0x75  Unused space in Extension Block: 112 bytes

----------------

Block 2, Unknown EDID Extension Block 0x00:
  00 ff ff ff ff ff ff 00 06 af 92 28 00 00 00 00 '...........(....'
  0f 1f 01 04 b5 26 15 78 01 ef 95 a7 52 35 b5 26 '.....&.x....R5.&'
  0f 50 54 00 00 00 01 01 01 01 01 01 01 01 01 01 '.PT.............'
  01 01 01 01 01 01 94 d9 00 a0 f0 70 a0 80 30 20 '...........p..0 '
  35 00 7d d6 10 00 00 1a 00 00 00 fd 0c 3c 78 18 '5.}..........<x.'
  18 6f 01 0a 20 20 20 20 20 20 00 00 00 fe 00 50 '.o..      .....P'
  56 37 4b 4a 80 42 31 37 33 5a 41 4e 00 00 00 00 'V7KJ.B173ZAN....'
  00 05 81 0f a8 00 02 00 00 0f 01 0a 20 20 02 a4 '............  ..'
Checksum: 0xa4

----------------

Block 3, Unknown EDID Extension Block 0x00:
  00 ff ff ff ff ff ff 00 06 af 92 28 00 00 00 00 '...........(....'
  0f 1f 01 04 b5 26 15 78 01 ef 95 a7 52 35 b5 26 '.....&.x....R5.&'
  0f 50 54 00 00 00 01 01 01 01 01 01 01 01 01 01 '.PT.............'
  01 01 01 01 01 01 94 d9 00 a0 f0 70 a0 80 30 20 '...........p..0 '
  35 00 7d d6 10 00 00 1a 00 00 00 fd 0c 3c 78 18 '5.}..........<x.'
  18 6f 01 0a 20 20 20 20 20 20 00 00 00 fe 00 50 '.o..      .....P'
  56 37 4b 4a 80 42 31 37 33 5a 41 4e 00 00 00 00 'V7KJ.B173ZAN....'
  00 05 81 0f a8 00 02 00 00 0f 01 0a 20 20 02 a4 '............  ..'
Checksum: 0xa4

----------------

Block 4, CTA-861 Extension Block:
  Revision: 3
  Native detailed modes: 0
  Colorimetry Data Block:
    BT2020RGB
  HDR Static Metadata Data Block:
    Electro optical transfer functions:
      Traditional gamma - SDR luminance range
      SMPTE ST2084
    Supported static metadata descriptors:
      Static metadata type 1
    Desired content max luminance: 107 (507.620 cd/m^2)
    Desired content max frame-average luminance: 107 (507.620 cd/m^2)
    Desired content min luminance: 71 (0.394 cd/m^2)
Checksum: 0x75  Unused space in Extension Block: 112 bytes

----------------

Block 5, Unknown EDID Extension Block 0x00:
  00 ff ff ff ff ff ff 00 06 af 92 28 00 00 00 00 '...........(....'
  0f 1f 01 04 b5 26 15 78 01 ef 95 a7 52 35 b5 26 '.....&.x....R5.&'
  0f 50 54 00 00 00 01 01 01 01 01 01 01 01 01 01 '.PT.............'
  01 01 01 01 01 01 94 d9 00 a0 f0 70 a0 80 30 20 '...........p..0 '
  35 00 7d d6 10 00 00 1a 00 00 00 fd 0c 3c 78 18 '5.}..........<x.'
  18 6f 01 0a 20 20 20 20 20 20 00 00 00 fe 00 50 '.o..      .....P'
  56 37 4b 4a 80 42 31 37 33 5a 41 4e 00 00 00 00 'V7KJ.B173ZAN....'
  00 05 81 0f a8 00 02 00 00 0f 01 0a 20 20 02 a4 '............  ..'
Checksum: 0xa4

----------------

Warnings:

Block 0, Base EDID:
  Missing Display Product Name.
Block 1, CTA-861 Extension Block:
  IT Video Formats are overscanned by default, but normally this should be underscanned.
  Colorimetry Data Block: Set the sRGB colorimetry bit to avoid interop issues.
Block 4, CTA-861 Extension Block:
  IT Video Formats are overscanned by default, but normally this should be underscanned.
  Colorimetry Data Block: Set the sRGB colorimetry bit to avoid interop issues.
EDID:
  Base EDID: Some timings are out of range of the Monitor Ranges:
    Horizontal Freq: 139.250 - 139.250 kHz (Monitor: 279.000 - 279.000 kHz)

Failures:

Block 0, Base EDID:
  Alphanumeric Data String: Non-printable character.
Block 1, CTA-861 Extension Block:
  Required 640x480p60 timings are missing in the established timings and the SVD list (VIC 1).
  Missing VCDB, needed for Set Selectable RGB Quantization to avoid interop issues.
Block 2, Base EDID:
  Unknown Extension Block.
Block 3, Base EDID:
  Unknown Extension Block.
Block 4, CTA-861 Extension Block:
  Colorimetry Data Block: Only one instance of this Data Block is allowed.
  HDR Static Metadata Data Block: Only one instance of this Data Block is allowed.
  Required 640x480p60 timings are missing in the established timings and the SVD list (VIC 1).
  Missing VCDB, needed for Set Selectable RGB Quantization to avoid interop issues.
Block 5, Base EDID:
  Unknown Extension Block.
EDID:
  Base EDID: EDID specified 2 extension block(s), but found 5 extension block(s).

EDID conformity: FAIL
