
EDID (hex):
00ffffffffffff0052d4420063000000
140d01036c1e1778ee1605a35a4d9624
184f54bfee0061406146614a454c314f
01010101010164190040410026301888
360030e410000018000000fd00324b18
3e08000a202020202020000000fc0046
4d54313530334b200a202020000000ff
00393900000000000000000000000084

Extracted contents:
header:          00 ff ff ff ff ff ff 00
serial number:   52 d4 42 00 63 00 00 00 14 0d
version:         01 03
basic params:    6c 1e 17 78 ee
chroma info:     16 05 a3 5a 4d 96 24 18 4f 54
established:     bf ee 00
standard:        61 40 61 46 61 4a 45 4c 31 4f 01 01 01 01 01 01
descriptor 1:    64 19 00 40 41 00 26 30 18 88 36 00 30 e4 10 00 00 18
descriptor 2:    00 00 00 fd 00 32 4b 18 3e 08 00 0a 20 20 20 20 20 20
descriptor 3:    00 00 00 fc 00 46 4d 54 31 35 30 33 4b 20 0a 20 20 20
descriptor 4:    00 00 00 ff 00 39 39 00 00 00 00 00 00 00 00 00 00 00
extensions:      00
checksum:        84

EDID version: 1.3
Manufacturer: TVT Model 42 Serial Number --
Analog display, Input voltage level: 0.7/0.7 V
Sync: Separate Composite 
Maximum image size: 30 cm x 23 cm
Gamma: 2.20
DPMS levels: Standby Suspend Off
RGB color display
Default (sRGB) color space is primary color space
First detailed timing is preferred timing
Display x,y Chromaticity:
  Red:   0.6367, 0.3525
  Green: 0.3017, 0.5878
  Blue:  0.1406, 0.0937
  White: 0.3095, 0.3291
Established timings supported:
  720x400@70Hz 9:5 HorFreq: 31469 Hz Clock: 28.320 MHz
  640x480@60Hz 4:3 HorFreq: 31469 Hz Clock: 25.175 MHz
  640x480@67Hz 4:3 HorFreq: 35000 Hz Clock: 30.240 MHz
  640x480@72Hz 4:3 HorFreq: 37900 Hz Clock: 31.500 MHz
  640x480@75Hz 4:3 HorFreq: 37500 Hz Clock: 31.500 MHz
  800x600@56Hz 4:3 HorFreq: 35200 Hz Clock: 36.000 MHz
  800x600@60Hz 4:3 HorFreq: 37900 Hz Clock: 40.000 MHz
  800x600@72Hz 4:3 HorFreq: 48100 Hz Clock: 50.000 MHz
  800x600@75Hz 4:3 HorFreq: 46900 Hz Clock: 49.500 MHz
  832x624@75Hz 4:3 HorFreq: 49726 Hz Clock: 57.284 MHz
  1024x768@60Hz 4:3 HorFreq: 48400 Hz Clock: 65.000 MHz
  1024x768@70Hz 4:3 HorFreq: 56500 Hz Clock: 75.000 MHz
  1024x768@75Hz 4:3 HorFreq: 60000 Hz Clock: 78.750 MHz
Standard timings supported:
  1024x768@60Hz 4:3 HorFreq: 48400 Hz Clock: 65.000 MHz
  1024x768@66Hz 4:3
  1024x768@70Hz 4:3 HorFreq: 56500 Hz Clock: 75.000 MHz
  800x600@72Hz 4:3 HorFreq: 48100 Hz Clock: 50.000 MHz
  640x480@75Hz 4:3 HorFreq: 37500 Hz Clock: 31.500 MHz
Detailed mode: Clock 65.000 MHz, 304 mm x 228 mm
               1024 1048 1184 1344 hborder 0
                768  771  777  806 vborder 0
               -hsync -vsync 
               VertFreq: 60 Hz, HorFreq: 48363 Hz
Monitor ranges (GTF): 50-75Hz V, 24-62kHz H, max dotclock 80MHz
Monitor name: FMT1503K 
Serial number: --
Checksum: 0x84 (valid)
EDID block does NOT conform to EDID 1.3!
	sRGB is signaled, but the chromaticities do not match
	Detailed block string not properly terminated
EDID block does not conform at all!
	Bad year of manufacture
