edid-decode (hex):

00 ff ff ff ff ff ff 00 30 ae 18 12 01 00 00 00
28 1a 01 04 a5 35 1d 78 22 1d f5 ae 4f 35 b3 25
0d 50 54 00 00 00 01 01 01 01 01 01 01 01 01 01
01 01 01 01 01 01 02 3a 80 18 71 38 2d 40 58 2c
45 00 0d 27 21 00 00 1a 00 00 00 fc 00 4c 45 4e
2d 41 49 4f 37 32 30 2d 42 0a 00 00 00 fd 00 32
4c 1e 46 0f 00 0a 20 20 20 20 20 20 00 00 00 ff
00 4c 4d 32 33 38 57 46 32 2d 53 53 46 31 00 2d

----------------

Block 0, Base EDID:
  EDID Structure Version & Revision: 1.4
  Vendor & Product Identification:
    Manufacturer: LEN
    Model: 4632
    Serial Number: ...
    Made in: week 40 of 2016
  Basic Display Parameters & Features:
    Digital display
    Bits per primary color channel: 8
    DisplayPort interface
    Maximum image size: 53 cm x 29 cm
    Gamma: 2.20
    DPMS levels: Off
    Supported color formats: RGB 4:4:4
    First detailed timing includes the native pixel format and preferred refresh rate
  Color Characteristics:
    Red  : 0.6796, 0.3095
    Green: 0.2099, 0.7001
    Blue : 0.1474, 0.0537
    White: 0.3134, 0.3291
  Established Timings I & II: none
  Standard Timings: none
  Detailed Timing Descriptors:
    DTD 1:  1920x1080   60.000000 Hz  16:9     67.500 kHz    148.500000 MHz (525 mm x 295 mm)
                 Hfront   88 Hsync  44 Hback  148 Hpol P
                 Vfront    4 Vsync   5 Vback   36 Vpol N
    Display Product Name: 'LEN-AIO720-B'
    Display Range Limits:
      Monitor ranges (GTF): 50-76 Hz V, 30-70 kHz H, max dotclock 150 MHz
    Display Product Serial Number: ...
Checksum: 0x2d

----------------

Warnings:

Block 0, Base EDID:
  Detailed Timing Descriptor #1: DTD is similar but not identical to VIC 16.
  Display Range Limits: GTF support is deprecated in EDID 1.4.

Failures:

Block 0, Base EDID:
  Display Range Limits: GTF can't be combined with non-continuous frequencies.

EDID conformity: FAIL
