edid-decode (hex):

00 ff ff ff ff ff ff 00 26 cf 41 06 00 00 00 00
01 1f 01 04 a5 23 16 78 e3 76 90 94 55 54 90 27
21 50 54 00 00 00 01 01 01 01 01 01 01 01 01 01
01 01 01 01 01 01 ad 3b 80 96 70 b0 1e 40 18 30
6c 00 59 d7 10 00 00 19 00 00 00 fd 00 28 3c 4a
4a 0f 01 0a 20 20 20 20 20 20 00 00 00 fe 00 49
6e 66 6f 56 69 73 69 6f 6e 0a 20 20 00 00 00 fe
00 52 31 36 30 4e 57 34 31 20 52 32 20 0a 00 3a

00 ff ff ff ff ff ff 00 26 cf 41 06 00 00 00 00
01 1f 01 04 a5 23 16 78 e3 76 90 94 55 54 90 27
21 50 54 00 00 00 01 01 01 01 01 01 01 01 01 01
01 01 01 01 01 01 ad 3b 80 96 70 b0 1e 40 18 30
6c 00 59 d7 10 00 00 19 00 00 00 fd 00 28 3c 4a
4a 0f 01 0a 20 20 20 20 20 20 00 00 00 fe 00 49
6e 66 6f 56 69 73 69 6f 6e 0a 20 20 00 00 00 fe
00 52 31 36 30 4e 57 34 31 20 52 32 20 0a 00 3a

----------------

Block 0, Base EDID:
  EDID Structure Version & Revision: 1.4
  Vendor & Product Identification:
    Manufacturer: IVO
    Model: 1601
    Made in: week 1 of 2021
  Basic Display Parameters & Features:
    Digital display
    Bits per primary color channel: 8
    DisplayPort interface
    Maximum image size: 35 cm x 22 cm
    Gamma: 2.20
    DPMS levels: Standby Suspend Off
    Supported color formats: RGB 4:4:4
    First detailed timing includes the native pixel format and preferred refresh rate
    Display is continuous frequency
  Color Characteristics:
    Red  : 0.5791, 0.3349
    Green: 0.3291, 0.5644
    Blue : 0.1542, 0.1298
    White: 0.3125, 0.3281
  Established Timings I & II: none
  Standard Timings: none
  Detailed Timing Descriptors:
    DTD 1:  1920x1200   60.001571 Hz  16:10    73.802 kHz    152.770000 MHz (345 mm x 215 mm)
                 Hfront   24 Hsync  48 Hback   78 Hpol N
                 Vfront    6 Vsync  12 Vback   12 Vpol N
    Display Range Limits:
      Monitor ranges (Bare Limits): 40-60 Hz V, 74-74 kHz H, max dotclock 150 MHz
    Alphanumeric Data String: 'InfoVision'
    Alphanumeric Data String: 'R160NW41 R2 '
Checksum: 0x3a

----------------

Block 1, Unknown EDID Extension Block 0x00:
  00 ff ff ff ff ff ff 00 26 cf 41 06 00 00 00 00 '........&.A.....'
  01 1f 01 04 a5 23 16 78 e3 76 90 94 55 54 90 27 '.....#.x.v..UT.''
  21 50 54 00 00 00 01 01 01 01 01 01 01 01 01 01 '!PT.............'
  01 01 01 01 01 01 ad 3b 80 96 70 b0 1e 40 18 30 '.......;..p..@.0'
  6c 00 59 d7 10 00 00 19 00 00 00 fd 00 28 3c 4a 'l.Y..........(<J'
  4a 0f 01 0a 20 20 20 20 20 20 00 00 00 fe 00 49 'J...      .....I'
  6e 66 6f 56 69 73 69 6f 6e 0a 20 20 00 00 00 fe 'nfoVision.  ....'
  00 52 31 36 30 4e 57 34 31 20 52 32 20 0a 00 3a '.R160NW41 R2 ..:'
Checksum: 0x3a

----------------

Warnings:

Block 0, Base EDID:
  Missing Display Product Name.
EDID:
  Base EDID: Some timings are out of range of the Monitor Ranges:
    Maximum Clock: 152.770 MHz (Monitor: 150.000 MHz)
    Could be due to a Monitor Range off-by-one rounding issue

Failures:

Block 0, Base EDID:
  Alphanumeric Data String: One or more trailing spaces.
Block 1, Base EDID:
  Unknown Extension Block.
EDID:
  Base EDID: EDID specified 0 extension block(s), but found 1 extension block(s).

EDID conformity: FAIL
