edid-decode (hex):

00 ff ff ff ff ff ff 00 38 70 58 00 00 00 00 00
33 1d 01 04 a5 22 13 78 03 78 a5 98 5c 58 8e 28
1b 50 54 00 00 00 01 01 01 01 01 01 01 01 01 01
01 01 01 01 01 01 91 8a 80 04 71 38 32 40 30 20
35 00 58 c2 10 00 00 1a bd 39 80 04 71 38 32 40
30 20 35 00 58 c2 10 00 00 1a 00 00 00 00 00 00
00 00 00 00 00 00 00 00 00 00 00 00 00 00 00 02
00 0c 42 f9 0b 3c 7d 1c 13 28 7d 00 00 00 00 ac

----------------

Block 0, Base EDID:
  EDID Structure Version & Revision: 1.4
  Vendor & Product Identification:
    Manufacturer: NCP
    Model: 88
    Made in: week 51 of 2019
  Basic Display Parameters & Features:
    Digital display
    Bits per primary color channel: 8
    DisplayPort interface
    Maximum image size: 34 cm x 19 cm
    Gamma: 2.20
    Supported color formats: RGB 4:4:4
    First detailed timing includes the native pixel format and preferred refresh rate
    Display is continuous frequency
  Color Characteristics:
    Red  : 0.5947, 0.3623
    Green: 0.3457, 0.5546
    Blue : 0.1582, 0.1074
    White: 0.3134, 0.3291
  Established Timings I & II: none
  Standard Timings: none
  Detailed Timing Descriptors:
    DTD 1:  1920x1080  144.000 Hz  16:9   162.720 kHz 354.730 MHz (344 mm x 194 mm)
                 Hfront   48 Hsync  32 Hback 180 Hpol P
                 Vfront    3 Vsync   5 Vback  42 Vpol N
    DTD 2:  1920x1080   60.002 Hz  16:9    67.803 kHz 147.810 MHz (344 mm x 194 mm)
                 Hfront   48 Hsync  32 Hback 180 Hpol P
                 Vfront    3 Vsync   5 Vback  42 Vpol N
    Empty Descriptor
    Manufacturer-Specified Display Descriptor (0x02): 00 02 00 0c 42 f9 0b 3c 7d 1c 13 28 7d 00 00 00 '....B..<}..(}...'
Checksum: 0xac

----------------

Failures:

Block 0, Base EDID:
  Empty Descriptor: Use Dummy Descriptor instead of all zeroes.
  Missing Display Product Name.
  Missing Display Range Limits Descriptor.

EDID conformity: FAIL
