edid-decode (hex):

00 ff ff ff ff ff ff 00 51 f3 92 50 00 00 00 00
0e 10 01 03 80 22 13 78 ca cc 95 9f 57 53 94 27
0f 50 54 00 00 00 01 01 01 01 01 01 01 01 01 01
01 01 01 01 01 01 4c 26 40 a0 60 84 1a 30 30 20
35 00 58 c1 10 00 00 18 00 00 00 fd 00 3b 3d 37
39 0a 00 0a 20 20 20 20 20 20 00 00 00 fc 00 49
6e 74 65 72 6e 61 6c 20 4c 43 44 0a 00 00 00 fe
00 54 4f 53 48 49 42 41 0a 20 20 20 20 20 00 b8

00 ff ff ff ff ff ff 00 51 f3 92 50 00 00 00 00
0e 10 01 03 80 22 13 78 ca cc 95 9f 57 53 94 27
0f 50 54 00 00 00 01 01 01 01 01 01 01 01 01 01
01 01 01 01 01 01 4c 26 40 a0 60 84 1a 30 30 20
35 00 58 c1 10 00 00 18 00 00 00 fd 00 3b 3d 37
39 0a 00 0a 20 20 20 20 20 20 00 00 00 fc 00 49
6e 74 65 72 6e 61 6c 20 4c 43 44 0a 00 00 00 fe
00 54 4f 53 48 49 42 41 0a 20 20 20 20 20 00 b8

----------------

Block 0, Base EDID:
  EDID Structure Version & Revision: 1.3
  Vendor & Product Identification:
    Manufacturer: TOS
    Model: 20626
    Made in: week 14 of 2006
  Basic Display Parameters & Features:
    Digital display
    Maximum image size: 34 cm x 19 cm
    Gamma: 2.20
    DPMS levels: Standby Suspend
    RGB color display
    First detailed timing is the preferred timing
  Color Characteristics:
    Red  : 0.6240, 0.3398
    Green: 0.3271, 0.5781
    Blue : 0.1542, 0.0595
    White: 0.3134, 0.3291
  Established Timings I & II: none
  Standard Timings: none
  Detailed Timing Descriptors:
    DTD 1:  1600x900    60.156097 Hz  16:9     55.705 kHz     98.040000 MHz (344 mm x 193 mm)
                 Hfront   48 Hsync  32 Hback   80 Hpol N
                 Vfront    3 Vsync   5 Vback   18 Vpol N
    Display Range Limits:
      Monitor ranges (GTF): 59-61 Hz V, 55-57 kHz H, max dotclock 100 MHz
    Display Product Name: 'Internal LCD'
    Alphanumeric Data String: 'TOSHIBA'
Checksum: 0xb8

----------------

Block 1, Unknown EDID Extension Block 0x00:
  00 ff ff ff ff ff ff 00 51 f3 92 50 00 00 00 00 '........Q..P....'
  0e 10 01 03 80 22 13 78 ca cc 95 9f 57 53 94 27 '.....".x....WS.''
  0f 50 54 00 00 00 01 01 01 01 01 01 01 01 01 01 '.PT.............'
  01 01 01 01 01 01 4c 26 40 a0 60 84 1a 30 30 20 '......L&@.`..00 '
  35 00 58 c1 10 00 00 18 00 00 00 fd 00 3b 3d 37 '5.X..........;=7'
  39 0a 00 0a 20 20 20 20 20 20 00 00 00 fc 00 49 '9...      .....I'
  6e 74 65 72 6e 61 6c 20 4c 43 44 0a 00 00 00 fe 'nternal LCD.....'
  00 54 4f 53 48 49 42 41 0a 20 20 20 20 20 00 b8 '.TOSHIBA.     ..'
Checksum: 0xb8

----------------

Failures:

Block 1, Base EDID:
  Unknown Extension Block.
EDID:
  Base EDID: EDID specified 0 extension block(s), but found 1 extension block(s).

EDID conformity: FAIL
