edid-decode (hex):

00 ff ff ff ff ff ff 00 06 af 9e 12 00 00 00 00
01 14 01 03 90 26 15 78 0a c4 95 9e 57 53 92 26
0f 50 54 00 00 00 01 01 01 01 01 01 01 01 01 01
01 01 01 01 01 01 f8 2a 40 90 61 84 0c 30 30 20
36 00 7e d6 10 00 00 1a 80 1c 40 90 61 84 0c 30
30 20 36 00 7e d6 10 00 00 1a 00 00 00 fe 00 4d
39 39 43 30 80 42 31 37 33 52 57 31 00 00 00 00
00 00 00 00 00 00 00 00 00 02 01 0a 20 20 00 c3

----------------

Block 0, Base EDID:
  EDID Structure Version & Revision: 1.3
  Vendor & Product Identification:
    Manufacturer: AUO
    Model: 4766
    Made in: week 1 of 2010
  Basic Display Parameters & Features:
    Digital display
    Maximum image size: 38 cm x 21 cm
    Gamma: 2.20
    RGB color display
    First detailed timing is preferred timing
  Color Characteristics:
    Red  : 0.6201, 0.3398
    Green: 0.3251, 0.5703
    Blue : 0.1503, 0.0595
    White: 0.3134, 0.3291
  Established Timings I & II: none
  Standard Timings: none
  Detailed Timing Descriptors:
    DTD 1:  1600x900    60.307 Hz  16:9    55.000 kHz 110.000 MHz (382 mm x 214 mm)
                 Hfront   48 Hsync  32 Hback 320 Hpol P
                 Vfront    3 Vsync   6 Vback   3 Vpol N
    DTD 2:  1600x900    40.000 Hz  16:9    36.480 kHz  72.960 MHz (382 mm x 214 mm)
                 Hfront   48 Hsync  32 Hback 320 Hpol P
                 Vfront    3 Vsync   6 Vback   3 Vpol N
    Alphanumeric Data String: 'M99C0'
    Manufacturer-Specified Display Descriptor (0x00): 00 00 00 00 00 00 00 00 00 00 00 02 01 0a 20 20 '..............  '
Checksum: 0xc3
