
EDID (hex):
00ffffffffffff0006af9e1200000000
01140103902615780ac4959e57539226
0f505400000001010101010101010101
010101010101f82a409061840c303020
36007ed61000001a801c409061840c30
302036007ed61000001a000000fe004d
39394330804231373352573100000000
00000000000000000002010a202000c3

Extracted contents:
header:          00 ff ff ff ff ff ff 00
serial number:   06 af 9e 12 00 00 00 00 01 14
version:         01 03
basic params:    90 26 15 78 0a
chroma info:     c4 95 9e 57 53 92 26 0f 50 54
established:     00 00 00
standard:        01 01 01 01 01 01 01 01 01 01 01 01 01 01 01 01
descriptor 1:    f8 2a 40 90 61 84 0c 30 30 20 36 00 7e d6 10 00 00 1a
descriptor 2:    80 1c 40 90 61 84 0c 30 30 20 36 00 7e d6 10 00 00 1a
descriptor 3:    00 00 00 fe 00 4d 39 39 43 30 80 42 31 37 33 52 57 31
descriptor 4:    00 00 00 00 00 00 00 00 00 00 00 00 00 02 01 0a 20 20
extensions:      00
checksum:        c3

EDID version: 1.3
Manufacturer: AUO Model 129e Serial Number --
Made in week 1 of 2010
Digital display
Maximum image size: 38 cm x 21 cm
Gamma: 2.20
RGB color display
First detailed timing is preferred timing
Display x,y Chromaticity:
  Red:   0.6201, 0.3398
  Green: 0.3251, 0.5703
  Blue:  0.1503, 0.0595
  White: 0.3134, 0.3291
Established timings supported:
Standard timings supported:
Detailed mode: Clock 110.000 MHz, 382 mm x 214 mm
               1600 1648 1680 2000 hborder 0
                900  903  909  912 vborder 0
               +hsync -vsync 
               VertFreq: 60 Hz, HorFreq: 55000 Hz
Detailed mode: Clock 72.960 MHz, 382 mm x 214 mm
               1600 1648 1680 2000 hborder 0
                900  903  909  912 vborder 0
               +hsync -vsync 
               VertFreq: 40 Hz, HorFreq: 36480 Hz
ASCII string: M99C0
Manufacturer-specified data, tag 0
Checksum: 0xc3 (valid)
EDID block does NOT conform to EDID 1.3!
	Digital display field contains garbage: 10
	Missing name descriptor
	Missing monitor ranges
	Detailed block string not properly terminated
