
EDID (hex):
00ffffffffffff001c54082700000000
301f0103803c21782a6cb1ad5046ae26
0c5054bfef00818081bc9500953cb300
b33cd1c0d1fc023a801871382d40582c
4500574f2100001e000000fd0030901e
a024000a202020202020000000ff0032
31343832423030323437310a000000fc
00473237460a202020202020202001e7
02032ff14c900102030405111213141f
3f230907078301000067030c00100038
446d1a000002113090e60000000000fb
7e807270381e4018203500574f210000
1e866f80a07038404030203500574f21
00001e9c45007251d01e206e28550057
4f2100001e023a007251d01e206e2855
002f4f21000061000000000000000064

Extracted contents:
header:          00 ff ff ff ff ff ff 00
serial number:   1c 54 08 27 00 00 00 00 30 1f
version:         01 03
basic params:    80 3c 21 78 2a
chroma info:     6c b1 ad 50 46 ae 26 0c 50 54
established:     bf ef 00
standard:        81 80 81 bc 95 00 95 3c b3 00 b3 3c d1 c0 d1 fc
descriptor 1:    02 3a 80 18 71 38 2d 40 58 2c 45 00 57 4f 21 00 00 1e
descriptor 2:    00 00 00 fd 00 30 90 1e a0 24 00 0a 20 20 20 20 20 20
descriptor 3:    00 00 00 ff 00 32 31 34 38 32 42 30 30 32 34 37 31 0a
descriptor 4:    00 00 00 fc 00 47 32 37 46 0a 20 20 20 20 20 20 20 20
extensions:      01
checksum:        e7

EDID version: 1.3
Manufacturer: GBT Model 2708 Serial Number --
Made in week 48 of 2021
Digital display
Maximum image size: 60 cm x 33 cm
Gamma: 2.20
DPMS levels: Off
RGB color display
First detailed timing is preferred timing
Display x,y Chromaticity:
  Red:   0.6767, 0.3144
  Green: 0.2763, 0.6796
  Blue:  0.1503, 0.0498
  White: 0.3125, 0.3291
Established timings supported:
  720x400@70Hz 9:5 HorFreq: 31469 Hz Clock: 28.320 MHz
  640x480@60Hz 4:3 HorFreq: 31469 Hz Clock: 25.175 MHz
  640x480@67Hz 4:3 HorFreq: 35000 Hz Clock: 30.240 MHz
  640x480@72Hz 4:3 HorFreq: 37900 Hz Clock: 31.500 MHz
  640x480@75Hz 4:3 HorFreq: 37500 Hz Clock: 31.500 MHz
  800x600@56Hz 4:3 HorFreq: 35200 Hz Clock: 36.000 MHz
  800x600@60Hz 4:3 HorFreq: 37900 Hz Clock: 40.000 MHz
  800x600@72Hz 4:3 HorFreq: 48100 Hz Clock: 50.000 MHz
  800x600@75Hz 4:3 HorFreq: 46900 Hz Clock: 49.500 MHz
  832x624@75Hz 4:3 HorFreq: 49726 Hz Clock: 57.284 MHz
  1024x768@60Hz 4:3 HorFreq: 48400 Hz Clock: 65.000 MHz
  1024x768@70Hz 4:3 HorFreq: 56500 Hz Clock: 75.000 MHz
  1024x768@75Hz 4:3 HorFreq: 60000 Hz Clock: 78.750 MHz
  1280x1024@75Hz 5:4 HorFreq: 80000 Hz Clock: 135.000 MHz
Standard timings supported:
  1280x1024@60Hz 5:4 HorFreq: 64000 Hz Clock: 108.000 MHz
  1280x1024@120Hz 5:4
  1440x900@60Hz 16:10 HorFreq: 55500 Hz Clock: 88.750 MHz
  1440x900@120Hz 16:10
  1680x1050@60Hz 16:10 HorFreq: 64700 Hz Clock: 119.000 MHz
  1680x1050@120Hz 16:10
  1920x1080@60Hz 16:9
  1920x1080@120Hz 16:9
Detailed mode: Clock 148.500 MHz, 599 mm x 335 mm
               1920 2008 2052 2200 hborder 0
               1080 1084 1089 1125 vborder 0
               +hsync +vsync 
               VertFreq: 60 Hz, HorFreq: 67500 Hz
Monitor ranges (GTF): 48-144Hz V, 30-160kHz H, max dotclock 360MHz
Serial number: --
Monitor name: G27F
Has 1 extension blocks
Checksum: 0xe7 (valid)

CTA extension block
Extension version: 3
43 bytes of CTA data
  Video data block
    VIC  16 1920x1080@60Hz 16:9 (native) HorFreq: 67500 Hz Clock: 148.500 MHz
    VIC   1 640x480@60Hz 4:3  HorFreq: 31469 Hz Clock: 25.175 MHz
    VIC   2 720x480@60Hz 4:3  HorFreq: 31469 Hz Clock: 27.000 MHz
    VIC   3 720x480@60Hz 16:9  HorFreq: 31469 Hz Clock: 27.000 MHz
    VIC   4 1280x720@60Hz 16:9  HorFreq: 45000 Hz Clock: 74.250 MHz
    VIC   5 1920x1080i@60Hz 16:9  HorFreq: 33750 Hz Clock: 74.250 MHz
    VIC  17 720x576@50Hz 4:3  HorFreq: 31250 Hz Clock: 27.000 MHz
    VIC  18 720x576@50Hz 16:9  HorFreq: 31250 Hz Clock: 27.000 MHz
    VIC  19 1280x720@50Hz 16:9  HorFreq: 37500 Hz Clock: 74.250 MHz
    VIC  20 1920x1080i@50Hz 16:9  HorFreq: 28125 Hz Clock: 74.250 MHz
    VIC  31 1920x1080@50Hz 16:9  HorFreq: 56250 Hz Clock: 148.500 MHz
    VIC  63 1920x1080@120Hz 16:9  HorFreq: 135000 Hz Clock: 297.000 MHz
  Audio data block
    Linear PCM, max channels 2
      Supported sample rates (kHz): 48 44.1 32
      Supported sample sizes (bits): 24 20 16
  Speaker allocation data block
    Speaker map:
      FL/FR - Front Left/Right
  Vendor-specific data block, OUI 000c03 (HDMI)
    Source physical address 1.0.0.0
    DC_36bit
    DC_30bit
    DC_Y444
    Maximum TMDS clock: 340MHz
  Vendor-specific data block, OUI 00001a
Underscans PC formats by default
Basic audio support
Supports YCbCr 4:4:4
Supports YCbCr 4:2:2
1 native detailed modes
Detailed mode: Clock 325.070 MHz, 599 mm x 335 mm
               1920 1944 1976 2034 hborder 0
               1080 1083 1088 1110 vborder 0
               +hsync +vsync 
               VertFreq: 143 Hz, HorFreq: 159818 Hz
Detailed mode: Clock 285.500 MHz, 599 mm x 335 mm
               1920 1968 2000 2080 hborder 0
               1080 1083 1088 1144 vborder 0
               +hsync +vsync 
               VertFreq: 119 Hz, HorFreq: 137259 Hz
Detailed mode: Clock 178.200 MHz, 599 mm x 335 mm
               1280 1390 1430 1650 hborder 0
                720  725  730  750 vborder 0
               +hsync +vsync 
               VertFreq: 144 Hz, HorFreq: 108000 Hz
Detailed mode: Clock 148.500 MHz, 559 mm x 335 mm
               1280 1390 1430 1650 hborder 0
                720  725  730  750 vborder 0
               -hsync -vsync analog composite side by side interleaved
               VertFreq: 120 Hz, HorFreq: 90000 Hz
Checksum: 0x64 (valid)

One or more of the timings is out of range of the Monitor Ranges:
  Vertical Freq: 50 - 144 Hz
  Horizontal Freq: 28125 - 159818 Hz
  Maximum Clock: 325.070 MHz
