
EDID (hex):
00ffffffffffff0009e58a0c69000000
23210104b52216780731a6a4544d9926
0f505400000001010101010101010101
0101010101011f6c00a0a04060603020
360059d71000001a3ed800a0a0406060
3020360059d71000001a000000fd0030
78cccc37010a202020202020000000fe
004e4531363051444d2d4e59320a008c

edid-decode (hex):

00 ff ff ff ff ff ff 00 09 e5 8a 0c 69 00 00 00
23 21 01 04 b5 22 16 78 07 31 a6 a4 54 4d 99 26
0f 50 54 00 00 00 01 01 01 01 01 01 01 01 01 01
01 01 01 01 01 01 1f 6c 00 a0 a0 40 60 60 30 20
36 00 59 d7 10 00 00 1a 3e d8 00 a0 a0 40 60 60
30 20 36 00 59 d7 10 00 00 1a 00 00 00 fd 00 30
78 cc cc 37 01 0a 20 20 20 20 20 20 00 00 00 fe
00 4e 45 31 36 30 51 44 4d 2d 4e 59 32 0a 00 8c

----------------

Block 0, Base EDID:
  EDID Structure Version & Revision: 1.4
  Vendor & Product Identification:
    Manufacturer: BOE
    Model: 3210
    Serial Number: 105
    Made in: week 35 of 2023
  Basic Display Parameters & Features:
    Digital display
    Bits per primary color channel: 10
    DisplayPort interface
    Maximum image size: 34 cm x 22 cm
    Gamma: 2.20
    Supported color formats: RGB 4:4:4
    Default (sRGB) color space is primary color space
    First detailed timing includes the native pixel format and preferred refresh rate
    Display is continuous frequency
  Color Characteristics:
    Red  : 0.6406, 0.3310
    Green: 0.3007, 0.5986
    Blue : 0.1503, 0.0605
    White: 0.3134, 0.3300
  Established Timings I & II: none
  Standard Timings: none
  Detailed Timing Descriptors:
    DTD 1:  2560x1600   60.000607 Hz  16:10   101.761 kHz    276.790000 MHz (345 mm x 215 mm)
                 Hfront   48 Hsync  32 Hback   80 Hpol P
                 Vfront    3 Vsync   6 Vback   87 Vpol N
    DTD 2:  2560x1600  120.001214 Hz  16:10   203.522 kHz    553.580000 MHz (345 mm x 215 mm)
                 Hfront   48 Hsync  32 Hback   80 Hpol P
                 Vfront    3 Vsync   6 Vback   87 Vpol N
    Display Range Limits:
      Monitor ranges (Bare Limits): 48-120 Hz V, 204-204 kHz H, max dotclock 550 MHz
    Alphanumeric Data String: 'NE160QDM-NY2'
Checksum: 0x8c
