edid-decode (hex):

00 ff ff ff ff ff ff 00 09 e5 8a 0c 69 00 00 00
23 21 01 04 b5 22 16 78 07 31 a6 a4 54 4d 99 26
0f 50 54 00 00 00 01 01 01 01 01 01 01 01 01 01
01 01 01 01 01 01 1f 6c 00 a0 a0 40 60 60 30 20
36 00 59 d7 10 00 00 1a 3e d8 00 a0 a0 40 60 60
30 20 36 00 59 d7 10 00 00 1a 00 00 00 fd 00 30
78 cc cc 37 01 0a 20 20 20 20 20 20 00 00 00 fe
00 4e 45 31 36 30 51 44 4d 2d 4e 59 32 0a 00 8c

00 ff ff ff ff ff ff 00 09 e5 8a 0c 69 00 00 00
23 21 01 04 b5 22 16 78 07 31 a6 a4 54 4d 99 26
0f 50 54 00 00 00 01 01 01 01 01 01 01 01 01 01
01 01 01 01 01 01 1f 6c 00 a0 a0 40 60 60 30 20
36 00 59 d7 10 00 00 1a 3e d8 00 a0 a0 40 60 60
30 20 36 00 59 d7 10 00 00 1a 00 00 00 fd 00 30
78 cc cc 37 01 0a 20 20 20 20 20 20 00 00 00 fe
00 4e 45 31 36 30 51 44 4d 2d 4e 59 32 0a 00 8c

----------------

Block 0, Base EDID:
  EDID Structure Version & Revision: 1.4
  Vendor & Product Identification:
    Manufacturer: BOE
    Model: 3210
    Serial Number: ...
    Made in: week 35 of 2023
  Basic Display Parameters & Features:
    Digital display
    Bits per primary color channel: 10
    DisplayPort interface
    Maximum image size: 34 cm x 22 cm
    Gamma: 2.20
    Supported color formats: RGB 4:4:4
    Default (sRGB) color space is primary color space
    First detailed timing includes the native pixel format and preferred refresh rate
    Display is continuous frequency
  Color Characteristics:
    Red  : 0.6406, 0.3310
    Green: 0.3007, 0.5986
    Blue : 0.1503, 0.0605
    White: 0.3134, 0.3300
  Established Timings I & II: none
  Standard Timings: none
  Detailed Timing Descriptors:
    DTD 1:  2560x1600   60.000607 Hz  16:10   101.761 kHz    276.790000 MHz (345 mm x 215 mm)
                 Hfront   48 Hsync  32 Hback   80 Hpol P
                 Vfront    3 Vsync   6 Vback   87 Vpol N
    DTD 2:  2560x1600  120.001214 Hz  16:10   203.522 kHz    553.580000 MHz (345 mm x 215 mm)
                 Hfront   48 Hsync  32 Hback   80 Hpol P
                 Vfront    3 Vsync   6 Vback   87 Vpol N
    Display Range Limits:
      Monitor ranges (Bare Limits): 48-120 Hz V, 204-204 kHz H, max dotclock 550 MHz
    Alphanumeric Data String: 'NE160QDM-NY2'
Checksum: 0x8c

----------------

Block 1, Unknown EDID Extension Block 0x00:
  00 ff ff ff ff ff ff 00 09 e5 8a 0c 69 00 00 00 '............i...'
  23 21 01 04 b5 22 16 78 07 31 a6 a4 54 4d 99 26 '#!...".x.1..TM.&'
  0f 50 54 00 00 00 01 01 01 01 01 01 01 01 01 01 '.PT.............'
  01 01 01 01 01 01 1f 6c 00 a0 a0 40 60 60 30 20 '.......l...@``0 '
  36 00 59 d7 10 00 00 1a 3e d8 00 a0 a0 40 60 60 '6.Y.....>....@``'
  30 20 36 00 59 d7 10 00 00 1a 00 00 00 fd 00 30 '0 6.Y..........0'
  78 cc cc 37 01 0a 20 20 20 20 20 20 00 00 00 fe 'x..7..      ....'
  00 4e 45 31 36 30 51 44 4d 2d 4e 59 32 0a 00 8c '.NE160QDM-NY2...'
Checksum: 0x8c

----------------

Warnings:

Block 0, Base EDID:
  Missing Display Product Name.
EDID:
  Base EDID: Some timings are out of range of the Monitor Ranges:
    Horizontal Freq: 101.761 - 203.522 kHz (Monitor: 204.000 - 204.000 kHz)
    Maximum Clock: 553.580 MHz (Monitor: 550.000 MHz)

Failures:

Block 0, Base EDID:
  Basic Display Parameters & Features: sRGB is signaled, but the chromaticities do not match.
Block 1, Base EDID:
  Unknown Extension Block.
EDID:
  Base EDID: EDID specified 0 extension block(s), but found 1 extension block(s).

EDID conformity: FAIL
