
EDID (hex):
00ffffffffffff0004729d04053d1085
331c0104a547287806ee91a3544c9926
0f505421080001010101010101010101
0101010101014dd000a0f0703e803020
3500c48f2100001a000000ff00234153
505a48476b3953517a64000000fd001e
3c348536010a202020202020000000fc
005842333231484b0a20202020200147
020312412309070183010000654b0400
0101ef5100a0f070198030203500c48f
2100001aa36600a0f0701f8030203500
c48f2100001a00000000000000000000
00000000000000000000000000000000
00000000000000000000000000000000
00000000000000000000000000000000
00000000000000000000000000000093

Extracted contents:
header:          00 ff ff ff ff ff ff 00
serial number:   04 72 9d 04 05 3d 10 85 33 1c
version:         01 04
basic params:    a5 47 28 78 06
chroma info:     ee 91 a3 54 4c 99 26 0f 50 54
established:     21 08 00
standard:        01 01 01 01 01 01 01 01 01 01 01 01 01 01 01 01
descriptor 1:    4d d0 00 a0 f0 70 3e 80 30 20 35 00 c4 8f 21 00 00 1a
descriptor 2:    00 00 00 ff 00 23 41 53 50 5a 48 47 6b 39 53 51 7a 64
descriptor 3:    00 00 00 fd 00 1e 3c 34 85 36 01 0a 20 20 20 20 20 20
descriptor 4:    00 00 00 fc 00 58 42 33 32 31 48 4b 0a 20 20 20 20 20
extensions:      01
checksum:        47

EDID version: 1.4
Manufacturer: ACR Model 49d Serial Number --
Made in week 51 of 2018
Digital display
8 bits per primary color channel
DisplayPort interface
Maximum image size: 71 cm x 40 cm
Gamma: 2.20
Supported color formats: RGB 4:4:4
Default (sRGB) color space is primary color space
First detailed timing includes the native pixel format and preferred refresh rate
Display x,y Chromaticity:
  Red:   0.6396, 0.3300
  Green: 0.2998, 0.5996
  Blue:  0.1503, 0.0595
  White: 0.3125, 0.3291
Established timings supported:
  640x480@60Hz 4:3 HorFreq: 31469 Hz Clock: 25.175 MHz
  800x600@60Hz 4:3 HorFreq: 37900 Hz Clock: 40.000 MHz
  1024x768@60Hz 4:3 HorFreq: 48400 Hz Clock: 65.000 MHz
Standard timings supported:
Detailed mode: Clock 533.250 MHz, 708 mm x 399 mm
               3840 3888 3920 4000 hborder 0
               2160 2163 2168 2222 vborder 0
               +hsync -vsync 
               VertFreq: 59 Hz, HorFreq: 133312 Hz
Serial number: --
Monitor ranges (bare limits): 30-60Hz V, 52-133kHz H, max dotclock 540MHz
Monitor name: XB321HK
Has 1 extension blocks
Checksum: 0x47 (valid)

CTA extension block
Extension version: 3
14 bytes of CTA data
  Audio data block
    Linear PCM, max channels 2
      Supported sample rates (kHz): 48 44.1 32
      Supported sample sizes (bits): 16
  Speaker allocation data block
    Speaker map:
      FL/FR - Front Left/Right
  Vendor-specific data block, OUI 00044b
Basic audio support
1 native detailed modes
Detailed mode: Clock 209.750 MHz, 708 mm x 399 mm
               3840 3888 3920 4000 hborder 0
               2160 2163 2168 2185 vborder 0
               +hsync -vsync 
               VertFreq: 23 Hz, HorFreq: 52437 Hz
Detailed mode: Clock 262.750 MHz, 708 mm x 399 mm
               3840 3888 3920 4000 hborder 0
               2160 2163 2168 2191 vborder 0
               +hsync -vsync 
               VertFreq: 29 Hz, HorFreq: 65687 Hz
Checksum: 0x93 (valid)

Warning: One or more of the timings is out of range of the Monitor Ranges:
  Vertical Freq: 23 - 60 Hz
  Horizontal Freq: 31469 - 133312 Hz
  Maximum Clock: 533.250 MHz
EDID block does not conform at all!
	Both the serial number and the serial string are set
