
EDID (hex):
00ffffffffffff001e04980501000000
24200104a50d08780f0dc9a057479827
12484c00000001000100010101010101
0101010101016734806070381d404808
d300844b0000001e4b27806070381d40
4808d300844b0000001e000000fd001e
4b1e96110100000000000000000000fc
0047313631382d30340a2020202000e4

edid-decode (hex):

00 ff ff ff ff ff ff 00 1e 04 98 05 01 00 00 00
24 20 01 04 a5 0d 08 78 0f 0d c9 a0 57 47 98 27
12 48 4c 00 00 00 01 00 01 00 01 01 01 01 01 01
01 01 01 01 01 01 67 34 80 60 70 38 1d 40 48 08
d3 00 84 4b 00 00 00 1e 4b 27 80 60 70 38 1d 40
48 08 d3 00 84 4b 00 00 00 1e 00 00 00 fd 00 1e
4b 1e 96 11 01 00 00 00 00 00 00 00 00 00 00 fc
00 47 31 36 31 38 2d 30 34 0a 20 20 20 20 00 e4

----------------

Block 0, Base EDID:
  EDID Structure Version & Revision: 1.4
  Vendor & Product Identification:
    Manufacturer: GPD
    Model: 1432
    Serial Number: 1
    Made in: week 36 of 2022
  Basic Display Parameters & Features:
    Digital display
    Bits per primary color channel: 8
    DisplayPort interface
    Maximum image size: 13 cm x 8 cm
    Gamma: 2.20
    Supported color formats: RGB 4:4:4, YCrCb 4:4:4
    Default (sRGB) color space is primary color space
    First detailed timing includes the native pixel format and preferred refresh rate
    Display is continuous frequency
  Color Characteristics:
    Red  : 0.6250, 0.3398
    Green: 0.2802, 0.5947
    Blue : 0.1552, 0.0703
    White: 0.2832, 0.2978
  Established Timings I & II: none
  Standard Timings:
  Detailed Timing Descriptors:
    DTD 1:  1920x1080   60.002397 Hz  16:9     66.543 kHz    134.150000 MHz (132 mm x 75 mm)
                 Hfront   72 Hsync   8 Hback   16 Hpol P
                 Vfront   13 Vsync   3 Vback   13 Vpol P
    DTD 2:  1920x1080   44.991734 Hz  16:9     49.896 kHz    100.590000 MHz (132 mm x 75 mm)
                 Hfront   72 Hsync   8 Hback   16 Hpol P
                 Vfront   13 Vsync   3 Vback   13 Vpol P
    Display Range Limits:
      Monitor ranges (Bare Limits): 30-75 Hz V, 30-150 kHz H, max dotclock 170 MHz
    Display Product Name: 'G1618-04'
Checksum: 0xe4
