edid-decode (hex):

00 ff ff ff ff ff ff 00 0d b2 00 d8 00 00 00 00
01 1c 01 04 b2 46 27 00 02 66 4b a1 57 4c 99 2a
12 4c 54 00 00 00 d1 fc d1 e8 95 68 01 00 01 00
01 00 01 00 01 00 04 74 80 18 71 38 2d 40 14 28
45 00 ba 89 21 00 00 1e 0a 5a 80 80 70 38 2d 40
14 28 45 00 ba 89 21 00 00 1e 00 00 00 fd 00 5f
7a 6e 8c 1e 00 0a 20 20 20 20 20 20 00 00 00 fc
00 44 69 73 70 6c 61 79 2b 2b 0a 20 20 20 01 4a

02 03 0c 00 67 03 0c 00 00 00 10 3c 04 74 80 18
71 38 2d 40 14 28 45 00 ba 89 21 00 00 1e 0a 5a
80 80 70 38 2d 40 14 28 45 00 ba 89 21 00 00 1e
74 40 a0 3c 50 38 14 40 14 14 5a 00 0c 89 21 00
00 1e 00 00 00 00 00 00 00 00 00 00 00 00 00 00
00 00 00 00 00 00 00 00 00 00 00 00 00 00 00 00
00 00 00 00 00 00 00 00 00 00 00 00 00 00 00 00
00 00 00 00 00 00 00 00 00 00 00 00 00 00 00 c6

00 ff ff ff ff ff ff 00 0d b2 00 d8 00 00 00 00
01 1c 01 04 b2 46 27 00 02 66 4b a1 57 4c 99 2a
12 4c 54 00 00 00 d1 fc d1 e8 95 68 01 00 01 00
01 00 01 00 01 00 04 74 80 18 71 38 2d 40 14 28
45 00 ba 89 21 00 00 1e 0a 5a 80 80 70 38 2d 40
14 28 45 00 ba 89 21 00 00 1e 00 00 00 fd 00 5f
7a 6e 8c 1e 00 0a 20 20 20 20 20 20 00 00 00 fc
00 44 69 73 70 6c 61 79 2b 2b 0a 20 20 20 01 4a

02 03 0c 00 67 03 0c 00 00 00 10 3c 04 74 80 18
71 38 2d 40 14 28 45 00 ba 89 21 00 00 1e 0a 5a
80 80 70 38 2d 40 14 28 45 00 ba 89 21 00 00 1e
74 40 a0 3c 50 38 14 40 14 14 5a 00 0c 89 21 00
00 1e 00 00 00 00 00 00 00 00 00 00 00 00 00 00
00 00 00 00 00 00 00 00 00 00 00 00 00 00 00 00
00 00 00 00 00 00 00 00 00 00 00 00 00 00 00 00
00 00 00 00 00 00 00 00 00 00 00 00 00 00 00 c6

----------------

Block 0, Base EDID:
  EDID Structure Version & Revision: 1.4
  Vendor & Product Identification:
    Manufacturer: CMR
    Model: 55296
    Made in: week 1 of 2018
  Basic Display Parameters & Features:
    Digital display
    Bits per primary color channel: 10
    HDMI-a interface
    Maximum image size: 70 cm x 39 cm
    Gamma: 1.00
    Supported color formats: RGB 4:4:4
    First detailed timing includes the native pixel format and preferred refresh rate
  Color Characteristics:
    Red  : 0.6298, 0.3417
    Green: 0.2978, 0.5996
    Blue : 0.1650, 0.0703
    White: 0.2988, 0.3310
  Established Timings I & II: none
  Standard Timings:
    GTF     :  1920x1080  119.999987 Hz  16:9    138.840 kHz    368.759000 MHz
    GTF     :  1920x1080  100.000000 Hz  16:9    114.400 kHz    302.016000 MHz
    GTF     :  1440x1080  100.000176 Hz   4:3    114.400 kHz    226.970000 MHz
  Detailed Timing Descriptors:
    DTD 1:  1920x1080  120.000000 Hz  16:9    135.000 kHz    297.000000 MHz (698 mm x 393 mm)
                 Hfront   20 Hsync  40 Hback  220 Hpol P
                 Vfront    4 Vsync   5 Vback   36 Vpol P
    DTD 2:  1920x1080  100.043403 Hz  16:9    112.549 kHz    230.500000 MHz (698 mm x 393 mm)
                 Hfront   20 Hsync  40 Hback   68 Hpol P
                 Vfront    4 Vsync   5 Vback   36 Vpol P
    Display Range Limits:
      Monitor ranges (GTF): 95-122 Hz V, 110-140 kHz H, max dotclock 300 MHz
    Display Product Name: 'Display++'
  Extension blocks: 1
Checksum: 0x4a

----------------

Block 1, CTA-861 Extension Block:
  Revision: 3
  Native detailed modes: 0
  Vendor-Specific Data Block (HDMI), OUI 00-0C-03:
    Source physical address: 0.0.0.0
    DC_30bit
    Maximum TMDS clock: 300 MHz
  Detailed Timing Descriptors:
    DTD 3:  1920x1080  120.000000 Hz  16:9    135.000 kHz    297.000000 MHz (698 mm x 393 mm)
                 Hfront   20 Hsync  40 Hback  220 Hpol P
                 Vfront    4 Vsync   5 Vback   36 Vpol P
    DTD 4:  1920x1080  100.043403 Hz  16:9    112.549 kHz    230.500000 MHz (698 mm x 393 mm)
                 Hfront   20 Hsync  40 Hback   68 Hpol P
                 Vfront    4 Vsync   5 Vback   36 Vpol P
    DTD 5:  1440x1080  100.000000 Hz   4:3    110.000 kHz    165.000000 MHz (524 mm x 393 mm)
                 Hfront   20 Hsync  20 Hback   20 Hpol P
                 Vfront    5 Vsync  10 Vback    5 Vpol P
Checksum: 0xc6  Unused space in Extension Block: 61 bytes

----------------

Block 2, Unknown EDID Extension Block 0x00:
  00 ff ff ff ff ff ff 00 0d b2 00 d8 00 00 00 00 '................'
  01 1c 01 04 b2 46 27 00 02 66 4b a1 57 4c 99 2a '.....F'..fK.WL.*'
  12 4c 54 00 00 00 d1 fc d1 e8 95 68 01 00 01 00 '.LT........h....'
  01 00 01 00 01 00 04 74 80 18 71 38 2d 40 14 28 '.......t..q8-@.('
  45 00 ba 89 21 00 00 1e 0a 5a 80 80 70 38 2d 40 'E...!....Z..p8-@'
  14 28 45 00 ba 89 21 00 00 1e 00 00 00 fd 00 5f '.(E...!........_'
  7a 6e 8c 1e 00 0a 20 20 20 20 20 20 00 00 00 fc 'zn....      ....'
  00 44 69 73 70 6c 61 79 2b 2b 0a 20 20 20 01 4a '.Display++.   .J'
Checksum: 0x4a

----------------

Block 3, CTA-861 Extension Block:
  Revision: 3
  Native detailed modes: 0
  Vendor-Specific Data Block (HDMI), OUI 00-0C-03:
    Source physical address: 0.0.0.0
    DC_30bit
    Maximum TMDS clock: 300 MHz
  Detailed Timing Descriptors:
    DTD 6:  1920x1080  120.000000 Hz  16:9    135.000 kHz    297.000000 MHz (698 mm x 393 mm)
                 Hfront   20 Hsync  40 Hback  220 Hpol P
                 Vfront    4 Vsync   5 Vback   36 Vpol P
    DTD 7:  1920x1080  100.043403 Hz  16:9    112.549 kHz    230.500000 MHz (698 mm x 393 mm)
                 Hfront   20 Hsync  40 Hback   68 Hpol P
                 Vfront    4 Vsync   5 Vback   36 Vpol P
    DTD 8:  1440x1080  100.000000 Hz   4:3    110.000 kHz    165.000000 MHz (524 mm x 393 mm)
                 Hfront   20 Hsync  20 Hback   20 Hpol P
                 Vfront    5 Vsync  10 Vback    5 Vpol P
Checksum: 0xc6  Unused space in Extension Block: 61 bytes

----------------

Warnings:

Block 0, Base EDID:
  Detailed Timing Descriptor #1: DTD is similar but not identical to VIC 63.
  Display Range Limits: GTF support is deprecated in EDID 1.4.
Block 1, CTA-861 Extension Block:
  IT Video Formats are overscanned by default, but normally this should be underscanned.
  Detailed Timing Descriptor #3: DTD is similar but not identical to VIC 63.
  Add a Colorimetry Data Block with the sRGB colorimetry bit set to avoid interop issues.
Block 3, CTA-861 Extension Block:
  IT Video Formats are overscanned by default, but normally this should be underscanned.
  Detailed Timing Descriptor #6: DTD is similar but not identical to VIC 63.
  Add a Colorimetry Data Block with the sRGB colorimetry bit set to avoid interop issues.
EDID:
  Base EDID: Some timings are out of range of the Monitor Ranges:
    Maximum Clock: 368.759 MHz (Monitor: 300.000 MHz)

Failures:

Block 0, Base EDID:
  Standard Timings: Use 0x0101 as the invalid Standard Timings code, not 0x0100.
  Standard Timings: Use 0x0101 as the invalid Standard Timings code, not 0x0100.
  Standard Timings: Use 0x0101 as the invalid Standard Timings code, not 0x0100.
  Standard Timings: Use 0x0101 as the invalid Standard Timings code, not 0x0100.
  Standard Timings: Use 0x0101 as the invalid Standard Timings code, not 0x0100.
  Display Range Limits: GTF can't be combined with non-continuous frequencies.
Block 1, CTA-861 Extension Block:
  Vendor-Specific Data Block (HDMI), OUI 00-0C-03: The HDMI Specification requires EDID 1.3 instead of 1.4.
  Required 640x480p60 timings are missing in the established timings and the SVD list (VIC 1).
  Missing VCDB, needed for Set Selectable RGB Quantization to avoid interop issues.
Block 2, Base EDID:
  Unknown Extension Block.
Block 3, CTA-861 Extension Block:
  Vendor-Specific Data Block (HDMI), OUI 00-0C-03: The HDMI Specification requires EDID 1.3 instead of 1.4.
  Required 640x480p60 timings are missing in the established timings and the SVD list (VIC 1).
  Missing VCDB, needed for Set Selectable RGB Quantization to avoid interop issues.
EDID:
  Base EDID: EDID specified 1 extension block(s), but found 3 extension block(s).

EDID conformity: FAIL
