edid-decode (hex):

00 ff ff ff ff ff ff 00 5c 85 60 50 01 01 01 01
24 11 01 03 08 47 28 78 2a 82 ff a6 55 46 98 24
0f 47 49 bf ee 00 8b c0 81 00 81 80 81 c0 01 01
01 01 01 01 01 01 9d 1c 56 82 50 00 30 30 28 20
35 00 c5 8f 21 00 00 1a 00 00 00 fd 00 32 4b 1e
46 0b 00 0a 20 20 20 20 20 20 00 00 00 fc 00 57
65 73 74 69 6e 67 68 6f 75 73 65 0a 00 00 00 fc
00 53 4b 2d 33 32 48 32 34 30 53 0a 20 20 00 8d

----------------

Block 0, Base EDID:
  EDID Structure Version & Revision: 1.3
  Vendor & Product Identification:
    Manufacturer: WDE
    Model: 20576
    Serial Number: ...
    Made in: week 36 of 2007
  Basic Display Parameters & Features:
    Analog display
    Input voltage level: 0.7/0.3 V
    Sync: Separate
    Maximum image size: 71 cm x 40 cm
    Gamma: 2.20
    DPMS levels: Off
    RGB color display
    First detailed timing is preferred timing
  Color Characteristics:
    Red  : 0.6503, 0.3320
    Green: 0.2734, 0.5957
    Blue : 0.1435, 0.0615
    White: 0.2802, 0.2880
  Established Timings I & II:
    IBM     :   720x400    70.082 Hz   9:5    31.467 kHz  28.320 MHz
    DMT 0x04:   640x480    59.940 Hz   4:3    31.469 kHz  25.175 MHz
    Apple   :   640x480    66.667 Hz   4:3    35.000 kHz  30.240 MHz
    DMT 0x05:   640x480    72.809 Hz   4:3    37.861 kHz  31.500 MHz
    DMT 0x06:   640x480    75.000 Hz   4:3    37.500 kHz  31.500 MHz
    DMT 0x08:   800x600    56.250 Hz   4:3    35.156 kHz  36.000 MHz
    DMT 0x09:   800x600    60.317 Hz   4:3    37.879 kHz  40.000 MHz
    DMT 0x0a:   800x600    72.188 Hz   4:3    48.077 kHz  50.000 MHz
    DMT 0x0b:   800x600    75.000 Hz   4:3    46.875 kHz  49.500 MHz
    Apple   :   832x624    74.551 Hz   4:3    49.726 kHz  57.284 MHz
    DMT 0x10:  1024x768    60.004 Hz   4:3    48.363 kHz  65.000 MHz
    DMT 0x11:  1024x768    70.069 Hz   4:3    56.476 kHz  75.000 MHz
    DMT 0x12:  1024x768    75.029 Hz   4:3    60.023 kHz  78.750 MHz
  Standard Timings:
    GTF     :  1360x768    60.000 Hz  16:9    47.700 kHz  84.715 MHz
    DMT 0x1c:  1280x800    59.810 Hz  16:10   49.702 kHz  83.500 MHz
    DMT 0x23:  1280x1024   60.020 Hz   5:4    63.981 kHz 108.000 MHz
    DMT 0x55:  1280x720    60.000 Hz  16:9    45.000 kHz  74.250 MHz
  Detailed Timing Descriptors:
    DTD 1:  1366x768    60.005 Hz 683:384  48.964 kHz  73.250 MHz (709 mm x 399 mm)
                 Hfront   40 Hsync  32 Hback  58 Hpol P
                 Vfront    3 Vsync   5 Vback  40 Vpol N
  Display Range Limits:
    Monitor ranges (GTF): 50-75 Hz V, 30-70 kHz H, max dotclock 110 MHz
    Display Product Name: 'Westinghouse'
    Display Product Name: 'SK-32H240S'
Checksum: 0x8d

----------------

EDID conformity: PASS
