edid-decode (hex):

00 ff ff ff ff ff ff 00 5c 85 60 50 00 00 00 00
0a 11 01 03 08 47 28 78 2a 03 30 a7 55 45 96 24
11 49 4b a5 4e 00 81 c0 81 00 8b c0 01 01 01 01
01 01 01 01 01 01 9d 1c 56 82 50 00 30 30 28 20
35 00 c5 8f 21 00 00 1a 00 00 00 fc 00 57 65 73
74 69 6e 67 68 6f 75 73 65 0a 00 00 00 fc 00 20
53 4b 2d 33 32 48 32 34 30 53 0a 20 00 00 00 fd
00 31 4c 0f 31 09 00 0a 20 20 20 20 20 20 00 d4

00 ff ff ff ff ff ff 00 5c 85 60 50 00 00 00 00
0a 11 01 03 08 47 28 78 2a 03 30 a7 55 45 96 24
11 49 4b a5 4e 00 81 c0 81 00 8b c0 01 01 01 01
01 01 01 01 01 01 9d 1c 56 82 50 00 30 30 28 20
35 00 c5 8f 21 00 00 1a 00 00 00 fc 00 57 65 73
74 69 6e 67 68 6f 75 73 65 0a 00 00 00 fc 00 20
53 4b 2d 33 32 48 32 34 30 53 0a 20 00 00 00 fd
00 31 4c 0f 31 09 00 0a 20 20 20 20 20 20 00 d4

----------------

Block 0, Base EDID:
  EDID Structure Version & Revision: 1.3
  Vendor & Product Identification:
    Manufacturer: WDE
    Model: 20576
    Made in: week 10 of 2007
  Basic Display Parameters & Features:
    Analog display
    Signal Level Standard: 0.700 : 0.300 : 1.000 V p-p
    Blank level equals black level
    Sync: Separate
    Maximum image size: 71 cm x 40 cm
    Gamma: 2.20
    DPMS levels: Off
    RGB color display
    First detailed timing is the preferred timing
  Color Characteristics:
    Red  : 0.6523, 0.3320
    Green: 0.2695, 0.5888
    Blue : 0.1406, 0.0693
    White: 0.2851, 0.2929
  Established Timings I & II:
    IBM     :   720x400    70.081663 Hz   9:5     31.467 kHz     28.320000 MHz
    DMT 0x04:   640x480    59.940476 Hz   4:3     31.469 kHz     25.175000 MHz
    DMT 0x06:   640x480    75.000000 Hz   4:3     37.500 kHz     31.500000 MHz
    DMT 0x09:   800x600    60.316541 Hz   4:3     37.879 kHz     40.000000 MHz
    DMT 0x0b:   800x600    75.000000 Hz   4:3     46.875 kHz     49.500000 MHz
    DMT 0x10:  1024x768    60.003840 Hz   4:3     48.363 kHz     65.000000 MHz
    DMT 0x11:  1024x768    70.069359 Hz   4:3     56.476 kHz     75.000000 MHz
    DMT 0x12:  1024x768    75.028582 Hz   4:3     60.023 kHz     78.750000 MHz
  Standard Timings:
    DMT 0x55:  1280x720    60.000000 Hz  16:9     45.000 kHz     74.250000 MHz
    DMT 0x1c:  1280x800    59.810326 Hz  16:10    49.702 kHz     83.500000 MHz
    GTF     :  1360x765    60.000341 Hz  16:9     47.520 kHz     84.396000 MHz
  Detailed Timing Descriptors:
    DTD 1:  1366x768    60.004784 Hz 683:384   48.964 kHz     73.250000 MHz (709 mm x 399 mm)
                 Hfront   40 Hsync  32 Hback   58 Hpol P
                 Vfront    3 Vsync   5 Vback   40 Vpol N
    Display Product Name: 'Westinghouse'
    Display Product Name: ' SK-32H240S'
    Display Range Limits:
      Monitor ranges (GTF): 49-76 Hz V, 15-49 kHz H, max dotclock 90 MHz
Checksum: 0xd4

----------------

Block 1, Unknown EDID Extension Block 0x00:
  00 ff ff ff ff ff ff 00 5c 85 60 50 00 00 00 00 '........\.`P....'
  0a 11 01 03 08 47 28 78 2a 03 30 a7 55 45 96 24 '.....G(x*.0.UE.$'
  11 49 4b a5 4e 00 81 c0 81 00 8b c0 01 01 01 01 '.IK.N...........'
  01 01 01 01 01 01 9d 1c 56 82 50 00 30 30 28 20 '........V.P.00( '
  35 00 c5 8f 21 00 00 1a 00 00 00 fc 00 57 65 73 '5...!........Wes'
  74 69 6e 67 68 6f 75 73 65 0a 00 00 00 fc 00 20 'tinghouse...... '
  53 4b 2d 33 32 48 32 34 30 53 0a 20 00 00 00 fd 'SK-32H240S. ....'
  00 31 4c 0f 31 09 00 0a 20 20 20 20 20 20 00 d4 '.1L.1...      ..'
Checksum: 0xd4

----------------

Warnings:

Block 0, Base EDID:
  Standard Timings: Standard Timing 1360x765 has a dubious odd vertical resolution.

Failures:

Block 1, Base EDID:
  Unknown Extension Block.
EDID:
  Base EDID: Some timings are out of range of the Monitor Ranges:
    Horizontal Freq: 31.466 - 60.022 kHz (Monitor: 15.000 - 49.000 kHz)
  Base EDID: EDID specified 0 extension block(s), but found 1 extension block(s).

EDID conformity: FAIL
