
EDID (hex):
00ffffffffffff0004720a08043b6004
2e1e0104a53c22783b0085a257549b21
0f5054a54b00714081c081809500a9c0
b300d1c00101023a801871382d40582c
450055502100001a000000fd0030f0fe
fe3c010a202020202020000000fc0045
4432373020580a2020202020000000ff
00544b584141303031335730310a017a
020333f14a010204059013141f4e4723
0907078301000065030c00100067d85d
c40176c0006d1a0000020130f0000000
000000c0de80187138d042582c000b55
502100001a21e7801871382642582c00
0b55502100001a08e880187138924458
2c000b55502100001a08e8801871382d
40582c450055502100001e0000000052

Extracted contents:
header:          00 ff ff ff ff ff ff 00
serial number:   04 72 0a 08 04 3b 60 04 2e 1e
version:         01 04
basic params:    a5 3c 22 78 3b
chroma info:     00 85 a2 57 54 9b 21 0f 50 54
established:     a5 4b 00
standard:        71 40 81 c0 81 80 95 00 a9 c0 b3 00 d1 c0 01 01
descriptor 1:    02 3a 80 18 71 38 2d 40 58 2c 45 00 55 50 21 00 00 1a
descriptor 2:    00 00 00 fd 00 30 f0 fe fe 3c 01 0a 20 20 20 20 20 20
descriptor 3:    00 00 00 fc 00 45 44 32 37 30 20 58 0a 20 20 20 20 20
descriptor 4:    00 00 00 ff 00 54 4b 58 41 41 30 30 31 33 57 30 31 0a
extensions:      01
checksum:        7a

EDID version: 1.4
Manufacturer: ACR Model 80a Serial Number --
Made in week 46 of 2020
Digital display
8 bits per primary color channel
DisplayPort interface
Maximum image size: 60 cm x 34 cm
Gamma: 2.20
DPMS levels: Off
Supported color formats: RGB 4:4:4, YCrCb 4:4:4, YCrCb 4:2:2
First detailed timing includes the native pixel format and preferred refresh rate
Display is continuous frequency
Display x,y Chromaticity:
  Red:   0.6328, 0.3398
  Green: 0.3281, 0.6054
  Blue:  0.1308, 0.0585
  White: 0.3134, 0.3291
Established timings supported:
  720x400@70Hz 9:5 HorFreq: 31469 Hz Clock: 28.320 MHz
  640x480@60Hz 4:3 HorFreq: 31469 Hz Clock: 25.175 MHz
  640x480@75Hz 4:3 HorFreq: 37500 Hz Clock: 31.500 MHz
  800x600@60Hz 4:3 HorFreq: 37900 Hz Clock: 40.000 MHz
  800x600@75Hz 4:3 HorFreq: 46900 Hz Clock: 49.500 MHz
  1024x768@60Hz 4:3 HorFreq: 48400 Hz Clock: 65.000 MHz
  1024x768@75Hz 4:3 HorFreq: 60000 Hz Clock: 78.750 MHz
  1280x1024@75Hz 5:4 HorFreq: 80000 Hz Clock: 135.000 MHz
Standard timings supported:
  1152x864@60Hz 4:3
  1280x720@60Hz 16:9
  1280x1024@60Hz 5:4 HorFreq: 64000 Hz Clock: 108.000 MHz
  1440x900@60Hz 16:10 HorFreq: 55500 Hz Clock: 88.750 MHz
  1600x900@60Hz 16:9
  1680x1050@60Hz 16:10 HorFreq: 64700 Hz Clock: 119.000 MHz
  1920x1080@60Hz 16:9
Detailed mode: Clock 148.500 MHz, 597 mm x 336 mm
               1920 2008 2052 2200 hborder 0
               1080 1084 1089 1125 vborder 0
               +hsync -vsync 
               VertFreq: 60 Hz, HorFreq: 67500 Hz
Monitor ranges (bare limits): 48-240Hz V, 254-254kHz H, max dotclock 600MHz
Monitor name: ED270 X
Serial number: --
Has 1 extension blocks
Checksum: 0x7a (valid)

CTA extension block
Extension version: 3
47 bytes of CTA data
  Video data block
    VIC   1 640x480@60Hz 4:3  HorFreq: 31469 Hz Clock: 25.175 MHz
    VIC   2 720x480@60Hz 4:3  HorFreq: 31469 Hz Clock: 27.000 MHz
    VIC   4 1280x720@60Hz 16:9  HorFreq: 45000 Hz Clock: 74.250 MHz
    VIC   5 1920x1080i@60Hz 16:9  HorFreq: 33750 Hz Clock: 74.250 MHz
    VIC  16 1920x1080@60Hz 16:9 (native) HorFreq: 67500 Hz Clock: 148.500 MHz
    VIC  19 1280x720@50Hz 16:9  HorFreq: 37500 Hz Clock: 74.250 MHz
    VIC  20 1920x1080i@50Hz 16:9  HorFreq: 28125 Hz Clock: 74.250 MHz
    VIC  31 1920x1080@50Hz 16:9  HorFreq: 56250 Hz Clock: 148.500 MHz
    VIC  78 1920x1080@120Hz 64:27  HorFreq: 135000 Hz Clock: 297.000 MHz
    VIC  71 1280x720@120Hz 64:27  HorFreq: 91000 Hz Clock: 148.500 MHz
  Audio data block
    Linear PCM, max channels 2
      Supported sample rates (kHz): 48 44.1 32
      Supported sample sizes (bits): 24 20 16
  Speaker allocation data block
    Speaker map:
      FL/FR - Front Left/Right
  Vendor-specific data block, OUI 000c03 (HDMI)
    Source physical address 1.0.0.0
  Vendor-specific data block, OUI c45dd8 (HDMI Forum)
    Version: 1
    Maximum TMDS Character Rate: 590MHz
    SCDC Present
    SCDC Read Request Capable
  Vendor-specific data block, OUI 00001a
Underscans PC formats by default
Basic audio support
Supports YCbCr 4:4:4
Supports YCbCr 4:2:2
1 native detailed modes
Detailed mode: Clock 570.240 MHz, 597 mm x 336 mm
               1920 2008 2052 2200 hborder 0
               1080 1112 1160 1800 vborder 0
               +hsync -vsync 
               VertFreq: 144 Hz, HorFreq: 259200 Hz
Detailed mode: Clock 591.690 MHz, 597 mm x 336 mm
               1920 2008 2052 2200 hborder 0
               1080 1112 1160 1630 vborder 0
               +hsync -vsync 
               VertFreq: 165 Hz, HorFreq: 268950 Hz
Detailed mode: Clock 594.000 MHz, 597 mm x 336 mm
               1920 2008 2052 2200 hborder 0
               1080 1112 1160 2250 vborder 0
               +hsync -vsync 
               VertFreq: 120 Hz, HorFreq: 270000 Hz
Detailed mode: Clock 594.000 MHz, 597 mm x 336 mm
               1920 2008 2052 2200 hborder 0
               1080 1084 1089 1125 vborder 0
               +hsync +vsync 
               VertFreq: 240 Hz, HorFreq: 270000 Hz
Checksum: 0x52 (valid)

Warning: One or more of the timings is out of range of the Monitor Ranges:
  Vertical Freq: 50 - 240 Hz
  Horizontal Freq: 28125 - 270000 Hz
  Maximum Clock: 594.000 MHz
EDID block does not conform at all!
	Both the serial number and the serial string are set


