
EDID (hex):
00ffffffffffff004ca3413700000000
00110103801d12780a81c59457528a27
20505400000001010101010101010101
010101010101bc1b00a0502017303020
36001eb3100000190000000f00000000
00000000002387026400000000fe0053
414d53554e470a2020202020000000fe
004c544e3133334154303730303100ae

Extracted contents:
header:          00 ff ff ff ff ff ff 00
serial number:   4c a3 41 37 00 00 00 00 00 11
version:         01 03
basic params:    80 1d 12 78 0a
chroma info:     81 c5 94 57 52 8a 27 20 50 54
established:     00 00 00
standard:        01 01 01 01 01 01 01 01 01 01 01 01 01 01 01 01
descriptor 1:    bc 1b 00 a0 50 20 17 30 30 20 36 00 1e b3 10 00 00 19
descriptor 2:    00 00 00 0f 00 00 00 00 00 00 00 00 00 23 87 02 64 00
descriptor 3:    00 00 00 fe 00 53 41 4d 53 55 4e 47 0a 20 20 20 20 20
descriptor 4:    00 00 00 fe 00 4c 54 4e 31 33 33 41 54 30 37 30 30 31
extensions:      00
checksum:        ae

EDID version: 1.3
Manufacturer: SEC Model 3741 Serial Number --
Made in year 2007
Digital display
Maximum image size: 29 cm x 18 cm
Gamma: 2.20
RGB color display
First detailed timing is preferred timing
Display x,y Chromaticity:
  Red:   0.5800, 0.3398
  Green: 0.3203, 0.5400
  Blue:  0.1552, 0.1250
  White: 0.3134, 0.3291
Established timings supported:
Standard timings supported:
Detailed mode: Clock 71.000 MHz, 286 mm x 179 mm
               1280 1328 1360 1440 hborder 0
                800  803  809  823 vborder 0
               -hsync -vsync 
               VertFreq: 59 Hz, HorFreq: 49305 Hz
Manufacturer-specified data, tag 15
ASCII string: SAMSUNG
ASCII string: LTN133AT07001
Checksum: 0xae (valid)
EDID block does NOT conform to EDID 1.3!
	Missing name descriptor
	Missing monitor ranges
