
EDID (hex):
00ffffffffffff0030e4490500000000
001a0104a51d1178022f22a051479c27
0b4d5100000001010101010101010101
0101010101012e3680a070381f403020
350026a5100000190000000000000000
00000000000000000000000000fe004c
4720446973706c61790a2020000000fe
004c503133335746342d535043310018

Extracted contents:
header:          00 ff ff ff ff ff ff 00
serial number:   30 e4 49 05 00 00 00 00 00 1a
version:         01 04
basic params:    a5 1d 11 78 02
chroma info:     2f 22 a0 51 47 9c 27 0b 4d 51
established:     00 00 00
standard:        01 01 01 01 01 01 01 01 01 01 01 01 01 01 01 01
descriptor 1:    2e 36 80 a0 70 38 1f 40 30 20 35 00 26 a5 10 00 00 19
descriptor 2:    00 00 00 00 00 00 00 00 00 00 00 00 00 00 00 00 00 00
descriptor 3:    00 00 00 fe 00 4c 47 20 44 69 73 70 6c 61 79 0a 20 20
descriptor 4:    00 00 00 fe 00 4c 50 31 33 33 57 46 34 2d 53 50 43 31
extensions:      00
checksum:        18

EDID version: 1.4
Manufacturer: LGD Model 549 Serial Number --
Made in year 2016
Digital display
8 bits per primary color channel
DisplayPort interface
Maximum image size: 29 cm x 17 cm
Gamma: 2.20
Supported color formats: RGB 4:4:4
First detailed timing includes the native pixel format and preferred refresh rate
Display x,y Chromaticity:
  Red:   0.6250, 0.3183
  Green: 0.2802, 0.6123
  Blue:  0.1523, 0.0449
  White: 0.3007, 0.3183
Established timings supported:
Standard timings supported:
Detailed mode: Clock 138.700 MHz, 294 mm x 165 mm
               1920 1968 2000 2080 hborder 0
               1080 1083 1088 1111 vborder 0
               -hsync -vsync 
               VertFreq: 60 Hz, HorFreq: 66682 Hz
Manufacturer-specified data, tag 0
ASCII string: LG Display
ASCII string: LP133WF4-SPC1
Checksum: 0x18 (valid)
EDID block does NOT conform to EDID 1.4!
	Missing name descriptor
	Missing monitor ranges
