edid-decode (hex):

00 ff ff ff ff ff ff 00 09 e5 ec 0c 6d 00 00 00
0f 22 01 04 a5 26 15 78 07 ce d1 a5 54 4b 9e 26
0d 50 54 00 00 00 01 01 01 01 01 01 01 01 01 01
01 01 01 01 01 01 23 3a 80 c8 70 38 5a 40 30 20
65 00 7e d7 10 00 00 1a 00 00 00 fd 00 30 a5 c1
c1 29 01 0a 20 20 20 20 20 20 00 00 00 fe 00 42
4f 45 20 43 51 0a 20 20 20 20 20 20 00 00 00 fc
00 4e 45 31 37 33 46 48 4d 2d 4e 59 33 0a 01 ea

70 20 79 02 00 22 00 14 b1 3e 06 84 7f 07 c7 00
2f 00 1f 00 37 04 59 00 05 00 04 00 25 00 09 b1
3e 06 b1 3e 06 30 a5 80 2b 00 0c 27 00 3c a4 00
00 27 00 30 3b 00 00 81 00 15 74 1a 00 00 03 51
30 a5 00 00 53 51 53 51 a5 00 00 00 00 8d 00 21
00 1d eb 0e 64 08 80 07 38 04 88 5a fa 53 bc 74
9e 6a 42 0d 02 35 54 b0 5c b0 5c cd 34 12 78 2e
00 06 00 42 b0 5c b0 5c 00 00 00 00 00 00 a2 90

00 ff ff ff ff ff ff 00 09 e5 ec 0c 6d 00 00 00
0f 22 01 04 a5 26 15 78 07 ce d1 a5 54 4b 9e 26
0d 50 54 00 00 00 01 01 01 01 01 01 01 01 01 01
01 01 01 01 01 01 23 3a 80 c8 70 38 5a 40 30 20
65 00 7e d7 10 00 00 1a 00 00 00 fd 00 30 a5 c1
c1 29 01 0a 20 20 20 20 20 20 00 00 00 fe 00 42
4f 45 20 43 51 0a 20 20 20 20 20 20 00 00 00 fc
00 4e 45 31 37 33 46 48 4d 2d 4e 59 33 0a 01 ea

70 20 79 02 00 22 00 14 b1 3e 06 84 7f 07 c7 00
2f 00 1f 00 37 04 59 00 05 00 04 00 25 00 09 b1
3e 06 b1 3e 06 30 a5 80 2b 00 0c 27 00 3c a4 00
00 27 00 30 3b 00 00 81 00 15 74 1a 00 00 03 51
30 a5 00 00 53 51 53 51 a5 00 00 00 00 8d 00 21
00 1d eb 0e 64 08 80 07 38 04 88 5a fa 53 bc 74
9e 6a 42 0d 02 35 54 b0 5c b0 5c cd 34 12 78 2e
00 06 00 42 b0 5c b0 5c 00 00 00 00 00 00 a2 90

----------------

Block 0, Base EDID:
  EDID Structure Version & Revision: 1.4
  Vendor & Product Identification:
    Manufacturer: BOE
    Model: 3308
    Serial Number: ...
    Made in: week 15 of 2024
  Basic Display Parameters & Features:
    Digital display
    Bits per primary color channel: 8
    DisplayPort interface
    Maximum image size: 38 cm x 21 cm
    Gamma: 2.20
    Supported color formats: RGB 4:4:4
    Default (sRGB) color space is primary color space
    First detailed timing includes the native pixel format and preferred refresh rate
    Display is continuous frequency
  Color Characteristics:
    Red  : 0.6474, 0.3281
    Green: 0.2958, 0.6191
    Blue : 0.1513, 0.0517
    White: 0.3125, 0.3291
  Established Timings I & II: none
  Standard Timings: none
  Detailed Timing Descriptors:
    DTD 1:  1920x1080   60.002419 Hz  16:9     70.203 kHz    148.830000 MHz (382 mm x 215 mm)
                 Hfront   48 Hsync  32 Hback  120 Hpol P
                 Vfront    6 Vsync   5 Vback   79 Vpol N
    Display Range Limits:
      Monitor ranges (Bare Limits): 48-165 Hz V, 193-193 kHz H, max dotclock 410 MHz
    Alphanumeric Data String: 'BOE CQ'
    Display Product Name: 'NE173FHM-NY3'
  Extension blocks: 1
Checksum: 0xea

----------------

Block 1, DisplayID Extension Block:
  Version: 2.0
  Extension Count: 0
  Display Product Primary Use Case: None of the listed primary use cases; generic display
  Video Timing Modes Type 7 - Detailed Timings Data Block:
    DTD:  1920x1080  165.000000 Hz  16:9    193.050 kHz    409.266000 MHz (aspect 16:9, no 3D stereo, preferred)
               Hfront   48 Hsync  32 Hback  120 Hpol N
               Vfront    6 Vsync   5 Vback   79 Vpol N
  Dynamic Video Timing Range Limits Data Block:
    Minimum Pixel Clock: 409266 kHz
    Maximum Pixel Clock: 409266 kHz
    Minimum Vertical Refresh Rate: 48 Hz
    Maximum Vertical Refresh Rate: 165 Hz
    Seamless Dynamic Video Timing Support: Yes
  Adaptive Sync Data Block:
    Descriptor #1:
      Native Panel Range
      Fixed Average V-Total and Adaptive V-Total
      'Max Single Frame Duration Increase' field value without jitter impact
      'Max Single Frame Duration Decrease' field value without jitter impact
      Max Duration Increase: 0.00 ms
      Max Duration Decrease: 0.00 ms
      Min Refresh Rate: 60 Hz
      Max Refresh Rate: 165 Hz
    Descriptor #2:
      Native Panel Range
      Fixed Average V-Total and Adaptive V-Total
      'Max Single Frame Duration Increase' field value without jitter impact
      'Max Single Frame Duration Decrease' field value without jitter impact
      Max Duration Increase: 0.00 ms
      Max Duration Decrease: 0.00 ms
      Min Refresh Rate: 48 Hz
      Max Refresh Rate: 60 Hz
  CTA-861 DisplayID Data Block:
  Vendor-Specific Data Block (AMD), OUI 00-00-1A:
    Version: 3.81
    Minimum Refresh Rate: 48 Hz
    Maximum Refresh Rate: 165 Hz
    Flags 1.x: 0x00
    Flags 2.x: 0x00
    Maximum luminance: 83 (301.833 cd/m^2)
    Minimum luminance: 81 (0.305 cd/m^2)
    Unknown: 0x53 0x51
  Display Parameters Data Block (0x21):
    Image size: 381.9 mm x 214.8 mm
    Display native pixel format: 1920x1080
    Scan Orientation: Left to Right, Top to Bottom
    Luminance Information: Guidance for the Source device
    Color Information: CIE 1931
    Audio Speaker Information: not integrated
    Native Color Chromaticity:
      Primary #1:  (0.646973, 0.327881)
      Primary #2:  (0.295898, 0.618896)
      Primary #3:  (0.150879, 0.051758)
      White Point: (0.312988, 0.328857)
    Native Maximum Luminance (Full Coverage): 300.000000 cd/m^2
    Native Maximum Luminance (10% Rectangular Coverage): 300.000000 cd/m^2
    Native Minimum Luminance: 0.300049 cd/m^2
    Native Color Depth: 10 bpc
    Display Device Technology: Active Matrix LCD
    Native Gamma EOTF: 2.20
  Unknown DisplayID Data Block (0x2e, length 6):
    00 42 b0 5c b0 5c                               '.B.\.\'
  Checksum: 0xa2
Checksum: 0x90

----------------

Block 2, Unknown EDID Extension Block 0x00:
  00 ff ff ff ff ff ff 00 09 e5 ec 0c 6d 00 00 00 '............m...'
  0f 22 01 04 a5 26 15 78 07 ce d1 a5 54 4b 9e 26 '."...&.x....TK.&'
  0d 50 54 00 00 00 01 01 01 01 01 01 01 01 01 01 '.PT.............'
  01 01 01 01 01 01 23 3a 80 c8 70 38 5a 40 30 20 '......#:..p8Z@0 '
  65 00 7e d7 10 00 00 1a 00 00 00 fd 00 30 a5 c1 'e.~..........0..'
  c1 29 01 0a 20 20 20 20 20 20 00 00 00 fe 00 42 '.)..      .....B'
  4f 45 20 43 51 0a 20 20 20 20 20 20 00 00 00 fc 'OE CQ.      ....'
  00 4e 45 31 37 33 46 48 4d 2d 4e 59 33 0a 01 ea '.NE173FHM-NY3...'
Checksum: 0xea

----------------

Block 3, DisplayID Extension Block:
  Version: 2.0
  Extension Count: 0
  Video Timing Modes Type 7 - Detailed Timings Data Block:
    DTD:  1920x1080  165.000000 Hz  16:9    193.050 kHz    409.266000 MHz (aspect 16:9, no 3D stereo, preferred)
               Hfront   48 Hsync  32 Hback  120 Hpol N
               Vfront    6 Vsync   5 Vback   79 Vpol N
  Dynamic Video Timing Range Limits Data Block:
    Minimum Pixel Clock: 409266 kHz
    Maximum Pixel Clock: 409266 kHz
    Minimum Vertical Refresh Rate: 48 Hz
    Maximum Vertical Refresh Rate: 165 Hz
    Seamless Dynamic Video Timing Support: Yes
  Adaptive Sync Data Block:
    Descriptor #1:
      Native Panel Range
      Fixed Average V-Total and Adaptive V-Total
      'Max Single Frame Duration Increase' field value without jitter impact
      'Max Single Frame Duration Decrease' field value without jitter impact
      Max Duration Increase: 0.00 ms
      Max Duration Decrease: 0.00 ms
      Min Refresh Rate: 60 Hz
      Max Refresh Rate: 165 Hz
    Descriptor #2:
      Native Panel Range
      Fixed Average V-Total and Adaptive V-Total
      'Max Single Frame Duration Increase' field value without jitter impact
      'Max Single Frame Duration Decrease' field value without jitter impact
      Max Duration Increase: 0.00 ms
      Max Duration Decrease: 0.00 ms
      Min Refresh Rate: 48 Hz
      Max Refresh Rate: 60 Hz
  CTA-861 DisplayID Data Block:
  Vendor-Specific Data Block (AMD), OUI 00-00-1A:
    Version: 3.81
    Minimum Refresh Rate: 48 Hz
    Maximum Refresh Rate: 165 Hz
    Flags 1.x: 0x00
    Flags 2.x: 0x00
    Maximum luminance: 83 (301.833 cd/m^2)
    Minimum luminance: 81 (0.305 cd/m^2)
    Unknown: 0x53 0x51
  Display Parameters Data Block (0x21):
    Image size: 381.9 mm x 214.8 mm
    Display native pixel format: 1920x1080
    Scan Orientation: Left to Right, Top to Bottom
    Luminance Information: Guidance for the Source device
    Color Information: CIE 1931
    Audio Speaker Information: not integrated
    Native Color Chromaticity:
      Primary #1:  (0.646973, 0.327881)
      Primary #2:  (0.295898, 0.618896)
      Primary #3:  (0.150879, 0.051758)
      White Point: (0.312988, 0.328857)
    Native Maximum Luminance (Full Coverage): 300.000000 cd/m^2
    Native Maximum Luminance (10% Rectangular Coverage): 300.000000 cd/m^2
    Native Minimum Luminance: 0.300049 cd/m^2
    Native Color Depth: 10 bpc
    Display Device Technology: Active Matrix LCD
    Native Gamma EOTF: 2.20
  Unknown DisplayID Data Block (0x2e, length 6):
    00 42 b0 5c b0 5c                               '.B.\.\'
  Checksum: 0xa2
Checksum: 0x90

----------------

Warnings:

EDID:
  Base EDID: Some timings are out of range of the Monitor Ranges:
    Horizontal Freq: 70.202 - 193.050 kHz (Monitor: 193.000 - 193.000 kHz)

Failures:

Block 0, Base EDID:
  Basic Display Parameters & Features: sRGB is signaled, but the chromaticities do not match.
Block 1, DisplayID Extension Block:
  Expected 0 DisplayID Extension Block, but got 1.
Block 2, Base EDID:
  Unknown Extension Block.
Block 3, DisplayID Extension Block:
  Product Type should be 0 in extension block.
  Display Parameters Data Block (0x21): Duplicate Display Parameters Data Block.
EDID:
  Base EDID: EDID specified 1 extension block(s), but found 3 extension block(s).
  DisplayID: Missing DisplayID Product Identification Data Block.
  DisplayID: Missing DisplayID Display Interface Features Data Block.

EDID conformity: FAIL
