
EDID (hex):
00ffffffffffff004d79020101010101
011a01031f5932780aee9fa3544c9926
0f474ca7cf0031404540614081008180
d1c001010101662150b051001b304070
360075f23100001e0e1f008051001e30
4080370075f23100001e000000fc0054
562d6d6f6e69746f720a2020000000fd
0031500f5012000a2020202020200003

Extracted contents:
header:          00 ff ff ff ff ff ff 00
serial number:   4d 79 02 01 01 01 01 01 01 1a
version:         01 03
basic params:    1f 59 32 78 0a
chroma info:     ee 9f a3 54 4c 99 26 0f 47 4c
established:     a7 cf 00
standard:        31 40 45 40 61 40 81 00 81 80 d1 c0 01 01 01 01
descriptor 1:    66 21 50 b0 51 00 1b 30 40 70 36 00 75 f2 31 00 00 1e
descriptor 2:    0e 1f 00 80 51 00 1e 30 40 80 37 00 75 f2 31 00 00 1e
descriptor 3:    00 00 00 fc 00 54 56 2d 6d 6f 6e 69 74 6f 72 0a 20 20
descriptor 4:    00 00 00 fd 00 31 50 0f 50 12 00 0a 20 20 20 20 20 20
extensions:      00
checksum:        03

EDID version: 1.3
Manufacturer: SKY Model 102 Serial Number --
Made in week 1 of 2016
Analog display, Input voltage level: 0.7/0.3 V
Configurable signal levels
Sync: Separate Composite SyncOnGreen Serration 
Maximum image size: 89 cm x 50 cm
Gamma: 2.20
RGB color display
First detailed timing is preferred timing
Display x,y Chromaticity:
  Red:   0.6396, 0.3300
  Green: 0.2998, 0.5996
  Blue:  0.1503, 0.0595
  White: 0.2802, 0.2998
Established timings supported:
  720x400@70Hz 9:5 HorFreq: 31469 Hz Clock: 28.320 MHz
  640x480@60Hz 4:3 HorFreq: 31469 Hz Clock: 25.175 MHz
  640x480@75Hz 4:3 HorFreq: 37500 Hz Clock: 31.500 MHz
  800x600@56Hz 4:3 HorFreq: 35200 Hz Clock: 36.000 MHz
  800x600@60Hz 4:3 HorFreq: 37900 Hz Clock: 40.000 MHz
  800x600@72Hz 4:3 HorFreq: 48100 Hz Clock: 50.000 MHz
  800x600@75Hz 4:3 HorFreq: 46900 Hz Clock: 49.500 MHz
  1024x768@60Hz 4:3 HorFreq: 48400 Hz Clock: 65.000 MHz
  1024x768@70Hz 4:3 HorFreq: 56500 Hz Clock: 75.000 MHz
  1024x768@75Hz 4:3 HorFreq: 60000 Hz Clock: 78.750 MHz
  1280x1024@75Hz 5:4 HorFreq: 80000 Hz Clock: 135.000 MHz
Standard timings supported:
  640x480@60Hz 4:3 HorFreq: 31469 Hz Clock: 25.175 MHz
  800x600@60Hz 4:3 HorFreq: 37900 Hz Clock: 40.000 MHz
  1024x768@60Hz 4:3 HorFreq: 48400 Hz Clock: 65.000 MHz
  1280x800@60Hz 16:10
  1280x1024@60Hz 5:4 HorFreq: 64000 Hz Clock: 108.000 MHz
  1920x1080@60Hz 16:9
Detailed mode: Clock 85.500 MHz, 885 mm x 498 mm
               1360 1424 1536 1792 hborder 0
                768  771  777  795 vborder 0
               +hsync +vsync 
               VertFreq: 60 Hz, HorFreq: 47712 Hz
Detailed mode: Clock 79.500 MHz, 885 mm x 498 mm
               1280 1344 1472 1664 hborder 0
                768  771  778  798 vborder 0
               +hsync +vsync 
               VertFreq: 59 Hz, HorFreq: 47776 Hz
Monitor name: TV-monitor
Monitor ranges (GTF): 49-80Hz V, 15-80kHz H, max dotclock 180MHz
Checksum: 0x3 (valid)
