
EDID (hex):
00ffffffffffff002163229100000000
00200104a5201578036988a4554d9b25
0e515500000001010101010101010101
0101010101015ad900c8a04050603020
a5003ccb1000001a5ad900c8a040e066
3020a5003ccb1000001a000000fd0030
78c8c837010a202020202020000000fe
004d423134354c5330312d32202000a5

edid-decode (hex):

00 ff ff ff ff ff ff 00 21 63 22 91 00 00 00 00
00 20 01 04 a5 20 15 78 03 69 88 a4 55 4d 9b 25
0e 51 55 00 00 00 01 01 01 01 01 01 01 01 01 01
01 01 01 01 01 01 5a d9 00 c8 a0 40 50 60 30 20
a5 00 3c cb 10 00 00 1a 5a d9 00 c8 a0 40 e0 66
30 20 a5 00 3c cb 10 00 00 1a 00 00 00 fd 00 30
78 c8 c8 37 01 0a 20 20 20 20 20 20 00 00 00 fe
00 4d 42 31 34 35 4c 53 30 31 2d 32 20 20 00 a5

----------------

Block 0, Base EDID:
  EDID Structure Version & Revision: 1.4
  Vendor & Product Identification:
    Manufacturer: HKC
    Model: 37154
    Made in: 2022
  Basic Display Parameters & Features:
    Digital display
    Bits per primary color channel: 8
    DisplayPort interface
    Maximum image size: 32 cm x 21 cm
    Gamma: 2.20
    Supported color formats: RGB 4:4:4
    First detailed timing includes the native pixel format and preferred refresh rate
    Display is continuous frequency
  Color Characteristics:
    Red  : 0.6416, 0.3339
    Green: 0.3027, 0.6064
    Blue : 0.1464, 0.0546
    White: 0.3183, 0.3320
  Established Timings I & II: none
  Standard Timings: none
  Detailed Timing Descriptors:
    DTD 1:  2560x1600  120.000863 Hz  16:10   201.601 kHz    556.420000 MHz (316 mm x 203 mm)
                 Hfront   48 Hsync  32 Hback  120 Hpol P
                 Vfront   10 Vsync   5 Vback   65 Vpol N
    DTD 2:  2560x1600   60.000431 Hz  16:10   201.601 kHz    556.420000 MHz (316 mm x 203 mm)
                 Hfront   48 Hsync  32 Hback  120 Hpol P
                 Vfront   10 Vsync   5 Vback 1745 Vpol N
    Display Range Limits:
      Monitor ranges (Bare Limits): 48-120 Hz V, 200-200 kHz H, max dotclock 550 MHz
    Alphanumeric Data String: 'MB145LS01-2  '
Checksum: 0xa5
