edid-decode (hex):

00 ff ff ff ff ff ff 00 21 63 22 91 00 00 00 00
00 20 01 04 a5 20 15 78 03 69 88 a4 55 4d 9b 25
0e 51 55 00 00 00 01 01 01 01 01 01 01 01 01 01
01 01 01 01 01 01 5a d9 00 c8 a0 40 50 60 30 20
a5 00 3c cb 10 00 00 1a 5a d9 00 c8 a0 40 e0 66
30 20 a5 00 3c cb 10 00 00 1a 00 00 00 fd 00 30
78 c8 c8 37 01 0a 20 20 20 20 20 20 00 00 00 fe
00 4d 42 31 34 35 4c 53 30 31 2d 32 20 20 00 a5

00 ff ff ff ff ff ff 00 21 63 22 91 00 00 00 00
00 20 01 04 a5 20 15 78 03 69 88 a4 55 4d 9b 25
0e 51 55 00 00 00 01 01 01 01 01 01 01 01 01 01
01 01 01 01 01 01 5a d9 00 c8 a0 40 50 60 30 20
a5 00 3c cb 10 00 00 1a 5a d9 00 c8 a0 40 e0 66
30 20 a5 00 3c cb 10 00 00 1a 00 00 00 fd 00 30
78 c8 c8 37 01 0a 20 20 20 20 20 20 00 00 00 fe
00 4d 42 31 34 35 4c 53 30 31 2d 32 20 20 00 a5

----------------

Block 0, Base EDID:
  EDID Structure Version & Revision: 1.4
  Vendor & Product Identification:
    Manufacturer: HKC
    Model: 37154
    Made in: 2022
  Basic Display Parameters & Features:
    Digital display
    Bits per primary color channel: 8
    DisplayPort interface
    Maximum image size: 32 cm x 21 cm
    Gamma: 2.20
    Supported color formats: RGB 4:4:4
    First detailed timing includes the native pixel format and preferred refresh rate
    Display is continuous frequency
  Color Characteristics:
    Red  : 0.6416, 0.3339
    Green: 0.3027, 0.6064
    Blue : 0.1464, 0.0546
    White: 0.3183, 0.3320
  Established Timings I & II: none
  Standard Timings: none
  Detailed Timing Descriptors:
    DTD 1:  2560x1600  120.000863 Hz  16:10   201.601 kHz    556.420000 MHz (316 mm x 203 mm)
                 Hfront   48 Hsync  32 Hback  120 Hpol P
                 Vfront   10 Vsync   5 Vback   65 Vpol N
    DTD 2:  2560x1600   60.000431 Hz  16:10   201.601 kHz    556.420000 MHz (316 mm x 203 mm)
                 Hfront   48 Hsync  32 Hback  120 Hpol P
                 Vfront   10 Vsync   5 Vback 1745 Vpol N
    Display Range Limits:
      Monitor ranges (Bare Limits): 48-120 Hz V, 200-200 kHz H, max dotclock 550 MHz
    Alphanumeric Data String: 'MB145LS01-2  '
Checksum: 0xa5

----------------

Block 1, Unknown EDID Extension Block 0x00:
  00 ff ff ff ff ff ff 00 21 63 22 91 00 00 00 00 '........!c".....'
  00 20 01 04 a5 20 15 78 03 69 88 a4 55 4d 9b 25 '. ... .x.i..UM.%'
  0e 51 55 00 00 00 01 01 01 01 01 01 01 01 01 01 '.QU.............'
  01 01 01 01 01 01 5a d9 00 c8 a0 40 50 60 30 20 '......Z....@P`0 '
  a5 00 3c cb 10 00 00 1a 5a d9 00 c8 a0 40 e0 66 '..<.....Z....@.f'
  30 20 a5 00 3c cb 10 00 00 1a 00 00 00 fd 00 30 '0 ..<..........0'
  78 c8 c8 37 01 0a 20 20 20 20 20 20 00 00 00 fe 'x..7..      ....'
  00 4d 42 31 34 35 4c 53 30 31 2d 32 20 20 00 a5 '.MB145LS01-2  ..'
Checksum: 0xa5

----------------

Warnings:

Block 0, Base EDID:
  Missing Display Product Name.
EDID:
  Base EDID: Some timings are out of range of the Monitor Ranges:
    Horizontal Freq: 201.601 - 201.601 kHz (Monitor: 200.000 - 200.000 kHz)
    Maximum Clock: 556.420 MHz (Monitor: 550.000 MHz)

Failures:

Block 0, Base EDID:
  Alphanumeric Data String: One or more trailing spaces.
Block 1, Base EDID:
  Unknown Extension Block.
EDID:
  Base EDID: EDID specified 0 extension block(s), but found 1 extension block(s).

EDID conformity: FAIL
