
EDID (hex):
00ffffffffffff0030e44c0500000000
001a0104951c1078027485975b558f27
1c505400000001010101010101010101
0101010101012e3680a070381f403020
3500149c1000001a0000000000000000
00000000000000000000000000fe004c
4720446973706c61790a2020000000fe
004c503132355746342d53504831007a

Extracted contents:
header:          00 ff ff ff ff ff ff 00
serial number:   30 e4 4c 05 00 00 00 00 00 1a
version:         01 04
basic params:    95 1c 10 78 02
chroma info:     74 85 97 5b 55 8f 27 1c 50 54
established:     00 00 00
standard:        01 01 01 01 01 01 01 01 01 01 01 01 01 01 01 01
descriptor 1:    2e 36 80 a0 70 38 1f 40 30 20 35 00 14 9c 10 00 00 1a
descriptor 2:    00 00 00 00 00 00 00 00 00 00 00 00 00 00 00 00 00 00
descriptor 3:    00 00 00 fe 00 4c 47 20 44 69 73 70 6c 61 79 0a 20 20
descriptor 4:    00 00 00 fe 00 4c 50 31 32 35 57 46 34 2d 53 50 48 31
extensions:      00
checksum:        7a

EDID version: 1.4
Manufacturer: LGD Model 54c Serial Number --
Made in year 2016
Digital display
6 bits per primary color channel
DisplayPort interface
Maximum image size: 28 cm x 16 cm
Gamma: 2.20
Supported color formats: RGB 4:4:4
First detailed timing includes the native pixel format and preferred refresh rate
Display x,y Chromaticity:
  Red:   0.5908, 0.3583
  Green: 0.3330, 0.5585
  Blue:  0.1542, 0.1093
  White: 0.3134, 0.3291
Established timings supported:
Standard timings supported:
Detailed mode: Clock 138.700 MHz, 276 mm x 156 mm
               1920 1968 2000 2080 hborder 0
               1080 1083 1088 1111 vborder 0
               +hsync -vsync 
               VertFreq: 60 Hz, HorFreq: 66682 Hz
Manufacturer-specified data, tag 0
ASCII string: LG Display
ASCII string: LP125WF4-SPH1
Checksum: 0x7a (valid)
EDID block does NOT conform to EDID 1.4!
	Missing name descriptor
	Missing monitor ranges
