
EDID (hex):
00ffffffffffff004c83494400000000
00190104a51c10780a36259356559329
1d505400000001010101010101010101
010101010101623980dc703840403020
2500149b10000019412680dc70384040
30202500149b10000019000000000000
00000000000000000000000000000002
000c33ff0a3c96142820960000000061

Extracted contents:
header:          00 ff ff ff ff ff ff 00
serial number:   4c 83 49 44 00 00 00 00 00 19
version:         01 04
basic params:    a5 1c 10 78 0a
chroma info:     36 25 93 56 55 93 29 1d 50 54
established:     00 00 00
standard:        01 01 01 01 01 01 01 01 01 01 01 01 01 01 01 01
descriptor 1:    62 39 80 dc 70 38 40 40 30 20 25 00 14 9b 10 00 00 19
descriptor 2:    41 26 80 dc 70 38 40 40 30 20 25 00 14 9b 10 00 00 19
descriptor 3:    00 00 00 00 00 00 00 00 00 00 00 00 00 00 00 00 00 00
descriptor 4:    00 00 00 02 00 0c 33 ff 0a 3c 96 14 28 20 96 00 00 00
extensions:      00
checksum:        61

EDID version: 1.4
Manufacturer: SDC Model 4449 Serial Number --
Made in year 2015
Digital display
8 bits per primary color channel
DisplayPort interface
Maximum image size: 28 cm x 16 cm
Gamma: 2.20
Supported color formats: RGB 4:4:4, YCrCb 4:4:4
First detailed timing includes the native pixel format and preferred refresh rate
Display x,y Chromaticity:
  Red:   0.5742, 0.3388
  Green: 0.3330, 0.5761
  Blue:  0.1601, 0.1152
  White: 0.3134, 0.3291
Established timings supported:
Standard timings supported:
Detailed mode: Clock 146.900 MHz, 276 mm x 155 mm
               1920 1968 2000 2140 hborder 0
               1080 1082 1087 1144 vborder 0
               -hsync -vsync 
               VertFreq: 60 Hz, HorFreq: 68644 Hz
Detailed mode: Clock 97.930 MHz, 276 mm x 155 mm
               1920 1968 2000 2140 hborder 0
               1080 1082 1087 1144 vborder 0
               -hsync -vsync 
               VertFreq: 40 Hz, HorFreq: 45761 Hz
Manufacturer-specified data, tag 0
Manufacturer-specified data, tag 2
Checksum: 0x61 (valid)
EDID block does NOT conform to EDID 1.4!
	Missing name descriptor
	Missing monitor ranges
