
EDID (hex):
00ffffffffffff0022701900eb010000
0f14010368361e782a8215a4564f9d24
12505421080081c08140818095000101
0101010101011a3680a070381f403020
25001f312100001a000000ff00303135
464c3236593030343931000000fc0048
5347313037340a2020202020000000fd
003b3d1f500e000a202020202020005d

edid-decode (hex):

00 ff ff ff ff ff ff 00 22 70 19 00 eb 01 00 00
0f 14 01 03 68 36 1e 78 2a 82 15 a4 56 4f 9d 24
12 50 54 21 08 00 81 c0 81 40 81 80 95 00 01 01
01 01 01 01 01 01 1a 36 80 a0 70 38 1f 40 30 20
25 00 1f 31 21 00 00 1a 00 00 00 ff 00 30 31 35
46 4c 32 36 59 30 30 34 39 31 00 00 00 fc 00 48
53 47 31 30 37 34 0a 20 20 20 20 20 00 00 00 fd
00 3b 3d 1f 50 0e 00 0a 20 20 20 20 20 20 00 5d

----------------

Block 0, Base EDID:
  EDID Structure Version & Revision: 1.3
  Vendor & Product Identification:
    Manufacturer: HSP
    Model: 25
    Serial Number: 491
    Made in: week 15 of 2010
  Basic Display Parameters & Features:
    Analog display
    Signal Level Standard: 0.700 : 0.000 : 0.700 V p-p
    Blank level equals black level
    Sync: Separate
    Maximum image size: 54 cm x 30 cm
    Gamma: 2.20
    DPMS levels: Off
    RGB color display
    First detailed timing is the preferred timing
  Color Characteristics:
    Red  : 0.6425, 0.3359
    Green: 0.3085, 0.6152
    Blue : 0.1406, 0.0712
    White: 0.3134, 0.3291
  Established Timings I & II:
    DMT 0x04:   640x480    59.940476 Hz   4:3     31.469 kHz     25.175000 MHz
    DMT 0x09:   800x600    60.316541 Hz   4:3     37.879 kHz     40.000000 MHz
    DMT 0x10:  1024x768    60.003840 Hz   4:3     48.363 kHz     65.000000 MHz
  Standard Timings:
    DMT 0x55:  1280x720    60.000000 Hz  16:9     45.000 kHz     74.250000 MHz
    DMT 0x20:  1280x960    60.000000 Hz   4:3     60.000 kHz    108.000000 MHz
    DMT 0x23:  1280x1024   60.019740 Hz   5:4     63.981 kHz    108.000000 MHz
    DMT 0x2f:  1440x900    59.887445 Hz  16:10    55.935 kHz    106.500000 MHz
  Detailed Timing Descriptors:
    DTD 1:  1920x1080   59.933878 Hz  16:9     66.587 kHz    138.500000 MHz (543 mm x 305 mm)
                 Hfront   48 Hsync  32 Hback   80 Hpol P
                 Vfront    2 Vsync   5 Vback   24 Vpol N
    Display Product Serial Number: '015FL26Y00491'
    Display Product Name: 'HSG1074'
    Display Range Limits:
      Monitor ranges (GTF): 59-61 Hz V, 31-80 kHz H, max dotclock 140 MHz
Checksum: 0x5d


