edid-decode (hex):

00 ff ff ff ff ff ff 00 09 e5 ea 07 00 00 00 00
03 1c 01 04 95 1d 11 78 02 10 90 95 5d 5a 93 29
1f 50 54 00 00 00 01 01 01 01 01 01 01 01 01 01
01 01 01 01 01 01 ce 1d 56 e2 50 00 1e 30 30 20
36 00 26 a5 10 00 00 1a d4 17 56 e2 50 00 1e 30
30 20 36 00 26 a5 10 00 00 1a 00 00 00 fe 00 59
54 58 4a 4b 80 4e 54 31 33 57 48 4d 00 00 00 00
00 00 41 21 96 00 10 00 00 09 01 0a 20 20 00 6d

----------------

Block 0, Base EDID:
  EDID Structure Version & Revision: 1.4
  Vendor & Product Identification:
    Manufacturer: BOE
    Model: 2026
    Made in: week 3 of 2018
  Basic Display Parameters & Features:
    Digital display
    Bits per primary color channel: 6
    DisplayPort interface
    Maximum image size: 29 cm x 17 cm
    Gamma: 2.20
    Supported color formats: RGB 4:4:4
    First detailed timing includes the native pixel format and preferred refresh rate
  Color Characteristics:
    Red  : 0.5820, 0.3642
    Green: 0.3515, 0.5742
    Blue : 0.1621, 0.1220
    White: 0.3125, 0.3281
  Established Timings I & II: none
  Standard Timings: none
  Detailed Timing Descriptors:
    DTD 1:  1366x768    60.059 Hz 683:384  47.927 kHz  76.300 MHz (294 mm x 165 mm)
                 Hfront   48 Hsync  32 Hback 146 Hpol P
                 Vfront    3 Vsync   6 Vback  21 Vpol N
    DTD 2:  1366x768    48.016 Hz 683:384  38.317 kHz  61.000 MHz (294 mm x 165 mm)
                 Hfront   48 Hsync  32 Hback 146 Hpol P
                 Vfront    3 Vsync   6 Vback  21 Vpol N
    Alphanumeric Data String: 'YTXJK'
    Manufacturer-Specified Display Descriptor (0x00): 00 00 00 00 41 21 96 00 10 00 00 09 01 0a 20 20 '....A!........  '
Checksum: 0x6d

----------------

Failures:

Block 0, Base EDID:
  Alphanumeric Data String: Non-printable character.
  Missing Display Product Name.

EDID conformity: FAIL
