edid-decode (hex):

00 ff ff ff ff ff ff 00 26 cd 42 19 2d 53 fb 02
10 0f 01 03 0f 25 1b 96 ef 13 88 a1 57 49 9b 26
12 48 4c bf ef 80 31 40 45 59 61 59 81 59 81 99
a9 59 d1 59 01 01 40 3e 00 c0 51 00 30 40 30 a0
13 00 68 0e 11 00 00 1e 00 00 00 fc 00 48 4d 39
30 33 44 42 2f 44 54 42 0a 20 00 00 00 fd 00 32
c8 1e 84 23 02 00 20 50 10 0e 80 46 34 85 80 e0
72 a6 44 50 98 d8 13 00 68 04 11 00 00 1e 00 86

----------------

Block 0, Base EDID:
  EDID Structure Version & Revision: 1.3
  Vendor & Product Identification:
    Manufacturer: IVM
    Model: 6466
    Serial Number: ...
    Made in: week 16 of 2005
  Basic Display Parameters & Features:
    Analog display
    Signal Level Standard: 0.700 : 0.300 : 1.000 V p-p
    Blank level equals black level
    Sync: Separate Composite SyncOnGreen Serration
    Maximum image size: 37 cm x 27 cm
    Gamma: 2.50
    DPMS levels: Standby Suspend Off
    RGB color display
    Default (sRGB) color space is primary color space
    First detailed timing is the preferred timing
    Supports GTF timings within operating range
  Color Characteristics:
    Red  : 0.6289, 0.3408
    Green: 0.2851, 0.6083
    Blue : 0.1503, 0.0703
    White: 0.2832, 0.2968
  Established Timings I & II:
    IBM     :   720x400    70.081663 Hz   9:5     31.467 kHz     28.320000 MHz
    DMT 0x04:   640x480    59.940476 Hz   4:3     31.469 kHz     25.175000 MHz
    Apple   :   640x480    66.666667 Hz   4:3     35.000 kHz     30.240000 MHz
    DMT 0x05:   640x480    72.808802 Hz   4:3     37.861 kHz     31.500000 MHz
    DMT 0x06:   640x480    75.000000 Hz   4:3     37.500 kHz     31.500000 MHz
    DMT 0x08:   800x600    56.250000 Hz   4:3     35.156 kHz     36.000000 MHz
    DMT 0x09:   800x600    60.316541 Hz   4:3     37.879 kHz     40.000000 MHz
    DMT 0x0a:   800x600    72.187572 Hz   4:3     48.077 kHz     50.000000 MHz
    DMT 0x0b:   800x600    75.000000 Hz   4:3     46.875 kHz     49.500000 MHz
    Apple   :   832x624    74.551266 Hz   4:3     49.726 kHz     57.284000 MHz
    DMT 0x10:  1024x768    60.003840 Hz   4:3     48.363 kHz     65.000000 MHz
    DMT 0x11:  1024x768    70.069359 Hz   4:3     56.476 kHz     75.000000 MHz
    DMT 0x12:  1024x768    75.028582 Hz   4:3     60.023 kHz     78.750000 MHz
    DMT 0x24:  1280x1024   75.024675 Hz   5:4     79.976 kHz    135.000000 MHz
    Apple   :  1152x870    75.061550 Hz 192:145   68.681 kHz    100.000000 MHz
  Standard Timings:
    DMT 0x04:   640x480    59.940476 Hz   4:3     31.469 kHz     25.175000 MHz
    DMT 0x0c:   800x600    85.061274 Hz   4:3     53.674 kHz     56.250000 MHz
    DMT 0x13:  1024x768    84.996690 Hz   4:3     68.677 kHz     94.500000 MHz
    DMT 0x21:  1280x960    85.002473 Hz   4:3     85.938 kHz    148.500000 MHz
    DMT 0x25:  1280x1024   85.024098 Hz   5:4     91.146 kHz    157.500000 MHz
    DMT 0x37:  1600x1200   85.000000 Hz   4:3    106.250 kHz    229.500000 MHz
    GTF     :  1920x1440   84.999970 Hz   4:3    128.520 kHz    341.349000 MHz
  Detailed Timing Descriptors:
    DTD 1:  1280x1024   86.028192 Hz   5:4     92.222 kHz    159.360000 MHz (360 mm x 270 mm)
                 Hfront   48 Hsync 160 Hback  240 Hpol P
                 Vfront    1 Vsync   3 Vback   44 Vpol P
    Display Product Name: 'HM903DB/DTB'
    Display Range Limits:
      Monitor ranges (Secondary GTF): 50-200 Hz V, 30-132 kHz H, max dotclock 350 MHz
      GTF Secondary Curve Block:
        Start frequency: 64 kHz
        C: 40.0%
        M: 3600%/kHz
        K: 128
        J: 35.0%
    DTD 2:  1920x1446   84.800894 Hz 320:241  128.389 kHz    341.000000 MHz (360 mm x 260 mm)
                 Hfront  152 Hsync 216 Hback  368 Hpol P
                 Vfront    1 Vsync   3 Vback   64 Vpol P
Checksum: 0x86

----------------

Warnings:

Block 0, Base EDID:
  Basic Display Parameters & Features: sRGB is signaled, but the gamma != 2.2.

Failures:

Block 0, Base EDID:
  Basic Display Parameters & Features: sRGB is signaled, but the chromaticities do not match.
  Detailed Timing Descriptor #2: Mismatch of image size 360x260 mm vs display size 370x270 mm.
  Detailed Timing Descriptor #2: Invalid detailed timing descriptor ordering.

EDID conformity: FAIL
