
EDID (hex):
00ffffffffffff0026cd42199f22fb02
330c01030e241d63e8a4919f554c5423
1a4e4fbfef80a95981996159d1590101
010101010101863d00c05100304040a0
13008b271100001e000000fc00484d39
303344414454410a2020000000fd0032
c81e852302002050100e8046476800f0
8200356098e0130068221100001e004a

Extracted contents:
header:          00 ff ff ff ff ff ff 00
serial number:   26 cd 42 19 9f 22 fb 02 33 0c
version:         01 03
basic params:    0e 24 1d 63 e8
chroma info:     a4 91 9f 55 4c 54 23 1a 4e 4f
established:     bf ef 80
standard:        a9 59 81 99 61 59 d1 59 01 01 01 01 01 01 01 01
descriptor 1:    86 3d 00 c0 51 00 30 40 40 a0 13 00 8b 27 11 00 00 1e
descriptor 2:    00 00 00 fc 00 48 4d 39 30 33 44 41 44 54 41 0a 20 20
descriptor 3:    00 00 00 fd 00 32 c8 1e 85 23 02 00 20 50 10 0e 80 46
descriptor 4:    47 68 00 f0 82 00 35 60 98 e0 13 00 68 22 11 00 00 1e
extensions:      00
checksum:        4a

EDID version: 1.3
Manufacturer: IVM Model 1942 Serial Number --
Analog display, Input voltage level: 0.7/0.3 V
Sync: Separate Composite SyncOnGreen 
Maximum image size: 36 cm x 29 cm
Gamma: 1.99
DPMS levels: Standby Suspend Off
RGB color display
Display x,y Chromaticity:
  Red:   0.6230, 0.3339
  Green: 0.2978, 0.3281
  Blue:  0.1386, 0.1025
  White: 0.3046, 0.3095
Established timings supported:
  720x400@70Hz 9:5 HorFreq: 31469 Hz Clock: 28.320 MHz
  640x480@60Hz 4:3 HorFreq: 31469 Hz Clock: 25.175 MHz
  640x480@67Hz 4:3 HorFreq: 35000 Hz Clock: 30.240 MHz
  640x480@72Hz 4:3 HorFreq: 37900 Hz Clock: 31.500 MHz
  640x480@75Hz 4:3 HorFreq: 37500 Hz Clock: 31.500 MHz
  800x600@56Hz 4:3 HorFreq: 35200 Hz Clock: 36.000 MHz
  800x600@60Hz 4:3 HorFreq: 37900 Hz Clock: 40.000 MHz
  800x600@72Hz 4:3 HorFreq: 48100 Hz Clock: 50.000 MHz
  800x600@75Hz 4:3 HorFreq: 46900 Hz Clock: 49.500 MHz
  832x624@75Hz 4:3 HorFreq: 49726 Hz Clock: 57.284 MHz
  1024x768@60Hz 4:3 HorFreq: 48400 Hz Clock: 65.000 MHz
  1024x768@70Hz 4:3 HorFreq: 56500 Hz Clock: 75.000 MHz
  1024x768@75Hz 4:3 HorFreq: 60000 Hz Clock: 78.750 MHz
  1280x1024@75Hz 5:4 HorFreq: 80000 Hz Clock: 135.000 MHz
  1152x870@75Hz 192:145 HorFreq: 67500 Hz Clock: 108.000 MHz
Standard timings supported:
  1600x1200@85Hz 4:3 HorFreq: 106300 Hz Clock: 229.500 MHz
  1280x1024@85Hz 5:4 HorFreq: 91100 Hz Clock: 157.500 MHz
  1024x768@85Hz 4:3 HorFreq: 68700 Hz Clock: 94.500 MHz
  1920x1440@85Hz 4:3
Detailed mode: Clock 157.500 MHz, 395 mm x 295 mm
               1280 1344 1504 1728 hborder 0
               1024 1025 1028 1072 vborder 0
               +hsync +vsync 
               VertFreq: 85 Hz, HorFreq: 91145 Hz
Monitor name: HM903DADTA
Monitor ranges (GTF with icing): 50-200Hz V, 30-133kHz H, max dotclock 350MHz
Detailed mode: Clock 266.950 MHz, 360 mm x 290 mm
               2048 2200 2424 2800 hborder 0
               1536 1537 1540 1589 vborder 0
               +hsync +vsync 
               VertFreq: 59 Hz, HorFreq: 95339 Hz
Checksum: 0x4a (valid)
EDID block does NOT conform to EDID 1.3!
	Missing preferred timing
EDID block does not conform at all!
	Bad year of manufacture
	Invalid detailed timing descriptor ordering
