
EDID (hex):
00ffffffffffff0006af3c3100000000
00160103801f11780a10b59758579226
1e505400000001010101010101010101
0101010101019e1b567c500016302616
360035ad100000180000000f00000000
00000000000000000020000000fe0041
554f0a202020202020202020000000fe
004231343058544e30332e31200a006f

Extracted contents:
header:          00 ff ff ff ff ff ff 00
serial number:   06 af 3c 31 00 00 00 00 00 16
version:         01 03
basic params:    80 1f 11 78 0a
chroma info:     10 b5 97 58 57 92 26 1e 50 54
established:     00 00 00
standard:        01 01 01 01 01 01 01 01 01 01 01 01 01 01 01 01
descriptor 1:    9e 1b 56 7c 50 00 16 30 26 16 36 00 35 ad 10 00 00 18
descriptor 2:    00 00 00 0f 00 00 00 00 00 00 00 00 00 00 00 00 00 20
descriptor 3:    00 00 00 fe 00 41 55 4f 0a 20 20 20 20 20 20 20 20 20
descriptor 4:    00 00 00 fe 00 42 31 34 30 58 54 4e 30 33 2e 31 20 0a
extensions:      00
checksum:        6f

EDID version: 1.3
Manufacturer: AUO Model 313c Serial Number --
Made in year 2012
Digital display
Maximum image size: 31 cm x 17 cm
Gamma: 2.20
RGB color display
First detailed timing is preferred timing
Display x,y Chromaticity:
  Red:   0.5898, 0.3447
  Green: 0.3398, 0.5703
  Blue:  0.1503, 0.1201
  White: 0.3134, 0.3291
Established timings supported:
Standard timings supported:
Detailed mode: Clock 70.700 MHz, 309 mm x 173 mm
               1366 1404 1426 1490 hborder 0
                768  771  777  790 vborder 0
               -hsync -vsync 
               VertFreq: 60 Hz, HorFreq: 47449 Hz
Manufacturer-specified data, tag 15
ASCII string: AUO
ASCII string: B140XTN03.1 
Checksum: 0x6f (valid)
EDID block does NOT conform to EDID 1.3!
	Missing name descriptor
	Missing monitor ranges
