edid-decode (hex):

00 ff ff ff ff ff ff 00 0d af 61 14 00 00 00 00
29 12 01 03 80 1f 11 78 0a 59 e5 93 5c 59 93 27
1c 50 54 00 00 00 01 01 01 01 01 01 01 01 01 01
01 01 01 01 01 01 12 1b 56 66 50 00 14 30 10 22
26 00 35 ae 10 00 00 18 00 00 00 fe 00 4e 31 34
30 42 36 2d 4c 30 32 0a 20 20 00 00 00 fe 00 43
4d 4f 0a 20 20 20 20 20 20 20 20 20 00 00 00 fe
00 4e 31 34 30 42 36 2d 4c 30 32 0a 20 20 00 71

----------------

Block 0, Base EDID:
  EDID Structure Version & Revision: 1.3
  Vendor & Product Identification:
    Manufacturer: CMO
    Model: 5217
    Made in: week 41 of 2008
  Basic Display Parameters & Features:
    Digital display
    Maximum image size: 31 cm x 17 cm
    Gamma: 2.20
    RGB color display
    First detailed timing is the preferred timing
  Color Characteristics:
    Red  : 0.5751, 0.3603
    Green: 0.3496, 0.5751
    Blue : 0.1552, 0.1113
    White: 0.3134, 0.3291
  Established Timings I & II: none
  Standard Timings: none
  Detailed Timing Descriptors:
    DTD 1:  1366x768    59.907 Hz 683:384  47.207 kHz  69.300 MHz (309 mm x 174 mm)
                 Hfront   16 Hsync  34 Hback  52 Hpol N
                 Vfront    2 Vsync   6 Vback  12 Vpol N
    Alphanumeric Data String: 'N140B6-L02'
    Alphanumeric Data String: 'CMO'
    Alphanumeric Data String: 'N140B6-L02'
Checksum: 0x71

----------------

Failures:

Block 0, Base EDID:
  Missing Display Product Name.
  Missing Display Range Limits Descriptor.

EDID conformity: FAIL
