
EDID (hex):
00ffffffffffff005a8b003200000000
1e1c0104a54627783b64f5ad5049a322
135054a54b0081c081809500a9c0b300
d1c001010101565e00a0a0a029503020
3500ba892100001a0474801871382d40
30403500ba892100001a000000fd0030
92dfdf3c010a202020202020000000fc
00474e333244420a2020202020200134
020318744b909f859404130312010211
2309070783010000023a801871382d40
582c9600ba892100001ed3bc00a0a0a0
295030403500ba892100001a9ee00078
a0a0325030403500ba892100001a6138
001851a0665020285500ba892100001e
fa7e80887038124018203500ba892100
001e0000000000000000000000000092

Extracted contents:
header:          00 ff ff ff ff ff ff 00
serial number:   5a 8b 00 32 00 00 00 00 1e 1c
version:         01 04
basic params:    a5 46 27 78 3b
chroma info:     64 f5 ad 50 49 a3 22 13 50 54
established:     a5 4b 00
standard:        81 c0 81 80 95 00 a9 c0 b3 00 d1 c0 01 01 01 01
descriptor 1:    56 5e 00 a0 a0 a0 29 50 30 20 35 00 ba 89 21 00 00 1a
descriptor 2:    04 74 80 18 71 38 2d 40 30 40 35 00 ba 89 21 00 00 1a
descriptor 3:    00 00 00 fd 00 30 92 df df 3c 01 0a 20 20 20 20 20 20
descriptor 4:    00 00 00 fc 00 47 4e 33 32 44 42 0a 20 20 20 20 20 20
extensions:      01
checksum:        34

EDID version: 1.4
Manufacturer: VTK Model 3200 Serial Number --
Made in week 30 of 2018
Digital display
8 bits per primary color channel
DisplayPort interface
Maximum image size: 70 cm x 39 cm
Gamma: 2.20
DPMS levels: Off
Supported color formats: RGB 4:4:4, YCrCb 4:4:4, YCrCb 4:2:2
First detailed timing includes the native pixel format and preferred refresh rate
Display is continuous frequency
Display x,y Chromaticity:
  Red:   0.6767, 0.3144
  Green: 0.2861, 0.6367
  Blue:  0.1357, 0.0771
  White: 0.3134, 0.3291
Established timings supported:
  720x400@70Hz 9:5 HorFreq: 31469 Hz Clock: 28.320 MHz
  640x480@60Hz 4:3 HorFreq: 31469 Hz Clock: 25.175 MHz
  640x480@75Hz 4:3 HorFreq: 37500 Hz Clock: 31.500 MHz
  800x600@60Hz 4:3 HorFreq: 37900 Hz Clock: 40.000 MHz
  800x600@75Hz 4:3 HorFreq: 46900 Hz Clock: 49.500 MHz
  1024x768@60Hz 4:3 HorFreq: 48400 Hz Clock: 65.000 MHz
  1024x768@75Hz 4:3 HorFreq: 60000 Hz Clock: 78.750 MHz
  1280x1024@75Hz 5:4 HorFreq: 80000 Hz Clock: 135.000 MHz
Standard timings supported:
  1280x720@60Hz 16:9
  1280x1024@60Hz 5:4 HorFreq: 64000 Hz Clock: 108.000 MHz
  1440x900@60Hz 16:10 HorFreq: 55500 Hz Clock: 88.750 MHz
  1600x900@60Hz 16:9
  1680x1050@60Hz 16:10 HorFreq: 64700 Hz Clock: 119.000 MHz
  1920x1080@60Hz 16:9
Detailed mode: Clock 241.500 MHz, 698 mm x 393 mm
               2560 2608 2640 2720 hborder 0
               1440 1443 1448 1481 vborder 0
               +hsync -vsync 
               VertFreq: 59 Hz, HorFreq: 88786 Hz
Detailed mode: Clock 297.000 MHz, 698 mm x 393 mm
               1920 1968 2032 2200 hborder 0
               1080 1083 1088 1125 vborder 0
               +hsync -vsync 
               VertFreq: 120 Hz, HorFreq: 135000 Hz
Monitor ranges (bare limits): 48-146Hz V, 223-223kHz H, max dotclock 600MHz
Monitor name: GN32DB
Has 1 extension blocks
Checksum: 0x34 (valid)

CTA extension block
Extension version: 3
20 bytes of CTA data
  Video data block
    VIC  16 1920x1080@60Hz 16:9 (native) HorFreq: 67500 Hz Clock: 148.500 MHz
    VIC  31 1920x1080@50Hz 16:9 (native) HorFreq: 56250 Hz Clock: 148.500 MHz
    VIC   5 1920x1080i@60Hz 16:9 (native) HorFreq: 33750 Hz Clock: 74.250 MHz
    VIC  20 1920x1080i@50Hz 16:9 (native) HorFreq: 28125 Hz Clock: 74.250 MHz
    VIC   4 1280x720@60Hz 16:9  HorFreq: 45000 Hz Clock: 74.250 MHz
    VIC  19 1280x720@50Hz 16:9  HorFreq: 37500 Hz Clock: 74.250 MHz
    VIC   3 720x480@60Hz 16:9  HorFreq: 31469 Hz Clock: 27.000 MHz
    VIC  18 720x576@50Hz 16:9  HorFreq: 31250 Hz Clock: 27.000 MHz
    VIC   1 640x480@60Hz 4:3  HorFreq: 31469 Hz Clock: 25.175 MHz
    VIC   2 720x480@60Hz 4:3  HorFreq: 31469 Hz Clock: 27.000 MHz
    VIC  17 720x576@50Hz 4:3  HorFreq: 31250 Hz Clock: 27.000 MHz
  Audio data block
    Linear PCM, max channels 2
      Supported sample rates (kHz): 48 44.1 32
      Supported sample sizes (bits): 24 20 16
  Speaker allocation data block
    Speaker map:
      FL/FR - Front Left/Right
Basic audio support
Supports YCbCr 4:4:4
Supports YCbCr 4:2:2
4 native detailed modes
Detailed mode: Clock 148.500 MHz, 698 mm x 393 mm
               1920 2008 2052 2200 hborder 0
               1080 1089 1095 1125 vborder 0
               +hsync +vsync 
               VertFreq: 60 Hz, HorFreq: 67500 Hz
Detailed mode: Clock 483.390 MHz, 698 mm x 393 mm
               2560 2608 2672 2720 hborder 0
               1440 1443 1448 1481 vborder 0
               +hsync -vsync 
               VertFreq: 119 Hz, HorFreq: 177716 Hz
Detailed mode: Clock 575.020 MHz, 698 mm x 393 mm
               2560 2608 2672 2680 hborder 0
               1440 1443 1448 1490 vborder 0
               +hsync -vsync 
               VertFreq: 143 Hz, HorFreq: 214559 Hz
Detailed mode: Clock 144.330 MHz, 698 mm x 393 mm
               1280 1312 1352 1560 hborder 0
               1440 1445 1450 1542 vborder 0
               +hsync +vsync 
               VertFreq: 59 Hz, HorFreq: 92519 Hz
Detailed mode: Clock 325.060 MHz, 698 mm x 393 mm
               1920 1944 1976 2056 hborder 0
               1080 1083 1088 1098 vborder 0
               +hsync +vsync 
               VertFreq: 143 Hz, HorFreq: 158103 Hz
Checksum: 0x92 (valid)

Warning: One or more of the timings is out of range of the Monitor Ranges:
  Vertical Freq: 50 - 143 Hz
  Horizontal Freq: 28125 - 214559 Hz
  Maximum Clock: 575.020 MHz


