
EDID (hex):
00ffffffffffff000dae721700000000
041a010495261578029405a056519428
13505400000001010101010101010101
0101010101011c2a405461841a303020
35007ed61000001a131c405461841a30
302035007ed61000001a000000000000
00000000000000000000000000000002
000c3fef0b3c6e1b101e750000000042

edid-decode (hex):

00 ff ff ff ff ff ff 00 0d ae 72 17 00 00 00 00
04 1a 01 04 95 26 15 78 02 94 05 a0 56 51 94 28
13 50 54 00 00 00 01 01 01 01 01 01 01 01 01 01
01 01 01 01 01 01 1c 2a 40 54 61 84 1a 30 30 20
35 00 7e d6 10 00 00 1a 13 1c 40 54 61 84 1a 30
30 20 35 00 7e d6 10 00 00 1a 00 00 00 00 00 00
00 00 00 00 00 00 00 00 00 00 00 00 00 00 00 02
00 0c 3f ef 0b 3c 6e 1b 10 1e 75 00 00 00 00 42

----------------

Block 0, Base EDID:
  EDID Structure Version & Revision: 1.4
  Vendor & Product Identification:
    Manufacturer: CMN
    Model: 6002
    Made in: week 4 of 2016
  Basic Display Parameters & Features:
    Digital display
    Bits per primary color channel: 6
    DisplayPort interface
    Maximum image size: 38 cm x 21 cm
    Gamma: 2.20
    Supported color formats: RGB 4:4:4
    First detailed timing includes the native pixel format and preferred refresh rate
  Color Characteristics:
    Red  : 0.6269, 0.3369
    Green: 0.3173, 0.5781
    Blue : 0.1562, 0.0742
    White: 0.3134, 0.3291
  Established Timings I & II: none
  Standard Timings: none
  Detailed Timing Descriptors:
    DTD 1:  1600x900    60.007571 Hz  16:9     55.567 kHz    107.800000 MHz (382 mm x 214 mm)
                 Hfront   48 Hsync  32 Hback  260 Hpol P
                 Vfront    3 Vsync   5 Vback   18 Vpol N
    DTD 2:  1600x900    40.006903 Hz  16:9     37.046 kHz     71.870000 MHz (382 mm x 214 mm)
                 Hfront   48 Hsync  32 Hback  260 Hpol P
                 Vfront    3 Vsync   5 Vback   18 Vpol N
    Empty Descriptor
    Manufacturer-Specified Display Descriptor (0x02): 00 02 00 0c 3f ef 0b 3c 6e 1b 10 1e 75 00 00 00 '....?..<n...u...'
Checksum: 0x42
