edid-decode (hex):

00 ff ff ff ff ff ff 00 59 3a 43 00 01 01 01 01
06 13 01 04 a5 52 2e 78 c2 6a 3b a3 55 4a 9b 25
0f 47 4a af ce 00 01 01 01 01 01 01 01 01 01 01
01 01 01 01 01 01 52 35 80 80 70 38 1f 40 20 20
13 00 34 cc 31 00 00 1e 00 00 00 fd 00 32 4d 1f
46 0f 00 0a 20 20 20 20 20 20 00 00 00 ff 00 51
50 43 59 42 4b 30 36 30 30 34 38 30 00 00 00 fc
00 56 4f 33 37 4c 46 48 44 54 56 31 30 41 00 51

00 ff ff ff ff ff ff 00 59 3a 43 00 01 01 01 01
06 13 01 04 a5 52 2e 78 c2 6a 3b a3 55 4a 9b 25
0f 47 4a af ce 00 01 01 01 01 01 01 01 01 01 01
01 01 01 01 01 01 52 35 80 80 70 38 1f 40 20 20
13 00 34 cc 31 00 00 1e 00 00 00 fd 00 32 4d 1f
46 0f 00 0a 20 20 20 20 20 20 00 00 00 ff 00 51
50 43 59 42 4b 30 36 30 30 34 38 30 00 00 00 fc
00 56 4f 33 37 4c 46 48 44 54 56 31 30 41 00 51

----------------

Block 0, Base EDID:
  EDID Structure Version & Revision: 1.4
  Vendor & Product Identification:
    Manufacturer: VIZ
    Model: 67
    Serial Number: ...
    Made in: week 6 of 2009
  Basic Display Parameters & Features:
    Digital display
    Bits per primary color channel: 8
    DisplayPort interface
    Maximum image size: 82 cm x 46 cm
    Gamma: 2.20
    DPMS levels: Standby Suspend
    Supported color formats: RGB 4:4:4
    First detailed timing includes the native pixel format and preferred refresh rate
  Color Characteristics:
    Red  : 0.6376, 0.3339
    Green: 0.2910, 0.6074
    Blue : 0.1445, 0.0615
    White: 0.2792, 0.2919
  Established Timings I & II:
    IBM     :   720x400    70.081663 Hz   9:5     31.467 kHz     28.320000 MHz
    DMT 0x04:   640x480    59.940476 Hz   4:3     31.469 kHz     25.175000 MHz
    DMT 0x05:   640x480    72.808802 Hz   4:3     37.861 kHz     31.500000 MHz
    DMT 0x06:   640x480    75.000000 Hz   4:3     37.500 kHz     31.500000 MHz
    DMT 0x08:   800x600    56.250000 Hz   4:3     35.156 kHz     36.000000 MHz
    DMT 0x09:   800x600    60.316541 Hz   4:3     37.879 kHz     40.000000 MHz
    DMT 0x0a:   800x600    72.187572 Hz   4:3     48.077 kHz     50.000000 MHz
    DMT 0x0b:   800x600    75.000000 Hz   4:3     46.875 kHz     49.500000 MHz
    DMT 0x10:  1024x768    60.003840 Hz   4:3     48.363 kHz     65.000000 MHz
    DMT 0x11:  1024x768    70.069359 Hz   4:3     56.476 kHz     75.000000 MHz
    DMT 0x12:  1024x768    75.028582 Hz   4:3     60.023 kHz     78.750000 MHz
  Standard Timings: none
  Detailed Timing Descriptors:
    DTD 1:  1920x1080   59.991351 Hz  16:9     66.650 kHz    136.500000 MHz (820 mm x 460 mm)
                 Hfront   32 Hsync  32 Hback   64 Hpol P
                 Vfront    1 Vsync   3 Vback   27 Vpol P
    Display Range Limits:
      Monitor ranges (GTF): 50-77 Hz V, 31-70 kHz H, max dotclock 150 MHz
    Display Product Serial Number: ...
    Display Product Name: 'VO37LFHDTV10A'
Checksum: 0x51

----------------

Block 1, Unknown EDID Extension Block 0x00:
  00 ff ff ff ff ff ff 00 59 3a 43 00 01 01 01 01 '........Y:C.....'
  06 13 01 04 a5 52 2e 78 c2 6a 3b a3 55 4a 9b 25 '.....R.x.j;.UJ.%'
  0f 47 4a af ce 00 01 01 01 01 01 01 01 01 01 01 '.GJ.............'
  01 01 01 01 01 01 52 35 80 80 70 38 1f 40 20 20 '......R5..p8.@  '
  13 00 34 cc 31 00 00 1e 00 00 00 fd 00 32 4d 1f '..4.1........2M.'
  46 0f 00 0a 20 20 20 20 20 20 00 00 00 ff 00 51 'F...      .....Q'
  50 43 59 42 4b 30 36 30 30 34 38 30 00 00 00 fc 'PCYBK0600480....'
  00 56 4f 33 37 4c 46 48 44 54 56 31 30 41 00 51 '.VO37LFHDTV10A.Q'
Checksum: 0x51

----------------

Warnings:

Block 0, Base EDID:
  Display Range Limits: GTF support is deprecated in EDID 1.4.

Failures:

Block 0, Base EDID:
  Display Range Limits: GTF can't be combined with non-continuous frequencies.
Block 1, Base EDID:
  Unknown Extension Block.
EDID:
  Base EDID: EDID specified 0 extension block(s), but found 1 extension block(s).

EDID conformity: FAIL
