
EDID (hex):
00ffffffffffff000dc366130f000000
01180103084627780a4dfea656439c26
114849210800810081c0010101010101
010101010101662150b051001b304070
3600bc862100001ea91a00a050001630
30203700bc862100001a000000fd002f
2f273208000a202020202020000000fc
004c43442054560a2020202020200045

edid-decode (hex):

00 ff ff ff ff ff ff 00 0d c3 66 13 0f 00 00 00
01 18 01 03 08 46 27 78 0a 4d fe a6 56 43 9c 26
11 48 49 21 08 00 81 00 81 c0 01 01 01 01 01 01
01 01 01 01 01 01 66 21 50 b0 51 00 1b 30 40 70
36 00 bc 86 21 00 00 1e a9 1a 00 a0 50 00 16 30
30 20 37 00 bc 86 21 00 00 1a 00 00 00 fd 00 2f
2f 27 32 08 00 0a 20 20 20 20 20 20 00 00 00 fc
00 4c 43 44 20 54 56 0a 20 20 20 20 20 20 00 45

----------------

Block 0, Base EDID:
  EDID Structure Version & Revision: 1.3
  Vendor & Product Identification:
    Manufacturer: CNC
    Model: 4966
    Serial Number: 15
    Made in: week 1 of 2014
  Basic Display Parameters & Features:
    Analog display
    Signal Level Standard: 0.700 : 0.300 : 1.000 V p-p
    Blank level equals black level
    Sync: Separate
    Maximum image size: 70 cm x 39 cm
    Gamma: 2.20
    RGB color display
    First detailed timing is the preferred timing
  Color Characteristics:
    Red  : 0.6494, 0.3359
    Green: 0.2646, 0.6103
    Blue : 0.1513, 0.0693
    White: 0.2841, 0.2871
  Established Timings I & II:
    DMT 0x04:   640x480    59.940476 Hz   4:3     31.469 kHz     25.175000 MHz
    DMT 0x09:   800x600    60.316541 Hz   4:3     37.879 kHz     40.000000 MHz
    DMT 0x10:  1024x768    60.003840 Hz   4:3     48.363 kHz     65.000000 MHz
  Standard Timings:
    DMT 0x1c:  1280x800    59.810326 Hz  16:10    49.702 kHz     83.500000 MHz
    DMT 0x55:  1280x720    60.000000 Hz  16:9     45.000 kHz     74.250000 MHz
  Detailed Timing Descriptors:
    DTD 1:  1360x768    60.015162 Hz  85:48    47.712 kHz     85.500000 MHz (700 mm x 390 mm)
                 Hfront   64 Hsync 112 Hback  256 Hpol P
                 Vfront    3 Vsync   6 Vback   18 Vpol P
    DTD 2:  1280x768    59.994726 Hz   5:3     47.396 kHz     68.250000 MHz (700 mm x 390 mm)
                 Hfront   48 Hsync  32 Hback   80 Hpol P
                 Vfront    3 Vsync   7 Vback   12 Vpol N
    Display Range Limits:
      Monitor ranges (GTF): 47-47 Hz V, 39-50 kHz H, max dotclock 80 MHz
    Display Product Name: 'LCD TV'
Checksum: 0x45
