edid-decode (hex):

00 ff ff ff ff ff ff 00 44 93 2e 00 00 00 00 00
00 0f 01 03 80 1a 10 78 0a d2 f0 96 58 4e 91 28
23 50 54 00 00 00 01 01 01 01 01 01 01 01 01 01
01 01 01 01 01 01 ea 1a 00 80 50 20 10 30 15 20
44 00 05 a3 10 00 00 18 00 00 00 0f 00 08 18 12
72 01 0a 02 32 1e a0 04 32 01 00 00 00 fe 00 51
55 41 4e 54 41 44 49 53 50 4c 41 59 00 00 00 fe
00 51 44 31 32 54 4c 30 31 31 0a 20 20 20 00 60

00 ff ff ff ff ff ff 00 44 93 2e 00 00 00 00 00
00 0f 01 03 80 1a 10 78 0a d2 f0 96 58 4e 91 28
23 50 54 00 00 00 01 01 01 01 01 01 01 01 01 01
01 01 01 01 01 01 ea 1a 00 80 50 20 10 30 15 20
44 00 05 a3 10 00 00 18 00 00 00 0f 00 08 18 12
72 01 0a 02 32 1e a0 04 32 01 00 00 00 fe 00 51
55 41 4e 54 41 44 49 53 50 4c 41 59 00 00 00 fe
00 51 44 31 32 54 4c 30 31 31 0a 20 20 20 00 60

----------------

Block 0, Base EDID:
  EDID Structure Version & Revision: 1.3
  Vendor & Product Identification:
    Manufacturer: QDS
    Model: 46
    Made in: 2005
  Basic Display Parameters & Features:
    Digital display
    Maximum image size: 26 cm x 16 cm
    Gamma: 2.20
    RGB color display
    First detailed timing is the preferred timing
  Color Characteristics:
    Red  : 0.5888, 0.3447
    Green: 0.3046, 0.5683
    Blue : 0.1591, 0.1396
    White: 0.3125, 0.3281
  Established Timings I & II: none
  Standard Timings: none
  Detailed Timing Descriptors:
    DTD 1:  1280x800    59.968945 Hz  16:10    48.935 kHz     68.900000 MHz (261 mm x 163 mm)
                 Hfront   21 Hsync  32 Hback   75 Hpol N
                 Vfront    4 Vsync   4 Vback    8 Vpol N
    Manufacturer-Specified Display Descriptor (0x0f): 00 0f 00 08 18 12 72 01 0a 02 32 1e a0 04 32 01 '......r...2...2.'
    Alphanumeric Data String: 'QUANTADISPLAY'
    Alphanumeric Data String: 'QD12TL011'
Checksum: 0x60

----------------

Block 1, Unknown EDID Extension Block 0x00:
  00 ff ff ff ff ff ff 00 44 93 2e 00 00 00 00 00 '........D.......'
  00 0f 01 03 80 1a 10 78 0a d2 f0 96 58 4e 91 28 '.......x....XN.('
  23 50 54 00 00 00 01 01 01 01 01 01 01 01 01 01 '#PT.............'
  01 01 01 01 01 01 ea 1a 00 80 50 20 10 30 15 20 '..........P .0. '
  44 00 05 a3 10 00 00 18 00 00 00 0f 00 08 18 12 'D...............'
  72 01 0a 02 32 1e a0 04 32 01 00 00 00 fe 00 51 'r...2...2......Q'
  55 41 4e 54 41 44 49 53 50 4c 41 59 00 00 00 fe 'UANTADISPLAY....'
  00 51 44 31 32 54 4c 30 31 31 0a 20 20 20 00 60 '.QD12TL011.   .`'
Checksum: 0x60

----------------

Failures:

Block 0, Base EDID:
  Missing Display Product Name.
  Missing Display Range Limits Descriptor.
Block 1, Base EDID:
  Unknown Extension Block.
EDID:
  Base EDID: EDID specified 0 extension block(s), but found 1 extension block(s).

EDID conformity: FAIL
