
EDID (hex):
00ffffffffffff0010ac7fa14c4b3930
281f0104b55825783b8df1ae5044ac26
0e505421080001010101010101010101
0101010101013c9b00a0f04038603020
050c706f3100001a000000ff00234737
49594d78677741426b61000000fd0001
90f6f663010a202020202020000000fc
0044656c6c2041573338323144570236
020320f12309070183010000654b0400
0101e305c000e2006ae606050178601f
31dd00a0f04042603020a50c706f3100
001a0000000000000000000000000000
00000000000000000000000000000000
00000000000000000000000000000000
00000000000000000000000000000000
000000000000000000000000000000f4
70137903000f000aa4140e0e07012045
000002010d31e60a504c24ac6dd20e01
455403013c933d0104ff0e9f002f801f
003f065d0055000400a4810104ff0e9f
002f801f003f067100690004001b0601
04ff0e9f002f801f003f064d00450004
00000000000000000000000000000000
0000000000000000000000000000c790

edid-decode (hex):

00 ff ff ff ff ff ff 00 10 ac 7f a1 4c 4b 39 30
28 1f 01 04 b5 58 25 78 3b 8d f1 ae 50 44 ac 26
0e 50 54 21 08 00 01 01 01 01 01 01 01 01 01 01
01 01 01 01 01 01 3c 9b 00 a0 f0 40 38 60 30 20
05 0c 70 6f 31 00 00 1a 00 00 00 ff 00 23 47 37
49 59 4d 78 67 77 41 42 6b 61 00 00 00 fd 00 01
90 f6 f6 63 01 0a 20 20 20 20 20 20 00 00 00 fc
00 44 65 6c 6c 20 41 57 33 38 32 31 44 57 02 36

02 03 20 f1 23 09 07 01 83 01 00 00 65 4b 04 00
01 01 e3 05 c0 00 e2 00 6a e6 06 05 01 78 60 1f
31 dd 00 a0 f0 40 42 60 30 20 a5 0c 70 6f 31 00
00 1a 00 00 00 00 00 00 00 00 00 00 00 00 00 00
00 00 00 00 00 00 00 00 00 00 00 00 00 00 00 00
00 00 00 00 00 00 00 00 00 00 00 00 00 00 00 00
00 00 00 00 00 00 00 00 00 00 00 00 00 00 00 00
00 00 00 00 00 00 00 00 00 00 00 00 00 00 00 f4

70 13 79 03 00 0f 00 0a a4 14 0e 0e 07 01 20 45
00 00 02 01 0d 31 e6 0a 50 4c 24 ac 6d d2 0e 01
45 54 03 01 3c 93 3d 01 04 ff 0e 9f 00 2f 80 1f
00 3f 06 5d 00 55 00 04 00 a4 81 01 04 ff 0e 9f
00 2f 80 1f 00 3f 06 71 00 69 00 04 00 1b 06 01
04 ff 0e 9f 00 2f 80 1f 00 3f 06 4d 00 45 00 04
00 00 00 00 00 00 00 00 00 00 00 00 00 00 00 00
00 00 00 00 00 00 00 00 00 00 00 00 00 00 c7 90

----------------

Block 0, Base EDID:
  EDID Structure Version & Revision: 1.4
  Vendor & Product Identification:
    Manufacturer: DEL
    Model: 41343
    Serial Number: 809061196
    Made in: week 40 of 2021
  Basic Display Parameters & Features:
    Digital display
    Bits per primary color channel: 10
    DisplayPort interface
    Maximum image size: 88 cm x 37 cm
    Gamma: 2.20
    DPMS levels: Off
    Supported color formats: RGB 4:4:4, YCrCb 4:4:4, YCrCb 4:2:2
    First detailed timing includes the native pixel format and preferred refresh rate
    Display is continuous frequency
  Color Characteristics:
    Red  : 0.6816, 0.3125
    Green: 0.2685, 0.6728
    Blue : 0.1513, 0.0576
    White: 0.3125, 0.3291
  Established Timings I & II:
    DMT 0x04:   640x480    59.940476 Hz   4:3     31.469 kHz     25.175000 MHz
    DMT 0x09:   800x600    60.316541 Hz   4:3     37.879 kHz     40.000000 MHz
    DMT 0x10:  1024x768    60.003840 Hz   4:3     48.363 kHz     65.000000 MHz
  Standard Timings: none
  Detailed Timing Descriptors:
    DTD 1:  3840x1600   59.993961 Hz  12:5     99.350 kHz    397.400000 MHz (880 mm x 367 mm)
                 Hfront   48 Hsync  32 Hback   80 Hpol P
                 Vfront   48 Vsync   5 Vback    3 Vpol N
    Display Product Serial Number: '#G7IYMxgwABka'
    Display Range Limits:
      Monitor ranges (Bare Limits): 1-144 Hz V, 246-246 kHz H, max dotclock 990 MHz
    Display Product Name: 'Dell AW3821DW'
  Extension blocks: 2
Checksum: 0x36

----------------

Block 1, CTA-861 Extension Block:
  Revision: 3
  Underscans IT Video Formats by default
  Basic audio support
  Supports YCbCr 4:4:4
  Supports YCbCr 4:2:2
  Native detailed modes: 1
  Audio Data Block:
    Linear PCM:
      Max channels: 2
      Supported sample rates (kHz): 48 44.1 32
      Supported sample sizes (bits): 16
  Speaker Allocation Data Block:
    FL/FR - Front Left/Right
  Vendor-Specific Data Block (NVIDIA), OUI 00-04-4B:
    01 01                                           '..'
  Colorimetry Data Block:
    BT2020YCC
    BT2020RGB
  Video Capability Data Block:
    YCbCr quantization: No Data
    RGB quantization: Selectable (via AVI Q)
    PT scan behavior: Always Underscanned
    IT scan behavior: Always Underscanned
    CE scan behavior: Always Underscanned
  HDR Static Metadata Data Block:
    Electro optical transfer functions:
      Traditional gamma - SDR luminance range
      SMPTE ST2084
    Supported static metadata descriptors:
      Static metadata type 1
    Desired content max luminance: 120 (672.717 cd/m^2)
    Desired content max frame-average luminance: 96 (400.000 cd/m^2)
    Desired content min luminance: 31 (0.099 cd/m^2)
  Detailed Timing Descriptors:
    DTD 2:  3840x1600   84.971489 Hz  12:5    141.562 kHz    566.250000 MHz (880 mm x 367 mm)
                 Hfront   48 Hsync  32 Hback   80 Hpol P
                 Vfront   58 Vsync   5 Vback    3 Vpol N
Checksum: 0xf4  Unused space in Extension Block: 77 bytes

----------------

Block 2, DisplayID Extension Block:
  Version: 1.3
  Extension Count: 0
  Display Product Type: Standalone display device
  Display Interface Data Block:
    Interface Type: DisplayPort
    Number of Links: 4
    Interface Standard Version: 1.4
    Supported bpc for RGB encoding: 8, 10, 12
    Supported bpc for YCbCr 4:4:4 encoding: 8, 10, 12
    Supported bpc for YCbCr 4:2:2 encoding: 8, 10, 12
    Supported Content Protection: HDCP 2.0
    Spread Spectrum: Down Spread 0.5%
  Color Characteristics Data Block:
    Uses spatial color
    Uses 1931 CIE (x, y) coordinates
    Primary #0: (0.6812, 0.3125)
    Primary #1: (0.2686, 0.6724)
    Primary #2: (0.1516, 0.0579)
    White point #0: (0.3127, 0.3291)
  Video Timing Modes Type 1 - Detailed Timings Data Block:
    DTD:  3840x1600  119.982290 Hz  16:9    203.250 kHz    813.000000 MHz (aspect 16:9, no 3D stereo)
               Hfront   48 Hsync  32 Hback   80 Hpol P
               Vfront   86 Vsync   5 Vback    3 Vpol N
    DTD:  3840x1600  143.997958 Hz  16:9    246.812 kHz    987.250000 MHz (aspect 16:9, no 3D stereo)
               Hfront   48 Hsync  32 Hback   80 Hpol P
               Vfront  106 Vsync   5 Vback    3 Vpol N
    DTD:  3840x1600   99.970203 Hz  16:9    167.750 kHz    671.000000 MHz (aspect 16:9, no 3D stereo)
               Hfront   48 Hsync  32 Hback   80 Hpol P
               Vfront   70 Vsync   5 Vback    3 Vpol N
  Checksum: 0xc7
Checksum: 0x90
