
EDID (hex):
00ffffffffffff0009e5800900000000
1e1e0104a51d1278035c70a6514c9c26
0e505400000001010101010101010101
010101010101743c80a070b028403020
36001eb31000001a5d3080a070b02840
302036001eb31000001a000000fe0042
4f452048460a202020202020000000fe
004e5631333357554d2d5430300a0074

Extracted contents:
header:          00 ff ff ff ff ff ff 00
serial number:   09 e5 80 09 00 00 00 00 1e 1e
version:         01 04
basic params:    a5 1d 12 78 03
chroma info:     5c 70 a6 51 4c 9c 26 0e 50 54
established:     00 00 00
standard:        01 01 01 01 01 01 01 01 01 01 01 01 01 01 01 01
descriptor 1:    74 3c 80 a0 70 b0 28 40 30 20 36 00 1e b3 10 00 00 1a
descriptor 2:    5d 30 80 a0 70 b0 28 40 30 20 36 00 1e b3 10 00 00 1a
descriptor 3:    00 00 00 fe 00 42 4f 45 20 48 46 0a 20 20 20 20 20 20
descriptor 4:    00 00 00 fe 00 4e 56 31 33 33 57 55 4d 2d 54 30 30 0a
extensions:      00
checksum:        74

EDID version: 1.4
Manufacturer: BOE Model 980 Serial Number --
Made in week 30 of 2020
Digital display
8 bits per primary color channel
DisplayPort interface
Maximum image size: 29 cm x 18 cm
Gamma: 2.20
Supported color formats: RGB 4:4:4
First detailed timing includes the native pixel format and preferred refresh rate
Display is continuous frequency
Display x,y Chromaticity:
  Red:   0.6494, 0.3173
  Green: 0.2998, 0.6093
  Blue:  0.1494, 0.0576
  White: 0.3125, 0.3281
Established timings supported:
Standard timings supported:
Detailed mode: Clock 154.760 MHz, 286 mm x 179 mm
               1920 1968 2000 2080 hborder 0
               1200 1203 1209 1240 vborder 0
               +hsync -vsync 
               VertFreq: 60 Hz, HorFreq: 74403 Hz
Detailed mode: Clock 123.810 MHz, 286 mm x 179 mm
               1920 1968 2000 2080 hborder 0
               1200 1203 1209 1240 vborder 0
               +hsync -vsync 
               VertFreq: 48 Hz, HorFreq: 59524 Hz
ASCII string: BOE HF
ASCII string: NV133WUM-T00
Checksum: 0x74 (valid)
EDID block does NOT conform to EDID 1.4!
	Missing name descriptor
	Missing monitor ranges


