
EDID (hex):
00ffffffffffff004dd9004c01010101
0410010380291f78ea2695a2574a9d25
135054a10800a9408180814001010101
010101010101483f403062b0324040c0
130098321100001e000000fd00393f1c
4b10000a202020202020000000fc0053
444d2d53323035462f4b0a20000000ff
00363730313934300a20202020200047

Extracted contents:
header:          00 ff ff ff ff ff ff 00
serial number:   4d d9 00 4c 01 01 01 01 04 10
version:         01 03
basic params:    80 29 1f 78 ea
chroma info:     26 95 a2 57 4a 9d 25 13 50 54
established:     a1 08 00
standard:        a9 40 81 80 81 40 01 01 01 01 01 01 01 01 01 01
descriptor 1:    48 3f 40 30 62 b0 32 40 40 c0 13 00 98 32 11 00 00 1e
descriptor 2:    00 00 00 fd 00 39 3f 1c 4b 10 00 0a 20 20 20 20 20 20
descriptor 3:    00 00 00 fc 00 53 44 4d 2d 53 32 30 35 46 2f 4b 0a 20
descriptor 4:    00 00 00 ff 00 36 37 30 31 39 34 30 0a 20 20 20 20 20
extensions:      00
checksum:        47

EDID version: 1.3
Manufacturer: SNY Model 4c00 Serial Number --
Made in week 4 of 2006
Digital display
Maximum image size: 41 cm x 31 cm
Gamma: 2.20
DPMS levels: Standby Suspend Off
RGB color display
First detailed timing is preferred timing
Display x,y Chromaticity:
  Red:   0.6328, 0.3417
  Green: 0.2900, 0.6152
  Blue:  0.1464, 0.0751
  White: 0.3134, 0.3291
Established timings supported:
  720x400@70Hz 9:5 HorFreq: 31469 Hz Clock: 28.320 MHz
  640x480@60Hz 4:3 HorFreq: 31469 Hz Clock: 25.175 MHz
  800x600@60Hz 4:3 HorFreq: 37900 Hz Clock: 40.000 MHz
  1024x768@60Hz 4:3 HorFreq: 48400 Hz Clock: 65.000 MHz
Standard timings supported:
  1600x1200@60Hz 4:3 HorFreq: 75000 Hz Clock: 162.000 MHz
  1280x1024@60Hz 5:4 HorFreq: 64000 Hz Clock: 108.000 MHz
  1280x960@60Hz 4:3 HorFreq: 60000 Hz Clock: 108.000 MHz
Detailed mode: Clock 162.000 MHz, 408 mm x 306 mm
               1600 1664 1856 2160 hborder 0
               1200 1201 1204 1250 vborder 0
               +hsync +vsync 
               VertFreq: 60 Hz, HorFreq: 75000 Hz
Monitor ranges (GTF): 57-63Hz V, 28-75kHz H, max dotclock 160MHz
Monitor name: SDM-S205F/K
Serial number: --
Checksum: 0x47 (valid)
One or more of the timings is out of range of the Monitor Ranges:
  Vertical Freq: 60 - 70 Hz
  Horizontal Freq: 31469 - 75000 Hz
  Maximum Clock: 162.000 MHz
