
EDID (hex):
00ffffffffffff004c2d5d0d39334656
091a0103684627782a5a95a556539d25
0e5054b98c00b30081c0810081809500
a9c001010101023a801871382d40582c
4500ba892100001e662156aa51001e30
468f3300ba892100001e000000fd003c
481e5111000a202020202020000000fc
00563332463339300a2020202020001c

Extracted contents:
header:          00 ff ff ff ff ff ff 00
serial number:   4c 2d 5d 0d 39 33 46 56 09 1a
version:         01 03
basic params:    68 46 27 78 2a
chroma info:     5a 95 a5 56 53 9d 25 0e 50 54
established:     b9 8c 00
standard:        b3 00 81 c0 81 00 81 80 95 00 a9 c0 01 01 01 01
descriptor 1:    02 3a 80 18 71 38 2d 40 58 2c 45 00 ba 89 21 00 00 1e
descriptor 2:    66 21 56 aa 51 00 1e 30 46 8f 33 00 ba 89 21 00 00 1e
descriptor 3:    00 00 00 fd 00 3c 48 1e 51 11 00 0a 20 20 20 20 20 20
descriptor 4:    00 00 00 fc 00 56 33 32 46 33 39 30 0a 20 20 20 20 20
extensions:      00
checksum:        1c

EDID version: 1.3
Manufacturer: SAM Model d5d Serial Number --
Made in week 9 of 2016
Analog display, Input voltage level: 0.7/0.7 V
Sync: Separate 
Maximum image size: 70 cm x 39 cm
Gamma: 2.20
DPMS levels: Off
RGB color display
First detailed timing is preferred timing
Display x,y Chromaticity:
  Red:   0.6455, 0.3369
  Green: 0.3261, 0.6152
  Blue:  0.1464, 0.0556
  White: 0.3134, 0.3291
Established timings supported:
  720x400@70Hz 9:5 HorFreq: 31469 Hz Clock: 28.320 MHz
  640x480@60Hz 4:3 HorFreq: 31469 Hz Clock: 25.175 MHz
  640x480@67Hz 4:3 HorFreq: 35000 Hz Clock: 30.240 MHz
  640x480@72Hz 4:3 HorFreq: 37900 Hz Clock: 31.500 MHz
  800x600@60Hz 4:3 HorFreq: 37900 Hz Clock: 40.000 MHz
  800x600@72Hz 4:3 HorFreq: 48100 Hz Clock: 50.000 MHz
  1024x768@60Hz 4:3 HorFreq: 48400 Hz Clock: 65.000 MHz
  1024x768@70Hz 4:3 HorFreq: 56500 Hz Clock: 75.000 MHz
Standard timings supported:
  1680x1050@60Hz 16:10 HorFreq: 64700 Hz Clock: 119.000 MHz
  1280x720@60Hz 16:9
  1280x800@60Hz 16:10
  1280x1024@60Hz 5:4 HorFreq: 64000 Hz Clock: 108.000 MHz
  1440x900@60Hz 16:10 HorFreq: 55500 Hz Clock: 88.750 MHz
  1600x900@60Hz 16:9
Detailed mode: Clock 148.500 MHz, 698 mm x 393 mm
               1920 2008 2052 2200 hborder 0
               1080 1084 1089 1125 vborder 0
               +hsync +vsync 
               VertFreq: 60 Hz, HorFreq: 67500 Hz
Detailed mode: Clock 85.500 MHz, 698 mm x 393 mm
               1366 1436 1579 1792 hborder 0
                768  771  774  798 vborder 0
               +hsync +vsync 
               VertFreq: 59 Hz, HorFreq: 47712 Hz
Monitor ranges (GTF): 60-72Hz V, 30-81kHz H, max dotclock 170MHz
Monitor name: V32F390
Checksum: 0x1c (valid)
One or more of the timings is out of range of the Monitor Ranges:
  Vertical Freq: 59 - 72 Hz
  Horizontal Freq: 31469 - 67500 Hz
  Maximum Clock: 148.500 MHz
