edid-decode (hex):

00 ff ff ff ff ff ff 00 34 a4 85 98 32 78 00 00
30 0d 01 03 68 40 26 78 2a e3 7c a4 54 45 99 24
12 48 4b bf ee 00 01 01 01 01 01 01 01 01 01 01
01 01 01 01 01 01 4e 1f 00 90 51 00 1b 30 40 88
13 00 72 dd 10 00 00 1c 00 00 00 fd 00 38 4c 1f
3d 09 00 0a 20 20 20 20 20 20 00 00 00 ff 00 39
45 4c 33 34 38 30 33 30 37 37 30 0a 00 00 00 fc
00 4d 44 37 33 33 30 54 4a 20 20 20 20 20 00 21

00 ff ff ff ff ff ff 00 34 a4 85 98 32 78 00 00
30 0d 01 03 68 40 26 78 2a e3 7c a4 54 45 99 24
12 48 4b bf ee 00 01 01 01 01 01 01 01 01 01 01
01 01 01 01 01 01 4e 1f 00 90 51 00 1b 30 40 88
13 00 72 dd 10 00 00 1c 00 00 00 fd 00 38 4c 1f
3d 09 00 0a 20 20 20 20 20 20 00 00 00 ff 00 39
45 4c 33 34 38 30 33 30 37 37 30 0a 00 00 00 fc
00 4d 44 37 33 33 30 54 4a 20 20 20 20 20 00 21

----------------

Block 0, Base EDID:
  EDID Structure Version & Revision: 1.3
  Vendor & Product Identification:
    Manufacturer: MED
    Model: 39045
    Serial Number: ...
    Made in: week 48 of 2003
  Basic Display Parameters & Features:
    Analog display
    Signal Level Standard: 0.700 : 0.000 : 0.700 V p-p
    Blank level equals black level
    Sync: Separate
    Maximum image size: 64 cm x 38 cm
    Gamma: 2.20
    DPMS levels: Off
    RGB color display
    First detailed timing is the preferred timing
  Color Characteristics:
    Red  : 0.6435, 0.3300
    Green: 0.2695, 0.6005
    Blue : 0.1416, 0.0732
    White: 0.2841, 0.2929
  Established Timings I & II:
    IBM     :   720x400    70.081663 Hz   9:5     31.467 kHz     28.320000 MHz
    DMT 0x04:   640x480    59.940476 Hz   4:3     31.469 kHz     25.175000 MHz
    Apple   :   640x480    66.666667 Hz   4:3     35.000 kHz     30.240000 MHz
    DMT 0x05:   640x480    72.808802 Hz   4:3     37.861 kHz     31.500000 MHz
    DMT 0x06:   640x480    75.000000 Hz   4:3     37.500 kHz     31.500000 MHz
    DMT 0x08:   800x600    56.250000 Hz   4:3     35.156 kHz     36.000000 MHz
    DMT 0x09:   800x600    60.316541 Hz   4:3     37.879 kHz     40.000000 MHz
    DMT 0x0a:   800x600    72.187572 Hz   4:3     48.077 kHz     50.000000 MHz
    DMT 0x0b:   800x600    75.000000 Hz   4:3     46.875 kHz     49.500000 MHz
    Apple   :   832x624    74.551266 Hz   4:3     49.726 kHz     57.284000 MHz
    DMT 0x10:  1024x768    60.003840 Hz   4:3     48.363 kHz     65.000000 MHz
    DMT 0x11:  1024x768    70.069359 Hz   4:3     56.476 kHz     75.000000 MHz
    DMT 0x12:  1024x768    75.028582 Hz   4:3     60.023 kHz     78.750000 MHz
  Standard Timings: none
  Detailed Timing Descriptors:
    DTD 1:  1280x768    60.002995 Hz   5:3     47.702 kHz     80.140000 MHz (370 mm x 221 mm)
                 Hfront   64 Hsync 136 Hback  200 Hpol N
                 Vfront    1 Vsync   3 Vback   23 Vpol P
    Display Range Limits:
      Monitor ranges (GTF): 56-76 Hz V, 31-61 kHz H, max dotclock 90 MHz
    Display Product Serial Number: ...
    Display Product Name: 'MD7330TJ     '
Checksum: 0x21

----------------

Block 1, Unknown EDID Extension Block 0x00:
  00 ff ff ff ff ff ff 00 34 a4 85 98 32 78 00 00 '........4...2x..'
  30 0d 01 03 68 40 26 78 2a e3 7c a4 54 45 99 24 '0...h@&x*.|.TE.$'
  12 48 4b bf ee 00 01 01 01 01 01 01 01 01 01 01 '.HK.............'
  01 01 01 01 01 01 4e 1f 00 90 51 00 1b 30 40 88 '......N...Q..0@.'
  13 00 72 dd 10 00 00 1c 00 00 00 fd 00 38 4c 1f '..r..........8L.'
  3d 09 00 0a 20 20 20 20 20 20 00 00 00 ff 00 39 '=...      .....9'
  45 4c 33 34 38 30 33 30 37 37 30 0a 00 00 00 fc 'EL348030770.....'
  00 4d 44 37 33 33 30 54 4a 20 20 20 20 20 00 21 '.MD7330TJ     .!'
Checksum: 0x21

----------------

Failures:

Block 0, Base EDID:
  Detailed Timing Descriptor #1: Mismatch of image size 370x221 mm vs display size 640x380 mm.
  Display Product Name: One or more trailing spaces.
Block 1, Base EDID:
  Unknown Extension Block.
EDID:
  Base EDID: EDID specified 0 extension block(s), but found 1 extension block(s).

EDID conformity: FAIL
