edid-decode (hex):

00 ff ff ff ff ff ff 00 09 e5 fa 09 00 00 00 00
04 1f 01 04 a5 1a 0e 78 02 10 89 96 5d 5a 94 29
1f 50 56 00 00 00 01 01 01 01 01 01 01 01 01 01
01 01 01 01 01 01 88 1d 56 d5 50 00 1e 30 30 20
35 00 00 90 10 00 00 1a a0 17 56 d5 50 00 1e 30
30 20 35 00 00 90 10 00 00 1a 00 00 00 fe 00 37
4b 34 50 57 80 4e 54 31 31 54 30 30 00 00 00 00
00 00 41 21 96 00 10 00 00 09 01 0a 20 20 00 d3

00 ff ff ff ff ff ff 00 09 e5 fa 09 00 00 00 00
04 1f 01 04 a5 1a 0e 78 02 10 89 96 5d 5a 94 29
1f 50 56 00 00 00 01 01 01 01 01 01 01 01 01 01
01 01 01 01 01 01 88 1d 56 d5 50 00 1e 30 30 20
35 00 00 90 10 00 00 1a a0 17 56 d5 50 00 1e 30
30 20 35 00 00 90 10 00 00 1a 00 00 00 fe 00 37
4b 34 50 57 80 4e 54 31 31 54 30 30 00 00 00 00
00 00 41 21 96 00 10 00 00 09 01 0a 20 20 00 d3

----------------

Block 0, Base EDID:
  EDID Structure Version & Revision: 1.4
  Vendor & Product Identification:
    Manufacturer: BOE
    Model: 2554
    Made in: week 4 of 2021
  Basic Display Parameters & Features:
    Digital display
    Bits per primary color channel: 8
    DisplayPort interface
    Maximum image size: 26 cm x 14 cm
    Gamma: 2.20
    Supported color formats: RGB 4:4:4
    First detailed timing includes the native pixel format and preferred refresh rate
  Color Characteristics:
    Red  : 0.5859, 0.3642
    Green: 0.3515, 0.5781
    Blue : 0.1621, 0.1210
    White: 0.3144, 0.3369
  Established Timings I & II: none
  Standard Timings: none
  Detailed Timing Descriptors:
    DTD 1:  1366x768    59.998000 Hz 683:384   47.878 kHz     75.600000 MHz (256 mm x 144 mm)
                 Hfront   48 Hsync  32 Hback  133 Hpol P
                 Vfront    3 Vsync   5 Vback   22 Vpol N
    DTD 2:  1366x768    47.998400 Hz 683:384   38.303 kHz     60.480000 MHz (256 mm x 144 mm)
                 Hfront   48 Hsync  32 Hback  133 Hpol P
                 Vfront    3 Vsync   5 Vback   22 Vpol N
    Alphanumeric Data String: '7K4PW'
    Manufacturer-Specified Display Descriptor (0x00): 00 00 00 00 41 21 96 00 10 00 00 09 01 0a 20 20 '....A!........  '
Checksum: 0xd3

----------------

Block 1, Unknown EDID Extension Block 0x00:
  00 ff ff ff ff ff ff 00 09 e5 fa 09 00 00 00 00 '................'
  04 1f 01 04 a5 1a 0e 78 02 10 89 96 5d 5a 94 29 '.......x....]Z.)'
  1f 50 56 00 00 00 01 01 01 01 01 01 01 01 01 01 '.PV.............'
  01 01 01 01 01 01 88 1d 56 d5 50 00 1e 30 30 20 '........V.P..00 '
  35 00 00 90 10 00 00 1a a0 17 56 d5 50 00 1e 30 '5.........V.P..0'
  30 20 35 00 00 90 10 00 00 1a 00 00 00 fe 00 37 '0 5............7'
  4b 34 50 57 80 4e 54 31 31 54 30 30 00 00 00 00 'K4PW.NT11T00....'
  00 00 41 21 96 00 10 00 00 09 01 0a 20 20 00 d3 '..A!........  ..'
Checksum: 0xd3

----------------

Warnings:

Block 0, Base EDID:
  Missing Display Product Name.

Failures:

Block 0, Base EDID:
  Alphanumeric Data String: Non-printable character.
Block 1, Base EDID:
  Unknown Extension Block.
EDID:
  Base EDID: EDID specified 0 extension block(s), but found 1 extension block(s).

EDID conformity: FAIL
