
EDID (hex):
00ffffffffffff0063050c7001010101
2310010368221b64eaeea69e544c9926
194f542dcf0081800101010101010101
010101010101bc34009851002a401090
1300540e1100001e000000fd00384c1e
500e0a20202020202020000000ff0030
303030303030303030303030000000fc
00313922205446542d4c43440a00001f

Extracted contents:
header:          00 ff ff ff ff ff ff 00
serial number:   63 05 0c 70 01 01 01 01 23 10
version:         01 03
basic params:    68 22 1b 64 ea
chroma info:     ee a6 9e 54 4c 99 26 19 4f 54
established:     2d cf 00
standard:        81 80 01 01 01 01 01 01 01 01 01 01 01 01 01 01
descriptor 1:    bc 34 00 98 51 00 2a 40 10 90 13 00 54 0e 11 00 00 1e
descriptor 2:    00 00 00 fd 00 38 4c 1e 50 0e 0a 20 20 20 20 20 20 20
descriptor 3:    00 00 00 ff 00 30 30 30 30 30 30 30 30 30 30 30 30 30
descriptor 4:    00 00 00 fc 00 31 39 22 20 54 46 54 2d 4c 43 44 0a 00
extensions:      00
checksum:        1f

EDID version: 1.3
Manufacturer: XXE Model 700c Serial Number --
Made in week 35 of 2006
Analog display, Input voltage level: 0.7/0.7 V
Sync: Separate 
Maximum image size: 34 cm x 27 cm
Gamma: 2.00
DPMS levels: Standby Suspend Off
RGB color display
First detailed timing is preferred timing
Display x,y Chromaticity:
  Red:   0.6201, 0.3300
  Green: 0.2998, 0.5996
  Blue:  0.1503, 0.0996
  White: 0.3095, 0.3300
Established timings supported:
  640x480@60Hz 4:3 HorFreq: 31469 Hz Clock: 25.175 MHz
  640x480@72Hz 4:3 HorFreq: 37900 Hz Clock: 31.500 MHz
  640x480@75Hz 4:3 HorFreq: 37500 Hz Clock: 31.500 MHz
  800x600@60Hz 4:3 HorFreq: 37900 Hz Clock: 40.000 MHz
  800x600@72Hz 4:3 HorFreq: 48100 Hz Clock: 50.000 MHz
  800x600@75Hz 4:3 HorFreq: 46900 Hz Clock: 49.500 MHz
  1024x768@60Hz 4:3 HorFreq: 48400 Hz Clock: 65.000 MHz
  1024x768@70Hz 4:3 HorFreq: 56500 Hz Clock: 75.000 MHz
  1024x768@75Hz 4:3 HorFreq: 60000 Hz Clock: 78.750 MHz
  1280x1024@75Hz 5:4 HorFreq: 80000 Hz Clock: 135.000 MHz
Standard timings supported:
  1280x1024@60Hz 5:4 HorFreq: 64000 Hz Clock: 108.000 MHz
Detailed mode: Clock 135.000 MHz, 340 mm x 270 mm
               1280 1296 1440 1688 hborder 0
               1024 1025 1028 1066 vborder 0
               +hsync +vsync 
               VertFreq: 75 Hz, HorFreq: 79976 Hz
Monitor ranges (invalid): 56-76Hz V, 30-80kHz H, max dotclock 140MHz
Serial number: --
Monitor name: 19" TFT-LCD
Checksum: 0x1f (valid)
EDID block does not conform at all!
	Detailed blocks filled with garbage
	Range descriptor contains garbage
