
EDID (hex):
00ffffffffffff004d104d1400000000
28190104a51c10780edf50a35435b526
0f505400000001010101010101010101
0101010101014dd000a0f0703e803020
3500149c100000180000001000000000
00000000000000000000000000100000
000000000000000000000000000000fe
004c5131323544314a5733330a200081

Extracted contents:
header:          00 ff ff ff ff ff ff 00
serial number:   4d 10 4d 14 00 00 00 00 28 19
version:         01 04
basic params:    a5 1c 10 78 0e
chroma info:     df 50 a3 54 35 b5 26 0f 50 54
established:     00 00 00
standard:        01 01 01 01 01 01 01 01 01 01 01 01 01 01 01 01
descriptor 1:    4d d0 00 a0 f0 70 3e 80 30 20 35 00 14 9c 10 00 00 18
descriptor 2:    00 00 00 10 00 00 00 00 00 00 00 00 00 00 00 00 00 00
descriptor 3:    00 00 00 10 00 00 00 00 00 00 00 00 00 00 00 00 00 00
descriptor 4:    00 00 00 fe 00 4c 51 31 32 35 44 31 4a 57 33 33 0a 20
extensions:      00
checksum:        81

EDID version: 1.4
Manufacturer: SHP Model 144d Serial Number --
Made in week 40 of 2015
Digital display
8 bits per primary color channel
DisplayPort interface
Maximum image size: 28 cm x 16 cm
Gamma: 2.20
Supported color formats: RGB 4:4:4, YCrCb 4:4:4
Default (sRGB) color space is primary color space
First detailed timing includes the native pixel format and preferred refresh rate
Display x,y Chromaticity:
  Red:   0.6396, 0.3291
  Green: 0.2099, 0.7099
  Blue:  0.1494, 0.0595
  White: 0.3125, 0.3281
Established timings supported:
Standard timings supported:
Detailed mode: Clock 533.250 MHz, 276 mm x 156 mm
               3840 3888 3920 4000 hborder 0
               2160 2163 2168 2222 vborder 0
               -hsync -vsync 
               VertFreq: 59 Hz, HorFreq: 133312 Hz
Dummy block
Dummy block
ASCII string: LQ125D1JW33
Checksum: 0x81 (valid)
EDID block does NOT conform to EDID 1.4!
	sRGB is signaled, but the chromaticities do not match
	Missing name descriptor
	Missing monitor ranges


