
EDID (hex):
00ffffffffffff000469a53201010101
0a19010380472878ea9185a7554ea025
0c5054bfef00714f8180814081c09500
b300d1c0d100565e00a0a0a029503020
3500c48f2100001a000000fd00314c1d
7119000a202020202020000000fc0050
423332380a20202020202020000000ff
0046334c4d51533030353332330a004a

Extracted contents:
header:          00 ff ff ff ff ff ff 00
serial number:   04 69 a5 32 01 01 01 01 0a 19
version:         01 03
basic params:    80 47 28 78 ea
chroma info:     91 85 a7 55 4e a0 25 0c 50 54
established:     bf ef 00
standard:        71 4f 81 80 81 40 81 c0 95 00 b3 00 d1 c0 d1 00
descriptor 1:    56 5e 00 a0 a0 a0 29 50 30 20 35 00 c4 8f 21 00 00 1a
descriptor 2:    00 00 00 fd 00 31 4c 1d 71 19 00 0a 20 20 20 20 20 20
descriptor 3:    00 00 00 fc 00 50 42 33 32 38 0a 20 20 20 20 20 20 20
descriptor 4:    00 00 00 ff 00 46 33 4c 4d 51 53 30 30 35 33 32 33 0a
extensions:      00
checksum:        4a

EDID version: 1.3
Manufacturer: ACI Model 32a5 Serial Number --
Made in week 10 of 2015
Digital display
Maximum image size: 71 cm x 40 cm
Gamma: 2.20
DPMS levels: Standby Suspend Off
RGB color display
First detailed timing is preferred timing
Display x,y Chromaticity:
  Red:   0.6542, 0.3330
  Green: 0.3046, 0.6259
  Blue:  0.1464, 0.0468
  White: 0.3134, 0.3291
Established timings supported:
  720x400@70Hz 9:5 HorFreq: 31469 Hz Clock: 28.320 MHz
  640x480@60Hz 4:3 HorFreq: 31469 Hz Clock: 25.175 MHz
  640x480@67Hz 4:3 HorFreq: 35000 Hz Clock: 30.240 MHz
  640x480@72Hz 4:3 HorFreq: 37900 Hz Clock: 31.500 MHz
  640x480@75Hz 4:3 HorFreq: 37500 Hz Clock: 31.500 MHz
  800x600@56Hz 4:3 HorFreq: 35200 Hz Clock: 36.000 MHz
  800x600@60Hz 4:3 HorFreq: 37900 Hz Clock: 40.000 MHz
  800x600@72Hz 4:3 HorFreq: 48100 Hz Clock: 50.000 MHz
  800x600@75Hz 4:3 HorFreq: 46900 Hz Clock: 49.500 MHz
  832x624@75Hz 4:3 HorFreq: 49726 Hz Clock: 57.284 MHz
  1024x768@60Hz 4:3 HorFreq: 48400 Hz Clock: 65.000 MHz
  1024x768@70Hz 4:3 HorFreq: 56500 Hz Clock: 75.000 MHz
  1024x768@75Hz 4:3 HorFreq: 60000 Hz Clock: 78.750 MHz
  1280x1024@75Hz 5:4 HorFreq: 80000 Hz Clock: 135.000 MHz
Standard timings supported:
  1152x864@75Hz 4:3 HorFreq: 67500 Hz Clock: 108.000 MHz
  1280x1024@60Hz 5:4 HorFreq: 64000 Hz Clock: 108.000 MHz
  1280x960@60Hz 4:3 HorFreq: 60000 Hz Clock: 108.000 MHz
  1280x720@60Hz 16:9
  1440x900@60Hz 16:10 HorFreq: 55500 Hz Clock: 88.750 MHz
  1680x1050@60Hz 16:10 HorFreq: 64700 Hz Clock: 119.000 MHz
  1920x1080@60Hz 16:9
  1920x1200@60Hz 16:10 HorFreq: 74000 Hz Clock: 154.000 MHz
Detailed mode: Clock 241.500 MHz, 708 mm x 399 mm
               2560 2608 2640 2720 hborder 0
               1440 1443 1448 1481 vborder 0
               +hsync -vsync 
               VertFreq: 59 Hz, HorFreq: 88786 Hz
Monitor ranges (GTF): 49-76Hz V, 29-113kHz H, max dotclock 250MHz
Monitor name: PB328
Serial number: --
Checksum: 0x4a (valid)
