
EDID (hex):
00ffffffffffff004d10171400000000
0c180104951a0e780e3e778b52569227
1d4d4f00000001010101010101010101
010101010101bf1a5650500016300820
8800009010000018bf1a56505000da30
0820c800009010000018000000fe0037
35484e48804c513131364b3100000000
000001033c0012000009010a2020008b

Extracted contents:
header:          00 ff ff ff ff ff ff 00
serial number:   4d 10 17 14 00 00 00 00 0c 18
version:         01 04
basic params:    95 1a 0e 78 0e
chroma info:     3e 77 8b 52 56 92 27 1d 4d 4f
established:     00 00 00
standard:        01 01 01 01 01 01 01 01 01 01 01 01 01 01 01 01
descriptor 1:    bf 1a 56 50 50 00 16 30 08 20 88 00 00 90 10 00 00 18
descriptor 2:    bf 1a 56 50 50 00 da 30 08 20 c8 00 00 90 10 00 00 18
descriptor 3:    00 00 00 fe 00 37 35 48 4e 48 80 4c 51 31 31 36 4b 31
descriptor 4:    00 00 00 00 00 00 01 03 3c 00 12 00 00 09 01 0a 20 20
extensions:      00
checksum:        8b

EDID version: 1.4
Manufacturer: SHP Model 1417 Serial Number --
Made in week 12 of 2014
Digital display
6 bits per primary color channel
DisplayPort interface
Maximum image size: 26 cm x 14 cm
Gamma: 2.20
Supported color formats: RGB 4:4:4, YCrCb 4:4:4
Default (sRGB) color space is primary color space
First detailed timing includes the native pixel format and preferred refresh rate
Display x,y Chromaticity:
  Red:   0.5429, 0.3232
  Green: 0.3388, 0.5722
  Blue:  0.1533, 0.1162
  White: 0.3017, 0.3115
Established timings supported:
Standard timings supported:
Detailed mode: Clock 68.470 MHz, 256 mm x 144 mm
               1366 1374 1406 1446 hborder 0
                768  776  784  790 vborder 0
               -hsync -vsync 
               VertFreq: 59 Hz, HorFreq: 47351 Hz
Detailed mode: Clock 68.470 MHz, 256 mm x 144 mm
               1366 1374 1406 1446 hborder 0
                768  780  788  986 vborder 0
               -hsync -vsync 
               VertFreq: 48 Hz, HorFreq: 47351 Hz
ASCII string: 75HNH
Manufacturer-specified data, tag 0
Checksum: 0x8b (valid)
EDID block does NOT conform to EDID 1.4!
	sRGB is signaled, but the chromaticities do not match
	Missing name descriptor
	Missing monitor ranges
	Detailed block string not properly terminated
