
EDID (hex):
00ffffffffffff0004727300d8678190
08130103082c1978eade95a3544c9926
0f5054bfef80714f8140818081c08100
010101010101312e40006284223058a8
3500bbf91000001d000000fd00374b1f
500c000a202020202020000000ff004c
45563043303032343030300a000000fc
0058323033480a2020202020202000da

Extracted contents:
header:          00 ff ff ff ff ff ff 00
serial number:   04 72 73 00 d8 67 81 90 08 13
version:         01 03
basic params:    08 2c 19 78 ea
chroma info:     de 95 a3 54 4c 99 26 0f 50 54
established:     bf ef 80
standard:        71 4f 81 40 81 80 81 c0 81 00 01 01 01 01 01 01
descriptor 1:    31 2e 40 00 62 84 22 30 58 a8 35 00 bb f9 10 00 00 1d
descriptor 2:    00 00 00 fd 00 37 4b 1f 50 0c 00 0a 20 20 20 20 20 20
descriptor 3:    00 00 00 ff 00 4c 45 56 30 43 30 30 32 34 30 30 30 0a
descriptor 4:    00 00 00 fc 00 58 32 30 33 48 0a 20 20 20 20 20 20 20
extensions:      00
checksum:        da

EDID version: 1.3
Manufacturer: ACR Model 73 Serial Number --
Made in week 8 of 2009
Analog display, Input voltage level: 0.7/0.3 V
Sync: Separate 
Maximum image size: 44 cm x 25 cm
Gamma: 2.20
DPMS levels: Standby Suspend Off
RGB color display
First detailed timing is preferred timing
Display x,y Chromaticity:
  Red:   0.6396, 0.3291
  Green: 0.2998, 0.5996
  Blue:  0.1503, 0.0595
  White: 0.3134, 0.3291
Established timings supported:
  720x400@70Hz 9:5 HorFreq: 31469 Hz Clock: 28.320 MHz
  640x480@60Hz 4:3 HorFreq: 31469 Hz Clock: 25.175 MHz
  640x480@67Hz 4:3 HorFreq: 35000 Hz Clock: 30.240 MHz
  640x480@72Hz 4:3 HorFreq: 37900 Hz Clock: 31.500 MHz
  640x480@75Hz 4:3 HorFreq: 37500 Hz Clock: 31.500 MHz
  800x600@56Hz 4:3 HorFreq: 35200 Hz Clock: 36.000 MHz
  800x600@60Hz 4:3 HorFreq: 37900 Hz Clock: 40.000 MHz
  800x600@72Hz 4:3 HorFreq: 48100 Hz Clock: 50.000 MHz
  800x600@75Hz 4:3 HorFreq: 46900 Hz Clock: 49.500 MHz
  832x624@75Hz 4:3 HorFreq: 49726 Hz Clock: 57.284 MHz
  1024x768@60Hz 4:3 HorFreq: 48400 Hz Clock: 65.000 MHz
  1024x768@70Hz 4:3 HorFreq: 56500 Hz Clock: 75.000 MHz
  1024x768@75Hz 4:3 HorFreq: 60000 Hz Clock: 78.750 MHz
  1280x1024@75Hz 5:4 HorFreq: 80000 Hz Clock: 135.000 MHz
  1152x870@75Hz 192:145 HorFreq: 67500 Hz Clock: 108.000 MHz
Standard timings supported:
  1152x864@75Hz 4:3 HorFreq: 67500 Hz Clock: 108.000 MHz
  1280x960@60Hz 4:3 HorFreq: 60000 Hz Clock: 108.000 MHz
  1280x1024@60Hz 5:4 HorFreq: 64000 Hz Clock: 108.000 MHz
  1280x720@60Hz 16:9
  1280x800@60Hz 16:10
Detailed mode: Clock 118.250 MHz, 443 mm x 249 mm
               1600 1688 1856 2112 hborder 0
                900  903  908  934 vborder 0
               -hsync +vsync 
               VertFreq: 59 Hz, HorFreq: 55989 Hz
Monitor ranges (GTF): 55-75Hz V, 31-80kHz H, max dotclock 120MHz
Serial number: --
Monitor name: X203H
Checksum: 0xda (valid)
One or more of the timings is out of range of the Monitor Ranges:
  Vertical Freq: 56 - 75 Hz
  Horizontal Freq: 31469 - 80000 Hz
  Maximum Clock: 135.000 MHz
