
EDID (hex):
00ffffffffffff0031d8888800888888
1c150103800000780aee91a3544c9926
0f50543fcd0001000101010101010101
010101010101011d007251d01e206e28
5500c48e2100001e8c0ad08a20e02d10
103e9600138e2100001e000000fc0050
694b564d0a20202020202020000000fd
003b3d0f2e0f1e0a202020202020013c
02031d034e041303021211012021a23c
3d3e1f66030c00300080e2007f8c0ad0
8a20e02d10103e9600c48e210000188c
0ad08a20e02d10103e9600138e210000
189729a0d051842230509816009a0111
00001800000000000000000000000000
00000000000000000000000000000000
0000000000000000000000000000006e

Extracted contents:
header:          00 ff ff ff ff ff ff 00
serial number:   31 d8 88 88 00 88 88 88 1c 15
version:         01 03
basic params:    80 00 00 78 0a
chroma info:     ee 91 a3 54 4c 99 26 0f 50 54
established:     3f cd 00
standard:        01 00 01 01 01 01 01 01 01 01 01 01 01 01 01 01
descriptor 1:    01 1d 00 72 51 d0 1e 20 6e 28 55 00 c4 8e 21 00 00 1e
descriptor 2:    8c 0a d0 8a 20 e0 2d 10 10 3e 96 00 13 8e 21 00 00 1e
descriptor 3:    00 00 00 fc 00 50 69 4b 56 4d 0a 20 20 20 20 20 20 20
descriptor 4:    00 00 00 fd 00 3b 3d 0f 2e 0f 1e 0a 20 20 20 20 20 20
extensions:      01
checksum:        3c

EDID version: 1.3
Manufacturer: LNX Model 8888 Serial Number --
Made in week 28 of 2011
Digital display
Image size is variable
Gamma: 2.20
RGB color display
First detailed timing is preferred timing
Display x,y Chromaticity:
  Red:   0.6396, 0.3300
  Green: 0.2998, 0.5996
  Blue:  0.1503, 0.0595
  White: 0.3125, 0.3291
Established timings supported:
  640x480@60Hz 4:3 HorFreq: 31469 Hz Clock: 25.175 MHz
  640x480@67Hz 4:3 HorFreq: 35000 Hz Clock: 30.240 MHz
  640x480@72Hz 4:3 HorFreq: 37900 Hz Clock: 31.500 MHz
  640x480@75Hz 4:3 HorFreq: 37500 Hz Clock: 31.500 MHz
  800x600@56Hz 4:3 HorFreq: 35200 Hz Clock: 36.000 MHz
  800x600@60Hz 4:3 HorFreq: 37900 Hz Clock: 40.000 MHz
  800x600@72Hz 4:3 HorFreq: 48100 Hz Clock: 50.000 MHz
  800x600@75Hz 4:3 HorFreq: 46900 Hz Clock: 49.500 MHz
  1024x768@60Hz 4:3 HorFreq: 48400 Hz Clock: 65.000 MHz
  1024x768@70Hz 4:3 HorFreq: 56500 Hz Clock: 75.000 MHz
  1280x1024@75Hz 5:4 HorFreq: 80000 Hz Clock: 135.000 MHz
Standard timings supported:
  256x160@60Hz 16:10
Detailed mode: Clock 74.250 MHz, 708 mm x 398 mm
               1280 1390 1430 1650 hborder 0
                720  725  730  750 vborder 0
               +hsync +vsync 
               VertFreq: 60 Hz, HorFreq: 45000 Hz
Detailed mode: Clock 27.000 MHz, 531 mm x 398 mm
                720  736  798  858 hborder 0
                480  489  495  525 vborder 0
               +hsync +vsync 
               VertFreq: 59 Hz, HorFreq: 31468 Hz
Monitor name: PiKVM
Monitor ranges (invalid): 59-61Hz V, 15-46kHz H, max dotclock 150MHz
Has 1 extension blocks
Checksum: 0x3c (valid)

CTA extension block
Extension version: 3
25 bytes of CTA data
  Video data block
    VIC   4 1280x720@60Hz 16:9  HorFreq: 45000 Hz Clock: 74.250 MHz
    VIC  19 1280x720@50Hz 16:9  HorFreq: 37500 Hz Clock: 74.250 MHz
    VIC   3 720x480@60Hz 16:9  HorFreq: 31469 Hz Clock: 27.000 MHz
    VIC   2 720x480@60Hz 4:3  HorFreq: 31469 Hz Clock: 27.000 MHz
    VIC  18 720x576@50Hz 16:9  HorFreq: 31250 Hz Clock: 27.000 MHz
    VIC  17 720x576@50Hz 4:3  HorFreq: 31250 Hz Clock: 27.000 MHz
    VIC   1 640x480@60Hz 4:3  HorFreq: 31469 Hz Clock: 25.175 MHz
    VIC  32 1920x1080@24Hz 16:9  HorFreq: 27000 Hz Clock: 74.250 MHz
    VIC  33 1920x1080@25Hz 16:9  HorFreq: 28125 Hz Clock: 74.250 MHz
    VIC  34 1920x1080@30Hz 16:9 (native) HorFreq: 33750 Hz Clock: 74.250 MHz
    VIC  60 1280x720@24Hz 16:9  HorFreq: 18000 Hz Clock: 59.400 MHz
    VIC  61 1280x720@25Hz 16:9  HorFreq: 18750 Hz Clock: 74.250 MHz
    VIC  62 1280x720@30Hz 16:9  HorFreq: 22500 Hz Clock: 74.250 MHz
    VIC  31 1920x1080@50Hz 16:9  HorFreq: 56250 Hz Clock: 148.500 MHz
  Vendor-specific data block, OUI 000c03 (HDMI)
    Source physical address 3.0.0.0
    Supports_AI
  Extended tag: Video capability data block
    YCbCr quantization: No Data (0)
    RGB quantization: Selectable (via AVI Q) (1)
    PT scan behaviour: Support both over- and underscan (3)
    IT scan behaviour: Support both over- and underscan (3)
    CE scan behaviour: Support both over- and underscan (3)
3 native detailed modes
Detailed mode: Clock 27.000 MHz, 708 mm x 398 mm
                720  736  798  858 hborder 0
                480  489  495  525 vborder 0
               -hsync -vsync 
               VertFreq: 59 Hz, HorFreq: 31468 Hz
Detailed mode: Clock 27.000 MHz, 531 mm x 398 mm
                720  736  798  858 hborder 0
                480  489  495  525 vborder 0
               -hsync -vsync 
               VertFreq: 59 Hz, HorFreq: 31468 Hz
Detailed mode: Clock 106.470 MHz, 410 mm x 257 mm
               1440 1520 1672 1904 hborder 0
                900  901  907  934 vborder 0
               -hsync -vsync 
               VertFreq: 59 Hz, HorFreq: 55919 Hz
Checksum: 0x6e (valid)

EDID block does not conform at all!
	Detailed blocks filled with garbage
	Range descriptor contains garbage
