
EDID (hex):
00ffffffffffff004d10181500000000
2d1f0104a52517780fde50a3544c9926
0f505400000001010101010101010101
010101010101283c80a070b023403020
36006ee510000018203080a070b02340
302036006ee510000018000000fe0056
52583733804c513137304e3100000000
0002410332001200000a010a20200059

Extracted contents:
header:          00 ff ff ff ff ff ff 00
serial number:   4d 10 18 15 00 00 00 00 2d 1f
version:         01 04
basic params:    a5 25 17 78 0f
chroma info:     de 50 a3 54 4c 99 26 0f 50 54
established:     00 00 00
standard:        01 01 01 01 01 01 01 01 01 01 01 01 01 01 01 01
descriptor 1:    28 3c 80 a0 70 b0 23 40 30 20 36 00 6e e5 10 00 00 18
descriptor 2:    20 30 80 a0 70 b0 23 40 30 20 36 00 6e e5 10 00 00 18
descriptor 3:    00 00 00 fe 00 56 52 58 37 33 80 4c 51 31 37 30 4e 31
descriptor 4:    00 00 00 00 00 02 41 03 32 00 12 00 00 0a 01 0a 20 20
extensions:      00
checksum:        59

EDID version: 1.4
Manufacturer: SHP Model 1518 Serial Number --
Made in week 45 of 2021
Digital display
8 bits per primary color channel
DisplayPort interface
Maximum image size: 37 cm x 23 cm
Gamma: 2.20
Supported color formats: RGB 4:4:4, YCrCb 4:4:4
Default (sRGB) color space is primary color space
First detailed timing includes the native pixel format and preferred refresh rate
Display is continuous frequency
Display x,y Chromaticity:
  Red:   0.6396, 0.3291
  Green: 0.2998, 0.5996
  Blue:  0.1494, 0.0595
  White: 0.3125, 0.3281
Established timings supported:
Standard timings supported:
Detailed mode: Clock 154.000 MHz, 366 mm x 229 mm
               1920 1968 2000 2080 hborder 0
               1200 1203 1209 1235 vborder 0
               -hsync -vsync 
               VertFreq: 59 Hz, HorFreq: 74038 Hz
Detailed mode: Clock 123.200 MHz, 366 mm x 229 mm
               1920 1968 2000 2080 hborder 0
               1200 1203 1209 1235 vborder 0
               -hsync -vsync 
               VertFreq: 47 Hz, HorFreq: 59230 Hz
ASCII string: VRX73
Manufacturer-specified data, tag 0
Checksum: 0x59 (valid)
EDID block does NOT conform to EDID 1.4!
	sRGB is signaled, but the chromaticities do not match
	Missing name descriptor
	Missing monitor ranges
	Detailed block string not properly terminated
