
EDID (hex):
00ffffffffffff0009e5100100000000
021b0104951a0e780afb0f955855912a
1e4f5600000001010101010101010101
010101010101621b5677500013303020
360000901000001a3e12567750001330
3020360000901000001a000000000000
00000000000000000000000000000000
000000000000000000000000000000bf

Extracted contents:
header:          00 ff ff ff ff ff ff 00
serial number:   09 e5 10 01 00 00 00 00 02 1b
version:         01 04
basic params:    95 1a 0e 78 0a
chroma info:     fb 0f 95 58 55 91 2a 1e 4f 56
established:     00 00 00
standard:        01 01 01 01 01 01 01 01 01 01 01 01 01 01 01 01
descriptor 1:    62 1b 56 77 50 00 13 30 30 20 36 00 00 90 10 00 00 1a
descriptor 2:    3e 12 56 77 50 00 13 30 30 20 36 00 00 90 10 00 00 1a
descriptor 3:    00 00 00 00 00 00 00 00 00 00 00 00 00 00 00 00 00 00
descriptor 4:    00 00 00 00 00 00 00 00 00 00 00 00 00 00 00 00 00 00
extensions:      00
checksum:        bf

EDID version: 1.4
Manufacturer: BOE Model 110 Serial Number --
Made in week 2 of 2017
Digital display
6 bits per primary color channel
DisplayPort interface
Maximum image size: 26 cm x 14 cm
Gamma: 2.20
Supported color formats: RGB 4:4:4, YCrCb 4:4:4
First detailed timing includes the native pixel format and preferred refresh rate
Display x,y Chromaticity:
  Red:   0.5849, 0.3466
  Green: 0.3339, 0.5693
  Blue:  0.1640, 0.1171
  White: 0.3115, 0.3388
Established timings supported:
Standard timings supported:
Detailed mode: Clock 70.100 MHz, 256 mm x 144 mm
               1366 1414 1446 1485 hborder 0
                768  771  777  787 vborder 0
               +hsync -vsync 
               VertFreq: 59 Hz, HorFreq: 47205 Hz
Detailed mode: Clock 46.700 MHz, 256 mm x 144 mm
               1366 1414 1446 1485 hborder 0
                768  771  777  787 vborder 0
               +hsync -vsync 
               VertFreq: 39 Hz, HorFreq: 31447 Hz
Manufacturer-specified data, tag 0
Manufacturer-specified data, tag 0
Checksum: 0xbf (valid)
EDID block does NOT conform to EDID 1.4!
	Missing name descriptor
	Missing monitor ranges
