
EDID (hex):
00ffffffffffff004e81a48c00000000
531e0104a51f11780a69659657528f27
22505400000001010101010101010101
010101010101861a564650001430291b
340036ae10000018000000fe00000000
00000000000000000000000000fe0048
53442020200a202020202020000000fe
005852313430454132544c4b340a002a

Extracted contents:
header:          00 ff ff ff ff ff ff 00
serial number:   4e 81 a4 8c 00 00 00 00 53 1e
version:         01 04
basic params:    a5 1f 11 78 0a
chroma info:     69 65 96 57 52 8f 27 22 50 54
established:     00 00 00
standard:        01 01 01 01 01 01 01 01 01 01 01 01 01 01 01 01
descriptor 1:    86 1a 56 46 50 00 14 30 29 1b 34 00 36 ae 10 00 00 18
descriptor 2:    00 00 00 fe 00 00 00 00 00 00 00 00 00 00 00 00 00 00
descriptor 3:    00 00 00 fe 00 48 53 44 20 20 20 0a 20 20 20 20 20 20
descriptor 4:    00 00 00 fe 00 58 52 31 34 30 45 41 32 54 4c 4b 34 0a
extensions:      00
checksum:        2a

EDID version: 1.4
Manufacturer: STA Model 8ca4 Serial Number --
Digital display
8 bits per primary color channel
DisplayPort interface
Maximum image size: 31 cm x 17 cm
Gamma: 2.20
Supported color formats: RGB 4:4:4, YCrCb 4:4:4
First detailed timing includes the native pixel format and preferred refresh rate
Display x,y Chromaticity:
  Red:   0.5869, 0.3417
  Green: 0.3222, 0.5595
  Blue:  0.1533, 0.1347
  White: 0.3134, 0.3291
Established timings supported:
Standard timings supported:
Detailed mode: Clock 67.900 MHz, 310 mm x 174 mm
               1366 1407 1434 1436 hborder 0
                768  771  775  788 vborder 0
               -hsync -vsync 
               VertFreq: 60 Hz, HorFreq: 47284 Hz
ASCII string: 
ASCII string: HSD   
ASCII string: XR140EA2TLK4
Checksum: 0x2a (valid)
EDID block does NOT conform to EDID 1.4!
	Missing name descriptor
	Missing monitor ranges
	Detailed block string not properly terminated
EDID block does not conform at all!
	Bad year of manufacture
	Bad week of manufacture


