
EDID (hex):
00ffffffffffff003684020100000000
01120103802115780acfc097594e9127
21505400000001010101010101010101
010101010101ea1b00a0502017303020
36004bcf100000180000000f00000000
00000000000000000001000000fe004d
494e44544543482020202020000000fe
004d3135344e575731303030200a00b6

Extracted contents:
header:          00 ff ff ff ff ff ff 00
serial number:   36 84 02 01 00 00 00 00 01 12
version:         01 03
basic params:    80 21 15 78 0a
chroma info:     cf c0 97 59 4e 91 27 21 50 54
established:     00 00 00
standard:        01 01 01 01 01 01 01 01 01 01 01 01 01 01 01 01
descriptor 1:    ea 1b 00 a0 50 20 17 30 30 20 36 00 4b cf 10 00 00 18
descriptor 2:    00 00 00 0f 00 00 00 00 00 00 00 00 00 00 00 00 00 01
descriptor 3:    00 00 00 fe 00 4d 49 4e 44 54 45 43 48 20 20 20 20 20
descriptor 4:    00 00 00 fe 00 4d 31 35 34 4e 57 57 31 30 30 30 20 0a
extensions:      00
checksum:        b6

EDID version: 1.3
Manufacturer: MTD Model 102 Serial Number --
Made in week 1 of 2008
Digital display
Maximum image size: 33 cm x 21 cm
Gamma: 2.20
RGB color display
First detailed timing is preferred timing
Display x,y Chromaticity:
  Red:   0.5927, 0.3476
  Green: 0.3076, 0.5693
  Blue:  0.1552, 0.1289
  White: 0.3125, 0.3281
Established timings supported:
Standard timings supported:
Detailed mode: Clock 71.460 MHz, 331 mm x 207 mm
               1280 1328 1360 1440 hborder 0
                800  803  809  823 vborder 0
               -hsync -vsync 
               VertFreq: 60 Hz, HorFreq: 49625 Hz
Manufacturer-specified data, tag 15
ASCII string: MINDTECH     
ASCII string: M154NWW1000 
Checksum: 0xb6 (valid)
EDID block does NOT conform to EDID 1.3!
	Missing name descriptor
	Missing monitor ranges
