
EDID (hex):
00ffffffffffff0038a3476901010101
14190103803c2278eaef95a35435b526
0f5054bfef8081c0818090408bc09500
a9c0a940d1c0023a801871382d40582c
4500544f2100001e000000fd0031551f
7811000a202020202020000000fc0050
41323732570a202020202020000000ff
00353531313139383154570a2020015e
02031781469004031f131268030c0010
00302d01e2004f7c2e00a0a0a0155030
203500544f2100001ce73100a050a029
5030203a002a4f1100001c5131a0a050
00255030203a004f2a1100001c283c80
a070b0234030203600544f2100001a02
3a80d072382d40102c4580544f210000
1e0000000000000000000000000000df

Extracted contents:
header:          00 ff ff ff ff ff ff 00
serial number:   38 a3 47 69 01 01 01 01 14 19
version:         01 03
basic params:    80 3c 22 78 ea
chroma info:     ef 95 a3 54 35 b5 26 0f 50 54
established:     bf ef 80
standard:        81 c0 81 80 90 40 8b c0 95 00 a9 c0 a9 40 d1 c0
descriptor 1:    02 3a 80 18 71 38 2d 40 58 2c 45 00 54 4f 21 00 00 1e
descriptor 2:    00 00 00 fd 00 31 55 1f 78 11 00 0a 20 20 20 20 20 20
descriptor 3:    00 00 00 fc 00 50 41 32 37 32 57 0a 20 20 20 20 20 20
descriptor 4:    00 00 00 ff 00 35 35 31 31 31 39 38 31 54 57 0a 20 20
extensions:      01
checksum:        5e

EDID version: 1.3
Manufacturer: NEC Model 6947 Serial Number --
Made in week 20 of 2015
Digital display
Maximum image size: 60 cm x 34 cm
Gamma: 2.20
DPMS levels: Standby Suspend Off
RGB color display
First detailed timing is preferred timing
Display x,y Chromaticity:
  Red:   0.6396, 0.3300
  Green: 0.2099, 0.7099
  Blue:  0.1503, 0.0595
  White: 0.3134, 0.3291
Established timings supported:
  720x400@70Hz 9:5 HorFreq: 31469 Hz Clock: 28.320 MHz
  640x480@60Hz 4:3 HorFreq: 31469 Hz Clock: 25.175 MHz
  640x480@67Hz 4:3 HorFreq: 35000 Hz Clock: 30.240 MHz
  640x480@72Hz 4:3 HorFreq: 37900 Hz Clock: 31.500 MHz
  640x480@75Hz 4:3 HorFreq: 37500 Hz Clock: 31.500 MHz
  800x600@56Hz 4:3 HorFreq: 35200 Hz Clock: 36.000 MHz
  800x600@60Hz 4:3 HorFreq: 37900 Hz Clock: 40.000 MHz
  800x600@72Hz 4:3 HorFreq: 48100 Hz Clock: 50.000 MHz
  800x600@75Hz 4:3 HorFreq: 46900 Hz Clock: 49.500 MHz
  832x624@75Hz 4:3 HorFreq: 49726 Hz Clock: 57.284 MHz
  1024x768@60Hz 4:3 HorFreq: 48400 Hz Clock: 65.000 MHz
  1024x768@70Hz 4:3 HorFreq: 56500 Hz Clock: 75.000 MHz
  1024x768@75Hz 4:3 HorFreq: 60000 Hz Clock: 78.750 MHz
  1280x1024@75Hz 5:4 HorFreq: 80000 Hz Clock: 135.000 MHz
  1152x870@75Hz 192:145 HorFreq: 67500 Hz Clock: 108.000 MHz
Standard timings supported:
  1280x720@60Hz 16:9
  1280x1024@60Hz 5:4 HorFreq: 64000 Hz Clock: 108.000 MHz
  1400x1050@60Hz 4:3 HorFreq: 64700 Hz Clock: 101.000 MHz
  1360x765@60Hz 16:9
  1440x900@60Hz 16:10 HorFreq: 55500 Hz Clock: 88.750 MHz
  1600x900@60Hz 16:9
  1600x1200@60Hz 4:3 HorFreq: 75000 Hz Clock: 162.000 MHz
  1920x1080@60Hz 16:9
Detailed mode: Clock 148.500 MHz, 596 mm x 335 mm
               1920 2008 2052 2200 hborder 0
               1080 1084 1089 1125 vborder 0
               +hsync +vsync 
               VertFreq: 60 Hz, HorFreq: 67500 Hz
Monitor ranges (GTF): 49-85Hz V, 31-120kHz H, max dotclock 170MHz
Monitor name: PA272W
Serial number: --
Has 1 extension blocks
Checksum: 0x5e (valid)

CTA extension block
Extension version: 3
19 bytes of CTA data
  Video data block
    VIC  16 1920x1080@60Hz 16:9 (native) HorFreq: 67500 Hz Clock: 148.500 MHz
    VIC   4 1280x720@60Hz 16:9  HorFreq: 45000 Hz Clock: 74.250 MHz
    VIC   3 720x480@60Hz 16:9  HorFreq: 31469 Hz Clock: 27.000 MHz
    VIC  31 1920x1080@50Hz 16:9  HorFreq: 56250 Hz Clock: 148.500 MHz
    VIC  19 1280x720@50Hz 16:9  HorFreq: 37500 Hz Clock: 74.250 MHz
    VIC  18 720x576@50Hz 16:9  HorFreq: 31250 Hz Clock: 27.000 MHz
  Vendor-specific data block, OUI 000c03 (HDMI)
    Source physical address 1.0.0.0
    DC_36bit
    DC_30bit
    Maximum TMDS clock: 225MHz
  Extended tag: Video capability data block
    YCbCr quantization: No Data (0)
    RGB quantization: Selectable (via AVI Q) (1)
    PT scan behaviour: No Data (0)
    IT scan behaviour: Support both over- and underscan (3)
    CE scan behaviour: Support both over- and underscan (3)
Underscans PC formats by default
1 native detailed modes
Detailed mode: Clock 119.000 MHz, 596 mm x 335 mm
               2560 2608 2640 2720 hborder 0
               1440 1443 1448 1461 vborder 0
               -hsync +vsync 
               VertFreq: 29 Hz, HorFreq: 43750 Hz
Detailed mode: Clock 127.750 MHz, 298 mm x 335 mm
               1280 1328 1360 1440 hborder 0
               1440 1443 1453 1481 vborder 0
               -hsync +vsync 
               VertFreq: 59 Hz, HorFreq: 88715 Hz
Detailed mode: Clock 126.250 MHz, 335 mm x 298 mm
               1440 1488 1520 1600 hborder 0
               1280 1283 1293 1317 vborder 0
               -hsync +vsync 
               VertFreq: 59 Hz, HorFreq: 78906 Hz
Detailed mode: Clock 154.000 MHz, 596 mm x 335 mm
               1920 1968 2000 2080 hborder 0
               1200 1203 1209 1235 vborder 0
               +hsync -vsync 
               VertFreq: 59 Hz, HorFreq: 74038 Hz
Detailed mode: Clock 148.500 MHz, 596 mm x 335 mm
               1920 2448 2492 2640 hborder 0
               1080 1084 1089 1125 vborder 0
               +hsync +vsync 
               VertFreq: 50 Hz, HorFreq: 56250 Hz
Checksum: 0xdf (valid)

One or more of the timings is out of range of the Monitor Ranges:
  Vertical Freq: 29 - 75 Hz
  Horizontal Freq: 31250 - 88715 Hz
  Maximum Clock: 162.000 MHz
EDID block does not conform at all!
	Both the serial number and the serial string are set
