
EDID (hex):
00ffffffffffff0030e4910200000000
00130103801f11780a50859659568f28
1f505400000001010101010101010101
010101010101121b5668500011302018
340036ae10000019121b566850001130
2018340036ae10000019000000fe0047
564b3158803134305748310a00000000
00004103940100000001010a20200005

Extracted contents:
header:          00 ff ff ff ff ff ff 00
serial number:   30 e4 91 02 00 00 00 00 00 13
version:         01 03
basic params:    80 1f 11 78 0a
chroma info:     50 85 96 59 56 8f 28 1f 50 54
established:     00 00 00
standard:        01 01 01 01 01 01 01 01 01 01 01 01 01 01 01 01
descriptor 1:    12 1b 56 68 50 00 11 30 20 18 34 00 36 ae 10 00 00 19
descriptor 2:    12 1b 56 68 50 00 11 30 20 18 34 00 36 ae 10 00 00 19
descriptor 3:    00 00 00 fe 00 47 56 4b 31 58 80 31 34 30 57 48 31 0a
descriptor 4:    00 00 00 00 00 00 41 03 94 01 00 00 00 01 01 0a 20 20
extensions:      00
checksum:        05

EDID version: 1.3
Manufacturer: LGD Model 291 Serial Number --
Made in year 2009
Digital display
Maximum image size: 31 cm x 17 cm
Gamma: 2.20
RGB color display
First detailed timing is preferred timing
Display x,y Chromaticity:
  Red:   0.5869, 0.3486
  Green: 0.3359, 0.5585
  Blue:  0.1582, 0.1210
  White: 0.3134, 0.3291
Established timings supported:
Standard timings supported:
Detailed mode: Clock 69.300 MHz, 310 mm x 174 mm
               1366 1398 1422 1470 hborder 0
                768  771  775  785 vborder 0
               -hsync -vsync 
               VertFreq: 60 Hz, HorFreq: 47142 Hz
Detailed mode: Clock 69.300 MHz, 310 mm x 174 mm
               1366 1398 1422 1470 hborder 0
                768  771  775  785 vborder 0
               -hsync -vsync 
               VertFreq: 60 Hz, HorFreq: 47142 Hz
ASCII string: GVK1X
Manufacturer-specified data, tag 0
Checksum: 0x5 (valid)
EDID block does NOT conform to EDID 1.3!
	Missing name descriptor
	Missing monitor ranges
	Detailed block string not properly terminated
