
EDID (hex):
00ffffffffffff0006af95db00000000
051f0104b5221678034393ae5148b023
0b525700000001010101010101010101
010101010101e8fd00a0a0404c693020
aa0058d7100000180000000f00000000
00000000000000000020000000fd0c3c
a520204e010a202020202020000000fe
004231363051414e30322e4b200a0201
02030f00e3058000e60605018b8b1100
00000000000000000000000000000000
00000000000000000000000000000000
00000000000000000000000000000000
00000000000000000000000000000000
00000000000000000000000000000000
00000000000000000000000000000000
0000000000000000000000000000006b
7013790000030114b62f0184ff099f00
2f001f003f0683000900090000000000
00000000000000000000000000000000
00000000000000000000000000000000
00000000000000000000000000000000
00000000000000000000000000000000
00000000000000000000000000000000
00000000000000000000000000002390

Extracted contents:
header:          00 ff ff ff ff ff ff 00
serial number:   06 af 95 db 00 00 00 00 05 1f
version:         01 04
basic params:    b5 22 16 78 03
chroma info:     43 93 ae 51 48 b0 23 0b 52 57
established:     00 00 00
standard:        01 01 01 01 01 01 01 01 01 01 01 01 01 01 01 01
descriptor 1:    e8 fd 00 a0 a0 40 4c 69 30 20 aa 00 58 d7 10 00 00 18
descriptor 2:    00 00 00 0f 00 00 00 00 00 00 00 00 00 00 00 00 00 20
descriptor 3:    00 00 00 fd 0c 3c a5 20 20 4e 01 0a 20 20 20 20 20 20
descriptor 4:    00 00 00 fe 00 42 31 36 30 51 41 4e 30 32 2e 4b 20 0a
extensions:      02
checksum:        01

EDID version: 1.4
Manufacturer: AUO Model db95 Serial Number --
Made in week 5 of 2021
Digital display
10 bits per primary color channel
DisplayPort interface
Maximum image size: 34 cm x 22 cm
Gamma: 2.20
Supported color formats: RGB 4:4:4
First detailed timing includes the native pixel format and preferred refresh rate
Display is continuous frequency
Display x,y Chromaticity:
  Red:   0.6806, 0.3164
  Green: 0.2812, 0.6904
  Blue:  0.1386, 0.0439
  White: 0.3203, 0.3427
Established timings supported:
Standard timings supported:
Detailed mode: Clock 650.000 MHz, 344 mm x 215 mm
               2560 2608 2640 2720 hborder 0
               1600 1610 1620 3980 vborder 0
               -hsync -vsync 
               VertFreq: 60 Hz, HorFreq: 238970 Hz
Manufacturer-specified data, tag 15
Monitor ranges (bare limits): 60-165Hz V, 32-287kHz H, max dotclock 780MHz
ASCII string: B160QAN02.K 
Has 2 extension blocks
Checksum: 0x1 (valid)

CTA extension block
Extension version: 3
11 bytes of CTA data
  Extended tag: Colorimetry data block
    BT2020RGB
  Extended tag: HDR static metadata data block
    Electro optical transfer functions:
      Traditional gamma - SDR luminance range
      SMPTE ST2084
    Supported static metadata descriptors:
      Static metadata type 1
    Desired content max luminance: 139 (1015.241 cd/m^2)
    Desired content max frame-average luminance: 139 (1015.241 cd/m^2)
    Desired content min luminance: 17 (0.045 cd/m^2)
0 native detailed modes
Checksum: 0x6b (valid)


DisplayID extension block
Extension version: 19
Length 121, version 19, extension count 0
Checksum: 0x23 (valid)
Type 1 detailed timing: aspect: 16:9, Preferred  
Detailed mode: Clock 777.500 MHz, 0 mm x 0 mm
               2559 2606 2637 2718
               1599 1608 1617 1730
               -hsync -vsync

EDID block does NOT conform to EDID 1.4!
	Required 640x480p60 timings are missing in the established timings
	and/or in the SVD list (VIC 1)
	Missing name descriptor
