edid-decode (hex):

00 ff ff ff ff ff ff 00 30 e4 82 07 00 00 00 00
00 21 01 04 b5 1e 13 78 07 bf 85 a5 54 4b 98 24
0e 50 54 00 00 00 01 01 01 01 01 01 01 01 01 01
01 01 01 01 01 01 b6 c8 40 a0 b0 08 4e 70 30 20
36 00 2e bd 10 00 00 1a 0c 6b 40 a0 b0 08 4e 70
30 20 36 00 2e bd 10 00 00 1a 00 00 00 fe 00 31
4d 33 57 36 80 31 34 30 57 54 31 0a 00 00 00 00
00 03 41 39 9e 00 01 00 00 0b 41 0a 20 20 00 18

00 ff ff ff ff ff ff 00 30 e4 82 07 00 00 00 00
00 21 01 04 b5 1e 13 78 07 bf 85 a5 54 4b 98 24
0e 50 54 00 00 00 01 01 01 01 01 01 01 01 01 01
01 01 01 01 01 01 b6 c8 40 a0 b0 08 4e 70 30 20
36 00 2e bd 10 00 00 1a 0c 6b 40 a0 b0 08 4e 70
30 20 36 00 2e bd 10 00 00 1a 00 00 00 fe 00 31
4d 33 57 36 80 31 34 30 57 54 31 0a 00 00 00 00
00 03 41 39 9e 00 01 00 00 0b 41 0a 20 20 00 18

----------------

Block 0, Base EDID:
  EDID Structure Version & Revision: 1.4
  Vendor & Product Identification:
    Manufacturer: LGD
    Model: 1922
    Made in: 2023
  Basic Display Parameters & Features:
    Digital display
    Bits per primary color channel: 10
    DisplayPort interface
    Maximum image size: 30 cm x 19 cm
    Gamma: 2.20
    Supported color formats: RGB 4:4:4
    Default (sRGB) color space is primary color space
    First detailed timing includes the native pixel format and preferred refresh rate
    Display is continuous frequency
  Color Characteristics:
    Red  : 0.6464, 0.3310
    Green: 0.2958, 0.5966
    Blue : 0.1425, 0.0546
    White: 0.3134, 0.3291
  Established Timings I & II: none
  Standard Timings: none
  Detailed Timing Descriptors:
    DTD 1:  2880x1800   89.999860 Hz  16:10   169.020 kHz    513.820000 MHz (302 mm x 189 mm)
                 Hfront   48 Hsync  32 Hback   80 Hpol P
                 Vfront    3 Vsync   6 Vback   69 Vpol N
    DTD 2:  2880x1800   48.000392 Hz  16:10    90.145 kHz    274.040000 MHz (302 mm x 189 mm)
                 Hfront   48 Hsync  32 Hback   80 Hpol P
                 Vfront    3 Vsync   6 Vback   69 Vpol N
    Alphanumeric Data String: '1M3W6'
    Manufacturer-Specified Display Descriptor (0x00): 00 00 00 03 41 39 9e 00 01 00 00 0b 41 0a 20 20 '....A9......A.  '
Checksum: 0x18

----------------

Block 1, Unknown EDID Extension Block 0x00:
  00 ff ff ff ff ff ff 00 30 e4 82 07 00 00 00 00 '........0.......'
  00 21 01 04 b5 1e 13 78 07 bf 85 a5 54 4b 98 24 '.!.....x....TK.$'
  0e 50 54 00 00 00 01 01 01 01 01 01 01 01 01 01 '.PT.............'
  01 01 01 01 01 01 b6 c8 40 a0 b0 08 4e 70 30 20 '........@...Np0 '
  36 00 2e bd 10 00 00 1a 0c 6b 40 a0 b0 08 4e 70 '6........k@...Np'
  30 20 36 00 2e bd 10 00 00 1a 00 00 00 fe 00 31 '0 6............1'
  4d 33 57 36 80 31 34 30 57 54 31 0a 00 00 00 00 'M3W6.140WT1.....'
  00 03 41 39 9e 00 01 00 00 0b 41 0a 20 20 00 18 '..A9......A.  ..'
Checksum: 0x18

----------------

Warnings:

Block 0, Base EDID:
  Missing Display Product Name.

Failures:

Block 0, Base EDID:
  Basic Display Parameters & Features: sRGB is signaled, but the chromaticities do not match.
  Alphanumeric Data String: Non-printable character.
  Missing Display Range Limits Descriptor.
Block 1, Base EDID:
  Unknown Extension Block.
EDID:
  Base EDID: EDID specified 0 extension block(s), but found 1 extension block(s).

EDID conformity: FAIL
