edid-decode (hex):

00 ff ff ff ff ff ff 00 09 e5 15 07 00 00 00 00
31 1a 01 04 95 19 0e 78 02 e9 90 95 5c 58 94 29
24 50 54 00 00 00 01 01 01 01 01 01 01 01 01 01
01 01 01 01 01 01 38 1d 56 c8 50 00 1c 30 30 20
36 00 00 90 10 00 00 1a 7a 13 56 c8 50 00 1c 30
64 64 44 05 00 90 10 00 00 1a 00 00 00 00 00 00
00 00 00 00 00 00 00 00 00 00 00 00 00 00 00 02
00 0f 47 f9 0b 3c 6e 0c 0b 13 6e 00 00 00 00 20

----------------

Block 0, Base EDID:
  EDID Structure Version & Revision: 1.4
  Vendor & Product Identification:
    Manufacturer: BOE
    Model: 1813
    Made in: week 49 of 2016
  Basic Display Parameters & Features:
    Digital display
    Bits per primary color channel: 6
    DisplayPort interface
    Maximum image size: 25 cm x 14 cm
    Gamma: 2.20
    Supported color formats: RGB 4:4:4
    First detailed timing includes the native pixel format and preferred refresh rate
  Color Characteristics:
    Red  : 0.5849, 0.3613
    Green: 0.3457, 0.5791
    Blue : 0.1621, 0.1416
    White: 0.3125, 0.3281
  Established Timings I & II: none
  Standard Timings: none
  Detailed Timing Descriptors:
    DTD 1:  1366x768    60.006289 Hz 683:384   47.765 kHz     74.800000 MHz (256 mm x 144 mm)
                 Hfront   48 Hsync  32 Hback  120 Hpol P
                 Vfront    3 Vsync   6 Vback   19 Vpol N
    DTD 2:  1366x768    39.998845 Hz 683:384   31.839 kHz     49.860000 MHz (256 mm x 144 mm)
                 Hfront  100 Hsync 100 Hback    0 Hpol P
                 Vfront   20 Vsync  20 Vback  -12 Vpol N
    Empty Descriptor
    Manufacturer-Specified Display Descriptor (0x02): 00 02 00 0f 47 f9 0b 3c 6e 0c 0b 13 6e 00 00 00 '....G..<n...n...'
Checksum: 0x20

----------------

Failures:

Block 0, Base EDID:
  Detailed Timing Descriptor #2: 0 or negative horizontal back porch.
  Detailed Timing Descriptor #2: 0 or negative vertical back porch.
  Empty Descriptor: Use Dummy Descriptor instead of all zeroes.
  Missing Display Product Name.

EDID conformity: FAIL
