
EDID (hex):
00ffffffffffff004d101b1400000000
03180104a51d117806de54a3544c9926
0f505400000001010101010101010101
010101010101b036809a70382d400a0a
550026a5100000180000001000000000
00000000000000000000000000fe0042
4f455f42340a202020202020000000fe
00313422204950530a202020202000e3

Extracted contents:
header:          00 ff ff ff ff ff ff 00
serial number:   4d 10 1b 14 00 00 00 00 03 18
version:         01 04
basic params:    a5 1d 11 78 06
chroma info:     de 54 a3 54 4c 99 26 0f 50 54
established:     00 00 00
standard:        01 01 01 01 01 01 01 01 01 01 01 01 01 01 01 01
descriptor 1:    b0 36 80 9a 70 38 2d 40 0a 0a 55 00 26 a5 10 00 00 18
descriptor 2:    00 00 00 10 00 00 00 00 00 00 00 00 00 00 00 00 00 00
descriptor 3:    00 00 00 fe 00 42 4f 45 5f 42 34 0a 20 20 20 20 20 20
descriptor 4:    00 00 00 fe 00 31 34 22 20 49 50 53 0a 20 20 20 20 20
extensions:      00
checksum:        e3

EDID version: 1.4
Manufacturer: SHP Model 141b Serial Number --
Made in week 3 of 2014
Digital display
8 bits per primary color channel
DisplayPort interface
Maximum image size: 29 cm x 17 cm
Gamma: 2.20
Supported color formats: RGB 4:4:4
Default (sRGB) color space is primary color space
First detailed timing includes the native pixel format and preferred refresh rate
Display x,y Chromaticity:
  Red:   0.6396, 0.3291
  Green: 0.2998, 0.5996
  Blue:  0.1494, 0.0595
  White: 0.3134, 0.3281
Established timings supported:
Standard timings supported:
Detailed mode: Clock 140.000 MHz, 294 mm x 165 mm
               1920 1930 1940 2074 hborder 0
               1080 1085 1090 1125 vborder 0
               -hsync -vsync 
               VertFreq: 60 Hz, HorFreq: 67502 Hz
Dummy block
ASCII string: BOE_B4
ASCII string: 14" IPS
Checksum: 0xe3 (valid)
EDID block does NOT conform to EDID 1.4!
	sRGB is signaled, but the chromaticities do not match
	Missing name descriptor
	Missing monitor ranges
