edid-decode (hex):

00 ff ff ff ff ff ff 00 4d 10 1b 14 00 00 00 00
03 18 01 04 a5 1d 11 78 06 de 50 a3 54 4c 99 26
0f 50 54 00 00 00 01 01 01 01 01 01 01 01 01 01
01 01 01 01 01 01 ad 36 80 64 70 38 4c 40 0a 0a
05 00 26 a5 10 00 00 18 c8 2b 80 64 70 38 4c 40
0a 0a 05 00 26 a5 10 00 00 18 00 00 00 10 00 00
00 00 00 00 00 00 00 00 00 00 00 00 00 00 00 fc
00 4c 51 31 33 33 4d 31 4a 57 30 31 0a 20 00 0e

----------------

Block 0, Base EDID:
  EDID Structure Version & Revision: 1.4
  Vendor & Product Identification:
    Manufacturer: SHP
    Model: 5147
    Made in: week 3 of 2014
  Basic Display Parameters & Features:
    Digital display
    Bits per primary color channel: 8
    DisplayPort interface
    Maximum image size: 29 cm x 17 cm
    Gamma: 2.20
    Supported color formats: RGB 4:4:4
    Default (sRGB) color space is primary color space
    First detailed timing includes the native pixel format and preferred refresh rate
  Color Characteristics:
    Red  : 0.6396, 0.3291
    Green: 0.2998, 0.5996
    Blue : 0.1494, 0.0595
    White: 0.3125, 0.3281
  Established Timings I & II: none
  Standard Timings: none
  Detailed Timing Descriptors:
    DTD 1:  1920x1080   59.941245 Hz  16:9     69.292 kHz    139.970000 MHz (294 mm x 165 mm)
                 Hfront   10 Hsync  10 Hback   80 Hpol N
                 Vfront    0 Vsync   5 Vback   71 Vpol N
                   ad 36 80 64 70 38 4c 40 0a 0a 05 00 26 a5 10 00 00 18 '.6.dp8L@....&.....'
    DTD 2:  1920x1080   47.997533 Hz  16:9     55.485 kHz    112.080000 MHz (294 mm x 165 mm)
                 Hfront   10 Hsync  10 Hback   80 Hpol N
                 Vfront    0 Vsync   5 Vback   71 Vpol N
                   c8 2b 80 64 70 38 4c 40 0a 0a 05 00 26 a5 10 00 00 18 '.+.dp8L@....&.....'
    Dummy Descriptor:
    Display Product Name: 'LQ133M1JW01'
Checksum: 0x0e

----------------

Failures:

Block 0, Base EDID:
  Basic Display Parameters & Features: sRGB is signaled, but the chromaticities do not match.
  Detailed Timing Descriptor #1: 0 values in the video timing:
    Horizontal Active/Blanking 1920/100
    Horizontal Frontporch/Sync Width 10/10
    Vertical Active/Blanking 1080/76
    Vertical Frontporch/Sync Width 0/5
  Detailed Timing Descriptor #2: 0 values in the video timing:
    Horizontal Active/Blanking 1920/100
    Horizontal Frontporch/Sync Width 10/10
    Vertical Active/Blanking 1080/76
    Vertical Frontporch/Sync Width 0/5

EDID conformity: FAIL
