
EDID (hex):
00ffffffffffff000472a10600000000
011d0104a5301b783b79a1a15551a227
105054bfef80714081c081809500a9c0
b300d1c00101fb7e8088703812401820
3500dc0c11000018000000fd003090b4
b421010a202020202020000000fc0045
47323230510a202020202020000000ff
003930313132333132334c414a0a01f8
02031ff14a010304121305141f900723
0907078301000067030c001000004223
6b8050703840400820280cdc0c110000
1c023a801871382d40582c4500dc0c11
00001e00000000000000000000000000
00000000000000000000000000000000
00000000000000000000000000000000
0000000000000000000000000000005e

Extracted contents:
header:          00 ff ff ff ff ff ff 00
serial number:   04 72 a1 06 00 00 00 00 01 1d
version:         01 04
basic params:    a5 30 1b 78 3b
chroma info:     79 a1 a1 55 51 a2 27 10 50 54
established:     bf ef 80
standard:        71 40 81 c0 81 80 95 00 a9 c0 b3 00 d1 c0 01 01
descriptor 1:    fb 7e 80 88 70 38 12 40 18 20 35 00 dc 0c 11 00 00 18
descriptor 2:    00 00 00 fd 00 30 90 b4 b4 21 01 0a 20 20 20 20 20 20
descriptor 3:    00 00 00 fc 00 45 47 32 32 30 51 0a 20 20 20 20 20 20
descriptor 4:    00 00 00 ff 00 39 30 31 31 32 33 31 32 33 4c 41 4a 0a
extensions:      01
checksum:        f8

EDID version: 1.4
Manufacturer: ACR Model 6a1 Serial Number --
Made in week 1 of 2019
Digital display
8 bits per primary color channel
DisplayPort interface
Maximum image size: 48 cm x 27 cm
Gamma: 2.20
DPMS levels: Off
Supported color formats: RGB 4:4:4, YCrCb 4:4:4, YCrCb 4:2:2
First detailed timing includes the native pixel format and preferred refresh rate
Display is continuous frequency
Display x,y Chromaticity:
  Red:   0.6298, 0.3349
  Green: 0.3183, 0.6337
  Blue:  0.1542, 0.0644
  White: 0.3125, 0.3291
Established timings supported:
  720x400@70Hz 9:5 HorFreq: 31469 Hz Clock: 28.320 MHz
  640x480@60Hz 4:3 HorFreq: 31469 Hz Clock: 25.175 MHz
  640x480@67Hz 4:3 HorFreq: 35000 Hz Clock: 30.240 MHz
  640x480@72Hz 4:3 HorFreq: 37900 Hz Clock: 31.500 MHz
  640x480@75Hz 4:3 HorFreq: 37500 Hz Clock: 31.500 MHz
  800x600@56Hz 4:3 HorFreq: 35200 Hz Clock: 36.000 MHz
  800x600@60Hz 4:3 HorFreq: 37900 Hz Clock: 40.000 MHz
  800x600@72Hz 4:3 HorFreq: 48100 Hz Clock: 50.000 MHz
  800x600@75Hz 4:3 HorFreq: 46900 Hz Clock: 49.500 MHz
  832x624@75Hz 4:3 HorFreq: 49726 Hz Clock: 57.284 MHz
  1024x768@60Hz 4:3 HorFreq: 48400 Hz Clock: 65.000 MHz
  1024x768@70Hz 4:3 HorFreq: 56500 Hz Clock: 75.000 MHz
  1024x768@75Hz 4:3 HorFreq: 60000 Hz Clock: 78.750 MHz
  1280x1024@75Hz 5:4 HorFreq: 80000 Hz Clock: 135.000 MHz
  1152x870@75Hz 192:145 HorFreq: 67500 Hz Clock: 108.000 MHz
Standard timings supported:
  1152x864@60Hz 4:3
  1280x720@60Hz 16:9
  1280x1024@60Hz 5:4 HorFreq: 64000 Hz Clock: 108.000 MHz
  1440x900@60Hz 16:10 HorFreq: 55500 Hz Clock: 88.750 MHz
  1600x900@60Hz 16:9
  1680x1050@60Hz 16:10 HorFreq: 64700 Hz Clock: 119.000 MHz
  1920x1080@60Hz 16:9
Detailed mode: Clock 325.070 MHz, 476 mm x 268 mm
               1920 1944 1976 2056 hborder 0
               1080 1083 1088 1098 vborder 0
               -hsync -vsync 
               VertFreq: 143 Hz, HorFreq: 158107 Hz
Monitor ranges (bare limits): 48-144Hz V, 180-180kHz H, max dotclock 330MHz
Monitor name: EG220Q
Serial number: --
Has 1 extension blocks
Checksum: 0xf8 (valid)

CTA extension block
Extension version: 3
27 bytes of CTA data
  Video data block
    VIC   1 640x480@60Hz 4:3  HorFreq: 31469 Hz Clock: 25.175 MHz
    VIC   3 720x480@60Hz 16:9  HorFreq: 31469 Hz Clock: 27.000 MHz
    VIC   4 1280x720@60Hz 16:9  HorFreq: 45000 Hz Clock: 74.250 MHz
    VIC  18 720x576@50Hz 16:9  HorFreq: 31250 Hz Clock: 27.000 MHz
    VIC  19 1280x720@50Hz 16:9  HorFreq: 37500 Hz Clock: 74.250 MHz
    VIC   5 1920x1080i@60Hz 16:9  HorFreq: 33750 Hz Clock: 74.250 MHz
    VIC  20 1920x1080i@50Hz 16:9  HorFreq: 28125 Hz Clock: 74.250 MHz
    VIC  31 1920x1080@50Hz 16:9  HorFreq: 56250 Hz Clock: 148.500 MHz
    VIC  16 1920x1080@60Hz 16:9 (native) HorFreq: 67500 Hz Clock: 148.500 MHz
    VIC   7 1440x480i@60Hz 16:9  HorFreq: 15734 Hz Clock: 27.000 MHz
  Audio data block
    Linear PCM, max channels 2
      Supported sample rates (kHz): 48 44.1 32
      Supported sample sizes (bits): 24 20 16
  Speaker allocation data block
    Speaker map:
      FL/FR - Front Left/Right
  Vendor-specific data block, OUI 000c03 (HDMI)
    Source physical address 1.0.0.0
    Maximum TMDS clock: 330MHz
Underscans PC formats by default
Basic audio support
Supports YCbCr 4:4:4
Supports YCbCr 4:2:2
1 native detailed modes
Detailed mode: Clock 274.270 MHz, 476 mm x 268 mm
               1920 1928 1960 2000 hborder 0
               1080 1130 1138 1144 vborder 0
               -hsync +vsync 
               VertFreq: 119 Hz, HorFreq: 137135 Hz
Detailed mode: Clock 148.500 MHz, 476 mm x 268 mm
               1920 2008 2052 2200 hborder 0
               1080 1084 1089 1125 vborder 0
               +hsync +vsync 
               VertFreq: 60 Hz, HorFreq: 67500 Hz
Checksum: 0x5e (valid)

Warning: One or more of the timings is out of range of the Monitor Ranges:
  Vertical Freq: 50 - 143 Hz
  Horizontal Freq: 15734 - 158107 Hz
  Maximum Clock: 325.070 MHz


