
EDID (hex):
00ffffffffffff0005e3211601010101
00140103682213782ada559e564a9525
135054bfee00310a81c0010101010101
010101010101662156aa51001e30468f
330058c21000001e000000ff000a2020
20202020202020202020000000fd0037
4b1e3c09000a202020202020000000fc
0031363231770a2020202020202000a7

Extracted contents:
header:          00 ff ff ff ff ff ff 00
serial number:   05 e3 21 16 01 01 01 01 00 14
version:         01 03
basic params:    68 22 13 78 2a
chroma info:     da 55 9e 56 4a 95 25 13 50 54
established:     bf ee 00
standard:        31 0a 81 c0 01 01 01 01 01 01 01 01 01 01 01 01
descriptor 1:    66 21 56 aa 51 00 1e 30 46 8f 33 00 58 c2 10 00 00 1e
descriptor 2:    00 00 00 ff 00 0a 20 20 20 20 20 20 20 20 20 20 20 20
descriptor 3:    00 00 00 fd 00 37 4b 1e 3c 09 00 0a 20 20 20 20 20 20
descriptor 4:    00 00 00 fc 00 31 36 32 31 77 0a 20 20 20 20 20 20 20
extensions:      00
checksum:        a7

EDID version: 1.3
Manufacturer: AOC Model 1621 Serial Number --
Made in year 2010
Analog display, Input voltage level: 0.7/0.7 V
Sync: Separate 
Maximum image size: 34 cm x 19 cm
Gamma: 2.20
DPMS levels: Off
RGB color display
First detailed timing is preferred timing
Display x,y Chromaticity:
  Red:   0.6201, 0.3369
  Green: 0.2910, 0.5839
  Blue:  0.1455, 0.0751
  White: 0.3134, 0.3291
Established timings supported:
  720x400@70Hz 9:5 HorFreq: 31469 Hz Clock: 28.320 MHz
  640x480@60Hz 4:3 HorFreq: 31469 Hz Clock: 25.175 MHz
  640x480@67Hz 4:3 HorFreq: 35000 Hz Clock: 30.240 MHz
  640x480@72Hz 4:3 HorFreq: 37900 Hz Clock: 31.500 MHz
  640x480@75Hz 4:3 HorFreq: 37500 Hz Clock: 31.500 MHz
  800x600@56Hz 4:3 HorFreq: 35200 Hz Clock: 36.000 MHz
  800x600@60Hz 4:3 HorFreq: 37900 Hz Clock: 40.000 MHz
  800x600@72Hz 4:3 HorFreq: 48100 Hz Clock: 50.000 MHz
  800x600@75Hz 4:3 HorFreq: 46900 Hz Clock: 49.500 MHz
  832x624@75Hz 4:3 HorFreq: 49726 Hz Clock: 57.284 MHz
  1024x768@60Hz 4:3 HorFreq: 48400 Hz Clock: 65.000 MHz
  1024x768@70Hz 4:3 HorFreq: 56500 Hz Clock: 75.000 MHz
  1024x768@75Hz 4:3 HorFreq: 60000 Hz Clock: 78.750 MHz
Standard timings supported:
  640x400@70Hz 16:10
  1280x720@60Hz 16:9
Detailed mode: Clock 85.500 MHz, 344 mm x 194 mm
               1366 1436 1579 1792 hborder 0
                768  771  774  798 vborder 0
               +hsync +vsync 
               VertFreq: 59 Hz, HorFreq: 47712 Hz
Serial number: 
-- ranges (GTF): 55-75Hz V, 30-60kHz H, max dotclock 90MHz
Monitor name: 1621w
Checksum: 0xa7 (valid)
