edid-decode (hex):

00 ff ff ff ff ff ff 00 06 af ed 12 00 00 00 00
00 16 01 04 95 22 13 78 02 06 95 97 57 53 94 26
1c 50 54 00 00 00 01 01 01 01 01 01 01 01 01 01
01 01 01 01 01 01 3c 37 80 c0 70 38 20 40 30 64
8e 00 58 c1 10 00 00 18 d3 24 80 c0 70 38 20 40
30 64 8e 00 58 c1 10 00 00 18 00 00 00 fe 00 41
55 4f 0a 20 20 20 20 20 20 20 20 20 00 00 00 fe
00 42 31 35 36 48 41 4e 30 31 2e 32 20 0a 00 22

----------------

Block 0, Base EDID:
  EDID Structure Version & Revision: 1.4
  Vendor & Product Identification:
    Manufacturer: AUO
    Model: 4845
    Made in: 2012
  Basic Display Parameters & Features:
    Digital display
    Bits per primary color channel: 6
    DisplayPort interface
    Maximum image size: 34 cm x 19 cm
    Gamma: 2.20
    Supported color formats: RGB 4:4:4
    First detailed timing includes the native pixel format and preferred refresh rate
  Color Characteristics:
    Red  : 0.5898, 0.3398
    Green: 0.3251, 0.5800
    Blue : 0.1503, 0.1103
    White: 0.3134, 0.3291
  Established Timings I & II: none
  Standard Timings: none
  Detailed Timing Descriptors:
    DTD 1:  1920x1080   60.207516 Hz  16:9     66.951 kHz    141.400000 MHz (344 mm x 193 mm)
                 Hfront   48 Hsync 100 Hback   44 Hpol N
                 Vfront    8 Vsync  14 Vback   10 Vpol N
    DTD 2:  1920x1080   40.139763 Hz  16:9     44.635 kHz     94.270000 MHz (344 mm x 193 mm)
                 Hfront   48 Hsync 100 Hback   44 Hpol N
                 Vfront    8 Vsync  14 Vback   10 Vpol N
    Alphanumeric Data String: 'AUO'
    Alphanumeric Data String: 'B156HAN01.2 '
Checksum: 0x22

----------------

Warnings:

Block 0, Base EDID:
  Missing Display Product Name.

Failures:

Block 0, Base EDID:
  Alphanumeric Data String: One or more trailing spaces.

EDID conformity: FAIL
