
EDID (hex):
00ffffffffffff000daf321300000000
08150104901d10780298559559569328
20505400000001010101010101010101
010101010101e91d56d3500029302146
4d0025a41000001afe14560e51003530
5136590025a41000001a000000fe0036
354d4a46803133334247450a00000000
00004131960010000001010a202000d5

Extracted contents:
header:          00 ff ff ff ff ff ff 00
serial number:   0d af 32 13 00 00 00 00 08 15
version:         01 04
basic params:    90 1d 10 78 02
chroma info:     98 55 95 59 56 93 28 20 50 54
established:     00 00 00
standard:        01 01 01 01 01 01 01 01 01 01 01 01 01 01 01 01
descriptor 1:    e9 1d 56 d3 50 00 29 30 21 46 4d 00 25 a4 10 00 00 1a
descriptor 2:    fe 14 56 0e 51 00 35 30 51 36 59 00 25 a4 10 00 00 1a
descriptor 3:    00 00 00 fe 00 36 35 4d 4a 46 80 31 33 33 42 47 45 0a
descriptor 4:    00 00 00 00 00 00 41 31 96 00 10 00 00 01 01 0a 20 20
extensions:      00
checksum:        d5

EDID version: 1.4
Manufacturer: CMO Model 1332 Serial Number --
Made in week 8 of 2011
Digital display
6 bits per primary color channel
Digital interface is not defined
Maximum image size: 29 cm x 16 cm
Gamma: 2.20
Supported color formats: RGB 4:4:4
First detailed timing includes the native pixel format and preferred refresh rate
Display x,y Chromaticity:
  Red:   0.5839, 0.3486
  Green: 0.3378, 0.5742
  Blue:  0.1572, 0.1259
  White: 0.3134, 0.3291
Established timings supported:
Standard timings supported:
Detailed mode: Clock 76.570 MHz, 293 mm x 164 mm
               1366 1399 1469 1577 hborder 0
                768  772  785  809 vborder 0
               +hsync -vsync 
               VertFreq: 60 Hz, HorFreq: 48554 Hz
Detailed mode: Clock 53.740 MHz, 293 mm x 164 mm
               1366 1447 1501 1636 hborder 0
                768  773  782  821 vborder 0
               +hsync -vsync 
               VertFreq: 40 Hz, HorFreq: 32848 Hz
ASCII string: 65MJF
Manufacturer-specified data, tag 0
Checksum: 0xd5 (valid)
EDID block does NOT conform to EDID 1.4!
	Missing name descriptor
	Missing monitor ranges
	Detailed block string not properly terminated
