
EDID (hex):
00ffffffffffff000daf321300000000
23140104901d10780298559559569328
20505400000001010101010101010101
010101010101781d56bc500026301f41
4c0025a41000001a931356bc50002630
1f414c0025a41000001a000000fe0030
3057564d803133334247450a00000000
00004131960000000001010a2020004e

Extracted contents:
header:          00 ff ff ff ff ff ff 00
serial number:   0d af 32 13 00 00 00 00 23 14
version:         01 04
basic params:    90 1d 10 78 02
chroma info:     98 55 95 59 56 93 28 20 50 54
established:     00 00 00
standard:        01 01 01 01 01 01 01 01 01 01 01 01 01 01 01 01
descriptor 1:    78 1d 56 bc 50 00 26 30 1f 41 4c 00 25 a4 10 00 00 1a
descriptor 2:    93 13 56 bc 50 00 26 30 1f 41 4c 00 25 a4 10 00 00 1a
descriptor 3:    00 00 00 fe 00 30 30 57 56 4d 80 31 33 33 42 47 45 0a
descriptor 4:    00 00 00 00 00 00 41 31 96 00 00 00 00 01 01 0a 20 20
extensions:      00
checksum:        4e

EDID version: 1.4
Manufacturer: CMO Model 1332 Serial Number --
Made in week 35 of 2010
Digital display
6 bits per primary color channel
Digital interface is not defined
Maximum image size: 29 cm x 16 cm
Gamma: 2.20
Supported color formats: RGB 4:4:4
First detailed timing includes the native pixel format and preferred refresh rate
Display x,y Chromaticity:
  Red:   0.5839, 0.3486
  Green: 0.3378, 0.5742
  Blue:  0.1572, 0.1259
  White: 0.3134, 0.3291
Established timings supported:
Standard timings supported:
Detailed mode: Clock 75.440 MHz, 293 mm x 164 mm
               1366 1397 1462 1554 hborder 0
                768  772  784  806 vborder 0
               +hsync -vsync 
               VertFreq: 60 Hz, HorFreq: 48545 Hz
Detailed mode: Clock 50.110 MHz, 293 mm x 164 mm
               1366 1397 1462 1554 hborder 0
                768  772  784  806 vborder 0
               +hsync -vsync 
               VertFreq: 40 Hz, HorFreq: 32245 Hz
ASCII string: 00WVM
Manufacturer-specified data, tag 0
Checksum: 0x4e (valid)
EDID block does NOT conform to EDID 1.4!
	Missing name descriptor
	Missing monitor ranges
	Detailed block string not properly terminated


