edid-decode (hex):

00 ff ff ff ff ff ff 00 0d af 24 17 00 00 00 00
28 14 01 04 90 26 16 78 0a 08 05 9d 58 53 97 29
15 50 54 00 00 00 01 01 01 01 01 01 01 01 01 01
01 01 01 01 01 01 1c 2a 40 54 61 84 1a 30 30 20
35 00 7e d7 10 00 00 1a 12 1c 40 54 61 84 1a 30
30 20 35 00 7e d7 10 00 00 1a 00 00 00 00 00 00
00 00 00 00 00 00 00 00 00 00 00 00 00 00 00 00
02 0c 42 fc 0c 3c 6e 1b 1b 32 6e 00 00 00 00 c8

----------------

Block 0, Base EDID:
  EDID Structure Version & Revision: 1.4
  Vendor & Product Identification:
    Manufacturer: CMO
    Model: 5924
    Made in: week 40 of 2010
  Basic Display Parameters & Features:
    Digital display
    Bits per primary color channel: 6
    Digital interface is not defined
    Maximum image size: 38 cm x 22 cm
    Gamma: 2.20
    Supported color formats: RGB 4:4:4, YCrCb 4:4:4
    First detailed timing includes the native pixel format and preferred refresh rate
  Color Characteristics:
    Red  : 0.6132, 0.3437
    Green: 0.3261, 0.5898
    Blue : 0.1601, 0.0820
    White: 0.3134, 0.3291
  Established Timings I & II: none
  Standard Timings: none
  Detailed Timing Descriptors:
    DTD 1:  1600x900    60.007571 Hz  16:9     55.567 kHz    107.800000 MHz (382 mm x 215 mm)
                 Hfront   48 Hsync  32 Hback  260 Hpol P
                 Vfront    3 Vsync   5 Vback   18 Vpol N
    DTD 2:  1600x900    40.001336 Hz  16:9     37.041 kHz     71.860000 MHz (382 mm x 215 mm)
                 Hfront   48 Hsync  32 Hback  260 Hpol P
                 Vfront    3 Vsync   5 Vback   18 Vpol N
    Empty Descriptor
    Manufacturer-Specified Display Descriptor (0x00): 00 00 02 0c 42 fc 0c 3c 6e 1b 1b 32 6e 00 00 00 '....B..<n..2n...'
Checksum: 0xc8

----------------

Warnings:

Block 0, Base EDID:
  Missing Display Product Name.

Failures:

Block 0, Base EDID:
  Empty Descriptor: Use Dummy Descriptor instead of all zeroes.
  Display Descriptor #4: Monitor descriptor block has byte 4 nonzero (0x02).

EDID conformity: FAIL
