edid-decode (hex):

00 ff ff ff ff ff ff 00 4f 2e 43 00 78 03 00 00
1a 12 01 03 0e 52 2e 78 2b 03 3f a4 56 47 9b 24
12 48 4a 25 4a 00 81 c0 01 01 01 01 01 01 01 01
01 01 01 01 01 01 94 2a 50 bc 51 00 20 30 30 90
33 00 34 cc 31 00 00 1c 0e 1f 00 80 51 00 1e 30
40 80 37 00 34 cc 31 00 00 1a 20 1c 50 a0 50 00
16 30 30 20 25 00 34 cc 31 00 00 1c 00 00 00 fc
00 32 33 37 2d 54 31 32 0a 20 20 20 20 20 00 e3

----------------

Block 0, Base EDID:
  EDID Structure Version & Revision: 1.3
  Vendor & Product Identification:
    Manufacturer: SYN
    Model: 67
    Serial Number: ...
    Made in: week 26 of 2008
  Basic Display Parameters & Features:
    Analog display
    Signal Level Standard: 0.700 : 0.300 : 1.000 V p-p
    Blank level equals black level
    Sync: Separate Composite SyncOnGreen
    Maximum image size: 82 cm x 46 cm
    Gamma: 2.20
    DPMS levels: Off
    RGB color display
    First detailed timing is the preferred timing
    Supports GTF timings within operating range
  Color Characteristics:
    Red  : 0.6406, 0.3359
    Green: 0.2773, 0.6083
    Blue : 0.1406, 0.0732
    White: 0.2841, 0.2919
  Established Timings I & II:
    DMT 0x04:   640x480    59.940476 Hz   4:3     31.469 kHz     25.175000 MHz
    DMT 0x06:   640x480    75.000000 Hz   4:3     37.500 kHz     31.500000 MHz
    DMT 0x09:   800x600    60.316541 Hz   4:3     37.879 kHz     40.000000 MHz
    DMT 0x0b:   800x600    75.000000 Hz   4:3     46.875 kHz     49.500000 MHz
    DMT 0x10:  1024x768    60.003840 Hz   4:3     48.363 kHz     65.000000 MHz
    DMT 0x12:  1024x768    75.028582 Hz   4:3     60.023 kHz     78.750000 MHz
  Standard Timings:
    DMT 0x55:  1280x720    60.000000 Hz  16:9     45.000 kHz     74.250000 MHz
  Detailed Timing Descriptors:
    DTD 1:  1360x768    75.526608 Hz  85:48    60.421 kHz    109.000000 MHz (820 mm x 460 mm)
                 Hfront   48 Hsync 144 Hback  252 Hpol N
                 Vfront    3 Vsync   3 Vback   26 Vpol P
    DTD 2:  1280x768    59.870228 Hz   5:3     47.776 kHz     79.500000 MHz (820 mm x 460 mm)
                 Hfront   64 Hsync 128 Hback  192 Hpol P
                 Vfront    3 Vsync   7 Vback   20 Vpol N
    DTD 3:  1360x768    59.960027 Hz  85:48    47.368 kHz     72.000000 MHz (820 mm x 460 mm)
                 Hfront   48 Hsync  32 Hback   80 Hpol N
                 Vfront    2 Vsync   5 Vback   15 Vpol P
    Display Product Name: '237-T12'
Checksum: 0xe3

----------------

Warnings:

Block 0, Base EDID:
  Detailed Timing Descriptor #2: DTD is similar but not identical to DMT 0x17.

Failures:

Block 0, Base EDID:
  Missing Display Range Limits Descriptor.

EDID conformity: FAIL
