edid-decode (hex):

00 ff ff ff ff ff ff 00 4d 10 4d 15 00 00 00 00
30 1f 01 04 a5 1f 11 78 0b 3e 50 ae 51 43 b0 26
0f 50 54 00 00 00 01 01 01 01 01 01 01 01 01 01
01 01 01 01 01 01 97 36 80 a0 70 38 28 40 30 20
35 00 35 ae 10 00 00 18 00 00 00 fd 00 3c 90 a7
a7 22 01 0a 20 20 20 20 20 20 00 00 00 fe 00 50
50 43 52 59 80 4c 51 31 34 30 4d 31 00 00 00 00
00 02 41 0f 28 00 02 00 00 0f 41 0a 20 20 01 ce

70 13 79 00 00 03 01 14 5a 87 00 84 7f 07 9f 00
2f 00 1f 00 37 04 4c 00 02 00 04 00 00 00 00 00
00 00 00 00 00 00 00 00 00 00 00 00 00 00 00 00
00 00 00 00 00 00 00 00 00 00 00 00 00 00 00 00
00 00 00 00 00 00 00 00 00 00 00 00 00 00 00 00
00 00 00 00 00 00 00 00 00 00 00 00 00 00 00 00
00 00 00 00 00 00 00 00 00 00 00 00 00 00 00 00
00 00 00 00 00 00 00 00 00 00 00 00 00 00 f7 90

----------------

Block 0, Base EDID:
  EDID Structure Version & Revision: 1.4
  Vendor & Product Identification:
    Manufacturer: SHP
    Model: 5453
    Made in: week 48 of 2021
  Basic Display Parameters & Features:
    Digital display
    Bits per primary color channel: 8
    DisplayPort interface
    Maximum image size: 31 cm x 17 cm
    Gamma: 2.20
    Supported color formats: RGB 4:4:4, YCrCb 4:4:4
    First detailed timing includes the native pixel format and preferred refresh rate
    Display is continuous frequency
  Color Characteristics:
    Red  : 0.6796, 0.3193
    Green: 0.2646, 0.6894
    Blue : 0.1494, 0.0595
    White: 0.3125, 0.3281
  Established Timings I & II: none
  Standard Timings: none
  Detailed Timing Descriptors:
    DTD 1:  1920x1080   59.988839 Hz  16:9     67.188 kHz    139.750000 MHz (309 mm x 174 mm)
                 Hfront   48 Hsync  32 Hback   80 Hpol N
                 Vfront    3 Vsync   5 Vback   32 Vpol N
    Display Range Limits:
      Monitor ranges (Bare Limits): 60-144 Hz V, 167-167 kHz H, max dotclock 340 MHz
    Alphanumeric Data String: 'PPCRY'
    Manufacturer-Specified Display Descriptor (0x00): 00 00 00 02 41 0f 28 00 02 00 00 0f 41 0a 20 20 '....A.(.....A.  '
  Extension blocks: 1
Checksum: 0xce

----------------

Block 1, DisplayID Extension Block:
  Version: 1.3
  Extension Count: 0
  Display Product Type: Extension Section
  Video Timing Modes Type 1 - Detailed Timings Data Block:
    DTD:  1920x1080  143.985606 Hz  16:9    166.591 kHz    346.510000 MHz (aspect 16:9, no 3D stereo, preferred)
               Hfront   48 Hsync  32 Hback   80 Hpol N
               Vfront    3 Vsync   5 Vback   69 Vpol N
  Checksum: 0xf7
Checksum: 0x90

----------------

Warnings:

Block 0, Base EDID:
  Missing Display Product Name.
EDID:
  Base EDID: Some timings are out of range of the Monitor Ranges:
    Horizontal Freq: 67.187 - 166.591 kHz (Monitor: 167.000 - 167.000 kHz)
    Maximum Clock: 346.510 MHz (Monitor: 340.000 MHz)

Failures:

Block 0, Base EDID:
  Alphanumeric Data String: Non-printable character.
Block 1, DisplayID Extension Block:
  DisplayID Base Block has no product type.
EDID:
  DisplayID: Missing DisplayID Product Identification Data Block.

EDID conformity: FAIL
