
EDID (hex):
00ffffffffffff000cf40a0000000000
010f010380000000ee00000000000000
000000afcf0081800101010101010101
010101010101302a0098510030403070
1300000000000018000000fd0032783c
4b0b000a202020202020000000fe0063
6f6e67617465632041470a0a0000000e
00090000000000000000000000000057

Extracted contents:
header:          00 ff ff ff ff ff ff 00
serial number:   0c f4 0a 00 00 00 00 00 01 0f
version:         01 03
basic params:    80 00 00 00 ee
chroma info:     00 00 00 00 00 00 00 00 00 00
established:     af cf 00
standard:        81 80 01 01 01 01 01 01 01 01 01 01 01 01 01 01
descriptor 1:    30 2a 00 98 51 00 30 40 30 70 13 00 00 00 00 00 00 18
descriptor 2:    00 00 00 fd 00 32 78 3c 4b 0b 00 0a 20 20 20 20 20 20
descriptor 3:    00 00 00 fe 00 63 6f 6e 67 61 74 65 63 20 41 47 0a 0a
descriptor 4:    00 00 00 0e 00 09 00 00 00 00 00 00 00 00 00 00 00 00
extensions:      00
checksum:        57

EDID version: 1.3
Manufacturer: CGT Model a Serial Number --
Digital display
Image size is variable
Gamma: 1.00
DPMS levels: Standby Suspend Off
RGB color display
Default (sRGB) color space is primary color space
First detailed timing is preferred timing
Display x,y Chromaticity:
  Red:   0.0000, 0.0000
  Green: 0.0000, 0.0000
  Blue:  0.0000, 0.0000
  White: 0.0000, 0.0000
Established timings supported:
  720x400@70Hz 9:5 HorFreq: 31469 Hz Clock: 28.320 MHz
  640x480@60Hz 4:3 HorFreq: 31469 Hz Clock: 25.175 MHz
  640x480@72Hz 4:3 HorFreq: 37900 Hz Clock: 31.500 MHz
  640x480@75Hz 4:3 HorFreq: 37500 Hz Clock: 31.500 MHz
  800x600@56Hz 4:3 HorFreq: 35200 Hz Clock: 36.000 MHz
  800x600@60Hz 4:3 HorFreq: 37900 Hz Clock: 40.000 MHz
  800x600@72Hz 4:3 HorFreq: 48100 Hz Clock: 50.000 MHz
  800x600@75Hz 4:3 HorFreq: 46900 Hz Clock: 49.500 MHz
  1024x768@60Hz 4:3 HorFreq: 48400 Hz Clock: 65.000 MHz
  1024x768@70Hz 4:3 HorFreq: 56500 Hz Clock: 75.000 MHz
  1024x768@75Hz 4:3 HorFreq: 60000 Hz Clock: 78.750 MHz
  1280x1024@75Hz 5:4 HorFreq: 80000 Hz Clock: 135.000 MHz
Standard timings supported:
  1280x1024@60Hz 5:4 HorFreq: 64000 Hz Clock: 108.000 MHz
Detailed mode: Clock 108.000 MHz, 0 mm x 0 mm
               1280 1328 1440 1688 hborder 0
               1024 1025 1028 1072 vborder 0
               -hsync -vsync 
               VertFreq: 59 Hz, HorFreq: 63981 Hz
Monitor ranges (GTF): 50-120Hz V, 60-75kHz H, max dotclock 110MHz
ASCII string: congatec AG
Manufacturer-specified data, tag 14
Checksum: 0x57 (valid)
EDID block does NOT conform to EDID 1.3!
	sRGB is signaled, but the chromaticities do not match
	Missing name descriptor
	Detailed block string not properly terminated
One or more of the timings is out of range of the Monitor Ranges:
  Vertical Freq: 56 - 75 Hz
  Horizontal Freq: 31469 - 80000 Hz
  Maximum Clock: 135.000 MHz
EDID block does not conform at all!
	Bad year of manufacture
