
EDID (hex):
00ffffffffffff00593a24ca01000000
1e14010381351d78ebb290a456549f27
0c505400000001010101010101010101
010101010101023a801871382d40582c
4500132b2100001e00000010001a2740
68b03600132b2100001c000000100000
1e3040803700132b2100001c000000fc
0056495a494f2050430a2020202000de

Extracted contents:
header:          00 ff ff ff ff ff ff 00
serial number:   59 3a 24 ca 01 00 00 00 1e 14
version:         01 03
basic params:    81 35 1d 78 eb
chroma info:     b2 90 a4 56 54 9f 27 0c 50 54
established:     00 00 00
standard:        01 01 01 01 01 01 01 01 01 01 01 01 01 01 01 01
descriptor 1:    02 3a 80 18 71 38 2d 40 58 2c 45 00 13 2b 21 00 00 1e
descriptor 2:    00 00 00 10 00 1a 27 40 68 b0 36 00 13 2b 21 00 00 1c
descriptor 3:    00 00 00 10 00 00 1e 30 40 80 37 00 13 2b 21 00 00 1c
descriptor 4:    00 00 00 fc 00 56 49 5a 49 4f 20 50 43 0a 20 20 20 20
extensions:      00
checksum:        de

EDID version: 1.3
Manufacturer: VIZ Model ca24 Serial Number --
Made in week 30 of 2010
Digital display
DFP 1.x compatible TMDS
Maximum image size: 53 cm x 29 cm
Gamma: 2.20
DPMS levels: Standby Suspend Off
RGB color display
First detailed timing is preferred timing
Supports GTF timings within operating range
Display x,y Chromaticity:
  Red:   0.6425, 0.3388
  Green: 0.3281, 0.6230
  Blue:  0.1542, 0.0478
  White: 0.3125, 0.3281
Established timings supported:
Standard timings supported:
Detailed mode: Clock 148.500 MHz, 531 mm x 299 mm
               1920 2008 2052 2200 hborder 0
               1080 1084 1089 1125 vborder 0
               +hsync +vsync 
               VertFreq: 60 Hz, HorFreq: 67500 Hz
Dummy block
Dummy block
Monitor name: VIZIO PC
Checksum: 0xde (valid)
EDID block does NOT conform to EDID 1.3!
	Missing monitor ranges
EDID block does not conform at all!
	Dummy block filled with garbage
