
EDID (hex):
00ffffffffffff0034ac584701010101
1811010380291f78eab385a754499623
135054bfef80714f81808140814f0101
010101010101483f403062b0324040c0
130098321100001e000000fd00324c1f
5211000a202020202020000000fc0052
44543230314c0a2020202020000000ff
003736323132393032414a0a2020008a

Extracted contents:
header:          00 ff ff ff ff ff ff 00
serial number:   34 ac 58 47 01 01 01 01 18 11
version:         01 03
basic params:    80 29 1f 78 ea
chroma info:     b3 85 a7 54 49 96 23 13 50 54
established:     bf ef 80
standard:        71 4f 81 80 81 40 81 4f 01 01 01 01 01 01 01 01
descriptor 1:    48 3f 40 30 62 b0 32 40 40 c0 13 00 98 32 11 00 00 1e
descriptor 2:    00 00 00 fd 00 32 4c 1f 52 11 00 0a 20 20 20 20 20 20
descriptor 3:    00 00 00 fc 00 52 44 54 32 30 31 4c 0a 20 20 20 20 20
descriptor 4:    00 00 00 ff 00 37 36 32 31 32 39 30 32 41 4a 0a 20 20
extensions:      00
checksum:        8a

EDID version: 1.3
Manufacturer: MEL Model 4758 Serial Number --
Made in week 24 of 2007
Digital display
Maximum image size: 41 cm x 31 cm
Gamma: 2.20
DPMS levels: Standby Suspend Off
RGB color display
First detailed timing is preferred timing
Display x,y Chromaticity:
  Red:   0.6542, 0.3310
  Green: 0.2851, 0.5888
  Blue:  0.1386, 0.0742
  White: 0.3134, 0.3291
Established timings supported:
  720x400@70Hz 9:5 HorFreq: 31469 Hz Clock: 28.320 MHz
  640x480@60Hz 4:3 HorFreq: 31469 Hz Clock: 25.175 MHz
  640x480@67Hz 4:3 HorFreq: 35000 Hz Clock: 30.240 MHz
  640x480@72Hz 4:3 HorFreq: 37900 Hz Clock: 31.500 MHz
  640x480@75Hz 4:3 HorFreq: 37500 Hz Clock: 31.500 MHz
  800x600@56Hz 4:3 HorFreq: 35200 Hz Clock: 36.000 MHz
  800x600@60Hz 4:3 HorFreq: 37900 Hz Clock: 40.000 MHz
  800x600@72Hz 4:3 HorFreq: 48100 Hz Clock: 50.000 MHz
  800x600@75Hz 4:3 HorFreq: 46900 Hz Clock: 49.500 MHz
  832x624@75Hz 4:3 HorFreq: 49726 Hz Clock: 57.284 MHz
  1024x768@60Hz 4:3 HorFreq: 48400 Hz Clock: 65.000 MHz
  1024x768@70Hz 4:3 HorFreq: 56500 Hz Clock: 75.000 MHz
  1024x768@75Hz 4:3 HorFreq: 60000 Hz Clock: 78.750 MHz
  1280x1024@75Hz 5:4 HorFreq: 80000 Hz Clock: 135.000 MHz
  1152x870@75Hz 192:145 HorFreq: 67500 Hz Clock: 108.000 MHz
Standard timings supported:
  1152x864@75Hz 4:3 HorFreq: 67500 Hz Clock: 108.000 MHz
  1280x1024@60Hz 5:4 HorFreq: 64000 Hz Clock: 108.000 MHz
  1280x960@60Hz 4:3 HorFreq: 60000 Hz Clock: 108.000 MHz
  1280x960@75Hz 4:3
Detailed mode: Clock 162.000 MHz, 408 mm x 306 mm
               1600 1664 1856 2160 hborder 0
               1200 1201 1204 1250 vborder 0
               +hsync +vsync 
               VertFreq: 60 Hz, HorFreq: 75000 Hz
Monitor ranges (GTF): 50-76Hz V, 31-82kHz H, max dotclock 170MHz
Monitor name: RDT201L
Serial number: --
Checksum: 0x8a (valid)
