edid-decode (hex):

00 ff ff ff ff ff ff 00 09 d1 02 01 ae 0a 00 00
31 0c 01 03 08 1f 17 c3 ea eb 2e a2 55 47 99 25
10 47 4f af ce 00 45 59 61 59 81 80 01 01 01 01
01 01 01 01 01 01 ea 24 00 60 41 00 28 30 30 60
13 00 36 e6 10 00 00 1e 00 00 00 fc 00 42 45 4e
51 20 56 37 37 32 0a 20 20 20 00 00 00 ff 00 30
32 37 33 34 0a 20 20 20 20 20 20 20 00 00 00 fd
00 32 78 1e 48 0b 00 0a 20 20 20 20 20 20 00 49

00 ff ff ff ff ff ff 00 09 d1 02 01 ae 0a 00 00
31 0c 01 03 08 1f 17 c3 ea eb 2e a2 55 47 99 25
10 47 4f af ce 00 45 59 61 59 81 80 01 01 01 01
01 01 01 01 01 01 ea 24 00 60 41 00 28 30 30 60
13 00 36 e6 10 00 00 1e 00 00 00 fc 00 42 45 4e
51 20 56 37 37 32 0a 20 20 20 00 00 00 ff 00 30
32 37 33 34 0a 20 20 20 20 20 20 20 00 00 00 fd
00 32 78 1e 48 0b 00 0a 20 20 20 20 20 20 00 49

----------------

Block 0, Base EDID:
  EDID Structure Version & Revision: 1.3
  Vendor & Product Identification:
    Manufacturer: BNQ
    Model: 258
    Serial Number: ...
    Made in: week 49 of 2002
  Basic Display Parameters & Features:
    Analog display
    Signal Level Standard: 0.700 : 0.300 : 1.000 V p-p
    Blank level equals black level
    Sync: Separate
    Maximum image size: 31 cm x 23 cm
    Gamma: 2.95
    DPMS levels: Standby Suspend Off
    RGB color display
    First detailed timing is the preferred timing
  Color Characteristics:
    Red  : 0.6357, 0.3339
    Green: 0.2792, 0.6005
    Blue : 0.1445, 0.0644
    White: 0.2802, 0.3105
  Established Timings I & II:
    IBM     :   720x400    70.081663 Hz   9:5     31.467 kHz     28.320000 MHz
    DMT 0x04:   640x480    59.940476 Hz   4:3     31.469 kHz     25.175000 MHz
    DMT 0x05:   640x480    72.808802 Hz   4:3     37.861 kHz     31.500000 MHz
    DMT 0x06:   640x480    75.000000 Hz   4:3     37.500 kHz     31.500000 MHz
    DMT 0x08:   800x600    56.250000 Hz   4:3     35.156 kHz     36.000000 MHz
    DMT 0x09:   800x600    60.316541 Hz   4:3     37.879 kHz     40.000000 MHz
    DMT 0x0a:   800x600    72.187572 Hz   4:3     48.077 kHz     50.000000 MHz
    DMT 0x0b:   800x600    75.000000 Hz   4:3     46.875 kHz     49.500000 MHz
    DMT 0x10:  1024x768    60.003840 Hz   4:3     48.363 kHz     65.000000 MHz
    DMT 0x11:  1024x768    70.069359 Hz   4:3     56.476 kHz     75.000000 MHz
    DMT 0x12:  1024x768    75.028582 Hz   4:3     60.023 kHz     78.750000 MHz
  Standard Timings:
    DMT 0x0c:   800x600    85.061274 Hz   4:3     53.674 kHz     56.250000 MHz
    DMT 0x13:  1024x768    84.996690 Hz   4:3     68.677 kHz     94.500000 MHz
    DMT 0x23:  1280x1024   60.019740 Hz   5:4     63.981 kHz    108.000000 MHz
  Detailed Timing Descriptors:
    DTD 1:  1024x768    84.996690 Hz   4:3     68.677 kHz     94.500000 MHz (310 mm x 230 mm)
                 Hfront   48 Hsync  96 Hback  208 Hpol P
                 Vfront    1 Vsync   3 Vback   36 Vpol P
    Display Product Name: 'BENQ V772'
    Display Product Serial Number: ...
    Display Range Limits:
      Monitor ranges (GTF): 50-120 Hz V, 30-72 kHz H, max dotclock 110 MHz
Checksum: 0x49

----------------

Block 1, Unknown EDID Extension Block 0x00:
  00 ff ff ff ff ff ff 00 09 d1 02 01 ae 0a 00 00 '................'
  31 0c 01 03 08 1f 17 c3 ea eb 2e a2 55 47 99 25 '1...........UG.%'
  10 47 4f af ce 00 45 59 61 59 81 80 01 01 01 01 '.GO...EYaY......'
  01 01 01 01 01 01 ea 24 00 60 41 00 28 30 30 60 '.......$.`A.(00`'
  13 00 36 e6 10 00 00 1e 00 00 00 fc 00 42 45 4e '..6..........BEN'
  51 20 56 37 37 32 0a 20 20 20 00 00 00 ff 00 30 'Q V772.   .....0'
  32 37 33 34 0a 20 20 20 20 20 20 20 00 00 00 fd '2734.       ....'
  00 32 78 1e 48 0b 00 0a 20 20 20 20 20 20 00 49 '.2x.H...      .I'
Checksum: 0x49

----------------

Failures:

Block 1, Base EDID:
  Unknown Extension Block.
EDID:
  Base EDID: EDID specified 0 extension block(s), but found 1 extension block(s).

EDID conformity: FAIL
