
EDID (hex):
00ffffffffffff0015a1830700000000
2111010308291a78eade95a3544c9926
0f5054bfef80950f714f814081c0810f
904f9040494fc422a0a050841a303020
36009a011100001e000000fc00453139
5436570a202020202020000000fd0038
4c1f5410000a202020202020000000ff
004d514737384430433037363431008c

Extracted contents:
header:          00 ff ff ff ff ff ff 00
serial number:   15 a1 83 07 00 00 00 00 21 11
version:         01 03
basic params:    08 29 1a 78 ea
chroma info:     de 95 a3 54 4c 99 26 0f 50 54
established:     bf ef 80
standard:        95 0f 71 4f 81 40 81 c0 81 0f 90 4f 90 40 49 4f
descriptor 1:    c4 22 a0 a0 50 84 1a 30 30 20 36 00 9a 01 11 00 00 1e
descriptor 2:    00 00 00 fc 00 45 31 39 54 36 57 0a 20 20 20 20 20 20
descriptor 3:    00 00 00 fd 00 38 4c 1f 54 10 00 0a 20 20 20 20 20 20
descriptor 4:    00 00 00 ff 00 4d 51 47 37 38 44 30 43 30 37 36 34 31
extensions:      00
checksum:        8c

EDID version: 1.3
Manufacturer: EMA Model 783 Serial Number --
Made in week 33 of 2007
Analog display, Input voltage level: 0.7/0.3 V
Sync: Separate 
Maximum image size: 41 cm x 26 cm
Gamma: 2.20
DPMS levels: Standby Suspend Off
RGB color display
First detailed timing is preferred timing
Display x,y Chromaticity:
  Red:   0.6396, 0.3291
  Green: 0.2998, 0.5996
  Blue:  0.1503, 0.0595
  White: 0.3134, 0.3291
Established timings supported:
  720x400@70Hz 9:5 HorFreq: 31469 Hz Clock: 28.320 MHz
  640x480@60Hz 4:3 HorFreq: 31469 Hz Clock: 25.175 MHz
  640x480@67Hz 4:3 HorFreq: 35000 Hz Clock: 30.240 MHz
  640x480@72Hz 4:3 HorFreq: 37900 Hz Clock: 31.500 MHz
  640x480@75Hz 4:3 HorFreq: 37500 Hz Clock: 31.500 MHz
  800x600@56Hz 4:3 HorFreq: 35200 Hz Clock: 36.000 MHz
  800x600@60Hz 4:3 HorFreq: 37900 Hz Clock: 40.000 MHz
  800x600@72Hz 4:3 HorFreq: 48100 Hz Clock: 50.000 MHz
  800x600@75Hz 4:3 HorFreq: 46900 Hz Clock: 49.500 MHz
  832x624@75Hz 4:3 HorFreq: 49726 Hz Clock: 57.284 MHz
  1024x768@60Hz 4:3 HorFreq: 48400 Hz Clock: 65.000 MHz
  1024x768@70Hz 4:3 HorFreq: 56500 Hz Clock: 75.000 MHz
  1024x768@75Hz 4:3 HorFreq: 60000 Hz Clock: 78.750 MHz
  1280x1024@75Hz 5:4 HorFreq: 80000 Hz Clock: 135.000 MHz
  1152x870@75Hz 192:145 HorFreq: 67500 Hz Clock: 108.000 MHz
Standard timings supported:
  1440x900@75Hz 16:10 HorFreq: 82300 Hz Clock: 156.000 MHz
  1152x864@75Hz 4:3 HorFreq: 67500 Hz Clock: 108.000 MHz
  1280x960@60Hz 4:3 HorFreq: 60000 Hz Clock: 108.000 MHz
  1280x720@60Hz 16:9
  1280x800@75Hz 16:10
  1400x1050@75Hz 4:3 HorFreq: 82300 Hz Clock: 156.000 MHz
  1400x1050@60Hz 4:3 HorFreq: 64700 Hz Clock: 101.000 MHz
  832x624@75Hz 4:3 HorFreq: 49726 Hz Clock: 57.284 MHz
Detailed mode: Clock 89.000 MHz, 410 mm x 257 mm
               1440 1488 1520 1600 hborder 0
                900  903  909  926 vborder 0
               +hsync +vsync 
               VertFreq: 60 Hz, HorFreq: 55625 Hz
Monitor name: E19T6W
Monitor ranges (GTF): 56-76Hz V, 31-84kHz H, max dotclock 160MHz
Serial number: --
Checksum: 0x8c (valid)
