edid-decode (hex):

00 ff ff ff ff ff ff 00 41 0c 29 08 ee be 03 00
33 0f 01 03 0e 1e 17 78 ea b1 a5 a1 58 4f 95 26
16 50 54 bf ee 00 01 01 01 01 01 01 01 01 01 01
01 01 01 01 01 01 64 19 00 40 41 00 26 30 18 88
36 00 33 e6 10 00 00 18 00 00 00 ff 00 20 44 53
20 20 32 34 35 34 38 36 0a 20 00 00 00 fc 00 50
68 69 6c 69 70 73 20 31 35 30 53 0a 00 00 00 fd
00 38 4c 1e 3f 08 00 0a 20 20 20 20 20 20 00 be

00 ff ff ff ff ff ff 00 41 0c 29 08 ee be 03 00
33 0f 01 03 0e 1e 17 78 ea b1 a5 a1 58 4f 95 26
16 50 54 bf ee 00 01 01 01 01 01 01 01 01 01 01
01 01 01 01 01 01 64 19 00 40 41 00 26 30 18 88
36 00 33 e6 10 00 00 18 00 00 00 ff 00 20 44 53
20 20 32 34 35 34 38 36 0a 20 00 00 00 fc 00 50
68 69 6c 69 70 73 20 31 35 30 53 0a 00 00 00 fd
00 38 4c 1e 3f 08 00 0a 20 20 20 20 20 20 00 be

----------------

Block 0, Base EDID:
  EDID Structure Version & Revision: 1.3
  Vendor & Product Identification:
    Manufacturer: PHL
    Model: 2089
    Serial Number: ...
    Made in: week 51 of 2005
  Basic Display Parameters & Features:
    Analog display
    Signal Level Standard: 0.700 : 0.300 : 1.000 V p-p
    Blank level equals black level
    Sync: Separate Composite SyncOnGreen
    Maximum image size: 30 cm x 23 cm
    Gamma: 2.20
    DPMS levels: Standby Suspend Off
    RGB color display
    First detailed timing is the preferred timing
  Color Characteristics:
    Red  : 0.6308, 0.3466
    Green: 0.3085, 0.5830
    Blue : 0.1503, 0.0878
    White: 0.3134, 0.3291
  Established Timings I & II:
    IBM     :   720x400    70.081663 Hz   9:5     31.467 kHz     28.320000 MHz
    DMT 0x04:   640x480    59.940476 Hz   4:3     31.469 kHz     25.175000 MHz
    Apple   :   640x480    66.666667 Hz   4:3     35.000 kHz     30.240000 MHz
    DMT 0x05:   640x480    72.808802 Hz   4:3     37.861 kHz     31.500000 MHz
    DMT 0x06:   640x480    75.000000 Hz   4:3     37.500 kHz     31.500000 MHz
    DMT 0x08:   800x600    56.250000 Hz   4:3     35.156 kHz     36.000000 MHz
    DMT 0x09:   800x600    60.316541 Hz   4:3     37.879 kHz     40.000000 MHz
    DMT 0x0a:   800x600    72.187572 Hz   4:3     48.077 kHz     50.000000 MHz
    DMT 0x0b:   800x600    75.000000 Hz   4:3     46.875 kHz     49.500000 MHz
    Apple   :   832x624    74.551266 Hz   4:3     49.726 kHz     57.284000 MHz
    DMT 0x10:  1024x768    60.003840 Hz   4:3     48.363 kHz     65.000000 MHz
    DMT 0x11:  1024x768    70.069359 Hz   4:3     56.476 kHz     75.000000 MHz
    DMT 0x12:  1024x768    75.028582 Hz   4:3     60.023 kHz     78.750000 MHz
  Standard Timings: none
  Detailed Timing Descriptors:
    DTD 1:  1024x768    60.003840 Hz   4:3     48.363 kHz     65.000000 MHz (307 mm x 230 mm)
                 Hfront   24 Hsync 136 Hback  160 Hpol N
                 Vfront    3 Vsync   6 Vback   29 Vpol N
    Display Product Serial Number: ...
    Display Product Name: 'Philips 150S'
    Display Range Limits:
      Monitor ranges (GTF): 56-76 Hz V, 30-63 kHz H, max dotclock 80 MHz
Checksum: 0xbe

----------------

Block 1, Unknown EDID Extension Block 0x00:
  00 ff ff ff ff ff ff 00 41 0c 29 08 ee be 03 00 '........A.).....'
  33 0f 01 03 0e 1e 17 78 ea b1 a5 a1 58 4f 95 26 '3......x....XO.&'
  16 50 54 bf ee 00 01 01 01 01 01 01 01 01 01 01 '.PT.............'
  01 01 01 01 01 01 64 19 00 40 41 00 26 30 18 88 '......d..@A.&0..'
  36 00 33 e6 10 00 00 18 00 00 00 ff 00 20 44 53 '6.3.......... DS'
  20 20 32 34 35 34 38 36 0a 20 00 00 00 fc 00 50 '  245486. .....P'
  68 69 6c 69 70 73 20 31 35 30 53 0a 00 00 00 fd 'hilips 150S.....'
  00 38 4c 1e 3f 08 00 0a 20 20 20 20 20 20 00 be '.8L.?...      ..'
Checksum: 0xbe

----------------

Failures:

Block 1, Base EDID:
  Unknown Extension Block.
EDID:
  Base EDID: EDID specified 0 extension block(s), but found 1 extension block(s).

EDID conformity: FAIL
