
EDID (hex):
00ffffffffffff004c83488600000000
00190104951b0f780ac1259557579329
1d505400000001010101010101010101
010101010101603980dc703840403020
2500149b1000001ae72d80dc70384040
3020250058c21000001a000000fe0031
4639575280313235484c0a2000000000
00004121a8010000000a010a2020000b

Extracted contents:
header:          00 ff ff ff ff ff ff 00
serial number:   4c 83 48 86 00 00 00 00 00 19
version:         01 04
basic params:    95 1b 0f 78 0a
chroma info:     c1 25 95 57 57 93 29 1d 50 54
established:     00 00 00
standard:        01 01 01 01 01 01 01 01 01 01 01 01 01 01 01 01
descriptor 1:    60 39 80 dc 70 38 40 40 30 20 25 00 14 9b 10 00 00 1a
descriptor 2:    e7 2d 80 dc 70 38 40 40 30 20 25 00 58 c2 10 00 00 1a
descriptor 3:    00 00 00 fe 00 31 46 39 57 52 80 31 32 35 48 4c 0a 20
descriptor 4:    00 00 00 00 00 00 41 21 a8 01 00 00 00 0a 01 0a 20 20
extensions:      00
checksum:        0b

EDID version: 1.4
Manufacturer: SDC Model 8648 Serial Number --
Made in year 2015
Digital display
6 bits per primary color channel
DisplayPort interface
Maximum image size: 27 cm x 15 cm
Gamma: 2.20
Supported color formats: RGB 4:4:4, YCrCb 4:4:4
First detailed timing includes the native pixel format and preferred refresh rate
Display x,y Chromaticity:
  Red:   0.5849, 0.3398
  Green: 0.3398, 0.5751
  Blue:  0.1601, 0.1152
  White: 0.3134, 0.3291
Established timings supported:
Standard timings supported:
Detailed mode: Clock 146.880 MHz, 276 mm x 155 mm
               1920 1968 2000 2140 hborder 0
               1080 1082 1087 1144 vborder 0
               +hsync -vsync 
               VertFreq: 59 Hz, HorFreq: 68635 Hz
Detailed mode: Clock 117.510 MHz, 344 mm x 194 mm
               1920 1968 2000 2140 hborder 0
               1080 1082 1087 1144 vborder 0
               +hsync -vsync 
               VertFreq: 47 Hz, HorFreq: 54911 Hz
ASCII string: 1F9WR
Manufacturer-specified data, tag 0
Checksum: 0xb (valid)
EDID block does NOT conform to EDID 1.4!
	Missing name descriptor
	Missing monitor ranges
	Detailed block string not properly terminated
