
EDID (hex):
00ffffffffffff004c83488600000000
00190104951b0f780ac1259557579329
1d505400000001010101010101010101
010101010101603980dc703840403020
2500149b1000001ae72d80dc70384040
3020250058c21000001a000000fe0031
35344a3380313235484c0a2000000000
00004121a8010000000a010a2020004d

edid-decode (hex):

00 ff ff ff ff ff ff 00 4c 83 48 86 00 00 00 00
00 19 01 04 95 1b 0f 78 0a c1 25 95 57 57 93 29
1d 50 54 00 00 00 01 01 01 01 01 01 01 01 01 01
01 01 01 01 01 01 60 39 80 dc 70 38 40 40 30 20
25 00 14 9b 10 00 00 1a e7 2d 80 dc 70 38 40 40
30 20 25 00 58 c2 10 00 00 1a 00 00 00 fe 00 31
35 34 4a 33 80 31 32 35 48 4c 0a 20 00 00 00 00
00 00 41 21 a8 01 00 00 00 0a 01 0a 20 20 00 4d

----------------

Block 0, Base EDID:
  EDID Structure Version & Revision: 1.4
  Vendor & Product Identification:
    Manufacturer: SDC
    Model: 34376
    Made in: 2015
  Basic Display Parameters & Features:
    Digital display
    Bits per primary color channel: 6
    DisplayPort interface
    Maximum image size: 27 cm x 15 cm
    Gamma: 2.20
    Supported color formats: RGB 4:4:4, YCrCb 4:4:4
    First detailed timing includes the native pixel format and preferred refresh rate
  Color Characteristics:
    Red  : 0.5849, 0.3398
    Green: 0.3398, 0.5751
    Blue : 0.1601, 0.1152
    White: 0.3134, 0.3291
  Established Timings I & II: none
  Standard Timings: none
  Detailed Timing Descriptors:
    DTD 1:  1920x1080   59.996079 Hz  16:9     68.636 kHz    146.880000 MHz (276 mm x 155 mm)
                 Hfront   48 Hsync  32 Hback  140 Hpol P
                 Vfront    2 Vsync   5 Vback   57 Vpol N
    DTD 2:  1920x1080   47.999314 Hz  16:9     54.911 kHz    117.510000 MHz (344 mm x 194 mm)
                 Hfront   48 Hsync  32 Hback  140 Hpol P
                 Vfront    2 Vsync   5 Vback   57 Vpol N
    Alphanumeric Data String: '154J3'
    Manufacturer-Specified Display Descriptor (0x00): 00 00 00 00 41 21 a8 01 00 00 00 0a 01 0a 20 20 '....A!........  '
Checksum: 0x4d
