
EDID (hex):
00ffffffffffff000dae351700000000
271801049526167802d495a355509d27
0f505400000001010101010101010101
010101010101b03680b670381e403020
35007ed71000001ac02b80b670381e40
302035007ed71000001a000000fe0039
5936474a803137334847450a00000000
000041319e000000000a010a20200032

Extracted contents:
header:          00 ff ff ff ff ff ff 00
serial number:   0d ae 35 17 00 00 00 00 27 18
version:         01 04
basic params:    95 26 16 78 02
chroma info:     d4 95 a3 55 50 9d 27 0f 50 54
established:     00 00 00
standard:        01 01 01 01 01 01 01 01 01 01 01 01 01 01 01 01
descriptor 1:    b0 36 80 b6 70 38 1e 40 30 20 35 00 7e d7 10 00 00 1a
descriptor 2:    c0 2b 80 b6 70 38 1e 40 30 20 35 00 7e d7 10 00 00 1a
descriptor 3:    00 00 00 fe 00 39 59 36 47 4a 80 31 37 33 48 47 45 0a
descriptor 4:    00 00 00 00 00 00 41 31 9e 00 00 00 00 0a 01 0a 20 20
extensions:      00
checksum:        32

EDID version: 1.4
Manufacturer: CMN Model 1735 Serial Number --
Made in week 39 of 2014
Digital display
6 bits per primary color channel
DisplayPort interface
Maximum image size: 38 cm x 22 cm
Gamma: 2.20
Supported color formats: RGB 4:4:4
First detailed timing includes the native pixel format and preferred refresh rate
Display x,y Chromaticity:
  Red:   0.6396, 0.3330
  Green: 0.3134, 0.6132
  Blue:  0.1542, 0.0595
  White: 0.3134, 0.3291
Established timings supported:
Standard timings supported:
Detailed mode: Clock 140.000 MHz, 382 mm x 215 mm
               1920 1968 2000 2102 hborder 0
               1080 1083 1088 1110 vborder 0
               +hsync -vsync 
               VertFreq: 60 Hz, HorFreq: 66603 Hz
Detailed mode: Clock 112.000 MHz, 382 mm x 215 mm
               1920 1968 2000 2102 hborder 0
               1080 1083 1088 1110 vborder 0
               +hsync -vsync 
               VertFreq: 48 Hz, HorFreq: 53282 Hz
ASCII string: 9Y6GJ
Manufacturer-specified data, tag 0
Checksum: 0x32 (valid)
EDID block does NOT conform to EDID 1.4!
	Missing name descriptor
	Missing monitor ranges
	Detailed block string not properly terminated


