edid-decode (hex):

00 ff ff ff ff ff ff 00 06 af 9b 12 00 00 00 00
00 19 01 04 a5 26 15 78 02 08 a5 a4 56 52 9d 27
0a 50 54 00 00 00 01 01 01 01 01 01 01 01 01 01
01 01 01 01 01 01 66 d0 00 a0 f0 70 3e 80 30 20
35 00 7e d6 10 00 00 1a b8 a6 00 a0 f0 70 3e 80
30 20 35 00 7e d6 10 00 00 1a 00 00 00 fe 00 54
4a 36 56 4d 14 42 31 37 33 5a 41 4e 00 00 00 00
00 02 41 01 a8 00 11 00 00 0b 01 0a 20 20 00 f9

00 ff ff ff ff ff ff 00 06 af 9b 12 00 00 00 00
00 19 01 04 a5 26 15 78 02 08 a5 a4 56 52 9d 27
0a 50 54 00 00 00 01 01 01 01 01 01 01 01 01 01
01 01 01 01 01 01 66 d0 00 a0 f0 70 3e 80 30 20
35 00 7e d6 10 00 00 1a b8 a6 00 a0 f0 70 3e 80
30 20 35 00 7e d6 10 00 00 1a 00 00 00 fe 00 54
4a 36 56 4d 14 42 31 37 33 5a 41 4e 00 00 00 00
00 02 41 01 a8 00 11 00 00 0b 01 0a 20 20 00 f9

----------------

Block 0, Base EDID:
  EDID Structure Version & Revision: 1.4
  Vendor & Product Identification:
    Manufacturer: AUO
    Model: 4763
    Made in: 2015
  Basic Display Parameters & Features:
    Digital display
    Bits per primary color channel: 8
    DisplayPort interface
    Maximum image size: 38 cm x 21 cm
    Gamma: 2.20
    Supported color formats: RGB 4:4:4
    First detailed timing includes the native pixel format and preferred refresh rate
  Color Characteristics:
    Red  : 0.6406, 0.3359
    Green: 0.3222, 0.6132
    Blue : 0.1542, 0.0410
    White: 0.3134, 0.3291
  Established Timings I & II: none
  Standard Timings: none
  Detailed Timing Descriptors:
    DTD 1:  3840x2160   60.024752 Hz  16:9    133.375 kHz    533.500000 MHz (382 mm x 214 mm)
                 Hfront   48 Hsync  32 Hback   80 Hpol P
                 Vfront    3 Vsync   5 Vback   54 Vpol N
    DTD 2:  3840x2160   48.019802 Hz  16:9    106.700 kHz    426.800000 MHz (382 mm x 214 mm)
                 Hfront   48 Hsync  32 Hback   80 Hpol P
                 Vfront    3 Vsync   5 Vback   54 Vpol N
    Alphanumeric Data String: 'TJ6VM'
    Manufacturer-Specified Display Descriptor (0x00): 00 00 00 02 41 01 a8 00 11 00 00 0b 01 0a 20 20 '....A.........  '
Checksum: 0xf9

----------------

Block 1, Unknown EDID Extension Block 0x00:
  00 ff ff ff ff ff ff 00 06 af 9b 12 00 00 00 00 '................'
  00 19 01 04 a5 26 15 78 02 08 a5 a4 56 52 9d 27 '.....&.x....VR.''
  0a 50 54 00 00 00 01 01 01 01 01 01 01 01 01 01 '.PT.............'
  01 01 01 01 01 01 66 d0 00 a0 f0 70 3e 80 30 20 '......f....p>.0 '
  35 00 7e d6 10 00 00 1a b8 a6 00 a0 f0 70 3e 80 '5.~..........p>.'
  30 20 35 00 7e d6 10 00 00 1a 00 00 00 fe 00 54 '0 5.~..........T'
  4a 36 56 4d 14 42 31 37 33 5a 41 4e 00 00 00 00 'J6VM.B173ZAN....'
  00 02 41 01 a8 00 11 00 00 0b 01 0a 20 20 00 f9 '..A.........  ..'
Checksum: 0xf9

----------------

Warnings:

Block 0, Base EDID:
  Missing Display Product Name.

Failures:

Block 0, Base EDID:
  Alphanumeric Data String: Non-printable character.
Block 1, Base EDID:
  Unknown Extension Block.
EDID:
  Base EDID: EDID specified 0 extension block(s), but found 1 extension block(s).

EDID conformity: FAIL
