edid-decode (hex):

00 ff ff ff ff ff ff 00 4d 25 40 00 a2 01 00 00
31 08 01 01 0e 28 1e b4 e8 00 b2 a0 57 49 9b 26
10 48 4f a4 43 00 45 68 61 59 61 68 71 72 81 a8
a9 59 01 01 01 01 00 00 00 fc 00 4d 43 4d 20 32
31 32 56 0a 20 20 20 20 00 00 00 ff 00 59 45 43
42 30 30 30 34 31 38 0a 20 20 00 00 00 fd 00 32
a0 1e 6b 17 00 0a 20 20 20 20 20 20 86 3d 00 c0
51 00 30 40 40 a0 13 00 7c 1d 11 00 00 18 00 ca

00 ff ff ff ff ff ff 00 4d 25 40 00 a2 01 00 00
31 08 01 01 0e 28 1e b4 e8 00 b2 a0 57 49 9b 26
10 48 4f a4 43 00 45 68 61 59 61 68 71 72 81 a8
a9 59 01 01 01 01 00 00 00 fc 00 4d 43 4d 20 32
31 32 56 0a 20 20 20 20 00 00 00 ff 00 59 45 43
42 30 30 30 34 31 38 0a 20 20 00 00 00 fd 00 32
a0 1e 6b 17 00 0a 20 20 20 20 20 20 86 3d 00 c0
51 00 30 40 40 a0 13 00 7c 1d 11 00 00 18 00 ca

----------------

Block 0, Base EDID:
  EDID Structure Version & Revision: 1.1
  Vendor & Product Identification:
    Manufacturer: SIE
    Model: 64
    Serial Number: ...
    Made in: week 49 of 1998
  Basic Display Parameters & Features:
    Analog display
    Signal Level Standard: 0.700 : 0.300 : 1.000 V p-p
    Blank level equals black level
    Sync: Separate Composite SyncOnGreen
    Maximum image size: 40 cm x 30 cm
    Gamma: 2.80
    DPMS levels: Standby Suspend Off
    RGB color display
  Color Characteristics:
    Red  : 0.6250, 0.3398
    Green: 0.2851, 0.6054
    Blue : 0.1503, 0.0654
    White: 0.2812, 0.3105
  Established Timings I & II:
    IBM     :   720x400    70.081663 Hz   9:5     31.467 kHz     28.320000 MHz
    DMT 0x04:   640x480    59.940476 Hz   4:3     31.469 kHz     25.175000 MHz
    DMT 0x06:   640x480    75.000000 Hz   4:3     37.500 kHz     31.500000 MHz
    DMT 0x0b:   800x600    75.000000 Hz   4:3     46.875 kHz     49.500000 MHz
    DMT 0x12:  1024x768    75.028582 Hz   4:3     60.023 kHz     78.750000 MHz
    DMT 0x24:  1280x1024   75.024675 Hz   5:4     79.976 kHz    135.000000 MHz
  Standard Timings:
    Unknown :   800x600   100.000 Hz   4:3
    DMT 0x13:  1024x768    84.996690 Hz   4:3     68.677 kHz     94.500000 MHz
    Unknown :  1024x768   100.000 Hz   4:3
    Unknown :  1152x864   110.000 Hz   4:3
    Unknown :  1280x1024  100.000 Hz   5:4
    DMT 0x37:  1600x1200   85.000000 Hz   4:3    106.250 kHz    229.500000 MHz
  Detailed Timing Descriptors:
    Display Product Name: 'MCM 212V'
    Display Product Serial Number: ...
    Display Range Limits:
      Monitor ranges (GTF): 50-160 Hz V, 30-107 kHz H, max dotclock 230 MHz
    DTD 1:  1280x1024   85.024098 Hz   5:4     91.146 kHz    157.500000 MHz (380 mm x 285 mm)
                 Hfront   64 Hsync 160 Hback  224 Hpol N
                 Vfront    1 Vsync   3 Vback   44 Vpol N
Checksum: 0xca

----------------

Block 1, Unknown EDID Extension Block 0x00:
  00 ff ff ff ff ff ff 00 4d 25 40 00 a2 01 00 00 '........M%@.....'
  31 08 01 01 0e 28 1e b4 e8 00 b2 a0 57 49 9b 26 '1....(......WI.&'
  10 48 4f a4 43 00 45 68 61 59 61 68 71 72 81 a8 '.HO.C.EhaYahqr..'
  a9 59 01 01 01 01 00 00 00 fc 00 4d 43 4d 20 32 '.Y.........MCM 2'
  31 32 56 0a 20 20 20 20 00 00 00 ff 00 59 45 43 '12V.    .....YEC'
  42 30 30 30 34 31 38 0a 20 20 00 00 00 fd 00 32 'B000418.  .....2'
  a0 1e 6b 17 00 0a 20 20 20 20 20 20 86 3d 00 c0 '..k...      .=..'
  51 00 30 40 40 a0 13 00 7c 1d 11 00 00 18 00 ca 'Q.0@@...|.......'
Checksum: 0xca

----------------

Warnings:

Block 0, Base EDID:
  EDID Structure Version & Revision: EDID 1.1 is deprecated, do not use.
  Detailed Timing Descriptor #1: DTD is similar but not identical to DMT 0x25.

Failures:

Block 0, Base EDID:
  Detailed Timing Descriptor #1: Mismatch of image size 380x285 mm vs display size 400x300 mm.
  Detailed Timing Descriptor #1: Invalid detailed timing descriptor ordering.
Block 1, Base EDID:
  Unknown Extension Block.
EDID:
  Base EDID: EDID specified 0 extension block(s), but found 1 extension block(s).

EDID conformity: FAIL
