edid-decode (hex):

00 ff ff ff ff ff ff 00 06 09 09 97 64 05 00 00
34 0a 01 01 08 1a 14 b6 e8 06 4e a0 57 4f 97 26
10 47 4f a4 48 00 45 59 01 01 01 01 01 01 01 01
01 01 01 01 01 01 00 00 00 fe 00 4d 6f 6e 69 74
6f 72 0a 20 20 20 20 20 00 00 00 fe 00 4d 6f 6e
69 74 6f 72 0a 20 20 20 20 20 00 00 00 fe 00 4d
6f 6e 69 74 6f 72 0a 20 20 20 20 20 00 00 00 fe
00 4d 6f 6e 69 74 6f 72 0a 20 20 20 20 20 00 05

00 ff ff ff ff ff ff 00 06 09 09 97 64 05 00 00
34 0a 01 01 08 1a 14 b6 e8 06 4e a0 57 4f 97 26
10 47 4f a4 48 00 45 59 01 01 01 01 01 01 01 01
01 01 01 01 01 01 00 00 00 fe 00 4d 6f 6e 69 74
6f 72 0a 20 20 20 20 20 00 00 00 fe 00 4d 6f 6e
69 74 6f 72 0a 20 20 20 20 20 00 00 00 fe 00 4d
6f 6e 69 74 6f 72 0a 20 20 20 20 20 00 00 00 fe
00 4d 6f 6e 69 74 6f 72 0a 20 20 20 20 20 00 05

----------------

Block 0, Base EDID:
  EDID Structure Version & Revision: 1.1
  Vendor & Product Identification:
    Manufacturer: API
    Model: 38665
    Serial Number: ...
    Made in: week 52 of 2000
  Basic Display Parameters & Features:
    Analog display
    Signal Level Standard: 0.700 : 0.300 : 1.000 V p-p
    Blank level equals black level
    Sync: Separate
    Maximum image size: 26 cm x 20 cm
    Gamma: 2.82
    DPMS levels: Standby Suspend Off
    RGB color display
  Color Characteristics:
    Red  : 0.6250, 0.3398
    Green: 0.3095, 0.5917
    Blue : 0.1494, 0.0625
    White: 0.2802, 0.3105
  Established Timings I & II:
    IBM     :   720x400    70.081663 Hz   9:5     31.467 kHz     28.320000 MHz
    DMT 0x04:   640x480    59.940476 Hz   4:3     31.469 kHz     25.175000 MHz
    DMT 0x06:   640x480    75.000000 Hz   4:3     37.500 kHz     31.500000 MHz
    DMT 0x0b:   800x600    75.000000 Hz   4:3     46.875 kHz     49.500000 MHz
    DMT 0x10:  1024x768    60.003840 Hz   4:3     48.363 kHz     65.000000 MHz
  Standard Timings:
    DMT 0x0c:   800x600    85.061274 Hz   4:3     53.674 kHz     56.250000 MHz
  Detailed Timing Descriptors:
    Alphanumeric Data String: 'Monitor'
    Alphanumeric Data String: 'Monitor'
    Alphanumeric Data String: 'Monitor'
    Alphanumeric Data String: 'Monitor'
Checksum: 0x05

----------------

Block 1, Unknown EDID Extension Block 0x00:
  00 ff ff ff ff ff ff 00 06 09 09 97 64 05 00 00 '............d...'
  34 0a 01 01 08 1a 14 b6 e8 06 4e a0 57 4f 97 26 '4.........N.WO.&'
  10 47 4f a4 48 00 45 59 01 01 01 01 01 01 01 01 '.GO.H.EY........'
  01 01 01 01 01 01 00 00 00 fe 00 4d 6f 6e 69 74 '...........Monit'
  6f 72 0a 20 20 20 20 20 00 00 00 fe 00 4d 6f 6e 'or.     .....Mon'
  69 74 6f 72 0a 20 20 20 20 20 00 00 00 fe 00 4d 'itor.     .....M'
  6f 6e 69 74 6f 72 0a 20 20 20 20 20 00 00 00 fe 'onitor.     ....'
  00 4d 6f 6e 69 74 6f 72 0a 20 20 20 20 20 00 05 '.Monitor.     ..'
Checksum: 0x05

----------------

Warnings:

Block 0, Base EDID:
  EDID Structure Version & Revision: EDID 1.1 is deprecated, do not use.

Failures:

Block 1, Base EDID:
  Unknown Extension Block.
EDID:
  Base EDID: EDID specified 0 extension block(s), but found 1 extension block(s).

EDID conformity: FAIL
