
EDID (hex):
00ffffffffffff0006af471400000000
01100103801e13780a87f594574f8c27
27505400000001010101010101010101
010101010101442aa022528408304020
33002fbd100000180000000f00000000
00000000000000000020000000fe0041
554f0a202020202020202020000000fe
004231343150573031205634200a0097

edid-decode (hex):

00 ff ff ff ff ff ff 00 06 af 47 14 00 00 00 00
01 10 01 03 80 1e 13 78 0a 87 f5 94 57 4f 8c 27
27 50 54 00 00 00 01 01 01 01 01 01 01 01 01 01
01 01 01 01 01 01 44 2a a0 22 52 84 08 30 40 20
33 00 2f bd 10 00 00 18 00 00 00 0f 00 00 00 00
00 00 00 00 00 00 00 00 00 20 00 00 00 fe 00 41
55 4f 0a 20 20 20 20 20 20 20 20 20 00 00 00 fe
00 42 31 34 31 50 57 30 31 20 56 34 20 0a 00 97

----------------

Block 0, Base EDID:
  EDID Structure Version & Revision: 1.3
  Vendor & Product Identification:
    Manufacturer: AUO
    Model: 5191
    Made in: week 1 of 2006
  Basic Display Parameters & Features:
    Digital display
    Maximum image size: 30 cm x 19 cm
    Gamma: 2.20
    RGB color display
    First detailed timing is the preferred timing
  Color Characteristics:
    Red  : 0.5800, 0.3398
    Green: 0.3095, 0.5498
    Blue : 0.1552, 0.1552
    White: 0.3134, 0.3291
  Established Timings I & II: none
  Standard Timings: none
  Detailed Timing Descriptors:
    DTD 1:  1440x900    60.001508 Hz  16:10    54.481 kHz    108.200000 MHz (303 mm x 189 mm)
                 Hfront   64 Hsync  32 Hback  450 Hpol N
                 Vfront    3 Vsync   3 Vback    2 Vpol N
    Manufacturer-Specified Display Descriptor (0x0f): 00 0f 00 00 00 00 00 00 00 00 00 00 00 00 00 20 '............... '
    Alphanumeric Data String: 'AUO'
    Alphanumeric Data String: 'B141PW01 V4 '
Checksum: 0x97
