edid-decode (hex):

00 ff ff ff ff ff ff 00 06 af 47 14 00 00 00 00
01 10 01 03 80 1e 13 78 0a 87 f5 94 57 4f 8c 27
27 50 54 00 00 00 01 01 01 01 01 01 01 01 01 01
01 01 01 01 01 01 44 2a a0 14 52 84 0e 30 40 20
33 00 2f bd 10 00 00 19 00 00 00 00 00 00 00 00
00 00 00 00 00 00 00 00 00 00 00 00 00 fe 00 54
4d 32 34 37 00 42 31 34 31 50 57 31 00 00 00 fe
00 29 39 46 4f 6f 8c b3 ff 02 01 0a 20 20 00 b1

00 ff ff ff ff ff ff 00 06 af 47 14 00 00 00 00
01 10 01 03 80 1e 13 78 0a 87 f5 94 57 4f 8c 27
27 50 54 00 00 00 01 01 01 01 01 01 01 01 01 01
01 01 01 01 01 01 44 2a a0 14 52 84 0e 30 40 20
33 00 2f bd 10 00 00 19 00 00 00 00 00 00 00 00
00 00 00 00 00 00 00 00 00 00 00 00 00 fe 00 54
4d 32 34 37 00 42 31 34 31 50 57 31 00 00 00 fe
00 29 39 46 4f 6f 8c b3 ff 02 01 0a 20 20 00 b1

----------------

Block 0, Base EDID:
  EDID Structure Version & Revision: 1.3
  Vendor & Product Identification:
    Manufacturer: AUO
    Model: 5191
    Made in: week 1 of 2006
  Basic Display Parameters & Features:
    Digital display
    Maximum image size: 30 cm x 19 cm
    Gamma: 2.20
    RGB color display
    First detailed timing is the preferred timing
  Color Characteristics:
    Red  : 0.5800, 0.3398
    Green: 0.3095, 0.5498
    Blue : 0.1552, 0.1552
    White: 0.3134, 0.3291
  Established Timings I & II: none
  Standard Timings: none
  Detailed Timing Descriptors:
    DTD 1:  1440x900    60.030803 Hz  16:10    54.868 kHz    108.200000 MHz (303 mm x 189 mm)
                 Hfront   64 Hsync  32 Hback  436 Hpol N
                 Vfront    3 Vsync   3 Vback    8 Vpol N
    Empty Descriptor
    Alphanumeric Data String: 'TM247'
    Alphanumeric Data String: ')9FOo'
Checksum: 0xb1

----------------

Block 1, Unknown EDID Extension Block 0x00:
  00 ff ff ff ff ff ff 00 06 af 47 14 00 00 00 00 '..........G.....'
  01 10 01 03 80 1e 13 78 0a 87 f5 94 57 4f 8c 27 '.......x....WO.''
  27 50 54 00 00 00 01 01 01 01 01 01 01 01 01 01 ''PT.............'
  01 01 01 01 01 01 44 2a a0 14 52 84 0e 30 40 20 '......D*..R..0@ '
  33 00 2f bd 10 00 00 19 00 00 00 00 00 00 00 00 '3./.............'
  00 00 00 00 00 00 00 00 00 00 00 00 00 fe 00 54 '...............T'
  4d 32 34 37 00 42 31 34 31 50 57 31 00 00 00 fe 'M247.B141PW1....'
  00 29 39 46 4f 6f 8c b3 ff 02 01 0a 20 20 00 b1 '.)9FOo......  ..'
Checksum: 0xb1

----------------

Failures:

Block 0, Base EDID:
  Empty Descriptor: Use Dummy Descriptor instead of all zeroes.
  Alphanumeric Data String: Non-printable character.
  Alphanumeric Data String: Non-printable character.
  Missing Display Product Name.
  Missing Display Range Limits Descriptor.
Block 1, Base EDID:
  Unknown Extension Block.
EDID:
  Base EDID: EDID specified 0 extension block(s), but found 1 extension block(s).

EDID conformity: FAIL
