
EDID (hex):
00ffffffffffff005925000000000000
1719010380472878e23d85a6564a9a24
125054afcf00d1c0b3009500818081c0
810001010101565e00a0a0a029503020
3500c58f2100001a000000fc0047656e
6572616c204456490a20000000fd0037
4b0f6319000a202020202020000000ff
005931303135363033303036383700d8

Extracted contents:
header:          00 ff ff ff ff ff ff 00
serial number:   59 25 00 00 00 00 00 00 17 19
version:         01 03
basic params:    80 47 28 78 e2
chroma info:     3d 85 a6 56 4a 9a 24 12 50 54
established:     af cf 00
standard:        d1 c0 b3 00 95 00 81 80 81 c0 81 00 01 01 01 01
descriptor 1:    56 5e 00 a0 a0 a0 29 50 30 20 35 00 c5 8f 21 00 00 1a
descriptor 2:    00 00 00 fc 00 47 65 6e 65 72 61 6c 20 44 56 49 0a 20
descriptor 3:    00 00 00 fd 00 37 4b 0f 63 19 00 0a 20 20 20 20 20 20
descriptor 4:    00 00 00 ff 00 59 31 30 31 35 36 30 33 30 30 36 38 37
extensions:      00
checksum:        d8

EDID version: 1.3
Manufacturer: VIE Model 0 Serial Number --
Made in week 23 of 2015
Digital display
Maximum image size: 71 cm x 40 cm
Gamma: 2.20
DPMS levels: Standby Suspend Off
Monochrome or grayscale display
First detailed timing is preferred timing
Display x,y Chromaticity:
  Red:   0.6484, 0.3388
  Green: 0.2919, 0.6025
  Blue:  0.1425, 0.0703
  White: 0.3134, 0.3291
Established timings supported:
  720x400@70Hz 9:5 HorFreq: 31469 Hz Clock: 28.320 MHz
  640x480@60Hz 4:3 HorFreq: 31469 Hz Clock: 25.175 MHz
  640x480@72Hz 4:3 HorFreq: 37900 Hz Clock: 31.500 MHz
  640x480@75Hz 4:3 HorFreq: 37500 Hz Clock: 31.500 MHz
  800x600@56Hz 4:3 HorFreq: 35200 Hz Clock: 36.000 MHz
  800x600@60Hz 4:3 HorFreq: 37900 Hz Clock: 40.000 MHz
  800x600@72Hz 4:3 HorFreq: 48100 Hz Clock: 50.000 MHz
  800x600@75Hz 4:3 HorFreq: 46900 Hz Clock: 49.500 MHz
  1024x768@60Hz 4:3 HorFreq: 48400 Hz Clock: 65.000 MHz
  1024x768@70Hz 4:3 HorFreq: 56500 Hz Clock: 75.000 MHz
  1024x768@75Hz 4:3 HorFreq: 60000 Hz Clock: 78.750 MHz
  1280x1024@75Hz 5:4 HorFreq: 80000 Hz Clock: 135.000 MHz
Standard timings supported:
  1920x1080@60Hz 16:9
  1680x1050@60Hz 16:10 HorFreq: 64700 Hz Clock: 119.000 MHz
  1440x900@60Hz 16:10 HorFreq: 55500 Hz Clock: 88.750 MHz
  1280x1024@60Hz 5:4 HorFreq: 64000 Hz Clock: 108.000 MHz
  1280x720@60Hz 16:9
  1280x800@60Hz 16:10
Detailed mode: Clock 241.500 MHz, 709 mm x 399 mm
               2560 2608 2640 2720 hborder 0
               1440 1443 1448 1481 vborder 0
               +hsync -vsync 
               VertFreq: 59 Hz, HorFreq: 88786 Hz
Monitor name: General DVI
Monitor ranges (GTF): 55-75Hz V, 15-99kHz H, max dotclock 250MHz
Serial number: --
Checksum: 0xd8 (valid)
