
EDID (hex):
00ffffffffffff000dae918200000000
2c1d0104a51c117802ee95a3544c9926
0f505400000001010101010101010101
0101010101015046702c804611501010
810017ae10000018ec45703c80461150
0810830017ae10000018000000000000
000000000000000000000000000000fc
00503130315a465a2d4248310a0a000f

Extracted contents:
header:          00 ff ff ff ff ff ff 00
serial number:   0d ae 91 82 00 00 00 00 2c 1d
version:         01 04
basic params:    a5 1c 11 78 02
chroma info:     ee 95 a3 54 4c 99 26 0f 50 54
established:     00 00 00
standard:        01 01 01 01 01 01 01 01 01 01 01 01 01 01 01 01
descriptor 1:    50 46 70 2c 80 46 11 50 10 10 81 00 17 ae 10 00 00 18
descriptor 2:    ec 45 70 3c 80 46 11 50 08 10 83 00 17 ae 10 00 00 18
descriptor 3:    00 00 00 00 00 00 00 00 00 00 00 00 00 00 00 00 00 00
descriptor 4:    00 00 00 fc 00 50 31 30 31 5a 46 5a 2d 42 48 31 0a 0a
extensions:      00
checksum:        0f

EDID version: 1.4
Manufacturer: CMN Model 8291 Serial Number --
Made in week 44 of 2019
Digital display
8 bits per primary color channel
DisplayPort interface
Maximum image size: 28 cm x 17 cm
Gamma: 2.20
Supported color formats: RGB 4:4:4
First detailed timing includes the native pixel format and preferred refresh rate
Display x,y Chromaticity:
  Red:   0.6396, 0.3300
  Green: 0.2998, 0.5996
  Blue:  0.1503, 0.0595
  White: 0.3134, 0.3291
Established timings supported:
Standard timings supported:
Detailed mode: Clock 180.000 MHz, 279 mm x 174 mm
               2160 2176 2192 2204 hborder 0
               1350 1358 1359 1367 vborder 0
               -hsync -vsync 
               VertFreq: 59 Hz, HorFreq: 81669 Hz
Detailed mode: Clock 179.000 MHz, 279 mm x 174 mm
               2160 2168 2184 2220 hborder 0
               1350 1358 1361 1367 vborder 0
               -hsync -vsync 
               VertFreq: 58 Hz, HorFreq: 80630 Hz
Manufacturer-specified data, tag 0
Monitor name: P101ZFZ-BH1
Checksum: 0xf (valid)
EDID block does NOT conform to EDID 1.4!
	Missing monitor ranges
	Detailed block string not properly terminated
