
EDID (hex):
00ffffffffffff003103ffff00000000
14200104b53c2278f9c825ae4d44a827
0b5054a54b00d1c08180714fa9c0b300
b33cd1fc950008e80030f2705a80b058
4a00544f2100001a000000fd0c309050
5085010a202020202020000000fc0050
325341325600202020202020000000ff
003030303030303030303030303002ae
020334f123090707830100004b900403
0112131f3f61765fe2007fe305c000e6
060701625f216d1a0000020b30900004
7321732198e200a0a0a0295030203500
584a2100001e386100a0a0a055503020
3400584a2100001a0000000000000000
00000000000000000000000000000000
00000000000000000000000000000065
70127903000301144e060204ff0e3f01
2f801f006f0836000200040000000000
00000000000000000000000000000000
00000000000000000000000000000000
00000000000000000000000000000000
00000000000000000000000000000000
00000000000000000000000000000000
00000000000000000000000000003290

Extracted contents:
header:          00 ff ff ff ff ff ff 00
serial number:   31 03 ff ff 00 00 00 00 14 20
version:         01 04
basic params:    b5 3c 22 78 f9
chroma info:     c8 25 ae 4d 44 a8 27 0b 50 54
established:     a5 4b 00
standard:        d1 c0 81 80 71 4f a9 c0 b3 00 b3 3c d1 fc 95 00
descriptor 1:    08 e8 00 30 f2 70 5a 80 b0 58 4a 00 54 4f 21 00 00 1a
descriptor 2:    00 00 00 fd 0c 30 90 50 50 85 01 0a 20 20 20 20 20 20
descriptor 3:    00 00 00 fc 00 50 32 53 41 32 56 00 20 20 20 20 20 20
descriptor 4:    00 00 00 ff 00 30 30 30 30 30 30 30 30 30 30 30 30 30
extensions:      02
checksum:        ae

EDID version: 1.4
Manufacturer: LHC Model ffff Serial Number --
Made in week 20 of 2022
Digital display
10 bits per primary color channel
DisplayPort interface
Maximum image size: 60 cm x 34 cm
Gamma: 2.20
DPMS levels: Standby Suspend Off
Supported color formats: RGB 4:4:4, YCrCb 4:4:4, YCrCb 4:2:2
Display is continuous frequency
Display x,y Chromaticity:
  Red:   0.6826, 0.3007
  Green: 0.2675, 0.6562
  Blue:  0.1523, 0.0449
  White: 0.3134, 0.3291
Established timings supported:
  720x400@70Hz 9:5 HorFreq: 31469 Hz Clock: 28.320 MHz
  640x480@60Hz 4:3 HorFreq: 31469 Hz Clock: 25.175 MHz
  640x480@75Hz 4:3 HorFreq: 37500 Hz Clock: 31.500 MHz
  800x600@60Hz 4:3 HorFreq: 37900 Hz Clock: 40.000 MHz
  800x600@75Hz 4:3 HorFreq: 46900 Hz Clock: 49.500 MHz
  1024x768@60Hz 4:3 HorFreq: 48400 Hz Clock: 65.000 MHz
  1024x768@75Hz 4:3 HorFreq: 60000 Hz Clock: 78.750 MHz
  1280x1024@75Hz 5:4 HorFreq: 80000 Hz Clock: 135.000 MHz
Standard timings supported:
  1920x1080@60Hz 16:9
  1280x1024@60Hz 5:4 HorFreq: 64000 Hz Clock: 108.000 MHz
  1152x864@75Hz 4:3 HorFreq: 67500 Hz Clock: 108.000 MHz
  1600x900@60Hz 16:9
  1680x1050@60Hz 16:10 HorFreq: 64700 Hz Clock: 119.000 MHz
  1680x1050@120Hz 16:10
  1920x1080@120Hz 16:9
  1440x900@60Hz 16:10 HorFreq: 55500 Hz Clock: 88.750 MHz
Detailed mode: Clock 594.000 MHz, 596 mm x 335 mm
               3840 4016 4104 4400 hborder 0
               2160 2164 2174 2250 vborder 0
               +hsync -vsync 
               VertFreq: 60 Hz, HorFreq: 135000 Hz
Monitor ranges (bare limits): 48-144Hz V, 80-335kHz H, max dotclock 1330MHz
Serial number: --
Has 2 extension blocks
Checksum: 0xae (valid)

CTA extension block
Extension version: 3
48 bytes of CTA data
  Audio data block
    Linear PCM, max channels 2
      Supported sample rates (kHz): 48 44.1 32
      Supported sample sizes (bits): 24 20 16
  Speaker allocation data block
    Speaker map:
      FL/FR - Front Left/Right
  Video data block
    VIC  16 1920x1080@60Hz 16:9 (native) HorFreq: 67500 Hz Clock: 148.500 MHz
    VIC   4 1280x720@60Hz 16:9  HorFreq: 45000 Hz Clock: 74.250 MHz
    VIC   3 720x480@60Hz 16:9  HorFreq: 31469 Hz Clock: 27.000 MHz
    VIC   1 640x480@60Hz 4:3  HorFreq: 31469 Hz Clock: 25.175 MHz
    VIC  18 720x576@50Hz 16:9  HorFreq: 31250 Hz Clock: 27.000 MHz
    VIC  19 1280x720@50Hz 16:9  HorFreq: 37500 Hz Clock: 74.250 MHz
    VIC  31 1920x1080@50Hz 16:9  HorFreq: 56250 Hz Clock: 148.500 MHz
    VIC  63 1920x1080@120Hz 16:9  HorFreq: 135000 Hz Clock: 297.000 MHz
    VIC  97 3840x2160@60Hz 16:9  HorFreq: 135000 Hz Clock: 594.000 MHz
    VIC 118 3840x2160@120Hz 16:9  HorFreq: 270000 Hz Clock: 1188.000 MHz
    VIC  95 3840x2160@30Hz 16:9  HorFreq: 67500 Hz Clock: 297.000 MHz
  Extended tag: Video capability data block
    YCbCr quantization: No Data (0)
    RGB quantization: Selectable (via AVI Q) (1)
    PT scan behaviour: Support both over- and underscan (3)
    IT scan behaviour: Support both over- and underscan (3)
    CE scan behaviour: Support both over- and underscan (3)
  Extended tag: Colorimetry data block
    BT2020YCC
    BT2020RGB
  Extended tag: HDR static metadata data block
    Electro optical transfer functions:
      Traditional gamma - SDR luminance range
      Traditional gamma - HDR luminance range
      SMPTE ST2084
    Supported static metadata descriptors:
      Static metadata type 1
    Desired content max luminance: 98 (417.710 cd/m^2)
    Desired content max frame-average luminance: 95 (391.429 cd/m^2)
    Desired content min luminance: 33 (0.070 cd/m^2)
  Vendor-specific data block, OUI 00001a
Underscans PC formats by default
Basic audio support
Supports YCbCr 4:4:4
Supports YCbCr 4:2:2
1 native detailed modes
Detailed mode: Clock 580.080 MHz, 600 mm x 330 mm
               2560 2608 2640 2720 hborder 0
               1440 1443 1448 1481 vborder 0
               +hsync +vsync 
               VertFreq: 144 Hz, HorFreq: 213264 Hz
Detailed mode: Clock 248.880 MHz, 600 mm x 330 mm
               2560 2608 2640 2720 hborder 0
               1440 1443 1447 1525 vborder 0
               +hsync -vsync 
               VertFreq: 60 Hz, HorFreq: 91500 Hz
Checksum: 0x65 (valid)


DisplayID extension block
Extension version: 18
Length 121, version 18, extension count 0
Checksum: 0x32 (valid)
Type 1 detailed timing: aspect: 16:9,  
Detailed mode: Clock 1326.860 MHz, 0 mm x 0 mm
               3839 3886 3917 4158
               2159 2161 2165 2213
               +hsync -vsync

EDID block does NOT conform to EDID 1.4!
	Name descriptor not terminated with a newline
Warning: One or more of the timings is out of range of the Monitor Ranges:
  Vertical Freq: 30 - 144 Hz
  Horizontal Freq: 31250 - 270000 Hz
  Maximum Clock: 1188.000 MHz
