
EDID (hex):
00ffffffffffff000dae441300000000
06160104901d10780253d59858529027
21505400000001010101010101010101
010101010101fc1a566e50000c302116
220025a41000001add1256a050001730
3020350025a41000001a000000fe0031
56444335803133334247450a00000000
00004131960010000001010a2020006c

Extracted contents:
header:          00 ff ff ff ff ff ff 00
serial number:   0d ae 44 13 00 00 00 00 06 16
version:         01 04
basic params:    90 1d 10 78 02
chroma info:     53 d5 98 58 52 90 27 21 50 54
established:     00 00 00
standard:        01 01 01 01 01 01 01 01 01 01 01 01 01 01 01 01
descriptor 1:    fc 1a 56 6e 50 00 0c 30 21 16 22 00 25 a4 10 00 00 1a
descriptor 2:    dd 12 56 a0 50 00 17 30 30 20 35 00 25 a4 10 00 00 1a
descriptor 3:    00 00 00 fe 00 31 56 44 43 35 80 31 33 33 42 47 45 0a
descriptor 4:    00 00 00 00 00 00 41 31 96 00 10 00 00 01 01 0a 20 20
extensions:      00
checksum:        6c

EDID version: 1.4
Manufacturer: CMN Model 1344 Serial Number --
Made in week 6 of 2012
Digital display
6 bits per primary color channel
Digital interface is not defined
Maximum image size: 29 cm x 16 cm
Gamma: 2.20
Supported color formats: RGB 4:4:4
First detailed timing includes the native pixel format and preferred refresh rate
Display x,y Chromaticity:
  Red:   0.5947, 0.3447
  Green: 0.3203, 0.5654
  Blue:  0.1552, 0.1298
  White: 0.3134, 0.3291
Established timings supported:
Standard timings supported:
Detailed mode: Clock 69.080 MHz, 293 mm x 164 mm
               1366 1399 1421 1476 hborder 0
                768  770  772  780 vborder 0
               +hsync -vsync 
               VertFreq: 60 Hz, HorFreq: 46802 Hz
Detailed mode: Clock 48.290 MHz, 293 mm x 164 mm
               1366 1414 1446 1526 hborder 0
                768  771  776  791 vborder 0
               +hsync -vsync 
               VertFreq: 40 Hz, HorFreq: 31644 Hz
ASCII string: 1VDC5
Manufacturer-specified data, tag 0
Checksum: 0x6c (valid)
EDID block does NOT conform to EDID 1.4!
	Missing name descriptor
	Missing monitor ranges
	Detailed block string not properly terminated
