
EDID (hex):
00ffffffffffff004dd9910084d46a00
080901020e251b96e90ec9a057479927
12484cffff80315945596159714f7159
8199a940a94fd60980a020e02d101060
a200600111000018000000ff00373030
313232300a2020202020000000fc0043
50442d34323047530a202020000000fd
0030781e60ff000a20202020202000e9

Extracted contents:
header:          00 ff ff ff ff ff ff 00
serial number:   4d d9 91 00 84 d4 6a 00 08 09
version:         01 02
basic params:    0e 25 1b 96 e9
chroma info:     0e c9 a0 57 47 99 27 12 48 4c
established:     ff ff 80
standard:        31 59 45 59 61 59 71 4f 71 59 81 99 a9 40 a9 4f
descriptor 1:    d6 09 80 a0 20 e0 2d 10 10 60 a2 00 60 01 11 00 00 18
descriptor 2:    00 00 00 ff 00 37 30 30 31 32 32 30 0a 20 20 20 20 20
descriptor 3:    00 00 00 fc 00 43 50 44 2d 34 32 30 47 53 0a 20 20 20
descriptor 4:    00 00 00 fd 00 30 78 1e 60 ff 00 0a 20 20 20 20 20 20
extensions:      00
checksum:        e9

EDID version: 1.2
Manufacturer: SNY Model 91 Serial Number --
Analog display, Input voltage level: 0.7/0.3 V
Sync: Separate Composite SyncOnGreen 
Maximum image size: 37 cm x 27 cm
Gamma: 2.50
DPMS levels: Standby Suspend Off
RGB color display
Supports GTF timings within operating range
Display x,y Chromaticity:
  Red:   0.6250, 0.3398
  Green: 0.2802, 0.5996
  Blue:  0.1552, 0.0703
  White: 0.2832, 0.2978
Established timings supported:
  720x400@70Hz 9:5 HorFreq: 31469 Hz Clock: 28.320 MHz
  720x400@88Hz 9:5 HorFreq: 39500 Hz Clock: 35.500 MHz
  640x480@60Hz 4:3 HorFreq: 31469 Hz Clock: 25.175 MHz
  640x480@67Hz 4:3 HorFreq: 35000 Hz Clock: 30.240 MHz
  640x480@72Hz 4:3 HorFreq: 37900 Hz Clock: 31.500 MHz
  640x480@75Hz 4:3 HorFreq: 37500 Hz Clock: 31.500 MHz
  800x600@56Hz 4:3 HorFreq: 35200 Hz Clock: 36.000 MHz
  800x600@60Hz 4:3 HorFreq: 37900 Hz Clock: 40.000 MHz
  800x600@72Hz 4:3 HorFreq: 48100 Hz Clock: 50.000 MHz
  800x600@75Hz 4:3 HorFreq: 46900 Hz Clock: 49.500 MHz
  832x624@75Hz 4:3 HorFreq: 49726 Hz Clock: 57.284 MHz
  1280x768i@87Hz 5:3 HorFreq: 35522 Hz Clock: 44.900 MHz
  1024x768@60Hz 4:3 HorFreq: 48400 Hz Clock: 65.000 MHz
  1024x768@70Hz 4:3 HorFreq: 56500 Hz Clock: 75.000 MHz
  1024x768@75Hz 4:3 HorFreq: 60000 Hz Clock: 78.750 MHz
  1280x1024@75Hz 5:4 HorFreq: 80000 Hz Clock: 135.000 MHz
  1152x870@75Hz 192:145 HorFreq: 67500 Hz Clock: 108.000 MHz
Standard timings supported:
  640x480@85Hz 4:3 HorFreq: 43300 Hz Clock: 36.000 MHz
  800x600@85Hz 4:3 HorFreq: 53700 Hz Clock: 56.250 MHz
  1024x768@85Hz 4:3 HorFreq: 68700 Hz Clock: 94.500 MHz
  1152x864@75Hz 4:3 HorFreq: 67500 Hz Clock: 108.000 MHz
  1152x864@85Hz 4:3
  1280x1024@85Hz 5:4 HorFreq: 91100 Hz Clock: 157.500 MHz
  1600x1200@60Hz 4:3 HorFreq: 75000 Hz Clock: 162.000 MHz
  1600x1200@75Hz 4:3 HorFreq: 93800 Hz Clock: 202.500 MHz
Detailed mode: Clock 25.180 MHz, 352 mm x 257 mm
                640  656  752  800 hborder 0
                480  490  492  525 vborder 0
               -hsync -vsync 
               VertFreq: 59 Hz, HorFreq: 31475 Hz
Serial number: --
Monitor name: CPD-420GS
Monitor ranges (GTF): 48-120Hz V, 30-96kHz H, max dotclock 2550MHz
Checksum: 0xe9 (valid)
EDID block does not conform at all!
	Bad year of manufacture
