
EDID (hex):
00ffffffffffff0030f0570600000000
00000103801e16780a72b09657528728
23505400000001010101010101010101
01010101010164190040410026301888
360030e4100000180000000000000000
0000000000000000000000000000004c
475068696c6970734c43440a00000000
004c503135305830382d41330a0a0012

Extracted contents:
header:          00 ff ff ff ff ff ff 00
serial number:   30 f0 57 06 00 00 00 00 00 00
version:         01 03
basic params:    80 1e 16 78 0a
chroma info:     72 b0 96 57 52 87 28 23 50 54
established:     00 00 00
standard:        01 01 01 01 01 01 01 01 01 01 01 01 01 01 01 01
descriptor 1:    64 19 00 40 41 00 26 30 18 88 36 00 30 e4 10 00 00 18
descriptor 2:    00 00 00 00 00 00 00 00 00 00 00 00 00 00 00 00 00 00
descriptor 3:    00 00 00 00 00 4c 47 50 68 69 6c 69 70 73 4c 43 44 0a
descriptor 4:    00 00 00 00 00 4c 50 31 35 30 58 30 38 2d 41 33 0a 0a
extensions:      00
checksum:        12

EDID version: 1.3
Manufacturer: LGP Model 657 Serial Number --
Digital display
Maximum image size: 30 cm x 22 cm
Gamma: 2.20
RGB color display
First detailed timing is preferred timing
Display x,y Chromaticity:
  Red:   0.5869, 0.3427
  Green: 0.3203, 0.5292
  Blue:  0.1582, 0.1396
  White: 0.3125, 0.3281
Established timings supported:
Standard timings supported:
Detailed mode: Clock 65.000 MHz, 304 mm x 228 mm
               1024 1048 1184 1344 hborder 0
                768  771  777  806 vborder 0
               -hsync -vsync 
               VertFreq: 60 Hz, HorFreq: 48363 Hz
Manufacturer-specified data, tag 0
Manufacturer-specified data, tag 0
Manufacturer-specified data, tag 0
Checksum: 0x12 (valid)
EDID block does NOT conform to EDID 1.3!
	Missing name descriptor
	Missing monitor ranges
EDID block does not conform at all!
	Bad year of manufacture
