edid-decode (hex):

00 ff ff ff ff ff ff 00 10 ac b0 32 34 30 42 42
23 0a 01 04 a5 20 18 7f e2 12 69 a5 52 49 99 24
0e 48 4c a4 43 00 61 59 45 59 31 59 a9 40 01 01
01 01 01 01 01 01 ea 24 00 60 41 00 28 30 30 60
13 00 32 e6 10 00 00 1e 00 00 00 ff 00 36 38 38
45 4e 30 38 54 42 42 30 34 0a 00 00 00 fc 00 44
45 4c 4c 20 4d 37 38 31 73 0a 20 20 00 00 00 fd
00 32 a0 1e 55 11 00 0a 20 20 20 20 20 20 00 62

00 ff ff ff ff ff ff 00 10 ac b0 32 34 30 42 42
23 0a 01 04 a5 20 18 7f e2 12 69 a5 52 49 99 24
0e 48 4c a4 43 00 61 59 45 59 31 59 a9 40 01 01
01 01 01 01 01 01 ea 24 00 60 41 00 28 30 30 60
13 00 32 e6 10 00 00 1e 00 00 00 ff 00 36 38 38
45 4e 30 38 54 42 42 30 34 0a 00 00 00 fc 00 44
45 4c 4c 20 4d 37 38 31 73 0a 20 20 00 00 00 fd
00 32 a0 1e 55 11 00 0a 20 20 20 20 20 20 00 62

----------------

Block 0, Base EDID:
  EDID Structure Version & Revision: 1.4
  Vendor & Product Identification:
    Manufacturer: DEL
    Model: 12976
    Serial Number: ...
    Made in: week 35 of 2000
  Basic Display Parameters & Features:
    Digital display
    Bits per primary color channel: 8
    DisplayPort interface
    Maximum image size: 32 cm x 24 cm
    Gamma: 2.27
    DPMS levels: Standby Suspend Off
    Supported color formats: RGB 4:4:4
    First detailed timing includes the native pixel format and preferred refresh rate
  Color Characteristics:
    Red  : 0.6445, 0.3212
    Green: 0.2851, 0.5996
    Blue : 0.1416, 0.0566
    White: 0.2832, 0.2978
  Established Timings I & II:
    IBM     :   720x400    70.081663 Hz   9:5     31.467 kHz     28.320000 MHz
    DMT 0x04:   640x480    59.940476 Hz   4:3     31.469 kHz     25.175000 MHz
    DMT 0x06:   640x480    75.000000 Hz   4:3     37.500 kHz     31.500000 MHz
    DMT 0x0b:   800x600    75.000000 Hz   4:3     46.875 kHz     49.500000 MHz
    DMT 0x12:  1024x768    75.028582 Hz   4:3     60.023 kHz     78.750000 MHz
    DMT 0x24:  1280x1024   75.024675 Hz   5:4     79.976 kHz    135.000000 MHz
  Standard Timings:
    DMT 0x13:  1024x768    84.996690 Hz   4:3     68.677 kHz     94.500000 MHz
    DMT 0x0c:   800x600    85.061274 Hz   4:3     53.674 kHz     56.250000 MHz
    DMT 0x07:   640x480    85.008312 Hz   4:3     43.269 kHz     36.000000 MHz
    DMT 0x33:  1600x1200   60.000000 Hz   4:3     75.000 kHz    162.000000 MHz
  Detailed Timing Descriptors:
    DTD 1:  1024x768    84.996690 Hz   4:3     68.677 kHz     94.500000 MHz (306 mm x 230 mm)
                 Hfront   48 Hsync  96 Hback  208 Hpol P
                 Vfront    1 Vsync   3 Vback   36 Vpol P
    Display Product Serial Number: ...
    Display Product Name: 'DELL M781s'
    Display Range Limits:
      Monitor ranges (GTF): 50-160 Hz V, 30-85 kHz H, max dotclock 170 MHz
Checksum: 0x62

----------------

Block 1, Unknown EDID Extension Block 0x00:
  00 ff ff ff ff ff ff 00 10 ac b0 32 34 30 42 42 '...........240BB'
  23 0a 01 04 a5 20 18 7f e2 12 69 a5 52 49 99 24 '#.... ....i.RI.$'
  0e 48 4c a4 43 00 61 59 45 59 31 59 a9 40 01 01 '.HL.C.aYEY1Y.@..'
  01 01 01 01 01 01 ea 24 00 60 41 00 28 30 30 60 '.......$.`A.(00`'
  13 00 32 e6 10 00 00 1e 00 00 00 ff 00 36 38 38 '..2..........688'
  45 4e 30 38 54 42 42 30 34 0a 00 00 00 fc 00 44 'EN08TBB04......D'
  45 4c 4c 20 4d 37 38 31 73 0a 20 20 00 00 00 fd 'ELL M781s.  ....'
  00 32 a0 1e 55 11 00 0a 20 20 20 20 20 20 00 62 '.2..U...      .b'
Checksum: 0x62

----------------

Warnings:

Block 0, Base EDID:
  Display Range Limits: GTF support is deprecated in EDID 1.4.

Failures:

Block 0, Base EDID:
  Detailed Timing Descriptor #1: Mismatch of image size 306x230 mm vs display size 320x240 mm.
  Display Range Limits: GTF can't be combined with non-continuous frequencies.
Block 1, Base EDID:
  Unknown Extension Block.
EDID:
  Base EDID: EDID specified 0 extension block(s), but found 1 extension block(s).

EDID conformity: FAIL
