
EDID (hex):
00ffffffffffff004c2d30e301010101
0419010080321c78eefff5a556499d24
165054a1080081c08180d1c001010101
0101010101019434801871382d40582c
4500fd1e1100001e000000fc00563233
3049430a202020202020000000fc000a
202020202020202020202020000000ff
000a2020202020202020202020200016

Extracted contents:
header:          00 ff ff ff ff ff ff 00
serial number:   4c 2d 30 e3 01 01 01 01 04 19
version:         01 00
basic params:    80 32 1c 78 ee
chroma info:     ff f5 a5 56 49 9d 24 16 50 54
established:     a1 08 00
standard:        81 c0 81 80 d1 c0 01 01 01 01 01 01 01 01 01 01
descriptor 1:    94 34 80 18 71 38 2d 40 58 2c 45 00 fd 1e 11 00 00 1e
descriptor 2:    00 00 00 fc 00 56 32 33 30 49 43 0a 20 20 20 20 20 20
descriptor 3:    00 00 00 fc 00 0a 20 20 20 20 20 20 20 20 20 20 20 20
descriptor 4:    00 00 00 ff 00 0a 20 20 20 20 20 20 20 20 20 20 20 20
extensions:      00
checksum:        16

EDID version: 1.0
Manufacturer: SAM Model e330 Serial Number --
Made in week 4 of 2015
Digital display
Maximum image size: 50 cm x 28 cm
Gamma: 2.20
DPMS levels: Standby Suspend Off
RGB color display
Default (sRGB) color space is primary color space
First detailed timing is preferred timing
Display x,y Chromaticity:
  Red:   0.6474, 0.3388
  Green: 0.2880, 0.6162
  Blue:  0.1435, 0.0888
  White: 0.3134, 0.3291
Established timings supported:
  720x400@70Hz 9:5 HorFreq: 31469 Hz Clock: 28.320 MHz
  640x480@60Hz 4:3 HorFreq: 31469 Hz Clock: 25.175 MHz
  800x600@60Hz 4:3 HorFreq: 37900 Hz Clock: 40.000 MHz
  1024x768@60Hz 4:3 HorFreq: 48400 Hz Clock: 65.000 MHz
Standard timings supported:
  1280x720@60Hz 16:9
  1280x1024@60Hz 5:4 HorFreq: 64000 Hz Clock: 108.000 MHz
  1920x1080@60Hz 16:9
Detailed mode: Clock 134.600 MHz, 509 mm x 286 mm
               1920 2008 2052 2200 hborder 0
               1080 1084 1089 1125 vborder 0
               +hsync +vsync 
               VertFreq: 54 Hz, HorFreq: 61181 Hz
Monitor name: V230IC
Serial number: 
-- 0x16 (valid)
EDID block does NOT conform to EDID 1.0!
	Has descriptor blocks other than detailed timings
