
EDID (hex):
00ffffffffffff00593a350001010101
16120103683a20782a088ca355449726
0f4749a74a0001010101010101010101
010101010101662150b051001b304070
360040442100001e000000ff000a2020
20202020202020202020000000fc0056
4132364c484454563130540a000000fd
00384b1e410c000a2020202020200037

Extracted contents:
header:          00 ff ff ff ff ff ff 00
serial number:   59 3a 35 00 01 01 01 01 16 12
version:         01 03
basic params:    68 3a 20 78 2a
chroma info:     08 8c a3 55 44 97 26 0f 47 49
established:     a7 4a 00
standard:        01 01 01 01 01 01 01 01 01 01 01 01 01 01 01 01
descriptor 1:    66 21 50 b0 51 00 1b 30 40 70 36 00 40 44 21 00 00 1e
descriptor 2:    00 00 00 ff 00 0a 20 20 20 20 20 20 20 20 20 20 20 20
descriptor 3:    00 00 00 fc 00 56 41 32 36 4c 48 44 54 56 31 30 54 0a
descriptor 4:    00 00 00 fd 00 38 4b 1e 41 0c 00 0a 20 20 20 20 20 20
extensions:      00
checksum:        37

EDID version: 1.3
Manufacturer: VIZ Model 35 Serial Number --
Made in week 22 of 2008
Analog display, Input voltage level: 0.7/0.7 V
Sync: Separate 
Maximum image size: 58 cm x 32 cm
Gamma: 2.20
DPMS levels: Off
RGB color display
First detailed timing is preferred timing
Display x,y Chromaticity:
  Red:   0.6367, 0.3320
  Green: 0.2675, 0.5898
  Blue:  0.1503, 0.0585
  White: 0.2802, 0.2851
Established timings supported:
  720x400@70Hz 9:5 HorFreq: 31469 Hz Clock: 28.320 MHz
  640x480@60Hz 4:3 HorFreq: 31469 Hz Clock: 25.175 MHz
  640x480@75Hz 4:3 HorFreq: 37500 Hz Clock: 31.500 MHz
  800x600@56Hz 4:3 HorFreq: 35200 Hz Clock: 36.000 MHz
  800x600@60Hz 4:3 HorFreq: 37900 Hz Clock: 40.000 MHz
  800x600@75Hz 4:3 HorFreq: 46900 Hz Clock: 49.500 MHz
  1024x768@60Hz 4:3 HorFreq: 48400 Hz Clock: 65.000 MHz
  1024x768@75Hz 4:3 HorFreq: 60000 Hz Clock: 78.750 MHz
Standard timings supported:
Detailed mode: Clock 85.500 MHz, 576 mm x 324 mm
               1360 1424 1536 1792 hborder 0
                768  771  777  795 vborder 0
               +hsync +vsync 
               VertFreq: 60 Hz, HorFreq: 47712 Hz
Serial number: 
-- name: VA26LHDTV10T
Monitor ranges (GTF): 56-75Hz V, 30-65kHz H, max dotclock 120MHz
Checksum: 0x37 (valid)


