
EDID (hex):
00ffffffffffff0030a4682901000000
0a1d0103084728782b0e91a3546c9926
2f505421080081c00101010101010101
0101010101017f2156aa51001e30468f
3300c48e2100001ea91a00a050001630
302037003f432100001a000000fc004c
45442054560a202020202020000000f9
000000000000000000000000000000dc

Extracted contents:
header:          00 ff ff ff ff ff ff 00
serial number:   30 a4 68 29 01 00 00 00 0a 1d
version:         01 03
basic params:    08 47 28 78 2b
chroma info:     0e 91 a3 54 6c 99 26 2f 50 54
established:     21 08 00
standard:        81 c0 01 01 01 01 01 01 01 01 01 01 01 01 01 01
descriptor 1:    7f 21 56 aa 51 00 1e 30 46 8f 33 00 c4 8e 21 00 00 1e
descriptor 2:    a9 1a 00 a0 50 00 16 30 30 20 37 00 3f 43 21 00 00 1a
descriptor 3:    00 00 00 fc 00 4c 45 44 20 54 56 0a 20 20 20 20 20 20
descriptor 4:    00 00 00 f9 00 00 00 00 00 00 00 00 00 00 00 00 00 00
extensions:      00
checksum:        dc

EDID version: 1.3
Manufacturer: LED Model 2968 Serial Number --
Made in week 10 of 2019
Analog display, Input voltage level: 0.7/0.3 V
Sync: Separate 
Maximum image size: 71 cm x 40 cm
Gamma: 2.20
DPMS levels: Off
RGB color display
First detailed timing is preferred timing
Supports GTF timings within operating range
Display x,y Chromaticity:
  Red:   0.6367, 0.3281
  Green: 0.4248, 0.5996
  Blue:  0.1503, 0.1845
  White: 0.3125, 0.3291
Established timings supported:
  640x480@60Hz 4:3 HorFreq: 31469 Hz Clock: 25.175 MHz
  800x600@60Hz 4:3 HorFreq: 37900 Hz Clock: 40.000 MHz
  1024x768@60Hz 4:3 HorFreq: 48400 Hz Clock: 65.000 MHz
Standard timings supported:
  1280x720@60Hz 16:9
Detailed mode: Clock 85.750 MHz, 708 mm x 398 mm
               1366 1436 1579 1792 hborder 0
                768  771  774  798 vborder 0
               +hsync +vsync 
               VertFreq: 59 Hz, HorFreq: 47851 Hz
Detailed mode: Clock 68.250 MHz, 575 mm x 323 mm
               1280 1328 1360 1440 hborder 0
                768  771  778  790 vborder 0
               +hsync -vsync 
               VertFreq: 59 Hz, HorFreq: 47395 Hz
Monitor name: LED TV
Color management data:
  Version:  0
  Red a3:   0.00
  Red a2:   0.00
  Green a3: 0.00
  Green a2: 0.00
  Blue a3:  0.00
  Blue a2:  0.00
Checksum: 0xdc (valid)
EDID block does NOT conform to EDID 1.3!
	Missing monitor ranges
