edid-decode (hex):

00 ff ff ff ff ff ff 00 10 ac ab 50 47 33 30 30
1a 0b 01 02 0e 28 1e 96 2b 0c c9 a0 57 47 9b 27
12 48 4c a5 4b 80 61 59 45 59 31 59 71 59 a9 59
a9 4f c2 8f 01 01 86 3d 00 c0 51 00 30 40 40 a0
13 00 84 23 11 00 00 1e 00 00 00 ff 00 30 32 37
31 52 31 36 50 30 30 33 47 0a 00 00 00 fc 00 44
45 4c 4c 20 50 31 31 31 30 0a 20 20 00 00 00 fd
00 30 a0 1e 79 1c 00 0a 20 20 20 20 20 20 00 ad

00 ff ff ff ff ff ff 00 10 ac ab 50 47 33 30 30
1a 0b 01 02 0e 28 1e 96 2b 0c c9 a0 57 47 9b 27
12 48 4c a5 4b 80 61 59 45 59 31 59 71 59 a9 59
a9 4f c2 8f 01 01 86 3d 00 c0 51 00 30 40 40 a0
13 00 84 23 11 00 00 1e 00 00 00 ff 00 30 32 37
31 52 31 36 50 30 30 33 47 0a 00 00 00 fc 00 44
45 4c 4c 20 50 31 31 31 30 0a 20 20 00 00 00 fd
00 30 a0 1e 79 1c 00 0a 20 20 20 20 20 20 00 ad

----------------

Block 0, Base EDID:
  EDID Structure Version & Revision: 1.2
  Vendor & Product Identification:
    Manufacturer: DEL
    Model: 20651
    Serial Number: ...
    Made in: week 26 of 2001
  Basic Display Parameters & Features:
    Analog display
    Signal Level Standard: 0.700 : 0.300 : 1.000 V p-p
    Blank level equals black level
    Sync: Separate Composite SyncOnGreen
    Maximum image size: 40 cm x 30 cm
    Gamma: 2.50
    DPMS levels: Off
    RGB color display
    First detailed timing is the preferred timing
    Supports GTF timings within operating range
  Color Characteristics:
    Red  : 0.6250, 0.3398
    Green: 0.2802, 0.6054
    Blue : 0.1552, 0.0703
    White: 0.2832, 0.2978
  Established Timings I & II:
    IBM     :   720x400    70.081663 Hz   9:5     31.467 kHz     28.320000 MHz
    DMT 0x04:   640x480    59.940476 Hz   4:3     31.469 kHz     25.175000 MHz
    DMT 0x06:   640x480    75.000000 Hz   4:3     37.500 kHz     31.500000 MHz
    DMT 0x09:   800x600    60.316541 Hz   4:3     37.879 kHz     40.000000 MHz
    DMT 0x0b:   800x600    75.000000 Hz   4:3     46.875 kHz     49.500000 MHz
    DMT 0x10:  1024x768    60.003840 Hz   4:3     48.363 kHz     65.000000 MHz
    DMT 0x12:  1024x768    75.028582 Hz   4:3     60.023 kHz     78.750000 MHz
    DMT 0x24:  1280x1024   75.024675 Hz   5:4     79.976 kHz    135.000000 MHz
    Apple   :  1152x870    75.061550 Hz 192:145   68.681 kHz    100.000000 MHz
  Standard Timings:
    DMT 0x13:  1024x768    84.996690 Hz   4:3     68.677 kHz     94.500000 MHz
    DMT 0x0c:   800x600    85.061274 Hz   4:3     53.674 kHz     56.250000 MHz
    DMT 0x07:   640x480    85.008312 Hz   4:3     43.269 kHz     36.000000 MHz
    GTF     :  1152x864    84.999687 Hz   4:3     77.095 kHz    119.651000 MHz
    DMT 0x37:  1600x1200   85.000000 Hz   4:3    106.250 kHz    229.500000 MHz
    DMT 0x36:  1600x1200   75.000000 Hz   4:3     93.750 kHz    202.500000 MHz
    GTF     :  1800x1440   74.999946 Hz   5:4    112.725 kHz    278.656000 MHz
  Detailed Timing Descriptors:
    DTD 1:  1280x1024   85.024098 Hz   5:4     91.146 kHz    157.500000 MHz (388 mm x 291 mm)
                 Hfront   64 Hsync 160 Hback  224 Hpol P
                 Vfront    1 Vsync   3 Vback   44 Vpol P
    Display Product Serial Number: ...
    Display Product Name: 'DELL P1110'
    Display Range Limits:
      Monitor ranges (GTF): 48-160 Hz V, 30-121 kHz H, max dotclock 280 MHz
Checksum: 0xad

----------------

Block 1, Unknown EDID Extension Block 0x00:
  00 ff ff ff ff ff ff 00 10 ac ab 50 47 33 30 30 '...........PG300'
  1a 0b 01 02 0e 28 1e 96 2b 0c c9 a0 57 47 9b 27 '.....(..+...WG.''
  12 48 4c a5 4b 80 61 59 45 59 31 59 71 59 a9 59 '.HL.K.aYEY1YqY.Y'
  a9 4f c2 8f 01 01 86 3d 00 c0 51 00 30 40 40 a0 '.O.....=..Q.0@@.'
  13 00 84 23 11 00 00 1e 00 00 00 ff 00 30 32 37 '...#.........027'
  31 52 31 36 50 30 30 33 47 0a 00 00 00 fc 00 44 '1R16P003G......D'
  45 4c 4c 20 50 31 31 31 30 0a 20 20 00 00 00 fd 'ELL P1110.  ....'
  00 30 a0 1e 79 1c 00 0a 20 20 20 20 20 20 00 ad '.0..y...      ..'
Checksum: 0xad

----------------

Warnings:

Block 0, Base EDID:
  EDID Structure Version & Revision: EDID 1.2 is deprecated, do not use.

Failures:

Block 1, Base EDID:
  Unknown Extension Block.
EDID:
  Base EDID: EDID specified 0 extension block(s), but found 1 extension block(s).

EDID conformity: FAIL
