edid-decode (hex):

00 ff ff ff ff ff ff 00 32 8d 5e 04 aa c8 33 01
24 1b 01 03 95 20 20 78 ea eb f5 95 59 54 90 27
1e 50 54 00 00 00 01 01 01 01 01 01 01 01 01 01
01 01 01 01 01 01 70 17 90 58 11 00 2a 50 a0 18
42 04 90 00 15 00 00 1e 00 00 00 00 00 00 00 00
00 00 00 00 00 00 00 00 00 00 00 00 00 fd 00 32
46 0f 1e 03 00 0a 20 20 20 20 20 20 00 00 00 fe
00 4a 59 5f 33 32 30 58 33 32 30 0a 20 20 00 24

----------------

Block 0, Base EDID:
  EDID Structure Version & Revision: 1.3
  Vendor & Product Identification:
    Manufacturer: LTM
    Model: 1118
    Serial Number: ...
    Made in: week 36 of 2017
  Basic Display Parameters & Features:
    Digital display
    DFP 1.x compatible TMDS
    Maximum image size: 32 cm x 32 cm
    Gamma: 2.20
    DPMS levels: Standby Suspend Off
    RGB color display
    First detailed timing is the preferred timing
  Color Characteristics:
    Red  : 0.5849, 0.3496
    Green: 0.3300, 0.5654
    Blue : 0.1552, 0.1201
    White: 0.3134, 0.3291
  Established Timings I & II: none
  Standard Timings: none
  Detailed Timing Descriptors:
    DTD 1:   400x1280   61.002391 Hz   5:16    80.645 kHz     60.000000 MHz (400 mm x 1280 mm)
                 Hfront  160 Hsync  24 Hback  160 Hpol P
                 Vfront   20 Vsync   2 Vback   20 Vpol P
    Empty Descriptor
    Display Range Limits:
      Monitor ranges (GTF): 50-70 Hz V, 15-30 kHz H, max dotclock 30 MHz
    Alphanumeric Data String: 'JY_320X320'
Checksum: 0x24

----------------

Failures:

Block 0, Base EDID:
  Basic Display Parameters & Features: Digital Video Interface Standard set to reserved value 0x14.
  Detailed Timing Descriptor #1: Mismatch of image size 400x1280 mm vs display size 320x320 mm.
  Empty Descriptor: Use Dummy Descriptor instead of all zeroes.
  Missing Display Product Name.
EDID:
  Base EDID: Some timings are out of range of the Monitor Ranges:
    Horizontal Freq: 80.645 - 80.645 kHz (Monitor: 15.000 - 30.000 kHz)
    Maximum Clock: 60.000 MHz (Monitor: 30.000 MHz)
  Base EDID: The DTD max image size is 400x1280mm, which is larger than the display size 320.0x320.0mm.

EDID conformity: FAIL
