
EDID (hex):
00ffffffffffff0022f0114201000000
0d15010380331d78eeee24a356519e27
0b5054a10800b30081c0a9c0d1c08180
a940950001019d34806470381f401e14
3500fd1e1100001e000000fd00314b36
5312000a202020202020000000fc0048
5020546f756368536d617274000000ff
00310a202020202020202020202000b9

Extracted contents:
header:          00 ff ff ff ff ff ff 00
serial number:   22 f0 11 42 01 00 00 00 0d 15
version:         01 03
basic params:    80 33 1d 78 ee
chroma info:     ee 24 a3 56 51 9e 27 0b 50 54
established:     a1 08 00
standard:        b3 00 81 c0 a9 c0 d1 c0 81 80 a9 40 95 00 01 01
descriptor 1:    9d 34 80 64 70 38 1f 40 1e 14 35 00 fd 1e 11 00 00 1e
descriptor 2:    00 00 00 fd 00 31 4b 36 53 12 00 0a 20 20 20 20 20 20
descriptor 3:    00 00 00 fc 00 48 50 20 54 6f 75 63 68 53 6d 61 72 74
descriptor 4:    00 00 00 ff 00 31 0a 20 20 20 20 20 20 20 20 20 20 20
extensions:      00
checksum:        b9

EDID version: 1.3
Manufacturer: HWP Model 4211 Serial Number --
Made in week 13 of 2011
Digital display
Maximum image size: 51 cm x 29 cm
Gamma: 2.20
DPMS levels: Standby Suspend Off
RGB color display
Default (sRGB) color space is primary color space
First detailed timing is preferred timing
Display x,y Chromaticity:
  Red:   0.6396, 0.3378
  Green: 0.3193, 0.6191
  Blue:  0.1523, 0.0449
  White: 0.3134, 0.3281
Established timings supported:
  720x400@70Hz 9:5 HorFreq: 31469 Hz Clock: 28.320 MHz
  640x480@60Hz 4:3 HorFreq: 31469 Hz Clock: 25.175 MHz
  800x600@60Hz 4:3 HorFreq: 37900 Hz Clock: 40.000 MHz
  1024x768@60Hz 4:3 HorFreq: 48400 Hz Clock: 65.000 MHz
Standard timings supported:
  1680x1050@60Hz 16:10 HorFreq: 64700 Hz Clock: 119.000 MHz
  1280x720@60Hz 16:9
  1600x900@60Hz 16:9
  1920x1080@60Hz 16:9
  1280x1024@60Hz 5:4 HorFreq: 64000 Hz Clock: 108.000 MHz
  1600x1200@60Hz 4:3 HorFreq: 75000 Hz Clock: 162.000 MHz
  1440x900@60Hz 16:10 HorFreq: 55500 Hz Clock: 88.750 MHz
Detailed mode: Clock 134.690 MHz, 509 mm x 286 mm
               1920 1950 1970 2020 hborder 0
               1080 1083 1088 1111 vborder 0
               +hsync +vsync 
               VertFreq: 60 Hz, HorFreq: 66678 Hz
Monitor ranges (GTF): 49-75Hz V, 54-83kHz H, max dotclock 180MHz
Serial number: --
Checksum: 0xb9 (valid)
EDID block does NOT conform to EDID 1.3!
	sRGB is signaled, but the chromaticities do not match
	Name descriptor not terminated with a newline
One or more of the timings is out of range of the Monitor Ranges:
  Vertical Freq: 60 - 70 Hz
  Horizontal Freq: 31469 - 75000 Hz
  Maximum Clock: 162.000 MHz
