
EDID (hex):
00ffffffffffff004ca3544700000000
00120103801a10780ad3e5955c609027
19505400000001010101010101010101
010101010101ee1a0080502010301030
330005a3100000190000000f00000000
00000000002387026400000000fe0053
414d53554e470a2020202020000000fe
004c544e313231415430364c30310024

Extracted contents:
header:          00 ff ff ff ff ff ff 00
serial number:   4c a3 54 47 00 00 00 00 00 12
version:         01 03
basic params:    80 1a 10 78 0a
chroma info:     d3 e5 95 5c 60 90 27 19 50 54
established:     00 00 00
standard:        01 01 01 01 01 01 01 01 01 01 01 01 01 01 01 01
descriptor 1:    ee 1a 00 80 50 20 10 30 10 30 33 00 05 a3 10 00 00 19
descriptor 2:    00 00 00 0f 00 00 00 00 00 00 00 00 00 23 87 02 64 00
descriptor 3:    00 00 00 fe 00 53 41 4d 53 55 4e 47 0a 20 20 20 20 20
descriptor 4:    00 00 00 fe 00 4c 54 4e 31 32 31 41 54 30 36 4c 30 31
extensions:      00
checksum:        24

EDID version: 1.3
Manufacturer: SEC Model 4754 Serial Number --
Made in year 2008
Digital display
Maximum image size: 26 cm x 16 cm
Gamma: 2.20
RGB color display
First detailed timing is preferred timing
Display x,y Chromaticity:
  Red:   0.5849, 0.3603
  Green: 0.3750, 0.5654
  Blue:  0.1552, 0.0996
  White: 0.3134, 0.3291
Established timings supported:
Standard timings supported:
Detailed mode: Clock 68.940 MHz, 261 mm x 163 mm
               1280 1296 1344 1408 hborder 0
                800  803  806  816 vborder 0
               -hsync -vsync 
               VertFreq: 60 Hz, HorFreq: 48963 Hz
Manufacturer-specified data, tag 15
ASCII string: SAMSUNG
ASCII string: LTN121AT06L01
Checksum: 0x24 (valid)
EDID block does NOT conform to EDID 1.3!
	Missing name descriptor
	Missing monitor ranges
