
EDID (hex):
00ffffffffffff0030e4920200000000
00130103901f11780a8e359358569029
20505400000001010101010101010101
010101010101121b5668500012302020
350035ae1000001a121b566850001230
2020350035ae1000001a000000fe0039
39584e58813134305748320a00000000
00004131940100000001010a202000c4

Extracted contents:
header:          00 ff ff ff ff ff ff 00
serial number:   30 e4 92 02 00 00 00 00 00 13
version:         01 03
basic params:    90 1f 11 78 0a
chroma info:     8e 35 93 58 56 90 29 20 50 54
established:     00 00 00
standard:        01 01 01 01 01 01 01 01 01 01 01 01 01 01 01 01
descriptor 1:    12 1b 56 68 50 00 12 30 20 20 35 00 35 ae 10 00 00 1a
descriptor 2:    12 1b 56 68 50 00 12 30 20 20 35 00 35 ae 10 00 00 1a
descriptor 3:    00 00 00 fe 00 39 39 58 4e 58 81 31 34 30 57 48 32 0a
descriptor 4:    00 00 00 00 00 00 41 31 94 01 00 00 00 01 01 0a 20 20
extensions:      00
checksum:        c4

EDID version: 1.3
Manufacturer: LGD Model 292 Serial Number --
Made in year 2009
Digital display
Maximum image size: 31 cm x 17 cm
Gamma: 2.20
RGB color display
First detailed timing is preferred timing
Display x,y Chromaticity:
  Red:   0.5761, 0.3437
  Green: 0.3388, 0.5644
  Blue:  0.1601, 0.1279
  White: 0.3134, 0.3291
Established timings supported:
Standard timings supported:
Detailed mode: Clock 69.300 MHz, 309 mm x 174 mm
               1366 1398 1430 1470 hborder 0
                768  771  776  786 vborder 0
               +hsync -vsync 
               VertFreq: 59 Hz, HorFreq: 47142 Hz
Detailed mode: Clock 69.300 MHz, 309 mm x 174 mm
               1366 1398 1430 1470 hborder 0
                768  771  776  786 vborder 0
               +hsync -vsync 
               VertFreq: 59 Hz, HorFreq: 47142 Hz
ASCII string: 99XNX
Manufacturer-specified data, tag 0
Checksum: 0xc4 (valid)
EDID block does NOT conform to EDID 1.3!
	Digital display field contains garbage: 10
	Missing name descriptor
	Missing monitor ranges
	Detailed block string not properly terminated
