
EDID (hex):
00ffffffffffff0030e4f10200000000
00140103802213780a05859b5b549426
0e505400000001010101010101010101
010101010101121b567250000c302428
350058c2100000190000000000000000
00000000000000000000000000fe004c
4720446973706c61790a2020000000fe
004c503135365748342d544c443100ff

Extracted contents:
header:          00 ff ff ff ff ff ff 00
serial number:   30 e4 f1 02 00 00 00 00 00 14
version:         01 03
basic params:    80 22 13 78 0a
chroma info:     05 85 9b 5b 54 94 26 0e 50 54
established:     00 00 00
standard:        01 01 01 01 01 01 01 01 01 01 01 01 01 01 01 01
descriptor 1:    12 1b 56 72 50 00 0c 30 24 28 35 00 58 c2 10 00 00 19
descriptor 2:    00 00 00 00 00 00 00 00 00 00 00 00 00 00 00 00 00 00
descriptor 3:    00 00 00 fe 00 4c 47 20 44 69 73 70 6c 61 79 0a 20 20
descriptor 4:    00 00 00 fe 00 4c 50 31 35 36 57 48 34 2d 54 4c 44 31
extensions:      00
checksum:        ff

EDID version: 1.3
Manufacturer: LGD Model 2f1 Serial Number --
Made in year 2010
Digital display
Maximum image size: 34 cm x 19 cm
Gamma: 2.20
RGB color display
First detailed timing is preferred timing
Display x,y Chromaticity:
  Red:   0.6054, 0.3554
  Green: 0.3291, 0.5791
  Blue:  0.1503, 0.0546
  White: 0.3134, 0.3291
Established timings supported:
Standard timings supported:
Detailed mode: Clock 69.300 MHz, 344 mm x 194 mm
               1366 1402 1442 1480 hborder 0
                768  771  776  780 vborder 0
               -hsync -vsync 
               VertFreq: 60 Hz, HorFreq: 46824 Hz
Manufacturer-specified data, tag 0
ASCII string: LG Display
ASCII string: LP156WH4-TLD1
Checksum: 0xff (valid)
EDID block does NOT conform to EDID 1.3!
	Missing name descriptor
	Missing monitor ranges
