
EDID (hex):
00ffffffffffff001e6d7a9e91530100
0c1e010380782278ea09c1ae5044af26
0e50542108007140818081c0a9c0d1c0
810001010101a6780030f2385a40b058
8a00ae514100001e023a801871382d40
582c4500ae514100001e000000fd0030
3d1e873c000a202020202020000000fc
004c472048445220445148440a200185
02033c714d010312042022901f5d5e5f
606123090707830100006d030c002000
b83e20006001020367d85dc401788003
e30f0018e305c000e30605018a640030
f2385a40b0588a00ae514100001e543c
0030f2385a40b0588a00ae514100001e
000000ff003031324e545451324a3932
390a00000000000000000000000000ff

Extracted contents:
header:          00 ff ff ff ff ff ff 00
serial number:   1e 6d 7a 9e 91 53 01 00 0c 1e
version:         01 03
basic params:    80 78 22 78 ea
chroma info:     09 c1 ae 50 44 af 26 0e 50 54
established:     21 08 00
standard:        71 40 81 80 81 c0 a9 c0 d1 c0 81 00 01 01 01 01
descriptor 1:    a6 78 00 30 f2 38 5a 40 b0 58 8a 00 ae 51 41 00 00 1e
descriptor 2:    02 3a 80 18 71 38 2d 40 58 2c 45 00 ae 51 41 00 00 1e
descriptor 3:    00 00 00 fd 00 30 3d 1e 87 3c 00 0a 20 20 20 20 20 20
descriptor 4:    00 00 00 fc 00 4c 47 20 48 44 52 20 44 51 48 44 0a 20
extensions:      01
checksum:        85

EDID version: 1.3
Manufacturer: GSM Model 9e7a Serial Number --
Made in week 12 of 2020
Digital display
Maximum image size: 120 cm x 34 cm
Gamma: 2.20
DPMS levels: Standby Suspend Off
RGB color display
First detailed timing is preferred timing
Display x,y Chromaticity:
  Red:   0.6796, 0.3125
  Green: 0.2675, 0.6845
  Blue:  0.1513, 0.0546
  White: 0.3125, 0.3291
Established timings supported:
  640x480@60Hz 4:3 HorFreq: 31469 Hz Clock: 25.175 MHz
  800x600@60Hz 4:3 HorFreq: 37900 Hz Clock: 40.000 MHz
  1024x768@60Hz 4:3 HorFreq: 48400 Hz Clock: 65.000 MHz
Standard timings supported:
  1152x864@60Hz 4:3
  1280x1024@60Hz 5:4 HorFreq: 64000 Hz Clock: 108.000 MHz
  1280x720@60Hz 16:9
  1600x900@60Hz 16:9
  1920x1080@60Hz 16:9
  1280x800@60Hz 16:10
Detailed mode: Clock 308.860 MHz, 1198 mm x 337 mm
               3840 4016 4104 4400 hborder 0
               1080 1088 1098 1170 vborder 0
               +hsync +vsync 
               VertFreq: 59 Hz, HorFreq: 70195 Hz
Detailed mode: Clock 148.500 MHz, 1198 mm x 337 mm
               1920 2008 2052 2200 hborder 0
               1080 1084 1089 1125 vborder 0
               +hsync +vsync 
               VertFreq: 60 Hz, HorFreq: 67500 Hz
Monitor ranges (GTF): 48-61Hz V, 30-135kHz H, max dotclock 600MHz
Monitor name: LG HDR DQHD
Has 1 extension blocks
Checksum: 0x85 (valid)

CTA extension block
Extension version: 3
56 bytes of CTA data
  Video data block
    VIC   1 640x480@60Hz 4:3  HorFreq: 31469 Hz Clock: 25.175 MHz
    VIC   3 720x480@60Hz 16:9  HorFreq: 31469 Hz Clock: 27.000 MHz
    VIC  18 720x576@50Hz 16:9  HorFreq: 31250 Hz Clock: 27.000 MHz
    VIC   4 1280x720@60Hz 16:9  HorFreq: 45000 Hz Clock: 74.250 MHz
    VIC  32 1920x1080@24Hz 16:9  HorFreq: 27000 Hz Clock: 74.250 MHz
    VIC  34 1920x1080@30Hz 16:9  HorFreq: 33750 Hz Clock: 74.250 MHz
    VIC  16 1920x1080@60Hz 16:9 (native) HorFreq: 67500 Hz Clock: 148.500 MHz
    VIC  31 1920x1080@50Hz 16:9  HorFreq: 56250 Hz Clock: 148.500 MHz
    VIC  93 3840x2160@24Hz 16:9  HorFreq: 54000 Hz Clock: 297.000 MHz
    VIC  94 3840x2160@25Hz 16:9  HorFreq: 56250 Hz Clock: 297.000 MHz
    VIC  95 3840x2160@30Hz 16:9  HorFreq: 67500 Hz Clock: 297.000 MHz
    VIC  96 3840x2160@50Hz 16:9  HorFreq: 112500 Hz Clock: 594.000 MHz
    VIC  97 3840x2160@60Hz 16:9  HorFreq: 135000 Hz Clock: 594.000 MHz
  Audio data block
    Linear PCM, max channels 2
      Supported sample rates (kHz): 48 44.1 32
      Supported sample sizes (bits): 24 20 16
  Speaker allocation data block
    Speaker map:
      FL/FR - Front Left/Right
  Vendor-specific data block, OUI 000c03 (HDMI)
    Source physical address 2.0.0.0
    Supports_AI
    DC_36bit
    DC_30bit
    DC_Y444
    Maximum TMDS clock: 310MHz
    Extended HDMI video details:
      HDMI VIC 1 3840x2160@30Hz 16:9 HorFreq: 67500 Hz Clock: 297.000 MHz
      HDMI VIC 2 3840x2160@25Hz 16:9 HorFreq: 56250 Hz Clock: 297.000 MHz
      HDMI VIC 3 3840x2160@24Hz 16:9 HorFreq: 54000 Hz Clock: 297.000 MHz
  Vendor-specific data block, OUI c45dd8 (HDMI Forum)
    Version: 1
    Maximum TMDS Character Rate: 600MHz
    SCDC Present
    Supports 12-bits/component Deep Color 4:2:0 Pixel Encoding
    Supports 10-bits/component Deep Color 4:2:0 Pixel Encoding
  Extended tag: YCbCr 4:2:0 capability map data block
    VSD Index 11
    VSD Index 12
  Extended tag: Colorimetry data block
    BT2020YCC
    BT2020RGB
  Extended tag: HDR static metadata data block
    Electro optical transfer functions:
      Traditional gamma - SDR luminance range
      SMPTE ST2084
    Supported static metadata descriptors:
      Static metadata type 1
Basic audio support
Supports YCbCr 4:4:4
Supports YCbCr 4:2:2
1 native detailed modes
Detailed mode: Clock 257.380 MHz, 1198 mm x 337 mm
               3840 4016 4104 4400 hborder 0
               1080 1088 1098 1170 vborder 0
               +hsync +vsync 
               VertFreq: 49 Hz, HorFreq: 58495 Hz
Detailed mode: Clock 154.440 MHz, 1198 mm x 337 mm
               3840 4016 4104 4400 hborder 0
               1080 1088 1098 1170 vborder 0
               +hsync +vsync 
               VertFreq: 30 Hz, HorFreq: 35100 Hz
Checksum: 0xff (valid)

One or more of the timings is out of range of the Monitor Ranges:
  Vertical Freq: 24 - 60 Hz
  Horizontal Freq: 27000 - 135000 Hz
  Maximum Clock: 594.000 MHz
