edid-decode (hex):

00 ff ff ff ff ff ff 00 26 34 0d 90 01 00 00 00
01 14 01 03 08 34 20 78 ea 9e c5 a6 56 4b 9a 25
13 50 54 a7 6f 80 d1 00 a9 40 b3 00 81 40 71 40
81 80 95 00 01 01 28 3c 80 a0 70 b0 23 40 30 20
36 00 08 40 21 00 00 1a 02 3a 80 18 71 38 2d 40
58 2c 45 00 08 40 21 00 00 1e 00 00 00 fd 00 3b
4c 1f 53 12 00 0a 20 20 20 20 20 20 00 00 00 fc
00 57 32 34 58 44 20 44 53 55 42 0a 20 20 00 01

00 ff ff ff ff ff ff 00 26 34 0d 90 01 00 00 00
01 14 01 03 08 34 20 78 ea 9e c5 a6 56 4b 9a 25
13 50 54 a7 6f 80 d1 00 a9 40 b3 00 81 40 71 40
81 80 95 00 01 01 28 3c 80 a0 70 b0 23 40 30 20
36 00 08 40 21 00 00 1a 02 3a 80 18 71 38 2d 40
58 2c 45 00 08 40 21 00 00 1e 00 00 00 fd 00 3b
4c 1f 53 12 00 0a 20 20 20 20 20 20 00 00 00 fc
00 57 32 34 58 44 20 44 53 55 42 0a 20 20 00 01

----------------

Block 0, Base EDID:
  EDID Structure Version & Revision: 1.3
  Vendor & Product Identification:
    Manufacturer: IQT
    Model: 36877
    Serial Number: ...
    Made in: week 1 of 2010
  Basic Display Parameters & Features:
    Analog display
    Signal Level Standard: 0.700 : 0.300 : 1.000 V p-p
    Blank level equals black level
    Sync: Separate
    Maximum image size: 52 cm x 32 cm
    Gamma: 2.20
    DPMS levels: Standby Suspend Off
    RGB color display
    First detailed timing is the preferred timing
  Color Characteristics:
    Red  : 0.6503, 0.3369
    Green: 0.2958, 0.6035
    Blue : 0.1474, 0.0742
    White: 0.3134, 0.3291
  Established Timings I & II:
    IBM     :   720x400    70.081663 Hz   9:5     31.467 kHz     28.320000 MHz
    DMT 0x04:   640x480    59.940476 Hz   4:3     31.469 kHz     25.175000 MHz
    DMT 0x06:   640x480    75.000000 Hz   4:3     37.500 kHz     31.500000 MHz
    DMT 0x08:   800x600    56.250000 Hz   4:3     35.156 kHz     36.000000 MHz
    DMT 0x09:   800x600    60.316541 Hz   4:3     37.879 kHz     40.000000 MHz
    DMT 0x0b:   800x600    75.000000 Hz   4:3     46.875 kHz     49.500000 MHz
    Apple   :   832x624    74.551266 Hz   4:3     49.726 kHz     57.284000 MHz
    DMT 0x10:  1024x768    60.003840 Hz   4:3     48.363 kHz     65.000000 MHz
    DMT 0x11:  1024x768    70.069359 Hz   4:3     56.476 kHz     75.000000 MHz
    DMT 0x12:  1024x768    75.028582 Hz   4:3     60.023 kHz     78.750000 MHz
    DMT 0x24:  1280x1024   75.024675 Hz   5:4     79.976 kHz    135.000000 MHz
    Apple   :  1152x870    75.061550 Hz 192:145   68.681 kHz    100.000000 MHz
  Standard Timings:
    DMT 0x45:  1920x1200   59.884600 Hz  16:10    74.556 kHz    193.250000 MHz
    DMT 0x33:  1600x1200   60.000000 Hz   4:3     75.000 kHz    162.000000 MHz
    DMT 0x3a:  1680x1050   59.954250 Hz  16:10    65.290 kHz    146.250000 MHz
    DMT 0x20:  1280x960    60.000000 Hz   4:3     60.000 kHz    108.000000 MHz
    GTF     :  1152x864    60.000000 Hz   4:3     53.700 kHz     81.624000 MHz
    DMT 0x23:  1280x1024   60.019740 Hz   5:4     63.981 kHz    108.000000 MHz
    DMT 0x2f:  1440x900    59.887445 Hz  16:10    55.935 kHz    106.500000 MHz
  Detailed Timing Descriptors:
    DTD 1:  1920x1200   59.950171 Hz  16:10    74.038 kHz    154.000000 MHz (520 mm x 320 mm)
                 Hfront   48 Hsync  32 Hback   80 Hpol P
                 Vfront    3 Vsync   6 Vback   26 Vpol N
    DTD 2:  1920x1080   60.000000 Hz  16:9     67.500 kHz    148.500000 MHz (520 mm x 320 mm)
                 Hfront   88 Hsync  44 Hback  148 Hpol P
                 Vfront    4 Vsync   5 Vback   36 Vpol P
    Display Range Limits:
      Monitor ranges (GTF): 59-76 Hz V, 31-83 kHz H, max dotclock 180 MHz
    Display Product Name: 'W24XD DSUB'
Checksum: 0x01

----------------

Block 1, Unknown EDID Extension Block 0x00:
  00 ff ff ff ff ff ff 00 26 34 0d 90 01 00 00 00 '........&4......'
  01 14 01 03 08 34 20 78 ea 9e c5 a6 56 4b 9a 25 '.....4 x....VK.%'
  13 50 54 a7 6f 80 d1 00 a9 40 b3 00 81 40 71 40 '.PT.o....@...@q@'
  81 80 95 00 01 01 28 3c 80 a0 70 b0 23 40 30 20 '......(<..p.#@0 '
  36 00 08 40 21 00 00 1a 02 3a 80 18 71 38 2d 40 '6..@!....:..q8-@'
  58 2c 45 00 08 40 21 00 00 1e 00 00 00 fd 00 3b 'X,E..@!........;'
  4c 1f 53 12 00 0a 20 20 20 20 20 20 00 00 00 fc 'L.S...      ....'
  00 57 32 34 58 44 20 44 53 55 42 0a 20 20 00 01 '.W24XD DSUB.  ..'
Checksum: 0x01

----------------

Failures:

Block 1, Base EDID:
  Unknown Extension Block.
EDID:
  Base EDID: Some timings are out of range of the Monitor Ranges:
    Vertical Freq: 56.250 - 75.062 Hz (Monitor: 59.000 - 76.000 Hz)
    Maximum Clock: 193.250 MHz (Monitor: 180.000 MHz)
  Base EDID: EDID specified 0 extension block(s), but found 1 extension block(s).

EDID conformity: FAIL
