
EDID (hex):
00ffffffffffff0030e4d50500000000
001c010495221378037565955e598f28
1a505400000001010101010101010101
0101010101012e3680a070381f403020
350058c210000019222480a070381f40
3020350058c210000019000000fd0028
3c43430e010a20202020202000000002
000c47ff0a3c6e1115226e0000000001

Extracted contents:
header:          00 ff ff ff ff ff ff 00
serial number:   30 e4 d5 05 00 00 00 00 00 1c
version:         01 04
basic params:    95 22 13 78 03
chroma info:     75 65 95 5e 59 8f 28 1a 50 54
established:     00 00 00
standard:        01 01 01 01 01 01 01 01 01 01 01 01 01 01 01 01
descriptor 1:    2e 36 80 a0 70 38 1f 40 30 20 35 00 58 c2 10 00 00 19
descriptor 2:    22 24 80 a0 70 38 1f 40 30 20 35 00 58 c2 10 00 00 19
descriptor 3:    00 00 00 fd 00 28 3c 43 43 0e 01 0a 20 20 20 20 20 20
descriptor 4:    00 00 00 02 00 0c 47 ff 0a 3c 6e 11 15 22 6e 00 00 00
extensions:      00
checksum:        01

EDID version: 1.4
Manufacturer: LGD Model 5d5 Serial Number --
Made in year 2018
Digital display
6 bits per primary color channel
DisplayPort interface
Maximum image size: 34 cm x 19 cm
Gamma: 2.20
Supported color formats: RGB 4:4:4
First detailed timing includes the native pixel format and preferred refresh rate
Display is continuous frequency
Display x,y Chromaticity:
  Red:   0.5830, 0.3701
  Green: 0.3486, 0.5595
  Blue:  0.1572, 0.1035
  White: 0.3134, 0.3291
Established timings supported:
Standard timings supported:
Detailed mode: Clock 138.700 MHz, 344 mm x 194 mm
               1920 1968 2000 2080 hborder 0
               1080 1083 1088 1111 vborder 0
               -hsync -vsync 
               VertFreq: 60 Hz, HorFreq: 66682 Hz
Detailed mode: Clock 92.500 MHz, 344 mm x 194 mm
               1920 1968 2000 2080 hborder 0
               1080 1083 1088 1111 vborder 0
               -hsync -vsync 
               VertFreq: 40 Hz, HorFreq: 44471 Hz
Monitor ranges (bare limits): 40-60Hz V, 67-67kHz H, max dotclock 140MHz
Manufacturer-specified data, tag 2
Checksum: 0x1 (valid)
EDID block does NOT conform to EDID 1.4!
	Missing name descriptor
Warning: One or more of the timings is out of range of the Monitor Ranges:
  Vertical Freq: 40 - 60 Hz
  Horizontal Freq: 44471 - 66682 Hz
  Maximum Clock: 138.700 MHz
