edid-decode (hex):

00 ff ff ff ff ff ff 00 14 73 86 24 19 02 13 20
08 17 01 04 a5 29 17 78 e2 68 d0 a5 55 48 9a 26
13 50 54 00 00 00 01 01 01 01 01 01 01 01 01 01
01 01 01 01 01 01 40 2e 40 00 62 84 22 30 30 20
35 00 ba f9 10 00 00 1e 00 00 00 ff 00 30 30 30
30 30 31 0a 0a 0a 0a 0a 0a 0a 00 00 00 fd 00 3c
3c 1e 41 0c 00 0a 20 20 20 20 20 20 00 00 00 fc
00 41 49 4f 20 50 43 0a 20 20 20 20 20 20 00 75

----------------

Block 0, Base EDID:
  EDID Structure Version & Revision: 1.4
  Vendor & Product Identification:
    Manufacturer: ECS
    Model: 9350
    Serial Number: ...
    Made in: week 8 of 2013
  Basic Display Parameters & Features:
    Digital display
    Bits per primary color channel: 8
    DisplayPort interface
    Maximum image size: 41 cm x 23 cm
    Gamma: 2.20
    DPMS levels: Standby Suspend Off
    Supported color formats: RGB 4:4:4
    First detailed timing includes the native pixel format and preferred refresh rate
  Color Characteristics:
    Red  : 0.6455, 0.3339
    Green: 0.2832, 0.6015
    Blue : 0.1513, 0.0751
    White: 0.3125, 0.3281
  Established Timings I & II: none
  Standard Timings: none
  Detailed Timing Descriptors:
    DTD 1:  1600x900    60.022062 Hz  16:9     56.061 kHz    118.400000 MHz (442 mm x 249 mm)
                 Hfront   48 Hsync  32 Hback  432 Hpol P
                 Vfront    3 Vsync   5 Vback   26 Vpol P
    Display Product Serial Number: ...
    Display Range Limits:
      Monitor ranges (GTF): 60-60 Hz V, 30-65 kHz H, max dotclock 120 MHz
    Display Product Name: 'AIO PC'
Checksum: 0x75

----------------

Warnings:

Block 0, Base EDID:
  Display Range Limits: GTF support is deprecated in EDID 1.4.

Failures:

Block 0, Base EDID:
  Detailed Timing Descriptor #1: Mismatch of image size 442x249 mm vs display size 410x230 mm.
  Display Product Serial Number: ...
  Display Range Limits: GTF can't be combined with non-continuous frequencies.
EDID:
  Base EDID: The DTD max image size is 442x249mm, which is larger than the display size 410.0x230.0mm.

EDID conformity: FAIL
