
EDID (hex):
00ffffffffffff0009e5390700000000
011b0104952213780224109759548e27
1e505400000001010101010101010101
010101010101703a800b71383c403020
360058c11000001af226800b71383c40
6464440558c11000001a000000000000
00000000000000000000000000000002
000c3edd0a3c6e15111e6e0a2020005c

Extracted contents:
header:          00 ff ff ff ff ff ff 00
serial number:   09 e5 39 07 00 00 00 00 01 1b
version:         01 04
basic params:    95 22 13 78 02
chroma info:     24 10 97 59 54 8e 27 1e 50 54
established:     00 00 00
standard:        01 01 01 01 01 01 01 01 01 01 01 01 01 01 01 01
descriptor 1:    70 3a 80 0b 71 38 3c 40 30 20 36 00 58 c1 10 00 00 1a
descriptor 2:    f2 26 80 0b 71 38 3c 40 64 64 44 05 58 c1 10 00 00 1a
descriptor 3:    00 00 00 00 00 00 00 00 00 00 00 00 00 00 00 00 00 00
descriptor 4:    00 00 00 02 00 0c 3e dd 0a 3c 6e 15 11 1e 6e 0a 20 20
extensions:      00
checksum:        5c

EDID version: 1.4
Manufacturer: BOE Model 739 Serial Number --
Made in week 1 of 2017
Digital display
6 bits per primary color channel
DisplayPort interface
Maximum image size: 34 cm x 19 cm
Gamma: 2.20
Supported color formats: RGB 4:4:4
First detailed timing includes the native pixel format and preferred refresh rate
Display x,y Chromaticity:
  Red:   0.5898, 0.3496
  Green: 0.3291, 0.5546
  Blue:  0.1523, 0.1181
  White: 0.3125, 0.3281
Established timings supported:
Standard timings supported:
Detailed mode: Clock 149.600 MHz, 344 mm x 193 mm
               1920 1968 2000 2187 hborder 0
               1080 1083 1089 1140 vborder 0
               +hsync -vsync 
               VertFreq: 60 Hz, HorFreq: 68404 Hz
Detailed mode: Clock 99.700 MHz, 344 mm x 193 mm
               1920 2020 2120 2187 hborder 0
               1080 1100 1120 1140 vborder 0
               +hsync -vsync 
               VertFreq: 39 Hz, HorFreq: 45587 Hz
Manufacturer-specified data, tag 0
Manufacturer-specified data, tag 2
Checksum: 0x5c (valid)
EDID block does NOT conform to EDID 1.4!
	Missing name descriptor
	Missing monitor ranges
