
EDID (hex):
00ffffffffffff001ab321013d4b0000
120b0103081e1778eaecde9e54479723
1c4c54bfee006140614a614f4540454f
3140314f010164190030410026301888
360030e410000018000000ff00594554
503131393236310a2020000000fd0037
4b1e3d08000a202020202020000000fc
004333383346410a20202020202000b2

Extracted contents:
header:          00 ff ff ff ff ff ff 00
serial number:   1a b3 21 01 3d 4b 00 00 12 0b
version:         01 03
basic params:    08 1e 17 78 ea
chroma info:     ec de 9e 54 47 97 23 1c 4c 54
established:     bf ee 00
standard:        61 40 61 4a 61 4f 45 40 45 4f 31 40 31 4f 01 01
descriptor 1:    64 19 00 30 41 00 26 30 18 88 36 00 30 e4 10 00 00 18
descriptor 2:    00 00 00 ff 00 59 45 54 50 31 31 39 32 36 31 0a 20 20
descriptor 3:    00 00 00 fd 00 37 4b 1e 3d 08 00 0a 20 20 20 20 20 20
descriptor 4:    00 00 00 fc 00 43 33 38 33 46 41 0a 20 20 20 20 20 20
extensions:      00
checksum:        b2

EDID version: 1.3
Manufacturer: FUS Model 121 Serial Number --
Analog display, Input voltage level: 0.7/0.3 V
Sync: Separate 
Maximum image size: 30 cm x 23 cm
Gamma: 2.20
DPMS levels: Standby Suspend Off
RGB color display
First detailed timing is preferred timing
Display x,y Chromaticity:
  Red:   0.6201, 0.3300
  Green: 0.2802, 0.5898
  Blue:  0.1396, 0.1103
  White: 0.2998, 0.3300
Established timings supported:
  720x400@70Hz 9:5 HorFreq: 31469 Hz Clock: 28.320 MHz
  640x480@60Hz 4:3 HorFreq: 31469 Hz Clock: 25.175 MHz
  640x480@67Hz 4:3 HorFreq: 35000 Hz Clock: 30.240 MHz
  640x480@72Hz 4:3 HorFreq: 37900 Hz Clock: 31.500 MHz
  640x480@75Hz 4:3 HorFreq: 37500 Hz Clock: 31.500 MHz
  800x600@56Hz 4:3 HorFreq: 35200 Hz Clock: 36.000 MHz
  800x600@60Hz 4:3 HorFreq: 37900 Hz Clock: 40.000 MHz
  800x600@72Hz 4:3 HorFreq: 48100 Hz Clock: 50.000 MHz
  800x600@75Hz 4:3 HorFreq: 46900 Hz Clock: 49.500 MHz
  832x624@75Hz 4:3 HorFreq: 49726 Hz Clock: 57.284 MHz
  1024x768@60Hz 4:3 HorFreq: 48400 Hz Clock: 65.000 MHz
  1024x768@70Hz 4:3 HorFreq: 56500 Hz Clock: 75.000 MHz
  1024x768@75Hz 4:3 HorFreq: 60000 Hz Clock: 78.750 MHz
Standard timings supported:
  1024x768@60Hz 4:3 HorFreq: 48400 Hz Clock: 65.000 MHz
  1024x768@70Hz 4:3 HorFreq: 56500 Hz Clock: 75.000 MHz
  1024x768@75Hz 4:3 HorFreq: 60000 Hz Clock: 78.750 MHz
  800x600@60Hz 4:3 HorFreq: 37900 Hz Clock: 40.000 MHz
  800x600@75Hz 4:3 HorFreq: 46900 Hz Clock: 49.500 MHz
  640x480@60Hz 4:3 HorFreq: 31469 Hz Clock: 25.175 MHz
  640x480@75Hz 4:3 HorFreq: 37500 Hz Clock: 31.500 MHz
Detailed mode: Clock 65.000 MHz, 304 mm x 228 mm
               1024 1048 1184 1328 hborder 0
                768  771  777  806 vborder 0
               -hsync -vsync 
               VertFreq: 60 Hz, HorFreq: 48945 Hz
Serial number: --
Monitor ranges (GTF): 55-75Hz V, 30-61kHz H, max dotclock 80MHz
Monitor name: C383FA
Checksum: 0xb2 (valid)
EDID block does not conform at all!
	Bad year of manufacture
