
EDID (hex):
00ffffffffffff001c54033400000000
321f0103805021782aa7d5b24b3aad24
115054bfef80d1c0b30095008180714f
81c08140a9c0023a801871382d40582c
45001d4e3100001a226870a0d0a02950
302035001d4e3100001a000000fd0030
781ed63c000a202020202020000000fc
0047333457514320410a2020202001c4
020346f34d101f010304043f3f2f2f40
101023090707830100006a030c001000
007820000067000000017880006d1a00
0002070078ed0000000000e3050000e6
060000000000206870a0d0a029505840
45001d4e3100001eb241b8a060a03350
302035001d4e3100001e376100a0a0a0
5550302035001d4e3100001e00000075

Extracted contents:
header:          00 ff ff ff ff ff ff 00
serial number:   1c 54 03 34 00 00 00 00 32 1f
version:         01 03
basic params:    80 50 21 78 2a
chroma info:     a7 d5 b2 4b 3a ad 24 11 50 54
established:     bf ef 80
standard:        d1 c0 b3 00 95 00 81 80 71 4f 81 c0 81 40 a9 c0
descriptor 1:    02 3a 80 18 71 38 2d 40 58 2c 45 00 1d 4e 31 00 00 1a
descriptor 2:    22 68 70 a0 d0 a0 29 50 30 20 35 00 1d 4e 31 00 00 1a
descriptor 3:    00 00 00 fd 00 30 78 1e d6 3c 00 0a 20 20 20 20 20 20
descriptor 4:    00 00 00 fc 00 47 33 34 57 51 43 20 41 0a 20 20 20 20
extensions:      01
checksum:        c4

EDID version: 1.3
Manufacturer: GBT Model 3403 Serial Number --
Made in week 50 of 2021
Digital display
Maximum image size: 80 cm x 33 cm
Gamma: 2.20
DPMS levels: Off
RGB color display
First detailed timing is preferred timing
Display x,y Chromaticity:
  Red:   0.6972, 0.2949
  Green: 0.2275, 0.6787
  Blue:  0.1435, 0.0673
  White: 0.3134, 0.3291
Established timings supported:
  720x400@70Hz 9:5 HorFreq: 31469 Hz Clock: 28.320 MHz
  640x480@60Hz 4:3 HorFreq: 31469 Hz Clock: 25.175 MHz
  640x480@67Hz 4:3 HorFreq: 35000 Hz Clock: 30.240 MHz
  640x480@72Hz 4:3 HorFreq: 37900 Hz Clock: 31.500 MHz
  640x480@75Hz 4:3 HorFreq: 37500 Hz Clock: 31.500 MHz
  800x600@56Hz 4:3 HorFreq: 35200 Hz Clock: 36.000 MHz
  800x600@60Hz 4:3 HorFreq: 37900 Hz Clock: 40.000 MHz
  800x600@72Hz 4:3 HorFreq: 48100 Hz Clock: 50.000 MHz
  800x600@75Hz 4:3 HorFreq: 46900 Hz Clock: 49.500 MHz
  832x624@75Hz 4:3 HorFreq: 49726 Hz Clock: 57.284 MHz
  1024x768@60Hz 4:3 HorFreq: 48400 Hz Clock: 65.000 MHz
  1024x768@70Hz 4:3 HorFreq: 56500 Hz Clock: 75.000 MHz
  1024x768@75Hz 4:3 HorFreq: 60000 Hz Clock: 78.750 MHz
  1280x1024@75Hz 5:4 HorFreq: 80000 Hz Clock: 135.000 MHz
  1152x870@75Hz 192:145 HorFreq: 67500 Hz Clock: 108.000 MHz
Standard timings supported:
  1920x1080@60Hz 16:9
  1680x1050@60Hz 16:10 HorFreq: 64700 Hz Clock: 119.000 MHz
  1440x900@60Hz 16:10 HorFreq: 55500 Hz Clock: 88.750 MHz
  1280x1024@60Hz 5:4 HorFreq: 64000 Hz Clock: 108.000 MHz
  1152x864@75Hz 4:3 HorFreq: 67500 Hz Clock: 108.000 MHz
  1280x720@60Hz 16:9
  1280x960@60Hz 4:3 HorFreq: 60000 Hz Clock: 108.000 MHz
  1600x900@60Hz 16:9
Detailed mode: Clock 148.500 MHz, 797 mm x 334 mm
               1920 2008 2052 2200 hborder 0
               1080 1084 1089 1125 vborder 0
               +hsync -vsync 
               VertFreq: 60 Hz, HorFreq: 67500 Hz
Detailed mode: Clock 266.580 MHz, 797 mm x 334 mm
               3440 3488 3520 3600 hborder 0
               1440 1443 1448 1481 vborder 0
               +hsync -vsync 
               VertFreq: 50 Hz, HorFreq: 74050 Hz
Monitor ranges (GTF): 48-120Hz V, 30-214kHz H, max dotclock 600MHz
Monitor name: G34WQC A
Has 1 extension blocks
Checksum: 0xc4 (valid)

CTA extension block
Extension version: 3
66 bytes of CTA data
  Video data block
    VIC  16 1920x1080@60Hz 16:9  HorFreq: 67500 Hz Clock: 148.500 MHz
    VIC  31 1920x1080@50Hz 16:9  HorFreq: 56250 Hz Clock: 148.500 MHz
    VIC   1 640x480@60Hz 4:3  HorFreq: 31469 Hz Clock: 25.175 MHz
    VIC   3 720x480@60Hz 16:9  HorFreq: 31469 Hz Clock: 27.000 MHz
    VIC   4 1280x720@60Hz 16:9  HorFreq: 45000 Hz Clock: 74.250 MHz
    VIC   4 1280x720@60Hz 16:9  HorFreq: 45000 Hz Clock: 74.250 MHz
    VIC  63 1920x1080@120Hz 16:9  HorFreq: 135000 Hz Clock: 297.000 MHz
    VIC  63 1920x1080@120Hz 16:9  HorFreq: 135000 Hz Clock: 297.000 MHz
    VIC  47 1280x720@120Hz 16:9  HorFreq: 90000 Hz Clock: 148.500 MHz
    VIC  47 1280x720@120Hz 16:9  HorFreq: 90000 Hz Clock: 148.500 MHz
    VIC  64 1920x1080@100Hz 16:9  HorFreq: 112500 Hz Clock: 297.000 MHz
    VIC  16 1920x1080@60Hz 16:9  HorFreq: 67500 Hz Clock: 148.500 MHz
    VIC  16 1920x1080@60Hz 16:9  HorFreq: 67500 Hz Clock: 148.500 MHz
  Audio data block
    Linear PCM, max channels 2
      Supported sample rates (kHz): 48 44.1 32
      Supported sample sizes (bits): 24 20 16
  Speaker allocation data block
    Speaker map:
      FL/FR - Front Left/Right
  Vendor-specific data block, OUI 000c03 (HDMI)
    Source physical address 1.0.0.0
    Maximum TMDS clock: 600MHz
    Extended HDMI video details:
  Vendor-specific data block, OUI 000000
  Vendor-specific data block, OUI 00001a
  Extended tag: Colorimetry data block
  Extended tag: HDR static metadata data block
    Electro optical transfer functions:
    Supported static metadata descriptors:
    Desired content max luminance: 0 (50.000 cd/m^2)
    Desired content max frame-average luminance: 0 (50.000 cd/m^2)
    Desired content min luminance: 0 (0.000 cd/m^2)
Underscans PC formats by default
Basic audio support
Supports YCbCr 4:4:4
Supports YCbCr 4:2:2
3 native detailed modes
Detailed mode: Clock 266.560 MHz, 797 mm x 334 mm
               3440 3528 3592 3600 hborder 0
               1440 1444 1449 1481 vborder 0
               +hsync +vsync 
               VertFreq: 49 Hz, HorFreq: 74044 Hz
Detailed mode: Clock 168.180 MHz, 797 mm x 334 mm
               1720 1768 1800 1880 hborder 0
               1440 1443 1448 1491 vborder 0
               +hsync +vsync 
               VertFreq: 59 Hz, HorFreq: 89457 Hz
Detailed mode: Clock 248.870 MHz, 797 mm x 334 mm
               2560 2608 2640 2720 hborder 0
               1440 1443 1448 1525 vborder 0
               +hsync +vsync 
               VertFreq: 59 Hz, HorFreq: 91496 Hz
Checksum: 0x75 (valid)

EDID block does NOT conform to EDID 1.3!
	HDMI VSDB Max TMDS rate is > 340


