
EDID (hex):
00ffffffffffff0009e5e50800000000
1f1d0104952213780293f5945d5a9229
1f505400000001010101010101010101
010101010101c71d56e250001e303020
360058c21000001a0000000000000000
00000000000000000000000000fe0042
4f452043510a202020202020000000fe
004e5431353677484d2d4e34340a003a

Extracted contents:
header:          00 ff ff ff ff ff ff 00
serial number:   09 e5 e5 08 00 00 00 00 1f 1d
version:         01 04
basic params:    95 22 13 78 02
chroma info:     93 f5 94 5d 5a 92 29 1f 50 54
established:     00 00 00
standard:        01 01 01 01 01 01 01 01 01 01 01 01 01 01 01 01
descriptor 1:    c7 1d 56 e2 50 00 1e 30 30 20 36 00 58 c2 10 00 00 1a
descriptor 2:    00 00 00 00 00 00 00 00 00 00 00 00 00 00 00 00 00 00
descriptor 3:    00 00 00 fe 00 42 4f 45 20 43 51 0a 20 20 20 20 20 20
descriptor 4:    00 00 00 fe 00 4e 54 31 35 36 77 48 4d 2d 4e 34 34 0a
extensions:      00
checksum:        3a

EDID version: 1.4
Manufacturer: BOE Model 8e5 Serial Number --
Made in week 31 of 2019
Digital display
6 bits per primary color channel
DisplayPort interface
Maximum image size: 34 cm x 19 cm
Gamma: 2.20
Supported color formats: RGB 4:4:4
First detailed timing includes the native pixel format and preferred refresh rate
Display x,y Chromaticity:
  Red:   0.5800, 0.3642
  Green: 0.3515, 0.5732
  Blue:  0.1630, 0.1240
  White: 0.3134, 0.3291
Established timings supported:
Standard timings supported:
Detailed mode: Clock 76.230 MHz, 344 mm x 194 mm
               1366 1414 1446 1592 hborder 0
                768  771  777  798 vborder 0
               +hsync -vsync 
               VertFreq: 60 Hz, HorFreq: 47883 Hz
Manufacturer-specified data, tag 0
ASCII string: BOE CQ
ASCII string: NT156wHM-N44
Checksum: 0x3a (valid)
EDID block does NOT conform to EDID 1.4!
	Missing name descriptor
	Missing monitor ranges
