
EDID (hex):
00ffffffffffff004d10011400000000
17170104a51f117806de50a3544c9926
0f505400000001010101010101010101
010101010101cd9180a0c00834703020
350036ae10000018ad7480a0c0083470
3020350036ae100000183a6180a0c008
34703020350036ae10000018000000fc
004c513134305a314a5730310a2000c5

Extracted contents:
header:          00 ff ff ff ff ff ff 00
serial number:   4d 10 01 14 00 00 00 00 17 17
version:         01 04
basic params:    a5 1f 11 78 06
chroma info:     de 50 a3 54 4c 99 26 0f 50 54
established:     00 00 00
standard:        01 01 01 01 01 01 01 01 01 01 01 01 01 01 01 01
descriptor 1:    cd 91 80 a0 c0 08 34 70 30 20 35 00 36 ae 10 00 00 18
descriptor 2:    ad 74 80 a0 c0 08 34 70 30 20 35 00 36 ae 10 00 00 18
descriptor 3:    3a 61 80 a0 c0 08 34 70 30 20 35 00 36 ae 10 00 00 18
descriptor 4:    00 00 00 fc 00 4c 51 31 34 30 5a 31 4a 57 30 31 0a 20
extensions:      00
checksum:        c5

EDID version: 1.4
Manufacturer: SHP Model 1401 Serial Number --
Made in week 23 of 2013
Digital display
8 bits per primary color channel
DisplayPort interface
Maximum image size: 31 cm x 17 cm
Gamma: 2.20
Supported color formats: RGB 4:4:4
Default (sRGB) color space is primary color space
First detailed timing includes the native pixel format and preferred refresh rate
Display x,y Chromaticity:
  Red:   0.6396, 0.3291
  Green: 0.2998, 0.5996
  Blue:  0.1494, 0.0595
  White: 0.3125, 0.3281
Established timings supported:
Standard timings supported:
Detailed mode: Clock 373.250 MHz, 310 mm x 174 mm
               3200 3248 3280 3360 hborder 0
               1800 1803 1808 1852 vborder 0
               -hsync -vsync 
               VertFreq: 59 Hz, HorFreq: 111086 Hz
Detailed mode: Clock 298.690 MHz, 310 mm x 174 mm
               3200 3248 3280 3360 hborder 0
               1800 1803 1808 1852 vborder 0
               -hsync -vsync 
               VertFreq: 47 Hz, HorFreq: 88895 Hz
Detailed mode: Clock 248.900 MHz, 310 mm x 174 mm
               3200 3248 3280 3360 hborder 0
               1800 1803 1808 1852 vborder 0
               -hsync -vsync 
               VertFreq: 39 Hz, HorFreq: 74077 Hz
Monitor name: LQ140Z1JW01
Checksum: 0xc5 (valid)
EDID block does NOT conform to EDID 1.4!
	sRGB is signaled, but the chromaticities do not match
	Missing monitor ranges


