
EDID (hex):
00ffffffffffff0034a4c28901010101
21100104a5261e9620fd56a5534a9d24
144f54afcf0081800101010101010101
010101010101302a009851002a403070
1300782d1100001e000000fc004d4433
3231313950520a202020000000fd0032
4b1f530e000a202020202020000000ff
003630383035313937390a2020200099

Extracted contents:
header:          00 ff ff ff ff ff ff 00
serial number:   34 a4 c2 89 01 01 01 01 21 10
version:         01 04
basic params:    a5 26 1e 96 20
chroma info:     fd 56 a5 53 4a 9d 24 14 4f 54
established:     af cf 00
standard:        81 80 01 01 01 01 01 01 01 01 01 01 01 01 01 01
descriptor 1:    30 2a 00 98 51 00 2a 40 30 70 13 00 78 2d 11 00 00 1e
descriptor 2:    00 00 00 fc 00 4d 44 33 32 31 31 39 50 52 0a 20 20 20
descriptor 3:    00 00 00 fd 00 32 4b 1f 53 0e 00 0a 20 20 20 20 20 20
descriptor 4:    00 00 00 ff 00 36 30 38 30 35 31 39 37 39 0a 20 20 20
extensions:      00
checksum:        99

EDID version: 1.4
Manufacturer: MED Model 89c2 Serial Number --
Made in week 33 of 2006
Digital display
8 bits per primary color channel
DisplayPort interface
Maximum image size: 38 cm x 30 cm
Gamma: 2.50
DPMS levels: Off
Supported color formats: RGB 4:4:4
Display x,y Chromaticity:
  Red:   0.6474, 0.3271
  Green: 0.2919, 0.6142
  Blue:  0.1416, 0.0791
  White: 0.3095, 0.3300
Established timings supported:
  720x400@70Hz 9:5 HorFreq: 31469 Hz Clock: 28.320 MHz
  640x480@60Hz 4:3 HorFreq: 31469 Hz Clock: 25.175 MHz
  640x480@72Hz 4:3 HorFreq: 37900 Hz Clock: 31.500 MHz
  640x480@75Hz 4:3 HorFreq: 37500 Hz Clock: 31.500 MHz
  800x600@56Hz 4:3 HorFreq: 35200 Hz Clock: 36.000 MHz
  800x600@60Hz 4:3 HorFreq: 37900 Hz Clock: 40.000 MHz
  800x600@72Hz 4:3 HorFreq: 48100 Hz Clock: 50.000 MHz
  800x600@75Hz 4:3 HorFreq: 46900 Hz Clock: 49.500 MHz
  1024x768@60Hz 4:3 HorFreq: 48400 Hz Clock: 65.000 MHz
  1024x768@70Hz 4:3 HorFreq: 56500 Hz Clock: 75.000 MHz
  1024x768@75Hz 4:3 HorFreq: 60000 Hz Clock: 78.750 MHz
  1280x1024@75Hz 5:4 HorFreq: 80000 Hz Clock: 135.000 MHz
Standard timings supported:
  1280x1024@60Hz 5:4 HorFreq: 64000 Hz Clock: 108.000 MHz
Detailed mode: Clock 108.000 MHz, 376 mm x 301 mm
               1280 1328 1440 1688 hborder 0
               1024 1025 1028 1066 vborder 0
               +hsync +vsync 
               VertFreq: 60 Hz, HorFreq: 63981 Hz
Monitor name: MD32119PR
Monitor ranges (GTF): 50-75Hz V, 31-83kHz H, max dotclock 140MHz
Serial number: --
Checksum: 0x99 (valid)
