
EDID (hex):
00ffffffffffff005262061201010101
00130103081009782a3331a555489825
10474aafce0081c08100010101010101
010101010101662150b051001b304070
3600a05a0000001e6621508250003030
28203500a05a0000001a000000fd0032
4b1e3d09000a202020202020000000fc
00544f53484942412d54560a0a0a00af

Extracted contents:
header:          00 ff ff ff ff ff ff 00
serial number:   52 62 06 12 01 01 01 01 00 13
version:         01 03
basic params:    08 10 09 78 2a
chroma info:     33 31 a5 55 48 98 25 10 47 4a
established:     af ce 00
standard:        81 c0 81 00 01 01 01 01 01 01 01 01 01 01 01 01
descriptor 1:    66 21 50 b0 51 00 1b 30 40 70 36 00 a0 5a 00 00 00 1e
descriptor 2:    66 21 50 82 50 00 30 30 28 20 35 00 a0 5a 00 00 00 1a
descriptor 3:    00 00 00 fd 00 32 4b 1e 3d 09 00 0a 20 20 20 20 20 20
descriptor 4:    00 00 00 fc 00 54 4f 53 48 49 42 41 2d 54 56 0a 0a 0a
extensions:      00
checksum:        af

EDID version: 1.3
Manufacturer: TSB Model 1206 Serial Number --
Made in year 2009
Analog display, Input voltage level: 0.7/0.3 V
Sync: Separate 
Maximum image size: 16 cm x 9 cm
Gamma: 2.20
DPMS levels: Off
RGB color display
First detailed timing is preferred timing
Display x,y Chromaticity:
  Red:   0.6445, 0.3349
  Green: 0.2812, 0.5966
  Blue:  0.1445, 0.0654
  White: 0.2773, 0.2900
Established timings supported:
  720x400@70Hz 9:5 HorFreq: 31469 Hz Clock: 28.320 MHz
  640x480@60Hz 4:3 HorFreq: 31469 Hz Clock: 25.175 MHz
  640x480@72Hz 4:3 HorFreq: 37900 Hz Clock: 31.500 MHz
  640x480@75Hz 4:3 HorFreq: 37500 Hz Clock: 31.500 MHz
  800x600@56Hz 4:3 HorFreq: 35200 Hz Clock: 36.000 MHz
  800x600@60Hz 4:3 HorFreq: 37900 Hz Clock: 40.000 MHz
  800x600@72Hz 4:3 HorFreq: 48100 Hz Clock: 50.000 MHz
  800x600@75Hz 4:3 HorFreq: 46900 Hz Clock: 49.500 MHz
  1024x768@60Hz 4:3 HorFreq: 48400 Hz Clock: 65.000 MHz
  1024x768@70Hz 4:3 HorFreq: 56500 Hz Clock: 75.000 MHz
  1024x768@75Hz 4:3 HorFreq: 60000 Hz Clock: 78.750 MHz
Standard timings supported:
  1280x720@60Hz 16:9
  1280x800@60Hz 16:10
Detailed mode: Clock 85.500 MHz, 160 mm x 90 mm
               1360 1424 1536 1792 hborder 0
                768  771  777  795 vborder 0
               +hsync +vsync 
               VertFreq: 60 Hz, HorFreq: 47712 Hz
Detailed mode: Clock 85.500 MHz, 160 mm x 90 mm
               1360 1400 1432 1490 hborder 0
                768  771  776  816 vborder 0
               +hsync -vsync 
               VertFreq: 70 Hz, HorFreq: 57382 Hz
Monitor ranges (GTF): 50-75Hz V, 30-61kHz H, max dotclock 90MHz
Monitor name: TOSHIBA-TV
Checksum: 0xaf (valid)
EDID block does NOT conform to EDID 1.3!
	Detailed block string not properly terminated
