edid-decode (hex):

00 ff ff ff ff ff ff 00 4c 23 19 32 03 00 00 00
03 1b 01 03 68 1e 17 78 2e b1 a5 a1 58 4f 95 26
16 50 54 21 08 00 81 c0 71 40 81 80 81 40 01 01
01 01 01 01 01 01 66 21 50 b0 51 00 1b 30 40 70
36 00 30 e4 10 00 00 1a 00 00 00 ff 00 30 30 30
30 30 30 30 31 30 30 30 30 0a 00 00 00 fd 00 3a
3e 1e 3e 08 00 0a 20 20 20 20 20 20 00 00 00 fc
00 4c 45 44 20 4d 4f 4e 49 54 4f 52 0a 20 00 75

00 ff ff ff ff ff ff 00 4c 23 19 32 03 00 00 00
03 1b 01 03 68 1e 17 78 2e b1 a5 a1 58 4f 95 26
16 50 54 21 08 00 81 c0 71 40 81 80 81 40 01 01
01 01 01 01 01 01 66 21 50 b0 51 00 1b 30 40 70
36 00 30 e4 10 00 00 1a 00 00 00 ff 00 30 30 30
30 30 30 30 31 30 30 30 30 0a 00 00 00 fd 00 3a
3e 1e 3e 08 00 0a 20 20 20 20 20 20 00 00 00 fc
00 4c 45 44 20 4d 4f 4e 49 54 4f 52 0a 20 00 75

----------------

Block 0, Base EDID:
  EDID Structure Version & Revision: 1.3
  Vendor & Product Identification:
    Manufacturer: SAC
    Model: 12825
    Serial Number: ...
    Made in: week 3 of 2017
  Basic Display Parameters & Features:
    Analog display
    Signal Level Standard: 0.700 : 0.000 : 0.700 V p-p
    Blank level equals black level
    Sync: Separate
    Maximum image size: 30 cm x 23 cm
    Gamma: 2.20
    DPMS levels: Off
    RGB color display
    Default (sRGB) color space is primary color space
    First detailed timing is the preferred timing
  Color Characteristics:
    Red  : 0.6308, 0.3466
    Green: 0.3085, 0.5830
    Blue : 0.1503, 0.0878
    White: 0.3134, 0.3291
  Established Timings I & II:
    DMT 0x04:   640x480    59.940476 Hz   4:3     31.469 kHz     25.175000 MHz
    DMT 0x09:   800x600    60.316541 Hz   4:3     37.879 kHz     40.000000 MHz
    DMT 0x10:  1024x768    60.003840 Hz   4:3     48.363 kHz     65.000000 MHz
  Standard Timings:
    DMT 0x55:  1280x720    60.000000 Hz  16:9     45.000 kHz     74.250000 MHz
    GTF     :  1152x864    60.000000 Hz   4:3     53.700 kHz     81.624000 MHz
    DMT 0x23:  1280x1024   60.019740 Hz   5:4     63.981 kHz    108.000000 MHz
    DMT 0x20:  1280x960    60.000000 Hz   4:3     60.000 kHz    108.000000 MHz
  Detailed Timing Descriptors:
    DTD 1:  1360x768    60.015162 Hz  85:48    47.712 kHz     85.500000 MHz (304 mm x 228 mm)
                 Hfront   64 Hsync 112 Hback  256 Hpol P
                 Vfront    3 Vsync   6 Vback   18 Vpol N
    Display Product Serial Number: ...
    Display Range Limits:
      Monitor ranges (GTF): 58-62 Hz V, 30-62 kHz H, max dotclock 80 MHz
    Display Product Name: 'LED MONITOR'
Checksum: 0x75

----------------

Block 1, Unknown EDID Extension Block 0x00:
  00 ff ff ff ff ff ff 00 4c 23 19 32 03 00 00 00 '........L#.2....'
  03 1b 01 03 68 1e 17 78 2e b1 a5 a1 58 4f 95 26 '....h..x....XO.&'
  16 50 54 21 08 00 81 c0 71 40 81 80 81 40 01 01 '.PT!....q@...@..'
  01 01 01 01 01 01 66 21 50 b0 51 00 1b 30 40 70 '......f!P.Q..0@p'
  36 00 30 e4 10 00 00 1a 00 00 00 ff 00 30 30 30 '6.0..........000'
  30 30 30 30 31 30 30 30 30 0a 00 00 00 fd 00 3a '000010000......:'
  3e 1e 3e 08 00 0a 20 20 20 20 20 20 00 00 00 fc '>.>...      ....'
  00 4c 45 44 20 4d 4f 4e 49 54 4f 52 0a 20 00 75 '.LED MONITOR. .u'
Checksum: 0x75

----------------

Warnings:

Block 0, Base EDID:
  Detailed Timing Descriptor #1: DTD is similar but not identical to DMT 0x27.

Failures:

Block 0, Base EDID:
  Basic Display Parameters & Features: sRGB is signaled, but the chromaticities do not match.
Block 1, Base EDID:
  Unknown Extension Block.
EDID:
  Base EDID: Some timings are out of range of the Monitor Ranges:
    Horizontal Freq: 31.468 - 63.981 kHz (Monitor: 30.000 - 62.000 kHz)
    Maximum Clock: 108.000 MHz (Monitor: 80.000 MHz)
  Base EDID: EDID specified 0 extension block(s), but found 1 extension block(s).

EDID conformity: FAIL
