
EDID (hex):
00ffffffffffff00410c0a1577220000
1e0b0103811e1778ea4ee0a1574c9923
195257bfee003140314f454f6140614f
01010101010164190040410026301888
360030e410000018000000ff00205459
20203030383832330a20000000fc0050
48494c495053202031353050000000fd
00384b1e3d08000a202020202020008a

Extracted contents:
header:          00 ff ff ff ff ff ff 00
serial number:   41 0c 0a 15 77 22 00 00 1e 0b
version:         01 03
basic params:    81 1e 17 78 ea
chroma info:     4e e0 a1 57 4c 99 23 19 52 57
established:     bf ee 00
standard:        31 40 31 4f 45 4f 61 40 61 4f 01 01 01 01 01 01
descriptor 1:    64 19 00 40 41 00 26 30 18 88 36 00 30 e4 10 00 00 18
descriptor 2:    00 00 00 ff 00 20 54 59 20 20 30 30 38 38 32 33 0a 20
descriptor 3:    00 00 00 fc 00 50 48 49 4c 49 50 53 20 20 31 35 30 50
descriptor 4:    00 00 00 fd 00 38 4b 1e 3d 08 00 0a 20 20 20 20 20 20
extensions:      00
checksum:        8a

EDID version: 1.3
Manufacturer: PHL Model 150a Serial Number --
Digital display
DFP 1.x compatible TMDS
Maximum image size: 30 cm x 23 cm
Gamma: 2.20
DPMS levels: Standby Suspend Off
RGB color display
First detailed timing is preferred timing
Display x,y Chromaticity:
  Red:   0.6298, 0.3398
  Green: 0.2998, 0.5996
  Blue:  0.1396, 0.0996
  White: 0.3203, 0.3398
Established timings supported:
  720x400@70Hz 9:5 HorFreq: 31469 Hz Clock: 28.320 MHz
  640x480@60Hz 4:3 HorFreq: 31469 Hz Clock: 25.175 MHz
  640x480@67Hz 4:3 HorFreq: 35000 Hz Clock: 30.240 MHz
  640x480@72Hz 4:3 HorFreq: 37900 Hz Clock: 31.500 MHz
  640x480@75Hz 4:3 HorFreq: 37500 Hz Clock: 31.500 MHz
  800x600@56Hz 4:3 HorFreq: 35200 Hz Clock: 36.000 MHz
  800x600@60Hz 4:3 HorFreq: 37900 Hz Clock: 40.000 MHz
  800x600@72Hz 4:3 HorFreq: 48100 Hz Clock: 50.000 MHz
  800x600@75Hz 4:3 HorFreq: 46900 Hz Clock: 49.500 MHz
  832x624@75Hz 4:3 HorFreq: 49726 Hz Clock: 57.284 MHz
  1024x768@60Hz 4:3 HorFreq: 48400 Hz Clock: 65.000 MHz
  1024x768@70Hz 4:3 HorFreq: 56500 Hz Clock: 75.000 MHz
  1024x768@75Hz 4:3 HorFreq: 60000 Hz Clock: 78.750 MHz
Standard timings supported:
  640x480@60Hz 4:3 HorFreq: 31469 Hz Clock: 25.175 MHz
  640x480@75Hz 4:3 HorFreq: 37500 Hz Clock: 31.500 MHz
  800x600@75Hz 4:3 HorFreq: 46900 Hz Clock: 49.500 MHz
  1024x768@60Hz 4:3 HorFreq: 48400 Hz Clock: 65.000 MHz
  1024x768@75Hz 4:3 HorFreq: 60000 Hz Clock: 78.750 MHz
Detailed mode: Clock 65.000 MHz, 304 mm x 228 mm
               1024 1048 1184 1344 hborder 0
                768  771  777  806 vborder 0
               -hsync -vsync 
               VertFreq: 60 Hz, HorFreq: 48363 Hz
Serial number:  --  008823
Monitor ranges (GTF): 56-75Hz V, 30-61kHz H, max dotclock 80MHz
Checksum: 0x8a (valid)
EDID block does NOT conform to EDID 1.3!
	Name descriptor not terminated with a newline
EDID block does not conform at all!
	Bad year of manufacture


