
EDID (hex):
00ffffffffffff001710740050d80100
0816010380351d782a6085a6564a9c25
1250542108006140454081c001010101
01010101010164190040410026301888
360030e410000000011d007251d01e20
6e28550010090000001e000000fc0048
444d4920746f205647410a20000000fd
00384c1f5312000a20202020202000f9

Extracted contents:
header:          00 ff ff ff ff ff ff 00
serial number:   17 10 74 00 50 d8 01 00 08 16
version:         01 03
basic params:    80 35 1d 78 2a
chroma info:     60 85 a6 56 4a 9c 25 12 50 54
established:     21 08 00
standard:        61 40 45 40 81 c0 01 01 01 01 01 01 01 01 01 01
descriptor 1:    64 19 00 40 41 00 26 30 18 88 36 00 30 e4 10 00 00 00
descriptor 2:    01 1d 00 72 51 d0 1e 20 6e 28 55 00 10 09 00 00 00 1e
descriptor 3:    00 00 00 fc 00 48 44 4d 49 20 74 6f 20 56 47 41 0a 20
descriptor 4:    00 00 00 fd 00 38 4c 1f 53 12 00 0a 20 20 20 20 20 20
extensions:      00
checksum:        f9

EDID version: 1.3
Manufacturer: EXP Model 74 Serial Number --
Made in week 8 of 2012
Digital display
Maximum image size: 53 cm x 29 cm
Gamma: 2.20
DPMS levels: Off
RGB color display
First detailed timing is preferred timing
Display x,y Chromaticity:
  Red:   0.6494, 0.3378
  Green: 0.2890, 0.6093
  Blue:  0.1464, 0.0703
  White: 0.3134, 0.3291
Established timings supported:
  640x480@60Hz 4:3 HorFreq: 31469 Hz Clock: 25.175 MHz
  800x600@60Hz 4:3 HorFreq: 37900 Hz Clock: 40.000 MHz
  1024x768@60Hz 4:3 HorFreq: 48400 Hz Clock: 65.000 MHz
Standard timings supported:
  1024x768@60Hz 4:3 HorFreq: 48400 Hz Clock: 65.000 MHz
  800x600@60Hz 4:3 HorFreq: 37900 Hz Clock: 40.000 MHz
  1280x720@60Hz 16:9
Detailed mode: Clock 65.000 MHz, 304 mm x 228 mm
               1024 1048 1184 1344 hborder 0
                768  771  777  806 vborder 0
               -hsync -vsync analog composite 
               VertFreq: 60 Hz, HorFreq: 48363 Hz
Detailed mode: Clock 74.250 MHz, 16 mm x 9 mm
               1280 1390 1430 1650 hborder 0
                720  725  730  750 vborder 0
               +hsync +vsync 
               VertFreq: 60 Hz, HorFreq: 45000 Hz
Monitor name: HDMI to VGA
Monitor ranges (GTF): 56-76Hz V, 31-83kHz H, max dotclock 180MHz
Checksum: 0xf9 (valid)
