
EDID (hex):
00ffffffffffff0006af3c2400000000
00130104901f117802c8a59e57549226
99505400000001010101010101010101
010101010101121b5646500023302616
360035ad1000001a121b564650002330
2616360035ad1000001a000000fe0048
33443338804231343058573200000000
00004101960001000001010a2020008b

Extracted contents:
header:          00 ff ff ff ff ff ff 00
serial number:   06 af 3c 24 00 00 00 00 00 13
version:         01 04
basic params:    90 1f 11 78 02
chroma info:     c8 a5 9e 57 54 92 26 99 50 54
established:     00 00 00
standard:        01 01 01 01 01 01 01 01 01 01 01 01 01 01 01 01
descriptor 1:    12 1b 56 46 50 00 23 30 26 16 36 00 35 ad 10 00 00 1a
descriptor 2:    12 1b 56 46 50 00 23 30 26 16 36 00 35 ad 10 00 00 1a
descriptor 3:    00 00 00 fe 00 48 33 44 33 38 80 42 31 34 30 58 57 32
descriptor 4:    00 00 00 00 00 00 41 01 96 00 01 00 00 01 01 0a 20 20
extensions:      00
checksum:        8b

EDID version: 1.4
Manufacturer: AUO Model 243c Serial Number --
Made in year 2009
Digital display
6 bits per primary color channel
Digital interface is not defined
Maximum image size: 31 cm x 17 cm
Gamma: 2.20
Supported color formats: RGB 4:4:4
First detailed timing includes the native pixel format and preferred refresh rate
Display x,y Chromaticity:
  Red:   0.6201, 0.3398
  Green: 0.3300, 0.5703
  Blue:  0.1503, 0.5996
  White: 0.3134, 0.3291
Established timings supported:
Standard timings supported:
Detailed mode: Clock 69.300 MHz, 309 mm x 173 mm
               1366 1404 1426 1436 hborder 0
                768  771  777  803 vborder 0
               +hsync -vsync 
               VertFreq: 60 Hz, HorFreq: 48259 Hz
Detailed mode: Clock 69.300 MHz, 309 mm x 173 mm
               1366 1404 1426 1436 hborder 0
                768  771  777  803 vborder 0
               +hsync -vsync 
               VertFreq: 60 Hz, HorFreq: 48259 Hz
ASCII string: H3D38
Manufacturer-specified data, tag 0
Checksum: 0x8b (valid)
EDID block does NOT conform to EDID 1.4!
	Missing name descriptor
	Missing monitor ranges
	Detailed block string not properly terminated
