edid-decode (hex):

00 ff ff ff ff ff ff 00 0d 04 00 32 01 00 00 00
24 1e 01 04 a5 46 27 78 3b 17 b0 a8 54 4f a3 22
11 50 54 af cb 00 61 40 81 c0 81 80 71 40 a9 c0
d1 c0 01 01 01 01 56 5e 00 a0 a0 a0 32 50 30 40
35 00 bc 86 21 00 00 1a 00 00 00 ff 00 0a 20 20
20 20 20 20 20 20 20 20 20 20 00 00 00 fd 00 30
4b d4 d4 1f 01 0a 20 20 20 20 20 20 00 00 00 fc
00 50 4d 4f 53 33 32 31 2d 49 51 43 0a 20 01 4d

02 03 17 f1 4a 90 05 04 03 02 01 1f 13 12 11 23
09 07 07 83 01 00 00 04 76 00 a0 a0 a0 29 50 20
30 35 00 bc 86 21 00 00 1a 2a 44 80 a0 70 38 27
40 30 20 35 00 bc 86 21 00 00 7b 66 21 50 b0 51
00 1b 30 40 70 36 00 bc 86 21 00 00 7b 84 21 56
aa 51 00 1e 30 46 8f 33 00 bc 86 21 00 00 7b d3
2c 00 a4 51 38 2d 40 20 a0 35 00 bc 86 21 00 00
7b 00 00 00 00 00 00 00 00 00 00 00 00 00 00 a5

00 ff ff ff ff ff ff 00 0d 04 00 32 01 00 00 00
24 1e 01 04 a5 46 27 78 3b 17 b0 a8 54 4f a3 22
11 50 54 af cb 00 61 40 81 c0 81 80 71 40 a9 c0
d1 c0 01 01 01 01 56 5e 00 a0 a0 a0 32 50 30 40
35 00 bc 86 21 00 00 1a 00 00 00 ff 00 0a 20 20
20 20 20 20 20 20 20 20 20 20 00 00 00 fd 00 30
4b d4 d4 1f 01 0a 20 20 20 20 20 20 00 00 00 fc
00 50 4d 4f 53 33 32 31 2d 49 51 43 0a 20 01 4d

02 03 17 f1 4a 90 05 04 03 02 01 1f 13 12 11 23
09 07 07 83 01 00 00 04 76 00 a0 a0 a0 29 50 20
30 35 00 bc 86 21 00 00 1a 2a 44 80 a0 70 38 27
40 30 20 35 00 bc 86 21 00 00 7b 66 21 50 b0 51
00 1b 30 40 70 36 00 bc 86 21 00 00 7b 84 21 56
aa 51 00 1e 30 46 8f 33 00 bc 86 21 00 00 7b d3
2c 00 a4 51 38 2d 40 20 a0 35 00 bc 86 21 00 00
7b 00 00 00 00 00 00 00 00 00 00 00 00 00 00 a5

----------------

Block 0, Base EDID:
  EDID Structure Version & Revision: 1.4
  Vendor & Product Identification:
    Manufacturer: CHD
    Model: 12800
    Serial Number: ...
    Made in: week 36 of 2020
  Basic Display Parameters & Features:
    Digital display
    Bits per primary color channel: 8
    DisplayPort interface
    Maximum image size: 70 cm x 39 cm
    Gamma: 2.20
    DPMS levels: Off
    Supported color formats: RGB 4:4:4, YCrCb 4:4:4, YCrCb 4:2:2
    First detailed timing includes the native pixel format and preferred refresh rate
    Display is continuous frequency
  Color Characteristics:
    Red  : 0.6562, 0.3291
    Green: 0.3095, 0.6396
    Blue : 0.1347, 0.0693
    White: 0.3125, 0.3281
  Established Timings I & II:
    IBM     :   720x400    70.081663 Hz   9:5     31.467 kHz     28.320000 MHz
    DMT 0x04:   640x480    59.940476 Hz   4:3     31.469 kHz     25.175000 MHz
    DMT 0x05:   640x480    72.808802 Hz   4:3     37.861 kHz     31.500000 MHz
    DMT 0x06:   640x480    75.000000 Hz   4:3     37.500 kHz     31.500000 MHz
    DMT 0x08:   800x600    56.250000 Hz   4:3     35.156 kHz     36.000000 MHz
    DMT 0x09:   800x600    60.316541 Hz   4:3     37.879 kHz     40.000000 MHz
    DMT 0x0a:   800x600    72.187572 Hz   4:3     48.077 kHz     50.000000 MHz
    DMT 0x0b:   800x600    75.000000 Hz   4:3     46.875 kHz     49.500000 MHz
    DMT 0x10:  1024x768    60.003840 Hz   4:3     48.363 kHz     65.000000 MHz
    DMT 0x12:  1024x768    75.028582 Hz   4:3     60.023 kHz     78.750000 MHz
    DMT 0x24:  1280x1024   75.024675 Hz   5:4     79.976 kHz    135.000000 MHz
  Standard Timings:
    DMT 0x10:  1024x768    60.003840 Hz   4:3     48.363 kHz     65.000000 MHz
    DMT 0x55:  1280x720    60.000000 Hz  16:9     45.000 kHz     74.250000 MHz
    DMT 0x23:  1280x1024   60.019740 Hz   5:4     63.981 kHz    108.000000 MHz
    GTF     :  1152x864    60.000000 Hz   4:3     53.700 kHz     81.624000 MHz
    DMT 0x53:  1600x900    60.000000 Hz  16:9     60.000 kHz    108.000000 MHz (RB)
    DMT 0x52:  1920x1080   60.000000 Hz  16:9     67.500 kHz    148.500000 MHz
  Detailed Timing Descriptors:
    DTD  1:  2560x1440   59.588433 Hz  16:9     88.787 kHz    241.500000 MHz (700 mm x 390 mm)
                  Hfront   48 Hsync  64 Hback   48 Hpol P
                  Vfront    3 Vsync   5 Vback   42 Vpol N
    Display Product Serial Number: ...
    Display Range Limits:
      Monitor ranges (Bare Limits): 48-75 Hz V, 212-212 kHz H, max dotclock 310 MHz
    Display Product Name: 'PMOS321-IQC'
  Extension blocks: 1
Checksum: 0x4d

----------------

Block 1, CTA-861 Extension Block:
  Revision: 3
  Underscans IT Video Formats by default
  Basic audio support
  Supports YCbCr 4:4:4
  Supports YCbCr 4:2:2
  Native detailed modes: 1
  Video Data Block:
    VIC  16:  1920x1080   60.000000 Hz  16:9     67.500 kHz    148.500000 MHz (native)
    VIC   5:  1920x1080i  60.000000 Hz  16:9     33.750 kHz     74.250000 MHz
    VIC   4:  1280x720    60.000000 Hz  16:9     45.000 kHz     74.250000 MHz
    VIC   3:   720x480    59.940060 Hz  16:9     31.469 kHz     27.000000 MHz
    VIC   2:   720x480    59.940060 Hz   4:3     31.469 kHz     27.000000 MHz
    VIC   1:   640x480    59.940476 Hz   4:3     31.469 kHz     25.175000 MHz
    VIC  31:  1920x1080   50.000000 Hz  16:9     56.250 kHz    148.500000 MHz
    VIC  19:  1280x720    50.000000 Hz  16:9     37.500 kHz     74.250000 MHz
    VIC  18:   720x576    50.000000 Hz  16:9     31.250 kHz     27.000000 MHz
    VIC  17:   720x576    50.000000 Hz   4:3     31.250 kHz     27.000000 MHz
  Audio Data Block:
    Linear PCM:
      Max channels: 2
      Supported sample rates (kHz): 48 44.1 32
      Supported sample sizes (bits): 24 20 16
  Speaker Allocation Data Block:
    FL/FR - Front Left/Right
  Detailed Timing Descriptors:
    DTD  2:  2560x1440   74.999007 Hz  16:9    111.074 kHz    302.120000 MHz (700 mm x 390 mm)
                  Hfront   32 Hsync  48 Hback   80 Hpol P
                  Vfront    3 Vsync   5 Vback   33 Vpol N
    DTD  3:  1920x1080   74.972503 Hz  16:9     83.894 kHz    174.500000 MHz (side by side interleaved, 700 mm x 390 mm)
                  Hfront   48 Hsync  32 Hback   80 Hpol P
                  Vfront    3 Vsync   5 Vback   31 Vpol N
    DTD  4:  1360x768    60.015162 Hz  85:48    47.712 kHz     85.500000 MHz (side by side interleaved, 700 mm x 390 mm)
                  Hfront   64 Hsync 112 Hback  256 Hpol P
                  Vfront    3 Vsync   6 Vback   18 Vpol N
    DTD  5:  1366x768    59.999329 Hz 683:384   47.879 kHz     85.800000 MHz (side by side interleaved, 700 mm x 390 mm)
                  Hfront   70 Hsync 143 Hback  213 Hpol P
                  Vfront    3 Vsync   3 Vback   24 Vpol N
    DTD  6:  1280x1080   60.000000 Hz  32:27    67.500 kHz    114.750000 MHz (side by side interleaved, 700 mm x 390 mm)
                  Hfront   32 Hsync 160 Hback  228 Hpol P
                  Vfront    3 Vsync   5 Vback   37 Vpol N
Checksum: 0xa5  Unused space in Extension Block: 14 bytes

----------------

Block 2, Unknown EDID Extension Block 0x00:
  00 ff ff ff ff ff ff 00 0d 04 00 32 01 00 00 00 '...........2....'
  24 1e 01 04 a5 46 27 78 3b 17 b0 a8 54 4f a3 22 '$....F'x;...TO."'
  11 50 54 af cb 00 61 40 81 c0 81 80 71 40 a9 c0 '.PT...a@....q@..'
  d1 c0 01 01 01 01 56 5e 00 a0 a0 a0 32 50 30 40 '......V^....2P0@'
  35 00 bc 86 21 00 00 1a 00 00 00 ff 00 0a 20 20 '5...!.........  '
  20 20 20 20 20 20 20 20 20 20 00 00 00 fd 00 30 '          .....0'
  4b d4 d4 1f 01 0a 20 20 20 20 20 20 00 00 00 fc 'K.....      ....'
  00 50 4d 4f 53 33 32 31 2d 49 51 43 0a 20 01 4d '.PMOS321-IQC. .M'
Checksum: 0x4d

----------------

Block 3, CTA-861 Extension Block:
  Revision: 3
  Underscans IT Video Formats by default
  Basic audio support
  Supports YCbCr 4:4:4
  Supports YCbCr 4:2:2
  Native detailed modes: 1
  Video Data Block:
    VIC  16:  1920x1080   60.000000 Hz  16:9     67.500 kHz    148.500000 MHz (native)
    VIC   5:  1920x1080i  60.000000 Hz  16:9     33.750 kHz     74.250000 MHz
    VIC   4:  1280x720    60.000000 Hz  16:9     45.000 kHz     74.250000 MHz
    VIC   3:   720x480    59.940060 Hz  16:9     31.469 kHz     27.000000 MHz
    VIC   2:   720x480    59.940060 Hz   4:3     31.469 kHz     27.000000 MHz
    VIC   1:   640x480    59.940476 Hz   4:3     31.469 kHz     25.175000 MHz
    VIC  31:  1920x1080   50.000000 Hz  16:9     56.250 kHz    148.500000 MHz
    VIC  19:  1280x720    50.000000 Hz  16:9     37.500 kHz     74.250000 MHz
    VIC  18:   720x576    50.000000 Hz  16:9     31.250 kHz     27.000000 MHz
    VIC  17:   720x576    50.000000 Hz   4:3     31.250 kHz     27.000000 MHz
  Audio Data Block:
    Linear PCM:
      Max channels: 2
      Supported sample rates (kHz): 48 44.1 32
      Supported sample sizes (bits): 24 20 16
  Speaker Allocation Data Block:
    FL/FR - Front Left/Right
  Detailed Timing Descriptors:
    DTD  7:  2560x1440   74.999007 Hz  16:9    111.074 kHz    302.120000 MHz (700 mm x 390 mm)
                  Hfront   32 Hsync  48 Hback   80 Hpol P
                  Vfront    3 Vsync   5 Vback   33 Vpol N
    DTD  8:  1920x1080   74.972503 Hz  16:9     83.894 kHz    174.500000 MHz (side by side interleaved, 700 mm x 390 mm)
                  Hfront   48 Hsync  32 Hback   80 Hpol P
                  Vfront    3 Vsync   5 Vback   31 Vpol N
    DTD  9:  1360x768    60.015162 Hz  85:48    47.712 kHz     85.500000 MHz (side by side interleaved, 700 mm x 390 mm)
                  Hfront   64 Hsync 112 Hback  256 Hpol P
                  Vfront    3 Vsync   6 Vback   18 Vpol N
    DTD 10:  1366x768    59.999329 Hz 683:384   47.879 kHz     85.800000 MHz (side by side interleaved, 700 mm x 390 mm)
                  Hfront   70 Hsync 143 Hback  213 Hpol P
                  Vfront    3 Vsync   3 Vback   24 Vpol N
    DTD 11:  1280x1080   60.000000 Hz  32:27    67.500 kHz    114.750000 MHz (side by side interleaved, 700 mm x 390 mm)
                  Hfront   32 Hsync 160 Hback  228 Hpol P
                  Vfront    3 Vsync   5 Vback   37 Vpol N
Checksum: 0xa5  Unused space in Extension Block: 14 bytes

----------------

Warnings:

Block 1, CTA-861 Extension Block:
  Detailed Timing Descriptor #4: DTD is similar but not identical to DMT 0x27.
  Display Product Serial Number is set, so the Serial Number in the Base EDID should be 0.
  Add a Colorimetry Data Block with the sRGB colorimetry bit set to avoid interop issues.
Block 3, CTA-861 Extension Block:
  Detailed Timing Descriptor #9: DTD is similar but not identical to DMT 0x27.
  Display Product Serial Number is set, so the Serial Number in the Base EDID should be 0.
  Add a Colorimetry Data Block with the sRGB colorimetry bit set to avoid interop issues.
EDID:
  Base EDID: Some timings are out of range of the Monitor Ranges:
    Horizontal Freq: 31.250 - 111.073 kHz (Monitor: 212.000 - 212.000 kHz)

Failures:

Block 0, Base EDID:
  Display Product Serial Number: ...
Block 1, CTA-861 Extension Block:
  Missing VCDB, needed for Set Selectable RGB Quantization to avoid interop issues.
Block 2, Base EDID:
  Unknown Extension Block.
Block 3, CTA-861 Extension Block:
  Video Data Block: Duplicate VIC 16.
  Video Data Block: Duplicate VIC 5.
  Video Data Block: Duplicate VIC 4.
  Video Data Block: Duplicate VIC 3.
  Video Data Block: Duplicate VIC 2.
  Video Data Block: Duplicate VIC 1.
  Video Data Block: Duplicate VIC 31.
  Video Data Block: Duplicate VIC 19.
  Video Data Block: Duplicate VIC 18.
  Video Data Block: Duplicate VIC 17.
  Speaker Allocation Data Block: Only one instance of this Data Block is allowed.
  Missing VCDB, needed for Set Selectable RGB Quantization to avoid interop issues.
EDID:
  Base EDID: EDID specified 1 extension block(s), but found 3 extension block(s).
  CTA-861: Native progressive timings are a mix of several resolutions.

EDID conformity: FAIL
