edid-decode (hex):

00 ff ff ff ff ff ff 00 09 e5 a8 06 00 00 00 00
01 19 01 04 95 1f 11 78 02 9d 40 9a 5d 55 8d 28
1e 50 54 00 00 00 01 01 01 01 01 01 01 01 01 01
01 01 01 01 01 01 1e 37 80 b4 70 38 28 40 30 20
35 00 35 ad 10 00 00 1a f0 2d 80 b4 70 38 28 40
30 20 35 00 35 ad 10 00 00 1a 00 00 00 00 00 00
00 00 00 00 00 00 00 00 00 00 00 00 00 00 00 02
00 0b 44 f8 0a 3c 6e 14 12 21 70 0a 20 20 00 42

----------------

Block 0, Base EDID:
  EDID Structure Version & Revision: 1.4
  Vendor & Product Identification:
    Manufacturer: BOE
    Model: 1704
    Made in: week 1 of 2015
  Basic Display Parameters & Features:
    Digital display
    Bits per primary color channel: 6
    DisplayPort interface
    Maximum image size: 31 cm x 17 cm
    Gamma: 2.20
    Supported color formats: RGB 4:4:4
    First detailed timing includes the native pixel format and preferred refresh rate
  Color Characteristics:
    Red  : 0.6035, 0.3642
    Green: 0.3349, 0.5517
    Blue : 0.1572, 0.1171
    White: 0.3125, 0.3281
  Established Timings I & II: none
  Standard Timings: none
  Detailed Timing Descriptors:
    DTD 1:  1920x1080   59.991497 Hz  16:9     67.190 kHz    141.100000 MHz (309 mm x 173 mm)
                 Hfront   48 Hsync  32 Hback  100 Hpol P
                 Vfront    3 Vsync   5 Vback   32 Vpol N
    DTD 2:  1920x1080   50.000000 Hz  16:9     56.000 kHz    117.600000 MHz (309 mm x 173 mm)
                 Hfront   48 Hsync  32 Hback  100 Hpol P
                 Vfront    3 Vsync   5 Vback   32 Vpol N
    Empty Descriptor
    Manufacturer-Specified Display Descriptor (0x02): 00 02 00 0b 44 f8 0a 3c 6e 14 12 21 70 0a 20 20 '....D..<n..!p.  '
Checksum: 0x42

----------------

Failures:

Block 0, Base EDID:
  Empty Descriptor: Use Dummy Descriptor instead of all zeroes.
  Missing Display Product Name.

EDID conformity: FAIL
