edid-decode (hex):

00 ff ff ff ff ff ff 00 62 d3 92 03 08 00 00 00
2d 1b 01 03 68 3c 22 78 2a a3 b0 ac 50 46 a4 22
14 50 54 bf ef 00 a9 c0 01 01 01 01 01 01 01 01
01 01 01 01 01 01 d6 2d 40 00 62 84 22 30 58 2c
45 00 55 50 21 00 00 1e d6 2d 40 00 62 84 22 30
58 2c 45 00 55 50 21 00 00 1e 00 00 00 fc 00 58
4c 32 30 32 30 41 49 0a 20 20 20 20 00 00 00 ff
00 58 4c 32 30 32 30 41 49 0a 20 20 20 20 00 05

----------------

Block 0, Base EDID:
  EDID Structure Version & Revision: 1.3
  Vendor & Product Identification:
    Manufacturer: XVS
    Model: 914
    Serial Number: ...
    Made in: week 45 of 2017
  Basic Display Parameters & Features:
    Analog display
    Input voltage level: 0.7/0.7 V
    Blank level equals black level
    Sync: Separate
    Maximum image size: 60 cm x 34 cm
    Gamma: 2.20
    DPMS levels: Off
    RGB color display
    First detailed timing is the preferred timing
  Color Characteristics:
    Red  : 0.6738, 0.3144
    Green: 0.2734, 0.6435
    Blue : 0.1347, 0.0810
    White: 0.3125, 0.3281
  Established Timings I & II:
    IBM     :   720x400    70.081663 Hz   9:5     31.467 kHz     28.320000 MHz
    DMT 0x04:   640x480    59.940476 Hz   4:3     31.469 kHz     25.175000 MHz
    Apple   :   640x480    66.666667 Hz   4:3     35.000 kHz     30.240000 MHz
    DMT 0x05:   640x480    72.808802 Hz   4:3     37.861 kHz     31.500000 MHz
    DMT 0x06:   640x480    75.000000 Hz   4:3     37.500 kHz     31.500000 MHz
    DMT 0x08:   800x600    56.250000 Hz   4:3     35.156 kHz     36.000000 MHz
    DMT 0x09:   800x600    60.316541 Hz   4:3     37.879 kHz     40.000000 MHz
    DMT 0x0a:   800x600    72.187572 Hz   4:3     48.077 kHz     50.000000 MHz
    DMT 0x0b:   800x600    75.000000 Hz   4:3     46.875 kHz     49.500000 MHz
    Apple   :   832x624    74.551266 Hz   4:3     49.726 kHz     57.284000 MHz
    DMT 0x10:  1024x768    60.003840 Hz   4:3     48.363 kHz     65.000000 MHz
    DMT 0x11:  1024x768    70.069359 Hz   4:3     56.476 kHz     75.000000 MHz
    DMT 0x12:  1024x768    75.028582 Hz   4:3     60.023 kHz     78.750000 MHz
    DMT 0x24:  1280x1024   75.024675 Hz   5:4     79.976 kHz    135.000000 MHz
  Standard Timings:
    DMT 0x53:  1600x900    60.000000 Hz  16:9     60.000 kHz    108.000000 MHz (RB)
  Detailed Timing Descriptors:
    DTD 1:  1600x900    59.484702 Hz  16:9     55.559 kHz    117.340000 MHz (597 mm x 336 mm)
                 Hfront   88 Hsync  44 Hback  380 Hpol P
                 Vfront    4 Vsync   5 Vback   25 Vpol P
    DTD 2:  1600x900    59.484702 Hz  16:9     55.559 kHz    117.340000 MHz (597 mm x 336 mm)
                 Hfront   88 Hsync  44 Hback  380 Hpol P
                 Vfront    4 Vsync   5 Vback   25 Vpol P
    Display Product Name: 'XL2020AI'
    Display Product Serial Number: ...
Checksum: 0x05

----------------

Failures:

Block 0, Base EDID:
  Missing Display Range Limits Descriptor.

EDID conformity: FAIL
