
EDID (hex):
00ffffffffffff000dae351400000000
0d1f0104a51e137803ee95a3544c9926
0f505400000001010101010101010101
010101010101423c80a070b024402e1e
a6002dbc1000001a302880a070b02440
2e1ea6002dbc1000001a000000000000
00000000000000000000000000000002
000c26ff143cc80b081ac800000000d0

Extracted contents:
header:          00 ff ff ff ff ff ff 00
serial number:   0d ae 35 14 00 00 00 00 0d 1f
version:         01 04
basic params:    a5 1e 13 78 03
chroma info:     ee 95 a3 54 4c 99 26 0f 50 54
established:     00 00 00
standard:        01 01 01 01 01 01 01 01 01 01 01 01 01 01 01 01
descriptor 1:    42 3c 80 a0 70 b0 24 40 2e 1e a6 00 2d bc 10 00 00 1a
descriptor 2:    30 28 80 a0 70 b0 24 40 2e 1e a6 00 2d bc 10 00 00 1a
descriptor 3:    00 00 00 00 00 00 00 00 00 00 00 00 00 00 00 00 00 00
descriptor 4:    00 00 00 02 00 0c 26 ff 14 3c c8 0b 08 1a c8 00 00 00
extensions:      00
checksum:        d0

EDID version: 1.4
Manufacturer: CMN Model 1435 Serial Number --
Made in week 13 of 2021
Digital display
8 bits per primary color channel
DisplayPort interface
Maximum image size: 30 cm x 19 cm
Gamma: 2.20
Supported color formats: RGB 4:4:4
First detailed timing includes the native pixel format and preferred refresh rate
Display is continuous frequency
Display x,y Chromaticity:
  Red:   0.6396, 0.3300
  Green: 0.2998, 0.5996
  Blue:  0.1503, 0.0595
  White: 0.3134, 0.3291
Established timings supported:
Standard timings supported:
Detailed mode: Clock 154.260 MHz, 301 mm x 188 mm
               1920 1966 1996 2080 hborder 0
               1200 1210 1216 1236 vborder 0
               +hsync -vsync 
               VertFreq: 60 Hz, HorFreq: 74163 Hz
Detailed mode: Clock 102.880 MHz, 301 mm x 188 mm
               1920 1966 1996 2080 hborder 0
               1200 1210 1216 1236 vborder 0
               +hsync -vsync 
               VertFreq: 40 Hz, HorFreq: 49461 Hz
Manufacturer-specified data, tag 0
Manufacturer-specified data, tag 2
Checksum: 0xd0 (valid)
EDID block does NOT conform to EDID 1.4!
	Missing name descriptor
	Missing monitor ranges
