
EDID (hex):
00ffffffffffff003870280000000000
2b1b0104a5221378024bd5a45652a725
0d505400000001010101010101010101
010101010101293680a070381f403020
350058c210000018542b80a070381f40
3020350058c210000018000000100000
000000000000000000000000000000fc
004c4d3135364c46394c30310a200001

Extracted contents:
header:          00 ff ff ff ff ff ff 00
serial number:   38 70 28 00 00 00 00 00 2b 1b
version:         01 04
basic params:    a5 22 13 78 02
chroma info:     4b d5 a4 56 52 a7 25 0d 50 54
established:     00 00 00
standard:        01 01 01 01 01 01 01 01 01 01 01 01 01 01 01 01
descriptor 1:    29 36 80 a0 70 38 1f 40 30 20 35 00 58 c2 10 00 00 18
descriptor 2:    54 2b 80 a0 70 38 1f 40 30 20 35 00 58 c2 10 00 00 18
descriptor 3:    00 00 00 10 00 00 00 00 00 00 00 00 00 00 00 00 00 00
descriptor 4:    00 00 00 fc 00 4c 4d 31 35 36 4c 46 39 4c 30 31 0a 20
extensions:      00
checksum:        01

EDID version: 1.4
Manufacturer: NCP Model 28 Serial Number --
Made in week 43 of 2017
Digital display
8 bits per primary color channel
DisplayPort interface
Maximum image size: 34 cm x 19 cm
Gamma: 2.20
Supported color formats: RGB 4:4:4
First detailed timing includes the native pixel format and preferred refresh rate
Display x,y Chromaticity:
  Red:   0.6416, 0.3359
  Green: 0.3222, 0.6552
  Blue:  0.1474, 0.0517
  White: 0.3134, 0.3291
Established timings supported:
Standard timings supported:
Detailed mode: Clock 138.650 MHz, 344 mm x 194 mm
               1920 1968 2000 2080 hborder 0
               1080 1083 1088 1111 vborder 0
               -hsync -vsync 
               VertFreq: 59 Hz, HorFreq: 66658 Hz
Detailed mode: Clock 110.920 MHz, 344 mm x 194 mm
               1920 1968 2000 2080 hborder 0
               1080 1083 1088 1111 vborder 0
               -hsync -vsync 
               VertFreq: 47 Hz, HorFreq: 53326 Hz
Dummy block
Monitor name: LM156LF9L01
Checksum: 0x1 (valid)
	Missing monitor ranges
