
EDID (hex):
00ffffffffffff0009d101705d000000
091001030e0000780a7f03a050548d23
1347522def00315945596159714f8180
01010101010164190040410026301888
3600000000000018000000fe0042454e
510a2020202020202020000000fc004d
503732300a20202020202020000000fd
0030551f520b000a2020202020200076

Extracted contents:
header:          00 ff ff ff ff ff ff 00
serial number:   09 d1 01 70 5d 00 00 00 09 10
version:         01 03
basic params:    0e 00 00 78 0a
chroma info:     7f 03 a0 50 54 8d 23 13 47 52
established:     2d ef 00
standard:        31 59 45 59 61 59 71 4f 81 80 01 01 01 01 01 01
descriptor 1:    64 19 00 40 41 00 26 30 18 88 36 00 00 00 00 00 00 18
descriptor 2:    00 00 00 fe 00 42 45 4e 51 0a 20 20 20 20 20 20 20 20
descriptor 3:    00 00 00 fc 00 4d 50 37 32 30 0a 20 20 20 20 20 20 20
descriptor 4:    00 00 00 fd 00 30 55 1f 52 0b 00 0a 20 20 20 20 20 20
extensions:      00
checksum:        76

EDID version: 1.3
Manufacturer: BNQ Model 7001 Serial Number --
Made in week 9 of 2006
Analog display, Input voltage level: 0.7/0.3 V
Sync: Separate Composite SyncOnGreen 
Image size is variable
Gamma: 2.20
RGB color display
First detailed timing is preferred timing
Display x,y Chromaticity:
  Red:   0.6259, 0.3154
  Green: 0.3310, 0.5537
  Blue:  0.1367, 0.0742
  White: 0.2773, 0.3232
Established timings supported:
  640x480@60Hz 4:3 HorFreq: 31469 Hz Clock: 25.175 MHz
  640x480@72Hz 4:3 HorFreq: 37900 Hz Clock: 31.500 MHz
  640x480@75Hz 4:3 HorFreq: 37500 Hz Clock: 31.500 MHz
  800x600@60Hz 4:3 HorFreq: 37900 Hz Clock: 40.000 MHz
  800x600@72Hz 4:3 HorFreq: 48100 Hz Clock: 50.000 MHz
  800x600@75Hz 4:3 HorFreq: 46900 Hz Clock: 49.500 MHz
  832x624@75Hz 4:3 HorFreq: 49726 Hz Clock: 57.284 MHz
  1024x768@60Hz 4:3 HorFreq: 48400 Hz Clock: 65.000 MHz
  1024x768@70Hz 4:3 HorFreq: 56500 Hz Clock: 75.000 MHz
  1024x768@75Hz 4:3 HorFreq: 60000 Hz Clock: 78.750 MHz
  1280x1024@75Hz 5:4 HorFreq: 80000 Hz Clock: 135.000 MHz
Standard timings supported:
  640x480@85Hz 4:3 HorFreq: 43300 Hz Clock: 36.000 MHz
  800x600@85Hz 4:3 HorFreq: 53700 Hz Clock: 56.250 MHz
  1024x768@85Hz 4:3 HorFreq: 68700 Hz Clock: 94.500 MHz
  1152x864@75Hz 4:3 HorFreq: 67500 Hz Clock: 108.000 MHz
  1280x1024@60Hz 5:4 HorFreq: 64000 Hz Clock: 108.000 MHz
Detailed mode: Clock 65.000 MHz, 0 mm x 0 mm
               1024 1048 1184 1344 hborder 0
                768  771  777  806 vborder 0
               -hsync -vsync 
               VertFreq: 60 Hz, HorFreq: 48363 Hz
ASCII string: BENQ
Monitor name: MP720
Monitor ranges (GTF): 48-85Hz V, 31-82kHz H, max dotclock 110MHz
Checksum: 0x76 (valid)
One or more of the timings is out of range of the Monitor Ranges:
  Vertical Freq: 60 - 85 Hz
  Horizontal Freq: 31469 - 80000 Hz
  Maximum Clock: 135.000 MHz
