
EDID (hex):
00ffffffffffff0010ac00504a433137
040e01030e281e962b0cc9a057479b27
12484ca44380a959a94f615971594559
c28f31590101863d00c05100304040a0
13006c231100001e000000fd0030aa1e
821d000a202020202020000000fc0044
454c4c2050313133300a2020000000ff
00364432353134314a3731434a0a0051

Extracted contents:
header:          00 ff ff ff ff ff ff 00
serial number:   10 ac 00 50 4a 43 31 37 04 0e
version:         01 03
basic params:    0e 28 1e 96 2b
chroma info:     0c c9 a0 57 47 9b 27 12 48 4c
established:     a4 43 80
standard:        a9 59 a9 4f 61 59 71 59 45 59 c2 8f 31 59 01 01
descriptor 1:    86 3d 00 c0 51 00 30 40 40 a0 13 00 6c 23 11 00 00 1e
descriptor 2:    00 00 00 fd 00 30 aa 1e 82 1d 00 0a 20 20 20 20 20 20
descriptor 3:    00 00 00 fc 00 44 45 4c 4c 20 50 31 31 33 30 0a 20 20
descriptor 4:    00 00 00 ff 00 36 44 32 35 31 34 31 4a 37 31 43 4a 0a
extensions:      00
checksum:        51

EDID version: 1.3
Manufacturer: DEL Model 5000 Serial Number --
Analog display, Input voltage level: 0.7/0.3 V
Sync: Separate Composite SyncOnGreen 
Maximum image size: 40 cm x 30 cm
Gamma: 2.50
DPMS levels: Off
RGB color display
First detailed timing is preferred timing
Supports GTF timings within operating range
Display x,y Chromaticity:
  Red:   0.6250, 0.3398
  Green: 0.2802, 0.6054
  Blue:  0.1552, 0.0703
  White: 0.2832, 0.2978
Established timings supported:
  720x400@70Hz 9:5 HorFreq: 31469 Hz Clock: 28.320 MHz
  640x480@60Hz 4:3 HorFreq: 31469 Hz Clock: 25.175 MHz
  640x480@75Hz 4:3 HorFreq: 37500 Hz Clock: 31.500 MHz
  800x600@75Hz 4:3 HorFreq: 46900 Hz Clock: 49.500 MHz
  1024x768@75Hz 4:3 HorFreq: 60000 Hz Clock: 78.750 MHz
  1280x1024@75Hz 5:4 HorFreq: 80000 Hz Clock: 135.000 MHz
  1152x870@75Hz 192:145 HorFreq: 67500 Hz Clock: 108.000 MHz
Standard timings supported:
  1600x1200@85Hz 4:3 HorFreq: 106300 Hz Clock: 229.500 MHz
  1600x1200@75Hz 4:3 HorFreq: 93800 Hz Clock: 202.500 MHz
  1024x768@85Hz 4:3 HorFreq: 68700 Hz Clock: 94.500 MHz
  1152x864@85Hz 4:3
  800x600@85Hz 4:3 HorFreq: 53700 Hz Clock: 56.250 MHz
  1800x1440@75Hz 5:4
  640x480@85Hz 4:3 HorFreq: 43300 Hz Clock: 36.000 MHz
Detailed mode: Clock 157.500 MHz, 364 mm x 291 mm
               1280 1344 1504 1728 hborder 0
               1024 1025 1028 1072 vborder 0
               +hsync +vsync 
               VertFreq: 85 Hz, HorFreq: 91145 Hz
Monitor ranges (GTF): 48-170Hz V, 30-130kHz H, max dotclock 290MHz
Monitor name: DELL P1130
Serial number: --
Checksum: 0x51 (valid)
EDID block does not conform at all!
	Bad year of manufacture
