
EDID (hex):
00ffffffffffff004ca3503200000000
00100103802115780a87f594574f8c27
27505400000001010101010101010101
010101010101932e90a0601a1e403020
26004bcf100000190000000f00000000
00000000003cd2026400000000fe0046
443136310231353450320a20000000fe
00283f48547da3d3ff02010a20200058

Extracted contents:
header:          00 ff ff ff ff ff ff 00
serial number:   4c a3 50 32 00 00 00 00 00 10
version:         01 03
basic params:    80 21 15 78 0a
chroma info:     87 f5 94 57 4f 8c 27 27 50 54
established:     00 00 00
standard:        01 01 01 01 01 01 01 01 01 01 01 01 01 01 01 01
descriptor 1:    93 2e 90 a0 60 1a 1e 40 30 20 26 00 4b cf 10 00 00 19
descriptor 2:    00 00 00 0f 00 00 00 00 00 00 00 00 00 3c d2 02 64 00
descriptor 3:    00 00 00 fe 00 46 44 31 36 31 02 31 35 34 50 32 0a 20
descriptor 4:    00 00 00 fe 00 28 3f 48 54 7d a3 d3 ff 02 01 0a 20 20
extensions:      00
checksum:        58

EDID version: 1.3
Manufacturer: SEC Model 3250 Serial Number --
Made in year 2006
Digital display
Maximum image size: 33 cm x 21 cm
Gamma: 2.20
RGB color display
First detailed timing is preferred timing
Display x,y Chromaticity:
  Red:   0.5800, 0.3398
  Green: 0.3095, 0.5498
  Blue:  0.1552, 0.1552
  White: 0.3134, 0.3291
Established timings supported:
Standard timings supported:
Detailed mode: Clock 119.230 MHz, 331 mm x 207 mm
               1680 1728 1760 1840 hborder 0
               1050 1052 1058 1080 vborder 0
               -hsync -vsync 
               VertFreq: 59 Hz, HorFreq: 64798 Hz
Manufacturer-specified data, tag 15
ASCII string: FD161
ASCII string: (?HT}
Checksum: 0x58 (valid)
EDID block does NOT conform to EDID 1.3!
	Missing name descriptor
	Missing monitor ranges
	Detailed block string not properly terminated
