
EDID (hex):
00ffffffffffff0030e4120600000000
001c0104a522137802e0b5a3544e9b26
0c505400000001010101010101010101
010101010101243680a070381f403020
350058c21000001a502b80a070381f40
3020350058c21000001a000000fe0035
36505236803135365746430a00000000
000141319e001000000a010a20200098

Extracted contents:
header:          00 ff ff ff ff ff ff 00
serial number:   30 e4 12 06 00 00 00 00 00 1c
version:         01 04
basic params:    a5 22 13 78 02
chroma info:     e0 b5 a3 54 4e 9b 26 0c 50 54
established:     00 00 00
standard:        01 01 01 01 01 01 01 01 01 01 01 01 01 01 01 01
descriptor 1:    24 36 80 a0 70 38 1f 40 30 20 35 00 58 c2 10 00 00 1a
descriptor 2:    50 2b 80 a0 70 38 1f 40 30 20 35 00 58 c2 10 00 00 1a
descriptor 3:    00 00 00 fe 00 35 36 50 52 36 80 31 35 36 57 46 43 0a
descriptor 4:    00 00 00 00 00 01 41 31 9e 00 10 00 00 0a 01 0a 20 20
extensions:      00
checksum:        98

EDID version: 1.4
Manufacturer: LGD Model 612 Serial Number --
Made in year 2018
Digital display
8 bits per primary color channel
DisplayPort interface
Maximum image size: 34 cm x 19 cm
Gamma: 2.20
Supported color formats: RGB 4:4:4
First detailed timing includes the native pixel format and preferred refresh rate
Display x,y Chromaticity:
  Red:   0.6396, 0.3300
  Green: 0.3046, 0.6054
  Blue:  0.1503, 0.0498
  White: 0.3134, 0.3291
Established timings supported:
Standard timings supported:
Detailed mode: Clock 138.600 MHz, 344 mm x 194 mm
               1920 1968 2000 2080 hborder 0
               1080 1083 1088 1111 vborder 0
               +hsync -vsync 
               VertFreq: 59 Hz, HorFreq: 66634 Hz
Detailed mode: Clock 110.880 MHz, 344 mm x 194 mm
               1920 1968 2000 2080 hborder 0
               1080 1083 1088 1111 vborder 0
               +hsync -vsync 
               VertFreq: 47 Hz, HorFreq: 53307 Hz
ASCII string: 56PR6
Manufacturer-specified data, tag 0
Checksum: 0x98 (valid)
EDID block does NOT conform to EDID 1.4!
	Missing name descriptor
	Missing monitor ranges
	Detailed block string not properly terminated
