edid-decode (hex):

00 ff ff ff ff ff ff 00 0e 77 1c 13 00 00 00 00
00 22 01 04 a5 1d 12 78 03 2c c5 94 5c 59 95 29
1e 50 54 00 00 00 01 01 01 01 01 01 01 01 01 01
01 01 01 01 01 01 35 3c 80 a0 70 b0 23 40 30 20
36 00 1e b2 10 00 00 1a 2a 30 80 a0 70 b0 23 40
30 20 36 00 1e b2 10 00 00 1a 00 00 00 fe 00 54
4a 52 4b 43 80 43 53 4f 54 20 54 39 00 00 00 00
00 02 41 31 9e 00 00 00 00 0a 01 0a 20 20 00 b8

00 ff ff ff ff ff ff 00 0e 77 1c 13 00 00 00 00
00 22 01 04 a5 1d 12 78 03 2c c5 94 5c 59 95 29
1e 50 54 00 00 00 01 01 01 01 01 01 01 01 01 01
01 01 01 01 01 01 35 3c 80 a0 70 b0 23 40 30 20
36 00 1e b2 10 00 00 1a 2a 30 80 a0 70 b0 23 40
30 20 36 00 1e b2 10 00 00 1a 00 00 00 fe 00 54
4a 52 4b 43 80 43 53 4f 54 20 54 39 00 00 00 00
00 02 41 31 9e 00 00 00 00 0a 01 0a 20 20 00 b8

----------------

Block 0, Base EDID:
  EDID Structure Version & Revision: 1.4
  Vendor & Product Identification:
    Manufacturer: CSW
    Model: 4892
    Made in: 2024
  Basic Display Parameters & Features:
    Digital display
    Bits per primary color channel: 8
    DisplayPort interface
    Maximum image size: 29 cm x 18 cm
    Gamma: 2.20
    Supported color formats: RGB 4:4:4
    First detailed timing includes the native pixel format and preferred refresh rate
    Display is continuous frequency
  Color Characteristics:
    Red  : 0.5781, 0.3613
    Green: 0.3505, 0.5820
    Blue : 0.1630, 0.1171
    White: 0.3134, 0.3291
  Established Timings I & II: none
  Standard Timings: none
  Detailed Timing Descriptors:
    DTD 1:  1920x1200   60.000779 Hz  16:10    74.101 kHz    154.130000 MHz (286 mm x 178 mm)
                 Hfront   48 Hsync  32 Hback   80 Hpol P
                 Vfront    3 Vsync   6 Vback   26 Vpol N
    DTD 2:  1920x1200   47.999066 Hz  16:10    59.279 kHz    123.300000 MHz (286 mm x 178 mm)
                 Hfront   48 Hsync  32 Hback   80 Hpol P
                 Vfront    3 Vsync   6 Vback   26 Vpol N
    Alphanumeric Data String: 'TJRKC'
    Manufacturer-Specified Display Descriptor (0x00): 00 00 00 02 41 31 9e 00 00 00 00 0a 01 0a 20 20 '....A1........  '
Checksum: 0xb8

----------------

Block 1, Unknown EDID Extension Block 0x00:
  00 ff ff ff ff ff ff 00 0e 77 1c 13 00 00 00 00 '.........w......'
  00 22 01 04 a5 1d 12 78 03 2c c5 94 5c 59 95 29 '.".....x.,..\Y.)'
  1e 50 54 00 00 00 01 01 01 01 01 01 01 01 01 01 '.PT.............'
  01 01 01 01 01 01 35 3c 80 a0 70 b0 23 40 30 20 '......5<..p.#@0 '
  36 00 1e b2 10 00 00 1a 2a 30 80 a0 70 b0 23 40 '6.......*0..p.#@'
  30 20 36 00 1e b2 10 00 00 1a 00 00 00 fe 00 54 '0 6............T'
  4a 52 4b 43 80 43 53 4f 54 20 54 39 00 00 00 00 'JRKC.CSOT T9....'
  00 02 41 31 9e 00 00 00 00 0a 01 0a 20 20 00 b8 '..A1........  ..'
Checksum: 0xb8

----------------

Warnings:

Block 0, Base EDID:
  Missing Display Product Name.

Failures:

Block 0, Base EDID:
  Alphanumeric Data String: Non-printable character.
  Missing Display Range Limits Descriptor.
Block 1, Base EDID:
  Unknown Extension Block.
EDID:
  Base EDID: EDID specified 0 extension block(s), but found 1 extension block(s).

EDID conformity: FAIL
