edid-decode (hex):

00 ff ff ff ff ff ff 00 26 cf e6 04 00 00 00 00
00 1a 01 02 a5 1c 10 78 0a 12 30 91 56 53 92 28
1e 50 54 00 00 00 01 01 01 01 01 01 01 01 01 01
01 01 01 01 01 01 4f 36 80 a0 70 38 22 40 32 3c
ae 00 14 9c 10 00 00 19 00 00 00 00 00 00 00 00
00 00 00 00 00 00 00 00 00 00 00 00 00 fe 00 49
6e 66 6f 56 69 73 69 6f 6e 0a 20 20 00 00 00 fe
00 4d 31 32 35 4e 57 46 34 20 52 31 20 0a 00 f0

00 ff ff ff ff ff ff 00 26 cf e6 04 00 00 00 00
00 1a 01 02 a5 1c 10 78 0a 12 30 91 56 53 92 28
1e 50 54 00 00 00 01 01 01 01 01 01 01 01 01 01
01 01 01 01 01 01 4f 36 80 a0 70 38 22 40 32 3c
ae 00 14 9c 10 00 00 19 00 00 00 00 00 00 00 00
00 00 00 00 00 00 00 00 00 00 00 00 00 fe 00 49
6e 66 6f 56 69 73 69 6f 6e 0a 20 20 00 00 00 fe
00 4d 31 32 35 4e 57 46 34 20 52 31 20 0a 00 f0

----------------

Block 0, Base EDID:
  EDID Structure Version & Revision: 1.2
  Vendor & Product Identification:
    Manufacturer: IVO
    Model: 1254
    Made in: 2016
  Basic Display Parameters & Features:
    Digital display
    DFP 1.x compatible TMDS
    Maximum image size: 28 cm x 16 cm
    Gamma: 2.20
    RGB color display
    First detailed timing is the preferred timing
  Color Characteristics:
    Red  : 0.5664, 0.3369
    Green: 0.3242, 0.5722
    Blue : 0.1562, 0.1201
    White: 0.3125, 0.3281
  Established Timings I & II: none
  Standard Timings: none
  Detailed Timing Descriptors:
    DTD 1:  1920x1080   60.001208 Hz  16:9     66.841 kHz    139.030000 MHz (276 mm x 156 mm)
                 Hfront   50 Hsync  60 Hback   50 Hpol N
                 Vfront   10 Vsync  14 Vback   10 Vpol N
    Empty Descriptor
    Alphanumeric Data String: 'InfoVision'
    Alphanumeric Data String: 'M125NWF4 R1 '
Checksum: 0xf0

----------------

Block 1, Unknown EDID Extension Block 0x00:
  00 ff ff ff ff ff ff 00 26 cf e6 04 00 00 00 00 '........&.......'
  00 1a 01 02 a5 1c 10 78 0a 12 30 91 56 53 92 28 '.......x..0.VS.('
  1e 50 54 00 00 00 01 01 01 01 01 01 01 01 01 01 '.PT.............'
  01 01 01 01 01 01 4f 36 80 a0 70 38 22 40 32 3c '......O6..p8"@2<'
  ae 00 14 9c 10 00 00 19 00 00 00 00 00 00 00 00 '................'
  00 00 00 00 00 00 00 00 00 00 00 00 00 fe 00 49 '...............I'
  6e 66 6f 56 69 73 69 6f 6e 0a 20 20 00 00 00 fe 'nfoVision.  ....'
  00 4d 31 32 35 4e 57 46 34 20 52 31 20 0a 00 f0 '.M125NWF4 R1 ...'
Checksum: 0xf0

----------------

Warnings:

Block 0, Base EDID:
  EDID Structure Version & Revision: EDID 1.2 is deprecated, do not use.

Failures:

Block 0, Base EDID:
  Basic Display Parameters & Features: Digital Video Interface Standard set to reserved value 0x24.
  Empty Descriptor: Use Dummy Descriptor instead of all zeroes.
  Alphanumeric Data String: One or more trailing spaces.
Block 1, Base EDID:
  Unknown Extension Block.
EDID:
  Base EDID: EDID specified 0 extension block(s), but found 1 extension block(s).

EDID conformity: FAIL
