edid-decode (hex):

00 ff ff ff ff ff ff 00 26 cf e6 04 00 00 00 00
18 1b 01 04 a5 1c 10 78 02 3f 00 96 5a 4f 8d 27
15 50 54 00 00 00 01 01 01 01 01 01 01 01 01 01
01 01 01 01 01 01 4f 36 80 a0 70 38 22 40 32 3c
ae 00 14 9c 10 00 00 19 00 00 00 00 00 00 00 00
00 00 00 00 00 00 00 00 00 00 00 00 00 fe 00 49
6e 66 6f 56 69 73 69 6f 6e 0a 20 20 00 00 00 fe
00 4d 31 32 35 4e 57 46 34 20 52 30 20 0a 00 eb

----------------

Block 0, Base EDID:
  EDID Structure Version & Revision: 1.4
  Vendor & Product Identification:
    Manufacturer: IVO
    Model: 1254
    Made in: week 24 of 2017
  Basic Display Parameters & Features:
    Digital display
    Bits per primary color channel: 8
    DisplayPort interface
    Maximum image size: 28 cm x 16 cm
    Gamma: 2.20
    Supported color formats: RGB 4:4:4
    First detailed timing includes the native pixel format and preferred refresh rate
  Color Characteristics:
    Red  : 0.5859, 0.3544
    Green: 0.3115, 0.5537
    Blue : 0.1523, 0.0820
    White: 0.3125, 0.3281
  Established Timings I & II: none
  Standard Timings: none
  Detailed Timing Descriptors:
    DTD 1:  1920x1080   60.001 Hz  16:9    66.841 kHz 139.030 MHz (276 mm x 156 mm)
                 Hfront   50 Hsync  60 Hback  50 Hpol N
                 Vfront   10 Vsync  14 Vback  10 Vpol N
    Empty Descriptor
    Alphanumeric Data String: 'InfoVision'
    Alphanumeric Data String: 'M125NWF4 R0 '
Checksum: 0xeb
