
EDID (hex):
00ffffffffffff000472a60946544014
2c1f0103804627782e0085a257549b21
0f5054bfef80714f81808140810081c0
9500b3000101443a801871383240582c
4500ba882100001e000000fd0830f01e
103c000a202020202020000000fc0045
443332305120580a20202020000000ff
0032313434303534343633573031011a
020337f2480103049011139f3f230907
058301000067030c001000382d67d85d
c4017880036d1a0000020130f0e60073
580000e30f200221e780187138264258
2c000bba882100001e08e88018713892
44582c000bba882100001e08e8801871
382d40582c4500ba882100001e000000
000000000000000000000000000000be

Extracted contents:
header:          00 ff ff ff ff ff ff 00
serial number:   04 72 a6 09 46 54 40 14 2c 1f
version:         01 03
basic params:    80 46 27 78 2e
chroma info:     00 85 a2 57 54 9b 21 0f 50 54
established:     bf ef 80
standard:        71 4f 81 80 81 40 81 00 81 c0 95 00 b3 00 01 01
descriptor 1:    44 3a 80 18 71 38 32 40 58 2c 45 00 ba 88 21 00 00 1e
descriptor 2:    00 00 00 fd 08 30 f0 1e 10 3c 00 0a 20 20 20 20 20 20
descriptor 3:    00 00 00 fc 00 45 44 33 32 30 51 20 58 0a 20 20 20 20
descriptor 4:    00 00 00 ff 00 32 31 34 34 30 35 34 34 36 33 57 30 31
extensions:      01
checksum:        1a

EDID version: 1.3
Manufacturer: ACR Model 9a6 Serial Number --
Made in week 44 of 2021
Digital display
Maximum image size: 70 cm x 39 cm
Gamma: 2.20
DPMS levels: Off
RGB color display
Default (sRGB) color space is primary color space
First detailed timing is preferred timing
Display x,y Chromaticity:
  Red:   0.6328, 0.3398
  Green: 0.3281, 0.6054
  Blue:  0.1308, 0.0585
  White: 0.3134, 0.3291
Established timings supported:
  720x400@70Hz 9:5 HorFreq: 31469 Hz Clock: 28.320 MHz
  640x480@60Hz 4:3 HorFreq: 31469 Hz Clock: 25.175 MHz
  640x480@67Hz 4:3 HorFreq: 35000 Hz Clock: 30.240 MHz
  640x480@72Hz 4:3 HorFreq: 37900 Hz Clock: 31.500 MHz
  640x480@75Hz 4:3 HorFreq: 37500 Hz Clock: 31.500 MHz
  800x600@56Hz 4:3 HorFreq: 35200 Hz Clock: 36.000 MHz
  800x600@60Hz 4:3 HorFreq: 37900 Hz Clock: 40.000 MHz
  800x600@72Hz 4:3 HorFreq: 48100 Hz Clock: 50.000 MHz
  800x600@75Hz 4:3 HorFreq: 46900 Hz Clock: 49.500 MHz
  832x624@75Hz 4:3 HorFreq: 49726 Hz Clock: 57.284 MHz
  1024x768@60Hz 4:3 HorFreq: 48400 Hz Clock: 65.000 MHz
  1024x768@70Hz 4:3 HorFreq: 56500 Hz Clock: 75.000 MHz
  1024x768@75Hz 4:3 HorFreq: 60000 Hz Clock: 78.750 MHz
  1280x1024@75Hz 5:4 HorFreq: 80000 Hz Clock: 135.000 MHz
  1152x870@75Hz 192:145 HorFreq: 67500 Hz Clock: 108.000 MHz
Standard timings supported:
  1152x864@75Hz 4:3 HorFreq: 67500 Hz Clock: 108.000 MHz
  1280x1024@60Hz 5:4 HorFreq: 64000 Hz Clock: 108.000 MHz
  1280x960@60Hz 4:3 HorFreq: 60000 Hz Clock: 108.000 MHz
  1280x800@60Hz 16:10
  1280x720@60Hz 16:9
  1440x900@60Hz 16:10 HorFreq: 55500 Hz Clock: 88.750 MHz
  1680x1050@60Hz 16:10 HorFreq: 64700 Hz Clock: 119.000 MHz
Detailed mode: Clock 149.160 MHz, 698 mm x 392 mm
               1920 2008 2052 2200 hborder 0
               1080 1084 1089 1130 vborder 0
               +hsync +vsync 
               VertFreq: 60 Hz, HorFreq: 67800 Hz
Monitor ranges (GTF): 48-240Hz V, 30-16kHz H, max dotclock 600MHz
Monitor name: ED320Q X
Serial number: --
Has 1 extension blocks
Checksum: 0x1a (valid)

CTA extension block
Extension version: 3
51 bytes of CTA data
  Video data block
    VIC   1 640x480@60Hz 4:3  HorFreq: 31469 Hz Clock: 25.175 MHz
    VIC   3 720x480@60Hz 16:9  HorFreq: 31469 Hz Clock: 27.000 MHz
    VIC   4 1280x720@60Hz 16:9  HorFreq: 45000 Hz Clock: 74.250 MHz
    VIC  16 1920x1080@60Hz 16:9 (native) HorFreq: 67500 Hz Clock: 148.500 MHz
    VIC  17 720x576@50Hz 4:3  HorFreq: 31250 Hz Clock: 27.000 MHz
    VIC  19 1280x720@50Hz 16:9  HorFreq: 37500 Hz Clock: 74.250 MHz
    VIC  31 1920x1080@50Hz 16:9 (native) HorFreq: 56250 Hz Clock: 148.500 MHz
    VIC  63 1920x1080@120Hz 16:9  HorFreq: 135000 Hz Clock: 297.000 MHz
  Audio data block
    Linear PCM, max channels 2
      Supported sample rates (kHz): 48 44.1 32
      Supported sample sizes (bits): 24 16
  Speaker allocation data block
    Speaker map:
      FL/FR - Front Left/Right
  Vendor-specific data block, OUI 000c03 (HDMI)
    Source physical address 1.0.0.0
    DC_36bit
    DC_30bit
    DC_Y444
    Maximum TMDS clock: 225MHz
  Vendor-specific data block, OUI c45dd8 (HDMI Forum)
    Version: 1
    Maximum TMDS Character Rate: 600MHz
    SCDC Present
    Supports 12-bits/component Deep Color 4:2:0 Pixel Encoding
    Supports 10-bits/component Deep Color 4:2:0 Pixel Encoding
  Vendor-specific data block, OUI 00001a
  Extended tag: YCbCr 4:2:0 capability map data block
    VSD Index 5
    VSD Index 9
Underscans PC formats by default
Basic audio support
Supports YCbCr 4:4:4
Supports YCbCr 4:2:2
2 native detailed modes
Detailed mode: Clock 591.690 MHz, 698 mm x 392 mm
               1920 2008 2052 2200 hborder 0
               1080 1112 1160 1630 vborder 0
               +hsync +vsync 
               VertFreq: 165 Hz, HorFreq: 268950 Hz
Detailed mode: Clock 594.000 MHz, 698 mm x 392 mm
               1920 2008 2052 2200 hborder 0
               1080 1112 1160 2250 vborder 0
               +hsync +vsync 
               VertFreq: 120 Hz, HorFreq: 270000 Hz
Detailed mode: Clock 594.000 MHz, 698 mm x 392 mm
               1920 2008 2052 2200 hborder 0
               1080 1084 1089 1125 vborder 0
               +hsync +vsync 
               VertFreq: 240 Hz, HorFreq: 270000 Hz
Checksum: 0xbe (valid)

EDID block does NOT conform to EDID 1.3!
	sRGB is signaled, but the chromaticities do not match
EDID block does not conform at all!
	Both the serial number and the serial string are set
	Detailed blocks filled with garbage
	Range descriptor contains garbage
