
EDID (hex):
00ffffffffffff0009e5470700000000
111f0104a5221378021bbba658559d26
0e4f5500000001010101010101010101
0101010101019c3b803671383c403020
360059c21000001afd2d800e71382840
3020360058c21000001a000000fe0042
4f452043510a202020202020000000fe
004e5631353646484d2d4e36310a002c

Extracted contents:
header:          00 ff ff ff ff ff ff 00
serial number:   09 e5 47 07 00 00 00 00 11 1f
version:         01 04
basic params:    a5 22 13 78 02
chroma info:     1b bb a6 58 55 9d 26 0e 4f 55
established:     00 00 00
standard:        01 01 01 01 01 01 01 01 01 01 01 01 01 01 01 01
descriptor 1:    9c 3b 80 36 71 38 3c 40 30 20 36 00 59 c2 10 00 00 1a
descriptor 2:    fd 2d 80 0e 71 38 28 40 30 20 36 00 58 c2 10 00 00 1a
descriptor 3:    00 00 00 fe 00 42 4f 45 20 43 51 0a 20 20 20 20 20 20
descriptor 4:    00 00 00 fe 00 4e 56 31 35 36 46 48 4d 2d 4e 36 31 0a
extensions:      00
checksum:        2c

EDID version: 1.4
Manufacturer: BOE Model 747 Serial Number --
Made in week 17 of 2021
Digital display
8 bits per primary color channel
DisplayPort interface
Maximum image size: 34 cm x 19 cm
Gamma: 2.20
Supported color formats: RGB 4:4:4
First detailed timing includes the native pixel format and preferred refresh rate
Display x,y Chromaticity:
  Red:   0.6484, 0.3447
  Green: 0.3339, 0.6162
  Blue:  0.1503, 0.0576
  White: 0.3105, 0.3349
Established timings supported:
Standard timings supported:
Detailed mode: Clock 152.600 MHz, 345 mm x 194 mm
               1920 1968 2000 2230 hborder 0
               1080 1083 1089 1140 vborder 0
               +hsync -vsync 
               VertFreq: 60 Hz, HorFreq: 68430 Hz
Detailed mode: Clock 117.730 MHz, 344 mm x 194 mm
               1920 1968 2000 2190 hborder 0
               1080 1083 1089 1120 vborder 0
               +hsync -vsync 
               VertFreq: 47 Hz, HorFreq: 53757 Hz
ASCII string: BOE CQ
ASCII string: NV156FHM-N61
Checksum: 0x2c (valid)
EDID block does NOT conform to EDID 1.4!
	Missing name descriptor
	Missing monitor ranges
