
EDID (hex):
00ffffffffffff003669b43c00000000
181f0104b5461e783b1c95a75549a226
0f5054bfef00d1c0d1fcb300b33c9500
953c818081bc9ee80078a0381f400820
1804b2232100001e000000fd001ec8eb
eb3c010a202020202020000000fc004d
5349204d4147333031435232023a8018
71382d40582c4500b223210000000180
020329714e0102031112130f1d1e0e90
1f043f2309070783010000e200c0e305
e301e60607015a5a1cfea900a0a0381f
40302e3a00b2232100001adc9100bca0
38334030203500b2232100001ad34600
bca038124030203a00b2232100001e00
0000ff00434234483130313630303136
30000000000000000000000000000012

Extracted contents:
header:          00 ff ff ff ff ff ff 00
serial number:   36 69 b4 3c 00 00 00 00 18 1f
version:         01 04
basic params:    b5 46 1e 78 3b
chroma info:     1c 95 a7 55 49 a2 26 0f 50 54
established:     bf ef 00
standard:        d1 c0 d1 fc b3 00 b3 3c 95 00 95 3c 81 80 81 bc
descriptor 1:    9e e8 00 78 a0 38 1f 40 08 20 18 04 b2 23 21 00 00 1e
descriptor 2:    00 00 00 fd 00 1e c8 eb eb 3c 01 0a 20 20 20 20 20 20
descriptor 3:    00 00 00 fc 00 4d 53 49 20 4d 41 47 33 30 31 43 52 32
descriptor 4:    02 3a 80 18 71 38 2d 40 58 2c 45 00 b2 23 21 00 00 00
extensions:      01
checksum:        80

EDID version: 1.4
Manufacturer: MSI Model 3cb4 Serial Number --
Made in week 24 of 2021
Digital display
10 bits per primary color channel
DisplayPort interface
Maximum image size: 70 cm x 30 cm
Gamma: 2.20
DPMS levels: Off
Supported color formats: RGB 4:4:4, YCrCb 4:4:4, YCrCb 4:2:2
First detailed timing includes the native pixel format and preferred refresh rate
Display is continuous frequency
Display x,y Chromaticity:
  Red:   0.6523, 0.3330
  Green: 0.2880, 0.6328
  Blue:  0.1503, 0.0595
  White: 0.3134, 0.3291
Established timings supported:
  720x400@70Hz 9:5 HorFreq: 31469 Hz Clock: 28.320 MHz
  640x480@60Hz 4:3 HorFreq: 31469 Hz Clock: 25.175 MHz
  640x480@67Hz 4:3 HorFreq: 35000 Hz Clock: 30.240 MHz
  640x480@72Hz 4:3 HorFreq: 37900 Hz Clock: 31.500 MHz
  640x480@75Hz 4:3 HorFreq: 37500 Hz Clock: 31.500 MHz
  800x600@56Hz 4:3 HorFreq: 35200 Hz Clock: 36.000 MHz
  800x600@60Hz 4:3 HorFreq: 37900 Hz Clock: 40.000 MHz
  800x600@72Hz 4:3 HorFreq: 48100 Hz Clock: 50.000 MHz
  800x600@75Hz 4:3 HorFreq: 46900 Hz Clock: 49.500 MHz
  832x624@75Hz 4:3 HorFreq: 49726 Hz Clock: 57.284 MHz
  1024x768@60Hz 4:3 HorFreq: 48400 Hz Clock: 65.000 MHz
  1024x768@70Hz 4:3 HorFreq: 56500 Hz Clock: 75.000 MHz
  1024x768@75Hz 4:3 HorFreq: 60000 Hz Clock: 78.750 MHz
  1280x1024@75Hz 5:4 HorFreq: 80000 Hz Clock: 135.000 MHz
Standard timings supported:
  1920x1080@60Hz 16:9
  1920x1080@120Hz 16:9
  1680x1050@60Hz 16:10 HorFreq: 64700 Hz Clock: 119.000 MHz
  1680x1050@120Hz 16:10
  1440x900@60Hz 16:10 HorFreq: 55500 Hz Clock: 88.750 MHz
  1440x900@120Hz 16:10
  1280x1024@60Hz 5:4 HorFreq: 64000 Hz Clock: 108.000 MHz
  1280x1024@120Hz 5:4
Detailed mode: Clock 595.500 MHz, 690 mm x 291 mm
               2560 2568 2600 2680 hborder 0
               1080 1097 1105 1111 vborder 0
               +hsync +vsync 
               VertFreq: 200 Hz, HorFreq: 222201 Hz
Monitor ranges (bare limits): 30-200Hz V, 235-235kHz H, max dotclock 600MHz
Detailed mode: Clock 148.500 MHz, 690 mm x 291 mm
               1920 2008 2052 2200 hborder 0
               1080 1084 1089 1125 vborder 0
               -hsync -vsync analog composite 
               VertFreq: 60 Hz, HorFreq: 67500 Hz
Has 1 extension blocks
Checksum: 0x80 (valid)

CTA extension block
Extension version: 3
37 bytes of CTA data
  Video data block
    VIC   1 640x480@60Hz 4:3  HorFreq: 31469 Hz Clock: 25.175 MHz
    VIC   2 720x480@60Hz 4:3  HorFreq: 31469 Hz Clock: 27.000 MHz
    VIC   3 720x480@60Hz 16:9  HorFreq: 31469 Hz Clock: 27.000 MHz
    VIC  17 720x576@50Hz 4:3  HorFreq: 31250 Hz Clock: 27.000 MHz
    VIC  18 720x576@50Hz 16:9  HorFreq: 31250 Hz Clock: 27.000 MHz
    VIC  19 1280x720@50Hz 16:9  HorFreq: 37500 Hz Clock: 74.250 MHz
    VIC  15 1440x480@60Hz 16:9  HorFreq: 31469 Hz Clock: 54.000 MHz
    VIC  29 1440x576@50Hz 4:3  HorFreq: 31250 Hz Clock: 54.000 MHz
    VIC  30 1440x576@50Hz 16:9  HorFreq: 31250 Hz Clock: 54.000 MHz
    VIC  14 1440x480@60Hz 4:3  HorFreq: 31469 Hz Clock: 54.000 MHz
    VIC  16 1920x1080@60Hz 16:9 (native) HorFreq: 67500 Hz Clock: 148.500 MHz
    VIC  31 1920x1080@50Hz 16:9  HorFreq: 56250 Hz Clock: 148.500 MHz
    VIC   4 1280x720@60Hz 16:9  HorFreq: 45000 Hz Clock: 74.250 MHz
    VIC  63 1920x1080@120Hz 16:9  HorFreq: 135000 Hz Clock: 297.000 MHz
  Audio data block
    Linear PCM, max channels 2
      Supported sample rates (kHz): 48 44.1 32
      Supported sample sizes (bits): 24 20 16
  Speaker allocation data block
    Speaker map:
      FL/FR - Front Left/Right
  Extended tag: Video capability data block
    YCbCr quantization: Selectable (via AVI YQ) (1)
    RGB quantization: Selectable (via AVI Q) (1)
    PT scan behaviour: No Data (0)
    IT scan behaviour: IT video formats not supported (0)
    CE scan behaviour: CE video formats not supported (0)
  Extended tag: Colorimetry data block
    xvYCC601
    xvYCC709
    BT2020cYCC
    BT2020YCC
    BT2020RGB
  Extended tag: HDR static metadata data block
    Electro optical transfer functions:
      Traditional gamma - SDR luminance range
      Traditional gamma - HDR luminance range
      SMPTE ST2084
    Supported static metadata descriptors:
      Static metadata type 1
    Desired content max luminance: 90 (351.250 cd/m^2)
    Desired content max frame-average luminance: 90 (351.250 cd/m^2)
    Desired content min luminance: 28 (0.042 cd/m^2)
Basic audio support
Supports YCbCr 4:4:4
Supports YCbCr 4:2:2
1 native detailed modes
Detailed mode: Clock 435.180 MHz, 690 mm x 291 mm
               2560 2608 2654 2720 hborder 0
               1080 1083 1093 1111 vborder 0
               +hsync -vsync 
               VertFreq: 144 Hz, HorFreq: 159992 Hz
Detailed mode: Clock 373.400 MHz, 690 mm x 291 mm
               2560 2608 2640 2748 hborder 0
               1080 1083 1088 1131 vborder 0
               +hsync -vsync 
               VertFreq: 120 Hz, HorFreq: 135880 Hz
Detailed mode: Clock 181.310 MHz, 690 mm x 291 mm
               2560 2608 2640 2748 hborder 0
               1080 1083 1093 1098 vborder 0
               +hsync +vsync 
               VertFreq: 60 Hz, HorFreq: 65978 Hz
Checksum: 0x12 (valid)

EDID block does NOT conform to EDID 1.4!
	Name descriptor not terminated with a newline
Warning: One or more of the timings is out of range of the Monitor Ranges:
  Vertical Freq: 50 - 200 Hz
  Horizontal Freq: 31250 - 222201 Hz
  Maximum Clock: 595.500 MHz
EDID block does not conform at all!
	Invalid detailed timing descriptor ordering
