
EDID (hex):
00ffffffffffff003669b43c00000000
161f010380461e782a1ad5ae5048a625
125054bfef00818081bc9500b300d1fc
953cb33cd1c05fd600a0a03829403020
3500b2232100001e000000fd001eb442
f53c000a202020202020000000fc004d
5349204d4147333031435232000000ff
004342344830393136303032333001fa
02033d714c9004020304051112131f2f
3f230907078301000067030c00200038
7867d85dc401788800681a0000010130
b4e6e606050159591de305e301d34600
bca038124030203500b2232100001adc
9100bca038334030203500b223210000
1afea900a0a0381f4030203500b22321
00001a000000000000000000000000ac

Extracted contents:
header:          00 ff ff ff ff ff ff 00
serial number:   36 69 b4 3c 00 00 00 00 16 1f
version:         01 03
basic params:    80 46 1e 78 2a
chroma info:     1a d5 ae 50 48 a6 25 12 50 54
established:     bf ef 00
standard:        81 80 81 bc 95 00 b3 00 d1 fc 95 3c b3 3c d1 c0
descriptor 1:    5f d6 00 a0 a0 38 29 40 30 20 35 00 b2 23 21 00 00 1e
descriptor 2:    00 00 00 fd 00 1e b4 42 f5 3c 00 0a 20 20 20 20 20 20
descriptor 3:    00 00 00 fc 00 4d 53 49 20 4d 41 47 33 30 31 43 52 32
descriptor 4:    00 00 00 ff 00 43 42 34 48 30 39 31 36 30 30 32 33 30
extensions:      01
checksum:        fa

EDID version: 1.3
Manufacturer: MSI Model 3cb4 Serial Number --
Made in week 22 of 2021
Digital display
Maximum image size: 70 cm x 30 cm
Gamma: 2.20
DPMS levels: Off
RGB color display
First detailed timing is preferred timing
Display x,y Chromaticity:
  Red:   0.6796, 0.3134
  Green: 0.2832, 0.6503
  Blue:  0.1474, 0.0712
  White: 0.3134, 0.3291
Established timings supported:
  720x400@70Hz 9:5 HorFreq: 31469 Hz Clock: 28.320 MHz
  640x480@60Hz 4:3 HorFreq: 31469 Hz Clock: 25.175 MHz
  640x480@67Hz 4:3 HorFreq: 35000 Hz Clock: 30.240 MHz
  640x480@72Hz 4:3 HorFreq: 37900 Hz Clock: 31.500 MHz
  640x480@75Hz 4:3 HorFreq: 37500 Hz Clock: 31.500 MHz
  800x600@56Hz 4:3 HorFreq: 35200 Hz Clock: 36.000 MHz
  800x600@60Hz 4:3 HorFreq: 37900 Hz Clock: 40.000 MHz
  800x600@72Hz 4:3 HorFreq: 48100 Hz Clock: 50.000 MHz
  800x600@75Hz 4:3 HorFreq: 46900 Hz Clock: 49.500 MHz
  832x624@75Hz 4:3 HorFreq: 49726 Hz Clock: 57.284 MHz
  1024x768@60Hz 4:3 HorFreq: 48400 Hz Clock: 65.000 MHz
  1024x768@70Hz 4:3 HorFreq: 56500 Hz Clock: 75.000 MHz
  1024x768@75Hz 4:3 HorFreq: 60000 Hz Clock: 78.750 MHz
  1280x1024@75Hz 5:4 HorFreq: 80000 Hz Clock: 135.000 MHz
Standard timings supported:
  1280x1024@60Hz 5:4 HorFreq: 64000 Hz Clock: 108.000 MHz
  1280x1024@120Hz 5:4
  1440x900@60Hz 16:10 HorFreq: 55500 Hz Clock: 88.750 MHz
  1680x1050@60Hz 16:10 HorFreq: 64700 Hz Clock: 119.000 MHz
  1920x1080@120Hz 16:9
  1440x900@120Hz 16:10
  1680x1050@120Hz 16:10
  1920x1080@60Hz 16:9
Detailed mode: Clock 548.790 MHz, 690 mm x 291 mm
               2560 2608 2640 2720 hborder 0
               1080 1083 1088 1121 vborder 0
               +hsync +vsync 
               VertFreq: 179 Hz, HorFreq: 201761 Hz
Monitor ranges (GTF): 30-180Hz V, 66-245kHz H, max dotclock 600MHz
Serial number: --
Has 1 extension blocks
Checksum: 0xfa (valid)

CTA extension block
Extension version: 3
57 bytes of CTA data
  Video data block
    VIC  16 1920x1080@60Hz 16:9 (native) HorFreq: 67500 Hz Clock: 148.500 MHz
    VIC   4 1280x720@60Hz 16:9  HorFreq: 45000 Hz Clock: 74.250 MHz
    VIC   2 720x480@60Hz 4:3  HorFreq: 31469 Hz Clock: 27.000 MHz
    VIC   3 720x480@60Hz 16:9  HorFreq: 31469 Hz Clock: 27.000 MHz
    VIC   4 1280x720@60Hz 16:9  HorFreq: 45000 Hz Clock: 74.250 MHz
    VIC   5 1920x1080i@60Hz 16:9  HorFreq: 33750 Hz Clock: 74.250 MHz
    VIC  17 720x576@50Hz 4:3  HorFreq: 31250 Hz Clock: 27.000 MHz
    VIC  18 720x576@50Hz 16:9  HorFreq: 31250 Hz Clock: 27.000 MHz
    VIC  19 1280x720@50Hz 16:9  HorFreq: 37500 Hz Clock: 74.250 MHz
    VIC  31 1920x1080@50Hz 16:9  HorFreq: 56250 Hz Clock: 148.500 MHz
    VIC  47 1280x720@120Hz 16:9  HorFreq: 90000 Hz Clock: 148.500 MHz
    VIC  63 1920x1080@120Hz 16:9  HorFreq: 135000 Hz Clock: 297.000 MHz
  Audio data block
    Linear PCM, max channels 2
      Supported sample rates (kHz): 48 44.1 32
      Supported sample sizes (bits): 24 20 16
  Speaker allocation data block
    Speaker map:
      FL/FR - Front Left/Right
  Vendor-specific data block, OUI 000c03 (HDMI)
    Source physical address 2.0.0.0
    DC_36bit
    DC_30bit
    DC_Y444
    Maximum TMDS clock: 600MHz
  Vendor-specific data block, OUI c45dd8 (HDMI Forum)
    Version: 1
    Maximum TMDS Character Rate: 600MHz
    SCDC Present
    Supports scrambling for <= 340 Mcsc
  Vendor-specific data block, OUI 00001a
  Extended tag: HDR static metadata data block
    Electro optical transfer functions:
      Traditional gamma - SDR luminance range
      SMPTE ST2084
    Supported static metadata descriptors:
      Static metadata type 1
    Desired content max luminance: 89 (343.724 cd/m^2)
    Desired content max frame-average luminance: 89 (343.724 cd/m^2)
    Desired content min luminance: 29 (0.044 cd/m^2)
  Extended tag: Colorimetry data block
    xvYCC601
    xvYCC709
    BT2020cYCC
    BT2020YCC
    BT2020RGB
Basic audio support
Supports YCbCr 4:4:4
Supports YCbCr 4:2:2
1 native detailed modes
Detailed mode: Clock 181.310 MHz, 690 mm x 291 mm
               2560 2608 2640 2748 hborder 0
               1080 1083 1088 1098 vborder 0
               +hsync -vsync 
               VertFreq: 60 Hz, HorFreq: 65978 Hz
Detailed mode: Clock 373.400 MHz, 690 mm x 291 mm
               2560 2608 2640 2748 hborder 0
               1080 1083 1088 1131 vborder 0
               +hsync -vsync 
               VertFreq: 120 Hz, HorFreq: 135880 Hz
Detailed mode: Clock 435.180 MHz, 690 mm x 291 mm
               2560 2608 2640 2720 hborder 0
               1080 1083 1088 1111 vborder 0
               +hsync -vsync 
               VertFreq: 144 Hz, HorFreq: 159992 Hz
Checksum: 0xac (valid)

EDID block does NOT conform to EDID 1.3!
	HDMI VSDB Max TMDS rate is > 340
	Name descriptor not terminated with a newline
One or more of the timings is out of range of the Monitor Ranges:
  Vertical Freq: 50 - 179 Hz
  Horizontal Freq: 31250 - 201761 Hz
  Maximum Clock: 548.790 MHz
