edid-decode (hex):

00 ff ff ff ff ff ff 00 38 70 17 00 00 00 00 00
00 1a 01 04 a5 1d 11 78 06 7b 50 a2 56 51 9c 27
0c 4e 53 00 00 00 01 01 01 01 01 01 01 01 01 01
01 01 01 01 01 01 33 36 80 a0 70 38 1f 40 30 20
35 00 26 a5 10 00 00 18 00 00 00 10 00 00 00 00
00 00 00 00 00 00 00 00 00 00 00 00 00 10 00 00
00 00 00 00 00 00 00 00 00 00 00 00 00 00 00 fc
00 4c 43 31 33 33 4c 46 34 4c 30 32 0a 20 00 5b

----------------

Block 0, Base EDID:
  EDID Structure Version & Revision: 1.4
  Vendor & Product Identification:
    Manufacturer: NCP
    Model: 23
    Made in: 2016
  Basic Display Parameters & Features:
    Digital display
    Bits per primary color channel: 8
    DisplayPort interface
    Maximum image size: 29 cm x 17 cm
    Gamma: 2.20
    Supported color formats: RGB 4:4:4
    Default (sRGB) color space is primary color space
    First detailed timing includes the native pixel format and preferred refresh rate
  Color Characteristics:
    Red  : 0.6337, 0.3388
    Green: 0.3183, 0.6123
    Blue : 0.1533, 0.0478
    White: 0.3046, 0.3242
  Established Timings I & II: none
  Standard Timings: none
  Detailed Timing Descriptors:
    DTD 1:  1920x1080   60.042062 Hz  16:9     66.707 kHz    138.750000 MHz (294 mm x 165 mm)
                 Hfront   48 Hsync  32 Hback   80 Hpol N
                 Vfront    3 Vsync   5 Vback   23 Vpol N
    Dummy Descriptor:
    Dummy Descriptor:
    Display Product Name: 'LC133LF4L02'
Checksum: 0x5b

----------------

Failures:

Block 0, Base EDID:
  Basic Display Parameters & Features: sRGB is signaled, but the chromaticities do not match.

EDID conformity: FAIL
