
EDID (hex):
00ffffffffffff004e14d20a01000000
1e1e0103803c21782bdd75a5554e9d27
0b5054afcb00614081c08180a9c07140
d1c0010101016a5e00a0a0a029503020
3500c48e2100001e000000fd00304b17
631e000a202020202020023a80187138
2d40582c450055502100001e000000fc
0053636570747265205132370a20016f
02032af14b101f051404130312021101
230907078301000068030c0010003878
00681a00000101304b008e4480a07038
2d40582c450055502100001e662150b0
51001b304070360055502100001e7f21
56aa51001e30468f330055502100007f
a2740082a0a028502030350055502100
007b00000000000000000000000000d6

Extracted contents:
header:          00 ff ff ff ff ff ff 00
serial number:   4e 14 d2 0a 01 00 00 00 1e 1e
version:         01 03
basic params:    80 3c 21 78 2b
chroma info:     dd 75 a5 55 4e 9d 27 0b 50 54
established:     af cb 00
standard:        61 40 81 c0 81 80 a9 c0 71 40 d1 c0 01 01 01 01
descriptor 1:    6a 5e 00 a0 a0 a0 29 50 30 20 35 00 c4 8e 21 00 00 1e
descriptor 2:    00 00 00 fd 00 30 4b 17 63 1e 00 0a 20 20 20 20 20 20
descriptor 3:    02 3a 80 18 71 38 2d 40 58 2c 45 00 55 50 21 00 00 1e
descriptor 4:    00 00 00 fc 00 53 63 65 70 74 72 65 20 51 32 37 0a 20
extensions:      01
checksum:        6f

EDID version: 1.3
Manufacturer: SPT Model ad2 Serial Number --
Made in week 30 of 2020
Digital display
Maximum image size: 60 cm x 33 cm
Gamma: 2.20
DPMS levels: Off
RGB color display
First detailed timing is preferred timing
Supports GTF timings within operating range
Display x,y Chromaticity:
  Red:   0.6474, 0.3330
  Green: 0.3076, 0.6142
  Blue:  0.1533, 0.0458
  White: 0.3134, 0.3291
Established timings supported:
  720x400@70Hz 9:5 HorFreq: 31469 Hz Clock: 28.320 MHz
  640x480@60Hz 4:3 HorFreq: 31469 Hz Clock: 25.175 MHz
  640x480@72Hz 4:3 HorFreq: 37900 Hz Clock: 31.500 MHz
  640x480@75Hz 4:3 HorFreq: 37500 Hz Clock: 31.500 MHz
  800x600@56Hz 4:3 HorFreq: 35200 Hz Clock: 36.000 MHz
  800x600@60Hz 4:3 HorFreq: 37900 Hz Clock: 40.000 MHz
  800x600@72Hz 4:3 HorFreq: 48100 Hz Clock: 50.000 MHz
  800x600@75Hz 4:3 HorFreq: 46900 Hz Clock: 49.500 MHz
  1024x768@60Hz 4:3 HorFreq: 48400 Hz Clock: 65.000 MHz
  1024x768@75Hz 4:3 HorFreq: 60000 Hz Clock: 78.750 MHz
  1280x1024@75Hz 5:4 HorFreq: 80000 Hz Clock: 135.000 MHz
Standard timings supported:
  1024x768@60Hz 4:3 HorFreq: 48400 Hz Clock: 65.000 MHz
  1280x720@60Hz 16:9
  1280x1024@60Hz 5:4 HorFreq: 64000 Hz Clock: 108.000 MHz
  1600x900@60Hz 16:9
  1152x864@60Hz 4:3
  1920x1080@60Hz 16:9
Detailed mode: Clock 241.700 MHz, 708 mm x 398 mm
               2560 2608 2640 2720 hborder 0
               1440 1443 1448 1481 vborder 0
               +hsync +vsync 
               VertFreq: 60 Hz, HorFreq: 88860 Hz
Monitor ranges (GTF): 48-75Hz V, 23-99kHz H, max dotclock 300MHz
Detailed mode: Clock 148.500 MHz, 597 mm x 336 mm
               1920 2008 2052 2200 hborder 0
               1080 1084 1089 1125 vborder 0
               +hsync +vsync 
               VertFreq: 60 Hz, HorFreq: 67500 Hz
Monitor name: Sceptre Q27
Has 1 extension blocks
Checksum: 0x6f (valid)

CTA extension block
Extension version: 3
38 bytes of CTA data
  Video data block
    VIC  16 1920x1080@60Hz 16:9  HorFreq: 67500 Hz Clock: 148.500 MHz
    VIC  31 1920x1080@50Hz 16:9  HorFreq: 56250 Hz Clock: 148.500 MHz
    VIC   5 1920x1080i@60Hz 16:9  HorFreq: 33750 Hz Clock: 74.250 MHz
    VIC  20 1920x1080i@50Hz 16:9  HorFreq: 28125 Hz Clock: 74.250 MHz
    VIC   4 1280x720@60Hz 16:9  HorFreq: 45000 Hz Clock: 74.250 MHz
    VIC  19 1280x720@50Hz 16:9  HorFreq: 37500 Hz Clock: 74.250 MHz
    VIC   3 720x480@60Hz 16:9  HorFreq: 31469 Hz Clock: 27.000 MHz
    VIC  18 720x576@50Hz 16:9  HorFreq: 31250 Hz Clock: 27.000 MHz
    VIC   2 720x480@60Hz 4:3  HorFreq: 31469 Hz Clock: 27.000 MHz
    VIC  17 720x576@50Hz 4:3  HorFreq: 31250 Hz Clock: 27.000 MHz
    VIC   1 640x480@60Hz 4:3  HorFreq: 31469 Hz Clock: 25.175 MHz
  Audio data block
    Linear PCM, max channels 2
      Supported sample rates (kHz): 48 44.1 32
      Supported sample sizes (bits): 24 20 16
  Speaker allocation data block
    Speaker map:
      FL/FR - Front Left/Right
  Vendor-specific data block, OUI 000c03 (HDMI)
    Source physical address 1.0.0.0
    DC_36bit
    DC_30bit
    DC_Y444
    Maximum TMDS clock: 600MHz
  Vendor-specific data block, OUI 00001a
Underscans PC formats by default
Basic audio support
Supports YCbCr 4:4:4
Supports YCbCr 4:2:2
1 native detailed modes
Detailed mode: Clock 175.500 MHz, 597 mm x 336 mm
               1920 2008 2052 2080 hborder 0
               1080 1084 1089 1125 vborder 0
               +hsync +vsync 
               VertFreq: 75 Hz, HorFreq: 84375 Hz
Detailed mode: Clock 85.500 MHz, 597 mm x 336 mm
               1360 1424 1536 1792 hborder 0
                768  771  777  795 vborder 0
               +hsync +vsync 
               VertFreq: 60 Hz, HorFreq: 47712 Hz
Detailed mode: Clock 85.750 MHz, 597 mm x 336 mm
               1366 1436 1579 1792 hborder 0
                768  771  774  798 vborder 0
               +hsync +vsync side by side interleaved
               VertFreq: 59 Hz, HorFreq: 47851 Hz
Detailed mode: Clock 298.580 MHz, 597 mm x 336 mm
               2560 2592 2640 2690 hborder 0
               1440 1443 1448 1480 vborder 0
               +hsync -vsync side by side interleaved
               VertFreq: 74 Hz, HorFreq: 110996 Hz
Checksum: 0xd6 (valid)

EDID block does NOT conform to EDID 1.3!
	HDMI VSDB Max TMDS rate is > 340
One or more of the timings is out of range of the Monitor Ranges:
  Vertical Freq: 50 - 75 Hz
  Horizontal Freq: 28125 - 110996 Hz
  Maximum Clock: 298.580 MHz
EDID block does not conform at all!
	Invalid detailed timing descriptor ordering


