
EDID (hex):
00ffffffffffff001e6d8b4401010101
011201036a261578ea9bb6a4534b9d24
144f54a56a8081cf61404540714f0101
0101010101011a1d008051d01c204080
350075d11000001c000000fd00384b1c
530e000a202020202020000000fc004c
313737570a20202020202020000000fc
000a20202020202020202020202000c2

Extracted contents:
header:          00 ff ff ff ff ff ff 00
serial number:   1e 6d 8b 44 01 01 01 01 01 12
version:         01 03
basic params:    6a 26 15 78 ea
chroma info:     9b b6 a4 53 4b 9d 24 14 4f 54
established:     a5 6a 80
standard:        81 cf 61 40 45 40 71 4f 01 01 01 01 01 01 01 01
descriptor 1:    1a 1d 00 80 51 d0 1c 20 40 80 35 00 75 d1 10 00 00 1c
descriptor 2:    00 00 00 fd 00 38 4b 1c 53 0e 00 0a 20 20 20 20 20 20
descriptor 3:    00 00 00 fc 00 4c 31 37 37 57 0a 20 20 20 20 20 20 20
descriptor 4:    00 00 00 fc 00 0a 20 20 20 20 20 20 20 20 20 20 20 20
extensions:      00
checksum:        c2

EDID version: 1.3
Manufacturer: GSM Model 448b Serial Number --
Made in week 1 of 2008
Analog display, Input voltage level: 0.7/0.7 V
Sync: Separate SyncOnGreen 
Maximum image size: 38 cm x 21 cm
Gamma: 2.20
DPMS levels: Standby Suspend Off
RGB color display
First detailed timing is preferred timing
Display x,y Chromaticity:
  Red:   0.6425, 0.3251
  Green: 0.2949, 0.6162
  Blue:  0.1425, 0.0810
  White: 0.3095, 0.3300
Established timings supported:
  720x400@70Hz 9:5 HorFreq: 31469 Hz Clock: 28.320 MHz
  640x480@60Hz 4:3 HorFreq: 31469 Hz Clock: 25.175 MHz
  640x480@75Hz 4:3 HorFreq: 37500 Hz Clock: 31.500 MHz
  800x600@60Hz 4:3 HorFreq: 37900 Hz Clock: 40.000 MHz
  800x600@75Hz 4:3 HorFreq: 46900 Hz Clock: 49.500 MHz
  832x624@75Hz 4:3 HorFreq: 49726 Hz Clock: 57.284 MHz
  1024x768@60Hz 4:3 HorFreq: 48400 Hz Clock: 65.000 MHz
  1024x768@75Hz 4:3 HorFreq: 60000 Hz Clock: 78.750 MHz
  1152x870@75Hz 192:145 HorFreq: 67500 Hz Clock: 108.000 MHz
Standard timings supported:
  1280x720@75Hz 16:9
  1024x768@60Hz 4:3 HorFreq: 48400 Hz Clock: 65.000 MHz
  800x600@60Hz 4:3 HorFreq: 37900 Hz Clock: 40.000 MHz
  1152x864@75Hz 4:3 HorFreq: 67500 Hz Clock: 108.000 MHz
Detailed mode: Clock 74.500 MHz, 373 mm x 209 mm
               1280 1344 1472 1664 hborder 0
                720  723  728  748 vborder 0
               -hsync +vsync 
               VertFreq: 59 Hz, HorFreq: 44771 Hz
Monitor ranges (GTF): 56-75Hz V, 28-83kHz H, max dotclock 140MHz
Monitor name: L177W
Checksum: 0xc2 (valid)
