
EDID (hex):
00ffffffffffff001e6d6777b6cd0200
0620010380502178ee9c65a6534d9f25
0f5054210800d1c00101010101010101
010101010101016870b0d0a022503020
3a00204e3100001a000000fd0030321e
4b1e000a202020202020000000fc004c
4720554c545241574944450a000000ff
00323036415a535035443733340a0152
02031e7223090707830100004b5f5e5d
5a591f121004030165030c001000d13d
70b0d0a0155030203a00204e3100001a
00000000000000000000000000000000
00000000000000000000000000000000
00000000000000000000000000000000
00000000000000000000000000000000
00000000000000000000000000000082

Extracted contents:
header:          00 ff ff ff ff ff ff 00
serial number:   1e 6d 67 77 b6 cd 02 00 06 20
version:         01 03
basic params:    80 50 21 78 ee
chroma info:     9c 65 a6 53 4d 9f 25 0f 50 54
established:     21 08 00
standard:        d1 c0 01 01 01 01 01 01 01 01 01 01 01 01 01 01
descriptor 1:    01 68 70 b0 d0 a0 22 50 30 20 3a 00 20 4e 31 00 00 1a
descriptor 2:    00 00 00 fd 00 30 32 1e 4b 1e 00 0a 20 20 20 20 20 20
descriptor 3:    00 00 00 fc 00 4c 47 20 55 4c 54 52 41 57 49 44 45 0a
descriptor 4:    00 00 00 ff 00 32 30 36 41 5a 53 50 35 44 37 33 34 0a
extensions:      01
checksum:        52

EDID version: 1.3
Manufacturer: GSM Model 7767 Serial Number --
Made in week 6 of 2022
Digital display
Maximum image size: 80 cm x 33 cm
Gamma: 2.20
DPMS levels: Standby Suspend Off
RGB color display
Default (sRGB) color space is primary color space
First detailed timing is preferred timing
Display x,y Chromaticity:
  Red:   0.6503, 0.3251
  Green: 0.3037, 0.6210
  Blue:  0.1455, 0.0605
  White: 0.3134, 0.3291
Established timings supported:
  640x480@60Hz 4:3 HorFreq: 31469 Hz Clock: 25.175 MHz
  800x600@60Hz 4:3 HorFreq: 37900 Hz Clock: 40.000 MHz
  1024x768@60Hz 4:3 HorFreq: 48400 Hz Clock: 65.000 MHz
Standard timings supported:
  1920x1080@60Hz 16:9
Detailed mode: Clock 266.250 MHz, 800 mm x 334 mm
               3440 3488 3520 3616 hborder 0
               1440 1443 1453 1474 vborder 0
               +hsync -vsync 
               VertFreq: 49 Hz, HorFreq: 73631 Hz
Monitor ranges (GTF): 48-50Hz V, 30-75kHz H, max dotclock 300MHz
Monitor name: LG ULTRAWIDE
Serial number: --
Has 1 extension blocks
Checksum: 0x52 (valid)

CTA extension block
Extension version: 3
26 bytes of CTA data
  Audio data block
    Linear PCM, max channels 2
      Supported sample rates (kHz): 48 44.1 32
      Supported sample sizes (bits): 24 20 16
  Speaker allocation data block
    Speaker map:
      FL/FR - Front Left/Right
  Video data block
    VIC  95 3840x2160@30Hz 16:9  HorFreq: 67500 Hz Clock: 297.000 MHz
    VIC  94 3840x2160@25Hz 16:9  HorFreq: 56250 Hz Clock: 297.000 MHz
    VIC  93 3840x2160@24Hz 16:9  HorFreq: 54000 Hz Clock: 297.000 MHz
    VIC  90 2560x1080@60Hz 64:27  HorFreq: 66000 Hz Clock: 198.000 MHz
    VIC  89 2560x1080@50Hz 64:27  HorFreq: 56250 Hz Clock: 185.625 MHz
    VIC  31 1920x1080@50Hz 16:9  HorFreq: 56250 Hz Clock: 148.500 MHz
    VIC  18 720x576@50Hz 16:9  HorFreq: 31250 Hz Clock: 27.000 MHz
    VIC  16 1920x1080@60Hz 16:9  HorFreq: 67500 Hz Clock: 148.500 MHz
    VIC   4 1280x720@60Hz 16:9  HorFreq: 45000 Hz Clock: 74.250 MHz
    VIC   3 720x480@60Hz 16:9  HorFreq: 31469 Hz Clock: 27.000 MHz
    VIC   1 640x480@60Hz 4:3  HorFreq: 31469 Hz Clock: 25.175 MHz
  Vendor-specific data block, OUI 000c03 (HDMI)
    Source physical address 1.0.0.0
Basic audio support
Supports YCbCr 4:4:4
Supports YCbCr 4:2:2
2 native detailed modes
Detailed mode: Clock 158.250 MHz, 800 mm x 334 mm
               3440 3488 3520 3616 hborder 0
               1440 1443 1453 1461 vborder 0
               +hsync -vsync 
               VertFreq: 29 Hz, HorFreq: 43763 Hz
Checksum: 0x82 (valid)

EDID block does NOT conform to EDID 1.3!
	sRGB is signaled, but the chromaticities do not match
One or more of the timings is out of range of the Monitor Ranges:
  Vertical Freq: 24 - 60 Hz
  Horizontal Freq: 31250 - 73631 Hz
  Maximum Clock: 297.000 MHz
EDID block does not conform at all!
	Both the serial number and the serial string are set
