
EDID (hex):
00ffffffffffff000dae6f1700000000
1c1d0104a52615780205c5975b538f27
20505400000001010101010101010101
010101010101363680a0703820403020
a5007dd61000001a363680a070383641
3020a5007dd61000001a000000fe004b
33485048803137334843450a00000000
0002410196001000000a010a202000e1

Extracted contents:
header:          00 ff ff ff ff ff ff 00
serial number:   0d ae 6f 17 00 00 00 00 1c 1d
version:         01 04
basic params:    a5 26 15 78 02
chroma info:     05 c5 97 5b 53 8f 27 20 50 54
established:     00 00 00
standard:        01 01 01 01 01 01 01 01 01 01 01 01 01 01 01 01
descriptor 1:    36 36 80 a0 70 38 20 40 30 20 a5 00 7d d6 10 00 00 1a
descriptor 2:    36 36 80 a0 70 38 36 41 30 20 a5 00 7d d6 10 00 00 1a
descriptor 3:    00 00 00 fe 00 4b 33 48 50 48 80 31 37 33 48 43 45 0a
descriptor 4:    00 00 00 00 00 02 41 01 96 00 10 00 00 0a 01 0a 20 20
extensions:      00
checksum:        e1

EDID version: 1.4
Manufacturer: CMN Model 176f Serial Number --
Made in week 28 of 2019
Digital display
8 bits per primary color channel
DisplayPort interface
Maximum image size: 38 cm x 21 cm
Gamma: 2.20
Supported color formats: RGB 4:4:4
First detailed timing includes the native pixel format and preferred refresh rate
Display x,y Chromaticity:
  Red:   0.5898, 0.3554
  Green: 0.3251, 0.5595
  Blue:  0.1552, 0.1250
  White: 0.3134, 0.3291
Established timings supported:
Standard timings supported:
Detailed mode: Clock 138.780 MHz, 381 mm x 214 mm
               1920 1968 2000 2080 hborder 0
               1080 1090 1095 1112 vborder 0
               +hsync -vsync 
               VertFreq: 60 Hz, HorFreq: 66721 Hz
Detailed mode: Clock 138.780 MHz, 381 mm x 214 mm
               1920 1968 2000 2080 hborder 0
               1080 1090 1095 1390 vborder 0
               +hsync -vsync 
               VertFreq: 48 Hz, HorFreq: 66721 Hz
ASCII string: K3HPH
Manufacturer-specified data, tag 0
Checksum: 0xe1 (valid)
EDID block does NOT conform to EDID 1.4!
	Missing name descriptor
	Missing monitor ranges
	Detailed block string not properly terminated
