
EDID (hex):
00ffffffffffff000e14d81700000000
32150103801d10780ac30d94574f8c27
20505400000001010101010101010101
010101010101781d56c2500026303b27
360025a510000018781d56c250002630
3b27360025a510000018000000fe0043
50540a202020202020202020000000fe
00434c41413133335742303141200020

Extracted contents:
header:          00 ff ff ff ff ff ff 00
serial number:   0e 14 d8 17 00 00 00 00 32 15
version:         01 03
basic params:    80 1d 10 78 0a
chroma info:     c3 0d 94 57 4f 8c 27 20 50 54
established:     00 00 00
standard:        01 01 01 01 01 01 01 01 01 01 01 01 01 01 01 01
descriptor 1:    78 1d 56 c2 50 00 26 30 3b 27 36 00 25 a5 10 00 00 18
descriptor 2:    78 1d 56 c2 50 00 26 30 3b 27 36 00 25 a5 10 00 00 18
descriptor 3:    00 00 00 fe 00 43 50 54 0a 20 20 20 20 20 20 20 20 20
descriptor 4:    00 00 00 fe 00 43 4c 41 41 31 33 33 57 42 30 31 41 20
extensions:      00
checksum:        20

EDID version: 1.3
Manufacturer: CPT Model 17d8 Serial Number --
Made in week 50 of 2011
Digital display
Maximum image size: 29 cm x 16 cm
Gamma: 2.20
RGB color display
First detailed timing is preferred timing
Display x,y Chromaticity:
  Red:   0.5810, 0.3398
  Green: 0.3085, 0.5498
  Blue:  0.1523, 0.1250
  White: 0.3154, 0.3291
Established timings supported:
Standard timings supported:
Detailed mode: Clock 75.440 MHz, 293 mm x 165 mm
               1366 1425 1464 1560 hborder 0
                768  771  777  806 vborder 0
               -hsync -vsync 
               VertFreq: 59 Hz, HorFreq: 48358 Hz
Detailed mode: Clock 75.440 MHz, 293 mm x 165 mm
               1366 1425 1464 1560 hborder 0
                768  771  777  806 vborder 0
               -hsync -vsync 
               VertFreq: 59 Hz, HorFreq: 48358 Hz
ASCII string: CPT
ASCII string: CLAA133WB01A 
Checksum: 0x20 (valid)
EDID block does NOT conform to EDID 1.3!
	Missing name descriptor
	Missing monitor ranges
