edid-decode (hex):

00 ff ff ff ff ff ff 00 22 f0 13 42 01 00 00 00
19 16 01 03 80 33 1d 78 0a b9 20 a2 59 4f a1 26
0d 50 54 00 00 00 01 01 01 01 01 01 01 01 01 01
01 01 01 01 01 01 21 38 80 00 71 38 14 40 58 2c
45 00 fe 1f 11 00 00 18 00 00 00 fe 00 56 30 36
0a 20 20 20 20 20 20 20 20 20 00 00 00 fc 00 48
50 51 20 38 33 30 30 20 41 69 4f 0a 00 00 00 fe
00 4d 32 33 30 48 47 45 2d 4c 32 30 0a 20 00 f9

----------------

Block 0, Base EDID:
  EDID Structure Version & Revision: 1.3
  Vendor & Product Identification:
    Manufacturer: HWP
    Model: 16915
    Serial Number: ...
    Made in: week 25 of 2012
  Basic Display Parameters & Features:
    Digital display
    Maximum image size: 51 cm x 29 cm
    Gamma: 2.20
    RGB color display
    First detailed timing is the preferred timing
  Color Characteristics:
    Red  : 0.6347, 0.3505
    Green: 0.3105, 0.6298
    Blue : 0.1484, 0.0527
    White: 0.3125, 0.3281
  Established Timings I & II: none
  Standard Timings: none
  Detailed Timing Descriptors:
    DTD 1:  1920x1080   60.030916 Hz  16:9     66.034 kHz    143.690000 MHz (510 mm x 287 mm)
                 Hfront   88 Hsync  44 Hback  124 Hpol N
                 Vfront    4 Vsync   5 Vback   11 Vpol N
    Alphanumeric Data String: 'V06'
    Display Product Name: 'HPQ 8300 AiO'
    Alphanumeric Data String: 'M230HGE-L20'
Checksum: 0xf9

----------------

Failures:

Block 0, Base EDID:
  Missing Display Range Limits Descriptor.

EDID conformity: FAIL
