edid-decode (hex):

00 ff ff ff ff ff ff 00 12 63 01 00 00 00 00 00
0a 1d 01 03 80 14 0f 78 2a 08 a5 a2 57 4f a2 28
0f 50 54 00 00 00 01 01 01 01 01 01 01 01 01 01
01 01 01 01 01 01 c1 3e 98 a8 80 72 2e 60 38 20
36 00 c8 96 00 00 00 1e 00 00 00 10 00 00 00 00
00 00 00 00 00 00 00 00 00 00 00 00 00 fc 00 50
61 70 65 72 6c 69 6b 65 20 48 20 44 48 3f 40 30
62 b0 32 40 40 c0 13 00 6d 55 21 00 00 1e 00 d1

----------------

Block 0, Base EDID:
  EDID Structure Version & Revision: 1.3
  Vendor & Product Identification:
    Manufacturer: DSC
    Model: 1
    Made in: week 10 of 2019
  Basic Display Parameters & Features:
    Digital display
    Maximum image size: 20 cm x 15 cm
    Gamma: 2.20
    DPMS levels: Off
    RGB color display
    First detailed timing is the preferred timing
  Color Characteristics:
    Red  : 0.6328, 0.3398
    Green: 0.3105, 0.6328
    Blue : 0.1582, 0.0605
    White: 0.3134, 0.3291
  Established Timings I & II: none
  Standard Timings: none
  Detailed Timing Descriptors:
    DTD 1:  2200x1650   40.001215 Hz   4:3     67.842 kHz    160.650000 MHz (200 mm x 150 mm)
                 Hfront   56 Hsync  32 Hback   80 Hpol P
                 Vfront    3 Vsync   6 Vback   37 Vpol P
    Dummy Descriptor:
    Display Product Name: 'Paperlike H D'
    DTD 2:  1600x1200   60.000000 Hz   4:3     75.000 kHz    162.000000 MHz (621 mm x 341 mm)
                 Hfront   64 Hsync 192 Hback  304 Hpol P
                 Vfront    1 Vsync   3 Vback   46 Vpol P
Checksum: 0xd1

----------------

Failures:

Block 0, Base EDID:
  Detailed Timing Descriptor #2: Mismatch of image size 621x341 mm vs display size 200x150 mm.
  Detailed Timing Descriptor #2: Invalid detailed timing descriptor ordering.
  Missing Display Range Limits Descriptor.
EDID:
  Base EDID: The DTD max image size is 621x341mm, which is larger than the display size 200.0x150.0mm.

EDID conformity: FAIL
