
EDID (hex):
00ffffffffffff001263010000000000
0a1d010380140f782a08a5a2574fa228
0f505400000001010101010101010101
010101010101c13e98a880722e603820
3600c8960000001e0000001000000000
00000000000000000000000000fc0050
617065726c696b6520482044483f4030
62b0324040c013006d552100001e00d1

Extracted contents:
header:          00 ff ff ff ff ff ff 00
serial number:   12 63 01 00 00 00 00 00 0a 1d
version:         01 03
basic params:    80 14 0f 78 2a
chroma info:     08 a5 a2 57 4f a2 28 0f 50 54
established:     00 00 00
standard:        01 01 01 01 01 01 01 01 01 01 01 01 01 01 01 01
descriptor 1:    c1 3e 98 a8 80 72 2e 60 38 20 36 00 c8 96 00 00 00 1e
descriptor 2:    00 00 00 10 00 00 00 00 00 00 00 00 00 00 00 00 00 00
descriptor 3:    00 00 00 fc 00 50 61 70 65 72 6c 69 6b 65 20 48 20 44
descriptor 4:    48 3f 40 30 62 b0 32 40 40 c0 13 00 6d 55 21 00 00 1e
extensions:      00
checksum:        d1

EDID version: 1.3
Manufacturer: DSC Model 1 Serial Number --
Made in week 10 of 2019
Digital display
Maximum image size: 20 cm x 15 cm
Gamma: 2.20
DPMS levels: Off
RGB color display
First detailed timing is preferred timing
Display x,y Chromaticity:
  Red:   0.6328, 0.3398
  Green: 0.3105, 0.6328
  Blue:  0.1582, 0.0605
  White: 0.3134, 0.3291
Established timings supported:
Standard timings supported:
Detailed mode: Clock 160.650 MHz, 200 mm x 150 mm
               2200 2256 2288 2368 hborder 0
               1650 1653 1659 1696 vborder 0
               +hsync +vsync 
               VertFreq: 40 Hz, HorFreq: 67842 Hz
Dummy block
Detailed mode: Clock 162.000 MHz, 621 mm x 341 mm
               1600 1664 1856 2160 hborder 0
               1200 1201 1204 1250 vborder 0
               +hsync +vsync 
               VertFreq: 60 Hz, HorFreq: 75000 Hz
Checksum: 0xd1 (valid)
EDID block does NOT conform to EDID 1.3!
	Name descriptor not terminated with a newline
	Missing monitor ranges
EDID block does not conform at all!
	Invalid detailed timing descriptor ordering
