edid-decode (hex):

00 ff ff ff ff ff ff 00 06 af dc 11 00 00 00 00
00 17 01 04 90 16 0d 78 02 bb f5 94 55 54 90 27
23 50 54 00 00 00 01 01 01 01 01 01 01 01 01 01
01 01 01 01 01 01 ce 1d 56 dc 50 00 1e 30 26 16
36 00 de 7d 00 00 00 18 df 13 56 dc 50 00 1e 30
26 16 36 00 de 7d 00 00 00 18 00 00 00 00 00 00
00 00 00 00 00 00 00 00 00 00 00 00 00 00 00 02
00 0c 33 f9 0a 3c 64 1f 14 22 6e 20 20 20 00 52

----------------

Block 0, Base EDID:
  EDID Structure Version & Revision: 1.4
  Vendor & Product Identification:
    Manufacturer: AUO
    Model: 4572
    Made in: 2013
  Basic Display Parameters & Features:
    Digital display
    Bits per primary color channel: 6
    Digital interface is not defined
    Maximum image size: 22 cm x 13 cm
    Gamma: 2.20
    Supported color formats: RGB 4:4:4
    First detailed timing includes the native pixel format and preferred refresh rate
  Color Characteristics:
    Red  : 0.5800, 0.3349
    Green: 0.3300, 0.5654
    Blue : 0.1552, 0.1396
    White: 0.3134, 0.3291
  Established Timings I & II: none
  Standard Timings: none
  Detailed Timing Descriptors:
    DTD 1:  1366x768    60.286277 Hz 683:384   48.108 kHz     76.300000 MHz (222 mm x 125 mm)
                 Hfront   38 Hsync  22 Hback  160 Hpol N
                 Vfront    3 Vsync   6 Vback   21 Vpol N
    DTD 2:  1366x768    40.193485 Hz 683:384   32.074 kHz     50.870000 MHz (222 mm x 125 mm)
                 Hfront   38 Hsync  22 Hback  160 Hpol N
                 Vfront    3 Vsync   6 Vback   21 Vpol N
    Empty Descriptor
    Manufacturer-Specified Display Descriptor (0x02): 00 02 00 0c 33 f9 0a 3c 64 1f 14 22 6e 20 20 20 '....3..<d.."n   '
Checksum: 0x52

----------------

Failures:

Block 0, Base EDID:
  Empty Descriptor: Use Dummy Descriptor instead of all zeroes.
  Missing Display Product Name.

EDID conformity: FAIL
