edid-decode (hex):

00 ff ff ff ff ff ff 00 22 f0 78 10 01 00 00 00
19 16 01 03 80 30 1b 78 0a 32 10 a5 54 51 a1 28
0f 50 54 00 00 00 01 01 01 01 01 01 01 01 01 01
01 01 01 01 01 01 9e 37 80 b4 70 38 32 40 14 14
66 00 dd 0d 11 00 00 18 00 00 00 fe 00 56 30 37
0a 20 20 20 20 20 20 20 20 20 00 00 00 fc 00 48
50 51 20 36 33 30 30 20 41 69 4f 0a 00 00 00 fe
00 4d 32 31 35 48 54 4e 30 31 2e 31 0a 20 00 82

----------------

Block 0, Base EDID:
  EDID Structure Version & Revision: 1.3
  Vendor & Product Identification:
    Manufacturer: HWP
    Model: 4216
    Serial Number: ...
    Made in: week 25 of 2012
  Basic Display Parameters & Features:
    Digital display
    Maximum image size: 48 cm x 27 cm
    Gamma: 2.20
    RGB color display
    First detailed timing is the preferred timing
  Color Characteristics:
    Red  : 0.6445, 0.3310
    Green: 0.3164, 0.6308
    Blue : 0.1562, 0.0595
    White: 0.3125, 0.3281
  Established Timings I & II: none
  Standard Timings: none
  Detailed Timing Descriptors:
    DTD 1:  1920x1080   60.000000 Hz  16:9     67.800 kHz    142.380000 MHz (477 mm x 269 mm)
                 Hfront   20 Hsync  20 Hback  140 Hpol N
                 Vfront    6 Vsync   6 Vback   38 Vpol N
    Alphanumeric Data String: 'V07'
    Display Product Name: 'HPQ 6300 AiO'
    Alphanumeric Data String: 'M215HTN01.1'
Checksum: 0x82

----------------

Failures:

Block 0, Base EDID:
  Missing Display Range Limits Descriptor.

EDID conformity: FAIL
