
EDID (hex):
00ffffffffffff0006afee0100000000
01120103802213780ae4e5a059579226
0d505400000001010101010101010101
0101010101011c2a407261840c30402a
330058c1100000180000000f00000000
00000000000000000020000000fe0041
554f0a202020202020202020000000fe
004231353652573031205631200a0098

Extracted contents:
header:          00 ff ff ff ff ff ff 00
serial number:   06 af ee 01 00 00 00 00 01 12
version:         01 03
basic params:    80 22 13 78 0a
chroma info:     e4 e5 a0 59 57 92 26 0d 50 54
established:     00 00 00
standard:        01 01 01 01 01 01 01 01 01 01 01 01 01 01 01 01
descriptor 1:    1c 2a 40 72 61 84 0c 30 40 2a 33 00 58 c1 10 00 00 18
descriptor 2:    00 00 00 0f 00 00 00 00 00 00 00 00 00 00 00 00 00 20
descriptor 3:    00 00 00 fe 00 41 55 4f 0a 20 20 20 20 20 20 20 20 20
descriptor 4:    00 00 00 fe 00 42 31 35 36 52 57 30 31 20 56 31 20 0a
extensions:      00
checksum:        98

EDID version: 1.3
Manufacturer: AUO Model 1ee Serial Number --
Made in week 1 of 2008
Digital display
Maximum image size: 34 cm x 19 cm
Gamma: 2.20
RGB color display
First detailed timing is preferred timing
Display x,y Chromaticity:
  Red:   0.6279, 0.3496
  Green: 0.3408, 0.5703
  Blue:  0.1513, 0.0527
  White: 0.3134, 0.3291
Established timings supported:
Standard timings supported:
Detailed mode: Clock 107.800 MHz, 344 mm x 193 mm
               1600 1664 1706 1970 hborder 0
                900  903  906  912 vborder 0
               -hsync -vsync 
               VertFreq: 60 Hz, HorFreq: 54720 Hz
Manufacturer-specified data, tag 15
ASCII string: AUO
ASCII string: B156RW01 V1 
Checksum: 0x98 (valid)
EDID block does NOT conform to EDID 1.3!
	Missing name descriptor
	Missing monitor ranges
