edid-decode (hex):

00 ff ff ff ff ff ff 00 09 e5 c7 09 00 00 00 00
2c 1e 01 04 a5 24 14 78 03 ee 95 a3 54 4c 99 26
0f 50 54 00 00 00 01 01 01 01 01 01 01 01 01 01
01 01 01 01 01 01 9c 8b 80 18 71 38 30 40 6c 30
aa 00 63 c8 10 00 00 1a 9c 8b 80 18 71 38 5b 46
6c 30 aa 00 63 c8 10 00 00 1a 00 00 00 fe 00 42
4f 45 20 48 46 0a 20 20 20 20 20 20 00 00 00 fe
00 54 56 31 36 31 46 48 4d 2d 4e 48 31 0a 00 dd

00 ff ff ff ff ff ff 00 09 e5 c7 09 00 00 00 00
2c 1e 01 04 a5 24 14 78 03 ee 95 a3 54 4c 99 26
0f 50 54 00 00 00 01 01 01 01 01 01 01 01 01 01
01 01 01 01 01 01 9c 8b 80 18 71 38 30 40 6c 30
aa 00 63 c8 10 00 00 1a 9c 8b 80 18 71 38 5b 46
6c 30 aa 00 63 c8 10 00 00 1a 00 00 00 fe 00 42
4f 45 20 48 46 0a 20 20 20 20 20 20 00 00 00 fe
00 54 56 31 36 31 46 48 4d 2d 4e 48 31 0a 00 dd

----------------

Block 0, Base EDID:
  EDID Structure Version & Revision: 1.4
  Vendor & Product Identification:
    Manufacturer: BOE
    Model: 2503
    Made in: week 44 of 2020
  Basic Display Parameters & Features:
    Digital display
    Bits per primary color channel: 8
    DisplayPort interface
    Maximum image size: 36 cm x 20 cm
    Gamma: 2.20
    Supported color formats: RGB 4:4:4
    First detailed timing includes the native pixel format and preferred refresh rate
    Display is continuous frequency
  Color Characteristics:
    Red  : 0.6396, 0.3300
    Green: 0.2998, 0.5996
    Blue : 0.1503, 0.0595
    White: 0.3134, 0.3291
  Established Timings I & II: none
  Standard Timings: none
  Detailed Timing Descriptors:
    DTD 1:  1920x1080  144.019987 Hz  16:9    162.455 kHz    357.400000 MHz (355 mm x 200 mm)
                 Hfront  108 Hsync  48 Hback  124 Hpol P
                 Vfront   10 Vsync  10 Vback   28 Vpol N
    DTD 2:  1920x1080   60.012762 Hz  16:9    162.455 kHz    357.400000 MHz (355 mm x 200 mm)
                 Hfront  108 Hsync  48 Hback  124 Hpol P
                 Vfront   10 Vsync  10 Vback 1607 Vpol N
    Alphanumeric Data String: 'BOE HF'
    Alphanumeric Data String: 'TV161FHM-NH1'
Checksum: 0xdd

----------------

Block 1, Unknown EDID Extension Block 0x00:
  00 ff ff ff ff ff ff 00 09 e5 c7 09 00 00 00 00 '................'
  2c 1e 01 04 a5 24 14 78 03 ee 95 a3 54 4c 99 26 ',....$.x....TL.&'
  0f 50 54 00 00 00 01 01 01 01 01 01 01 01 01 01 '.PT.............'
  01 01 01 01 01 01 9c 8b 80 18 71 38 30 40 6c 30 '..........q80@l0'
  aa 00 63 c8 10 00 00 1a 9c 8b 80 18 71 38 5b 46 '..c.........q8[F'
  6c 30 aa 00 63 c8 10 00 00 1a 00 00 00 fe 00 42 'l0..c..........B'
  4f 45 20 48 46 0a 20 20 20 20 20 20 00 00 00 fe 'OE HF.      ....'
  00 54 56 31 36 31 46 48 4d 2d 4e 48 31 0a 00 dd '.TV161FHM-NH1...'
Checksum: 0xdd

----------------

Warnings:

Block 0, Base EDID:
  Missing Display Product Name.

Failures:

Block 0, Base EDID:
  Missing Display Range Limits Descriptor.
Block 1, Base EDID:
  Unknown Extension Block.
EDID:
  Base EDID: EDID specified 0 extension block(s), but found 1 extension block(s).

EDID conformity: FAIL
