
EDID (hex):
00ffffffffffff0026cd1d6187010000
1d1c010368341d782a2ac5a4564f9e28
0f5054210800d1c081809500b3008140
010101010101023a801871382d40582c
450009252100001e000000fd00374c18
5311000a202020202020000000ff0031
313335385638373030333931000000fc
00504c5832343831480a2020202000c0

Extracted contents:
header:          00 ff ff ff ff ff ff 00
serial number:   26 cd 1d 61 87 01 00 00 1d 1c
version:         01 03
basic params:    68 34 1d 78 2a
chroma info:     2a c5 a4 56 4f 9e 28 0f 50 54
established:     21 08 00
standard:        d1 c0 81 80 95 00 b3 00 81 40 01 01 01 01 01 01
descriptor 1:    02 3a 80 18 71 38 2d 40 58 2c 45 00 09 25 21 00 00 1e
descriptor 2:    00 00 00 fd 00 37 4c 18 53 11 00 0a 20 20 20 20 20 20
descriptor 3:    00 00 00 ff 00 31 31 33 35 38 56 38 37 30 30 33 39 31
descriptor 4:    00 00 00 fc 00 50 4c 58 32 34 38 31 48 0a 20 20 20 20
extensions:      00
checksum:        c0

EDID version: 1.3
Manufacturer: IVM Model 611d Serial Number --
Made in week 29 of 2018
Analog display, Input voltage level: 0.7/0.7 V
Sync: Separate 
Maximum image size: 52 cm x 29 cm
Gamma: 2.20
DPMS levels: Off
RGB color display
First detailed timing is preferred timing
Display x,y Chromaticity:
  Red:   0.6406, 0.3378
  Green: 0.3105, 0.6191
  Blue:  0.1591, 0.0585
  White: 0.3134, 0.3291
Established timings supported:
  640x480@60Hz 4:3 HorFreq: 31469 Hz Clock: 25.175 MHz
  800x600@60Hz 4:3 HorFreq: 37900 Hz Clock: 40.000 MHz
  1024x768@60Hz 4:3 HorFreq: 48400 Hz Clock: 65.000 MHz
Standard timings supported:
  1920x1080@60Hz 16:9
  1280x1024@60Hz 5:4 HorFreq: 64000 Hz Clock: 108.000 MHz
  1440x900@60Hz 16:10 HorFreq: 55500 Hz Clock: 88.750 MHz
  1680x1050@60Hz 16:10 HorFreq: 64700 Hz Clock: 119.000 MHz
  1280x960@60Hz 4:3 HorFreq: 60000 Hz Clock: 108.000 MHz
Detailed mode: Clock 148.500 MHz, 521 mm x 293 mm
               1920 2008 2052 2200 hborder 0
               1080 1084 1089 1125 vborder 0
               +hsync +vsync 
               VertFreq: 60 Hz, HorFreq: 67500 Hz
Monitor ranges (GTF): 55-76Hz V, 24-83kHz H, max dotclock 170MHz
Serial number: --
Monitor name: PLX2481H
Checksum: 0xc0 (valid)
