
EDID (hex):
00ffffffffffff000daf331400000000
00000103801e13780ac0059857528927
20505400000001010101010101010101
010101010101ab22a0a050841a303020
36002fbe10000019cf1ca0a050841630
302036002fbe10000000000000fe0059
59323732314e31343143310a000000fe
0024333a46628dabff02010a2020001a

Extracted contents:
header:          00 ff ff ff ff ff ff 00
serial number:   0d af 33 14 00 00 00 00 00 00
version:         01 03
basic params:    80 1e 13 78 0a
chroma info:     c0 05 98 57 52 89 27 20 50 54
established:     00 00 00
standard:        01 01 01 01 01 01 01 01 01 01 01 01 01 01 01 01
descriptor 1:    ab 22 a0 a0 50 84 1a 30 30 20 36 00 2f be 10 00 00 19
descriptor 2:    cf 1c a0 a0 50 84 16 30 30 20 36 00 2f be 10 00 00 00
descriptor 3:    00 00 00 fe 00 59 59 32 37 32 31 4e 31 34 31 43 31 0a
descriptor 4:    00 00 00 fe 00 24 33 3a 46 62 8d ab ff 02 01 0a 20 20
extensions:      00
checksum:        1a

EDID version: 1.3
Manufacturer: CMO Model 1433 Serial Number --
Digital display
Maximum image size: 30 cm x 19 cm
Gamma: 2.20
RGB color display
First detailed timing is preferred timing
Display x,y Chromaticity:
  Red:   0.5966, 0.3398
  Green: 0.3203, 0.5351
  Blue:  0.1523, 0.1250
  White: 0.3134, 0.3291
Established timings supported:
Standard timings supported:
Detailed mode: Clock 88.750 MHz, 303 mm x 190 mm
               1440 1488 1520 1600 hborder 0
                900  903  909  926 vborder 0
               -hsync -vsync 
               VertFreq: 59 Hz, HorFreq: 55468 Hz
Detailed mode: Clock 73.750 MHz, 303 mm x 190 mm
               1440 1488 1520 1600 hborder 0
                900  903  909  922 vborder 0
               -hsync -vsync analog composite 
               VertFreq: 49 Hz, HorFreq: 46093 Hz
ASCII string: YY2721N141C1
ASCII string: $3:Fb
Checksum: 0x1a (valid)
EDID block does NOT conform to EDID 1.3!
	Missing name descriptor
	Missing monitor ranges
	Detailed block string not properly terminated
EDID block does not conform at all!
	Bad year of manufacture
