
EDID (hex):
00ffffffffffff0009e53a0a00000000
161f0104a51e1378038615a3544d9b27
0f505400000001010101010101010101
0101010101011a9880a070b064403020
35002ebc1000001a603f80a070b06440
302035002ebc1000001a000000fd0030
90bbbb27010a202020202020000000fe
004e4531343057554d2d4e58310a0048

Extracted contents:
header:          00 ff ff ff ff ff ff 00
serial number:   09 e5 3a 0a 00 00 00 00 16 1f
version:         01 04
basic params:    a5 1e 13 78 03
chroma info:     86 15 a3 54 4d 9b 27 0f 50 54
established:     00 00 00
standard:        01 01 01 01 01 01 01 01 01 01 01 01 01 01 01 01
descriptor 1:    1a 98 80 a0 70 b0 64 40 30 20 35 00 2e bc 10 00 00 1a
descriptor 2:    60 3f 80 a0 70 b0 64 40 30 20 35 00 2e bc 10 00 00 1a
descriptor 3:    00 00 00 fd 00 30 90 bb bb 27 01 0a 20 20 20 20 20 20
descriptor 4:    00 00 00 fe 00 4e 45 31 34 30 57 55 4d 2d 4e 58 31 0a
extensions:      00
checksum:        48

EDID version: 1.4
Manufacturer: BOE Model a3a Serial Number --
Made in week 22 of 2021
Digital display
8 bits per primary color channel
DisplayPort interface
Maximum image size: 30 cm x 19 cm
Gamma: 2.20
Supported color formats: RGB 4:4:4
First detailed timing includes the native pixel format and preferred refresh rate
Display is continuous frequency
Display x,y Chromaticity:
  Red:   0.6386, 0.3281
  Green: 0.3017, 0.6074
  Blue:  0.1523, 0.0595
  White: 0.3134, 0.3291
Established timings supported:
Standard timings supported:
Detailed mode: Clock 389.380 MHz, 302 mm x 188 mm
               1920 1968 2000 2080 hborder 0
               1200 1203 1208 1300 vborder 0
               +hsync -vsync 
               VertFreq: 144 Hz, HorFreq: 187201 Hz
Detailed mode: Clock 162.240 MHz, 302 mm x 188 mm
               1920 1968 2000 2080 hborder 0
               1200 1203 1208 1300 vborder 0
               +hsync -vsync 
               VertFreq: 60 Hz, HorFreq: 78000 Hz
Monitor ranges (bare limits): 48-144Hz V, 187-187kHz H, max dotclock 390MHz
ASCII string: NE140WUM-NX1
Checksum: 0x48 (valid)
EDID block does NOT conform to EDID 1.4!
	Missing name descriptor
Warning: One or more of the timings is out of range of the Monitor Ranges:
  Vertical Freq: 60 - 144 Hz
  Horizontal Freq: 78000 - 187201 Hz
  Maximum Clock: 389.380 MHz
