edid-decode (hex):

00 ff ff ff ff ff ff 00 09 e5 cf 06 00 00 00 00
01 1a 01 04 95 1d 10 78 02 82 60 96 58 57 91 29
1e 50 54 00 00 00 01 01 01 01 01 01 01 01 01 01
01 01 01 01 01 01 c6 1d 56 e2 50 00 1e 30 26 16
44 00 15 9c 10 00 00 1a d2 17 56 e2 50 00 1e 30
26 16 44 00 15 9c 10 00 00 00 00 00 00 fe 00 42
4f 45 20 48 46 0a 20 20 20 20 20 20 00 00 00 fe
00 48 42 31 33 33 57 58 31 2d 34 30 32 0a 00 08

----------------

Block 0, Base EDID:
  EDID Structure Version & Revision: 1.4
  Vendor & Product Identification:
    Manufacturer: BOE
    Model: 1743
    Made in: week 1 of 2016
  Basic Display Parameters & Features:
    Digital display
    Bits per primary color channel: 6
    DisplayPort interface
    Maximum image size: 29 cm x 16 cm
    Gamma: 2.20
    Supported color formats: RGB 4:4:4
    First detailed timing includes the native pixel format and preferred refresh rate
  Color Characteristics:
    Red  : 0.5878, 0.3437
    Green: 0.3398, 0.5683
    Blue : 0.1611, 0.1191
    White: 0.3125, 0.3281
  Established Timings I & II: none
  Standard Timings: none
  Detailed Timing Descriptors:
    DTD 1:  1366x768    59.996096 Hz 683:384   47.877 kHz     76.220000 MHz (277 mm x 156 mm)
                 Hfront   38 Hsync  22 Hback  166 Hpol P
                 Vfront    4 Vsync   4 Vback   22 Vpol N
    DTD 2:  1366x768    48.000025 Hz 683:384   38.304 kHz     60.980000 MHz (analog composite, sync-on-green, 277 mm x 156 mm)
                 Hfront   38 Hsync  22 Hback  166 Hpol N
                 Vfront    4 Vsync   4 Vback   22 Vpol N
    Alphanumeric Data String: 'BOE HF'
    Alphanumeric Data String: 'HB133WX1-402'
Checksum: 0x08

----------------

Warnings:

Block 0, Base EDID:
  Missing Display Product Name.

EDID conformity: PASS
