edid-decode (hex):

00 ff ff ff ff ff ff 00 22 64 12 15 24 10 00 00
2f 0f 01 02 80 20 18 78 0a da 36 94 59 51 8b 29
26 4f 54 00 00 00 01 01 01 01 01 01 01 01 01 01
01 01 01 01 01 01 64 19 00 40 41 00 26 30 18 88
36 00 30 e4 10 00 00 19 00 00 00 fc 00 02 b7 46
5a 01 03 0c 11 50 a0 0f 13 21 00 00 00 fe 00 48
41 4e 4e 53 54 41 52 0a 00 00 00 00 00 00 00 fc
00 48 53 44 31 35 30 50 58 31 37 2d 41 0a 00 5f

----------------

Block 0, Base EDID:
  EDID Structure Version & Revision: 1.2
  Vendor & Product Identification:
    Manufacturer: HSD
    Model: 5394
    Serial Number: ...
    Made in: week 47 of 2005
  Basic Display Parameters & Features:
    Digital display
    Maximum image size: 32 cm x 24 cm
    Gamma: 2.20
    RGB color display
    First detailed timing is preferred timing
  Color Characteristics:
    Red  : 0.5810, 0.3486
    Green: 0.3183, 0.5449
    Blue : 0.1601, 0.1513
    White: 0.3095, 0.3300
  Established Timings I & II: none
  Standard Timings: none
  Detailed Timing Descriptors:
    DTD 1:  1024x768    60.004 Hz   4:3    48.363 kHz  65.000 MHz (304 mm x 228 mm)
                 Hfront   24 Hsync 136 Hback 160 Hpol N
                 Vfront    3 Vsync   6 Vback  29 Vpol N
    Display Product Name: ''
    Alphanumeric Data String: 'HANNSTAR'
    Display Product Name: 'HSD150PX17-A'
Checksum: 0x5f
