
EDID (hex):
00ffffffffffff0030e4540300000000
00160103801d10780afc359658578e29
1f505400000001010101010101010101
010101010101581b566e500016302424
480025a5100000190000000000000000
00000000000000000000000000fe004c
4720446973706c61790a2020000000fe
004c503133335748322d544c463200ea

Extracted contents:
header:          00 ff ff ff ff ff ff 00
serial number:   30 e4 54 03 00 00 00 00 00 16
version:         01 03
basic params:    80 1d 10 78 0a
chroma info:     fc 35 96 58 57 8e 29 1f 50 54
established:     00 00 00
standard:        01 01 01 01 01 01 01 01 01 01 01 01 01 01 01 01
descriptor 1:    58 1b 56 6e 50 00 16 30 24 24 48 00 25 a5 10 00 00 19
descriptor 2:    00 00 00 00 00 00 00 00 00 00 00 00 00 00 00 00 00 00
descriptor 3:    00 00 00 fe 00 4c 47 20 44 69 73 70 6c 61 79 0a 20 20
descriptor 4:    00 00 00 fe 00 4c 50 31 33 33 57 48 32 2d 54 4c 46 32
extensions:      00
checksum:        ea

EDID version: 1.3
Manufacturer: LGD Model 354 Serial Number --
Made in year 2012
Digital display
Maximum image size: 29 cm x 16 cm
Gamma: 2.20
RGB color display
First detailed timing is preferred timing
Display x,y Chromaticity:
  Red:   0.5888, 0.3466
  Green: 0.3427, 0.5546
  Blue:  0.1601, 0.1240
  White: 0.3134, 0.3291
Established timings supported:
Standard timings supported:
Detailed mode: Clock 70.000 MHz, 293 mm x 165 mm
               1366 1402 1438 1476 hborder 0
                768  772  780  790 vborder 0
               -hsync -vsync 
               VertFreq: 60 Hz, HorFreq: 47425 Hz
Manufacturer-specified data, tag 0
ASCII string: LG Display
ASCII string: LP133WH2-TLF2
Checksum: 0xea (valid)
EDID block does NOT conform to EDID 1.3!
	Missing name descriptor
	Missing monitor ranges
