edid-decode (hex):

00 ff ff ff ff ff ff 00 4d 10 a6 14 00 00 00 00
30 1b 01 04 a5 15 0e 78 06 de 50 a3 54 4c 99 26
0f 50 54 00 00 00 01 01 01 01 01 01 01 01 01 01
01 01 01 01 01 01 a4 38 08 a0 70 b0 23 40 30 20
3a 00 d3 8d 00 00 00 18 a4 38 08 a0 70 b0 58 41
30 20 3a 00 d3 8d 00 00 00 18 00 00 00 10 00 00
00 00 00 00 00 00 00 00 00 00 00 00 00 00 00 fc
00 4c 51 31 30 30 50 31 4a 58 35 31 0a 20 00 31

----------------

Block 0, Base EDID:
  EDID Structure Version & Revision: 1.4
  Vendor & Product Identification:
    Manufacturer: SHP
    Model: 5286
    Made in: week 48 of 2017
  Basic Display Parameters & Features:
    Digital display
    Bits per primary color channel: 8
    DisplayPort interface
    Maximum image size: 21 cm x 14 cm
    Gamma: 2.20
    Supported color formats: RGB 4:4:4
    Default (sRGB) color space is primary color space
    First detailed timing includes the native pixel format and preferred refresh rate
  Color Characteristics:
    Red  : 0.6396, 0.3291
    Green: 0.2998, 0.5996
    Blue : 0.1494, 0.0595
    White: 0.3125, 0.3281
  Established Timings I & II: none
  Standard Timings: none
  Detailed Timing Descriptors:
    DTD 1:  1800x1200   59.902504 Hz   3:2     73.980 kHz    145.000000 MHz (211 mm x 141 mm)
                 Hfront   48 Hsync  32 Hback   80 Hpol N
                 Vfront    3 Vsync  10 Vback   22 Vpol N
    DTD 2:  1800x1200   47.914243 Hz   3:2     73.980 kHz    145.000000 MHz (211 mm x 141 mm)
                 Hfront   48 Hsync  32 Hback   80 Hpol N
                 Vfront    3 Vsync  10 Vback  331 Vpol N
    Dummy Descriptor:
    Display Product Name: 'LQ100P1JX51'
Checksum: 0x31

----------------

Failures:

Block 0, Base EDID:
  Basic Display Parameters & Features: sRGB is signaled, but the chromaticities do not match.

EDID conformity: FAIL
