
EDID (hex):
00ffffffffffff005c85042701010101
180f0103803c22782a8e60a555449924
12494bbfef8081cf8180010101010101
010101010101672500a051d023205080
350055502100001c000000fe00576573
74696e67686f7573650a000000fd0032
4b1e500e000a202020202020000000fc
004c434d2d32377734202020200a004a

Extracted contents:
header:          00 ff ff ff ff ff ff 00
serial number:   5c 85 04 27 01 01 01 01 18 0f
version:         01 03
basic params:    80 3c 22 78 2a
chroma info:     8e 60 a5 55 44 99 24 12 49 4b
established:     bf ef 80
standard:        81 cf 81 80 01 01 01 01 01 01 01 01 01 01 01 01
descriptor 1:    67 25 00 a0 51 d0 23 20 50 80 35 00 55 50 21 00 00 1c
descriptor 2:    00 00 00 fe 00 57 65 73 74 69 6e 67 68 6f 75 73 65 0a
descriptor 3:    00 00 00 fd 00 32 4b 1e 50 0e 00 0a 20 20 20 20 20 20
descriptor 4:    00 00 00 fc 00 4c 43 4d 2d 32 37 77 34 20 20 20 20 0a
extensions:      00
checksum:        4a

EDID version: 1.3
Manufacturer: WDE Model 2704 Serial Number --
Digital display
Maximum image size: 60 cm x 34 cm
Gamma: 2.20
DPMS levels: Off
RGB color display
First detailed timing is preferred timing
Display x,y Chromaticity:
  Red:   0.6464, 0.3320
  Green: 0.2685, 0.5996
  Blue:  0.1416, 0.0722
  White: 0.2851, 0.2929
Established timings supported:
  720x400@70Hz 9:5 HorFreq: 31469 Hz Clock: 28.320 MHz
  640x480@60Hz 4:3 HorFreq: 31469 Hz Clock: 25.175 MHz
  640x480@67Hz 4:3 HorFreq: 35000 Hz Clock: 30.240 MHz
  640x480@72Hz 4:3 HorFreq: 37900 Hz Clock: 31.500 MHz
  640x480@75Hz 4:3 HorFreq: 37500 Hz Clock: 31.500 MHz
  800x600@56Hz 4:3 HorFreq: 35200 Hz Clock: 36.000 MHz
  800x600@60Hz 4:3 HorFreq: 37900 Hz Clock: 40.000 MHz
  800x600@72Hz 4:3 HorFreq: 48100 Hz Clock: 50.000 MHz
  800x600@75Hz 4:3 HorFreq: 46900 Hz Clock: 49.500 MHz
  832x624@75Hz 4:3 HorFreq: 49726 Hz Clock: 57.284 MHz
  1024x768@60Hz 4:3 HorFreq: 48400 Hz Clock: 65.000 MHz
  1024x768@70Hz 4:3 HorFreq: 56500 Hz Clock: 75.000 MHz
  1024x768@75Hz 4:3 HorFreq: 60000 Hz Clock: 78.750 MHz
  1280x1024@75Hz 5:4 HorFreq: 80000 Hz Clock: 135.000 MHz
  1152x870@75Hz 192:145 HorFreq: 67500 Hz Clock: 108.000 MHz
Standard timings supported:
  1280x720@75Hz 16:9
  1280x1024@60Hz 5:4 HorFreq: 64000 Hz Clock: 108.000 MHz
Detailed mode: Clock 95.750 MHz, 597 mm x 336 mm
               1280 1360 1488 1696 hborder 0
                720  723  728  755 vborder 0
               -hsync +vsync 
               VertFreq: 74 Hz, HorFreq: 56456 Hz
ASCII string: Westinghouse
Monitor ranges (GTF): 50-75Hz V, 30-80kHz H, max dotclock 140MHz
Monitor name: LCM-27w4    
Checksum: 0x4a (valid)
EDID block does not conform at all!
	Bad year of manufacture
