edid-decode (hex):

00 ff ff ff ff ff ff 00 22 f0 22 42 01 00 00 00
30 14 01 03 80 2c 19 78 ee 59 50 a5 55 4e 9d 25
11 50 54 00 00 00 01 01 01 01 01 01 01 01 01 01
01 01 01 01 01 01 30 2a 40 c8 60 84 64 30 18 50
13 00 bb f9 10 00 00 00 00 00 00 fc 00 48 50 20
43 6f 6d 70 61 71 20 50 72 6f 00 00 00 fc 00 20
34 33 30 30 20 41 69 4f 0a 20 20 20 00 00 00 fc
00 0a 20 20 20 20 20 20 20 20 20 20 20 20 00 39

----------------

Block 0, Base EDID:
  EDID Structure Version & Revision: 1.3
  Vendor & Product Identification:
    Manufacturer: HWP
    Model: 16930
    Serial Number: ...
    Made in: week 48 of 2010
  Basic Display Parameters & Features:
    Digital display
    Maximum image size: 44 cm x 25 cm
    Gamma: 2.20
    DPMS levels: Standby Suspend Off
    RGB color display
    Default (sRGB) color space is primary color space
    First detailed timing is the preferred timing
  Color Characteristics:
    Red  : 0.6455, 0.3330
    Green: 0.3066, 0.6142
    Blue : 0.1455, 0.0673
    White: 0.3125, 0.3281
  Established Timings I & II: none
  Standard Timings: none
  Detailed Timing Descriptors:
    DTD 1:  1600x900    60.000 Hz  16:9    60.000 kHz 108.000 MHz (analog composite, sync-on-green, 443 mm x 249 mm)
                 Hfront   24 Hsync  80 Hback  96 Hpol N
                 Vfront    1 Vsync   3 Vback  96 Vpol N
    Display Product Name: 'HP Compaq Pro'
    Display Product Name: ' 4300 AiO'
    Display Product Name: ''
Checksum: 0x39

----------------

Failures:

Block 0, Base EDID:
  Basic Display Parameters & Features: sRGB is signaled, but the chromaticities do not match.
  Display Product Name: Empty string.
  Missing Display Range Limits Descriptor.

EDID conformity: FAIL
