
EDID (hex):
00ffffffffffff000ce3000001010101
2a15010380301b782ac905a3574b9c25
125054bfef00454a01018180b3000101
010101010101023a801871382d40582c
9600f1241100001e000000ff00353035
3344303031303030310a000000fd003c
4b1f5312000a202020202020000000fc
004c323257310a0a2020202020200050

Extracted contents:
header:          00 ff ff ff ff ff ff 00
serial number:   0c e3 00 00 01 01 01 01 2a 15
version:         01 03
basic params:    80 30 1b 78 2a
chroma info:     c9 05 a3 57 4b 9c 25 12 50 54
established:     bf ef 00
standard:        45 4a 01 01 81 80 b3 00 01 01 01 01 01 01 01 01
descriptor 1:    02 3a 80 18 71 38 2d 40 58 2c 96 00 f1 24 11 00 00 1e
descriptor 2:    00 00 00 ff 00 35 30 35 33 44 30 30 31 30 30 30 31 0a
descriptor 3:    00 00 00 fd 00 3c 4b 1f 53 12 00 0a 20 20 20 20 20 20
descriptor 4:    00 00 00 fc 00 4c 32 32 57 31 0a 0a 20 20 20 20 20 20
extensions:      00
checksum:        50

EDID version: 1.3
Manufacturer: CGC Model 0 Serial Number --
Made in week 42 of 2011
Digital display
Maximum image size: 48 cm x 27 cm
Gamma: 2.20
DPMS levels: Off
RGB color display
First detailed timing is preferred timing
Display x,y Chromaticity:
  Red:   0.6396, 0.3398
  Green: 0.2949, 0.6103
  Blue:  0.1445, 0.0703
  White: 0.3134, 0.3291
Established timings supported:
  720x400@70Hz 9:5 HorFreq: 31469 Hz Clock: 28.320 MHz
  640x480@60Hz 4:3 HorFreq: 31469 Hz Clock: 25.175 MHz
  640x480@67Hz 4:3 HorFreq: 35000 Hz Clock: 30.240 MHz
  640x480@72Hz 4:3 HorFreq: 37900 Hz Clock: 31.500 MHz
  640x480@75Hz 4:3 HorFreq: 37500 Hz Clock: 31.500 MHz
  800x600@56Hz 4:3 HorFreq: 35200 Hz Clock: 36.000 MHz
  800x600@60Hz 4:3 HorFreq: 37900 Hz Clock: 40.000 MHz
  800x600@72Hz 4:3 HorFreq: 48100 Hz Clock: 50.000 MHz
  800x600@75Hz 4:3 HorFreq: 46900 Hz Clock: 49.500 MHz
  832x624@75Hz 4:3 HorFreq: 49726 Hz Clock: 57.284 MHz
  1024x768@60Hz 4:3 HorFreq: 48400 Hz Clock: 65.000 MHz
  1024x768@70Hz 4:3 HorFreq: 56500 Hz Clock: 75.000 MHz
  1024x768@75Hz 4:3 HorFreq: 60000 Hz Clock: 78.750 MHz
  1280x1024@75Hz 5:4 HorFreq: 80000 Hz Clock: 135.000 MHz
Standard timings supported:
  800x600@70Hz 4:3
  1280x1024@60Hz 5:4 HorFreq: 64000 Hz Clock: 108.000 MHz
  1680x1050@60Hz 16:10 HorFreq: 64700 Hz Clock: 119.000 MHz
Detailed mode: Clock 148.500 MHz, 497 mm x 292 mm
               1920 2008 2052 2200 hborder 0
               1080 1089 1095 1125 vborder 0
               +hsync +vsync 
               VertFreq: 60 Hz, HorFreq: 67500 Hz
Serial number: --
Monitor ranges (GTF): 60-75Hz V, 31-83kHz H, max dotclock 180MHz
Monitor name: L22W1
Checksum: 0x50 (valid)
EDID block does NOT conform to EDID 1.3!
	Detailed block string not properly terminated
One or more of the timings is out of range of the Monitor Ranges:
  Vertical Freq: 56 - 75 Hz
  Horizontal Freq: 31469 - 80000 Hz
  Maximum Clock: 148.500 MHz
