edid-decode (hex):

00 ff ff ff ff ff ff 00 0d ae 01 14 00 00 00 00
13 1d 01 04 95 1f 11 78 03 ee 95 a3 54 4c 99 26
0f 50 54 00 00 00 01 01 01 01 01 01 01 01 01 01
01 01 01 01 01 01 a4 38 80 e6 70 38 2c 40 30 20
a6 00 35 ad 10 00 00 1a c3 25 80 e6 70 38 2c 40
30 20 a6 00 35 ad 10 00 00 1a 00 00 00 00 00 00
00 00 00 00 00 00 00 00 00 00 00 00 00 00 00 02
00 0c 26 ff 14 3c c8 09 06 14 c8 00 00 00 00 87

----------------

Block 0, Base EDID:
  EDID Structure Version & Revision: 1.4
  Vendor & Product Identification:
    Manufacturer: CMN
    Model: 5121
    Made in: week 19 of 2019
  Basic Display Parameters & Features:
    Digital display
    Bits per primary color channel: 6
    DisplayPort interface
    Maximum image size: 31 cm x 17 cm
    Gamma: 2.20
    Supported color formats: RGB 4:4:4
    First detailed timing includes the native pixel format and preferred refresh rate
    Display is continuous frequency
  Color Characteristics:
    Red  : 0.6396, 0.3300
    Green: 0.2998, 0.5996
    Blue : 0.1503, 0.0595
    White: 0.3134, 0.3291
  Established Timings I & II: none
  Standard Timings: none
  Detailed Timing Descriptors:
    DTD 1:  1920x1080   60.002 Hz  16:9    67.442 kHz 145.000 MHz (309 mm x 173 mm)
                 Hfront   48 Hsync  32 Hback 150 Hpol P
                 Vfront   10 Vsync   6 Vback  28 Vpol N
    DTD 2:  1920x1080   40.002 Hz  16:9    44.963 kHz  96.670 MHz (309 mm x 173 mm)
                 Hfront   48 Hsync  32 Hback 150 Hpol P
                 Vfront   10 Vsync   6 Vback  28 Vpol N
    Empty Descriptor
    Manufacturer-Specified Display Descriptor (0x02): 00 02 00 0c 26 ff 14 3c c8 09 06 14 c8 00 00 00 '....&..<........'
Checksum: 0x87

----------------

Failures:

Block 0, Base EDID:
  Empty Descriptor: Use Dummy Descriptor instead of all zeroes.
  Missing Display Product Name.
  Missing Display Range Limits Descriptor.

EDID conformity: FAIL
