edid-decode (hex):

00 ff ff ff ff ff ff 00 06 af b0 9b 00 00 00 00
2d 21 01 04 a5 22 16 78 03 c3 75 90 58 58 93 29
1d 50 54 00 00 00 01 01 01 01 01 01 01 01 01 01
01 01 01 01 01 01 dc 99 80 b8 70 b0 80 47 30 20
aa 00 58 d7 10 00 00 18 00 00 00 fd 0c 30 90 c3
c3 27 01 0a 20 20 20 20 20 20 00 00 00 fe 00 3d
4c 32 33 31 31 20 20 20 20 20 20 ff 00 00 00 fc
00 42 31 36 30 55 41 4e 30 38 2e 31 20 0a 01 78

70 20 79 02 00 21 01 1d 77 0d 6a 08 80 07 b0 04
88 0a 19 58 81 b5 93 93 b2 1d 02 35 54 b0 5c b0
5c 00 42 12 78 22 00 14 97 02 06 85 7f 07 b7 00
2f 80 1f 00 af 04 63 00 38 00 09 00 2b 00 0c 27
00 30 8f 00 00 27 00 30 3b 00 00 2e 00 06 00 42
b0 5c b0 5c 81 00 1e 72 1a 00 00 03 01 30 90 00
00 53 ff 53 ff 90 00 00 00 00 e3 05 80 00 e6 06
01 01 53 53 ff 00 00 00 00 00 00 00 00 00 41 90

00 ff ff ff ff ff ff 00 06 af b0 9b 00 00 00 00
2d 21 01 04 a5 22 16 78 03 c3 75 90 58 58 93 29
1d 50 54 00 00 00 01 01 01 01 01 01 01 01 01 01
01 01 01 01 01 01 dc 99 80 b8 70 b0 80 47 30 20
aa 00 58 d7 10 00 00 18 00 00 00 fd 0c 30 90 c3
c3 27 01 0a 20 20 20 20 20 20 00 00 00 fe 00 3d
4c 32 33 31 31 20 20 20 20 20 20 ff 00 00 00 fc
00 42 31 36 30 55 41 4e 30 38 2e 31 20 0a 01 78

70 20 79 02 00 21 01 1d 77 0d 6a 08 80 07 b0 04
88 0a 19 58 81 b5 93 93 b2 1d 02 35 54 b0 5c b0
5c 00 42 12 78 22 00 14 97 02 06 85 7f 07 b7 00
2f 80 1f 00 af 04 63 00 38 00 09 00 2b 00 0c 27
00 30 8f 00 00 27 00 30 3b 00 00 2e 00 06 00 42
b0 5c b0 5c 81 00 1e 72 1a 00 00 03 01 30 90 00
00 53 ff 53 ff 90 00 00 00 00 e3 05 80 00 e6 06
01 01 53 53 ff 00 00 00 00 00 00 00 00 00 41 90

----------------

Block 0, Base EDID:
  EDID Structure Version & Revision: 1.4
  Vendor & Product Identification:
    Manufacturer: AUO
    Model: 39856
    Made in: week 45 of 2023
  Basic Display Parameters & Features:
    Digital display
    Bits per primary color channel: 8
    DisplayPort interface
    Maximum image size: 34 cm x 22 cm
    Gamma: 2.20
    Supported color formats: RGB 4:4:4
    First detailed timing includes the native pixel format and preferred refresh rate
    Display is continuous frequency
  Color Characteristics:
    Red  : 0.5654, 0.3437
    Green: 0.3437, 0.5771
    Blue : 0.1611, 0.1162
    White: 0.3134, 0.3291
  Established Timings I & II: none
  Standard Timings: none
  Detailed Timing Descriptors:
    DTD 1:  1920x1200   60.001706 Hz  16:10   187.205 kHz    393.880000 MHz (344 mm x 215 mm)
                 Hfront   48 Hsync  32 Hback  104 Hpol N
                 Vfront   10 Vsync  10 Vback 1900 Vpol N
    Display Range Limits:
      Monitor ranges (Bare Limits): 48-144 Hz V, 450-450 kHz H, max dotclock 390 MHz
    Alphanumeric Data String: '=L2311      '
    Display Product Name: 'B160UAN08.1 '
  Extension blocks: 1
Checksum: 0x78

----------------

Block 1, DisplayID Extension Block:
  Version: 2.0
  Extension Count: 0
  Display Product Primary Use Case: None of the listed primary use cases; generic display
  Display Parameters Data Block (0x21):
    Image size: 344.7 mm x 215.4 mm
    Display native pixel format: 1920x1200
    Scan Orientation: Left to Right, Top to Bottom
    Luminance Information: Guidance for the Source device
    Color Information: CIE 1931
    Audio Speaker Information: not integrated
    Native Color Chromaticity:
      Primary #1:  (0.564941, 0.343994)
      Primary #2:  (0.343994, 0.576904)
      Primary #3:  (0.160889, 0.115967)
      White Point: (0.312988, 0.328857)
    Native Maximum Luminance (Full Coverage): 300.000000 cd/m^2
    Native Maximum Luminance (10% Rectangular Coverage): 300.000000 cd/m^2
    Native Minimum Luminance: 3.000000 cd/m^2
    Native Color Depth: 10 bpc
    Display Device Technology: Active Matrix LCD
    Display Device Theme Preference: No Preference
    Native Gamma EOTF: 2.20
  Video Timing Modes Type 7 - Detailed Timings Data Block:
    DTD:  1920x1200  144.004095 Hz  16:10   187.205 kHz    393.880000 MHz (aspect 16:10, no 3D stereo, preferred)
               Hfront   48 Hsync  32 Hback  104 Hpol P
               Vfront   57 Vsync  10 Vback   33 Vpol N
  Adaptive Sync Data Block:
    Descriptor #1:
      Native Panel Range
      Fixed Average V-Total and Adaptive V-Total
      'Max Single Frame Duration Increase' field value without jitter impact
      'Max Single Frame Duration Decrease' field value without jitter impact
      Max Duration Increase: 0.00 ms
      Max Duration Decrease: 0.00 ms
      Min Refresh Rate: 48 Hz
      Max Refresh Rate: 144 Hz
    Descriptor #2:
      Native Panel Range
      Fixed Average V-Total and Adaptive V-Total
      'Max Single Frame Duration Increase' field value without jitter impact
      'Max Single Frame Duration Decrease' field value without jitter impact
      Max Duration Increase: 0.00 ms
      Max Duration Decrease: 0.00 ms
      Min Refresh Rate: 48 Hz
      Max Refresh Rate: 60 Hz
  Unknown DisplayID Data Block (0x2e, length 6):
    00 42 b0 5c b0 5c                               '.B.\.\'
  CTA-861 DisplayID Data Block:
  Vendor-Specific Data Block (AMD), OUI 00-00-1A:
    Version: 3.1
    Minimum Refresh Rate: 48 Hz
    Maximum Refresh Rate: 144 Hz
    Flags 1.x: 0x00
    Flags 2.x: 0x00
    Maximum luminance: 83 (301.833 cd/m^2)
    Minimum luminance: 255 (3.018 cd/m^2)
    Unknown: 0x53 0xff
  Colorimetry Data Block:
    BT2020RGB
  HDR Static Metadata Data Block:
    Electro optical transfer functions:
      Traditional gamma - SDR luminance range
    Supported static metadata descriptors:
      Static metadata type 1
    Desired content max luminance: 83 (301.833 cd/m^2)
    Desired content max frame-average luminance: 83 (301.833 cd/m^2)
    Desired content min luminance: 255 (3.018 cd/m^2)
  Checksum: 0x41
Checksum: 0x90

----------------

Block 2, Unknown EDID Extension Block 0x00:
  00 ff ff ff ff ff ff 00 06 af b0 9b 00 00 00 00 '................'
  2d 21 01 04 a5 22 16 78 03 c3 75 90 58 58 93 29 '-!...".x..u.XX.)'
  1d 50 54 00 00 00 01 01 01 01 01 01 01 01 01 01 '.PT.............'
  01 01 01 01 01 01 dc 99 80 b8 70 b0 80 47 30 20 '..........p..G0 '
  aa 00 58 d7 10 00 00 18 00 00 00 fd 0c 30 90 c3 '..X..........0..'
  c3 27 01 0a 20 20 20 20 20 20 00 00 00 fe 00 3d '.'..      .....='
  4c 32 33 31 31 20 20 20 20 20 20 ff 00 00 00 fc 'L2311      .....'
  00 42 31 36 30 55 41 4e 30 38 2e 31 20 0a 01 78 '.B160UAN08.1 ..x'
Checksum: 0x78

----------------

Block 3, DisplayID Extension Block:
  Version: 2.0
  Extension Count: 0
  Display Parameters Data Block (0x21):
    Image size: 344.7 mm x 215.4 mm
    Display native pixel format: 1920x1200
    Scan Orientation: Left to Right, Top to Bottom
    Luminance Information: Guidance for the Source device
    Color Information: CIE 1931
    Audio Speaker Information: not integrated
    Native Color Chromaticity:
      Primary #1:  (0.564941, 0.343994)
      Primary #2:  (0.343994, 0.576904)
      Primary #3:  (0.160889, 0.115967)
      White Point: (0.312988, 0.328857)
    Native Maximum Luminance (Full Coverage): 300.000000 cd/m^2
    Native Maximum Luminance (10% Rectangular Coverage): 300.000000 cd/m^2
    Native Minimum Luminance: 3.000000 cd/m^2
    Native Color Depth: 10 bpc
    Display Device Technology: Active Matrix LCD
    Display Device Theme Preference: No Preference
    Native Gamma EOTF: 2.20
  Video Timing Modes Type 7 - Detailed Timings Data Block:
    DTD:  1920x1200  144.004095 Hz  16:10   187.205 kHz    393.880000 MHz (aspect 16:10, no 3D stereo, preferred)
               Hfront   48 Hsync  32 Hback  104 Hpol P
               Vfront   57 Vsync  10 Vback   33 Vpol N
  Adaptive Sync Data Block:
    Descriptor #1:
      Native Panel Range
      Fixed Average V-Total and Adaptive V-Total
      'Max Single Frame Duration Increase' field value without jitter impact
      'Max Single Frame Duration Decrease' field value without jitter impact
      Max Duration Increase: 0.00 ms
      Max Duration Decrease: 0.00 ms
      Min Refresh Rate: 48 Hz
      Max Refresh Rate: 144 Hz
    Descriptor #2:
      Native Panel Range
      Fixed Average V-Total and Adaptive V-Total
      'Max Single Frame Duration Increase' field value without jitter impact
      'Max Single Frame Duration Decrease' field value without jitter impact
      Max Duration Increase: 0.00 ms
      Max Duration Decrease: 0.00 ms
      Min Refresh Rate: 48 Hz
      Max Refresh Rate: 60 Hz
  Unknown DisplayID Data Block (0x2e, length 6):
    00 42 b0 5c b0 5c                               '.B.\.\'
  CTA-861 DisplayID Data Block:
  Vendor-Specific Data Block (AMD), OUI 00-00-1A:
    Version: 3.1
    Minimum Refresh Rate: 48 Hz
    Maximum Refresh Rate: 144 Hz
    Flags 1.x: 0x00
    Flags 2.x: 0x00
    Maximum luminance: 83 (301.833 cd/m^2)
    Minimum luminance: 255 (3.018 cd/m^2)
    Unknown: 0x53 0xff
  Colorimetry Data Block:
    BT2020RGB
  HDR Static Metadata Data Block:
    Electro optical transfer functions:
      Traditional gamma - SDR luminance range
    Supported static metadata descriptors:
      Static metadata type 1
    Desired content max luminance: 83 (301.833 cd/m^2)
    Desired content max frame-average luminance: 83 (301.833 cd/m^2)
    Desired content min luminance: 255 (3.018 cd/m^2)
  Checksum: 0x41
Checksum: 0x90

----------------

Warnings:

Block 1, DisplayID Extension Block:
  Colorimetry Data Block: Set the sRGB colorimetry bit to avoid interop issues.
Block 3, DisplayID Extension Block:
  Colorimetry Data Block: Set the sRGB colorimetry bit to avoid interop issues.
EDID:
  Base EDID: Some timings are out of range of the Monitor Ranges:
    Horizontal Freq: 187.205 - 187.205 kHz (Monitor: 450.000 - 450.000 kHz)
    Maximum Clock: 393.880 MHz (Monitor: 390.000 MHz)

Failures:

Block 0, Base EDID:
  Alphanumeric Data String: Non-printable character.
  Display Product Name: One or more trailing spaces.
Block 1, DisplayID Extension Block:
  Expected 0 DisplayID Extension Block, but got 1.
Block 2, Base EDID:
  Unknown Extension Block.
Block 3, DisplayID Extension Block:
  Product Type should be 0 in extension block.
  Display Parameters Data Block (0x21): Duplicate Display Parameters Data Block.
  Colorimetry Data Block: Only one instance of this Data Block is allowed.
  HDR Static Metadata Data Block: Only one instance of this Data Block is allowed.
EDID:
  Base EDID: EDID specified 1 extension block(s), but found 3 extension block(s).
  DisplayID: Missing DisplayID Product Identification Data Block.
  DisplayID: Missing DisplayID Display Interface Features Data Block.

EDID conformity: FAIL
