edid-decode (hex):

00 ff ff ff ff ff ff 00 30 e4 0d 02 00 00 00 00
00 13 01 03 80 16 0d 78 0a d3 85 95 59 56 8e 28
20 50 54 00 00 00 01 01 01 01 01 01 01 01 01 01
01 01 01 01 01 01 06 18 00 b8 41 58 64 20 30 20
36 00 e0 7e 00 00 00 1b 00 00 00 00 00 00 00 00
00 00 00 00 00 00 00 00 00 00 00 00 00 fe 00 48
30 31 37 54 80 31 30 31 57 53 41 0a 00 00 00 00
00 00 00 00 00 00 00 00 00 01 01 0a 20 20 00 0a

00 ff ff ff ff ff ff 00 30 e4 0d 02 00 00 00 00
00 13 01 03 80 16 0d 78 0a d3 85 95 59 56 8e 28
20 50 54 00 00 00 01 01 01 01 01 01 01 01 01 01
01 01 01 01 01 01 06 18 00 b8 41 58 64 20 30 20
36 00 e0 7e 00 00 00 1b 00 00 00 00 00 00 00 00
00 00 00 00 00 00 00 00 00 00 00 00 00 fe 00 48
30 31 37 54 80 31 30 31 57 53 41 0a 00 00 00 00
00 00 00 00 00 00 00 00 00 01 01 0a 20 20 00 0a

----------------

Block 0, Base EDID:
  EDID Structure Version & Revision: 1.3
  Vendor & Product Identification:
    Manufacturer: LGD
    Model: 525
    Made in: 2009
  Basic Display Parameters & Features:
    Digital display
    Maximum image size: 22 cm x 13 cm
    Gamma: 2.20
    RGB color display
    First detailed timing is the preferred timing
  Color Characteristics:
    Red  : 0.5849, 0.3486
    Green: 0.3359, 0.5576
    Blue : 0.1582, 0.1250
    White: 0.3134, 0.3291
  Established Timings I & II: none
  Standard Timings: none
  Detailed Timing Descriptors:
    DTD 1:  1024x600    60.011710 Hz 128:75    42.008 kHz     61.500000 MHz (224 mm x 126 mm)
                 Hfront   48 Hsync  32 Hback  360 Hpol P
                 Vfront    3 Vsync   6 Vback   91 Vpol N
    Empty Descriptor
    Alphanumeric Data String: 'H017T'
    Manufacturer-Specified Display Descriptor (0x00): 00 00 00 00 00 00 00 00 00 00 00 01 01 0a 20 20 '..............  '
Checksum: 0x0a

----------------

Block 1, Unknown EDID Extension Block 0x00:
  00 ff ff ff ff ff ff 00 30 e4 0d 02 00 00 00 00 '........0.......'
  00 13 01 03 80 16 0d 78 0a d3 85 95 59 56 8e 28 '.......x....YV.('
  20 50 54 00 00 00 01 01 01 01 01 01 01 01 01 01 ' PT.............'
  01 01 01 01 01 01 06 18 00 b8 41 58 64 20 30 20 '..........AXd 0 '
  36 00 e0 7e 00 00 00 1b 00 00 00 00 00 00 00 00 '6..~............'
  00 00 00 00 00 00 00 00 00 00 00 00 00 fe 00 48 '...............H'
  30 31 37 54 80 31 30 31 57 53 41 0a 00 00 00 00 '017T.101WSA.....'
  00 00 00 00 00 00 00 00 00 01 01 0a 20 20 00 0a '............  ..'
Checksum: 0x0a

----------------

Failures:

Block 0, Base EDID:
  Empty Descriptor: Use Dummy Descriptor instead of all zeroes.
  Alphanumeric Data String: Non-printable character.
  Missing Display Product Name.
  Missing Display Range Limits Descriptor.
Block 1, Base EDID:
  Unknown Extension Block.
EDID:
  Base EDID: EDID specified 0 extension block(s), but found 1 extension block(s).

EDID conformity: FAIL
