
EDID (hex):
00ffffffffffff0026cf8c0400000000
0a190104951a0e780a961096544d8e2d
1a505400000001010101010101010101
010101010101871b568850000e302820
55000090100000190000000000000000
00000000000000000000000000fe0049
6e666f566973696f6e0a2020000000fe
004d3131364e575234205231200a0029

Extracted contents:
header:          00 ff ff ff ff ff ff 00
serial number:   26 cf 8c 04 00 00 00 00 0a 19
version:         01 04
basic params:    95 1a 0e 78 0a
chroma info:     96 10 96 54 4d 8e 2d 1a 50 54
established:     00 00 00
standard:        01 01 01 01 01 01 01 01 01 01 01 01 01 01 01 01
descriptor 1:    87 1b 56 88 50 00 0e 30 28 20 55 00 00 90 10 00 00 19
descriptor 2:    00 00 00 00 00 00 00 00 00 00 00 00 00 00 00 00 00 00
descriptor 3:    00 00 00 fe 00 49 6e 66 6f 56 69 73 69 6f 6e 0a 20 20
descriptor 4:    00 00 00 fe 00 4d 31 31 36 4e 57 52 34 20 52 31 20 0a
extensions:      00
checksum:        29

EDID version: 1.4
Manufacturer: IVO Model 48c Serial Number --
Made in week 10 of 2015
Digital display
6 bits per primary color channel
DisplayPort interface
Maximum image size: 26 cm x 14 cm
Gamma: 2.20
Supported color formats: RGB 4:4:4, YCrCb 4:4:4
First detailed timing includes the native pixel format and preferred refresh rate
Display x,y Chromaticity:
  Red:   0.5878, 0.3291
  Green: 0.3017, 0.5566
  Blue:  0.1757, 0.1025
  White: 0.3125, 0.3281
Established timings supported:
Standard timings supported:
Detailed mode: Clock 70.470 MHz, 256 mm x 144 mm
               1366 1406 1438 1502 hborder 0
                768  773  778  782 vborder 0
               -hsync -vsync 
               VertFreq: 59 Hz, HorFreq: 46917 Hz
Manufacturer-specified data, tag 0
ASCII string: InfoVision
ASCII string: M116NWR4 R1 
Checksum: 0x29 (valid)
EDID block does NOT conform to EDID 1.4!
	Missing name descriptor
	Missing monitor ranges
