edid-decode (hex):

00 ff ff ff ff ff ff 00 30 64 07 22 32 38 37 32
0d 14 01 03 90 1d 12 78 0a 11 a5 97 5a 52 8d 24
23 4e 57 00 00 00 01 01 01 01 01 01 01 01 01 01
01 01 01 01 01 01 3a 20 00 77 51 20 1f 30 48 80
36 00 1f b4 10 00 00 1a fe 15 00 9e 51 20 1f 30
48 80 36 00 1f b4 10 00 00 1a 00 00 00 fe 00 4d
54 32 39 31 80 31 33 33 45 56 33 0a 00 00 00 fe
00 00 00 00 00 00 00 00 00 01 01 0a 20 20 00 22

----------------

Block 0, Base EDID:
  EDID Structure Version & Revision: 1.3
  Vendor & Product Identification:
    Manufacturer: LCD
    Model: 8711
    Serial Number: ...
    Made in: week 13 of 2010
  Basic Display Parameters & Features:
    Digital display
    Maximum image size: 29 cm x 18 cm
    Gamma: 2.20
    RGB color display
    First detailed timing is preferred timing
  Color Characteristics:
    Red  : 0.5898, 0.3525
    Green: 0.3203, 0.5517
    Blue : 0.1425, 0.1386
    White: 0.3056, 0.3408
  Established Timings I & II: none
  Standard Timings: none
  Detailed Timing Descriptors:
    DTD 1:  1280x800    59.987 Hz   8:5    49.849 kHz  82.500 MHz (287 mm x 180 mm)
                 Hfront   72 Hsync 128 Hback 175 Hpol P
                 Vfront    3 Vsync   6 Vback  22 Vpol N
    DTD 2:  1280x800    39.994 Hz   8:5    33.235 kHz  56.300 MHz (287 mm x 180 mm)
                 Hfront   72 Hsync 128 Hback 214 Hpol P
                 Vfront    3 Vsync   6 Vback  22 Vpol N
    SPWG Module Revision: 26
    SPWG Descriptor #3:
      SPWG PC Maker P/N: 'MT291'
      SPWG LCD Supplier EEDID Revision: 128
      SPWG Manufacturer P/N: '133EV3'
    SPWG Descriptor #4:
      SMBUS Values: 0x00 0x00 0x00 0x00 0x00 0x00 0x00 0x00
      LVDS Channels: 1
      Panel Self Test Present
Checksum: 0x22

----------------

Failures:

Block 0, Base EDID:
  Basic Display Parameters & Features: Digital Video Interface Standard set to reserved value 0x10.
  Missing Display Product Name.
  Missing Display Range Limits Descriptor.

EDID conformity: FAIL
