
EDID (hex):
00ffffffffffff000ca33d1400000000
001d0104a5351e780287e5a456509e26
0d505400000001010101010101010101
010101010101684280b8703824401010
3e0035ad100000180000000f00000000
00000000000000000020000000fe0043
45433139323078313038300a000000fe
004231343048414e30312e34200a0039

Extracted contents:
header:          00 ff ff ff ff ff ff 00
serial number:   0c a3 3d 14 00 00 00 00 00 1d
version:         01 04
basic params:    a5 35 1e 78 02
chroma info:     87 e5 a4 56 50 9e 26 0d 50 54
established:     00 00 00
standard:        01 01 01 01 01 01 01 01 01 01 01 01 01 01 01 01
descriptor 1:    68 42 80 b8 70 38 24 40 10 10 3e 00 35 ad 10 00 00 18
descriptor 2:    00 00 00 0f 00 00 00 00 00 00 00 00 00 00 00 00 00 20
descriptor 3:    00 00 00 fe 00 43 45 43 31 39 32 30 78 31 30 38 30 0a
descriptor 4:    00 00 00 fe 00 42 31 34 30 48 41 4e 30 31 2e 34 20 0a
extensions:      00
checksum:        39

EDID version: 1.4
Manufacturer: CEC Model 143d Serial Number --
Made in year 2019
Digital display
8 bits per primary color channel
DisplayPort interface
Maximum image size: 53 cm x 30 cm
Gamma: 2.20
Supported color formats: RGB 4:4:4
First detailed timing includes the native pixel format and preferred refresh rate
Display x,y Chromaticity:
  Red:   0.6425, 0.3359
  Green: 0.3134, 0.6201
  Blue:  0.1513, 0.0527
  White: 0.3134, 0.3291
Established timings supported:
Standard timings supported:
Detailed mode: Clock 170.000 MHz, 309 mm x 173 mm
               1920 1936 1952 2104 hborder 0
               1080 1083 1097 1116 vborder 0
               -hsync -vsync 
               VertFreq: 72 Hz, HorFreq: 80798 Hz
Manufacturer-specified data, tag 15
ASCII string: CEC1920x1080
ASCII string: B140HAN01.4 
Checksum: 0x39 (valid)
EDID block does NOT conform to EDID 1.4!
	Missing name descriptor
	Missing monitor ranges
