edid-decode (hex):

00 ff ff ff ff ff ff 00 41 0c 50 46 01 01 01 01
00 0e 01 03 08 1e 17 82 ee b2 45 a4 55 4c 96 24
14 50 54 23 08 00 01 01 01 01 01 01 01 01 01 01
01 01 01 01 01 01 00 00 00 ff 00 0a 20 20 20 20
20 20 20 20 20 20 20 20 00 00 00 ff 00 0a 20 20
20 20 20 20 20 20 20 20 20 20 00 00 00 fc 00 4d
41 47 4e 41 56 4f 58 0a 20 20 20 20 00 00 00 fd
00 3a 3e 1e 31 07 00 0a 20 20 20 20 20 20 00 e9

----------------

Block 0, Base EDID:
  EDID Structure Version & Revision: 1.3
  Vendor & Product Identification:
    Manufacturer: PHL
    Model: 18000
    Serial Number: ...
    Made in: 2004
  Basic Display Parameters & Features:
    Analog display
    Input voltage level: 0.7/0.3 V
    Blank level equals black level
    Sync: Separate
    Maximum image size: 30 cm x 23 cm
    Gamma: 2.30
    DPMS levels: Standby Suspend Off
    RGB color display
    Default (sRGB) color space is primary color space
    First detailed timing is the preferred timing
  Color Characteristics:
    Red  : 0.6425, 0.3349
    Green: 0.2968, 0.5878
    Blue : 0.1416, 0.0781
    White: 0.3134, 0.3291
  Established Timings I & II:
    DMT 0x04:   640x480    59.940476 Hz   4:3     31.469 kHz     25.175000 MHz
    DMT 0x08:   800x600    56.250000 Hz   4:3     35.156 kHz     36.000000 MHz
    DMT 0x09:   800x600    60.316541 Hz   4:3     37.879 kHz     40.000000 MHz
    DMT 0x10:  1024x768    60.003840 Hz   4:3     48.363 kHz     65.000000 MHz
  Standard Timings: none
  Detailed Timing Descriptors:
    Display Product Serial Number: ...
    Display Product Serial Number: ...
    Display Product Name: 'MAGNAVOX'
    Display Range Limits:
      Monitor ranges (GTF): 58-62 Hz V, 30-49 kHz H, max dotclock 70 MHz
Checksum: 0xe9

----------------

Warnings:

Block 0, Base EDID:
  Basic Display Parameters & Features: sRGB is signaled, but the gamma != 2.2.

Failures:

Block 0, Base EDID:
  Basic Display Parameters & Features: sRGB is signaled, but the chromaticities do not match.
  Standard Timings: Missing preferred timing.
  Display Product Serial Number: ...
  Display Product Serial Number: ...
EDID:
  Base EDID: Some timings are out of range of the Monitor Ranges:
    Vertical Freq: 56.250 - 60.317 Hz (Monitor: 58.000 - 62.000 Hz)

EDID conformity: FAIL
