
EDID (hex):
00ffffffffffff0009e5f30700000000
011c0104a5221378037b80a6544d9b26
11505400000001010101010101010101
0101010101014dd000a0f0703e803020
a50058c21000001ae08a00a0f0703e80
3020a50058c21000001a000000000000
00000000000000000000000000000002
000a29ff0f3cc823123cc800000000ea

Extracted contents:
header:          00 ff ff ff ff ff ff 00
serial number:   09 e5 f3 07 00 00 00 00 01 1c
version:         01 04
basic params:    a5 22 13 78 03
chroma info:     7b 80 a6 54 4d 9b 26 11 50 54
established:     00 00 00
standard:        01 01 01 01 01 01 01 01 01 01 01 01 01 01 01 01
descriptor 1:    4d d0 00 a0 f0 70 3e 80 30 20 a5 00 58 c2 10 00 00 1a
descriptor 2:    e0 8a 00 a0 f0 70 3e 80 30 20 a5 00 58 c2 10 00 00 1a
descriptor 3:    00 00 00 00 00 00 00 00 00 00 00 00 00 00 00 00 00 00
descriptor 4:    00 00 00 02 00 0a 29 ff 0f 3c c8 23 12 3c c8 00 00 00
extensions:      00
checksum:        ea

EDID version: 1.4
Manufacturer: BOE Model 7f3 Serial Number --
Made in week 1 of 2018
Digital display
8 bits per primary color channel
DisplayPort interface
Maximum image size: 34 cm x 19 cm
Gamma: 2.20
Supported color formats: RGB 4:4:4
First detailed timing includes the native pixel format and preferred refresh rate
Display is continuous frequency
Display x,y Chromaticity:
  Red:   0.6494, 0.3310
  Green: 0.3027, 0.6083
  Blue:  0.1503, 0.0664
  White: 0.3125, 0.3281
Established timings supported:
Standard timings supported:
Detailed mode: Clock 533.250 MHz, 344 mm x 194 mm
               3840 3888 3920 4000 hborder 0
               2160 2170 2175 2222 vborder 0
               +hsync -vsync 
               VertFreq: 59 Hz, HorFreq: 133312 Hz
Detailed mode: Clock 355.520 MHz, 344 mm x 194 mm
               3840 3888 3920 4000 hborder 0
               2160 2170 2175 2222 vborder 0
               +hsync -vsync 
               VertFreq: 40 Hz, HorFreq: 88880 Hz
Manufacturer-specified data, tag 0
Manufacturer-specified data, tag 2
Checksum: 0xea (valid)
EDID block does NOT conform to EDID 1.4!
	Missing name descriptor
	Missing monitor ranges
