
EDID (hex):
00ffffffffffff001e6dffff01010101
02130103084627780ad9b0a357499c25
11494b21080031404540614001010101
0101010101016419003041001e303068
3400bc862100001ca00f200031581c20
28801100bc3920000018000000fd003a
3f1f3209000a202020202020000000fc
004c472054560a20202020202020008f

Extracted contents:
header:          00 ff ff ff ff ff ff 00
serial number:   1e 6d ff ff 01 01 01 01 02 13
version:         01 03
basic params:    08 46 27 78 0a
chroma info:     d9 b0 a3 57 49 9c 25 11 49 4b
established:     21 08 00
standard:        31 40 45 40 61 40 01 01 01 01 01 01 01 01 01 01
descriptor 1:    64 19 00 30 41 00 1e 30 30 68 34 00 bc 86 21 00 00 1c
descriptor 2:    a0 0f 20 00 31 58 1c 20 28 80 11 00 bc 39 20 00 00 18
descriptor 3:    00 00 00 fd 00 3a 3f 1f 32 09 00 0a 20 20 20 20 20 20
descriptor 4:    00 00 00 fc 00 4c 47 20 54 56 0a 20 20 20 20 20 20 20
extensions:      00
checksum:        8f

EDID version: 1.3
Manufacturer: GSM Model ffff Serial Number --
Made in week 2 of 2009
Analog display, Input voltage level: 0.7/0.3 V
Sync: Separate 
Maximum image size: 70 cm x 39 cm
Gamma: 2.20
RGB color display
First detailed timing is preferred timing
Display x,y Chromaticity:
  Red:   0.6396, 0.3408
  Green: 0.2871, 0.6103
  Blue:  0.1464, 0.0693
  White: 0.2851, 0.2929
Established timings supported:
  640x480@60Hz 4:3 HorFreq: 31469 Hz Clock: 25.175 MHz
  800x600@60Hz 4:3 HorFreq: 37900 Hz Clock: 40.000 MHz
  1024x768@60Hz 4:3 HorFreq: 48400 Hz Clock: 65.000 MHz
Standard timings supported:
  640x480@60Hz 4:3 HorFreq: 31469 Hz Clock: 25.175 MHz
  800x600@60Hz 4:3 HorFreq: 37900 Hz Clock: 40.000 MHz
  1024x768@60Hz 4:3 HorFreq: 48400 Hz Clock: 65.000 MHz
Detailed mode: Clock 65.000 MHz, 700 mm x 390 mm
               1024 1072 1176 1328 hborder 0
                768  771  775  798 vborder 0
               -hsync +vsync 
               VertFreq: 61 Hz, HorFreq: 48945 Hz
Detailed mode: Clock 40.000 MHz, 700 mm x 57 mm
                800  840  968 1056 hborder 0
                600  601  602  628 vborder 0
               -hsync -vsync 
               VertFreq: 60 Hz, HorFreq: 37878 Hz
Monitor ranges (GTF): 58-63Hz V, 31-50kHz H, max dotclock 90MHz
Monitor name: LG TV
Checksum: 0x8f (valid)
