edid-decode (hex):

00 ff ff ff ff ff ff 00 08 a1 56 25 01 01 01 01
01 23 01 04 b5 2c 21 78 3a 35 85 a6 56 48 9a 24
12 50 54 21 08 00 81 c0 81 80 a9 c0 01 01 01 01
01 01 01 01 01 01 e1 32 40 a0 60 b0 23 40 30 20
34 00 b0 44 11 00 00 1a 00 00 00 fd 00 38 4b 1e
53 11 00 0a 20 20 20 20 20 20 7c 2e 90 a0 60 1a
1e 40 30 20 36 00 b0 44 11 00 00 1a 00 00 00 fc
00 55 32 31 33 2d 44 50 0a 20 20 20 20 20 00 33

00 ff ff ff ff ff ff 00 08 a1 56 25 01 01 01 01
01 23 01 04 b5 2c 21 78 3a 35 85 a6 56 48 9a 24
12 50 54 21 08 00 81 c0 81 80 a9 c0 01 01 01 01
01 01 01 01 01 01 e1 32 40 a0 60 b0 23 40 30 20
34 00 b0 44 11 00 00 1a 00 00 00 fd 00 38 4b 1e
53 11 00 0a 20 20 20 20 20 20 7c 2e 90 a0 60 1a
1e 40 30 20 36 00 b0 44 11 00 00 1a 00 00 00 fc
00 55 32 31 33 2d 44 50 0a 20 20 20 20 20 00 33

----------------

Block 0, Base EDID:
  EDID Structure Version & Revision: 1.4
  Vendor & Product Identification:
    Manufacturer: BEA
    Model: 9558
    Serial Number: ...
    Made in: week 1 of 2025
  Basic Display Parameters & Features:
    Digital display
    Bits per primary color channel: 10
    DisplayPort interface
    Maximum image size: 44 cm x 33 cm
    Gamma: 2.20
    DPMS levels: Off
    Supported color formats: RGB 4:4:4, YCrCb 4:4:4, YCrCb 4:2:2
    First detailed timing includes the native pixel format and preferred refresh rate
  Color Characteristics:
    Red  : 0.6484, 0.3388
    Green: 0.2822, 0.6025
    Blue : 0.1425, 0.0703
    White: 0.3134, 0.3291
  Established Timings I & II:
    DMT 0x04:   640x480    59.940476 Hz   4:3     31.469 kHz     25.175000 MHz
    DMT 0x09:   800x600    60.316541 Hz   4:3     37.879 kHz     40.000000 MHz
    DMT 0x10:  1024x768    60.003840 Hz   4:3     48.363 kHz     65.000000 MHz
  Standard Timings:
    DMT 0x55:  1280x720    60.000000 Hz  16:9     45.000 kHz     74.250000 MHz
    DMT 0x23:  1280x1024   60.019740 Hz   5:4     63.981 kHz    108.000000 MHz
    DMT 0x53:  1600x900    60.000000 Hz  16:9     60.000 kHz    108.000000 MHz (RB)
  Detailed Timing Descriptors:
    DTD 1:  1600x1200   59.923629 Hz   4:3     74.006 kHz    130.250000 MHz (432 mm x 324 mm)
                 Hfront   48 Hsync  32 Hback   80 Hpol P
                 Vfront    3 Vsync   4 Vback   28 Vpol N
    Display Range Limits:
      Monitor ranges (GTF): 56-75 Hz V, 30-83 kHz H, max dotclock 170 MHz
    DTD 2:  1680x1050   59.883253 Hz  16:10    64.674 kHz    119.000000 MHz (432 mm x 324 mm)
                 Hfront   48 Hsync  32 Hback   80 Hpol P
                 Vfront    3 Vsync   6 Vback   21 Vpol N
    Display Product Name: 'U213-DP'
Checksum: 0x33

----------------

Block 1, Unknown EDID Extension Block 0x00:
  00 ff ff ff ff ff ff 00 08 a1 56 25 01 01 01 01 '..........V%....'
  01 23 01 04 b5 2c 21 78 3a 35 85 a6 56 48 9a 24 '.#...,!x:5..VH.$'
  12 50 54 21 08 00 81 c0 81 80 a9 c0 01 01 01 01 '.PT!............'
  01 01 01 01 01 01 e1 32 40 a0 60 b0 23 40 30 20 '.......2@.`.#@0 '
  34 00 b0 44 11 00 00 1a 00 00 00 fd 00 38 4b 1e '4..D.........8K.'
  53 11 00 0a 20 20 20 20 20 20 7c 2e 90 a0 60 1a 'S...      |...`.'
  1e 40 30 20 36 00 b0 44 11 00 00 1a 00 00 00 fc '.@0 6..D........'
  00 55 32 31 33 2d 44 50 0a 20 20 20 20 20 00 33 '.U213-DP.     .3'
Checksum: 0x33

----------------

Warnings:

Block 0, Base EDID:
  Display Range Limits: GTF support is deprecated in EDID 1.4.

Failures:

Block 0, Base EDID:
  Display Range Limits: GTF can't be combined with non-continuous frequencies.
  Detailed Timing Descriptor #2: Invalid detailed timing descriptor ordering.
Block 1, Base EDID:
  Unknown Extension Block.
EDID:
  Base EDID: EDID specified 0 extension block(s), but found 1 extension block(s).

EDID conformity: FAIL
