
EDID (hex):
00ffffffffffff004e160c3301000000
20170103085d3578eaaaaaa054469824
0e484cbfef80814081c09500b300a940
010101010101023a801871382d40582c
4500a20b3200001e000000fd0038551f
4b11000a202020202020000000fc0043
4848574a5420202020202020000000ff
00534e2d3030303030303030310a002d

Extracted contents:
header:          00 ff ff ff ff ff ff 00
serial number:   4e 16 0c 33 01 00 00 00 20 17
version:         01 03
basic params:    08 5d 35 78 ea
chroma info:     aa aa a0 54 46 98 24 0e 48 4c
established:     bf ef 80
standard:        81 40 81 c0 95 00 b3 00 a9 40 01 01 01 01 01 01
descriptor 1:    02 3a 80 18 71 38 2d 40 58 2c 45 00 a2 0b 32 00 00 1e
descriptor 2:    00 00 00 fd 00 38 55 1f 4b 11 00 0a 20 20 20 20 20 20
descriptor 3:    00 00 00 fc 00 43 48 48 57 4a 54 20 20 20 20 20 20 20
descriptor 4:    00 00 00 ff 00 53 4e 2d 30 30 30 30 30 30 30 30 31 0a
extensions:      00
checksum:        2d

EDID version: 1.3
Manufacturer: SPV Model 330c Serial Number --
Made in week 32 of 2013
Analog display, Input voltage level: 0.7/0.3 V
Sync: Separate 
Maximum image size: 93 cm x 53 cm
Gamma: 2.20
DPMS levels: Standby Suspend Off
RGB color display
First detailed timing is preferred timing
Display x,y Chromaticity:
  Red:   0.6269, 0.3300
  Green: 0.2753, 0.5957
  Blue:  0.1425, 0.0566
  White: 0.2832, 0.2988
Established timings supported:
  720x400@70Hz 9:5 HorFreq: 31469 Hz Clock: 28.320 MHz
  640x480@60Hz 4:3 HorFreq: 31469 Hz Clock: 25.175 MHz
  640x480@67Hz 4:3 HorFreq: 35000 Hz Clock: 30.240 MHz
  640x480@72Hz 4:3 HorFreq: 37900 Hz Clock: 31.500 MHz
  640x480@75Hz 4:3 HorFreq: 37500 Hz Clock: 31.500 MHz
  800x600@56Hz 4:3 HorFreq: 35200 Hz Clock: 36.000 MHz
  800x600@60Hz 4:3 HorFreq: 37900 Hz Clock: 40.000 MHz
  800x600@72Hz 4:3 HorFreq: 48100 Hz Clock: 50.000 MHz
  800x600@75Hz 4:3 HorFreq: 46900 Hz Clock: 49.500 MHz
  832x624@75Hz 4:3 HorFreq: 49726 Hz Clock: 57.284 MHz
  1024x768@60Hz 4:3 HorFreq: 48400 Hz Clock: 65.000 MHz
  1024x768@70Hz 4:3 HorFreq: 56500 Hz Clock: 75.000 MHz
  1024x768@75Hz 4:3 HorFreq: 60000 Hz Clock: 78.750 MHz
  1280x1024@75Hz 5:4 HorFreq: 80000 Hz Clock: 135.000 MHz
  1152x870@75Hz 192:145 HorFreq: 67500 Hz Clock: 108.000 MHz
Standard timings supported:
  1280x960@60Hz 4:3 HorFreq: 60000 Hz Clock: 108.000 MHz
  1280x720@60Hz 16:9
  1440x900@60Hz 16:10 HorFreq: 55500 Hz Clock: 88.750 MHz
  1680x1050@60Hz 16:10 HorFreq: 64700 Hz Clock: 119.000 MHz
  1600x1200@60Hz 4:3 HorFreq: 75000 Hz Clock: 162.000 MHz
Detailed mode: Clock 148.500 MHz, 930 mm x 523 mm
               1920 2008 2052 2200 hborder 0
               1080 1084 1089 1125 vborder 0
               +hsync +vsync 
               VertFreq: 60 Hz, HorFreq: 67500 Hz
Monitor ranges (GTF): 56-85Hz V, 31-75kHz H, max dotclock 170MHz
Serial number: --
Checksum: 0x2d (valid)
EDID block does NOT conform to EDID 1.3!
	Name descriptor not terminated with a newline
One or more of the timings is out of range of the Monitor Ranges:
  Vertical Freq: 56 - 75 Hz
  Horizontal Freq: 31469 - 80000 Hz
  Maximum Clock: 162.000 MHz
