
EDID (hex):
00ffffffffffff0009e5b80b00000000
28200104a522167807c115a4554d9f27
0d505400000001010101010101010101
010101010101a2b180c870b064403020
360059d71000001aa2b180c870b04749
3020360059d71000001a000000fd0030
a5d7d72d010a202020202020000000fe
004e5631363057554d2d4e58320a01e5
02031600111a0000030130a500000000
0000a500000000000000000000000000
00000000000000000000000000000000
00000000000000000000000000000000
00000000000000000000000000000000
00000000000000000000000000000000
00000000000000000000000000000000
0000000000000000000000000000003c

edid-decode (hex):

00 ff ff ff ff ff ff 00 09 e5 b8 0b 00 00 00 00
28 20 01 04 a5 22 16 78 07 c1 15 a4 55 4d 9f 27
0d 50 54 00 00 00 01 01 01 01 01 01 01 01 01 01
01 01 01 01 01 01 a2 b1 80 c8 70 b0 64 40 30 20
36 00 59 d7 10 00 00 1a a2 b1 80 c8 70 b0 47 49
30 20 36 00 59 d7 10 00 00 1a 00 00 00 fd 00 30
a5 d7 d7 2d 01 0a 20 20 20 20 20 20 00 00 00 fe
00 4e 56 31 36 30 57 55 4d 2d 4e 58 32 0a 01 e5

02 03 16 00 11 1a 00 00 03 01 30 a5 00 00 00 00
00 00 a5 00 00 00 00 00 00 00 00 00 00 00 00 00
00 00 00 00 00 00 00 00 00 00 00 00 00 00 00 00
00 00 00 00 00 00 00 00 00 00 00 00 00 00 00 00
00 00 00 00 00 00 00 00 00 00 00 00 00 00 00 00
00 00 00 00 00 00 00 00 00 00 00 00 00 00 00 00
00 00 00 00 00 00 00 00 00 00 00 00 00 00 00 00
00 00 00 00 00 00 00 00 00 00 00 00 00 00 00 3c

----------------

Block 0, Base EDID:
  EDID Structure Version & Revision: 1.4
  Vendor & Product Identification:
    Manufacturer: BOE
    Model: 3000
    Made in: week 40 of 2022
  Basic Display Parameters & Features:
    Digital display
    Bits per primary color channel: 8
    DisplayPort interface
    Maximum image size: 34 cm x 22 cm
    Gamma: 2.20
    Supported color formats: RGB 4:4:4
    Default (sRGB) color space is primary color space
    First detailed timing includes the native pixel format and preferred refresh rate
    Display is continuous frequency
  Color Characteristics:
    Red  : 0.6435, 0.3320
    Green: 0.3007, 0.6220
    Blue : 0.1523, 0.0517
    White: 0.3134, 0.3291
  Established Timings I & II: none
  Standard Timings: none
  Detailed Timing Descriptors:
    DTD 1:  1920x1200  165.000000 Hz  16:10   214.500 kHz    454.740000 MHz (345 mm x 215 mm)
                 Hfront   48 Hsync  32 Hback  120 Hpol P
                 Vfront    3 Vsync   6 Vback   91 Vpol N
    DTD 2:  1920x1200   60.000000 Hz  16:10   214.500 kHz    454.740000 MHz (345 mm x 215 mm)
                 Hfront   48 Hsync  32 Hback  120 Hpol P
                 Vfront    3 Vsync   6 Vback 2366 Vpol N
    Display Range Limits:
      Monitor ranges (Bare Limits): 48-165 Hz V, 215-215 kHz H, max dotclock 450 MHz
    Alphanumeric Data String: 'NV160WUM-NX2'
  Extension blocks: 1
Checksum: 0xe5

----------------

Block 1, CTA-861 Extension Block:
  Revision: 3
  Native detailed modes: 0
  Unknown CTA-861 Data Block (tag 0x00, length 17):
    1a 00 00 03 01 30 a5 00 00 00 00 00 00 a5 00 00 '.....0..........'
    00                                              '.'
Checksum: 0x3c  Unused space in Extension Block: 105 bytes
