edid-decode (hex):

00 ff ff ff ff ff ff 00 09 e5 b8 0b 00 00 00 00
28 20 01 04 a5 22 16 78 07 c1 15 a4 55 4d 9f 27
0d 50 54 00 00 00 01 01 01 01 01 01 01 01 01 01
01 01 01 01 01 01 a2 b1 80 c8 70 b0 64 40 30 20
36 00 59 d7 10 00 00 1a a2 b1 80 c8 70 b0 47 49
30 20 36 00 59 d7 10 00 00 1a 00 00 00 fd 00 30
a5 d7 d7 2d 01 0a 20 20 20 20 20 20 00 00 00 fe
00 4e 56 31 36 30 57 55 4d 2d 4e 58 32 0a 01 e5

02 03 16 00 11 1a 00 00 03 01 30 a5 00 00 00 00
00 00 a5 00 00 00 00 00 00 00 00 00 00 00 00 00
00 00 00 00 00 00 00 00 00 00 00 00 00 00 00 00
00 00 00 00 00 00 00 00 00 00 00 00 00 00 00 00
00 00 00 00 00 00 00 00 00 00 00 00 00 00 00 00
00 00 00 00 00 00 00 00 00 00 00 00 00 00 00 00
00 00 00 00 00 00 00 00 00 00 00 00 00 00 00 00
00 00 00 00 00 00 00 00 00 00 00 00 00 00 00 3c

00 ff ff ff ff ff ff 00 09 e5 b8 0b 00 00 00 00
28 20 01 04 a5 22 16 78 07 c1 15 a4 55 4d 9f 27
0d 50 54 00 00 00 01 01 01 01 01 01 01 01 01 01
01 01 01 01 01 01 a2 b1 80 c8 70 b0 64 40 30 20
36 00 59 d7 10 00 00 1a a2 b1 80 c8 70 b0 47 49
30 20 36 00 59 d7 10 00 00 1a 00 00 00 fd 00 30
a5 d7 d7 2d 01 0a 20 20 20 20 20 20 00 00 00 fe
00 4e 56 31 36 30 57 55 4d 2d 4e 58 32 0a 01 e5

02 03 16 00 11 1a 00 00 03 01 30 a5 00 00 00 00
00 00 a5 00 00 00 00 00 00 00 00 00 00 00 00 00
00 00 00 00 00 00 00 00 00 00 00 00 00 00 00 00
00 00 00 00 00 00 00 00 00 00 00 00 00 00 00 00
00 00 00 00 00 00 00 00 00 00 00 00 00 00 00 00
00 00 00 00 00 00 00 00 00 00 00 00 00 00 00 00
00 00 00 00 00 00 00 00 00 00 00 00 00 00 00 00
00 00 00 00 00 00 00 00 00 00 00 00 00 00 00 3c

----------------

Block 0, Base EDID:
  EDID Structure Version & Revision: 1.4
  Vendor & Product Identification:
    Manufacturer: BOE
    Model: 3000
    Made in: week 40 of 2022
  Basic Display Parameters & Features:
    Digital display
    Bits per primary color channel: 8
    DisplayPort interface
    Maximum image size: 34 cm x 22 cm
    Gamma: 2.20
    Supported color formats: RGB 4:4:4
    Default (sRGB) color space is primary color space
    First detailed timing includes the native pixel format and preferred refresh rate
    Display is continuous frequency
  Color Characteristics:
    Red  : 0.6435, 0.3320
    Green: 0.3007, 0.6220
    Blue : 0.1523, 0.0517
    White: 0.3134, 0.3291
  Established Timings I & II: none
  Standard Timings: none
  Detailed Timing Descriptors:
    DTD 1:  1920x1200  165.000000 Hz  16:10   214.500 kHz    454.740000 MHz (345 mm x 215 mm)
                 Hfront   48 Hsync  32 Hback  120 Hpol P
                 Vfront    3 Vsync   6 Vback   91 Vpol N
    DTD 2:  1920x1200   60.000000 Hz  16:10   214.500 kHz    454.740000 MHz (345 mm x 215 mm)
                 Hfront   48 Hsync  32 Hback  120 Hpol P
                 Vfront    3 Vsync   6 Vback 2366 Vpol N
    Display Range Limits:
      Monitor ranges (Bare Limits): 48-165 Hz V, 215-215 kHz H, max dotclock 450 MHz
    Alphanumeric Data String: 'NV160WUM-NX2'
  Extension blocks: 1
Checksum: 0xe5

----------------

Block 1, CTA-861 Extension Block:
  Revision: 3
  Native detailed modes: 0
  Unknown CTA-861 Data Block (tag 0x00, length 17):
    1a 00 00 03 01 30 a5 00 00 00 00 00 00 a5 00 00 '.....0..........'
    00                                              '.'
Checksum: 0x3c  Unused space in Extension Block: 105 bytes

----------------

Block 2, Unknown EDID Extension Block 0x00:
  00 ff ff ff ff ff ff 00 09 e5 b8 0b 00 00 00 00 '................'
  28 20 01 04 a5 22 16 78 07 c1 15 a4 55 4d 9f 27 '( ...".x....UM.''
  0d 50 54 00 00 00 01 01 01 01 01 01 01 01 01 01 '.PT.............'
  01 01 01 01 01 01 a2 b1 80 c8 70 b0 64 40 30 20 '..........p.d@0 '
  36 00 59 d7 10 00 00 1a a2 b1 80 c8 70 b0 47 49 '6.Y.........p.GI'
  30 20 36 00 59 d7 10 00 00 1a 00 00 00 fd 00 30 '0 6.Y..........0'
  a5 d7 d7 2d 01 0a 20 20 20 20 20 20 00 00 00 fe '...-..      ....'
  00 4e 56 31 36 30 57 55 4d 2d 4e 58 32 0a 01 e5 '.NV160WUM-NX2...'
Checksum: 0xe5

----------------

Block 3, CTA-861 Extension Block:
  Revision: 3
  Native detailed modes: 0
  Unknown CTA-861 Data Block (tag 0x00, length 17):
    1a 00 00 03 01 30 a5 00 00 00 00 00 00 a5 00 00 '.....0..........'
    00                                              '.'
Checksum: 0x3c  Unused space in Extension Block: 105 bytes

----------------

Warnings:

Block 0, Base EDID:
  Missing Display Product Name.
Block 1, CTA-861 Extension Block:
  IT Video Formats are overscanned by default, but normally this should be underscanned.
  Unknown CTA-861 Data Block (tag 0x00, length 17).
Block 3, CTA-861 Extension Block:
  IT Video Formats are overscanned by default, but normally this should be underscanned.
  Unknown CTA-861 Data Block (tag 0x00, length 17).
EDID:
  Base EDID: Some timings are out of range of the Monitor Ranges:
    Maximum Clock: 454.740 MHz (Monitor: 450.000 MHz)
    Could be due to a Monitor Range off-by-one rounding issue

Failures:

Block 0, Base EDID:
  Basic Display Parameters & Features: sRGB is signaled, but the chromaticities do not match.
Block 1, CTA-861 Extension Block:
  Required 640x480p60 timings are missing in the established timings and the SVD list (VIC 1).
  Missing VCDB, needed for Set Selectable RGB Quantization to avoid interop issues.
Block 2, Base EDID:
  Unknown Extension Block.
Block 3, CTA-861 Extension Block:
  Required 640x480p60 timings are missing in the established timings and the SVD list (VIC 1).
  Missing VCDB, needed for Set Selectable RGB Quantization to avoid interop issues.
EDID:
  Base EDID: EDID specified 1 extension block(s), but found 3 extension block(s).

EDID conformity: FAIL
