edid-decode (hex):

00 ff ff ff ff ff ff 00 21 65 00 34 00 00 00 00
16 22 01 04 c5 50 21 78 3b 18 e0 ac 50 41 a6 22
10 50 54 21 08 00 d1 c0 01 01 81 c0 a9 c0 01 01
01 01 01 01 01 01 f5 7c 70 a0 d0 a0 29 50 3c 30
35 00 1d 4d 31 00 00 1e 00 00 00 fc 00 53 56 33
34 30 51 42 0a 20 20 20 20 20 00 00 00 fd 00 30
90 f7 f7 64 01 0a 20 20 20 20 20 20 00 00 00 ff
00 30 30 30 30 30 30 30 30 30 30 30 30 31 02 7e

02 03 1e f2 46 10 01 02 03 04 10 23 09 7f 07 83
01 00 00 e3 05 c0 00 e6 06 05 01 62 62 00 44 d0
70 a0 d0 a0 29 50 3c 30 35 00 1d 4d 31 00 00 1e
dc aa 00 a0 a0 38 2d 40 3c 30 35 00 1d 4d 31 00
00 1e 62 8e 00 a0 a0 38 2d 40 3c 30 35 00 1d 4d
31 00 00 1e 31 47 00 a0 a0 38 2d 40 3c 30 35 00
1d 4d 31 00 00 1e 00 00 00 00 00 00 00 00 00 00
00 00 00 00 00 00 00 00 00 00 00 00 00 00 00 d5

70 12 2b 00 00 03 00 28 ea f9 00 08 6f 0d 9f 00
3b 00 2f 00 9f 05 28 00 02 00 04 00 3b 2a 01 08
6f 0d 8b 00 3b 00 2f 00 9f 05 28 00 02 00 04 00
a5 00 00 00 00 00 00 00 00 00 00 00 00 00 00 00
00 00 00 00 00 00 00 00 00 00 00 00 00 00 00 00
00 00 00 00 00 00 00 00 00 00 00 00 00 00 00 00
00 00 00 00 00 00 00 00 00 00 00 00 00 00 00 00
00 00 00 00 00 00 00 00 00 00 00 00 00 00 00 90

00 ff ff ff ff ff ff 00 21 65 00 34 00 00 00 00
16 22 01 04 c5 50 21 78 3b 18 e0 ac 50 41 a6 22
10 50 54 21 08 00 d1 c0 01 01 81 c0 a9 c0 01 01
01 01 01 01 01 01 f5 7c 70 a0 d0 a0 29 50 3c 30
35 00 1d 4d 31 00 00 1e 00 00 00 fc 00 53 56 33
34 30 51 42 0a 20 20 20 20 20 00 00 00 fd 00 30
90 f7 f7 64 01 0a 20 20 20 20 20 20 00 00 00 ff
00 30 30 30 30 30 30 30 30 30 30 30 30 31 02 7e

02 03 1e f2 46 10 01 02 03 04 10 23 09 7f 07 83
01 00 00 e3 05 c0 00 e6 06 05 01 62 62 00 44 d0
70 a0 d0 a0 29 50 3c 30 35 00 1d 4d 31 00 00 1e
dc aa 00 a0 a0 38 2d 40 3c 30 35 00 1d 4d 31 00
00 1e 62 8e 00 a0 a0 38 2d 40 3c 30 35 00 1d 4d
31 00 00 1e 31 47 00 a0 a0 38 2d 40 3c 30 35 00
1d 4d 31 00 00 1e 00 00 00 00 00 00 00 00 00 00
00 00 00 00 00 00 00 00 00 00 00 00 00 00 00 d5

70 12 2b 00 00 03 00 28 ea f9 00 08 6f 0d 9f 00
3b 00 2f 00 9f 05 28 00 02 00 04 00 3b 2a 01 08
6f 0d 8b 00 3b 00 2f 00 9f 05 28 00 02 00 04 00
a5 00 00 00 00 00 00 00 00 00 00 00 00 00 00 00
00 00 00 00 00 00 00 00 00 00 00 00 00 00 00 00
00 00 00 00 00 00 00 00 00 00 00 00 00 00 00 00
00 00 00 00 00 00 00 00 00 00 00 00 00 00 00 00
00 00 00 00 00 00 00 00 00 00 00 00 00 00 00 90

----------------

Block 0, Base EDID:
  EDID Structure Version & Revision: 1.4
  Vendor & Product Identification:
    Manufacturer: HKE
    Model: 13312
    Made in: week 22 of 2024
  Basic Display Parameters & Features:
    Digital display
    Bits per primary color channel: 12
    DisplayPort interface
    Maximum image size: 80 cm x 33 cm
    Gamma: 2.20
    DPMS levels: Off
    Supported color formats: RGB 4:4:4, YCrCb 4:4:4, YCrCb 4:2:2
    First detailed timing includes the native pixel format and preferred refresh rate
    Display is continuous frequency
  Color Characteristics:
    Red  : 0.6718, 0.3134
    Green: 0.2558, 0.6484
    Blue : 0.1357, 0.0644
    White: 0.3125, 0.3281
  Established Timings I & II:
    DMT 0x04:   640x480    59.940476 Hz   4:3     31.469 kHz     25.175000 MHz
    DMT 0x09:   800x600    60.316541 Hz   4:3     37.879 kHz     40.000000 MHz
    DMT 0x10:  1024x768    60.003840 Hz   4:3     48.363 kHz     65.000000 MHz
  Standard Timings:
    DMT 0x52:  1920x1080   60.000000 Hz  16:9     67.500 kHz    148.500000 MHz
    DMT 0x55:  1280x720    60.000000 Hz  16:9     45.000 kHz     74.250000 MHz
    DMT 0x53:  1600x900    60.000000 Hz  16:9     60.000 kHz    108.000000 MHz (RB)
  Detailed Timing Descriptors:
    DTD 1:  3440x1440   59.998875 Hz  43:18    88.858 kHz    319.890000 MHz (797 mm x 333 mm)
                 Hfront   60 Hsync  48 Hback   52 Hpol P
                 Vfront    3 Vsync   5 Vback   33 Vpol P
    Display Product Name: 'SV340QB'
    Display Range Limits:
      Monitor ranges (Bare Limits): 48-144 Hz V, 247-247 kHz H, max dotclock 1000 MHz
    Display Product Serial Number: ...
  Extension blocks: 2
Checksum: 0x7e

----------------

Block 1, CTA-861 Extension Block:
  Revision: 3
  Underscans IT Video Formats by default
  Basic audio support
  Supports YCbCr 4:4:4
  Supports YCbCr 4:2:2
  Native detailed modes: 2
  Video Data Block:
    VIC  16:  1920x1080   60.000000 Hz  16:9     67.500 kHz    148.500000 MHz
    VIC   1:   640x480    59.940476 Hz   4:3     31.469 kHz     25.175000 MHz
    VIC   2:   720x480    59.940060 Hz   4:3     31.469 kHz     27.000000 MHz
    VIC   3:   720x480    59.940060 Hz  16:9     31.469 kHz     27.000000 MHz
    VIC   4:  1280x720    60.000000 Hz  16:9     45.000 kHz     74.250000 MHz
    VIC  16:  1920x1080   60.000000 Hz  16:9     67.500 kHz    148.500000 MHz
  Audio Data Block:
    Linear PCM:
      Max channels: 2
      Supported sample rates (kHz): 192 176.4 96 88.2 48 44.1 32
      Supported sample sizes (bits): 24 20 16
  Speaker Allocation Data Block:
    FL/FR - Front Left/Right
  Colorimetry Data Block:
    BT2020YCC
    BT2020RGB
  HDR Static Metadata Data Block:
    Electro optical transfer functions:
      Traditional gamma - SDR luminance range
      SMPTE ST2084
    Supported static metadata descriptors:
      Static metadata type 1
    Desired content max luminance: 98 (417.710 cd/m^2)
    Desired content max frame-average luminance: 98 (417.710 cd/m^2)
    Desired content min luminance: 0 (0.000 cd/m^2)
  Detailed Timing Descriptors:
    DTD 2:  3440x1440  100.000000 Hz  43:18   148.100 kHz    533.160000 MHz (797 mm x 333 mm)
                 Hfront   60 Hsync  48 Hback   52 Hpol P
                 Vfront    3 Vsync   5 Vback   33 Vpol P
    DTD 3:  2560x1080  142.941176 Hz  64:27   160.809 kHz    437.400000 MHz (797 mm x 333 mm)
                 Hfront   60 Hsync  48 Hback   52 Hpol P
                 Vfront    3 Vsync   5 Vback   37 Vpol P
    DTD 4:  2560x1080  119.117647 Hz  64:27   134.007 kHz    364.500000 MHz (797 mm x 333 mm)
                 Hfront   60 Hsync  48 Hback   52 Hpol P
                 Vfront    3 Vsync   5 Vback   37 Vpol P
    DTD 5:  2560x1080   59.558824 Hz  64:27    67.004 kHz    182.250000 MHz (797 mm x 333 mm)
                 Hfront   60 Hsync  48 Hback   52 Hpol P
                 Vfront    3 Vsync   5 Vback   37 Vpol P
Checksum: 0xd5  Unused space in Extension Block: 25 bytes

----------------

Block 2, DisplayID Extension Block:
  Version: 1.2
  Extension Count: 0
  Display Product Type: Extension Section
  Video Timing Modes Type 1 - Detailed Timings Data Block:
    DTD:  3440x1440  119.999625 Hz   0:0    177.719 kHz    639.790000 MHz (aspect undefined, no 3D stereo)
               Hfront   60 Hsync  48 Hback   52 Hpol N
               Vfront    3 Vsync   5 Vback   33 Vpol N
    DTD:  3440x1440  143.999034 Hz   0:0    213.263 kHz    763.480000 MHz (aspect undefined, no 3D stereo)
               Hfront   60 Hsync  48 Hback   32 Hpol N
               Vfront    3 Vsync   5 Vback   33 Vpol N
  Checksum: 0xa5
Checksum: 0x90  Unused space in Extension Block: 78 bytes

----------------

Block 3, Unknown EDID Extension Block 0x00:
  00 ff ff ff ff ff ff 00 21 65 00 34 00 00 00 00 '........!e.4....'
  16 22 01 04 c5 50 21 78 3b 18 e0 ac 50 41 a6 22 '."...P!x;...PA."'
  10 50 54 21 08 00 d1 c0 01 01 81 c0 a9 c0 01 01 '.PT!............'
  01 01 01 01 01 01 f5 7c 70 a0 d0 a0 29 50 3c 30 '.......|p...)P<0'
  35 00 1d 4d 31 00 00 1e 00 00 00 fc 00 53 56 33 '5..M1........SV3'
  34 30 51 42 0a 20 20 20 20 20 00 00 00 fd 00 30 '40QB.     .....0'
  90 f7 f7 64 01 0a 20 20 20 20 20 20 00 00 00 ff '...d..      ....'
  00 30 30 30 30 30 30 30 30 30 30 30 30 31 02 7e '.0000000000001.~'
Checksum: 0x7e

----------------

Block 4, CTA-861 Extension Block:
  Revision: 3
  Underscans IT Video Formats by default
  Basic audio support
  Supports YCbCr 4:4:4
  Supports YCbCr 4:2:2
  Native detailed modes: 2
  Video Data Block:
    VIC  16:  1920x1080   60.000000 Hz  16:9     67.500 kHz    148.500000 MHz
    VIC   1:   640x480    59.940476 Hz   4:3     31.469 kHz     25.175000 MHz
    VIC   2:   720x480    59.940060 Hz   4:3     31.469 kHz     27.000000 MHz
    VIC   3:   720x480    59.940060 Hz  16:9     31.469 kHz     27.000000 MHz
    VIC   4:  1280x720    60.000000 Hz  16:9     45.000 kHz     74.250000 MHz
    VIC  16:  1920x1080   60.000000 Hz  16:9     67.500 kHz    148.500000 MHz
  Audio Data Block:
    Linear PCM:
      Max channels: 2
      Supported sample rates (kHz): 192 176.4 96 88.2 48 44.1 32
      Supported sample sizes (bits): 24 20 16
  Speaker Allocation Data Block:
    FL/FR - Front Left/Right
  Colorimetry Data Block:
    BT2020YCC
    BT2020RGB
  HDR Static Metadata Data Block:
    Electro optical transfer functions:
      Traditional gamma - SDR luminance range
      SMPTE ST2084
    Supported static metadata descriptors:
      Static metadata type 1
    Desired content max luminance: 98 (417.710 cd/m^2)
    Desired content max frame-average luminance: 98 (417.710 cd/m^2)
    Desired content min luminance: 0 (0.000 cd/m^2)
  Detailed Timing Descriptors:
    DTD 6:  3440x1440  100.000000 Hz  43:18   148.100 kHz    533.160000 MHz (797 mm x 333 mm)
                 Hfront   60 Hsync  48 Hback   52 Hpol P
                 Vfront    3 Vsync   5 Vback   33 Vpol P
    DTD 7:  2560x1080  142.941176 Hz  64:27   160.809 kHz    437.400000 MHz (797 mm x 333 mm)
                 Hfront   60 Hsync  48 Hback   52 Hpol P
                 Vfront    3 Vsync   5 Vback   37 Vpol P
    DTD 8:  2560x1080  119.117647 Hz  64:27   134.007 kHz    364.500000 MHz (797 mm x 333 mm)
                 Hfront   60 Hsync  48 Hback   52 Hpol P
                 Vfront    3 Vsync   5 Vback   37 Vpol P
    DTD 9:  2560x1080   59.558824 Hz  64:27    67.004 kHz    182.250000 MHz (797 mm x 333 mm)
                 Hfront   60 Hsync  48 Hback   52 Hpol P
                 Vfront    3 Vsync   5 Vback   37 Vpol P
Checksum: 0xd5  Unused space in Extension Block: 25 bytes

----------------

Block 5, DisplayID Extension Block:
  Version: 1.2
  Extension Count: 0
  Video Timing Modes Type 1 - Detailed Timings Data Block:
    DTD:  3440x1440  119.999625 Hz   0:0    177.719 kHz    639.790000 MHz (aspect undefined, no 3D stereo)
               Hfront   60 Hsync  48 Hback   52 Hpol N
               Vfront    3 Vsync   5 Vback   33 Vpol N
    DTD:  3440x1440  143.999034 Hz   0:0    213.263 kHz    763.480000 MHz (aspect undefined, no 3D stereo)
               Hfront   60 Hsync  48 Hback   32 Hpol N
               Vfront    3 Vsync   5 Vback   33 Vpol N
  Checksum: 0xa5
Checksum: 0x90  Unused space in Extension Block: 78 bytes

----------------

Warnings:

Block 1, CTA-861 Extension Block:
  Colorimetry Data Block: Set the sRGB colorimetry bit to avoid interop issues.
Block 4, CTA-861 Extension Block:
  Colorimetry Data Block: Set the sRGB colorimetry bit to avoid interop issues.
EDID:
  Base EDID: Some timings are out of range of the Monitor Ranges:
    Horizontal Freq: 31.468 - 213.262 kHz (Monitor: 247.000 - 247.000 kHz)
  CTA-861: Multiple native progressive timings are defined.

Failures:

Block 1, CTA-861 Extension Block:
  Video Data Block: Duplicate VIC 16.
  Missing VCDB, needed for Set Selectable RGB Quantization to avoid interop issues.
Block 2, DisplayID Extension Block:
  DisplayID Base Block has no product type.
  Expected 0 DisplayID Extension Block, but got 1.
Block 3, Base EDID:
  Unknown Extension Block.
Block 4, CTA-861 Extension Block:
  Video Data Block: Duplicate VIC 1.
  Video Data Block: Duplicate VIC 2.
  Video Data Block: Duplicate VIC 3.
  Video Data Block: Duplicate VIC 4.
  Speaker Allocation Data Block: Only one instance of this Data Block is allowed.
  Colorimetry Data Block: Only one instance of this Data Block is allowed.
  HDR Static Metadata Data Block: Only one instance of this Data Block is allowed.
  Missing VCDB, needed for Set Selectable RGB Quantization to avoid interop issues.
EDID:
  Base EDID: EDID specified 2 extension block(s), but found 5 extension block(s).
  DisplayID: Missing DisplayID Product Identification Data Block.
  DisplayID: DisplayID expects at least one preferred timing.

EDID conformity: FAIL
