edid-decode (hex):

00 ff ff ff ff ff ff 00 09 e5 2e 08 00 00 00 00
22 1c 01 04 95 1f 11 78 02 4f d5 96 5d 59 93 29
1f 50 54 00 00 00 01 01 01 01 01 01 01 01 01 01
01 01 01 01 01 01 39 37 80 de 70 38 14 40 30 20
36 00 35 ae 10 00 00 1a 2d 2c 80 de 70 38 14 40
30 20 36 00 35 ae 10 00 00 1a 00 00 00 fe 00 32
58 33 30 4b 80 4e 56 31 34 4e 34 48 00 00 00 00
00 00 41 21 96 00 10 00 00 0a 01 0a 20 20 00 d8

00 ff ff ff ff ff ff 00 09 e5 2e 08 00 00 00 00
22 1c 01 04 95 1f 11 78 02 4f d5 96 5d 59 93 29
1f 50 54 00 00 00 01 01 01 01 01 01 01 01 01 01
01 01 01 01 01 01 39 37 80 de 70 38 14 40 30 20
36 00 35 ae 10 00 00 1a 2d 2c 80 de 70 38 14 40
30 20 36 00 35 ae 10 00 00 1a 00 00 00 fe 00 32
58 33 30 4b 80 4e 56 31 34 4e 34 48 00 00 00 00
00 00 41 21 96 00 10 00 00 0a 01 0a 20 20 00 d8

----------------

Block 0, Base EDID:
  EDID Structure Version & Revision: 1.4
  Vendor & Product Identification:
    Manufacturer: BOE
    Model: 2094
    Made in: week 34 of 2018
  Basic Display Parameters & Features:
    Digital display
    Bits per primary color channel: 6
    DisplayPort interface
    Maximum image size: 31 cm x 17 cm
    Gamma: 2.20
    Supported color formats: RGB 4:4:4
    First detailed timing includes the native pixel format and preferred refresh rate
  Color Characteristics:
    Red  : 0.5869, 0.3632
    Green: 0.3505, 0.5771
    Blue : 0.1630, 0.1220
    White: 0.3134, 0.3291
  Established Timings I & II: none
  Standard Timings: none
  Detailed Timing Descriptors:
    DTD 1:  1920x1080   59.999151 Hz  16:9     65.999 kHz    141.370000 MHz (309 mm x 174 mm)
                 Hfront   48 Hsync  32 Hback  142 Hpol P
                 Vfront    3 Vsync   6 Vback   11 Vpol N
    DTD 2:  1920x1080   47.996774 Hz  16:9     52.796 kHz    113.090000 MHz (309 mm x 174 mm)
                 Hfront   48 Hsync  32 Hback  142 Hpol P
                 Vfront    3 Vsync   6 Vback   11 Vpol N
    Alphanumeric Data String: '2X30K'
    Manufacturer-Specified Display Descriptor (0x00): 00 00 00 00 41 21 96 00 10 00 00 0a 01 0a 20 20 '....A!........  '
Checksum: 0xd8

----------------

Block 1, Unknown EDID Extension Block 0x00:
  00 ff ff ff ff ff ff 00 09 e5 2e 08 00 00 00 00 '................'
  22 1c 01 04 95 1f 11 78 02 4f d5 96 5d 59 93 29 '"......x.O..]Y.)'
  1f 50 54 00 00 00 01 01 01 01 01 01 01 01 01 01 '.PT.............'
  01 01 01 01 01 01 39 37 80 de 70 38 14 40 30 20 '......97..p8.@0 '
  36 00 35 ae 10 00 00 1a 2d 2c 80 de 70 38 14 40 '6.5.....-,..p8.@'
  30 20 36 00 35 ae 10 00 00 1a 00 00 00 fe 00 32 '0 6.5..........2'
  58 33 30 4b 80 4e 56 31 34 4e 34 48 00 00 00 00 'X30K.NV14N4H....'
  00 00 41 21 96 00 10 00 00 0a 01 0a 20 20 00 d8 '..A!........  ..'
Checksum: 0xd8

----------------

Warnings:

Block 0, Base EDID:
  Missing Display Product Name.

Failures:

Block 0, Base EDID:
  Alphanumeric Data String: Non-printable character.
Block 1, Base EDID:
  Unknown Extension Block.
EDID:
  Base EDID: EDID specified 0 extension block(s), but found 1 extension block(s).

EDID conformity: FAIL
