
EDID (hex):
00ffffffffffff0034a462872bb78912
310d01030820181b285c119e59479b27
10484f244b0031594559714f61596168
815945680101de0dd0d820902e102448
130036e61000001c000000fc004d4431
37383650410a20202020000000fd0032
781e560f000a202020202020000000ff
003331313031353231310a20202000aa

edid-decode (hex):

00 ff ff ff ff ff ff 00 34 a4 62 87 2b b7 89 12
31 0d 01 03 08 20 18 1b 28 5c 11 9e 59 47 9b 27
10 48 4f 24 4b 00 31 59 45 59 71 4f 61 59 61 68
81 59 45 68 01 01 de 0d d0 d8 20 90 2e 10 24 48
13 00 36 e6 10 00 00 1c 00 00 00 fc 00 4d 44 31
37 38 36 50 41 0a 20 20 20 20 00 00 00 fd 00 32
78 1e 56 0f 00 0a 20 20 20 20 20 20 00 00 00 ff
00 33 31 31 30 31 35 32 31 31 0a 20 20 20 00 aa

----------------

Block 0, Base EDID:
  EDID Structure Version & Revision: 1.3
  Vendor & Product Identification:
    Manufacturer: MED
    Model: 34658
    Serial Number: 311015211
    Made in: week 49 of 2003
  Basic Display Parameters & Features:
    Analog display
    Signal Level Standard: 0.700 : 0.300 : 1.000 V p-p
    Blank level equals black level
    Sync: Separate
    Maximum image size: 32 cm x 24 cm
    Gamma: 1.27
    DPMS levels: Off
    RGB color display
  Color Characteristics:
    Red  : 0.6181, 0.3486
    Green: 0.2802, 0.6054
    Blue : 0.1523, 0.0634
    White: 0.2812, 0.3095
  Established Timings I & II:
    DMT 0x04:   640x480    59.940476 Hz   4:3     31.469 kHz     25.175000 MHz
    DMT 0x06:   640x480    75.000000 Hz   4:3     37.500 kHz     31.500000 MHz
    DMT 0x0b:   800x600    75.000000 Hz   4:3     46.875 kHz     49.500000 MHz
    DMT 0x10:  1024x768    60.003840 Hz   4:3     48.363 kHz     65.000000 MHz
    DMT 0x12:  1024x768    75.028582 Hz   4:3     60.023 kHz     78.750000 MHz
    DMT 0x24:  1280x1024   75.024675 Hz   5:4     79.976 kHz    135.000000 MHz
  Standard Timings:
    DMT 0x07:   640x480    85.008312 Hz   4:3     43.269 kHz     36.000000 MHz
    DMT 0x0c:   800x600    85.061274 Hz   4:3     53.674 kHz     56.250000 MHz
    DMT 0x15:  1152x864    75.000000 Hz   4:3     67.500 kHz    108.000000 MHz
    DMT 0x13:  1024x768    84.996690 Hz   4:3     68.677 kHz     94.500000 MHz
    GTF     :  1024x768   100.000177 Hz   4:3     81.400 kHz    113.309000 MHz
    DMT 0x21:  1280x960    85.002473 Hz   4:3     85.938 kHz    148.500000 MHz
    GTF     :   800x600    99.999707 Hz   4:3     63.600 kHz     68.179000 MHz
  Detailed Timing Descriptors:
    DTD 1:   720x400    85.038902 Hz   9:5     37.927 kHz     35.500000 MHz (310 mm x 230 mm)
                 Hfront   36 Hsync  72 Hback  108 Hpol N
                 Vfront    1 Vsync   3 Vback   42 Vpol P
    Display Product Name: 'MD1786PA'
    Display Range Limits:
      Monitor ranges (GTF): 50-120 Hz V, 30-86 kHz H, max dotclock 150 MHz
    Display Product Serial Number: '311015211'
Checksum: 0xaa
