
EDID (hex):
00ffffffffffff005c2d003001000000
191e010380422678deee95a3544c9926
0f5054a7cb0081c0818095000101b300
d1c001010101b84700a0a0382d403020
350055502100001a4aaa00a0a0382140
3040350055502100001a000000fd003c
c81ee93c010a202020202020000000fc
00554733300a20202020202020200158
02033bf148010203049012131f230907
07830100006a030c0010003878200000
67d85dc40178c000681a0000010130c8
ede305e301e6060700605006e90078a0
3821403040360056502100001ebbd100
78a0382140304036006ee53100001e70
8f00a0a0382d4030403500556b210000
1e0000000000000000000000000000e9

Extracted contents:
header:          00 ff ff ff ff ff ff 00
serial number:   5c 2d 00 30 01 00 00 00 19 1e
version:         01 03
basic params:    80 42 26 78 de
chroma info:     ee 95 a3 54 4c 99 26 0f 50 54
established:     a7 cb 00
standard:        81 c0 81 80 95 00 01 01 b3 00 d1 c0 01 01 01 01
descriptor 1:    b8 47 00 a0 a0 38 2d 40 30 20 35 00 55 50 21 00 00 1a
descriptor 2:    4a aa 00 a0 a0 38 21 40 30 40 35 00 55 50 21 00 00 1a
descriptor 3:    00 00 00 fd 00 3c c8 1e e9 3c 01 0a 20 20 20 20 20 20
descriptor 4:    00 00 00 fc 00 55 47 33 30 0a 20 20 20 20 20 20 20 20
extensions:      01
checksum:        58

EDID version: 1.3
Manufacturer: WAM Model 3000 Serial Number --
Made in week 25 of 2020
Digital display
Maximum image size: 66 cm x 38 cm
Gamma: 2.20
DPMS levels: Standby Suspend
Undefined display color type
Default (sRGB) color space is primary color space
First detailed timing is preferred timing
Display x,y Chromaticity:
  Red:   0.6396, 0.3300
  Green: 0.2998, 0.5996
  Blue:  0.1503, 0.0595
  White: 0.3134, 0.3291
Established timings supported:
  720x400@70Hz 9:5 HorFreq: 31469 Hz Clock: 28.320 MHz
  640x480@60Hz 4:3 HorFreq: 31469 Hz Clock: 25.175 MHz
  640x480@75Hz 4:3 HorFreq: 37500 Hz Clock: 31.500 MHz
  800x600@56Hz 4:3 HorFreq: 35200 Hz Clock: 36.000 MHz
  800x600@60Hz 4:3 HorFreq: 37900 Hz Clock: 40.000 MHz
  800x600@72Hz 4:3 HorFreq: 48100 Hz Clock: 50.000 MHz
  800x600@75Hz 4:3 HorFreq: 46900 Hz Clock: 49.500 MHz
  1024x768@60Hz 4:3 HorFreq: 48400 Hz Clock: 65.000 MHz
  1024x768@75Hz 4:3 HorFreq: 60000 Hz Clock: 78.750 MHz
  1280x1024@75Hz 5:4 HorFreq: 80000 Hz Clock: 135.000 MHz
Standard timings supported:
  1280x720@60Hz 16:9
  1280x1024@60Hz 5:4 HorFreq: 64000 Hz Clock: 108.000 MHz
  1440x900@60Hz 16:10 HorFreq: 55500 Hz Clock: 88.750 MHz
  1680x1050@60Hz 16:10 HorFreq: 64700 Hz Clock: 119.000 MHz
  1920x1080@60Hz 16:9
Detailed mode: Clock 183.600 MHz, 597 mm x 336 mm
               2560 2608 2640 2720 hborder 0
               1080 1083 1088 1125 vborder 0
               +hsync -vsync 
               VertFreq: 60 Hz, HorFreq: 67500 Hz
Detailed mode: Clock 435.940 MHz, 597 mm x 336 mm
               2560 2608 2672 2720 hborder 0
               1080 1083 1088 1113 vborder 0
               +hsync -vsync 
               VertFreq: 144 Hz, HorFreq: 160272 Hz
Monitor ranges (bare limits): 60-200Hz V, 30-233kHz H, max dotclock 600MHz
Monitor name: UG30
Has 1 extension blocks
Checksum: 0x58 (valid)

CTA extension block
Extension version: 3
55 bytes of CTA data
  Video data block
    VIC   1 640x480@60Hz 4:3  HorFreq: 31469 Hz Clock: 25.175 MHz
    VIC   2 720x480@60Hz 4:3  HorFreq: 31469 Hz Clock: 27.000 MHz
    VIC   3 720x480@60Hz 16:9  HorFreq: 31469 Hz Clock: 27.000 MHz
    VIC   4 1280x720@60Hz 16:9  HorFreq: 45000 Hz Clock: 74.250 MHz
    VIC  16 1920x1080@60Hz 16:9 (native) HorFreq: 67500 Hz Clock: 148.500 MHz
    VIC  18 720x576@50Hz 16:9  HorFreq: 31250 Hz Clock: 27.000 MHz
    VIC  19 1280x720@50Hz 16:9  HorFreq: 37500 Hz Clock: 74.250 MHz
    VIC  31 1920x1080@50Hz 16:9  HorFreq: 56250 Hz Clock: 148.500 MHz
  Audio data block
    Linear PCM, max channels 2
      Supported sample rates (kHz): 48 44.1 32
      Supported sample sizes (bits): 24 20 16
  Speaker allocation data block
    Speaker map:
      FL/FR - Front Left/Right
  Vendor-specific data block, OUI 000c03 (HDMI)
    Source physical address 1.0.0.0
    DC_36bit
    DC_30bit
    DC_Y444
    Maximum TMDS clock: 600MHz
    Extended HDMI video details:
  Vendor-specific data block, OUI c45dd8 (HDMI Forum)
    Version: 1
    Maximum TMDS Character Rate: 600MHz
    SCDC Present
    SCDC Read Request Capable
  Vendor-specific data block, OUI 00001a
  Extended tag: Colorimetry data block
    xvYCC601
    xvYCC709
    BT2020cYCC
    BT2020YCC
    BT2020RGB
  Extended tag: HDR static metadata data block
    Electro optical transfer functions:
      Traditional gamma - SDR luminance range
      Traditional gamma - HDR luminance range
      SMPTE ST2084
    Supported static metadata descriptors:
    Desired content max luminance: 96 (400.000 cd/m^2)
    Desired content max frame-average luminance: 80 (282.843 cd/m^2)
    Desired content min luminance: 6 (0.002 cd/m^2)
Underscans PC formats by default
Basic audio support
Supports YCbCr 4:4:4
Supports YCbCr 4:2:2
1 native detailed modes
Detailed mode: Clock 596.540 MHz, 598 mm x 336 mm
               2560 2608 2672 2680 hborder 0
               1080 1083 1089 1113 vborder 0
               +hsync +vsync 
               VertFreq: 199 Hz, HorFreq: 222589 Hz
Detailed mode: Clock 536.910 MHz, 878 mm x 485 mm
               2560 2608 2672 2680 hborder 0
               1080 1083 1089 1113 vborder 0
               +hsync +vsync 
               VertFreq: 179 Hz, HorFreq: 200339 Hz
Detailed mode: Clock 367.200 MHz, 597 mm x 363 mm
               2560 2608 2672 2720 hborder 0
               1080 1083 1088 1125 vborder 0
               +hsync +vsync 
               VertFreq: 120 Hz, HorFreq: 135000 Hz
Checksum: 0xe9 (valid)

EDID block does NOT conform to EDID 1.3!
	sRGB is signaled, but the chromaticities do not match
	HDMI VSDB Max TMDS rate is > 340
EDID block does not conform at all!
	Detailed blocks filled with garbage
	Range descriptor contains garbage
