
EDID (hex):
00ffffffffffff00446d010001000000
1b10010380070f780a0dc9a057479827
12484c00000001010101010101010101
010101010101994738ac40602890500c
4a040000000000000000000000000000
00000000000000000000000000000000
000000000000000000000000000000fe
006d6970695f6d6f745f7669645f0060

edid-decode (hex):

00 ff ff ff ff ff ff 00 44 6d 01 00 01 00 00 00
1b 10 01 03 80 07 0f 78 0a 0d c9 a0 57 47 98 27
12 48 4c 00 00 00 01 01 01 01 01 01 01 01 01 01
01 01 01 01 01 01 99 47 38 ac 40 60 28 90 50 0c
4a 04 00 00 00 00 00 00 00 00 00 00 00 00 00 00
00 00 00 00 00 00 00 00 00 00 00 00 00 00 00 00
00 00 00 00 00 00 00 00 00 00 00 00 00 00 00 fe
00 6d 69 70 69 5f 6d 6f 74 5f 76 69 64 5f 00 60

----------------

Block 0, Base EDID:
  EDID Structure Version & Revision: 1.3
  Vendor & Product Identification:
    Manufacturer: QCM
    Model: 1
    Serial Number: 1
    Made in: week 27 of 2006
  Basic Display Parameters & Features:
    Digital display
    Maximum image size: 7 cm x 15 cm
    Gamma: 2.20
    RGB color display
    First detailed timing is the preferred timing
  Color Characteristics:
    Red  : 0.6250, 0.3398
    Green: 0.2802, 0.5947
    Blue : 0.1552, 0.0703
    White: 0.2832, 0.2978
  Established Timings I & II: none
  Standard Timings: none
  Detailed Timing Descriptors:
    DTD 1:  1080x2400   59.999083 Hz   9:20   146.398 kHz    183.290000 MHz (analog composite, sync-on-green)
                 Hfront   80 Hsync  12 Hback   80 Hpol N
                 Vfront   20 Vsync  10 Vback   10 Vpol N
    Empty Descriptor
    Empty Descriptor
    Alphanumeric Data String: 'mipi_mot_vid_'
Checksum: 0x60
