edid-decode (hex):

00 ff ff ff ff ff ff 00 44 6d 01 00 01 00 00 00
1b 10 01 03 80 06 0f 78 0a 0d c9 a0 57 47 98 27
12 48 4c 00 00 00 01 01 01 01 01 01 01 01 01 01
01 01 01 01 01 01 8c 38 38 34 40 60 10 92 16 0a
44 00 00 00 00 00 00 00 8c 38 38 34 40 60 e0 95
16 0a 44 04 00 00 00 00 00 00 8c 38 38 34 40 60
80 9d 16 0a 44 0c 00 00 00 00 00 00 00 00 00 fe
00 6d 69 70 69 5f 6d 6f 74 5f 76 69 64 5f 00 47

00 ff ff ff ff ff ff 00 44 6d 01 00 01 00 00 00
1b 10 01 03 80 06 0f 78 0a 0d c9 a0 57 47 98 27
12 48 4c 00 00 00 01 01 01 01 01 01 01 01 01 01
01 01 01 01 01 01 8c 38 38 34 40 60 10 92 16 0a
44 00 00 00 00 00 00 00 8c 38 38 34 40 60 e0 95
16 0a 44 04 00 00 00 00 00 00 8c 38 38 34 40 60
80 9d 16 0a 44 0c 00 00 00 00 00 00 00 00 00 fe
00 6d 69 70 69 5f 6d 6f 74 5f 76 69 64 5f 00 47

----------------

Block 0, Base EDID:
  EDID Structure Version & Revision: 1.3
  Vendor & Product Identification:
    Manufacturer: QCM
    Model: 1
    Serial Number: ...
    Made in: week 27 of 2006
  Basic Display Parameters & Features:
    Digital display
    Maximum image size: 6 cm x 15 cm
    Gamma: 2.20
    RGB color display
    First detailed timing is the preferred timing
  Color Characteristics:
    Red  : 0.6250, 0.3398
    Green: 0.2802, 0.5947
    Blue : 0.1552, 0.0703
    White: 0.2832, 0.2978
  Established Timings I & II: none
  Standard Timings: none
  Detailed Timing Descriptors:
    DTD 1:  1080x2400   43.674815 Hz   9:20   127.880 kHz    144.760000 MHz (analog composite, sync-on-green)
                 Hfront   22 Hsync  10 Hback   20 Hpol N
                 Vfront    4 Vsync   4 Vback  520 Vpol N
    DTD 2:  1080x2400   32.756111 Hz   9:20   127.880 kHz    144.760000 MHz (analog composite, sync-on-green)
                 Hfront   22 Hsync  10 Hback   20 Hpol N
                 Vfront   20 Vsync   4 Vback 1480 Vpol N
    DTD 3:  1080x2400   21.837408 Hz   9:20   127.880 kHz    144.760000 MHz (analog composite, sync-on-green)
                 Hfront   22 Hsync  10 Hback   20 Hpol N
                 Vfront   52 Vsync   4 Vback 3400 Vpol N
    Alphanumeric Data String: 'mipi_mot_vid_'
Checksum: 0x47

----------------

Block 1, Unknown EDID Extension Block 0x00:
  00 ff ff ff ff ff ff 00 44 6d 01 00 01 00 00 00 '........Dm......'
  1b 10 01 03 80 06 0f 78 0a 0d c9 a0 57 47 98 27 '.......x....WG.''
  12 48 4c 00 00 00 01 01 01 01 01 01 01 01 01 01 '.HL.............'
  01 01 01 01 01 01 8c 38 38 34 40 60 10 92 16 0a '.......884@`....'
  44 00 00 00 00 00 00 00 8c 38 38 34 40 60 e0 95 'D........884@`..'
  16 0a 44 04 00 00 00 00 00 00 8c 38 38 34 40 60 '..D........884@`'
  80 9d 16 0a 44 0c 00 00 00 00 00 00 00 00 00 fe '....D...........'
  00 6d 69 70 69 5f 6d 6f 74 5f 76 69 64 5f 00 47 '.mipi_mot_vid_.G'
Checksum: 0x47

----------------

Warnings:

Block 0, Base EDID:
  Basic Display Parameters & Features: Dubious maximum image size (6x15 is smaller than 10x10 cm).

Failures:

Block 0, Base EDID:
  Detailed Timing Descriptor #1: Mismatch of image size vs display size: image size is not set, but display size is.
  Detailed Timing Descriptor #2: Mismatch of image size vs display size: image size is not set, but display size is.
  Detailed Timing Descriptor #3: Mismatch of image size vs display size: image size is not set, but display size is.
  Missing Display Product Name.
  Missing Display Range Limits Descriptor.
Block 1, Base EDID:
  Unknown Extension Block.
EDID:
  Base EDID: EDID specified 0 extension block(s), but found 1 extension block(s).

EDID conformity: FAIL
