edid-decode (hex):

00 ff ff ff ff ff ff 00 31 03 00 49 00 00 00 00
10 1e 01 04 b5 78 22 78 3f af e5 ab 54 35 b5 23
14 50 54 a5 4b 00 d1 c0 b3 00 95 00 81 80 81 c0
81 40 a9 c0 71 cf 95 69 00 c8 f0 38 23 40 30 20
35 00 ac 50 41 00 00 1a 11 d1 00 a0 f0 38 23 40
30 20 35 00 ac 50 41 00 00 1a 00 00 00 fc 00 50
47 4d 34 39 30 0a 20 20 20 20 20 20 00 00 00 fd
00 30 78 88 88 3f 01 0a 20 20 20 20 20 20 01 66

02 03 28 f4 50 01 02 03 04 90 12 13 1f 11 59 3f
5d 5e 5f 60 61 23 09 7f 07 83 01 00 00 e3 05 e3
01 e6 06 07 01 60 59 27 73 f6 00 64 f0 38 20 40
24 20 35 00 ac 50 41 00 00 1a f3 7f 80 78 70 38
23 40 30 20 35 00 ac 50 41 00 00 1e 15 47 00 a0
a0 38 23 40 30 20 35 00 ac 50 41 00 00 1e 00 00
00 00 00 00 00 00 00 00 00 00 00 00 00 00 00 00
00 00 00 00 00 00 00 00 00 00 00 00 00 00 00 c6

----------------

Block 0, Base EDID:
  EDID Structure Version & Revision: 1.4
  Vendor & Product Identification:
    Manufacturer: LHC
    Model: 18688
    Made in: week 16 of 2020
  Basic Display Parameters & Features:
    Digital display
    Bits per primary color channel: 10
    DisplayPort interface
    Maximum image size: 120 cm x 34 cm
    Gamma: 2.20
    DPMS levels: Off
    Supported color formats: RGB 4:4:4, YCrCb 4:4:4, YCrCb 4:2:2
    Default (sRGB) color space is primary color space
    First detailed timing includes the native pixel format and preferred refresh rate
    Display is continuous frequency
  Color Characteristics:
    Red  : 0.6699, 0.3300
    Green: 0.2099, 0.7099
    Blue : 0.1396, 0.0800
    White: 0.3134, 0.3291
  Established Timings I & II:
    IBM     :   720x400    70.082 Hz   9:5    31.467 kHz  28.320 MHz
    DMT 0x04:   640x480    59.940 Hz   4:3    31.469 kHz  25.175 MHz
    DMT 0x06:   640x480    75.000 Hz   4:3    37.500 kHz  31.500 MHz
    DMT 0x09:   800x600    60.317 Hz   4:3    37.879 kHz  40.000 MHz
    DMT 0x0b:   800x600    75.000 Hz   4:3    46.875 kHz  49.500 MHz
    DMT 0x10:  1024x768    60.004 Hz   4:3    48.363 kHz  65.000 MHz
    DMT 0x12:  1024x768    75.029 Hz   4:3    60.023 kHz  78.750 MHz
    DMT 0x24:  1280x1024   75.025 Hz   5:4    79.976 kHz 135.000 MHz
  Standard Timings:
    DMT 0x52:  1920x1080   60.000 Hz  16:9    67.500 kHz 148.500 MHz
    DMT 0x3a:  1680x1050   59.954 Hz  16:10   65.290 kHz 146.250 MHz
    DMT 0x2f:  1440x900    59.887 Hz  16:10   55.935 kHz 106.500 MHz
    DMT 0x23:  1280x1024   60.020 Hz   5:4    63.981 kHz 108.000 MHz
    DMT 0x55:  1280x720    60.000 Hz  16:9    45.000 kHz  74.250 MHz
    DMT 0x20:  1280x960    60.000 Hz   4:3    60.000 kHz 108.000 MHz
    DMT 0x53:  1600x900    60.000 Hz  16:9    60.000 kHz 108.000 MHz (RB)
    CVT     :  1152x648    74.801 Hz  16:9    50.864 kHz  76.500 MHz (EDID 1.4 source)
    GTF     :  1152x648    75.000 Hz  16:9    50.775 kHz  77.178 MHz (EDID 1.3 source)
  Detailed Timing Descriptors:
    DTD 1:  3840x1080   60.003 Hz  32:9    66.903 kHz 270.290 MHz (1196 mm x 336 mm)
                 Hfront   48 Hsync  32 Hback 120 Hpol P
                 Vfront    3 Vsync   5 Vback  27 Vpol N
    DTD 2:  3840x1080  120.002 Hz  32:9   133.803 kHz 535.210 MHz (1196 mm x 336 mm)
                 Hfront   48 Hsync  32 Hback  80 Hpol P
                 Vfront    3 Vsync   5 Vback  27 Vpol N
    Display Product Name: 'PGM490'
  Display Range Limits:
    Monitor ranges (Bare Limits): 48-120 Hz V, 136-136 kHz H, max dotclock 630 MHz
  Extension blocks: 1
Checksum: 0x66

----------------

Block 1, CTA-861 Extension Block:
  Revision: 3
  Underscans IT Video Formats by default
  Basic audio support
  Supports YCbCr 4:4:4
  Supports YCbCr 4:2:2
  Native detailed modes: 4
  Video Data Block:
    VIC   1:   640x480    59.940 Hz   4:3    31.469 kHz  25.175 MHz
    VIC   2:   720x480    59.940 Hz   4:3    31.469 kHz  27.000 MHz
    VIC   3:   720x480    59.940 Hz  16:9    31.469 kHz  27.000 MHz
    VIC   4:  1280x720    60.000 Hz  16:9    45.000 kHz  74.250 MHz
    VIC  16:  1920x1080   60.000 Hz  16:9    67.500 kHz 148.500 MHz (native)
    VIC  18:   720x576    50.000 Hz  16:9    31.250 kHz  27.000 MHz
    VIC  19:  1280x720    50.000 Hz  16:9    37.500 kHz  74.250 MHz
    VIC  31:  1920x1080   50.000 Hz  16:9    56.250 kHz 148.500 MHz
    VIC  17:   720x576    50.000 Hz   4:3    31.250 kHz  27.000 MHz
    VIC  89:  2560x1080   50.000 Hz  64:27   56.250 kHz 185.625 MHz
    VIC  63:  1920x1080  120.000 Hz  16:9   135.000 kHz 297.000 MHz
    VIC  93:  3840x2160   24.000 Hz  16:9    54.000 kHz 297.000 MHz
    VIC  94:  3840x2160   25.000 Hz  16:9    56.250 kHz 297.000 MHz
    VIC  95:  3840x2160   30.000 Hz  16:9    67.500 kHz 297.000 MHz
    VIC  96:  3840x2160   50.000 Hz  16:9   112.500 kHz 594.000 MHz
    VIC  97:  3840x2160   60.000 Hz  16:9   135.000 kHz 594.000 MHz
  Audio Data Block:
    Linear PCM:
      Max channels: 2
      Supported sample rates (kHz): 192 176.4 96 88.2 48 44.1 32
      Supported sample sizes (bits): 24 20 16
  Speaker Allocation Data Block:
    FL/FR - Front Left/Right
  Colorimetry Data Block:
    xvYCC601
    xvYCC709
    BT2020cYCC
    BT2020YCC
    BT2020RGB
  HDR Static Metadata Data Block:
    Electro optical transfer functions:
      Traditional gamma - SDR luminance range
      Traditional gamma - HDR luminance range
      SMPTE ST2084
    Supported static metadata descriptors:
      Static metadata type 1
    Desired content max luminance: 96 (400.000 cd/m^2)
    Desired content max frame-average luminance: 89 (343.724 cd/m^2)
    Desired content min luminance: 39 (0.094 cd/m^2)
  Detailed Timing Descriptors:
    DTD 3:  3840x1080  144.001 Hz  32:9   160.129 kHz 630.910 MHz (1196 mm x 336 mm)
                 Hfront   36 Hsync  32 Hback  32 Hpol P
                 Vfront    3 Vsync   5 Vback  24 Vpol N
    DTD 4:  1920x1080  144.003 Hz  16:9   160.564 kHz 327.550 MHz (1196 mm x 336 mm)
                 Hfront   48 Hsync  32 Hback  40 Hpol P
                 Vfront    3 Vsync   5 Vback  27 Vpol P
    DTD 5:  2560x1080   60.001 Hz  64:27   66.901 kHz 181.970 MHz (1196 mm x 336 mm)
                 Hfront   48 Hsync  32 Hback  80 Hpol P
                 Vfront    3 Vsync   5 Vback  27 Vpol P
Checksum: 0xc6

----------------

Warnings:

Block 1, CTA-861 Extension Block:
  Missing VCDB, needed for Set Selectable RGB Quantization to avoid interop issues.
EDID:
  Base EDID: Some timings are out of range of the Monitor Ranges:
    Vertical Freq: 24.000 - 144.003 Hz (Monitor: 48.000 - 120.000 Hz)
    Horizontal Freq: 31.250 - 160.563 kHz (Monitor: 136.000 - 136.000 kHz)
    Maximum Clock: 630.910 MHz (Monitor: 630.000 MHz)

Failures:

Block 0, Base EDID:
  Basic Display Parameters & Features: sRGB is signaled, but the chromaticities do not match.
EDID:
  Base EDID: GTF timings are used, but the EDID does not signal GTF support.
  Base EDID: CVT timings are used, but the EDID does not signal CVT support.
  CTA-861: Native progressive timings are a mix of several resolutions.

EDID conformity: FAIL
