
EDID (hex):
00ffffffffffff002e83501518000000
0e0f0101681e1678e8f0659857519127
215054adce0001010101010101010101
010101010101d50980a0205e31103000
b20c30e41000001c000000fd00384b1f
3d08000a202020202020000000fc0056
455354454c20562d35303035000000fc
004c0a20202020202020202020200099

Extracted contents:
header:          00 ff ff ff ff ff ff 00
serial number:   2e 83 50 15 18 00 00 00 0e 0f
version:         01 01
basic params:    68 1e 16 78 e8
chroma info:     f0 65 98 57 51 91 27 21 50 54
established:     ad ce 00
standard:        01 01 01 01 01 01 01 01 01 01 01 01 01 01 01 01
descriptor 1:    d5 09 80 a0 20 5e 31 10 30 00 b2 0c 30 e4 10 00 00 1c
descriptor 2:    00 00 00 fd 00 38 4b 1f 3d 08 00 0a 20 20 20 20 20 20
descriptor 3:    00 00 00 fc 00 56 45 53 54 45 4c 20 56 2d 35 30 30 35
descriptor 4:    00 00 00 fc 00 4c 0a 20 20 20 20 20 20 20 20 20 20 20
extensions:      00
checksum:        99

EDID version: 1.1
Manufacturer: KTC Model 1550 Serial Number --
Analog display, Input voltage level: 0.7/0.7 V
Sync: Separate 
Maximum image size: 30 cm x 22 cm
Gamma: 2.20
DPMS levels: Standby Suspend Off
RGB color display
Display x,y Chromaticity:
  Red:   0.5966, 0.3427
  Green: 0.3164, 0.5664
  Blue:  0.1533, 0.1308
  White: 0.3134, 0.3291
Established timings supported:
  720x400@70Hz 9:5 HorFreq: 31469 Hz Clock: 28.320 MHz
  640x480@60Hz 4:3 HorFreq: 31469 Hz Clock: 25.175 MHz
  640x480@72Hz 4:3 HorFreq: 37900 Hz Clock: 31.500 MHz
  640x480@75Hz 4:3 HorFreq: 37500 Hz Clock: 31.500 MHz
  800x600@60Hz 4:3 HorFreq: 37900 Hz Clock: 40.000 MHz
  800x600@72Hz 4:3 HorFreq: 48100 Hz Clock: 50.000 MHz
  800x600@75Hz 4:3 HorFreq: 46900 Hz Clock: 49.500 MHz
  1024x768@60Hz 4:3 HorFreq: 48400 Hz Clock: 65.000 MHz
  1024x768@70Hz 4:3 HorFreq: 56500 Hz Clock: 75.000 MHz
  1024x768@75Hz 4:3 HorFreq: 60000 Hz Clock: 78.750 MHz
Standard timings supported:
Detailed mode: Clock 25.170 MHz, 304 mm x 228 mm
                640  688  688  800 hborder 0
                350  409  411  399 vborder 0
               -hsync +vsync 
               VertFreq: 78 Hz, HorFreq: 31462 Hz
Monitor ranges (GTF): 56-75Hz V, 31-61kHz H, max dotclock 80MHz
Monitor name: VESTEL V-5005L
Checksum: 0x99 (valid)
EDID block does NOT conform to EDID 1.0!
	Has descriptor blocks other than detailed timings
One or more of the timings is out of range of the Monitor Ranges:
  Vertical Freq: 60 - 78 Hz
  Horizontal Freq: 31462 - 60000 Hz
  Maximum Clock: 78.750 MHz
EDID block does not conform at all!
	Bad year of manufacture
