
EDID (hex):
00ffffffffffff00061040a000000000
101b0104b5211578020fa1ae5243b026
0d505400000001010101010101010101
0101010101017c804050b00834700820
68084bcf1000001a000000fc00436f6c
6f72204c43440a202020000000100000
00000000000000000000000000000010
000000000000000000000000000001b4
70127903007f813ffa10000301180f28
17000000000000000000000000000000
4c503135345754352d534a41320a2000
44434e39333534303136584d4a465741
4a0a20202020207f8129fa1000020100
1100000290034c045105b6079f0a3e0d
da12d319b4233e308142fe5cd280ffb3
c7f8b400000000000000000000005c90

edid-decode (hex):

00 ff ff ff ff ff ff 00 06 10 40 a0 00 00 00 00
10 1b 01 04 b5 21 15 78 02 0f a1 ae 52 43 b0 26
0d 50 54 00 00 00 01 01 01 01 01 01 01 01 01 01
01 01 01 01 01 01 7c 80 40 50 b0 08 34 70 08 20
68 08 4b cf 10 00 00 1a 00 00 00 fc 00 43 6f 6c
6f 72 20 4c 43 44 0a 20 20 20 00 00 00 10 00 00
00 00 00 00 00 00 00 00 00 00 00 00 00 00 00 10
00 00 00 00 00 00 00 00 00 00 00 00 00 00 01 b4

70 12 79 03 00 7f 81 3f fa 10 00 03 01 18 0f 28
17 00 00 00 00 00 00 00 00 00 00 00 00 00 00 00
4c 50 31 35 34 57 54 35 2d 53 4a 41 32 0a 20 00
44 43 4e 39 33 35 34 30 31 36 58 4d 4a 46 57 41
4a 0a 20 20 20 20 20 7f 81 29 fa 10 00 02 01 00
11 00 00 02 90 03 4c 04 51 05 b6 07 9f 0a 3e 0d
da 12 d3 19 b4 23 3e 30 81 42 fe 5c d2 80 ff b3
c7 f8 b4 00 00 00 00 00 00 00 00 00 00 00 5c 90

----------------

Block 0, Base EDID:
  EDID Structure Version & Revision: 1.4
  Vendor & Product Identification:
    Manufacturer: APP
    Model: 41024
    Made in: week 16 of 2017
  Basic Display Parameters & Features:
    Digital display
    Bits per primary color channel: 10
    DisplayPort interface
    Maximum image size: 33 cm x 21 cm
    Gamma: 2.20
    Supported color formats: RGB 4:4:4
    First detailed timing includes the native pixel format and preferred refresh rate
  Color Characteristics:
    Red  : 0.6796, 0.3203
    Green: 0.2646, 0.6904
    Blue : 0.1503, 0.0527
    White: 0.3125, 0.3291
  Established Timings I & II: none
  Standard Timings: none
  Detailed Timing Descriptors:
    DTD 1:  2880x1800   60.000876 Hz  16:10   111.122 kHz    328.920000 MHz (331 mm x 207 mm)
                 Hfront    8 Hsync  32 Hback   40 Hpol P
                 Vfront   38 Vsync   8 Vback    6 Vpol N
    Display Product Name: 'Color LCD'
    Dummy Descriptor:
    Dummy Descriptor:
  Extension blocks: 1
Checksum: 0xb4

----------------

Block 1, DisplayID Extension Block:
  Version: 1.2
  Extension Count: 0
  Display Product Type: Standalone display device
  Vendor-Specific Data Block (0x7f) (Apple), OUI 00-10-FA:
    Type: 3, Version: 1
    18 0f 28 17 00 00 00 00 00 00 00 00 00 00 00 00 '..(.............'
    00 00 00 4c 50 31 35 34 57 54 35 2d 53 4a 41 32 '...LP154WT5-SJA2'
    0a 20 00 44 43 4e 39 33 35 34 30 31 36 58 4d 4a '. .DCN9354016XMJ'
    46 57 41 4a 0a 20 20 20 20 20                   'FWAJ.     '
  Vendor-Specific Data Block (0x7f) (Apple), OUI 00-10-FA:
    Type: 2, Version: 1
    00 11 00 00 02 90 03 4c 04 51 05 b6 07 9f 0a 3e '.......L.Q.....>'
    0d da 12 d3 19 b4 23 3e 30 81 42 fe 5c d2 80 ff '......#>0.B.\...'
    b3 c7 f8 b4                                     '....'
  Checksum: 0x5c
Checksum: 0x90
