edid-decode (hex):

00 ff ff ff ff ff ff 00 08 59 19 cd fa 50 01 00
2b 11 01 03 68 29 1a 78 2a 8e 60 a5 55 44 99 24
12 49 4b af ce 00 01 01 01 01 01 01 01 01 01 01
01 01 01 01 01 01 ab 22 a0 a0 50 84 1a 30 30 20
36 00 9a 00 11 00 00 1a 9a 29 a0 d0 51 84 22 30
50 98 36 00 9a 00 11 00 00 1c 00 00 00 fd 00 38
4c 1f 3d 0b 00 0a 20 20 20 20 20 20 00 00 00 fc
00 4e 53 2d 4c 43 44 31 39 0a 20 20 20 20 00 d3

00 ff ff ff ff ff ff 00 08 59 19 cd fa 50 01 00
2b 11 01 03 68 29 1a 78 2a 8e 60 a5 55 44 99 24
12 49 4b af ce 00 01 01 01 01 01 01 01 01 01 01
01 01 01 01 01 01 ab 22 a0 a0 50 84 1a 30 30 20
36 00 9a 00 11 00 00 1a 9a 29 a0 d0 51 84 22 30
50 98 36 00 9a 00 11 00 00 1c 00 00 00 fd 00 38
4c 1f 3d 0b 00 0a 20 20 20 20 20 20 00 00 00 fc
00 4e 53 2d 4c 43 44 31 39 0a 20 20 20 20 00 d3

----------------

Block 0, Base EDID:
  EDID Structure Version & Revision: 1.3
  Vendor & Product Identification:
    Manufacturer: BBY
    Model: 52505
    Serial Number: ...
    Made in: week 43 of 2007
  Basic Display Parameters & Features:
    Analog display
    Signal Level Standard: 0.700 : 0.000 : 0.700 V p-p
    Blank level equals black level
    Sync: Separate
    Maximum image size: 41 cm x 26 cm
    Gamma: 2.20
    DPMS levels: Off
    RGB color display
    First detailed timing is the preferred timing
  Color Characteristics:
    Red  : 0.6464, 0.3320
    Green: 0.2685, 0.5996
    Blue : 0.1416, 0.0722
    White: 0.2851, 0.2929
  Established Timings I & II:
    IBM     :   720x400    70.081663 Hz   9:5     31.467 kHz     28.320000 MHz
    DMT 0x04:   640x480    59.940476 Hz   4:3     31.469 kHz     25.175000 MHz
    DMT 0x05:   640x480    72.808802 Hz   4:3     37.861 kHz     31.500000 MHz
    DMT 0x06:   640x480    75.000000 Hz   4:3     37.500 kHz     31.500000 MHz
    DMT 0x08:   800x600    56.250000 Hz   4:3     35.156 kHz     36.000000 MHz
    DMT 0x09:   800x600    60.316541 Hz   4:3     37.879 kHz     40.000000 MHz
    DMT 0x0a:   800x600    72.187572 Hz   4:3     48.077 kHz     50.000000 MHz
    DMT 0x0b:   800x600    75.000000 Hz   4:3     46.875 kHz     49.500000 MHz
    DMT 0x10:  1024x768    60.003840 Hz   4:3     48.363 kHz     65.000000 MHz
    DMT 0x11:  1024x768    70.069359 Hz   4:3     56.476 kHz     75.000000 MHz
    DMT 0x12:  1024x768    75.028582 Hz   4:3     60.023 kHz     78.750000 MHz
  Standard Timings: none
  Detailed Timing Descriptors:
    DTD 1:  1440x900    59.901458 Hz  16:10    55.469 kHz     88.750000 MHz (410 mm x 256 mm)
                 Hfront   48 Hsync  32 Hback   80 Hpol P
                 Vfront    3 Vsync   6 Vback   17 Vpol N
    DTD 2:  1440x900    59.887445 Hz  16:10    55.935 kHz    106.500000 MHz (410 mm x 256 mm)
                 Hfront   80 Hsync 152 Hback  232 Hpol N
                 Vfront    3 Vsync   6 Vback   25 Vpol P
    Display Range Limits:
      Monitor ranges (GTF): 56-76 Hz V, 31-61 kHz H, max dotclock 110 MHz
    Display Product Name: 'NS-LCD19'
Checksum: 0xd3

----------------

Block 1, Unknown EDID Extension Block 0x00:
  00 ff ff ff ff ff ff 00 08 59 19 cd fa 50 01 00 '.........Y...P..'
  2b 11 01 03 68 29 1a 78 2a 8e 60 a5 55 44 99 24 '+...h).x*.`.UD.$'
  12 49 4b af ce 00 01 01 01 01 01 01 01 01 01 01 '.IK.............'
  01 01 01 01 01 01 ab 22 a0 a0 50 84 1a 30 30 20 '......."..P..00 '
  36 00 9a 00 11 00 00 1a 9a 29 a0 d0 51 84 22 30 '6........)..Q."0'
  50 98 36 00 9a 00 11 00 00 1c 00 00 00 fd 00 38 'P.6............8'
  4c 1f 3d 0b 00 0a 20 20 20 20 20 20 00 00 00 fc 'L.=...      ....'
  00 4e 53 2d 4c 43 44 31 39 0a 20 20 20 20 00 d3 '.NS-LCD19.    ..'
Checksum: 0xd3

----------------

Failures:

Block 1, Base EDID:
  Unknown Extension Block.
EDID:
  Base EDID: EDID specified 0 extension block(s), but found 1 extension block(s).

EDID conformity: FAIL
