
EDID (hex):
00ffffffffffff004ef2000000000000
051f01036d3024780a5ec0a4594a9825
20505400000001010101010101010101
010101010101440580dd20e02a102f3f
4600e56c11000098000000ff00537769
7463687265733230300a000000fd0031
410f0fff000a202020202020000000fc
00637573746f6d0000000000000a0089

Extracted contents:
header:          00 ff ff ff ff ff ff 00
serial number:   4e f2 00 00 00 00 00 00 05 1f
version:         01 03
basic params:    6d 30 24 78 0a
chroma info:     5e c0 a4 59 4a 98 25 20 50 54
established:     00 00 00
standard:        01 01 01 01 01 01 01 01 01 01 01 01 01 01 01 01
descriptor 1:    44 05 80 dd 20 e0 2a 10 2f 3f 46 00 e5 6c 11 00 00 98
descriptor 2:    00 00 00 ff 00 53 77 69 74 63 68 72 65 73 32 30 30 0a
descriptor 3:    00 00 00 fd 00 31 41 0f 0f ff 00 0a 20 20 20 20 20 20
descriptor 4:    00 00 00 fc 00 63 75 73 74 6f 6d 00 00 00 00 00 00 0a
extensions:      00
checksum:        89

EDID version: 1.3
Manufacturer: SWR Model 0 Serial Number --
Made in week 5 of 2021
Analog display, Input voltage level: 0.7/0.7 V
Sync: Separate Composite Serration 
Maximum image size: 48 cm x 36 cm
Gamma: 2.20
RGB color display
First detailed timing is preferred timing
Display x,y Chromaticity:
  Red:   0.6416, 0.3486
  Green: 0.2919, 0.5957
  Blue:  0.1474, 0.1250
  White: 0.3125, 0.3281
Established timings supported:
Standard timings supported:
Detailed mode: Clock 13.480 MHz, 485 mm x 364 mm
                640  687  750  861 hborder 0
                480  484  490  522 vborder 0
               -hsync -vsync interlaced 
               VertFreq: 29 Hz, HorFreq: 15656 Hz
Serial number: --
Monitor ranges (GTF): 49-65Hz V, 15-15kHz H, max dotclock 2550MHz
Checksum: 0x89 (valid)
EDID block does NOT conform to EDID 1.3!
	Name descriptor not terminated with a newline
One or more of the timings is out of range of the Monitor Ranges:
  Vertical Freq: 29 - 29 Hz
  Horizontal Freq: 15656 - 15656 Hz
  Maximum Clock: 13.480 MHz
