edid-decode (hex):

00 ff ff ff ff ff ff 00 23 24 b7 04 00 00 00 00
00 15 01 03 80 19 12 78 0a d1 b6 94 56 4f 8b 26
27 53 59 00 00 00 01 01 01 01 01 01 01 01 01 01
01 01 01 01 01 01 ec 15 00 a0 40 00 16 30 30 20
34 00 f6 b8 00 00 00 19 00 00 00 fe 00 0a 20 20
20 20 20 20 20 20 20 20 20 20 00 00 00 fe 00 48
59 44 49 53 0a 20 20 20 20 20 20 20 00 00 00 fe
00 48 56 31 32 31 58 30 34 2d 31 30 30 0a 00 53

----------------

Block 0, Base EDID:
  EDID Structure Version & Revision: 1.3
  Vendor & Product Identification:
    Manufacturer: HYD
    Model: 1207
    Made in: 2011
  Basic Display Parameters & Features:
    Digital display
    Maximum image size: 25 cm x 18 cm
    Gamma: 2.20
    RGB color display
    First detailed timing is the preferred timing
  Color Characteristics:
    Red  : 0.5810, 0.3369
    Green: 0.3085, 0.5439
    Blue : 0.1503, 0.1552
    White: 0.3251, 0.3496
  Established Timings I & II: none
  Standard Timings: none
  Detailed Timing Descriptors:
    DTD 1:  1024x768    59.998289 Hz   4:3     47.399 kHz     56.120000 MHz (246 mm x 184 mm)
                 Hfront   48 Hsync  32 Hback   80 Hpol N
                 Vfront    3 Vsync   4 Vback   15 Vpol N
    Alphanumeric Data String: ''
    Alphanumeric Data String: 'HYDIS'
    Alphanumeric Data String: 'HV121X04-100'
Checksum: 0x53

----------------

Failures:

Block 0, Base EDID:
  Alphanumeric Data String: Empty string.
  Missing Display Product Name.
  Missing Display Range Limits Descriptor.

EDID conformity: FAIL
