
EDID (hex):
00ffffffffffff002324b70400000000
00150103801912780ad1b694564f8b26
27535900000001010101010101010101
010101010101ec1500a0400016303020
3400f6b800000019000000fe000a2020
20202020202020202020000000fe0048
594449530a20202020202020000000fe
0048563132315830342d3130300a0053

Extracted contents:
header:          00 ff ff ff ff ff ff 00
serial number:   23 24 b7 04 00 00 00 00 00 15
version:         01 03
basic params:    80 19 12 78 0a
chroma info:     d1 b6 94 56 4f 8b 26 27 53 59
established:     00 00 00
standard:        01 01 01 01 01 01 01 01 01 01 01 01 01 01 01 01
descriptor 1:    ec 15 00 a0 40 00 16 30 30 20 34 00 f6 b8 00 00 00 19
descriptor 2:    00 00 00 fe 00 0a 20 20 20 20 20 20 20 20 20 20 20 20
descriptor 3:    00 00 00 fe 00 48 59 44 49 53 0a 20 20 20 20 20 20 20
descriptor 4:    00 00 00 fe 00 48 56 31 32 31 58 30 34 2d 31 30 30 0a
extensions:      00
checksum:        53

EDID version: 1.3
Manufacturer: HYD Model 4b7 Serial Number --
Made in year 2011
Digital display
Maximum image size: 25 cm x 18 cm
Gamma: 2.20
RGB color display
First detailed timing is preferred timing
Display x,y Chromaticity:
  Red:   0.5810, 0.3369
  Green: 0.3085, 0.5439
  Blue:  0.1503, 0.1552
  White: 0.3251, 0.3496
Established timings supported:
Standard timings supported:
Detailed mode: Clock 56.120 MHz, 246 mm x 184 mm
               1024 1072 1104 1184 hborder 0
                768  771  775  790 vborder 0
               -hsync -vsync 
               VertFreq: 59 Hz, HorFreq: 47398 Hz
ASCII string: 
ASCII string: HYDIS
ASCII string: HV121X04-100
Checksum: 0x53 (valid)
EDID block does NOT conform to EDID 1.3!
	Missing name descriptor
	Missing monitor ranges
