
EDID (hex):
00ffffffffffff005a634550e8670100
010a0102181c15bee80f29a0574f9826
10484cfffe00315945596159714f8140
81800101010156132000315819201050
130004c31000001e000000ff00475030
303139323133360a2020000000fd0032
781e460b000a202020202020000000fc
00473635350a2020022020202020004a

Extracted contents:
header:          00 ff ff ff ff ff ff 00
serial number:   5a 63 45 50 e8 67 01 00 01 0a
version:         01 02
basic params:    18 1c 15 be e8
chroma info:     0f 29 a0 57 4f 98 26 10 48 4c
established:     ff fe 00
standard:        31 59 45 59 61 59 71 4f 81 40 81 80 01 01 01 01
descriptor 1:    56 13 20 00 31 58 19 20 10 50 13 00 04 c3 10 00 00 1e
descriptor 2:    00 00 00 ff 00 47 50 30 30 31 39 32 31 33 36 0a 20 20
descriptor 3:    00 00 00 fd 00 32 78 1e 46 0b 00 0a 20 20 20 20 20 20
descriptor 4:    00 00 00 fc 00 47 36 35 35 0a 20 20 02 20 20 20 20 20
extensions:      00
checksum:        4a

EDID version: 1.2
Manufacturer: VSC Model 5045 Serial Number --
Analog display, Input voltage level: 0.7/0.3 V
Configurable signal levels
Sync: Separate 
Maximum image size: 28 cm x 21 cm
Gamma: 2.90
DPMS levels: Standby Suspend Off
RGB color display
Display x,y Chromaticity:
  Red:   0.6250, 0.3398
  Green: 0.3115, 0.5966
  Blue:  0.1484, 0.0644
  White: 0.2832, 0.2978
Established timings supported:
  720x400@70Hz 9:5 HorFreq: 31469 Hz Clock: 28.320 MHz
  720x400@88Hz 9:5 HorFreq: 39500 Hz Clock: 35.500 MHz
  640x480@60Hz 4:3 HorFreq: 31469 Hz Clock: 25.175 MHz
  640x480@67Hz 4:3 HorFreq: 35000 Hz Clock: 30.240 MHz
  640x480@72Hz 4:3 HorFreq: 37900 Hz Clock: 31.500 MHz
  640x480@75Hz 4:3 HorFreq: 37500 Hz Clock: 31.500 MHz
  800x600@56Hz 4:3 HorFreq: 35200 Hz Clock: 36.000 MHz
  800x600@60Hz 4:3 HorFreq: 37900 Hz Clock: 40.000 MHz
  800x600@72Hz 4:3 HorFreq: 48100 Hz Clock: 50.000 MHz
  800x600@75Hz 4:3 HorFreq: 46900 Hz Clock: 49.500 MHz
  832x624@75Hz 4:3 HorFreq: 49726 Hz Clock: 57.284 MHz
  1280x768i@87Hz 5:3 HorFreq: 35522 Hz Clock: 44.900 MHz
  1024x768@60Hz 4:3 HorFreq: 48400 Hz Clock: 65.000 MHz
  1024x768@70Hz 4:3 HorFreq: 56500 Hz Clock: 75.000 MHz
  1024x768@75Hz 4:3 HorFreq: 60000 Hz Clock: 78.750 MHz
Standard timings supported:
  640x480@85Hz 4:3 HorFreq: 43300 Hz Clock: 36.000 MHz
  800x600@85Hz 4:3 HorFreq: 53700 Hz Clock: 56.250 MHz
  1024x768@85Hz 4:3 HorFreq: 68700 Hz Clock: 94.500 MHz
  1152x864@75Hz 4:3 HorFreq: 67500 Hz Clock: 108.000 MHz
  1280x960@60Hz 4:3 HorFreq: 60000 Hz Clock: 108.000 MHz
  1280x1024@60Hz 5:4 HorFreq: 64000 Hz Clock: 108.000 MHz
Detailed mode: Clock 49.500 MHz, 260 mm x 195 mm
                800  816  896 1056 hborder 0
                600  601  604  625 vborder 0
               +hsync +vsync 
               VertFreq: 75 Hz, HorFreq: 46875 Hz
Serial number: --
Monitor ranges (GTF): 50-120Hz V, 30-70kHz H, max dotclock 110MHz
Monitor name: G655
Checksum: 0x4a (valid)
EDID block does not conform at all!
	Bad year of manufacture
