
EDID (hex):
00ffffffffffff0009e5710700000000
011b0103951a0e780a81e096595a9a29
1c505400000001010101010101010101
0101010101016b1b566450001e302616
440000901000001aef15566450001e30
2616440000901000001a000000fe0034
35474843804e56313136574800000000
00004101960210000009010a20200084

Extracted contents:
header:          00 ff ff ff ff ff ff 00
serial number:   09 e5 71 07 00 00 00 00 01 1b
version:         01 03
basic params:    95 1a 0e 78 0a
chroma info:     81 e0 96 59 5a 9a 29 1c 50 54
established:     00 00 00
standard:        01 01 01 01 01 01 01 01 01 01 01 01 01 01 01 01
descriptor 1:    6b 1b 56 64 50 00 1e 30 26 16 44 00 00 90 10 00 00 1a
descriptor 2:    ef 15 56 64 50 00 1e 30 26 16 44 00 00 90 10 00 00 1a
descriptor 3:    00 00 00 fe 00 34 35 47 48 43 80 4e 56 31 31 36 57 48
descriptor 4:    00 00 00 00 00 00 41 01 96 02 10 00 00 09 01 0a 20 20
extensions:      00
checksum:        84

EDID version: 1.3
Manufacturer: BOE Model 771 Serial Number --
Made in week 1 of 2017
Digital display
DFP 1.x compatible TMDS
Maximum image size: 26 cm x 14 cm
Gamma: 2.20
RGB color display
First detailed timing is preferred timing
Display x,y Chromaticity:
  Red:   0.5878, 0.3476
  Green: 0.3515, 0.6025
  Blue:  0.1630, 0.1113
  White: 0.3125, 0.3281
Established timings supported:
Standard timings supported:
Detailed mode: Clock 70.190 MHz, 256 mm x 144 mm
               1366 1404 1426 1466 hborder 0
                768  772  776  798 vborder 0
               +hsync -vsync 
               VertFreq: 59 Hz, HorFreq: 47878 Hz
Detailed mode: Clock 56.150 MHz, 256 mm x 144 mm
               1366 1404 1426 1466 hborder 0
                768  772  776  798 vborder 0
               +hsync -vsync 
               VertFreq: 47 Hz, HorFreq: 38301 Hz
ASCII string: 45GHC
Manufacturer-specified data, tag 0
Checksum: 0x84 (valid)
EDID block does NOT conform to EDID 1.3!
	Digital display field contains garbage: 14
	Missing name descriptor
	Missing monitor ranges
	Detailed block string not properly terminated
