
EDID (hex):
00ffffffffffff003eb40002b8220000
0a170103002c19788a0013a057499b26
10484eafce008100814081c095000101
010101010101302a40c8608464301850
1300c7001100001e662156aa51001e30
468f3300aaef1000001e0e1f00805100
1e303020370070cf1000001a000000fc
00416e616c6f670a20202020202000e1

Extracted contents:
header:          00 ff ff ff ff ff ff 00
serial number:   3e b4 00 02 b8 22 00 00 0a 17
version:         01 03
basic params:    00 2c 19 78 8a
chroma info:     00 13 a0 57 49 9b 26 10 48 4e
established:     af ce 00
standard:        81 00 81 40 81 c0 95 00 01 01 01 01 01 01 01 01
descriptor 1:    30 2a 40 c8 60 84 64 30 18 50 13 00 c7 00 11 00 00 1e
descriptor 2:    66 21 56 aa 51 00 1e 30 46 8f 33 00 aa ef 10 00 00 1e
descriptor 3:    0e 1f 00 80 51 00 1e 30 30 20 37 00 70 cf 10 00 00 1a
descriptor 4:    00 00 00 fc 00 41 6e 61 6c 6f 67 0a 20 20 20 20 20 20
extensions:      00
checksum:        e1

EDID version: 1.3
Manufacturer: OUT Model 200 Serial Number --
Made in week 10 of 2013
Analog display, Input voltage level: 0.7/0.3 V
Sync: 
Maximum image size: 44 cm x 25 cm
Gamma: 2.20
DPMS levels: Standby
RGB color display
First detailed timing is preferred timing
Display x,y Chromaticity:
  Red:   0.6250, 0.3398
  Green: 0.2851, 0.6054
  Blue:  0.1484, 0.0634
  White: 0.2812, 0.3076
Established timings supported:
  720x400@70Hz 9:5 HorFreq: 31469 Hz Clock: 28.320 MHz
  640x480@60Hz 4:3 HorFreq: 31469 Hz Clock: 25.175 MHz
  640x480@72Hz 4:3 HorFreq: 37900 Hz Clock: 31.500 MHz
  640x480@75Hz 4:3 HorFreq: 37500 Hz Clock: 31.500 MHz
  800x600@56Hz 4:3 HorFreq: 35200 Hz Clock: 36.000 MHz
  800x600@60Hz 4:3 HorFreq: 37900 Hz Clock: 40.000 MHz
  800x600@72Hz 4:3 HorFreq: 48100 Hz Clock: 50.000 MHz
  800x600@75Hz 4:3 HorFreq: 46900 Hz Clock: 49.500 MHz
  1024x768@60Hz 4:3 HorFreq: 48400 Hz Clock: 65.000 MHz
  1024x768@70Hz 4:3 HorFreq: 56500 Hz Clock: 75.000 MHz
  1024x768@75Hz 4:3 HorFreq: 60000 Hz Clock: 78.750 MHz
Standard timings supported:
  1280x800@60Hz 16:10
  1280x960@60Hz 4:3 HorFreq: 60000 Hz Clock: 108.000 MHz
  1280x720@60Hz 16:9
  1440x900@60Hz 16:10 HorFreq: 55500 Hz Clock: 88.750 MHz
Detailed mode: Clock 108.000 MHz, 455 mm x 256 mm
               1600 1624 1704 1800 hborder 0
                900  901  904 1000 vborder 0
               +hsync +vsync 
               VertFreq: 60 Hz, HorFreq: 60000 Hz
Detailed mode: Clock 85.500 MHz, 426 mm x 239 mm
               1366 1436 1579 1792 hborder 0
                768  771  774  798 vborder 0
               +hsync +vsync 
               VertFreq: 59 Hz, HorFreq: 47712 Hz
Detailed mode: Clock 79.500 MHz, 368 mm x 207 mm
               1280 1328 1360 1664 hborder 0
                768  771  778  798 vborder 0
               +hsync -vsync 
               VertFreq: 59 Hz, HorFreq: 47776 Hz
Monitor name: Analog
Checksum: 0xe1 (valid)
EDID block does NOT conform to EDID 1.3!
	Missing monitor ranges
