
EDID (hex):
00ffffffffffff004c83445300000000
00170104952213780acdb5a3574c9c26
0c505400000001010101010101010101
010101010101d23780a2703840403020
250058c210000019372580a270384040
3020250058c210000019000000000000
00000000000000000000000000000002
000c33ff0f3c962d143296000000005b

Extracted contents:
header:          00 ff ff ff ff ff ff 00
serial number:   4c 83 44 53 00 00 00 00 00 17
version:         01 04
basic params:    95 22 13 78 0a
chroma info:     cd b5 a3 57 4c 9c 26 0c 50 54
established:     00 00 00
standard:        01 01 01 01 01 01 01 01 01 01 01 01 01 01 01 01
descriptor 1:    d2 37 80 a2 70 38 40 40 30 20 25 00 58 c2 10 00 00 19
descriptor 2:    37 25 80 a2 70 38 40 40 30 20 25 00 58 c2 10 00 00 19
descriptor 3:    00 00 00 00 00 00 00 00 00 00 00 00 00 00 00 00 00 00
descriptor 4:    00 00 00 02 00 0c 33 ff 0f 3c 96 2d 14 32 96 00 00 00
extensions:      00
checksum:        5b

EDID version: 1.4
Manufacturer: SDC Model 5344 Serial Number --
Made in year 2013
Digital display
6 bits per primary color channel
DisplayPort interface
Maximum image size: 34 cm x 19 cm
Gamma: 2.20
Supported color formats: RGB 4:4:4, YCrCb 4:4:4
First detailed timing includes the native pixel format and preferred refresh rate
Display x,y Chromaticity:
  Red:   0.6396, 0.3398
  Green: 0.2998, 0.6103
  Blue:  0.1503, 0.0498
  White: 0.3134, 0.3291
Established timings supported:
Standard timings supported:
Detailed mode: Clock 142.900 MHz, 344 mm x 194 mm
               1920 1968 2000 2082 hborder 0
               1080 1082 1087 1144 vborder 0
               -hsync -vsync 
               VertFreq: 59 Hz, HorFreq: 68635 Hz
Detailed mode: Clock 95.270 MHz, 344 mm x 194 mm
               1920 1968 2000 2082 hborder 0
               1080 1082 1087 1144 vborder 0
               -hsync -vsync 
               VertFreq: 39 Hz, HorFreq: 45758 Hz
Manufacturer-specified data, tag 0
Manufacturer-specified data, tag 2
Checksum: 0x5b (valid)
EDID block does NOT conform to EDID 1.4!
	Missing name descriptor
	Missing monitor ranges
