
EDID (hex):
00ffffffffffff001ab3fc07a5330000
1c15010380331d782afe25a85337ae24
115054a54b00a940b300950081008180
010101010101023a801871382d40582c
9600fd1e11000018000000fd00314c0f
5211000a202020202020000000fc0042
3233542d36204c45440a2020000000ff
00595634453031333232310a20200001

Extracted contents:
header:          00 ff ff ff ff ff ff 00
serial number:   1a b3 fc 07 a5 33 00 00 1c 15
version:         01 03
basic params:    80 33 1d 78 2a
chroma info:     fe 25 a8 53 37 ae 24 11 50 54
established:     a5 4b 00
standard:        a9 40 b3 00 95 00 81 00 81 80 01 01 01 01 01 01
descriptor 1:    02 3a 80 18 71 38 2d 40 58 2c 96 00 fd 1e 11 00 00 18
descriptor 2:    00 00 00 fd 00 31 4c 0f 52 11 00 0a 20 20 20 20 20 20
descriptor 3:    00 00 00 fc 00 42 32 33 54 2d 36 20 4c 45 44 0a 20 20
descriptor 4:    00 00 00 ff 00 59 56 34 45 30 31 33 32 32 31 0a 20 20
extensions:      00
checksum:        01

EDID version: 1.3
Manufacturer: FUS Model 7fc Serial Number --
Made in week 28 of 2011
Digital display
Maximum image size: 51 cm x 29 cm
Gamma: 2.20
DPMS levels: Off
RGB color display
First detailed timing is preferred timing
Display x,y Chromaticity:
  Red:   0.6591, 0.3271
  Green: 0.2177, 0.6816
  Blue:  0.1406, 0.0683
  White: 0.3134, 0.3291
Established timings supported:
  720x400@70Hz 9:5 HorFreq: 31469 Hz Clock: 28.320 MHz
  640x480@60Hz 4:3 HorFreq: 31469 Hz Clock: 25.175 MHz
  640x480@75Hz 4:3 HorFreq: 37500 Hz Clock: 31.500 MHz
  800x600@60Hz 4:3 HorFreq: 37900 Hz Clock: 40.000 MHz
  800x600@75Hz 4:3 HorFreq: 46900 Hz Clock: 49.500 MHz
  1024x768@60Hz 4:3 HorFreq: 48400 Hz Clock: 65.000 MHz
  1024x768@75Hz 4:3 HorFreq: 60000 Hz Clock: 78.750 MHz
  1280x1024@75Hz 5:4 HorFreq: 80000 Hz Clock: 135.000 MHz
Standard timings supported:
  1600x1200@60Hz 4:3 HorFreq: 75000 Hz Clock: 162.000 MHz
  1680x1050@60Hz 16:10 HorFreq: 64700 Hz Clock: 119.000 MHz
  1440x900@60Hz 16:10 HorFreq: 55500 Hz Clock: 88.750 MHz
  1280x800@60Hz 16:10
  1280x1024@60Hz 5:4 HorFreq: 64000 Hz Clock: 108.000 MHz
Detailed mode: Clock 148.500 MHz, 509 mm x 286 mm
               1920 2008 2052 2200 hborder 0
               1080 1089 1095 1125 vborder 0
               -hsync -vsync 
               VertFreq: 60 Hz, HorFreq: 67500 Hz
Monitor ranges (GTF): 49-76Hz V, 15-82kHz H, max dotclock 170MHz
Monitor name: B23T-6 LED
Serial number: --
Checksum: 0x1 (valid)
