edid-decode (hex):

00 ff ff ff ff ff ff 00 0d af 27 12 00 00 00 00
1b 12 01 03 80 1a 11 78 0a 61 c5 8f 59 57 8f 28
23 50 54 00 00 00 01 01 01 01 01 01 01 01 01 01
01 01 01 01 01 01 1b 1b 00 84 50 20 13 30 28 1a
25 00 04 aa 10 00 00 18 00 00 00 fe 00 4e 31 32
31 49 42 2d 4c 30 31 0a 20 20 00 00 00 fe 00 43
4d 4f 0a 20 20 20 20 20 20 20 20 20 00 00 00 fe
00 4e 31 32 31 49 42 2d 4c 30 31 0a 20 20 00 f1

----------------

Block 0, Base EDID:
  EDID Structure Version & Revision: 1.3
  Vendor & Product Identification:
    Manufacturer: CMO
    Model: 4647
    Made in: week 27 of 2008
  Basic Display Parameters & Features:
    Digital display
    Maximum image size: 26 cm x 17 cm
    Gamma: 2.20
    RGB color display
    First detailed timing is preferred timing
  Color Characteristics:
    Red  : 0.5595, 0.3496
    Green: 0.3398, 0.5595
    Blue : 0.1591, 0.1367
    White: 0.3134, 0.3291
  Established Timings I & II: none
  Standard Timings: none
  Detailed Timing Descriptors:
    DTD 1:  1280x800    60.004 Hz   8:5    49.143 kHz  69.390 MHz (260 mm x 170 mm)
                 Hfront   40 Hsync  26 Hback  66 Hpol N
                 Vfront    2 Vsync   5 Vback  12 Vpol N
    Alphanumeric Data String: 'N121IB-L01'
    Alphanumeric Data String: 'CMO'
    Alphanumeric Data String: 'N121IB-L01'
Checksum: 0xf1
