
EDID (hex):
00ffffffffffff0005e38a197f060000
1813010368291a782aeed5a555489b26
125054bfee80714f8140818095000101
0101010101019a29a0d0518422305098
3600cb952100001c000000ff004d3235
39364a41303031363633000000fd0038
4b1f510b000a202020202020000000fc
004c3139424838330a202020202000aa

Extracted contents:
header:          00 ff ff ff ff ff ff 00
serial number:   05 e3 8a 19 7f 06 00 00 18 13
version:         01 03
basic params:    68 29 1a 78 2a
chroma info:     ee d5 a5 55 48 9b 26 12 50 54
established:     bf ee 80
standard:        71 4f 81 40 81 80 95 00 01 01 01 01 01 01 01 01
descriptor 1:    9a 29 a0 d0 51 84 22 30 50 98 36 00 cb 95 21 00 00 1c
descriptor 2:    00 00 00 ff 00 4d 32 35 39 36 4a 41 30 30 31 36 36 33
descriptor 3:    00 00 00 fd 00 38 4b 1f 51 0b 00 0a 20 20 20 20 20 20
descriptor 4:    00 00 00 fc 00 4c 31 39 42 48 38 33 0a 20 20 20 20 20
extensions:      00
checksum:        aa

EDID version: 1.3
Manufacturer: AOC Model 198a Serial Number --
Made in week 24 of 2009
Analog display, Input voltage level: 0.7/0.7 V
Sync: Separate 
Maximum image size: 41 cm x 26 cm
Gamma: 2.20
DPMS levels: Off
RGB color display
First detailed timing is preferred timing
Display x,y Chromaticity:
  Red:   0.6474, 0.3339
  Green: 0.2841, 0.6074
  Blue:  0.1513, 0.0712
  White: 0.3134, 0.3291
Established timings supported:
  720x400@70Hz 9:5 HorFreq: 31469 Hz Clock: 28.320 MHz
  640x480@60Hz 4:3 HorFreq: 31469 Hz Clock: 25.175 MHz
  640x480@67Hz 4:3 HorFreq: 35000 Hz Clock: 30.240 MHz
  640x480@72Hz 4:3 HorFreq: 37900 Hz Clock: 31.500 MHz
  640x480@75Hz 4:3 HorFreq: 37500 Hz Clock: 31.500 MHz
  800x600@56Hz 4:3 HorFreq: 35200 Hz Clock: 36.000 MHz
  800x600@60Hz 4:3 HorFreq: 37900 Hz Clock: 40.000 MHz
  800x600@72Hz 4:3 HorFreq: 48100 Hz Clock: 50.000 MHz
  800x600@75Hz 4:3 HorFreq: 46900 Hz Clock: 49.500 MHz
  832x624@75Hz 4:3 HorFreq: 49726 Hz Clock: 57.284 MHz
  1024x768@60Hz 4:3 HorFreq: 48400 Hz Clock: 65.000 MHz
  1024x768@70Hz 4:3 HorFreq: 56500 Hz Clock: 75.000 MHz
  1024x768@75Hz 4:3 HorFreq: 60000 Hz Clock: 78.750 MHz
  1152x870@75Hz 192:145 HorFreq: 67500 Hz Clock: 108.000 MHz
Standard timings supported:
  1152x864@75Hz 4:3 HorFreq: 67500 Hz Clock: 108.000 MHz
  1280x960@60Hz 4:3 HorFreq: 60000 Hz Clock: 108.000 MHz
  1280x1024@60Hz 5:4 HorFreq: 64000 Hz Clock: 108.000 MHz
  1440x900@60Hz 16:10 HorFreq: 55500 Hz Clock: 88.750 MHz
Detailed mode: Clock 106.500 MHz, 715 mm x 405 mm
               1440 1520 1672 1904 hborder 0
                900  903  909  934 vborder 0
               -hsync +vsync 
               VertFreq: 59 Hz, HorFreq: 55934 Hz
Serial number: --
Monitor ranges (GTF): 56-75Hz V, 31-81kHz H, max dotclock 110MHz
Monitor name: L19BH83
Checksum: 0xaa (valid)
