edid-decode (hex):

00 ff ff ff ff ff ff 00 2c 83 f1 05 00 00 00 00
21 1a 01 04 95 19 0e 78 02 b0 90 97 58 54 92 26
1d 50 54 00 00 00 01 01 01 01 01 01 01 01 01 01
01 01 01 01 01 01 64 1b 56 77 50 00 13 30 30 20
36 00 00 90 10 00 00 1a 70 17 56 8c 50 00 3e 30
30 20 36 00 00 90 10 00 00 1a 00 00 00 fe 00 57
37 47 56 52 0a 48 42 31 34 31 30 31 00 00 00 fe
00 4b 44 31 31 36 5f 33 30 5f 47 37 0a 20 00 65

----------------

Block 0, Base EDID:
  EDID Structure Version & Revision: 1.4
  Vendor & Product Identification:
    Manufacturer: KDC
    Model: 1521
    Made in: week 33 of 2016
  Basic Display Parameters & Features:
    Digital display
    Bits per primary color channel: 6
    DisplayPort interface
    Maximum image size: 25 cm x 14 cm
    Gamma: 2.20
    Supported color formats: RGB 4:4:4
    First detailed timing includes the native pixel format and preferred refresh rate
  Color Characteristics:
    Red  : 0.5917, 0.3466
    Green: 0.3281, 0.5703
    Blue : 0.1503, 0.1142
    White: 0.3125, 0.3281
  Established Timings I & II: none
  Standard Timings: none
  Detailed Timing Descriptors:
    DTD 1:  1366x768    59.999 Hz 683:384  47.219 kHz  70.120 MHz (256 mm x 144 mm)
                 Hfront   48 Hsync  32 Hback  39 Hpol P
                 Vfront    3 Vsync   6 Vback  10 Vpol N
    DTD 2:  1366x768    48.001 Hz 683:384  39.841 kHz  60.000 MHz (256 mm x 144 mm)
                 Hfront   48 Hsync  32 Hback  60 Hpol P
                 Vfront    3 Vsync   6 Vback  53 Vpol N
    Alphanumeric Data String: 'W7GVR'
    Alphanumeric Data String: 'KD116_30_G7'
Checksum: 0x65
