
EDID (hex):
00ffffffffffff0030e4014c00000000
00120103902517780a3f159a59529027
20505400000001010101010101010101
010101010101e83a808270b01a403020
36006fe610000019e83a808270b01a40
302036006fe610000019000000fe0046
52383739803137315755310a000000fe
0090a0b0c0d0e0f0ff02010a20200011

Extracted contents:
header:          00 ff ff ff ff ff ff 00
serial number:   30 e4 01 4c 00 00 00 00 00 12
version:         01 03
basic params:    90 25 17 78 0a
chroma info:     3f 15 9a 59 52 90 27 20 50 54
established:     00 00 00
standard:        01 01 01 01 01 01 01 01 01 01 01 01 01 01 01 01
descriptor 1:    e8 3a 80 82 70 b0 1a 40 30 20 36 00 6f e6 10 00 00 19
descriptor 2:    e8 3a 80 82 70 b0 1a 40 30 20 36 00 6f e6 10 00 00 19
descriptor 3:    00 00 00 fe 00 46 52 38 37 39 80 31 37 31 57 55 31 0a
descriptor 4:    00 00 00 fe 00 90 a0 b0 c0 d0 e0 f0 ff 02 01 0a 20 20
extensions:      00
checksum:        11

EDID version: 1.3
Manufacturer: LGD Model 4c01 Serial Number --
Made in year 2008
Digital display
Maximum image size: 37 cm x 23 cm
Gamma: 2.20
RGB color display
First detailed timing is preferred timing
Display x,y Chromaticity:
  Red:   0.6015, 0.3505
  Green: 0.3232, 0.5654
  Blue:  0.1523, 0.1259
  White: 0.3134, 0.3291
Established timings supported:
Standard timings supported:
Detailed mode: Clock 150.800 MHz, 367 mm x 230 mm
               1920 1968 2000 2050 hborder 0
               1200 1203 1209 1226 vborder 0
               -hsync -vsync 
               VertFreq: 60 Hz, HorFreq: 73560 Hz
Detailed mode: Clock 150.800 MHz, 367 mm x 230 mm
               1920 1968 2000 2050 hborder 0
               1200 1203 1209 1226 vborder 0
               -hsync -vsync 
               VertFreq: 60 Hz, HorFreq: 73560 Hz
ASCII string: FR879
ASCII string: 
Checksum: 0x11 (valid)
EDID block does NOT conform to EDID 1.3!
	Digital display field contains garbage: 10
	Missing name descriptor
	Missing monitor ranges
	Detailed block string not properly terminated
