
EDID (hex):
00ffffffffffff004c2dea0432324d43
0e13010380301e782a78f1a655489b26
12505400000001010101010101010101
0101010101017c2e90a0601a1e403020
3600de2c1100001a000000fd00387d1e
be21000a202020202020000000fc0053
796e634d61737465720a2020000000ff
0048564d533330343935350a202001ec
02010400265d90a0601a1e4030203600
de281100001e635590a0601a1e403020
3600de281100001ea04d90a0601a1e40
30203600de281100001e000000000000
00000000000000000000000000000000
00000000000000000000000000000000
00000000000000000000000000000000
00000000000000000000000000000088

edid-decode (hex):

00 ff ff ff ff ff ff 00 4c 2d ea 04 32 32 4d 43
0e 13 01 03 80 30 1e 78 2a 78 f1 a6 55 48 9b 26
12 50 54 00 00 00 01 01 01 01 01 01 01 01 01 01
01 01 01 01 01 01 7c 2e 90 a0 60 1a 1e 40 30 20
36 00 de 2c 11 00 00 1a 00 00 00 fd 00 38 7d 1e
be 21 00 0a 20 20 20 20 20 20 00 00 00 fc 00 53
79 6e 63 4d 61 73 74 65 72 0a 20 20 00 00 00 ff
00 48 56 4d 53 33 30 34 39 35 35 0a 20 20 01 ec

02 01 04 00 26 5d 90 a0 60 1a 1e 40 30 20 36 00
de 28 11 00 00 1e 63 55 90 a0 60 1a 1e 40 30 20
36 00 de 28 11 00 00 1e a0 4d 90 a0 60 1a 1e 40
30 20 36 00 de 28 11 00 00 1e 00 00 00 00 00 00
00 00 00 00 00 00 00 00 00 00 00 00 00 00 00 00
00 00 00 00 00 00 00 00 00 00 00 00 00 00 00 00
00 00 00 00 00 00 00 00 00 00 00 00 00 00 00 00
00 00 00 00 00 00 00 00 00 00 00 00 00 00 00 88

----------------

Block 0, Base EDID:
  EDID Structure Version & Revision: 1.3
  Vendor & Product Identification:
    Manufacturer: SAM
    Model: 1258
    Serial Number: 1129132594
    Made in: week 14 of 2009
  Basic Display Parameters & Features:
    Digital display
    Maximum image size: 48 cm x 30 cm
    Gamma: 2.20
    DPMS levels: Off
    RGB color display
    First detailed timing is the preferred timing
  Color Characteristics:
    Red  : 0.6494, 0.3349
    Green: 0.2832, 0.6054
    Blue : 0.1513, 0.0732
    White: 0.3125, 0.3291
  Established Timings I & II: none
  Standard Timings: none
  Detailed Timing Descriptors:
    DTD 1:  1680x1050   59.883253 Hz  16:10    64.674 kHz    119.000000 MHz (478 mm x 300 mm)
                 Hfront   48 Hsync  32 Hback   80 Hpol P
                 Vfront    3 Vsync   6 Vback   21 Vpol N
    Display Range Limits:
      Monitor ranges (GTF): 56-125 Hz V, 30-190 kHz H, max dotclock 330 MHz
    Display Product Name: 'SyncMaster'
    Display Product Serial Number: 'HVMS304955'
  Extension blocks: 1
Checksum: 0xec

----------------

Block 1, CTA-861 Extension Block:
  Revision: 1
  Detailed Timing Descriptors:
    DTD 2:  1680x1050  119.997987 Hz  16:10   129.598 kHz    238.460000 MHz (478 mm x 296 mm)
                 Hfront   48 Hsync  32 Hback   80 Hpol P
                 Vfront    3 Vsync   6 Vback   21 Vpol P
    DTD 3:  1680x1050  109.998994 Hz  16:10   118.799 kHz    218.590000 MHz (478 mm x 296 mm)
                 Hfront   48 Hsync  32 Hback   80 Hpol P
                 Vfront    3 Vsync   6 Vback   21 Vpol P
    DTD 4:  1680x1050  100.000000 Hz  16:10   108.000 kHz    198.720000 MHz (478 mm x 296 mm)
                 Hfront   48 Hsync  32 Hback   80 Hpol P
                 Vfront    3 Vsync   6 Vback   21 Vpol P
Checksum: 0x88  Unused space in Extension Block: 69 bytes
