
EDID (hex):
00ffffffffffff0006af8e3400000000
1d1d0104a526167803a335a6534a9c27
10505400000001010101010101010101
01010101010150d080507038204d3020
a5007ed7100000180000000f00000000
00000000000000000020000000fd0e3c
2d4f4f43010a202020202020000000fe
004231373348414e30352e31200a01eb
70137900000301148c0401847f074f00
2f001f0037041e000900040000000000
00000000000000000000000000000000
00000000000000000000000000000000
00000000000000000000000000000000
00000000000000000000000000000000
00000000000000000000000000000000
0000000000000000000000000000be90

Extracted contents:
header:          00 ff ff ff ff ff ff 00
serial number:   06 af 8e 34 00 00 00 00 1d 1d
version:         01 04
basic params:    a5 26 16 78 03
chroma info:     a3 35 a6 53 4a 9c 27 10 50 54
established:     00 00 00
standard:        01 01 01 01 01 01 01 01 01 01 01 01 01 01 01 01
descriptor 1:    50 d0 80 50 70 38 20 4d 30 20 a5 00 7e d7 10 00 00 18
descriptor 2:    00 00 00 0f 00 00 00 00 00 00 00 00 00 00 00 00 00 20
descriptor 3:    00 00 00 fd 0e 3c 2d 4f 4f 43 01 0a 20 20 20 20 20 20
descriptor 4:    00 00 00 fe 00 42 31 37 33 48 41 4e 30 35 2e 31 20 0a
extensions:      01
checksum:        eb

EDID version: 1.4
Manufacturer: AUO Model 348e Serial Number --
Made in week 29 of 2019
Digital display
8 bits per primary color channel
DisplayPort interface
Maximum image size: 38 cm x 22 cm
Gamma: 2.20
Supported color formats: RGB 4:4:4
First detailed timing includes the native pixel format and preferred refresh rate
Display is continuous frequency
Display x,y Chromaticity:
  Red:   0.6503, 0.3261
  Green: 0.2890, 0.6123
  Blue:  0.1523, 0.0654
  White: 0.3134, 0.3291
Established timings supported:
Standard timings supported:
Detailed mode: Clock 533.280 MHz, 382 mm x 215 mm
               1920 1968 2000 2000 hborder 0
               1080 1090 1095 4440 vborder 0
               -hsync -vsync 
               VertFreq: 60 Hz, HorFreq: 266640 Hz
Manufacturer-specified data, tag 15
Monitor ranges (bare limits): 60-300Hz V, 334-334kHz H, max dotclock 670MHz
ASCII string: B173HAN05.1 
Has 1 extension blocks
Checksum: 0xeb (valid)

DisplayID extension block
Extension version: 19
Length 121, version 19, extension count 0
Checksum: 0xbe (valid)
Type 1 detailed timing: aspect: 16:9, Preferred  
Detailed mode: Clock 667.000 MHz, 0 mm x 0 mm
               1919 1966 1997 1998
               1079 1088 1092 1109
               -hsync -vsync

EDID block does NOT conform to EDID 1.4!
	Missing name descriptor
Warning: One or more of the timings is out of range of the Monitor Ranges:
  Vertical Freq: 60 - 60 Hz
  Horizontal Freq: 266640 - 266640 Hz
  Maximum Clock: 533.280 MHz
EDID block does not conform at all!
	Has 352321536 nonconformant extension block(s)
