
EDID (hex):
00ffffffffffff0044934c0000000000
000f0103802115780a479994574f8c27
27505400000001010101010101010101
010101010101cb1b00a0502017303020
26004bcf100000180000000f0008002a
0001000400324a041400000000fe0059
433437340000000000000000000000fe
00404c586080b4e0ff01010a20200047

Extracted contents:
header:          00 ff ff ff ff ff ff 00
serial number:   44 93 4c 00 00 00 00 00 00 0f
version:         01 03
basic params:    80 21 15 78 0a
chroma info:     47 99 94 57 4f 8c 27 27 50 54
established:     00 00 00
standard:        01 01 01 01 01 01 01 01 01 01 01 01 01 01 01 01
descriptor 1:    cb 1b 00 a0 50 20 17 30 30 20 26 00 4b cf 10 00 00 18
descriptor 2:    00 00 00 0f 00 08 00 2a 00 01 00 04 00 32 4a 04 14 00
descriptor 3:    00 00 00 fe 00 59 43 34 37 34 00 00 00 00 00 00 00 00
descriptor 4:    00 00 00 fe 00 40 4c 58 60 80 b4 e0 ff 01 01 0a 20 20
extensions:      00
checksum:        47

EDID version: 1.3
Manufacturer: QDS Model 4c Serial Number --
Digital display
Maximum image size: 33 cm x 21 cm
Gamma: 2.20
RGB color display
First detailed timing is preferred timing
Display x,y Chromaticity:
  Red:   0.5791, 0.3398
  Green: 0.3095, 0.5498
  Blue:  0.1542, 0.1533
  White: 0.3144, 0.3291
Established timings supported:
Standard timings supported:
Detailed mode: Clock 71.150 MHz, 331 mm x 207 mm
               1280 1328 1360 1440 hborder 0
                800  802  808  823 vborder 0
               -hsync -vsync 
               VertFreq: 60 Hz, HorFreq: 49409 Hz
Manufacturer-specified data, tag 15
ASCII string: YC474
ASCII string: @LX`
Checksum: 0x47 (valid)
EDID block does NOT conform to EDID 1.3!
	Missing name descriptor
	Missing monitor ranges
	Detailed block string not properly terminated
EDID block does not conform at all!
	Bad year of manufacture
