edid-decode (hex):

00 ff ff ff ff ff ff 00 0d af 32 14 00 00 00 00
00 00 01 03 80 1e 13 78 0a 9f 05 96 56 50 88 27
20 50 54 00 00 00 01 01 01 01 01 01 01 01 01 01
01 01 01 01 01 01 bc 1b 00 a0 50 20 17 30 30 20
36 00 2f be 10 00 00 18 f3 16 00 a0 50 20 13 30
30 20 36 00 2f be 10 00 00 00 00 00 00 fe 00 4a
57 38 30 33 31 4e 31 34 31 49 31 0a 00 00 00 fe
00 25 32 3e 44 62 87 9f ff 01 01 0a 20 20 00 45

----------------

Block 0, Base EDID:
  EDID Structure Version & Revision: 1.3
  Vendor & Product Identification:
    Manufacturer: CMO
    Model: 5170
    Made in: 1990
  Basic Display Parameters & Features:
    Digital display
    Maximum image size: 30 cm x 19 cm
    Gamma: 2.20
    RGB color display
    First detailed timing is the preferred timing
  Color Characteristics:
    Red  : 0.5878, 0.3369
    Green: 0.3154, 0.5341
    Blue : 0.1523, 0.1250
    White: 0.3134, 0.3291
  Established Timings I & II: none
  Standard Timings: none
  Detailed Timing Descriptors:
    DTD 1:  1280x800    59.910 Hz   8:5    49.306 kHz  71.000 MHz (303 mm x 190 mm)
                 Hfront   48 Hsync  32 Hback  80 Hpol N
                 Vfront    3 Vsync   6 Vback  14 Vpol N
    DTD 2:  1280x800    49.815 Hz   8:5    40.799 kHz  58.750 MHz (303 mm x 190 mm)
                 Hfront   48 Hsync  32 Hback  80 Hpol N
                 Vfront    3 Vsync   6 Vback  10 Vpol N
    SPWG Module Revision: 0
    SPWG Descriptor #3:
      SPWG PC Maker P/N: 'JW803'
      SPWG LCD Supplier EEDID Revision: 49
      SPWG Manufacturer P/N: 'N141I1'
    SPWG Descriptor #4:
      SMBUS Values: 0x25 0x32 0x3e 0x44 0x62 0x87 0x9f 0xff
      LVDS Channels: 1
      Panel Self Test Present
Checksum: 0x45

----------------

Failures:

Block 0, Base EDID:
  Missing Display Product Name.
  Missing Display Range Limits Descriptor.

EDID conformity: FAIL
