
EDID (hex):
00ffffffffffff000dae101500000000
071d0104a522137802ee95a3544c9926
0f505400000001010101010101010101
010101010101b43b804a713834403020
680058c11000001ab43b804a71384f41
3020680058c11000001a000000fe0043
54334337803135364843410a00000000
000141019e001000000a010a20200029

Extracted contents:
header:          00 ff ff ff ff ff ff 00
serial number:   0d ae 10 15 00 00 00 00 07 1d
version:         01 04
basic params:    a5 22 13 78 02
chroma info:     ee 95 a3 54 4c 99 26 0f 50 54
established:     00 00 00
standard:        01 01 01 01 01 01 01 01 01 01 01 01 01 01 01 01
descriptor 1:    b4 3b 80 4a 71 38 34 40 30 20 68 00 58 c1 10 00 00 1a
descriptor 2:    b4 3b 80 4a 71 38 4f 41 30 20 68 00 58 c1 10 00 00 1a
descriptor 3:    00 00 00 fe 00 43 54 33 43 37 80 31 35 36 48 43 41 0a
descriptor 4:    00 00 00 00 00 01 41 01 9e 00 10 00 00 0a 01 0a 20 20
extensions:      00
checksum:        29

EDID version: 1.4
Manufacturer: CMN Model 1510 Serial Number --
Made in week 7 of 2019
Digital display
8 bits per primary color channel
DisplayPort interface
Maximum image size: 34 cm x 19 cm
Gamma: 2.20
Supported color formats: RGB 4:4:4
First detailed timing includes the native pixel format and preferred refresh rate
Display x,y Chromaticity:
  Red:   0.6396, 0.3300
  Green: 0.2998, 0.5996
  Blue:  0.1503, 0.0595
  White: 0.3134, 0.3291
Established timings supported:
Standard timings supported:
Detailed mode: Clock 152.840 MHz, 344 mm x 193 mm
               1920 1968 2000 2250 hborder 0
               1080 1086 1094 1132 vborder 0
               +hsync -vsync 
               VertFreq: 60 Hz, HorFreq: 67928 Hz
Detailed mode: Clock 152.840 MHz, 344 mm x 193 mm
               1920 1968 2000 2250 hborder 0
               1080 1086 1094 1415 vborder 0
               +hsync -vsync 
               VertFreq: 48 Hz, HorFreq: 67928 Hz
ASCII string: CT3C7
Manufacturer-specified data, tag 0
Checksum: 0x29 (valid)
EDID block does NOT conform to EDID 1.4!
	Missing name descriptor
	Missing monitor ranges
	Detailed block string not properly terminated
