
EDID (hex):
00ffffffffffff0030649a0315693201
1115010300291a782ed7a5a2594a9624
145054bfce0001010101010101010101
0101010101019a29a0d0518422305098
36009a001100001c000000ff00313938
38313130343032383232000000fe004c
616e69780a0a0a0a0a0a0a0a000000fc
004c58393030540a0a0a0a0a0a0a0048

Extracted contents:
header:          00 ff ff ff ff ff ff 00
serial number:   30 64 9a 03 15 69 32 01 11 15
version:         01 03
basic params:    00 29 1a 78 2e
chroma info:     d7 a5 a2 59 4a 96 24 14 50 54
established:     bf ce 00
standard:        01 01 01 01 01 01 01 01 01 01 01 01 01 01 01 01
descriptor 1:    9a 29 a0 d0 51 84 22 30 50 98 36 00 9a 00 11 00 00 1c
descriptor 2:    00 00 00 ff 00 31 39 38 38 31 31 30 34 30 32 38 32 32
descriptor 3:    00 00 00 fe 00 4c 61 6e 69 78 0a 0a 0a 0a 0a 0a 0a 0a
descriptor 4:    00 00 00 fc 00 4c 58 39 30 30 54 0a 0a 0a 0a 0a 0a 0a
extensions:      00
checksum:        48

EDID version: 1.3
Manufacturer: LCD Model 39a Serial Number --
Made in week 17 of 2011
Analog display, Input voltage level: 0.7/0.3 V
Sync: 
Maximum image size: 41 cm x 26 cm
Gamma: 2.20
DPMS levels: Off
RGB color display
Default (sRGB) color space is primary color space
First detailed timing is preferred timing
Display x,y Chromaticity:
  Red:   0.6357, 0.3486
  Green: 0.2900, 0.5888
  Blue:  0.1425, 0.0800
  White: 0.3134, 0.3291
Established timings supported:
  720x400@70Hz 9:5 HorFreq: 31469 Hz Clock: 28.320 MHz
  640x480@60Hz 4:3 HorFreq: 31469 Hz Clock: 25.175 MHz
  640x480@67Hz 4:3 HorFreq: 35000 Hz Clock: 30.240 MHz
  640x480@72Hz 4:3 HorFreq: 37900 Hz Clock: 31.500 MHz
  640x480@75Hz 4:3 HorFreq: 37500 Hz Clock: 31.500 MHz
  800x600@56Hz 4:3 HorFreq: 35200 Hz Clock: 36.000 MHz
  800x600@60Hz 4:3 HorFreq: 37900 Hz Clock: 40.000 MHz
  800x600@72Hz 4:3 HorFreq: 48100 Hz Clock: 50.000 MHz
  800x600@75Hz 4:3 HorFreq: 46900 Hz Clock: 49.500 MHz
  1024x768@60Hz 4:3 HorFreq: 48400 Hz Clock: 65.000 MHz
  1024x768@70Hz 4:3 HorFreq: 56500 Hz Clock: 75.000 MHz
  1024x768@75Hz 4:3 HorFreq: 60000 Hz Clock: 78.750 MHz
Standard timings supported:
Detailed mode: Clock 106.500 MHz, 410 mm x 256 mm
               1440 1520 1672 1904 hborder 0
                900  903  909  934 vborder 0
               -hsync +vsync 
               VertFreq: 59 Hz, HorFreq: 55934 Hz
Serial number: --
ASCII string: Lanix
Monitor name: LX900T
Checksum: 0x48 (valid)
EDID block does NOT conform to EDID 1.3!
	sRGB is signaled, but the chromaticities do not match
	Missing monitor ranges
	Detailed block string not properly terminated
