edid-decode (hex):

00 ff ff ff ff ff ff 00 22 64 01 00 00 00 00 00
1e 20 01 04 a5 1f 11 78 02 fc 11 95 57 5f 90 28
1a 50 54 00 00 00 01 01 01 01 01 01 01 01 01 01
01 01 01 01 01 01 8b 39 80 10 71 38 28 40 2e 1e
24 00 35 ae 10 00 00 18 00 00 00 00 00 00 00 00
00 00 00 00 00 00 00 00 00 00 00 00 00 fe 00 48
53 44 20 46 48 44 0a 20 20 20 20 20 00 00 00 fe
00 57 4a 46 48 31 34 31 30 31 32 41 30 30 00 bf

00 ff ff ff ff ff ff 00 22 64 01 00 00 00 00 00
1e 20 01 04 a5 1f 11 78 02 fc 11 95 57 5f 90 28
1a 50 54 00 00 00 01 01 01 01 01 01 01 01 01 01
01 01 01 01 01 01 8b 39 80 10 71 38 28 40 2e 1e
24 00 35 ae 10 00 00 18 00 00 00 00 00 00 00 00
00 00 00 00 00 00 00 00 00 00 00 00 00 fe 00 48
53 44 20 46 48 44 0a 20 20 20 20 20 00 00 00 fe
00 57 4a 46 48 31 34 31 30 31 32 41 30 30 00 bf

----------------

Block 0, Base EDID:
  EDID Structure Version & Revision: 1.4
  Vendor & Product Identification:
    Manufacturer: HSD
    Model: 1
    Made in: week 30 of 2022
  Basic Display Parameters & Features:
    Digital display
    Bits per primary color channel: 8
    DisplayPort interface
    Maximum image size: 31 cm x 17 cm
    Gamma: 2.20
    Supported color formats: RGB 4:4:4
    First detailed timing includes the native pixel format and preferred refresh rate
  Color Characteristics:
    Red  : 0.5849, 0.3427
    Green: 0.3740, 0.5625
    Blue : 0.1562, 0.1025
    White: 0.3125, 0.3291
  Established Timings I & II: none
  Standard Timings: none
  Detailed Timing Descriptors:
    DTD 1:  1920x1080   60.003096 Hz  16:9     67.203 kHz    147.310000 MHz (309 mm x 174 mm)
                 Hfront   46 Hsync  30 Hback  196 Hpol N
                 Vfront    2 Vsync   4 Vback   34 Vpol N
    Empty Descriptor
    Alphanumeric Data String: 'HSD FHD'
    Alphanumeric Data String: 'WJFH141012A00'
Checksum: 0xbf

----------------

Block 1, Unknown EDID Extension Block 0x00:
  00 ff ff ff ff ff ff 00 22 64 01 00 00 00 00 00 '........"d......'
  1e 20 01 04 a5 1f 11 78 02 fc 11 95 57 5f 90 28 '. .....x....W_.('
  1a 50 54 00 00 00 01 01 01 01 01 01 01 01 01 01 '.PT.............'
  01 01 01 01 01 01 8b 39 80 10 71 38 28 40 2e 1e '.......9..q8(@..'
  24 00 35 ae 10 00 00 18 00 00 00 00 00 00 00 00 '$.5.............'
  00 00 00 00 00 00 00 00 00 00 00 00 00 fe 00 48 '...............H'
  53 44 20 46 48 44 0a 20 20 20 20 20 00 00 00 fe 'SD FHD.     ....'
  00 57 4a 46 48 31 34 31 30 31 32 41 30 30 00 bf '.WJFH141012A00..'
Checksum: 0xbf

----------------

Warnings:

Block 0, Base EDID:
  Missing Display Product Name.

Failures:

Block 0, Base EDID:
  Empty Descriptor: Use Dummy Descriptor instead of all zeroes.
Block 1, Base EDID:
  Unknown Extension Block.
EDID:
  Base EDID: EDID specified 0 extension block(s), but found 1 extension block(s).

EDID conformity: FAIL
