
EDID (hex):
00ffffffffffff0009e5250800000000
011c0104a526157803de50a3544c9926
0f505400000001010101010101010101
010101010101c43680cc703814406c30
aa007ed71000001a862480cc70381440
6c30aa007ed71000001a000000000000
00000000000000000000000000000002
000933ff0a3c96151b4496000000009a

Extracted contents:
header:          00 ff ff ff ff ff ff 00
serial number:   09 e5 25 08 00 00 00 00 01 1c
version:         01 04
basic params:    a5 26 15 78 03
chroma info:     de 50 a3 54 4c 99 26 0f 50 54
established:     00 00 00
standard:        01 01 01 01 01 01 01 01 01 01 01 01 01 01 01 01
descriptor 1:    c4 36 80 cc 70 38 14 40 6c 30 aa 00 7e d7 10 00 00 1a
descriptor 2:    86 24 80 cc 70 38 14 40 6c 30 aa 00 7e d7 10 00 00 1a
descriptor 3:    00 00 00 00 00 00 00 00 00 00 00 00 00 00 00 00 00 00
descriptor 4:    00 00 00 02 00 09 33 ff 0a 3c 96 15 1b 44 96 00 00 00
extensions:      00
checksum:        9a

EDID version: 1.4
Manufacturer: BOE Model 825 Serial Number --
Made in week 1 of 2018
Digital display
8 bits per primary color channel
DisplayPort interface
Maximum image size: 38 cm x 21 cm
Gamma: 2.20
Supported color formats: RGB 4:4:4
First detailed timing includes the native pixel format and preferred refresh rate
Display is continuous frequency
Display x,y Chromaticity:
  Red:   0.6396, 0.3291
  Green: 0.2998, 0.5996
  Blue:  0.1494, 0.0595
  White: 0.3125, 0.3281
Established timings supported:
Standard timings supported:
Detailed mode: Clock 140.200 MHz, 382 mm x 215 mm
               1920 2028 2076 2124 hborder 0
               1080 1090 1100 1100 vborder 0
               +hsync -vsync 
               VertFreq: 60 Hz, HorFreq: 66007 Hz
Detailed mode: Clock 93.500 MHz, 382 mm x 215 mm
               1920 2028 2076 2124 hborder 0
               1080 1090 1100 1100 vborder 0
               +hsync -vsync 
               VertFreq: 40 Hz, HorFreq: 44020 Hz
Manufacturer-specified data, tag 0
Manufacturer-specified data, tag 2
Checksum: 0x9a (valid)
EDID block does NOT conform to EDID 1.4!
	Missing name descriptor
	Missing monitor ranges
