
EDID (hex):
00ffffffffffff00220e274001000000
211c0104a53c2278029325a9544d9e25
0c505400000001010101010101010101
010101010101146000d0a0a029503008
360055502100001a000000fd00313e0f
321e010a202020202020000000fc0048
5020416c6c2d696e2d4f6e65000000ff
004d32373044414e30322e380a20007f

Extracted contents:
header:          00 ff ff ff ff ff ff 00
serial number:   22 0e 27 40 01 00 00 00 21 1c
version:         01 04
basic params:    a5 3c 22 78 02
chroma info:     93 25 a9 54 4d 9e 25 0c 50 54
established:     00 00 00
standard:        01 01 01 01 01 01 01 01 01 01 01 01 01 01 01 01
descriptor 1:    14 60 00 d0 a0 a0 29 50 30 08 36 00 55 50 21 00 00 1a
descriptor 2:    00 00 00 fd 00 31 3e 0f 32 1e 01 0a 20 20 20 20 20 20
descriptor 3:    00 00 00 fc 00 48 50 20 41 6c 6c 2d 69 6e 2d 4f 6e 65
descriptor 4:    00 00 00 ff 00 4d 32 37 30 44 41 4e 30 32 2e 38 0a 20
extensions:      00
checksum:        7f

EDID version: 1.4
Manufacturer: HPN Model 4027 Serial Number --
Made in week 33 of 2018
Digital display
8 bits per primary color channel
DisplayPort interface
Maximum image size: 60 cm x 34 cm
Gamma: 2.20
Supported color formats: RGB 4:4:4
First detailed timing includes the native pixel format and preferred refresh rate
Display x,y Chromaticity:
  Red:   0.6621, 0.3291
  Green: 0.3007, 0.6201
  Blue:  0.1445, 0.0488
  White: 0.3134, 0.3291
Established timings supported:
Standard timings supported:
Detailed mode: Clock 245.960 MHz, 597 mm x 336 mm
               2560 2608 2616 2768 hborder 0
               1440 1443 1449 1481 vborder 0
               +hsync -vsync 
               VertFreq: 59 Hz, HorFreq: 88858 Hz
Monitor ranges (bare limits): 49-62Hz V, 15-50kHz H, max dotclock 300MHz
Serial number: --
Checksum: 0x7f (valid)
EDID block does NOT conform to EDID 1.4!
	Name descriptor not terminated with a newline
Warning: One or more of the timings is out of range of the Monitor Ranges:
  Vertical Freq: 59 - 59 Hz
  Horizontal Freq: 88858 - 88858 Hz
  Maximum Clock: 245.960 MHz
