edid-decode (hex):

00 ff ff ff ff ff ff 00 30 e4 a7 05 00 00 00 00
00 1b 01 04 a5 1f 11 78 e2 44 15 a1 52 46 a0 29
0f 50 54 00 00 00 01 01 01 01 01 01 01 01 01 01
01 01 01 01 01 01 69 5e 00 a0 a0 a0 29 50 30 20
a5 00 35 ae 10 00 00 1a 88 4b 00 a0 a0 a0 29 50
30 20 a5 00 35 ae 10 00 00 1a 00 00 00 fe 00 4c
47 20 44 69 73 70 6c 61 79 0a 20 20 00 00 00 fe
00 4c 50 31 34 30 51 48 32 2d 53 50 41 31 00 7c

----------------

Block 0, Base EDID:
  EDID Structure Version & Revision: 1.4
  Vendor & Product Identification:
    Manufacturer: LGD
    Model: 1447
    Made in: 2017
  Basic Display Parameters & Features:
    Digital display
    Bits per primary color channel: 8
    DisplayPort interface
    Maximum image size: 31 cm x 17 cm
    Gamma: 2.20
    DPMS levels: Standby Suspend Off
    Supported color formats: RGB 4:4:4
    First detailed timing includes the native pixel format and preferred refresh rate
  Color Characteristics:
    Red  : 0.6298, 0.3203
    Green: 0.2744, 0.6250
    Blue : 0.1601, 0.0595
    White: 0.3134, 0.3291
  Established Timings I & II: none
  Standard Timings: none
  Detailed Timing Descriptors:
    DTD 1:  2560x1440   59.997716 Hz  16:9     88.857 kHz    241.690000 MHz (309 mm x 174 mm)
                 Hfront   48 Hsync  32 Hback   80 Hpol P
                 Vfront   10 Vsync   5 Vback   26 Vpol N
    DTD 2:  2560x1440   48.000159 Hz  16:9     71.088 kHz    193.360000 MHz (309 mm x 174 mm)
                 Hfront   48 Hsync  32 Hback   80 Hpol P
                 Vfront   10 Vsync   5 Vback   26 Vpol N
    Alphanumeric Data String: 'LG Display'
    Alphanumeric Data String: 'LP140QH2-SPA1'
Checksum: 0x7c

----------------

Warnings:

Block 0, Base EDID:
  Missing Display Product Name.

EDID conformity: PASS
