edid-decode (hex):

00 ff ff ff ff ff ff 00 0e 6f 16 13 00 00 00 00
00 20 01 04 a5 1c 11 78 03 ee 65 a5 54 4c 9c 27
0f 53 59 00 00 00 01 01 01 01 01 01 01 01 01 01
01 01 01 01 01 01 50 46 70 2c 80 46 11 50 10 10
81 00 18 af 10 00 00 18 50 23 70 2c 80 46 11 50
10 10 81 00 18 af 10 00 00 18 00 00 00 fe 00 43
53 4f 54 20 54 33 0a 20 20 20 20 20 00 00 00 fe
00 4d 4e 44 30 30 37 5a 41 31 2d 33 0a 20 00 c7

00 ff ff ff ff ff ff 00 0e 6f 16 13 00 00 00 00
00 20 01 04 a5 1c 11 78 03 ee 65 a5 54 4c 9c 27
0f 53 59 00 00 00 01 01 01 01 01 01 01 01 01 01
01 01 01 01 01 01 50 46 70 2c 80 46 11 50 10 10
81 00 18 af 10 00 00 18 50 23 70 2c 80 46 11 50
10 10 81 00 18 af 10 00 00 18 00 00 00 fe 00 43
53 4f 54 20 54 33 0a 20 20 20 20 20 00 00 00 fe
00 4d 4e 44 30 30 37 5a 41 31 2d 33 0a 20 00 c7

----------------

Block 0, Base EDID:
  EDID Structure Version & Revision: 1.4
  Vendor & Product Identification:
    Manufacturer: CSO
    Model: 4886
    Made in: 2022
  Basic Display Parameters & Features:
    Digital display
    Bits per primary color channel: 8
    DisplayPort interface
    Maximum image size: 28 cm x 17 cm
    Gamma: 2.20
    Supported color formats: RGB 4:4:4
    First detailed timing includes the native pixel format and preferred refresh rate
    Display is continuous frequency
  Color Characteristics:
    Red  : 0.6474, 0.3300
    Green: 0.2998, 0.6113
    Blue : 0.1533, 0.0605
    White: 0.3251, 0.3486
  Established Timings I & II: none
  Standard Timings: none
  Detailed Timing Descriptors:
    DTD 1:  2160x1350   59.743739 Hz  16:10    81.670 kHz    180.000000 MHz (280 mm x 175 mm)
                 Hfront   16 Hsync  16 Hback   12 Hpol N
                 Vfront    8 Vsync   1 Vback    8 Vpol N
    DTD 2:  2160x1350   30.004633 Hz  16:10    41.016 kHz     90.400000 MHz (280 mm x 175 mm)
                 Hfront   16 Hsync  16 Hback   12 Hpol N
                 Vfront    8 Vsync   1 Vback    8 Vpol N
    Alphanumeric Data String: 'CSOT T3'
    Alphanumeric Data String: 'MND007ZA1-3'
Checksum: 0xc7

----------------

Block 1, Unknown EDID Extension Block 0x00:
  00 ff ff ff ff ff ff 00 0e 6f 16 13 00 00 00 00 '.........o......'
  00 20 01 04 a5 1c 11 78 03 ee 65 a5 54 4c 9c 27 '. .....x..e.TL.''
  0f 53 59 00 00 00 01 01 01 01 01 01 01 01 01 01 '.SY.............'
  01 01 01 01 01 01 50 46 70 2c 80 46 11 50 10 10 '......PFp,.F.P..'
  81 00 18 af 10 00 00 18 50 23 70 2c 80 46 11 50 '........P#p,.F.P'
  10 10 81 00 18 af 10 00 00 18 00 00 00 fe 00 43 '...............C'
  53 4f 54 20 54 33 0a 20 20 20 20 20 00 00 00 fe 'SOT T3.     ....'
  00 4d 4e 44 30 30 37 5a 41 31 2d 33 0a 20 00 c7 '.MND007ZA1-3. ..'
Checksum: 0xc7

----------------

Warnings:

Block 0, Base EDID:
  Missing Display Product Name.

Failures:

Block 0, Base EDID:
  Missing Display Range Limits Descriptor.
Block 1, Base EDID:
  Unknown Extension Block.
EDID:
  Base EDID: EDID specified 0 extension block(s), but found 1 extension block(s).

EDID conformity: FAIL
