
EDID (hex):
00ffffffffffff001e6dfc7622830400
0b1b0104b55725789eca95a6554ea126
0f5054256b807140818081c0a9c0b300
d1c08100d1cfd8a40020f14068603020
7a006a6e3100001a85cf0020f1407460
30207a006a6e3100001a000000fd0038
4b1e7d36000a202020202020000000fc
004c4720554c545241574944450a018d

Extracted contents:
header:          00 ff ff ff ff ff ff 00
serial number:   1e 6d fc 76 22 83 04 00 0b 1b
version:         01 04
basic params:    b5 57 25 78 9e
chroma info:     ca 95 a6 55 4e a1 26 0f 50 54
established:     25 6b 80
standard:        71 40 81 80 81 c0 a9 c0 b3 00 d1 c0 81 00 d1 cf
descriptor 1:    d8 a4 00 20 f1 40 68 60 30 20 7a 00 6a 6e 31 00 00 1a
descriptor 2:    85 cf 00 20 f1 40 74 60 30 20 7a 00 6a 6e 31 00 00 1a
descriptor 3:    00 00 00 fd 00 38 4b 1e 7d 36 00 0a 20 20 20 20 20 20
descriptor 4:    00 00 00 fc 00 4c 47 20 55 4c 54 52 41 57 49 44 45 0a
extensions:      01
checksum:        8d

EDID version: 1.4
Manufacturer: GSM Model 76fc Serial Number --
Made in week 11 of 2017
Digital display
10 bits per primary color channel
DisplayPort interface
Maximum image size: 87 cm x 37 cm
Gamma: 2.20
DPMS levels: Standby
Supported color formats: RGB 4:4:4, YCrCb 4:4:4, YCrCb 4:2:2
Default (sRGB) color space is primary color space
First detailed timing includes the native pixel format and preferred refresh rate
Display x,y Chromaticity:
  Red:   0.6513, 0.3320
  Green: 0.3066, 0.6308
  Blue:  0.1503, 0.0595
  White: 0.3134, 0.3291
Established timings supported:
  640x480@60Hz 4:3 HorFreq: 31469 Hz Clock: 25.175 MHz
  640x480@75Hz 4:3 HorFreq: 37500 Hz Clock: 31.500 MHz
  800x600@60Hz 4:3 HorFreq: 37900 Hz Clock: 40.000 MHz
  800x600@75Hz 4:3 HorFreq: 46900 Hz Clock: 49.500 MHz
  832x624@75Hz 4:3 HorFreq: 49726 Hz Clock: 57.284 MHz
  1024x768@60Hz 4:3 HorFreq: 48400 Hz Clock: 65.000 MHz
  1024x768@75Hz 4:3 HorFreq: 60000 Hz Clock: 78.750 MHz
  1280x1024@75Hz 5:4 HorFreq: 80000 Hz Clock: 135.000 MHz
  1152x870@75Hz 192:145 HorFreq: 67500 Hz Clock: 108.000 MHz
Standard timings supported:
  1152x864@60Hz 4:3
  1280x1024@60Hz 5:4 HorFreq: 64000 Hz Clock: 108.000 MHz
  1280x720@60Hz 16:9
  1600x900@60Hz 16:9
  1680x1050@60Hz 16:10 HorFreq: 64700 Hz Clock: 119.000 MHz
  1920x1080@60Hz 16:9
  1280x800@60Hz 16:10
  1920x1080@75Hz 16:9
Detailed mode: Clock 422.000 MHz, 874 mm x 366 mm
               3840 3888 3920 4128 hborder 0
               1600 1607 1617 1704 vborder 0
               +hsync -vsync 
               VertFreq: 59 Hz, HorFreq: 102228 Hz
Detailed mode: Clock 531.250 MHz, 874 mm x 366 mm
               3840 3888 3920 4128 hborder 0
               1600 1607 1617 1716 vborder 0
               +hsync -vsync 
               VertFreq: 74 Hz, HorFreq: 128694 Hz
Monitor ranges (GTF): 56-75Hz V, 30-125kHz H, max dotclock 540MHz
Monitor name: LG ULTRAWIDE
Has 1 extension blocks
Checksum: 0x8d (valid)
EDID block does NOT conform to EDID 1.4!
	sRGB is signaled, but the chromaticities do not match
Warning: One or more of the timings is out of range of the Monitor Ranges:
  Vertical Freq: 59 - 75 Hz
  Horizontal Freq: 31469 - 128694 Hz
  Maximum Clock: 531.250 MHz
