
EDID (hex):
00ffffffffffff003669822401000000
1d160103802c1964ea7b00a6554b9a25
135054254e0081c095c0a9c001010101
0101010101012f2640a060841a303020
3500ce101100001e000000ff00303030
3030310a202020202020000000fd0032
461e500f000a202020202020000000fc
004d53492041494f2050430a2020004d

Extracted contents:
header:          00 ff ff ff ff ff ff 00
serial number:   36 69 82 24 01 00 00 00 1d 16
version:         01 03
basic params:    80 2c 19 64 ea
chroma info:     7b 00 a6 55 4b 9a 25 13 50 54
established:     25 4e 00
standard:        81 c0 95 c0 a9 c0 01 01 01 01 01 01 01 01 01 01
descriptor 1:    2f 26 40 a0 60 84 1a 30 30 20 35 00 ce 10 11 00 00 1e
descriptor 2:    00 00 00 ff 00 30 30 30 30 30 31 0a 20 20 20 20 20 20
descriptor 3:    00 00 00 fd 00 32 46 1e 50 0f 00 0a 20 20 20 20 20 20
descriptor 4:    00 00 00 fc 00 4d 53 49 20 41 49 4f 20 50 43 0a 20 20
extensions:      00
checksum:        4d

EDID version: 1.3
Manufacturer: MSI Model 2482 Serial Number --
Made in week 29 of 2012
Digital display
Maximum image size: 44 cm x 25 cm
Gamma: 2.00
DPMS levels: Standby Suspend Off
RGB color display
First detailed timing is preferred timing
Display x,y Chromaticity:
  Red:   0.6494, 0.3349
  Green: 0.2949, 0.6044
  Blue:  0.1445, 0.0742
  White: 0.3125, 0.3281
Established timings supported:
  640x480@60Hz 4:3 HorFreq: 31469 Hz Clock: 25.175 MHz
  640x480@75Hz 4:3 HorFreq: 37500 Hz Clock: 31.500 MHz
  800x600@60Hz 4:3 HorFreq: 37900 Hz Clock: 40.000 MHz
  800x600@75Hz 4:3 HorFreq: 46900 Hz Clock: 49.500 MHz
  1024x768@60Hz 4:3 HorFreq: 48400 Hz Clock: 65.000 MHz
  1024x768@70Hz 4:3 HorFreq: 56500 Hz Clock: 75.000 MHz
  1024x768@75Hz 4:3 HorFreq: 60000 Hz Clock: 78.750 MHz
Standard timings supported:
  1280x720@60Hz 16:9
  1440x810@60Hz 16:9
  1600x900@60Hz 16:9
Detailed mode: Clock 97.750 MHz, 462 mm x 272 mm
               1600 1648 1680 1760 hborder 0
                900  903  908  926 vborder 0
               +hsync +vsync 
               VertFreq: 59 Hz, HorFreq: 55539 Hz
Serial number: --
Monitor ranges (GTF): 50-70Hz V, 30-80kHz H, max dotclock 150MHz
Monitor name: MSI AIO PC
Checksum: 0x4d (valid)
One or more of the timings is out of range of the Monitor Ranges:
  Vertical Freq: 59 - 75 Hz
  Horizontal Freq: 31469 - 60000 Hz
  Maximum Clock: 97.750 MHz
