
EDID (hex):
00ffffffffffff00410c504615035435
00100103801e17780ab4439e574c9426
154a4dbfee0031d93119010101010101
01010101010164190040410026301888
360030e410000018000000fd002f4b1f
3c080000000000000000000000fc0050
484c2031352258474154560a000000ff
00000000000000000000000000000031

Extracted contents:
header:          00 ff ff ff ff ff ff 00
serial number:   41 0c 50 46 15 03 54 35 00 10
version:         01 03
basic params:    80 1e 17 78 0a
chroma info:     b4 43 9e 57 4c 94 26 15 4a 4d
established:     bf ee 00
standard:        31 d9 31 19 01 01 01 01 01 01 01 01 01 01 01 01
descriptor 1:    64 19 00 40 41 00 26 30 18 88 36 00 30 e4 10 00 00 18
descriptor 2:    00 00 00 fd 00 2f 4b 1f 3c 08 00 00 00 00 00 00 00 00
descriptor 3:    00 00 00 fc 00 50 48 4c 20 31 35 22 58 47 41 54 56 0a
descriptor 4:    00 00 00 ff 00 00 00 00 00 00 00 00 00 00 00 00 00 00
extensions:      00
checksum:        31

EDID version: 1.3
Manufacturer: PHL Model 4650 Serial Number --
Made in year 2006
Digital display
Maximum image size: 30 cm x 23 cm
Gamma: 2.20
RGB color display
First detailed timing is preferred timing
Display x,y Chromaticity:
  Red:   0.6191, 0.3427
  Green: 0.2978, 0.5781
  Blue:  0.1494, 0.0820
  White: 0.2890, 0.3037
Established timings supported:
  720x400@70Hz 9:5 HorFreq: 31469 Hz Clock: 28.320 MHz
  640x480@60Hz 4:3 HorFreq: 31469 Hz Clock: 25.175 MHz
  640x480@67Hz 4:3 HorFreq: 35000 Hz Clock: 30.240 MHz
  640x480@72Hz 4:3 HorFreq: 37900 Hz Clock: 31.500 MHz
  640x480@75Hz 4:3 HorFreq: 37500 Hz Clock: 31.500 MHz
  800x600@56Hz 4:3 HorFreq: 35200 Hz Clock: 36.000 MHz
  800x600@60Hz 4:3 HorFreq: 37900 Hz Clock: 40.000 MHz
  800x600@72Hz 4:3 HorFreq: 48100 Hz Clock: 50.000 MHz
  800x600@75Hz 4:3 HorFreq: 46900 Hz Clock: 49.500 MHz
  832x624@75Hz 4:3 HorFreq: 49726 Hz Clock: 57.284 MHz
  1024x768@60Hz 4:3 HorFreq: 48400 Hz Clock: 65.000 MHz
  1024x768@70Hz 4:3 HorFreq: 56500 Hz Clock: 75.000 MHz
  1024x768@75Hz 4:3 HorFreq: 60000 Hz Clock: 78.750 MHz
Standard timings supported:
  640x360@85Hz 16:9
  640x400@85Hz 16:10 HorFreq: 37900 Hz Clock: 31.500 MHz
Detailed mode: Clock 65.000 MHz, 304 mm x 228 mm
               1024 1048 1184 1344 hborder 0
                768  771  777  806 vborder 0
               -hsync -vsync 
               VertFreq: 60 Hz, HorFreq: 48363 Hz
Monitor ranges (GTF): 47-75Hz V, 31-60kHz H, max dotclock 80MHz
Monitor name: PHL 15"XGATV
Serial number: 
-- 0x31 (valid)
EDID block does NOT conform to EDID 1.3!
	Detailed block string not properly terminated
One or more of the timings is out of range of the Monitor Ranges:
  Vertical Freq: 56 - 85 Hz
  Horizontal Freq: 31469 - 60000 Hz
  Maximum Clock: 78.750 MHz
