
EDID (hex):
00ffffffffffff000d12060970030000
15150104a5000078e28042ac5130b425
10505300000001010101010101010101
01010101010140388080703814403020
350015382100001ce02e808070381440
3020350015382100001c000000fd0038
4c1e5311000a202020202020000000fc
003233222041494f0a2020202020001d

Extracted contents:
header:          00 ff ff ff ff ff ff 00
serial number:   0d 12 06 09 70 03 00 00 15 15
version:         01 04
basic params:    a5 00 00 78 e2
chroma info:     80 42 ac 51 30 b4 25 10 50 53
established:     00 00 00
standard:        01 01 01 01 01 01 01 01 01 01 01 01 01 01 01 01
descriptor 1:    40 38 80 80 70 38 14 40 30 20 35 00 15 38 21 00 00 1c
descriptor 2:    e0 2e 80 80 70 38 14 40 30 20 35 00 15 38 21 00 00 1c
descriptor 3:    00 00 00 fd 00 38 4c 1e 53 11 00 0a 20 20 20 20 20 20
descriptor 4:    00 00 00 fc 00 32 33 22 20 41 49 4f 0a 20 20 20 20 20
extensions:      00
checksum:        1d

EDID version: 1.4
Manufacturer: CHR Model 906 Serial Number --
Made in week 21 of 2011
Digital display
8 bits per primary color channel
DisplayPort interface
Image size is variable
Gamma: 2.20
DPMS levels: Standby Suspend Off
Supported color formats: RGB 4:4:4
First detailed timing includes the native pixel format and preferred refresh rate
Display x,y Chromaticity:
  Red:   0.6738, 0.3164
  Green: 0.1875, 0.7031
  Blue:  0.1455, 0.0625
  White: 0.3125, 0.3261
Established timings supported:
Standard timings supported:
Detailed mode: Clock 144.000 MHz, 533 mm x 312 mm
               1920 1968 2000 2048 hborder 0
               1080 1083 1088 1100 vborder 0
               -hsync +vsync 
               VertFreq: 63 Hz, HorFreq: 70312 Hz
Detailed mode: Clock 120.000 MHz, 533 mm x 312 mm
               1920 1968 2000 2048 hborder 0
               1080 1083 1088 1100 vborder 0
               -hsync +vsync 
               VertFreq: 53 Hz, HorFreq: 58593 Hz
Monitor ranges (GTF): 56-76Hz V, 30-83kHz H, max dotclock 170MHz
Monitor name: 23" AIO
Checksum: 0x1d (valid)
Warning: One or more of the timings is out of range of the Monitor Ranges:
  Vertical Freq: 53 - 63 Hz
  Horizontal Freq: 58593 - 70312 Hz
  Maximum Clock: 144.000 MHz
