edid-decode (hex):

00 ff ff ff ff ff ff 00 3d cb 81 0c 00 00 00 00
00 16 01 03 80 6a 3b 78 0a ee 91 a3 54 4c 99 26
0f 50 54 2d cf 00 81 00 81 80 b3 00 01 01 01 01
01 01 01 01 01 01 02 3a 80 18 71 38 2d 40 58 2c
45 00 77 f4 31 00 00 1e 01 1d 00 72 51 d0 1e 20
6e 28 55 00 00 00 00 00 00 1e 00 00 00 fc 00 4f
4e 4b 59 4f 2d 41 56 52 20 20 20 20 00 00 00 fd
00 38 4c 23 53 11 00 0a 20 20 20 20 20 20 00 e8

00 ff ff ff ff ff ff 00 3d cb 81 0c 00 00 00 00
00 16 01 03 80 6a 3b 78 0a ee 91 a3 54 4c 99 26
0f 50 54 2d cf 00 81 00 81 80 b3 00 01 01 01 01
01 01 01 01 01 01 02 3a 80 18 71 38 2d 40 58 2c
45 00 77 f4 31 00 00 1e 01 1d 00 72 51 d0 1e 20
6e 28 55 00 00 00 00 00 00 1e 00 00 00 fc 00 4f
4e 4b 59 4f 2d 41 56 52 20 20 20 20 00 00 00 fd
00 38 4c 23 53 11 00 0a 20 20 20 20 20 20 00 e8

----------------

Block 0, Base EDID:
  EDID Structure Version & Revision: 1.3
  Vendor & Product Identification:
    Manufacturer: ONK
    Model: 3201
    Made in: 2012
  Basic Display Parameters & Features:
    Digital display
    Maximum image size: 106 cm x 59 cm
    Gamma: 2.20
    RGB color display
    First detailed timing is the preferred timing
  Color Characteristics:
    Red  : 0.6396, 0.3300
    Green: 0.2998, 0.5996
    Blue : 0.1503, 0.0595
    White: 0.3125, 0.3291
  Established Timings I & II:
    DMT 0x04:   640x480    59.940476 Hz   4:3     31.469 kHz     25.175000 MHz
    DMT 0x05:   640x480    72.808802 Hz   4:3     37.861 kHz     31.500000 MHz
    DMT 0x06:   640x480    75.000000 Hz   4:3     37.500 kHz     31.500000 MHz
    DMT 0x09:   800x600    60.316541 Hz   4:3     37.879 kHz     40.000000 MHz
    DMT 0x0a:   800x600    72.187572 Hz   4:3     48.077 kHz     50.000000 MHz
    DMT 0x0b:   800x600    75.000000 Hz   4:3     46.875 kHz     49.500000 MHz
    DMT 0x10:  1024x768    60.003840 Hz   4:3     48.363 kHz     65.000000 MHz
    DMT 0x11:  1024x768    70.069359 Hz   4:3     56.476 kHz     75.000000 MHz
    DMT 0x12:  1024x768    75.028582 Hz   4:3     60.023 kHz     78.750000 MHz
    DMT 0x24:  1280x1024   75.024675 Hz   5:4     79.976 kHz    135.000000 MHz
  Standard Timings:
    DMT 0x1c:  1280x800    59.810326 Hz  16:10    49.702 kHz     83.500000 MHz
    DMT 0x23:  1280x1024   60.019740 Hz   5:4     63.981 kHz    108.000000 MHz
    DMT 0x3a:  1680x1050   59.954250 Hz  16:10    65.290 kHz    146.250000 MHz
  Detailed Timing Descriptors:
    DTD 1:  1920x1080   60.000000 Hz  16:9     67.500 kHz    148.500000 MHz (887 mm x 500 mm)
                 Hfront   88 Hsync  44 Hback  148 Hpol P
                 Vfront    4 Vsync   5 Vback   36 Vpol P
    DTD 2:  1280x720    60.000000 Hz  16:9     45.000 kHz     74.250000 MHz
                 Hfront  110 Hsync  40 Hback  220 Hpol P
                 Vfront    5 Vsync   5 Vback   20 Vpol P
    Display Product Name: 'ONKYO-AVR    '
    Display Range Limits:
      Monitor ranges (GTF): 56-76 Hz V, 35-83 kHz H, max dotclock 170 MHz
Checksum: 0xe8

----------------

Block 1, Unknown EDID Extension Block 0x00:
  00 ff ff ff ff ff ff 00 3d cb 81 0c 00 00 00 00 '........=.......'
  00 16 01 03 80 6a 3b 78 0a ee 91 a3 54 4c 99 26 '.....j;x....TL.&'
  0f 50 54 2d cf 00 81 00 81 80 b3 00 01 01 01 01 '.PT-............'
  01 01 01 01 01 01 02 3a 80 18 71 38 2d 40 58 2c '.......:..q8-@X,'
  45 00 77 f4 31 00 00 1e 01 1d 00 72 51 d0 1e 20 'E.w.1......rQ.. '
  6e 28 55 00 00 00 00 00 00 1e 00 00 00 fc 00 4f 'n(U............O'
  4e 4b 59 4f 2d 41 56 52 20 20 20 20 00 00 00 fd 'NKYO-AVR    ....'
  00 38 4c 23 53 11 00 0a 20 20 20 20 20 20 00 e8 '.8L#S...      ..'
Checksum: 0xe8

----------------

Failures:

Block 0, Base EDID:
  Basic Display Parameters & Features: The chromaticities match sRGB, but sRGB is not signaled.
  Detailed Timing Descriptor #1: Mismatch of image size 887x500 mm vs display size 1060x590 mm.
  Detailed Timing Descriptor #2: Mismatch of image size vs display size: image size is not set, but display size is.
  Display Product Name: One or more trailing spaces.
Block 1, Base EDID:
  Unknown Extension Block.
EDID:
  Base EDID: Some timings are out of range of the Monitor Ranges:
    Horizontal Freq: 31.468 - 79.976 kHz (Monitor: 35.000 - 83.000 kHz)
  Base EDID: EDID specified 0 extension block(s), but found 1 extension block(s).

EDID conformity: FAIL
