
EDID (hex):
00ffffffffffff004e140122cf040000
25110103812f1e782ba0d8a3534a9925
0f474abfef80714081c0810081408180
8bc09500b300023a8004713823405858
3600da281100001c000000fd00184d0f
5e11000a202020202020000000fc0053
6365707472650a2020202020000000fc
0058323257472d31303830500a20002a

Extracted contents:
header:          00 ff ff ff ff ff ff 00
serial number:   4e 14 01 22 cf 04 00 00 25 11
version:         01 03
basic params:    81 2f 1e 78 2b
chroma info:     a0 d8 a3 53 4a 99 25 0f 47 4a
established:     bf ef 80
standard:        71 40 81 c0 81 00 81 40 81 80 8b c0 95 00 b3 00
descriptor 1:    02 3a 80 04 71 38 23 40 58 58 36 00 da 28 11 00 00 1c
descriptor 2:    00 00 00 fd 00 18 4d 0f 5e 11 00 0a 20 20 20 20 20 20
descriptor 3:    00 00 00 fc 00 53 63 65 70 74 72 65 0a 20 20 20 20 20
descriptor 4:    00 00 00 fc 00 58 32 32 57 47 2d 31 30 38 30 50 0a 20
extensions:      00
checksum:        2a

EDID version: 1.3
Manufacturer: SPT Model 2201 Serial Number --
Made in week 37 of 2007
Digital display
DFP 1.x compatible TMDS
Maximum image size: 47 cm x 30 cm
Gamma: 2.20
DPMS levels: Off
RGB color display
First detailed timing is preferred timing
Supports GTF timings within operating range
Display x,y Chromaticity:
  Red:   0.6386, 0.3261
  Green: 0.2890, 0.5976
  Blue:  0.1474, 0.0595
  White: 0.2792, 0.2890
Established timings supported:
  720x400@70Hz 9:5 HorFreq: 31469 Hz Clock: 28.320 MHz
  640x480@60Hz 4:3 HorFreq: 31469 Hz Clock: 25.175 MHz
  640x480@67Hz 4:3 HorFreq: 35000 Hz Clock: 30.240 MHz
  640x480@72Hz 4:3 HorFreq: 37900 Hz Clock: 31.500 MHz
  640x480@75Hz 4:3 HorFreq: 37500 Hz Clock: 31.500 MHz
  800x600@56Hz 4:3 HorFreq: 35200 Hz Clock: 36.000 MHz
  800x600@60Hz 4:3 HorFreq: 37900 Hz Clock: 40.000 MHz
  800x600@72Hz 4:3 HorFreq: 48100 Hz Clock: 50.000 MHz
  800x600@75Hz 4:3 HorFreq: 46900 Hz Clock: 49.500 MHz
  832x624@75Hz 4:3 HorFreq: 49726 Hz Clock: 57.284 MHz
  1024x768@60Hz 4:3 HorFreq: 48400 Hz Clock: 65.000 MHz
  1024x768@70Hz 4:3 HorFreq: 56500 Hz Clock: 75.000 MHz
  1024x768@75Hz 4:3 HorFreq: 60000 Hz Clock: 78.750 MHz
  1280x1024@75Hz 5:4 HorFreq: 80000 Hz Clock: 135.000 MHz
  1152x870@75Hz 192:145 HorFreq: 67500 Hz Clock: 108.000 MHz
Standard timings supported:
  1152x864@60Hz 4:3
  1280x720@60Hz 16:9
  1280x800@60Hz 16:10
  1280x960@60Hz 4:3 HorFreq: 60000 Hz Clock: 108.000 MHz
  1280x1024@60Hz 5:4 HorFreq: 64000 Hz Clock: 108.000 MHz
  1360x765@60Hz 16:9
  1440x900@60Hz 16:10 HorFreq: 55500 Hz Clock: 88.750 MHz
  1680x1050@60Hz 16:10 HorFreq: 64700 Hz Clock: 119.000 MHz
Detailed mode: Clock 148.500 MHz, 474 mm x 296 mm
               1920 2008 2096 2180 hborder 0
               1080 1083 1089 1115 vborder 0
               -hsync +vsync 
               VertFreq: 61 Hz, HorFreq: 68119 Hz
Monitor ranges (GTF): 24-77Hz V, 15-94kHz H, max dotclock 170MHz
Monitor name: Sceptre
Checksum: 0x2a (valid)


