
EDID (hex):
00ffffffffffff0030e4970400000000
00190104951a0e78025585985c568f27
1c505400000001010101010101010101
010101010101ce1d56f4500016303020
35000090100000190000000000000000
00000000000000000000000000fe004c
4720446973706c61790a2020000000fe
004c503131365748372d535042310033

Extracted contents:
header:          00 ff ff ff ff ff ff 00
serial number:   30 e4 97 04 00 00 00 00 00 19
version:         01 04
basic params:    95 1a 0e 78 02
chroma info:     55 85 98 5c 56 8f 27 1c 50 54
established:     00 00 00
standard:        01 01 01 01 01 01 01 01 01 01 01 01 01 01 01 01
descriptor 1:    ce 1d 56 f4 50 00 16 30 30 20 35 00 00 90 10 00 00 19
descriptor 2:    00 00 00 00 00 00 00 00 00 00 00 00 00 00 00 00 00 00
descriptor 3:    00 00 00 fe 00 4c 47 20 44 69 73 70 6c 61 79 0a 20 20
descriptor 4:    00 00 00 fe 00 4c 50 31 31 36 57 48 37 2d 53 50 42 31
extensions:      00
checksum:        33

EDID version: 1.4
Manufacturer: LGD Model 497 Serial Number --
Made in year 2015
Digital display
6 bits per primary color channel
DisplayPort interface
Maximum image size: 26 cm x 14 cm
Gamma: 2.20
Supported color formats: RGB 4:4:4
First detailed timing includes the native pixel format and preferred refresh rate
Display x,y Chromaticity:
  Red:   0.5947, 0.3603
  Green: 0.3369, 0.5595
  Blue:  0.1542, 0.1093
  White: 0.3134, 0.3291
Established timings supported:
Standard timings supported:
Detailed mode: Clock 76.300 MHz, 256 mm x 144 mm
               1366 1414 1446 1610 hborder 0
                768  771  776  790 vborder 0
               -hsync -vsync 
               VertFreq: 59 Hz, HorFreq: 47391 Hz
Manufacturer-specified data, tag 0
ASCII string: LG Display
ASCII string: LP116WH7-SPB1
Checksum: 0x33 (valid)
EDID block does NOT conform to EDID 1.4!
	Missing name descriptor
	Missing monitor ranges
