
EDID (hex):
00ffffffffffff002034601101010101
2f1c0103801a0e78eade50a3544c9926
0f5054a54b008180a940d1c08b000101
010101010101023a801871382d40582c
450000901000001e000000ff00000a20
20202020202020202020000000fc0047
542d3131360a202020202020000000fd
00314c1e5111000a202020202020003f

Extracted contents:
header:          00 ff ff ff ff ff ff 00
serial number:   20 34 60 11 01 01 01 01 2f 1c
version:         01 03
basic params:    80 1a 0e 78 ea
chroma info:     de 50 a3 54 4c 99 26 0f 50 54
established:     a5 4b 00
standard:        81 80 a9 40 d1 c0 8b 00 01 01 01 01 01 01 01 01
descriptor 1:    02 3a 80 18 71 38 2d 40 58 2c 45 00 00 90 10 00 00 1e
descriptor 2:    00 00 00 ff 00 00 0a 20 20 20 20 20 20 20 20 20 20 20
descriptor 3:    00 00 00 fc 00 47 54 2d 31 31 36 0a 20 20 20 20 20 20
descriptor 4:    00 00 00 fd 00 31 4c 1e 51 11 00 0a 20 20 20 20 20 20
extensions:      00
checksum:        3f

EDID version: 1.3
Manufacturer: HAT Model 1160 Serial Number --
Made in week 47 of 2018
Digital display
Maximum image size: 26 cm x 14 cm
Gamma: 2.20
DPMS levels: Standby Suspend Off
RGB color display
First detailed timing is preferred timing
Display x,y Chromaticity:
  Red:   0.6396, 0.3291
  Green: 0.2998, 0.5996
  Blue:  0.1494, 0.0595
  White: 0.3125, 0.3281
Established timings supported:
  720x400@70Hz 9:5 HorFreq: 31469 Hz Clock: 28.320 MHz
  640x480@60Hz 4:3 HorFreq: 31469 Hz Clock: 25.175 MHz
  640x480@75Hz 4:3 HorFreq: 37500 Hz Clock: 31.500 MHz
  800x600@60Hz 4:3 HorFreq: 37900 Hz Clock: 40.000 MHz
  800x600@75Hz 4:3 HorFreq: 46900 Hz Clock: 49.500 MHz
  1024x768@60Hz 4:3 HorFreq: 48400 Hz Clock: 65.000 MHz
  1024x768@75Hz 4:3 HorFreq: 60000 Hz Clock: 78.750 MHz
  1280x1024@75Hz 5:4 HorFreq: 80000 Hz Clock: 135.000 MHz
Standard timings supported:
  1280x1024@60Hz 5:4 HorFreq: 64000 Hz Clock: 108.000 MHz
  1600x1200@60Hz 4:3 HorFreq: 75000 Hz Clock: 162.000 MHz
  1920x1080@60Hz 16:9
  1360x850@60Hz 16:10
Detailed mode: Clock 148.500 MHz, 256 mm x 144 mm
               1920 2008 2052 2200 hborder 0
               1080 1084 1089 1125 vborder 0
               +hsync +vsync 
               VertFreq: 60 Hz, HorFreq: 67500 Hz
Serial number: 
-- name: GT-116
Monitor ranges (GTF): 49-76Hz V, 30-81kHz H, max dotclock 170MHz
Checksum: 0x3f (valid)
EDID block does NOT conform to EDID 1.3!
	Detailed block string not properly terminated
