
EDID (hex):
00ffffffffffff0022f0444201000000
01190103812b1878ea64b5ab5238ab25
13505400000001010101010101010101
010101010101d52d400062841a30582c
4500b0f01000001c0000001000000000
00000000000000000000000000fc0048
5020414c4c2d696e2d4f6e65000000ff
004d3139354647452d4c32300a20008b

Extracted contents:
header:          00 ff ff ff ff ff ff 00
serial number:   22 f0 44 42 01 00 00 00 01 19
version:         01 03
basic params:    81 2b 18 78 ea
chroma info:     64 b5 ab 52 38 ab 25 13 50 54
established:     00 00 00
standard:        01 01 01 01 01 01 01 01 01 01 01 01 01 01 01 01
descriptor 1:    d5 2d 40 00 62 84 1a 30 58 2c 45 00 b0 f0 10 00 00 1c
descriptor 2:    00 00 00 10 00 00 00 00 00 00 00 00 00 00 00 00 00 00
descriptor 3:    00 00 00 fc 00 48 50 20 41 4c 4c 2d 69 6e 2d 4f 6e 65
descriptor 4:    00 00 00 ff 00 4d 31 39 35 46 47 45 2d 4c 32 30 0a 20
extensions:      00
checksum:        8b

EDID version: 1.3
Manufacturer: HWP Model 4244 Serial Number --
Made in week 1 of 2015
Digital display
DFP 1.x compatible TMDS
Maximum image size: 43 cm x 24 cm
Gamma: 2.20
DPMS levels: Standby Suspend Off
RGB color display
First detailed timing is preferred timing
Display x,y Chromaticity:
  Red:   0.6689, 0.3222
  Green: 0.2197, 0.6679
  Blue:  0.1464, 0.0771
  White: 0.3134, 0.3291
Established timings supported:
Standard timings supported:
Detailed mode: Clock 117.330 MHz, 432 mm x 240 mm
               1600 1688 1732 2112 hborder 0
                900  904  909  926 vborder 0
               -hsync +vsync 
               VertFreq: 59 Hz, HorFreq: 55553 Hz
Dummy block
Serial number: --
Checksum: 0x8b (valid)
EDID block does NOT conform to EDID 1.3!
	Name descriptor not terminated with a newline
	Missing monitor ranges


