
EDID (hex):
00ffffffffffff0022f0444201000000
10170103802b1878ee40a0a35a52a226
0e505400000001010101010101010101
010101010101d52d400062841a301850
1300b0f010000000000000fc00485020
416c6c2d696e2d4f6e65000000fc000a
202020202020202020202020000000fc
000a2020202020202020202020200097

Extracted contents:
header:          00 ff ff ff ff ff ff 00
serial number:   22 f0 44 42 01 00 00 00 10 17
version:         01 03
basic params:    80 2b 18 78 ee
chroma info:     40 a0 a3 5a 52 a2 26 0e 50 54
established:     00 00 00
standard:        01 01 01 01 01 01 01 01 01 01 01 01 01 01 01 01
descriptor 1:    d5 2d 40 00 62 84 1a 30 18 50 13 00 b0 f0 10 00 00 00
descriptor 2:    00 00 00 fc 00 48 50 20 41 6c 6c 2d 69 6e 2d 4f 6e 65
descriptor 3:    00 00 00 fc 00 0a 20 20 20 20 20 20 20 20 20 20 20 20
descriptor 4:    00 00 00 fc 00 0a 20 20 20 20 20 20 20 20 20 20 20 20
extensions:      00
checksum:        97

EDID version: 1.3
Manufacturer: HWP Model 4244 Serial Number --
Made in week 16 of 2013
Digital display
Maximum image size: 43 cm x 24 cm
Gamma: 2.20
DPMS levels: Standby Suspend Off
RGB color display
Default (sRGB) color space is primary color space
First detailed timing is preferred timing
Display x,y Chromaticity:
  Red:   0.6376, 0.3515
  Green: 0.3203, 0.6328
  Blue:  0.1503, 0.0566
  White: 0.3125, 0.3281
Established timings supported:
Standard timings supported:
Detailed mode: Clock 117.330 MHz, 432 mm x 240 mm
               1600 1624 1704 2112 hborder 0
                900  901  904  926 vborder 0
               -hsync -vsync analog composite 
               VertFreq: 59 Hz, HorFreq: 55553 Hz
Monitor name: HP All-in-One
Checksum: 0x97 (valid)
EDID block does NOT conform to EDID 1.3!
	sRGB is signaled, but the chromaticities do not match
	Missing monitor ranges
