edid-decode (hex):

00 ff ff ff ff ff ff 00 09 d1 72 76 13 01 00 00
17 0e 01 03 80 26 1e 78 ea 6c 5a a2 5a 4e 9b 23
16 4f 54 bd ef 80 71 4f 81 80 81 8c 81 8f 01 01
01 01 01 01 01 01 30 2a 00 98 51 00 2a 40 30 70
13 00 52 0e 11 00 00 1e 00 00 00 fc 00 42 65 6e
51 20 46 50 39 39 32 0a 20 20 00 00 00 ff 00 34
32 33 30 30 32 37 35 20 0a 20 20 20 00 00 00 fd
00 38 4c 1e 53 0e 0a 20 20 20 20 20 20 20 00 49

00 ff ff ff ff ff ff 00 09 d1 72 76 13 01 00 00
17 0e 01 03 80 26 1e 78 ea 6c 5a a2 5a 4e 9b 23
16 4f 54 bd ef 80 71 4f 81 80 81 8c 81 8f 01 01
01 01 01 01 01 01 30 2a 00 98 51 00 2a 40 30 70
13 00 52 0e 11 00 00 1e 00 00 00 fc 00 42 65 6e
51 20 46 50 39 39 32 0a 20 20 00 00 00 ff 00 34
32 33 30 30 32 37 35 20 0a 20 20 20 00 00 00 fd
00 38 4c 1e 53 0e 0a 20 20 20 20 20 20 20 00 49

----------------

Block 0, Base EDID:
  EDID Structure Version & Revision: 1.3
  Vendor & Product Identification:
    Manufacturer: BNQ
    Model: 30322
    Serial Number: ...
    Made in: week 23 of 2004
  Basic Display Parameters & Features:
    Digital display
    Maximum image size: 38 cm x 30 cm
    Gamma: 2.20
    DPMS levels: Standby Suspend Off
    RGB color display
    First detailed timing is the preferred timing
  Color Characteristics:
    Red  : 0.6337, 0.3535
    Green: 0.3076, 0.6054
    Blue : 0.1376, 0.0869
    White: 0.3105, 0.3300
  Established Timings I & II:
    IBM     :   720x400    70.081663 Hz   9:5     31.467 kHz     28.320000 MHz
    DMT 0x04:   640x480    59.940476 Hz   4:3     31.469 kHz     25.175000 MHz
    Apple   :   640x480    66.666667 Hz   4:3     35.000 kHz     30.240000 MHz
    DMT 0x05:   640x480    72.808802 Hz   4:3     37.861 kHz     31.500000 MHz
    DMT 0x06:   640x480    75.000000 Hz   4:3     37.500 kHz     31.500000 MHz
    DMT 0x09:   800x600    60.316541 Hz   4:3     37.879 kHz     40.000000 MHz
    DMT 0x0a:   800x600    72.187572 Hz   4:3     48.077 kHz     50.000000 MHz
    DMT 0x0b:   800x600    75.000000 Hz   4:3     46.875 kHz     49.500000 MHz
    Apple   :   832x624    74.551266 Hz   4:3     49.726 kHz     57.284000 MHz
    DMT 0x10:  1024x768    60.003840 Hz   4:3     48.363 kHz     65.000000 MHz
    DMT 0x11:  1024x768    70.069359 Hz   4:3     56.476 kHz     75.000000 MHz
    DMT 0x12:  1024x768    75.028582 Hz   4:3     60.023 kHz     78.750000 MHz
    DMT 0x24:  1280x1024   75.024675 Hz   5:4     79.976 kHz    135.000000 MHz
    Apple   :  1152x870    75.061550 Hz 192:145   68.681 kHz    100.000000 MHz
  Standard Timings:
    DMT 0x15:  1152x864    75.000000 Hz   4:3     67.500 kHz    108.000000 MHz
    DMT 0x23:  1280x1024   60.019740 Hz   5:4     63.981 kHz    108.000000 MHz
    GTF     :  1280x1024   72.000069 Hz   5:4     76.824 kHz    132.752000 MHz
    DMT 0x24:  1280x1024   75.024675 Hz   5:4     79.976 kHz    135.000000 MHz
  Detailed Timing Descriptors:
    DTD 1:  1280x1024   60.019740 Hz   5:4     63.981 kHz    108.000000 MHz (338 mm x 270 mm)
                 Hfront   48 Hsync 112 Hback  248 Hpol P
                 Vfront    1 Vsync   3 Vback   38 Vpol P
    Display Product Name: 'BenQ FP992'
    Display Product Serial Number: ...
    Display Range Limits:
      Monitor ranges (Unknown (0x0a)): 56-76 Hz V, 30-83 kHz H, max dotclock 140 MHz
Checksum: 0x49

----------------

Block 1, Unknown EDID Extension Block 0x00:
  00 ff ff ff ff ff ff 00 09 d1 72 76 13 01 00 00 '..........rv....'
  17 0e 01 03 80 26 1e 78 ea 6c 5a a2 5a 4e 9b 23 '.....&.x.lZ.ZN.#'
  16 4f 54 bd ef 80 71 4f 81 80 81 8c 81 8f 01 01 '.OT...qO........'
  01 01 01 01 01 01 30 2a 00 98 51 00 2a 40 30 70 '......0*..Q.*@0p'
  13 00 52 0e 11 00 00 1e 00 00 00 fc 00 42 65 6e '..R..........Ben'
  51 20 46 50 39 39 32 0a 20 20 00 00 00 ff 00 34 'Q FP992.  .....4'
  32 33 30 30 32 37 35 20 0a 20 20 20 00 00 00 fd '2300275 .   ....'
  00 38 4c 1e 53 0e 0a 20 20 20 20 20 20 20 00 49 '.8L.S..       .I'
Checksum: 0x49

----------------

Failures:

Block 0, Base EDID:
  Detailed Timing Descriptor #1: Mismatch of image size 338x270 mm vs display size 380x300 mm.
  Display Product Serial Number: ...
  Display Range Limits: Unknown range class (0x0a).
  Display Range Limits: Byte 11 is 0x20 instead of 0x0a.
Block 1, Base EDID:
  Unknown Extension Block.
EDID:
  Base EDID: EDID specified 0 extension block(s), but found 1 extension block(s).

EDID conformity: FAIL
