edid-decode (hex):

00 ff ff ff ff ff ff 00 07 21 15 01 25 10 24 20
27 22 01 04 a5 09 06 78 3a ef 65 a6 56 52 9d 28
0b 50 54 00 00 00 01 01 01 01 01 01 01 01 01 01
01 01 01 01 01 01 34 30 38 aa 40 54 19 60 50 0a
e2 00 5f 3f 00 00 00 1e 00 00 00 10 00 00 00 00
00 00 00 00 00 00 00 00 00 00 00 00 00 10 00 00
00 00 00 00 00 00 00 00 00 00 00 00 00 00 00 fc
00 41 59 41 4c 43 44 5f 51 48 44 0a 20 20 00 da

00 ff ff ff ff ff ff 00 07 21 15 01 25 10 24 20
27 22 01 04 a5 09 06 78 3a ef 65 a6 56 52 9d 28
0b 50 54 00 00 00 01 01 01 01 01 01 01 01 01 01
01 01 01 01 01 01 34 30 38 aa 40 54 19 60 50 0a
e2 00 5f 3f 00 00 00 1e 00 00 00 10 00 00 00 00
00 00 00 00 00 00 00 00 00 00 00 00 00 10 00 00
00 00 00 00 00 00 00 00 00 00 00 00 00 00 00 fc
00 41 59 41 4c 43 44 5f 51 48 44 0a 20 20 00 da

----------------

Block 0, Base EDID:
  EDID Structure Version & Revision: 1.4
  Vendor & Product Identification:
    Manufacturer: AYA
    Model: 277
    Serial Number: ...
    Made in: week 39 of 2024
  Basic Display Parameters & Features:
    Digital display
    Bits per primary color channel: 8
    DisplayPort interface
    Maximum image size: 9 cm x 6 cm
    Gamma: 2.20
    DPMS levels: Off
    Supported color formats: RGB 4:4:4, YCrCb 4:4:4, YCrCb 4:2:2
    First detailed timing includes the native pixel format and preferred refresh rate
  Color Characteristics:
    Red  : 0.6513, 0.3378
    Green: 0.3232, 0.6162
    Blue : 0.1572, 0.0449
    White: 0.3134, 0.3291
  Established Timings I & II: none
  Standard Timings: none
  Detailed Timing Descriptors:
    DTD 1:  1080x1620   60.012158 Hz   2:3     98.720 kHz    123.400000 MHz (95 mm x 63 mm)
                 Hfront   80 Hsync  10 Hback   80 Hpol P
                 Vfront   14 Vsync   2 Vback    9 Vpol P
    Dummy Descriptor:
    Dummy Descriptor:
    Display Product Name: 'AYALCD_QHD'
Checksum: 0xda

----------------

Block 1, Unknown EDID Extension Block 0x00:
  00 ff ff ff ff ff ff 00 07 21 15 01 25 10 24 20 '.........!..%.$ '
  27 22 01 04 a5 09 06 78 3a ef 65 a6 56 52 9d 28 ''".....x:.e.VR.('
  0b 50 54 00 00 00 01 01 01 01 01 01 01 01 01 01 '.PT.............'
  01 01 01 01 01 01 34 30 38 aa 40 54 19 60 50 0a '......408.@T.`P.'
  e2 00 5f 3f 00 00 00 1e 00 00 00 10 00 00 00 00 '.._?............'
  00 00 00 00 00 00 00 00 00 00 00 00 00 10 00 00 '................'
  00 00 00 00 00 00 00 00 00 00 00 00 00 00 00 fc '................'
  00 41 59 41 4c 43 44 5f 51 48 44 0a 20 20 00 da '.AYALCD_QHD.  ..'
Checksum: 0xda

----------------

Warnings:

Block 0, Base EDID:
  Basic Display Parameters & Features: Dubious maximum image size (9x6 is smaller than 10x10 cm).

Failures:

Block 1, Base EDID:
  Unknown Extension Block.
EDID:
  Base EDID: EDID specified 0 extension block(s), but found 1 extension block(s).

EDID conformity: FAIL
