
EDID (hex):
00ffffffffffff000daec01400000000
14190104951f11780237459e55539229
12505400000001010101010101010101
010101010101b43b804a71383440503c
680034ad1000001acd27804a71383440
503c680034ad1000001a000000000000
00000000000000000000000000000002
000c33ff0f3c96100d2296000000001e

Extracted contents:
header:          00 ff ff ff ff ff ff 00
serial number:   0d ae c0 14 00 00 00 00 14 19
version:         01 04
basic params:    95 1f 11 78 02
chroma info:     37 45 9e 55 53 92 29 12 50 54
established:     00 00 00
standard:        01 01 01 01 01 01 01 01 01 01 01 01 01 01 01 01
descriptor 1:    b4 3b 80 4a 71 38 34 40 50 3c 68 00 34 ad 10 00 00 1a
descriptor 2:    cd 27 80 4a 71 38 34 40 50 3c 68 00 34 ad 10 00 00 1a
descriptor 3:    00 00 00 00 00 00 00 00 00 00 00 00 00 00 00 00 00 00
descriptor 4:    00 00 00 02 00 0c 33 ff 0f 3c 96 10 0d 22 96 00 00 00
extensions:      00
checksum:        1e

EDID version: 1.4
Manufacturer: CMN Model 14c0 Serial Number --
Made in week 20 of 2015
Digital display
6 bits per primary color channel
DisplayPort interface
Maximum image size: 31 cm x 17 cm
Gamma: 2.20
Supported color formats: RGB 4:4:4
First detailed timing includes the native pixel format and preferred refresh rate
Display x,y Chromaticity:
  Red:   0.6171, 0.3349
  Green: 0.3251, 0.5732
  Blue:  0.1611, 0.0703
  White: 0.3134, 0.3291
Established timings supported:
Standard timings supported:
Detailed mode: Clock 152.840 MHz, 308 mm x 173 mm
               1920 2000 2060 2250 hborder 0
               1080 1086 1094 1132 vborder 0
               +hsync -vsync 
               VertFreq: 60 Hz, HorFreq: 67928 Hz
Detailed mode: Clock 101.890 MHz, 308 mm x 173 mm
               1920 2000 2060 2250 hborder 0
               1080 1086 1094 1132 vborder 0
               +hsync -vsync 
               VertFreq: 40 Hz, HorFreq: 45284 Hz
Manufacturer-specified data, tag 0
Manufacturer-specified data, tag 2
Checksum: 0x1e (valid)
EDID block does NOT conform to EDID 1.4!
	Missing name descriptor
	Missing monitor ranges
