
EDID (hex):
00ffffffffffff00320c00a900000000
00100103802115780a0f109758528828
23505400000001010101010101010101
010101010101391c00a0502017303020
26004bcf10000019391c00a050201730
302026004bcf10000000000000fe0043
44353136023135345730310a000000fe
002e3e4c577ab5e8ff01010a2020004d

Extracted contents:
header:          00 ff ff ff ff ff ff 00
serial number:   32 0c 00 a9 00 00 00 00 00 10
version:         01 03
basic params:    80 21 15 78 0a
chroma info:     0f 10 97 58 52 88 28 23 50 54
established:     00 00 00
standard:        01 01 01 01 01 01 01 01 01 01 01 01 01 01 01 01
descriptor 1:    39 1c 00 a0 50 20 17 30 30 20 26 00 4b cf 10 00 00 19
descriptor 2:    39 1c 00 a0 50 20 17 30 30 20 26 00 4b cf 10 00 00 00
descriptor 3:    00 00 00 fe 00 43 44 35 31 36 02 31 35 34 57 30 31 0a
descriptor 4:    00 00 00 fe 00 2e 3e 4c 57 7a b5 e8 ff 01 01 0a 20 20
extensions:      00
checksum:        4d

EDID version: 1.3
Manufacturer: LPL Model a900 Serial Number --
Made in year 2006
Digital display
Maximum image size: 33 cm x 21 cm
Gamma: 2.20
RGB color display
First detailed timing is preferred timing
Display x,y Chromaticity:
  Red:   0.5898, 0.3437
  Green: 0.3232, 0.5341
  Blue:  0.1562, 0.1376
  White: 0.3125, 0.3281
Established timings supported:
Standard timings supported:
Detailed mode: Clock 72.250 MHz, 331 mm x 207 mm
               1280 1328 1360 1440 hborder 0
                800  802  808  823 vborder 0
               -hsync -vsync 
               VertFreq: 60 Hz, HorFreq: 50173 Hz
Detailed mode: Clock 72.250 MHz, 331 mm x 207 mm
               1280 1328 1360 1440 hborder 0
                800  802  808  823 vborder 0
               -hsync -vsync analog composite 
               VertFreq: 60 Hz, HorFreq: 50173 Hz
ASCII string: CD516
ASCII string: .>LWz
Checksum: 0x4d (valid)
EDID block does NOT conform to EDID 1.3!
	Missing name descriptor
	Missing monitor ranges
	Detailed block string not properly terminated
