
EDID (hex):
00ffffffffffff0009d17e7845540000
03150103802c19782ed285a358539e26
0f5054a56b907100810081c0010161c0
0101714fa9c0302a40c8608464301850
3500bbf91000001e000000ff00503142
30313531373032360a20000000fd0032
4c1e5315000a202020202020000000fc
0042656e51474c323034304d0a200001

Extracted contents:
header:          00 ff ff ff ff ff ff 00
serial number:   09 d1 7e 78 45 54 00 00 03 15
version:         01 03
basic params:    80 2c 19 78 2e
chroma info:     d2 85 a3 58 53 9e 26 0f 50 54
established:     a5 6b 90
standard:        71 00 81 00 81 c0 01 01 61 c0 01 01 71 4f a9 c0
descriptor 1:    30 2a 40 c8 60 84 64 30 18 50 35 00 bb f9 10 00 00 1e
descriptor 2:    00 00 00 ff 00 50 31 42 30 31 35 31 37 30 32 36 0a 20
descriptor 3:    00 00 00 fd 00 32 4c 1e 53 15 00 0a 20 20 20 20 20 20
descriptor 4:    00 00 00 fc 00 42 65 6e 51 47 4c 32 30 34 30 4d 0a 20
extensions:      00
checksum:        01

EDID version: 1.3
Manufacturer: BNQ Model 787e Serial Number --
Made in week 3 of 2011
Digital display
Maximum image size: 44 cm x 25 cm
Gamma: 2.20
DPMS levels: Off
RGB color display
Default (sRGB) color space is primary color space
First detailed timing is preferred timing
Display x,y Chromaticity:
  Red:   0.6396, 0.3447
  Green: 0.3242, 0.6191
  Blue:  0.1503, 0.0585
  White: 0.3134, 0.3291
Established timings supported:
  720x400@70Hz 9:5 HorFreq: 31469 Hz Clock: 28.320 MHz
  640x480@60Hz 4:3 HorFreq: 31469 Hz Clock: 25.175 MHz
  640x480@75Hz 4:3 HorFreq: 37500 Hz Clock: 31.500 MHz
  800x600@60Hz 4:3 HorFreq: 37900 Hz Clock: 40.000 MHz
  800x600@75Hz 4:3 HorFreq: 46900 Hz Clock: 49.500 MHz
  832x624@75Hz 4:3 HorFreq: 49726 Hz Clock: 57.284 MHz
  1024x768@60Hz 4:3 HorFreq: 48400 Hz Clock: 65.000 MHz
  1024x768@75Hz 4:3 HorFreq: 60000 Hz Clock: 78.750 MHz
  1280x1024@75Hz 5:4 HorFreq: 80000 Hz Clock: 135.000 MHz
  1152x870@75Hz 192:145 HorFreq: 67500 Hz Clock: 108.000 MHz
Standard timings supported:
  1152x720@60Hz 16:10
  1280x800@60Hz 16:10
  1280x720@60Hz 16:9
  1024x576@60Hz 16:9
  1152x864@75Hz 4:3 HorFreq: 67500 Hz Clock: 108.000 MHz
  1600x900@60Hz 16:9
Detailed mode: Clock 108.000 MHz, 443 mm x 249 mm
               1600 1624 1704 1800 hborder 0
                900  903  908 1000 vborder 0
               +hsync +vsync 
               VertFreq: 60 Hz, HorFreq: 60000 Hz
Serial number: --
Monitor ranges (GTF): 50-76Hz V, 30-83kHz H, max dotclock 210MHz
Monitor name: BenQGL2040M
Checksum: 0x1 (valid)
EDID block does NOT conform to EDID 1.3!
	sRGB is signaled, but the chromaticities do not match


