edid-decode (hex):

00 ff ff ff ff ff ff 00 06 af 36 12 00 00 00 00
00 1a 01 04 a5 1f 11 78 02 d1 e5 a4 55 4e 9d 26
12 50 54 00 00 00 01 01 01 01 01 01 01 01 01 01
01 01 01 01 01 01 1c 61 00 c8 a0 a0 3c 50 28 20
aa 00 35 ae 10 00 00 1a b0 4d 00 c8 a0 a0 3c 50
28 20 aa 00 35 ae 10 00 00 1a 00 00 00 fe 00 35
36 34 52 58 80 42 31 34 30 51 41 4e 00 00 00 00
00 02 81 02 a8 00 11 00 00 0b 01 0a 20 20 00 63

----------------

Block 0, Base EDID:
  EDID Structure Version & Revision: 1.4
  Vendor & Product Identification:
    Manufacturer: AUO
    Model: 4662
    Made in: 2016
  Basic Display Parameters & Features:
    Digital display
    Bits per primary color channel: 8
    DisplayPort interface
    Maximum image size: 31 cm x 17 cm
    Gamma: 2.20
    Supported color formats: RGB 4:4:4
    First detailed timing includes the native pixel format and preferred refresh rate
  Color Characteristics:
    Red  : 0.6435, 0.3330
    Green: 0.3046, 0.6142
    Blue : 0.1513, 0.0722
    White: 0.3134, 0.3291
  Established Timings I & II: none
  Standard Timings: none
  Detailed Timing Descriptors:
    DTD 1:  2560x1440   60.048309 Hz  16:9     90.072 kHz    248.600000 MHz (309 mm x 174 mm)
                 Hfront   40 Hsync  32 Hback  128 Hpol P
                 Vfront   10 Vsync  10 Vback   40 Vpol N
    DTD 2:  2560x1440   48.038647 Hz  16:9     72.058 kHz    198.880000 MHz (309 mm x 174 mm)
                 Hfront   40 Hsync  32 Hback  128 Hpol P
                 Vfront   10 Vsync  10 Vback   40 Vpol N
    Alphanumeric Data String: '564RX'
    Manufacturer-Specified Display Descriptor (0x00): 00 00 00 02 81 02 a8 00 11 00 00 0b 01 0a 20 20 '..............  '
Checksum: 0x63

----------------

Failures:

Block 0, Base EDID:
  Alphanumeric Data String: Non-printable character.
  Missing Display Product Name.

EDID conformity: FAIL
