
EDID (hex):
00ffffffffffff00046910e305010000
2114010380341e782ea980a555489b26
125054210800814081809500a940b300
010101010101023a801871382d40582c
450022602100001e000000fd003b3d18
780c000a202020202020000000fc0045
5432343030490a2020202020000000ff
00455432343030490a202020202000fd

Extracted contents:
header:          00 ff ff ff ff ff ff 00
serial number:   04 69 10 e3 05 01 00 00 21 14
version:         01 03
basic params:    80 34 1e 78 2e
chroma info:     a9 80 a5 55 48 9b 26 12 50 54
established:     21 08 00
standard:        81 40 81 80 95 00 a9 40 b3 00 01 01 01 01 01 01
descriptor 1:    02 3a 80 18 71 38 2d 40 58 2c 45 00 22 60 21 00 00 1e
descriptor 2:    00 00 00 fd 00 3b 3d 18 78 0c 00 0a 20 20 20 20 20 20
descriptor 3:    00 00 00 fc 00 45 54 32 34 30 30 49 0a 20 20 20 20 20
descriptor 4:    00 00 00 ff 00 45 54 32 34 30 30 49 0a 20 20 20 20 20
extensions:      00
checksum:        fd

EDID version: 1.3
Manufacturer: ACI Model e310 Serial Number --
Made in week 33 of 2010
Digital display
Maximum image size: 52 cm x 30 cm
Gamma: 2.20
DPMS levels: Off
RGB color display
Default (sRGB) color space is primary color space
First detailed timing is preferred timing
Display x,y Chromaticity:
  Red:   0.6464, 0.3339
  Green: 0.2832, 0.6064
  Blue:  0.1503, 0.0703
  White: 0.3125, 0.3281
Established timings supported:
  640x480@60Hz 4:3 HorFreq: 31469 Hz Clock: 25.175 MHz
  800x600@60Hz 4:3 HorFreq: 37900 Hz Clock: 40.000 MHz
  1024x768@60Hz 4:3 HorFreq: 48400 Hz Clock: 65.000 MHz
Standard timings supported:
  1280x960@60Hz 4:3 HorFreq: 60000 Hz Clock: 108.000 MHz
  1280x1024@60Hz 5:4 HorFreq: 64000 Hz Clock: 108.000 MHz
  1440x900@60Hz 16:10 HorFreq: 55500 Hz Clock: 88.750 MHz
  1600x1200@60Hz 4:3 HorFreq: 75000 Hz Clock: 162.000 MHz
  1680x1050@60Hz 16:10 HorFreq: 64700 Hz Clock: 119.000 MHz
Detailed mode: Clock 148.500 MHz, 546 mm x 352 mm
               1920 2008 2052 2200 hborder 0
               1080 1084 1089 1125 vborder 0
               +hsync +vsync 
               VertFreq: 60 Hz, HorFreq: 67500 Hz
Monitor ranges (GTF): 59-61Hz V, 24-120kHz H, max dotclock 120MHz
Monitor name: ET2400I
Serial number: --
Checksum: 0xfd (valid)
EDID block does NOT conform to EDID 1.3!
	sRGB is signaled, but the chromaticities do not match
One or more of the timings is out of range of the Monitor Ranges:
  Vertical Freq: 60 - 60 Hz
  Horizontal Freq: 31469 - 75000 Hz
  Maximum Clock: 162.000 MHz
