
EDID (hex):
00ffffffffffff0009e5f90500000000
03180104951f11780a5d40945b579429
1c505400000001010101010101010101
010101010101bc398018713828403020
350035ad1000001a0000000000000000
0000000000000000001a000000fe0042
4f452044540a202020202020000000fe
0048423134304648312d3330310a00fd

Extracted contents:
header:          00 ff ff ff ff ff ff 00
serial number:   09 e5 f9 05 00 00 00 00 03 18
version:         01 04
basic params:    95 1f 11 78 0a
chroma info:     5d 40 94 5b 57 94 29 1c 50 54
established:     00 00 00
standard:        01 01 01 01 01 01 01 01 01 01 01 01 01 01 01 01
descriptor 1:    bc 39 80 18 71 38 28 40 30 20 35 00 35 ad 10 00 00 1a
descriptor 2:    00 00 00 00 00 00 00 00 00 00 00 00 00 00 00 00 00 1a
descriptor 3:    00 00 00 fe 00 42 4f 45 20 44 54 0a 20 20 20 20 20 20
descriptor 4:    00 00 00 fe 00 48 42 31 34 30 46 48 31 2d 33 30 31 0a
extensions:      00
checksum:        fd

EDID version: 1.4
Manufacturer: BOE Model 5f9 Serial Number --
Made in week 3 of 2014
Digital display
6 bits per primary color channel
DisplayPort interface
Maximum image size: 31 cm x 17 cm
Gamma: 2.20
Supported color formats: RGB 4:4:4, YCrCb 4:4:4
First detailed timing includes the native pixel format and preferred refresh rate
Display x,y Chromaticity:
  Red:   0.5791, 0.3564
  Green: 0.3427, 0.5791
  Blue:  0.1611, 0.1093
  White: 0.3125, 0.3281
Established timings supported:
Standard timings supported:
Detailed mode: Clock 147.800 MHz, 309 mm x 173 mm
               1920 1968 2000 2200 hborder 0
               1080 1083 1088 1120 vborder 0
               +hsync -vsync 
               VertFreq: 59 Hz, HorFreq: 67181 Hz
Manufacturer-specified data, tag 0
ASCII string: BOE DT
ASCII string: HB140FH1-301
Checksum: 0xfd (valid)
EDID block does NOT conform to EDID 1.4!
	Missing name descriptor
	Missing monitor ranges
