
EDID (hex):
00ffffffffffff000daf191700000000
05130103802716780a08059d58539729
15505400000001010101010101010101
0101010101011c2a405461841a303020
35007ed710000018000000fe004e3137
334f362d4c30320a2020000000fe0043
4d4f0a202020202020202020000000fe
004e3137334f362d4c30320a202000ad

Extracted contents:
header:          00 ff ff ff ff ff ff 00
serial number:   0d af 19 17 00 00 00 00 05 13
version:         01 03
basic params:    80 27 16 78 0a
chroma info:     08 05 9d 58 53 97 29 15 50 54
established:     00 00 00
standard:        01 01 01 01 01 01 01 01 01 01 01 01 01 01 01 01
descriptor 1:    1c 2a 40 54 61 84 1a 30 30 20 35 00 7e d7 10 00 00 18
descriptor 2:    00 00 00 fe 00 4e 31 37 33 4f 36 2d 4c 30 32 0a 20 20
descriptor 3:    00 00 00 fe 00 43 4d 4f 0a 20 20 20 20 20 20 20 20 20
descriptor 4:    00 00 00 fe 00 4e 31 37 33 4f 36 2d 4c 30 32 0a 20 20
extensions:      00
checksum:        ad

EDID version: 1.3
Manufacturer: CMO Model 1719 Serial Number --
Made in week 5 of 2009
Digital display
Maximum image size: 39 cm x 22 cm
Gamma: 2.20
RGB color display
First detailed timing is preferred timing
Display x,y Chromaticity:
  Red:   0.6132, 0.3437
  Green: 0.3261, 0.5898
  Blue:  0.1601, 0.0820
  White: 0.3134, 0.3291
Established timings supported:
Standard timings supported:
Detailed mode: Clock 107.800 MHz, 382 mm x 215 mm
               1600 1648 1680 1940 hborder 0
                900  903  908  926 vborder 0
               -hsync -vsync 
               VertFreq: 60 Hz, HorFreq: 55567 Hz
ASCII string: N173O6-L02
ASCII string: CMO
ASCII string: N173O6-L02
Checksum: 0xad (valid)
EDID block does NOT conform to EDID 1.3!
	Missing name descriptor
	Missing monitor ranges
