
EDID (hex):
00ffffffffffff0006af9be500000000
261f0104b526157803d495ac5243b124
0f505400000001010101010101010101
01010101010194d900a0f070a0803020
35007dd61000001a000000fd0c307818
186f010a202020202020000000fe0036
384d584780423137335a414e00000000
0003810db2000100000f410a202002b2
02030f00e3058000e60605016b6b4700
00000000000000000000000000000000
00000000000000000000000000000000
00000000000000000000000000000000
00000000000000000000000000000000
00000000000000000000000000000000
00000000000000000000000000000000
00000000000000000000000000000075
70207902002200148fff1084ff0e9f00
2f801f006f089f00020004002500098f
ff108fff1030788081001be3058000e6
0607016b6b47721a0000030b30780004
6b476b47780000000000000000000000
00000000000000000000000000000000
00000000000000000000000000000000
0000000000000000000000000000ae90

Extracted contents:
header:          00 ff ff ff ff ff ff 00
serial number:   06 af 9b e5 00 00 00 00 26 1f
version:         01 04
basic params:    b5 26 15 78 03
chroma info:     d4 95 ac 52 43 b1 24 0f 50 54
established:     00 00 00
standard:        01 01 01 01 01 01 01 01 01 01 01 01 01 01 01 01
descriptor 1:    94 d9 00 a0 f0 70 a0 80 30 20 35 00 7d d6 10 00 00 1a
descriptor 2:    00 00 00 fd 0c 30 78 18 18 6f 01 0a 20 20 20 20 20 20
descriptor 3:    00 00 00 fe 00 36 38 4d 58 47 80 42 31 37 33 5a 41 4e
descriptor 4:    00 00 00 00 00 03 81 0d b2 00 01 00 00 0f 41 0a 20 20
extensions:      02
checksum:        b2

EDID version: 1.4
Manufacturer: AUO Model e59b Serial Number --
Made in week 38 of 2021
Digital display
10 bits per primary color channel
DisplayPort interface
Maximum image size: 38 cm x 21 cm
Gamma: 2.20
Supported color formats: RGB 4:4:4
First detailed timing includes the native pixel format and preferred refresh rate
Display is continuous frequency
Display x,y Chromaticity:
  Red:   0.6748, 0.3212
  Green: 0.2626, 0.6914
  Blue:  0.1425, 0.0595
  White: 0.3134, 0.3291
Established timings supported:
Standard timings supported:
Detailed mode: Clock 557.000 MHz, 381 mm x 214 mm
               3840 3888 3920 4000 hborder 0
               2160 2163 2168 2320 vborder 0
               +hsync -vsync 
               VertFreq: 60 Hz, HorFreq: 139250 Hz
Monitor ranges (bare limits): 48-120Hz V, 24-279kHz H, max dotclock 1110MHz
ASCII string: 68MXG
Manufacturer-specified data, tag 0
Has 2 extension blocks
Checksum: 0xb2 (valid)

CTA extension block
Extension version: 3
11 bytes of CTA data
  Extended tag: Colorimetry data block
    BT2020RGB
  Extended tag: HDR static metadata data block
    Electro optical transfer functions:
      Traditional gamma - SDR luminance range
      SMPTE ST2084
    Supported static metadata descriptors:
      Static metadata type 1
    Desired content max luminance: 107 (507.620 cd/m^2)
    Desired content max frame-average luminance: 107 (507.620 cd/m^2)
    Desired content min luminance: 71 (0.394 cd/m^2)
0 native detailed modes
Checksum: 0x75 (valid)


DisplayID extension block
Extension version: 32
Length 121, version 32, extension count 0
Checksum: 0xae (valid)
Unknown displayid data block 0x22
Unknown displayid data block 0x25
Unknown displayid data block 0x81

EDID block does NOT conform to EDID 1.4!
	Required 640x480p60 timings are missing in the established timings
	and/or in the SVD list (VIC 1)
	Missing name descriptor
	Detailed block string not properly terminated
