
EDID (hex):
00ffffffffffff0006af444500000000
01120103901e13780a7dc59355508f27
20505400000001010101010101010101
010101010101e41b00a5502017303020
360030be1000001a981200a550201730
3020360030be1000001a000000fe0057
50393438804231343145573400000000
00000000000000000001010a2020000f

Extracted contents:
header:          00 ff ff ff ff ff ff 00
serial number:   06 af 44 45 00 00 00 00 01 12
version:         01 03
basic params:    90 1e 13 78 0a
chroma info:     7d c5 93 55 50 8f 27 20 50 54
established:     00 00 00
standard:        01 01 01 01 01 01 01 01 01 01 01 01 01 01 01 01
descriptor 1:    e4 1b 00 a5 50 20 17 30 30 20 36 00 30 be 10 00 00 1a
descriptor 2:    98 12 00 a5 50 20 17 30 30 20 36 00 30 be 10 00 00 1a
descriptor 3:    00 00 00 fe 00 57 50 39 34 38 80 42 31 34 31 45 57 34
descriptor 4:    00 00 00 00 00 00 00 00 00 00 00 00 00 01 01 0a 20 20
extensions:      00
checksum:        0f

EDID version: 1.3
Manufacturer: AUO Model 4544 Serial Number --
Made in week 1 of 2008
Digital display
Maximum image size: 30 cm x 19 cm
Gamma: 2.20
RGB color display
First detailed timing is preferred timing
Display x,y Chromaticity:
  Red:   0.5751, 0.3349
  Green: 0.3154, 0.5595
  Blue:  0.1552, 0.1250
  White: 0.3134, 0.3291
Established timings supported:
Standard timings supported:
Detailed mode: Clock 71.400 MHz, 304 mm x 190 mm
               1280 1328 1360 1445 hborder 0
                800  803  809  823 vborder 0
               +hsync -vsync 
               VertFreq: 60 Hz, HorFreq: 49411 Hz
Detailed mode: Clock 47.600 MHz, 304 mm x 190 mm
               1280 1328 1360 1445 hborder 0
                800  803  809  823 vborder 0
               +hsync -vsync 
               VertFreq: 40 Hz, HorFreq: 32941 Hz
ASCII string: WP948
Manufacturer-specified data, tag 0
Checksum: 0xf (valid)
EDID block does NOT conform to EDID 1.3!
	Digital display field contains garbage: 10
	Missing name descriptor
	Missing monitor ranges
	Detailed block string not properly terminated
