
EDID (hex):
00ffffffffffff0006af444500000000
01110103801e13780a87f594574f8c27
27505400000001010101010101010101
010101010101e41b00a5502017303020
360030be100000180000000f00000000
00000000000000000020000000fe0041
554f0a202020202020202020000000fe
004231343145573034205635200a005d

Extracted contents:
header:          00 ff ff ff ff ff ff 00
serial number:   06 af 44 45 00 00 00 00 01 11
version:         01 03
basic params:    80 1e 13 78 0a
chroma info:     87 f5 94 57 4f 8c 27 27 50 54
established:     00 00 00
standard:        01 01 01 01 01 01 01 01 01 01 01 01 01 01 01 01
descriptor 1:    e4 1b 00 a5 50 20 17 30 30 20 36 00 30 be 10 00 00 18
descriptor 2:    00 00 00 0f 00 00 00 00 00 00 00 00 00 00 00 00 00 20
descriptor 3:    00 00 00 fe 00 41 55 4f 0a 20 20 20 20 20 20 20 20 20
descriptor 4:    00 00 00 fe 00 42 31 34 31 45 57 30 34 20 56 35 20 0a
extensions:      00
checksum:        5d

EDID version: 1.3
Manufacturer: AUO Model 4544 Serial Number --
Made in week 1 of 2007
Digital display
Maximum image size: 30 cm x 19 cm
Gamma: 2.20
RGB color display
First detailed timing is preferred timing
Display x,y Chromaticity:
  Red:   0.5800, 0.3398
  Green: 0.3095, 0.5498
  Blue:  0.1552, 0.1552
  White: 0.3134, 0.3291
Established timings supported:
Standard timings supported:
Detailed mode: Clock 71.400 MHz, 304 mm x 190 mm
               1280 1328 1360 1445 hborder 0
                800  803  809  823 vborder 0
               -hsync -vsync 
               VertFreq: 60 Hz, HorFreq: 49411 Hz
Manufacturer-specified data, tag 15
ASCII string: AUO
ASCII string: B141EW04 V5 
Checksum: 0x5d (valid)
EDID block does NOT conform to EDID 1.3!
	Missing name descriptor
	Missing monitor ranges
