
EDID (hex):
00ffffffffffff0006af444500000000
01100103801e13780a87f594574f8c27
27505400000001010101010101010101
010101010101e41b00a5502017303020
360030be10000019e41b00a550201730
3020360030be10000000000000fe0054
4b3033330042313431455734000000fe
003247565d82a5d5ff01010a20200019

Extracted contents:
header:          00 ff ff ff ff ff ff 00
serial number:   06 af 44 45 00 00 00 00 01 10
version:         01 03
basic params:    80 1e 13 78 0a
chroma info:     87 f5 94 57 4f 8c 27 27 50 54
established:     00 00 00
standard:        01 01 01 01 01 01 01 01 01 01 01 01 01 01 01 01
descriptor 1:    e4 1b 00 a5 50 20 17 30 30 20 36 00 30 be 10 00 00 19
descriptor 2:    e4 1b 00 a5 50 20 17 30 30 20 36 00 30 be 10 00 00 00
descriptor 3:    00 00 00 fe 00 54 4b 30 33 33 00 42 31 34 31 45 57 34
descriptor 4:    00 00 00 fe 00 32 47 56 5d 82 a5 d5 ff 01 01 0a 20 20
extensions:      00
checksum:        19

EDID version: 1.3
Manufacturer: AUO Model 4544 Serial Number --
Made in week 1 of 2006
Digital display
Maximum image size: 30 cm x 19 cm
Gamma: 2.20
RGB color display
First detailed timing is preferred timing
Display x,y Chromaticity:
  Red:   0.5800, 0.3398
  Green: 0.3095, 0.5498
  Blue:  0.1552, 0.1552
  White: 0.3134, 0.3291
Established timings supported:
Standard timings supported:
Detailed mode: Clock 71.400 MHz, 304 mm x 190 mm
               1280 1328 1360 1445 hborder 0
                800  803  809  823 vborder 0
               -hsync -vsync 
               VertFreq: 60 Hz, HorFreq: 49411 Hz
Detailed mode: Clock 71.400 MHz, 304 mm x 190 mm
               1280 1328 1360 1445 hborder 0
                800  803  809  823 vborder 0
               -hsync -vsync analog composite 
               VertFreq: 60 Hz, HorFreq: 49411 Hz
ASCII string: TK033
ASCII string: 2GV]
Checksum: 0x19 (valid)
EDID block does NOT conform to EDID 1.3!
	Missing name descriptor
	Missing monitor ranges
	Detailed block string not properly terminated
