edid-decode (hex):

00 ff ff ff ff ff ff 00 4c 2d 54 74 5a 4d 52 30
1c 21 01 04 b5 77 22 78 3b e0 95 ae 4e 3a bb 25
0c 50 54 21 08 00 81 c0 81 00 81 80 95 00 a9 c0
b3 00 01 01 01 01 d0 e3 00 a0 f0 38 87 40 30 20
3a 00 a9 50 41 00 00 1a 00 00 00 fd 0c 30 f0 86
86 da 01 0a 20 20 20 20 20 20 00 00 00 fc 00 4f
64 79 73 73 65 79 20 47 39 33 53 43 00 00 00 ff
00 48 4e 54 57 37 30 30 35 32 37 0a 20 20 02 6d

02 03 32 f1 46 61 60 10 3f 04 03 23 09 07 07 83
01 00 00 e3 05 c3 01 6d 1a 00 00 02 07 30 f0 00
04 60 01 4a 02 e6 06 05 01 60 4a 04 e5 01 8b 84
90 39 56 5e 00 a0 a0 a0 29 50 30 20 35 00 a9 50
41 00 00 1a 6f c2 00 a0 a0 a0 55 50 30 20 35 00
a9 50 41 00 00 1a e8 71 00 a0 f0 38 87 40 30 20
3a 00 a9 50 41 00 00 1a ec ec 80 a0 70 38 87 40
30 20 35 00 a9 50 41 00 00 1a 00 00 00 00 00 d7

00 ff ff ff ff ff ff 00 4c 2d 54 74 5a 4d 52 30
1c 21 01 04 b5 77 22 78 3b e0 95 ae 4e 3a bb 25
0c 50 54 21 08 00 81 c0 81 00 81 80 95 00 a9 c0
b3 00 01 01 01 01 d0 e3 00 a0 f0 38 87 40 30 20
3a 00 a9 50 41 00 00 1a 00 00 00 fd 0c 30 f0 86
86 da 01 0a 20 20 20 20 20 20 00 00 00 fc 00 4f
64 79 73 73 65 79 20 47 39 33 53 43 00 00 00 ff
00 48 4e 54 57 37 30 30 35 32 37 0a 20 20 02 6d

00 ff ff ff ff ff ff 00 4c 2d 54 74 5a 4d 52 30
1c 21 01 04 b5 77 22 78 3b e0 95 ae 4e 3a bb 25
0c 50 54 21 08 00 81 c0 81 00 81 80 95 00 a9 c0
b3 00 01 01 01 01 d0 e3 00 a0 f0 38 87 40 30 20
3a 00 a9 50 41 00 00 1a 00 00 00 fd 0c 30 f0 86
86 da 01 0a 20 20 20 20 20 20 00 00 00 fc 00 4f
64 79 73 73 65 79 20 47 39 33 53 43 00 00 00 ff
00 48 4e 54 57 37 30 30 35 32 37 0a 20 20 02 6d

02 03 32 f1 46 61 60 10 3f 04 03 23 09 07 07 83
01 00 00 e3 05 c3 01 6d 1a 00 00 02 07 30 f0 00
04 60 01 4a 02 e6 06 05 01 60 4a 04 e5 01 8b 84
90 39 56 5e 00 a0 a0 a0 29 50 30 20 35 00 a9 50
41 00 00 1a 6f c2 00 a0 a0 a0 55 50 30 20 35 00
a9 50 41 00 00 1a e8 71 00 a0 f0 38 87 40 30 20
3a 00 a9 50 41 00 00 1a ec ec 80 a0 70 38 87 40
30 20 35 00 a9 50 41 00 00 1a 00 00 00 00 00 d7

00 ff ff ff ff ff ff 00 4c 2d 54 74 5a 4d 52 30
1c 21 01 04 b5 77 22 78 3b e0 95 ae 4e 3a bb 25
0c 50 54 21 08 00 81 c0 81 00 81 80 95 00 a9 c0
b3 00 01 01 01 01 d0 e3 00 a0 f0 38 87 40 30 20
3a 00 a9 50 41 00 00 1a 00 00 00 fd 0c 30 f0 86
86 da 01 0a 20 20 20 20 20 20 00 00 00 fc 00 4f
64 79 73 73 65 79 20 47 39 33 53 43 00 00 00 ff
00 48 4e 54 57 37 30 30 35 32 37 0a 20 20 02 6d

----------------

Block 0, Base EDID:
  EDID Structure Version & Revision: 1.4
  Vendor & Product Identification:
    Manufacturer: SAM
    Model: 29780
    Serial Number: ...
    Made in: week 28 of 2023
  Basic Display Parameters & Features:
    Digital display
    Bits per primary color channel: 10
    DisplayPort interface
    Maximum image size: 119 cm x 34 cm
    Gamma: 2.20
    DPMS levels: Off
    Supported color formats: RGB 4:4:4, YCrCb 4:4:4, YCrCb 4:2:2
    First detailed timing includes the native pixel format and preferred refresh rate
    Display is continuous frequency
  Color Characteristics:
    Red  : 0.6826, 0.3066
    Green: 0.2265, 0.7304
    Blue : 0.1464, 0.0478
    White: 0.3134, 0.3291
  Established Timings I & II:
    DMT 0x04:   640x480    59.940476 Hz   4:3     31.469 kHz     25.175000 MHz
    DMT 0x09:   800x600    60.316541 Hz   4:3     37.879 kHz     40.000000 MHz
    DMT 0x10:  1024x768    60.003840 Hz   4:3     48.363 kHz     65.000000 MHz
  Standard Timings:
    DMT 0x55:  1280x720    60.000000 Hz  16:9     45.000 kHz     74.250000 MHz
    DMT 0x1c:  1280x800    59.810326 Hz  16:10    49.702 kHz     83.500000 MHz
    DMT 0x23:  1280x1024   60.019740 Hz   5:4     63.981 kHz    108.000000 MHz
    DMT 0x2f:  1440x900    59.887445 Hz  16:10    55.935 kHz    106.500000 MHz
    DMT 0x53:  1600x900    60.000000 Hz  16:9     60.000 kHz    108.000000 MHz (RB)
    DMT 0x3a:  1680x1050   59.954250 Hz  16:10    65.290 kHz    146.250000 MHz
  Detailed Timing Descriptors:
    DTD 1:  3840x1080  120.000000 Hz  32:9    145.800 kHz    583.200000 MHz (1193 mm x 336 mm)
                 Hfront   48 Hsync  32 Hback   80 Hpol P
                 Vfront    3 Vsync  10 Vback  122 Vpol N
    Display Range Limits:
      Monitor ranges (Bare Limits): 48-240 Hz V, 389-389 kHz H, max dotclock 2180 MHz
    Display Product Name: 'Odyssey G93SC'
    Display Product Serial Number: ...
  Extension blocks: 2
Checksum: 0x6d

----------------

Block 1, CTA-861 Extension Block:
  Revision: 3
  Underscans IT Video Formats by default
  Basic audio support
  Supports YCbCr 4:4:4
  Supports YCbCr 4:2:2
  Native detailed modes: 1
  Video Data Block:
    VIC  97:  3840x2160   60.000000 Hz  16:9    135.000 kHz    594.000000 MHz
    VIC  96:  3840x2160   50.000000 Hz  16:9    112.500 kHz    594.000000 MHz
    VIC  16:  1920x1080   60.000000 Hz  16:9     67.500 kHz    148.500000 MHz
    VIC  63:  1920x1080  120.000000 Hz  16:9    135.000 kHz    297.000000 MHz
    VIC   4:  1280x720    60.000000 Hz  16:9     45.000 kHz     74.250000 MHz
    VIC   3:   720x480    59.940060 Hz  16:9     31.469 kHz     27.000000 MHz
  Audio Data Block:
    Linear PCM:
      Max channels: 2
      Supported sample rates (kHz): 48 44.1 32
      Supported sample sizes (bits): 24 20 16
  Speaker Allocation Data Block:
    FL/FR - Front Left/Right
  Colorimetry Data Block:
    xvYCC601
    xvYCC709
    BT2020YCC
    BT2020RGB
    Gamut Boundary Description Metadata Profile P0
  Vendor-Specific Data Block (AMD), OUI 00-00-1A:
    Version: 2.7
    Minimum Refresh Rate: 48 Hz
    Maximum Refresh Rate: 240 Hz
    Flags 1.x: 0x00
    Flags 2.x: 0x04
    Maximum luminance: 96 (400.000 cd/m^2)
    Minimum luminance: 1 (0.000 cd/m^2)
    Maximum luminance (without local dimming): 74 (248.372 cd/m^2)
    Minimum luminance (without local dimming): 2 (0.000 cd/m^2)
  HDR Static Metadata Data Block:
    Electro optical transfer functions:
      Traditional gamma - SDR luminance range
      SMPTE ST2084
    Supported static metadata descriptors:
      Static metadata type 1
    Desired content max luminance: 96 (400.000 cd/m^2)
    Desired content max frame-average luminance: 74 (248.372 cd/m^2)
    Desired content min luminance: 4 (0.001 cd/m^2)
  Vendor-Specific Video Data Block (HDR10+), OUI 90-84-8B:
    Application Version: 57
  Detailed Timing Descriptors:
    DTD 2:  2560x1440   59.950550 Hz  16:9     88.787 kHz    241.500000 MHz (1193 mm x 336 mm)
                 Hfront   48 Hsync  32 Hback   80 Hpol P
                 Vfront    3 Vsync   5 Vback   33 Vpol N
    DTD 3:  2560x1440  119.997589 Hz  16:9    182.996 kHz    497.750000 MHz (1193 mm x 336 mm)
                 Hfront   48 Hsync  32 Hback   80 Hpol P
                 Vfront    3 Vsync   5 Vback   77 Vpol N
    DTD 4:  3840x1080   60.000000 Hz  32:9     72.900 kHz    291.600000 MHz (1193 mm x 336 mm)
                 Hfront   48 Hsync  32 Hback   80 Hpol P
                 Vfront    3 Vsync  10 Vback  122 Vpol N
    DTD 5:  1920x1080  239.996834 Hz  16:9    291.596 kHz    606.520000 MHz (1193 mm x 336 mm)
                 Hfront   48 Hsync  32 Hback   80 Hpol P
                 Vfront    3 Vsync   5 Vback  127 Vpol N
Checksum: 0xd7  Unused space in Extension Block: 5 bytes

----------------

Block 2, Unknown EDID Extension Block 0x00:
  00 ff ff ff ff ff ff 00 4c 2d 54 74 5a 4d 52 30 '........L-TtZMR0'
  1c 21 01 04 b5 77 22 78 3b e0 95 ae 4e 3a bb 25 '.!...w"x;...N:.%'
  0c 50 54 21 08 00 81 c0 81 00 81 80 95 00 a9 c0 '.PT!............'
  b3 00 01 01 01 01 d0 e3 00 a0 f0 38 87 40 30 20 '...........8.@0 '
  3a 00 a9 50 41 00 00 1a 00 00 00 fd 0c 30 f0 86 ':..PA........0..'
  86 da 01 0a 20 20 20 20 20 20 00 00 00 fc 00 4f '....      .....O'
  64 79 73 73 65 79 20 47 39 33 53 43 00 00 00 ff 'dyssey G93SC....'
  00 48 4e 54 57 37 30 30 35 32 37 0a 20 20 02 6d '.HNTW700527.  .m'
Checksum: 0x6d

----------------

Block 3, Unknown EDID Extension Block 0x00:
  00 ff ff ff ff ff ff 00 4c 2d 54 74 5a 4d 52 30 '........L-TtZMR0'
  1c 21 01 04 b5 77 22 78 3b e0 95 ae 4e 3a bb 25 '.!...w"x;...N:.%'
  0c 50 54 21 08 00 81 c0 81 00 81 80 95 00 a9 c0 '.PT!............'
  b3 00 01 01 01 01 d0 e3 00 a0 f0 38 87 40 30 20 '...........8.@0 '
  3a 00 a9 50 41 00 00 1a 00 00 00 fd 0c 30 f0 86 ':..PA........0..'
  86 da 01 0a 20 20 20 20 20 20 00 00 00 fc 00 4f '....      .....O'
  64 79 73 73 65 79 20 47 39 33 53 43 00 00 00 ff 'dyssey G93SC....'
  00 48 4e 54 57 37 30 30 35 32 37 0a 20 20 02 6d '.HNTW700527.  .m'
Checksum: 0x6d

----------------

Block 4, CTA-861 Extension Block:
  Revision: 3
  Underscans IT Video Formats by default
  Basic audio support
  Supports YCbCr 4:4:4
  Supports YCbCr 4:2:2
  Native detailed modes: 1
  Video Data Block:
    VIC  97:  3840x2160   60.000000 Hz  16:9    135.000 kHz    594.000000 MHz
    VIC  96:  3840x2160   50.000000 Hz  16:9    112.500 kHz    594.000000 MHz
    VIC  16:  1920x1080   60.000000 Hz  16:9     67.500 kHz    148.500000 MHz
    VIC  63:  1920x1080  120.000000 Hz  16:9    135.000 kHz    297.000000 MHz
    VIC   4:  1280x720    60.000000 Hz  16:9     45.000 kHz     74.250000 MHz
    VIC   3:   720x480    59.940060 Hz  16:9     31.469 kHz     27.000000 MHz
  Audio Data Block:
    Linear PCM:
      Max channels: 2
      Supported sample rates (kHz): 48 44.1 32
      Supported sample sizes (bits): 24 20 16
  Speaker Allocation Data Block:
    FL/FR - Front Left/Right
  Colorimetry Data Block:
    xvYCC601
    xvYCC709
    BT2020YCC
    BT2020RGB
    Gamut Boundary Description Metadata Profile P0
  Vendor-Specific Data Block (AMD), OUI 00-00-1A:
    Version: 2.7
    Minimum Refresh Rate: 48 Hz
    Maximum Refresh Rate: 240 Hz
    Flags 1.x: 0x00
    Flags 2.x: 0x04
    Maximum luminance: 96 (400.000 cd/m^2)
    Minimum luminance: 1 (0.000 cd/m^2)
    Maximum luminance (without local dimming): 74 (248.372 cd/m^2)
    Minimum luminance (without local dimming): 2 (0.000 cd/m^2)
  HDR Static Metadata Data Block:
    Electro optical transfer functions:
      Traditional gamma - SDR luminance range
      SMPTE ST2084
    Supported static metadata descriptors:
      Static metadata type 1
    Desired content max luminance: 96 (400.000 cd/m^2)
    Desired content max frame-average luminance: 74 (248.372 cd/m^2)
    Desired content min luminance: 4 (0.001 cd/m^2)
  Vendor-Specific Video Data Block (HDR10+), OUI 90-84-8B:
    Application Version: 57
  Detailed Timing Descriptors:
    DTD 6:  2560x1440   59.950550 Hz  16:9     88.787 kHz    241.500000 MHz (1193 mm x 336 mm)
                 Hfront   48 Hsync  32 Hback   80 Hpol P
                 Vfront    3 Vsync   5 Vback   33 Vpol N
    DTD 7:  2560x1440  119.997589 Hz  16:9    182.996 kHz    497.750000 MHz (1193 mm x 336 mm)
                 Hfront   48 Hsync  32 Hback   80 Hpol P
                 Vfront    3 Vsync   5 Vback   77 Vpol N
    DTD 8:  3840x1080   60.000000 Hz  32:9     72.900 kHz    291.600000 MHz (1193 mm x 336 mm)
                 Hfront   48 Hsync  32 Hback   80 Hpol P
                 Vfront    3 Vsync  10 Vback  122 Vpol N
    DTD 9:  1920x1080  239.996834 Hz  16:9    291.596 kHz    606.520000 MHz (1193 mm x 336 mm)
                 Hfront   48 Hsync  32 Hback   80 Hpol P
                 Vfront    3 Vsync   5 Vback  127 Vpol N
Checksum: 0xd7  Unused space in Extension Block: 5 bytes

----------------

Block 5, Unknown EDID Extension Block 0x00:
  00 ff ff ff ff ff ff 00 4c 2d 54 74 5a 4d 52 30 '........L-TtZMR0'
  1c 21 01 04 b5 77 22 78 3b e0 95 ae 4e 3a bb 25 '.!...w"x;...N:.%'
  0c 50 54 21 08 00 81 c0 81 00 81 80 95 00 a9 c0 '.PT!............'
  b3 00 01 01 01 01 d0 e3 00 a0 f0 38 87 40 30 20 '...........8.@0 '
  3a 00 a9 50 41 00 00 1a 00 00 00 fd 0c 30 f0 86 ':..PA........0..'
  86 da 01 0a 20 20 20 20 20 20 00 00 00 fc 00 4f '....      .....O'
  64 79 73 73 65 79 20 47 39 33 53 43 00 00 00 ff 'dyssey G93SC....'
  00 48 4e 54 57 37 30 30 35 32 37 0a 20 20 02 6d '.HNTW700527.  .m'
Checksum: 0x6d

----------------

Warnings:

Block 1, CTA-861 Extension Block:
  Colorimetry Data Block: Set the sRGB colorimetry bit to avoid interop issues.
  Display Product Serial Number is set, so the Serial Number in the Base EDID should be 0.
Block 4, CTA-861 Extension Block:
  Colorimetry Data Block: Set the sRGB colorimetry bit to avoid interop issues.
  Display Product Serial Number is set, so the Serial Number in the Base EDID should be 0.
EDID:
  Base EDID: Some timings are out of range of the Monitor Ranges:
    Horizontal Freq: 31.468 - 291.596 kHz (Monitor: 389.000 - 389.000 kHz)
  CTA-861: Native progressive resolution of 3840x1080 is smaller than the max preferred progressive resolution 3840x2160.

Failures:

Block 1, CTA-861 Extension Block:
  Missing VCDB, needed for Set Selectable RGB Quantization to avoid interop issues.
Block 2, Base EDID:
  Unknown Extension Block.
Block 3, Base EDID:
  Unknown Extension Block.
Block 4, CTA-861 Extension Block:
  Video Data Block: Duplicate VIC 97.
  Video Data Block: Duplicate VIC 96.
  Video Data Block: Duplicate VIC 16.
  Video Data Block: Duplicate VIC 63.
  Video Data Block: Duplicate VIC 4.
  Video Data Block: Duplicate VIC 3.
  Speaker Allocation Data Block: Only one instance of this Data Block is allowed.
  Colorimetry Data Block: Only one instance of this Data Block is allowed.
  HDR Static Metadata Data Block: Only one instance of this Data Block is allowed.
  Missing VCDB, needed for Set Selectable RGB Quantization to avoid interop issues.
Block 5, Base EDID:
  Unknown Extension Block.
EDID:
  Base EDID: EDID specified 2 extension block(s), but found 5 extension block(s).

EDID conformity: FAIL
