edid-decode (hex):

00 ff ff ff ff ff ff 00 22 d2 04 aa 00 00 00 00
00 1e 01 04 a5 00 00 78 00 b8 60 a9 54 4c a9 27
0c 50 54 00 00 00 01 01 01 01 01 01 01 01 01 01
01 01 01 01 01 01 00 00 00 10 00 00 00 00 00 00
00 00 00 00 00 00 00 00 00 00 00 fc 00 56 49 56
45 20 50 72 6f 20 32 0a 20 20 00 00 00 10 00 00
00 00 00 00 00 00 00 00 00 00 00 00 00 00 00 10
00 00 00 00 00 00 00 00 00 00 00 00 00 00 01 df

70 20 79 07 00 22 00 50 48 98 06 80 8f 09 63 00
31 80 03 00 c7 04 93 02 7f 82 01 00 1c 97 06 00
8f 09 63 00 31 80 03 00 c7 04 bb 00 a7 80 01 00
16 e4 07 00 bf 0c 77 00 3b 80 03 00 5f 06 41 00
2d 80 01 00 ba a5 09 00 5f 0e 63 00 31 80 03 00
2b 07 15 00 0b 80 01 00 00 00 00 00 00 00 00 00
00 00 00 00 00 00 00 00 00 00 00 00 00 00 00 00
00 00 00 00 00 00 00 00 00 00 00 00 00 00 4d 90

----------------

Block 0, Base EDID:
  EDID Structure Version & Revision: 1.4
  Vendor & Product Identification:
    Manufacturer: HVR
    Model: 43524
    Made in: 2020
  Basic Display Parameters & Features:
    Digital display
    Bits per primary color channel: 8
    DisplayPort interface
    Image size is variable
    Gamma: 2.20
    Supported color formats: RGB 4:4:4
    First detailed timing does not include the native pixel format and preferred refresh rate
  Color Characteristics:
    Red  : 0.6621, 0.3310
    Green: 0.2988, 0.6601
    Blue : 0.1533, 0.0488
    White: 0.3125, 0.3281
  Established Timings I & II: none
  Standard Timings: none
  Detailed Timing Descriptors:
    Dummy Descriptor:
    Display Product Name: 'VIVE Pro 2'
    Dummy Descriptor:
    Dummy Descriptor:
  Extension blocks: 1
Checksum: 0xdf

----------------

Block 1, DisplayID Extension Block:
  Version: 2.0
  Extension Count: 0
  Display Product Primary Use Case: Head-mounted Virtual Reality (VR) display
  Video Timing Modes Type 7 - Detailed Timings Data Block:
    DTD:  2448x1224   90.033772 Hz   1:1    169.624 kHz    432.201000 MHz (aspect 1:1, no 3D stereo, preferred)
               Hfront   50 Hsync   4 Hback   46 Hpol P
               Vfront  640 Vsync   2 Vback   18 Vpol P
    DTD:  2448x1224  120.046662 Hz   1:1    169.506 kHz    431.901000 MHz (aspect 1:1, no 3D stereo)
               Hfront   50 Hsync   4 Hback   46 Hpol P
               Vfront  168 Vsync   2 Vback   18 Vpol P
    DTD:  3264x1632   90.000021 Hz   1:1    152.820 kHz    517.143000 MHz (aspect 1:1, no 3D stereo)
               Hfront   60 Hsync   4 Hback   56 Hpol P
               Vfront   46 Vsync   2 Vback   18 Vpol P
    DTD:  3680x1836   90.022696 Hz   1:1    167.262 kHz    632.251000 MHz (aspect 1:1, no 3D stereo)
               Hfront   50 Hsync   4 Hback   46 Hpol P
               Vfront   12 Vsync   2 Vback    8 Vpol P
  Checksum: 0x4d
Checksum: 0x90

----------------

Failures:

Block 0, Base EDID:
  Standard Timings: Missing preferred timing.
EDID:
  DisplayID: Missing DisplayID Product Identification Data Block.
  DisplayID: Missing DisplayID Display Parameters Data Block.
  DisplayID: Missing DisplayID Display Interface Features Data Block.

EDID conformity: FAIL
