
EDID (hex):
00ffffffffffff000c33498001010101
12190104a500007802debaaf4f599d24
024b592fcf0081808140714fa9408100
9500b300010164190040410026301888
3600000000000018000000fd0032560f
6411000a202020202020000000fc0043
4153494f2d504a0a20202020000000fe
000a20202020202020202020202001c7
1001010000662156aa51001e30468f33
0000000000001e000000000000000000
00000000000000000000000000000000
00000000000000000000000000000000
00000000000000000000000000000000
00000000000000000000000000000000
00000000000000000000000000000000
000000000000000000000000000000a2

Extracted contents:
header:          00 ff ff ff ff ff ff 00
serial number:   0c 33 49 80 01 01 01 01 12 19
version:         01 04
basic params:    a5 00 00 78 02
chroma info:     de ba af 4f 59 9d 24 02 4b 59
established:     2f cf 00
standard:        81 80 81 40 71 4f a9 40 81 00 95 00 b3 00 01 01
descriptor 1:    64 19 00 40 41 00 26 30 18 88 36 00 00 00 00 00 00 18
descriptor 2:    00 00 00 fd 00 32 56 0f 64 11 00 0a 20 20 20 20 20 20
descriptor 3:    00 00 00 fc 00 43 41 53 49 4f 2d 50 4a 0a 20 20 20 20
descriptor 4:    00 00 00 fe 00 0a 20 20 20 20 20 20 20 20 20 20 20 20
extensions:      01
checksum:        c7

EDID version: 1.4
Manufacturer: CAS Model 8049 Serial Number --
Made in week 18 of 2015
Digital display
8 bits per primary color channel
DisplayPort interface
Image size is variable
Gamma: 2.20
Supported color formats: RGB 4:4:4
First detailed timing includes the native pixel format and preferred refresh rate
Display x,y Chromaticity:
  Red:   0.6865, 0.3095
  Green: 0.3505, 0.6152
  Blue:  0.1425, 0.0107
  White: 0.2949, 0.3496
Established timings supported:
  640x480@60Hz 4:3 HorFreq: 31469 Hz Clock: 25.175 MHz
  640x480@72Hz 4:3 HorFreq: 37900 Hz Clock: 31.500 MHz
  640x480@75Hz 4:3 HorFreq: 37500 Hz Clock: 31.500 MHz
  800x600@56Hz 4:3 HorFreq: 35200 Hz Clock: 36.000 MHz
  800x600@60Hz 4:3 HorFreq: 37900 Hz Clock: 40.000 MHz
  800x600@72Hz 4:3 HorFreq: 48100 Hz Clock: 50.000 MHz
  800x600@75Hz 4:3 HorFreq: 46900 Hz Clock: 49.500 MHz
  1024x768@60Hz 4:3 HorFreq: 48400 Hz Clock: 65.000 MHz
  1024x768@70Hz 4:3 HorFreq: 56500 Hz Clock: 75.000 MHz
  1024x768@75Hz 4:3 HorFreq: 60000 Hz Clock: 78.750 MHz
  1280x1024@75Hz 5:4 HorFreq: 80000 Hz Clock: 135.000 MHz
Standard timings supported:
  1280x1024@60Hz 5:4 HorFreq: 64000 Hz Clock: 108.000 MHz
  1280x960@60Hz 4:3 HorFreq: 60000 Hz Clock: 108.000 MHz
  1152x864@75Hz 4:3 HorFreq: 67500 Hz Clock: 108.000 MHz
  1600x1200@60Hz 4:3 HorFreq: 75000 Hz Clock: 162.000 MHz
  1280x800@60Hz 16:10
  1440x900@60Hz 16:10 HorFreq: 55500 Hz Clock: 88.750 MHz
  1680x1050@60Hz 16:10 HorFreq: 64700 Hz Clock: 119.000 MHz
Detailed mode: Clock 65.000 MHz, 0 mm x 0 mm
               1024 1048 1184 1344 hborder 0
                768  771  777  806 vborder 0
               -hsync -vsync 
               VertFreq: 60 Hz, HorFreq: 48363 Hz
Monitor ranges (GTF): 50-86Hz V, 15-100kHz H, max dotclock 170MHz
Monitor name: CASIO-PJ
ASCII string: 
Has 1 extension blocks
Checksum: 0xc7 (valid)

VTB extension block

EDID block does not conform at all!
	Has 956301312 nonconformant extension block(s)


