edid-decode (hex):

00 ff ff ff ff ff ff 00 0d af 3f 9c 00 00 00 00
0e 0e 01 03 80 1c 15 78 0a 34 85 92 55 53 92 26
20 50 54 00 08 00 01 01 01 01 01 01 01 01 01 01
01 01 01 01 01 01 64 19 00 40 41 00 26 30 18 88
36 00 1d d6 10 00 00 18 00 00 00 fe 00 4e 31 34
31 58 42 20 20 20 20 20 20 20 00 00 00 fe 00 4e
31 34 31 58 42 20 20 20 20 20 20 20 00 00 00 fc
00 43 6f 6c 6f 72 20 4c 43 44 0a 20 20 20 00 40

----------------

Block 0, Base EDID:
  EDID Structure Version & Revision: 1.3
  Vendor & Product Identification:
    Manufacturer: CMO
    Model: 39999
    Made in: week 14 of 2004
  Basic Display Parameters & Features:
    Digital display
    Maximum image size: 28 cm x 21 cm
    Gamma: 2.20
    RGB color display
    First detailed timing is preferred timing
  Color Characteristics:
    Red  : 0.5703, 0.3349
    Green: 0.3251, 0.5703
    Blue : 0.1503, 0.1250
    White: 0.3134, 0.3291
  Established Timings I & II:
    DMT 0x10:  1024x768    60.004 Hz   4:3    48.363 kHz  65.000 MHz
  Standard Timings: none
  Detailed Timing Descriptors:
    DTD 1:  1024x768    60.004 Hz   4:3    48.363 kHz  65.000 MHz (285 mm x 214 mm)
                 Hfront   24 Hsync 136 Hback 160 Hpol N
                 Vfront    3 Vsync   6 Vback  29 Vpol N
    Alphanumeric Data String: 'N141XB       '
    Alphanumeric Data String: 'N141XB       '
    Display Product Name: 'Color LCD'
Checksum: 0x40

----------------

Failures:

Block 0, Base EDID:
  Alphanumeric Data String: One or more trailing spaces.
  Alphanumeric Data String: One or more trailing spaces.
  Missing Display Range Limits Descriptor.

EDID conformity: FAIL
