
EDID (hex):
00ffffffffffff0006af9aa400000000
141f0104a51e1378030025a855499f25
0e505400000001010101010101010101
010101010101fa3c80b870b024401010
3e002dbc10000018a72880b870b02440
10103e002dbc10000018000000000000
00000000000000000000000000000002
000c2dff103cc80a081bc8202020009b

Extracted contents:
header:          00 ff ff ff ff ff ff 00
serial number:   06 af 9a a4 00 00 00 00 14 1f
version:         01 04
basic params:    a5 1e 13 78 03
chroma info:     00 25 a8 55 49 9f 25 0e 50 54
established:     00 00 00
standard:        01 01 01 01 01 01 01 01 01 01 01 01 01 01 01 01
descriptor 1:    fa 3c 80 b8 70 b0 24 40 10 10 3e 00 2d bc 10 00 00 18
descriptor 2:    a7 28 80 b8 70 b0 24 40 10 10 3e 00 2d bc 10 00 00 18
descriptor 3:    00 00 00 00 00 00 00 00 00 00 00 00 00 00 00 00 00 00
descriptor 4:    00 00 00 02 00 0c 2d ff 10 3c c8 0a 08 1b c8 20 20 20
extensions:      00
checksum:        9b

EDID version: 1.4
Manufacturer: AUO Model a49a Serial Number --
Made in week 20 of 2021
Digital display
8 bits per primary color channel
DisplayPort interface
Maximum image size: 30 cm x 19 cm
Gamma: 2.20
Supported color formats: RGB 4:4:4
First detailed timing includes the native pixel format and preferred refresh rate
Display is continuous frequency
Display x,y Chromaticity:
  Red:   0.6562, 0.3320
  Green: 0.2851, 0.6210
  Blue:  0.1445, 0.0566
  White: 0.3134, 0.3291
Established timings supported:
Standard timings supported:
Detailed mode: Clock 156.100 MHz, 301 mm x 188 mm
               1920 1936 1952 2104 hborder 0
               1200 1203 1217 1236 vborder 0
               -hsync -vsync 
               VertFreq: 60 Hz, HorFreq: 74192 Hz
Detailed mode: Clock 104.070 MHz, 301 mm x 188 mm
               1920 1936 1952 2104 hborder 0
               1200 1203 1217 1236 vborder 0
               -hsync -vsync 
               VertFreq: 40 Hz, HorFreq: 49462 Hz
Manufacturer-specified data, tag 0
Manufacturer-specified data, tag 2
Checksum: 0x9b (valid)
EDID block does NOT conform to EDID 1.4!
	Missing name descriptor
	Missing monitor ranges
