
EDID (hex):
00ffffffffffff0009e56e0800000000
011d0104a52213780358f5a658559d26
0e505400000001010101010101010101
010101010101963b803671383c403020
360058c21000001aab2f803671383c40
3020360058c21000001a000000fe0042
4f452043510a202020202020000000fe
004e5631353646484d2d4e36310a00b9

Extracted contents:
header:          00 ff ff ff ff ff ff 00
serial number:   09 e5 6e 08 00 00 00 00 01 1d
version:         01 04
basic params:    a5 22 13 78 03
chroma info:     58 f5 a6 58 55 9d 26 0e 50 54
established:     00 00 00
standard:        01 01 01 01 01 01 01 01 01 01 01 01 01 01 01 01
descriptor 1:    96 3b 80 36 71 38 3c 40 30 20 36 00 58 c2 10 00 00 1a
descriptor 2:    ab 2f 80 36 71 38 3c 40 30 20 36 00 58 c2 10 00 00 1a
descriptor 3:    00 00 00 fe 00 42 4f 45 20 43 51 0a 20 20 20 20 20 20
descriptor 4:    00 00 00 fe 00 4e 56 31 35 36 46 48 4d 2d 4e 36 31 0a
extensions:      00
checksum:        b9

EDID version: 1.4
Manufacturer: BOE Model 86e Serial Number --
Made in week 1 of 2019
Digital display
8 bits per primary color channel
DisplayPort interface
Maximum image size: 34 cm x 19 cm
Gamma: 2.20
Supported color formats: RGB 4:4:4
First detailed timing includes the native pixel format and preferred refresh rate
Display is continuous frequency
Display x,y Chromaticity:
  Red:   0.6494, 0.3447
  Green: 0.3339, 0.6132
  Blue:  0.1513, 0.0576
  White: 0.3134, 0.3291
Established timings supported:
Standard timings supported:
Detailed mode: Clock 152.540 MHz, 344 mm x 194 mm
               1920 1968 2000 2230 hborder 0
               1080 1083 1089 1140 vborder 0
               +hsync -vsync 
               VertFreq: 60 Hz, HorFreq: 68403 Hz
Detailed mode: Clock 122.030 MHz, 344 mm x 194 mm
               1920 1968 2000 2230 hborder 0
               1080 1083 1089 1140 vborder 0
               +hsync -vsync 
               VertFreq: 48 Hz, HorFreq: 54721 Hz
ASCII string: BOE CQ
ASCII string: NV156FHM-N61
Checksum: 0xb9 (valid)
EDID block does NOT conform to EDID 1.4!
	Missing name descriptor
	Missing monitor ranges
