edid-decode (hex):

00 ff ff ff ff ff ff 00 12 63 00 00 00 00 00 00
00 1e 01 03 80 38 20 78 ea 08 a5 a2 57 4f a2 28
0f 50 54 00 00 00 01 01 01 01 01 01 01 01 01 01
01 01 01 01 01 01 48 62 80 c8 c0 08 32 70 30 20
8a 00 30 3b 21 00 00 1e 00 00 00 fd 00 1d 3e 19
78 1e 00 0a 20 20 20 20 20 20 00 00 00 fc 00 44
41 53 55 4e 47 0a 20 20 20 20 20 20 00 00 00 fc
00 50 61 70 65 72 6c 69 6b 65 32 35 33 0a 01 3c

02 03 14 c1 23 09 7f 07 83 01 00 00 67 03 0c 00
00 00 00 3c 00 00 00 00 00 00 00 00 00 00 00 00
00 00 00 00 00 00 00 00 00 00 00 00 00 00 00 00
00 00 00 00 00 00 00 00 00 00 00 00 00 00 00 00
00 00 00 00 00 00 00 00 00 00 00 00 00 00 00 00
00 00 00 00 00 00 00 00 00 00 00 00 00 00 00 00
00 00 00 00 00 00 00 00 00 00 00 00 00 00 00 00
00 00 00 00 00 00 00 00 00 00 00 00 00 00 00 3e

00 ff ff ff ff ff ff 00 12 63 00 00 00 00 00 00
00 1e 01 03 80 38 20 78 ea 08 a5 a2 57 4f a2 28
0f 50 54 00 00 00 01 01 01 01 01 01 01 01 01 01
01 01 01 01 01 01 48 62 80 c8 c0 08 32 70 30 20
8a 00 30 3b 21 00 00 1e 00 00 00 fd 00 1d 3e 19
78 1e 00 0a 20 20 20 20 20 20 00 00 00 fc 00 44
41 53 55 4e 47 0a 20 20 20 20 20 20 00 00 00 fc
00 50 61 70 65 72 6c 69 6b 65 32 35 33 0a 01 3c

02 03 14 c1 23 09 7f 07 83 01 00 00 67 03 0c 00
00 00 00 3c 00 00 00 00 00 00 00 00 00 00 00 00
00 00 00 00 00 00 00 00 00 00 00 00 00 00 00 00
00 00 00 00 00 00 00 00 00 00 00 00 00 00 00 00
00 00 00 00 00 00 00 00 00 00 00 00 00 00 00 00
00 00 00 00 00 00 00 00 00 00 00 00 00 00 00 00
00 00 00 00 00 00 00 00 00 00 00 00 00 00 00 00
00 00 00 00 00 00 00 00 00 00 00 00 00 00 00 3e

----------------

Block 0, Base EDID:
  EDID Structure Version & Revision: 1.3
  Vendor & Product Identification:
    Manufacturer: DSC
    Model: 0
    Made in: 2020
  Basic Display Parameters & Features:
    Digital display
    Maximum image size: 56 cm x 32 cm
    Gamma: 2.20
    DPMS levels: Standby Suspend Off
    RGB color display
    First detailed timing is the preferred timing
  Color Characteristics:
    Red  : 0.6328, 0.3398
    Green: 0.3105, 0.6328
    Blue : 0.1582, 0.0605
    White: 0.3134, 0.3291
  Established Timings I & II: none
  Standard Timings: none
  Detailed Timing Descriptors:
    DTD 1:  3200x1800   40.000000 Hz  16:9     74.000 kHz    251.600000 MHz (560 mm x 315 mm)
                 Hfront   48 Hsync  32 Hback  120 Hpol P
                 Vfront    8 Vsync  10 Vback   32 Vpol P
    Display Range Limits:
      Monitor ranges (GTF): 29-62 Hz V, 25-120 kHz H, max dotclock 300 MHz
    Display Product Name: 'DASUNG'
    Display Product Name: 'Paperlike253'
  Extension blocks: 1
Checksum: 0x3c

----------------

Block 1, CTA-861 Extension Block:
  Revision: 3
  Underscans IT Video Formats by default
  Basic audio support
  Native detailed modes: 1
  Audio Data Block:
    Linear PCM:
      Max channels: 2
      Supported sample rates (kHz): 192 176.4 96 88.2 48 44.1 32
      Supported sample sizes (bits): 24 20 16
  Speaker Allocation Data Block:
    FL/FR - Front Left/Right
  Vendor-Specific Data Block (HDMI), OUI 00-0C-03:
    Source physical address: 0.0.0.0
    Maximum TMDS clock: 300 MHz
Checksum: 0x3e  Unused space in Extension Block: 107 bytes

----------------

Block 2, Unknown EDID Extension Block 0x00:
  00 ff ff ff ff ff ff 00 12 63 00 00 00 00 00 00 '.........c......'
  00 1e 01 03 80 38 20 78 ea 08 a5 a2 57 4f a2 28 '.....8 x....WO.('
  0f 50 54 00 00 00 01 01 01 01 01 01 01 01 01 01 '.PT.............'
  01 01 01 01 01 01 48 62 80 c8 c0 08 32 70 30 20 '......Hb....2p0 '
  8a 00 30 3b 21 00 00 1e 00 00 00 fd 00 1d 3e 19 '..0;!.........>.'
  78 1e 00 0a 20 20 20 20 20 20 00 00 00 fc 00 44 'x...      .....D'
  41 53 55 4e 47 0a 20 20 20 20 20 20 00 00 00 fc 'ASUNG.      ....'
  00 50 61 70 65 72 6c 69 6b 65 32 35 33 0a 01 3c '.Paperlike253..<'
Checksum: 0x3c

----------------

Block 3, CTA-861 Extension Block:
  Revision: 3
  Underscans IT Video Formats by default
  Basic audio support
  Native detailed modes: 1
  Audio Data Block:
    Linear PCM:
      Max channels: 2
      Supported sample rates (kHz): 192 176.4 96 88.2 48 44.1 32
      Supported sample sizes (bits): 24 20 16
  Speaker Allocation Data Block:
    FL/FR - Front Left/Right
  Vendor-Specific Data Block (HDMI), OUI 00-0C-03:
    Source physical address: 0.0.0.0
    Maximum TMDS clock: 300 MHz
Checksum: 0x3e  Unused space in Extension Block: 107 bytes

----------------

Warnings:

Block 1, CTA-861 Extension Block:
  Add a Colorimetry Data Block with the sRGB colorimetry bit set to avoid interop issues.
Block 3, CTA-861 Extension Block:
  Add a Colorimetry Data Block with the sRGB colorimetry bit set to avoid interop issues.

Failures:

Block 1, CTA-861 Extension Block:
  Required 640x480p60 timings are missing in the established timings and the SVD list (VIC 1).
  Missing VCDB, needed for Set Selectable RGB Quantization to avoid interop issues.
Block 2, Base EDID:
  Unknown Extension Block.
Block 3, CTA-861 Extension Block:
  Speaker Allocation Data Block: Only one instance of this Data Block is allowed.
  Required 640x480p60 timings are missing in the established timings and the SVD list (VIC 1).
  Missing VCDB, needed for Set Selectable RGB Quantization to avoid interop issues.
EDID:
  Base EDID: EDID specified 1 extension block(s), but found 3 extension block(s).
  Base EDID: EDID 1.3 requires a Block Map Extension in Block 1 if there are more than 2 blocks in the EDID.

EDID conformity: FAIL
