
EDID (hex):
00ffffffffffff0006af3c2100000000
01120103801f11780a09e59757549327
22505400000001010101010101010101
010101010101201c5680500023303020
360035ae100000180000000f00000000
00000000000000000020000000fe0041
554f0a202020202020202020000000fe
004231343058573032205631200a00b2

Extracted contents:
header:          00 ff ff ff ff ff ff 00
serial number:   06 af 3c 21 00 00 00 00 01 12
version:         01 03
basic params:    80 1f 11 78 0a
chroma info:     09 e5 97 57 54 93 27 22 50 54
established:     00 00 00
standard:        01 01 01 01 01 01 01 01 01 01 01 01 01 01 01 01
descriptor 1:    20 1c 56 80 50 00 23 30 30 20 36 00 35 ae 10 00 00 18
descriptor 2:    00 00 00 0f 00 00 00 00 00 00 00 00 00 00 00 00 00 20
descriptor 3:    00 00 00 fe 00 41 55 4f 0a 20 20 20 20 20 20 20 20 20
descriptor 4:    00 00 00 fe 00 42 31 34 30 58 57 30 32 20 56 31 20 0a
extensions:      00
checksum:        b2

EDID version: 1.3
Manufacturer: AUO Model 213c Serial Number --
Made in week 1 of 2008
Digital display
Maximum image size: 31 cm x 17 cm
Gamma: 2.20
RGB color display
First detailed timing is preferred timing
Display x,y Chromaticity:
  Red:   0.5898, 0.3398
  Green: 0.3300, 0.5751
  Blue:  0.1552, 0.1347
  White: 0.3134, 0.3291
Established timings supported:
Standard timings supported:
Detailed mode: Clock 72.000 MHz, 309 mm x 174 mm
               1366 1414 1446 1494 hborder 0
                768  771  777  803 vborder 0
               -hsync -vsync 
               VertFreq: 60 Hz, HorFreq: 48192 Hz
Manufacturer-specified data, tag 15
ASCII string: AUO
ASCII string: B140XW02 V1 
Checksum: 0xb2 (valid)
EDID block does NOT conform to EDID 1.3!
	Missing name descriptor
	Missing monitor ranges
