
EDID (hex):
00ffffffffffff0009e5900500000000
01140103801f11780a3fa09355559527
1e505400000001010101010101010101
010101010101131b5664500014303020
360035ad1000001a131b566450001430
3020360035ad1000001a000000fe0042
4f45204f540a202020202020000000fe
0048543134305758422d3130310a0028

Extracted contents:
header:          00 ff ff ff ff ff ff 00
serial number:   09 e5 90 05 00 00 00 00 01 14
version:         01 03
basic params:    80 1f 11 78 0a
chroma info:     3f a0 93 55 55 95 27 1e 50 54
established:     00 00 00
standard:        01 01 01 01 01 01 01 01 01 01 01 01 01 01 01 01
descriptor 1:    13 1b 56 64 50 00 14 30 30 20 36 00 35 ad 10 00 00 1a
descriptor 2:    13 1b 56 64 50 00 14 30 30 20 36 00 35 ad 10 00 00 1a
descriptor 3:    00 00 00 fe 00 42 4f 45 20 4f 54 0a 20 20 20 20 20 20
descriptor 4:    00 00 00 fe 00 48 54 31 34 30 57 58 42 2d 31 30 31 0a
extensions:      00
checksum:        28

EDID version: 1.3
Manufacturer: BOE Model 590 Serial Number --
Made in week 1 of 2010
Digital display
Maximum image size: 31 cm x 17 cm
Gamma: 2.20
RGB color display
First detailed timing is preferred timing
Display x,y Chromaticity:
  Red:   0.5742, 0.3349
  Green: 0.3349, 0.5849
  Blue:  0.1542, 0.1191
  White: 0.3125, 0.3281
Established timings supported:
Standard timings supported:
Detailed mode: Clock 69.310 MHz, 309 mm x 173 mm
               1366 1414 1446 1466 hborder 0
                768  771  777  788 vborder 0
               +hsync -vsync 
               VertFreq: 59 Hz, HorFreq: 47278 Hz
Detailed mode: Clock 69.310 MHz, 309 mm x 173 mm
               1366 1414 1446 1466 hborder 0
                768  771  777  788 vborder 0
               +hsync -vsync 
               VertFreq: 59 Hz, HorFreq: 47278 Hz
ASCII string: BOE OT
ASCII string: HT140WXB-101
Checksum: 0x28 (valid)
EDID block does NOT conform to EDID 1.3!
	Missing name descriptor
	Missing monitor ranges
