
EDID (hex):
00ffffffffffff0004726103be2b9052
1d190103803c22782a4b75a7564ba325
0a5054bd4b00d100d1c08180950f9500
b30081c0a940565e00a0a0a029503020
350055502100001e000000fd00384c1e
6321000a202020202020000000ff004c
5a324141303032343230320a000000fc
0041636572204232373648554c0a001d

Extracted contents:
header:          00 ff ff ff ff ff ff 00
serial number:   04 72 61 03 be 2b 90 52 1d 19
version:         01 03
basic params:    80 3c 22 78 2a
chroma info:     4b 75 a7 56 4b a3 25 0a 50 54
established:     bd 4b 00
standard:        d1 00 d1 c0 81 80 95 0f 95 00 b3 00 81 c0 a9 40
descriptor 1:    56 5e 00 a0 a0 a0 29 50 30 20 35 00 55 50 21 00 00 1e
descriptor 2:    00 00 00 fd 00 38 4c 1e 63 21 00 0a 20 20 20 20 20 20
descriptor 3:    00 00 00 ff 00 4c 5a 32 41 41 30 30 32 34 32 30 32 0a
descriptor 4:    00 00 00 fc 00 41 63 65 72 20 42 32 37 36 48 55 4c 0a
extensions:      00
checksum:        1d

EDID version: 1.3
Manufacturer: ACR Model 361 Serial Number --
Made in week 29 of 2015
Digital display
Maximum image size: 60 cm x 34 cm
Gamma: 2.20
DPMS levels: Off
RGB color display
First detailed timing is preferred timing
Display x,y Chromaticity:
  Red:   0.6533, 0.3359
  Green: 0.2949, 0.6396
  Blue:  0.1455, 0.0419
  White: 0.3134, 0.3291
Established timings supported:
  720x400@70Hz 9:5 HorFreq: 31469 Hz Clock: 28.320 MHz
  640x480@60Hz 4:3 HorFreq: 31469 Hz Clock: 25.175 MHz
  640x480@67Hz 4:3 HorFreq: 35000 Hz Clock: 30.240 MHz
  640x480@72Hz 4:3 HorFreq: 37900 Hz Clock: 31.500 MHz
  640x480@75Hz 4:3 HorFreq: 37500 Hz Clock: 31.500 MHz
  800x600@60Hz 4:3 HorFreq: 37900 Hz Clock: 40.000 MHz
  800x600@75Hz 4:3 HorFreq: 46900 Hz Clock: 49.500 MHz
  1024x768@60Hz 4:3 HorFreq: 48400 Hz Clock: 65.000 MHz
  1024x768@75Hz 4:3 HorFreq: 60000 Hz Clock: 78.750 MHz
  1280x1024@75Hz 5:4 HorFreq: 80000 Hz Clock: 135.000 MHz
Standard timings supported:
  1920x1200@60Hz 16:10 HorFreq: 74000 Hz Clock: 154.000 MHz
  1920x1080@60Hz 16:9
  1280x1024@60Hz 5:4 HorFreq: 64000 Hz Clock: 108.000 MHz
  1440x900@75Hz 16:10 HorFreq: 82300 Hz Clock: 156.000 MHz
  1440x900@60Hz 16:10 HorFreq: 55500 Hz Clock: 88.750 MHz
  1680x1050@60Hz 16:10 HorFreq: 64700 Hz Clock: 119.000 MHz
  1280x720@60Hz 16:9
  1600x1200@60Hz 4:3 HorFreq: 75000 Hz Clock: 162.000 MHz
Detailed mode: Clock 241.500 MHz, 597 mm x 336 mm
               2560 2608 2640 2720 hborder 0
               1440 1443 1448 1481 vborder 0
               +hsync +vsync 
               VertFreq: 59 Hz, HorFreq: 88786 Hz
Monitor ranges (GTF): 56-76Hz V, 30-99kHz H, max dotclock 330MHz
Serial number: --
Monitor name: Acer B276HUL
Checksum: 0x1d (valid)
