
EDID (hex):
00ffffffffffff0042933c0219f60300
110e0103081e1764e840959c57529226
1c5054adce0001010101010101010101
010101010101c31e0020410020301060
130030e41000001e000000fc0048442d
3537320a202020202020000000fd003c
4b1f3c08000a202020202020000000ff
004647494a34343032353936303900fd

Extracted contents:
header:          00 ff ff ff ff ff ff 00
serial number:   42 93 3c 02 19 f6 03 00 11 0e
version:         01 03
basic params:    08 1e 17 64 e8
chroma info:     40 95 9c 57 52 92 26 1c 50 54
established:     ad ce 00
standard:        01 01 01 01 01 01 01 01 01 01 01 01 01 01 01 01
descriptor 1:    c3 1e 00 20 41 00 20 30 10 60 13 00 30 e4 10 00 00 1e
descriptor 2:    00 00 00 fc 00 48 44 2d 35 37 32 0a 20 20 20 20 20 20
descriptor 3:    00 00 00 fd 00 3c 4b 1f 3c 08 00 0a 20 20 20 20 20 20
descriptor 4:    00 00 00 ff 00 46 47 49 4a 34 34 30 32 35 39 36 30 39
extensions:      00
checksum:        fd

EDID version: 1.3
Manufacturer: PTS Model 23c Serial Number --
Analog display, Input voltage level: 0.7/0.3 V
Sync: Separate 
Maximum image size: 30 cm x 23 cm
Gamma: 2.00
DPMS levels: Standby Suspend Off
RGB color display
Display x,y Chromaticity:
  Red:   0.6103, 0.3398
  Green: 0.3203, 0.5703
  Blue:  0.1503, 0.1103
  White: 0.3134, 0.3291
Established timings supported:
  720x400@70Hz 9:5 HorFreq: 31469 Hz Clock: 28.320 MHz
  640x480@60Hz 4:3 HorFreq: 31469 Hz Clock: 25.175 MHz
  640x480@72Hz 4:3 HorFreq: 37900 Hz Clock: 31.500 MHz
  640x480@75Hz 4:3 HorFreq: 37500 Hz Clock: 31.500 MHz
  800x600@60Hz 4:3 HorFreq: 37900 Hz Clock: 40.000 MHz
  800x600@72Hz 4:3 HorFreq: 48100 Hz Clock: 50.000 MHz
  800x600@75Hz 4:3 HorFreq: 46900 Hz Clock: 49.500 MHz
  1024x768@60Hz 4:3 HorFreq: 48400 Hz Clock: 65.000 MHz
  1024x768@70Hz 4:3 HorFreq: 56500 Hz Clock: 75.000 MHz
  1024x768@75Hz 4:3 HorFreq: 60000 Hz Clock: 78.750 MHz
Standard timings supported:
Detailed mode: Clock 78.750 MHz, 304 mm x 228 mm
               1024 1040 1136 1312 hborder 0
                768  769  772  800 vborder 0
               +hsync +vsync 
               VertFreq: 75 Hz, HorFreq: 60022 Hz
Monitor name: HD-572
Monitor ranges (GTF): 60-75Hz V, 31-60kHz H, max dotclock 80MHz
Serial number: --
Checksum: 0xfd (valid)
EDID block does NOT conform to EDID 1.3!
	Missing preferred timing
One or more of the timings is out of range of the Monitor Ranges:
  Vertical Freq: 60 - 75 Hz
  Horizontal Freq: 31469 - 60022 Hz
  Maximum Clock: 78.750 MHz
EDID block does not conform at all!
	Bad year of manufacture
