
EDID (hex):
00ffffffffffff0010ac394257534442
121f0104a53c22783b2176a953449423
1c4d5aa54b00d100d1c0b300a9408180
8100714f0101565e00a0a0a029503020
350055502100001a000000ff00375859
315438330a2020202020000000fc0044
454c4c20533237323244474d000000fd
0030a5fafa41010a2020202020200135
020325f14a3f101f0413121103020123
090707830100006d1a0000020130a500
0000000000f4fb0050a0a02850082068
0055502100001aa7e5007ea0a0505008
20680055502100001a6fc200a0a0a055
503020350055502100001a0000000000
00000000000000000000000000000000
000000000000000000000000000000f4

Extracted contents:
header:          00 ff ff ff ff ff ff 00
serial number:   10 ac 39 42 57 53 44 42 12 1f
version:         01 04
basic params:    a5 3c 22 78 3b
chroma info:     21 76 a9 53 44 94 23 1c 4d 5a
established:     a5 4b 00
standard:        d1 00 d1 c0 b3 00 a9 40 81 80 81 00 71 4f 01 01
descriptor 1:    56 5e 00 a0 a0 a0 29 50 30 20 35 00 55 50 21 00 00 1a
descriptor 2:    00 00 00 ff 00 37 58 59 31 54 38 33 0a 20 20 20 20 20
descriptor 3:    00 00 00 fc 00 44 45 4c 4c 20 53 32 37 32 32 44 47 4d
descriptor 4:    00 00 00 fd 00 30 a5 fa fa 41 01 0a 20 20 20 20 20 20
extensions:      01
checksum:        35

EDID version: 1.4
Manufacturer: DEL Model 4239 Serial Number --
Made in week 18 of 2021
Digital display
8 bits per primary color channel
DisplayPort interface
Maximum image size: 60 cm x 34 cm
Gamma: 2.20
DPMS levels: Off
Supported color formats: RGB 4:4:4, YCrCb 4:4:4, YCrCb 4:2:2
First detailed timing includes the native pixel format and preferred refresh rate
Display is continuous frequency
Display x,y Chromaticity:
  Red:   0.6601, 0.3261
  Green: 0.2656, 0.5791
  Blue:  0.1376, 0.1123
  White: 0.3017, 0.3535
Established timings supported:
  720x400@70Hz 9:5 HorFreq: 31469 Hz Clock: 28.320 MHz
  640x480@60Hz 4:3 HorFreq: 31469 Hz Clock: 25.175 MHz
  640x480@75Hz 4:3 HorFreq: 37500 Hz Clock: 31.500 MHz
  800x600@60Hz 4:3 HorFreq: 37900 Hz Clock: 40.000 MHz
  800x600@75Hz 4:3 HorFreq: 46900 Hz Clock: 49.500 MHz
  1024x768@60Hz 4:3 HorFreq: 48400 Hz Clock: 65.000 MHz
  1024x768@75Hz 4:3 HorFreq: 60000 Hz Clock: 78.750 MHz
  1280x1024@75Hz 5:4 HorFreq: 80000 Hz Clock: 135.000 MHz
Standard timings supported:
  1920x1200@60Hz 16:10 HorFreq: 74000 Hz Clock: 154.000 MHz
  1920x1080@60Hz 16:9
  1680x1050@60Hz 16:10 HorFreq: 64700 Hz Clock: 119.000 MHz
  1600x1200@60Hz 4:3 HorFreq: 75000 Hz Clock: 162.000 MHz
  1280x1024@60Hz 5:4 HorFreq: 64000 Hz Clock: 108.000 MHz
  1280x800@60Hz 16:10
  1152x864@75Hz 4:3 HorFreq: 67500 Hz Clock: 108.000 MHz
Detailed mode: Clock 241.500 MHz, 597 mm x 336 mm
               2560 2608 2640 2720 hborder 0
               1440 1443 1448 1481 vborder 0
               +hsync -vsync 
               VertFreq: 59 Hz, HorFreq: 88786 Hz
Serial number: --
Monitor ranges (bare limits): 48-165Hz V, 250-250kHz H, max dotclock 650MHz
Has 1 extension blocks
Checksum: 0x35 (valid)

CTA extension block
Extension version: 3
33 bytes of CTA data
  Video data block
    VIC  63 1920x1080@120Hz 16:9  HorFreq: 135000 Hz Clock: 297.000 MHz
    VIC  16 1920x1080@60Hz 16:9  HorFreq: 67500 Hz Clock: 148.500 MHz
    VIC  31 1920x1080@50Hz 16:9  HorFreq: 56250 Hz Clock: 148.500 MHz
    VIC   4 1280x720@60Hz 16:9  HorFreq: 45000 Hz Clock: 74.250 MHz
    VIC  19 1280x720@50Hz 16:9  HorFreq: 37500 Hz Clock: 74.250 MHz
    VIC  18 720x576@50Hz 16:9  HorFreq: 31250 Hz Clock: 27.000 MHz
    VIC  17 720x576@50Hz 4:3  HorFreq: 31250 Hz Clock: 27.000 MHz
    VIC   3 720x480@60Hz 16:9  HorFreq: 31469 Hz Clock: 27.000 MHz
    VIC   2 720x480@60Hz 4:3  HorFreq: 31469 Hz Clock: 27.000 MHz
    VIC   1 640x480@60Hz 4:3  HorFreq: 31469 Hz Clock: 25.175 MHz
  Audio data block
    Linear PCM, max channels 2
      Supported sample rates (kHz): 48 44.1 32
      Supported sample sizes (bits): 24 20 16
  Speaker allocation data block
    Speaker map:
      FL/FR - Front Left/Right
  Vendor-specific data block, OUI 00001a
Underscans PC formats by default
Basic audio support
Supports YCbCr 4:4:4
Supports YCbCr 4:2:2
1 native detailed modes
Detailed mode: Clock 645.000 MHz, 597 mm x 336 mm
               2560 2568 2600 2640 hborder 0
               1440 1446 1454 1480 vborder 0
               +hsync -vsync 
               VertFreq: 165 Hz, HorFreq: 244318 Hz
Detailed mode: Clock 587.910 MHz, 597 mm x 336 mm
               2560 2568 2600 2686 hborder 0
               1440 1446 1454 1520 vborder 0
               +hsync -vsync 
               VertFreq: 143 Hz, HorFreq: 218879 Hz
Detailed mode: Clock 497.750 MHz, 597 mm x 336 mm
               2560 2608 2640 2720 hborder 0
               1440 1443 1448 1525 vborder 0
               +hsync -vsync 
               VertFreq: 119 Hz, HorFreq: 182996 Hz
Checksum: 0xf4 (valid)

EDID block does NOT conform to EDID 1.4!
	Name descriptor not terminated with a newline
Warning: One or more of the timings is out of range of the Monitor Ranges:
  Vertical Freq: 50 - 165 Hz
  Horizontal Freq: 31250 - 244318 Hz
  Maximum Clock: 645.000 MHz
EDID block does not conform at all!
	Both the serial number and the serial string are set
