edid-decode (hex):

00 ff ff ff ff ff ff 00 06 8e 01 00 62 2b 00 00
17 18 01 03 0e 34 20 78 2a 7c 11 9e 59 47 9b 27
10 50 54 bf ef 80 a9 40 81 80 90 40 95 00 b3 00
d1 c0 81 00 d1 00 64 19 00 40 41 00 26 30 18 88
36 00 06 44 21 00 00 18 28 3c 80 a0 70 b0 23 40
30 20 36 00 06 44 21 00 00 1a 00 00 00 fc 00 41
54 45 4e 5f 56 47 41 0a 20 20 20 20 00 00 00 fd
00 17 79 0f 66 15 00 0a 20 20 20 20 20 20 00 ce

00 ff ff ff ff ff ff 00 06 8e 01 00 62 2b 00 00
17 18 01 03 0e 34 20 78 2a 7c 11 9e 59 47 9b 27
10 50 54 bf ef 80 a9 40 81 80 90 40 95 00 b3 00
d1 c0 81 00 d1 00 64 19 00 40 41 00 26 30 18 88
36 00 06 44 21 00 00 18 28 3c 80 a0 70 b0 23 40
30 20 36 00 06 44 21 00 00 1a 00 00 00 fc 00 41
54 45 4e 5f 56 47 41 0a 20 20 20 20 00 00 00 fd
00 17 79 0f 66 15 00 0a 20 20 20 20 20 20 00 ce

----------------

Block 0, Base EDID:
  EDID Structure Version & Revision: 1.3
  Vendor & Product Identification:
    Manufacturer: ATN
    Model: 1
    Serial Number: ...
    Made in: week 23 of 2014
  Basic Display Parameters & Features:
    Analog display
    Signal Level Standard: 0.700 : 0.300 : 1.000 V p-p
    Blank level equals black level
    Sync: Separate Composite SyncOnGreen
    Maximum image size: 52 cm x 32 cm
    Gamma: 2.20
    DPMS levels: Off
    RGB color display
    First detailed timing is the preferred timing
  Color Characteristics:
    Red  : 0.6181, 0.3505
    Green: 0.2802, 0.6054
    Blue : 0.1523, 0.0634
    White: 0.3125, 0.3291
  Established Timings I & II:
    IBM     :   720x400    70.081663 Hz   9:5     31.467 kHz     28.320000 MHz
    DMT 0x04:   640x480    59.940476 Hz   4:3     31.469 kHz     25.175000 MHz
    Apple   :   640x480    66.666667 Hz   4:3     35.000 kHz     30.240000 MHz
    DMT 0x05:   640x480    72.808802 Hz   4:3     37.861 kHz     31.500000 MHz
    DMT 0x06:   640x480    75.000000 Hz   4:3     37.500 kHz     31.500000 MHz
    DMT 0x08:   800x600    56.250000 Hz   4:3     35.156 kHz     36.000000 MHz
    DMT 0x09:   800x600    60.316541 Hz   4:3     37.879 kHz     40.000000 MHz
    DMT 0x0a:   800x600    72.187572 Hz   4:3     48.077 kHz     50.000000 MHz
    DMT 0x0b:   800x600    75.000000 Hz   4:3     46.875 kHz     49.500000 MHz
    Apple   :   832x624    74.551266 Hz   4:3     49.726 kHz     57.284000 MHz
    DMT 0x10:  1024x768    60.003840 Hz   4:3     48.363 kHz     65.000000 MHz
    DMT 0x11:  1024x768    70.069359 Hz   4:3     56.476 kHz     75.000000 MHz
    DMT 0x12:  1024x768    75.028582 Hz   4:3     60.023 kHz     78.750000 MHz
    DMT 0x24:  1280x1024   75.024675 Hz   5:4     79.976 kHz    135.000000 MHz
    Apple   :  1152x870    75.061550 Hz 192:145   68.681 kHz    100.000000 MHz
  Standard Timings:
    DMT 0x33:  1600x1200   60.000000 Hz   4:3     75.000 kHz    162.000000 MHz
    DMT 0x23:  1280x1024   60.019740 Hz   5:4     63.981 kHz    108.000000 MHz
    DMT 0x2a:  1400x1050   59.978442 Hz   4:3     65.317 kHz    121.750000 MHz
    DMT 0x2f:  1440x900    59.887445 Hz  16:10    55.935 kHz    106.500000 MHz
    DMT 0x3a:  1680x1050   59.954250 Hz  16:10    65.290 kHz    146.250000 MHz
    DMT 0x52:  1920x1080   60.000000 Hz  16:9     67.500 kHz    148.500000 MHz
    DMT 0x1c:  1280x800    59.810326 Hz  16:10    49.702 kHz     83.500000 MHz
    DMT 0x45:  1920x1200   59.884600 Hz  16:10    74.556 kHz    193.250000 MHz
  Detailed Timing Descriptors:
    DTD 1:  1024x768    60.003840 Hz   4:3     48.363 kHz     65.000000 MHz (518 mm x 324 mm)
                 Hfront   24 Hsync 136 Hback  160 Hpol N
                 Vfront    3 Vsync   6 Vback   29 Vpol N
    DTD 2:  1920x1200   59.950171 Hz  16:10    74.038 kHz    154.000000 MHz (518 mm x 324 mm)
                 Hfront   48 Hsync  32 Hback   80 Hpol P
                 Vfront    3 Vsync   6 Vback   26 Vpol N
    Display Product Name: 'ATEN_VGA'
    Display Range Limits:
      Monitor ranges (GTF): 23-121 Hz V, 15-102 kHz H, max dotclock 210 MHz
Checksum: 0xce

----------------

Block 1, Unknown EDID Extension Block 0x00:
  00 ff ff ff ff ff ff 00 06 8e 01 00 62 2b 00 00 '............b+..'
  17 18 01 03 0e 34 20 78 2a 7c 11 9e 59 47 9b 27 '.....4 x*|..YG.''
  10 50 54 bf ef 80 a9 40 81 80 90 40 95 00 b3 00 '.PT....@...@....'
  d1 c0 81 00 d1 00 64 19 00 40 41 00 26 30 18 88 '......d..@A.&0..'
  36 00 06 44 21 00 00 18 28 3c 80 a0 70 b0 23 40 '6..D!...(<..p.#@'
  30 20 36 00 06 44 21 00 00 1a 00 00 00 fc 00 41 '0 6..D!........A'
  54 45 4e 5f 56 47 41 0a 20 20 20 20 00 00 00 fd 'TEN_VGA.    ....'
  00 17 79 0f 66 15 00 0a 20 20 20 20 20 20 00 ce '..y.f...      ..'
Checksum: 0xce

----------------

Failures:

Block 1, Base EDID:
  Unknown Extension Block.
EDID:
  Base EDID: EDID specified 0 extension block(s), but found 1 extension block(s).

EDID conformity: FAIL
