edid-decode (hex):

00 ff ff ff ff ff ff 00 09 e5 03 00 03 00 00 00
01 1d 01 03 80 0b 12 78 2f 00 00 a0 57 49 9b 26
10 48 4f 00 00 00 01 01 01 01 01 01 01 01 01 01
01 01 01 01 01 01 98 6e 40 d2 60 00 2f a0 78 0a
02 04 71 b4 00 00 00 18 00 00 00 fc 00 46 4c 51
38 34 32 33 2d 32 34 4c 30 0a 00 00 00 fd 00 3c
3c 10 10 07 00 00 00 00 00 00 00 00 00 00 00 00
00 00 00 00 00 00 00 00 00 00 00 00 00 00 00 83

00 ff ff ff ff ff ff 00 09 e5 03 00 03 00 00 00
01 1d 01 03 80 0b 12 78 2f 00 00 a0 57 49 9b 26
10 48 4f 00 00 00 01 01 01 01 01 01 01 01 01 01
01 01 01 01 01 01 98 6e 40 d2 60 00 2f a0 78 0a
02 04 71 b4 00 00 00 18 00 00 00 fc 00 46 4c 51
38 34 32 33 2d 32 34 4c 30 0a 00 00 00 fd 00 3c
3c 10 10 07 00 00 00 00 00 00 00 00 00 00 00 00
00 00 00 00 00 00 00 00 00 00 00 00 00 00 00 83

----------------

Block 0, Base EDID:
  EDID Structure Version & Revision: 1.3
  Vendor & Product Identification:
    Manufacturer: BOE
    Model: 3
    Serial Number: ...
    Made in: week 1 of 2019
  Basic Display Parameters & Features:
    Digital display
    Maximum image size: 11 cm x 18 cm
    Gamma: 2.20
    DPMS levels: Off
    RGB color display
    Default (sRGB) color space is primary color space
    First detailed timing is the preferred timing
    Supports GTF timings within operating range
  Color Characteristics:
    Red  : 0.6250, 0.3398
    Green: 0.2851, 0.6054
    Blue : 0.1484, 0.0625
    White: 0.2812, 0.3085
  Established Timings I & II: none
  Standard Timings: none
  Detailed Timing Descriptors:
    DTD 1:  1600x2560   59.999958 Hz   5:8    156.420 kHz    283.120000 MHz (113 mm x 180 mm)
                 Hfront  120 Hsync  10 Hback   80 Hpol N
                 Vfront   16 Vsync   2 Vback   29 Vpol N
    Display Product Name: 'FLQ8423-24L0'
    Display Range Limits:
      Monitor ranges (GTF): 60-60 Hz V, 16-16 kHz H, max dotclock 70 MHz
    Empty Descriptor
Checksum: 0x83

----------------

Block 1, Unknown EDID Extension Block 0x00:
  00 ff ff ff ff ff ff 00 09 e5 03 00 03 00 00 00 '................'
  01 1d 01 03 80 0b 12 78 2f 00 00 a0 57 49 9b 26 '.......x/...WI.&'
  10 48 4f 00 00 00 01 01 01 01 01 01 01 01 01 01 '.HO.............'
  01 01 01 01 01 01 98 6e 40 d2 60 00 2f a0 78 0a '.......n@.`./.x.'
  02 04 71 b4 00 00 00 18 00 00 00 fc 00 46 4c 51 '..q..........FLQ'
  38 34 32 33 2d 32 34 4c 30 0a 00 00 00 fd 00 3c '8423-24L0......<'
  3c 10 10 07 00 00 00 00 00 00 00 00 00 00 00 00 '<...............'
  00 00 00 00 00 00 00 00 00 00 00 00 00 00 00 83 '................'
Checksum: 0x83

----------------

Failures:

Block 0, Base EDID:
  Basic Display Parameters & Features: sRGB is signaled, but the chromaticities do not match.
  Display Range Limits: Byte 11 is 0x00 instead of 0x0a.
  Display Range Limits: Bytes 12-17 must be 0x20.
  Empty Descriptor: Use Dummy Descriptor instead of all zeroes.
Block 1, Base EDID:
  Unknown Extension Block.
EDID:
  Base EDID: Some timings are out of range of the Monitor Ranges:
    Horizontal Freq: 156.419 - 156.419 kHz (Monitor: 16.000 - 16.000 kHz)
    Maximum Clock: 283.120 MHz (Monitor: 70.000 MHz)
  Base EDID: EDID specified 0 extension block(s), but found 1 extension block(s).

EDID conformity: FAIL
