edid-decode (hex):

00 ff ff ff ff ff ff 00 41 0c 18 c2 73 04 00 00
34 1d 01 03 80 30 1b 78 2a 28 c5 a8 55 51 9b 25
11 50 54 2f cf 00 d1 c0 b3 00 95 00 81 80 81 40
81 c0 01 01 01 01 02 3a 80 18 71 38 2d 40 58 2c
45 00 e0 0e 11 00 00 1e d0 30 a0 a0 50 38 14 40
30 20 34 00 68 0e 11 00 00 1e 26 34 40 a0 60 84
19 30 30 20 35 00 90 e1 10 00 00 1e 04 3d 80 50
70 38 14 40 18 20 35 00 e0 0e 11 00 00 1e 00 e1

00 ff ff ff ff ff ff 00 41 0c 18 c2 73 04 00 00
34 1d 01 03 80 30 1b 78 2a 28 c5 a8 55 51 9b 25
11 50 54 2f cf 00 d1 c0 b3 00 95 00 81 80 81 40
81 c0 01 01 01 01 02 3a 80 18 71 38 2d 40 58 2c
45 00 e0 0e 11 00 00 1e d0 30 a0 a0 50 38 14 40
30 20 34 00 68 0e 11 00 00 1e 26 34 40 a0 60 84
19 30 30 20 35 00 90 e1 10 00 00 1e 04 3d 80 50
70 38 14 40 18 20 35 00 e0 0e 11 00 00 1e 00 e1

----------------

Block 0, Base EDID:
  EDID Structure Version & Revision: 1.3
  Vendor & Product Identification:
    Manufacturer: PHL
    Model: 49688
    Serial Number: ...
    Made in: week 52 of 2019
  Basic Display Parameters & Features:
    Digital display
    Maximum image size: 48 cm x 27 cm
    Gamma: 2.20
    DPMS levels: Off
    RGB color display
    First detailed timing is the preferred timing
  Color Characteristics:
    Red  : 0.6562, 0.3339
    Green: 0.3183, 0.6054
    Blue : 0.1474, 0.0664
    White: 0.3134, 0.3291
  Established Timings I & II:
    DMT 0x04:   640x480    59.940476 Hz   4:3     31.469 kHz     25.175000 MHz
    DMT 0x05:   640x480    72.808802 Hz   4:3     37.861 kHz     31.500000 MHz
    DMT 0x06:   640x480    75.000000 Hz   4:3     37.500 kHz     31.500000 MHz
    DMT 0x08:   800x600    56.250000 Hz   4:3     35.156 kHz     36.000000 MHz
    DMT 0x09:   800x600    60.316541 Hz   4:3     37.879 kHz     40.000000 MHz
    DMT 0x0a:   800x600    72.187572 Hz   4:3     48.077 kHz     50.000000 MHz
    DMT 0x0b:   800x600    75.000000 Hz   4:3     46.875 kHz     49.500000 MHz
    DMT 0x10:  1024x768    60.003840 Hz   4:3     48.363 kHz     65.000000 MHz
    DMT 0x11:  1024x768    70.069359 Hz   4:3     56.476 kHz     75.000000 MHz
    DMT 0x12:  1024x768    75.028582 Hz   4:3     60.023 kHz     78.750000 MHz
    DMT 0x24:  1280x1024   75.024675 Hz   5:4     79.976 kHz    135.000000 MHz
  Standard Timings:
    DMT 0x52:  1920x1080   60.000000 Hz  16:9     67.500 kHz    148.500000 MHz
    DMT 0x3a:  1680x1050   59.954250 Hz  16:10    65.290 kHz    146.250000 MHz
    DMT 0x2f:  1440x900    59.887445 Hz  16:10    55.935 kHz    106.500000 MHz
    DMT 0x23:  1280x1024   60.019740 Hz   5:4     63.981 kHz    108.000000 MHz
    DMT 0x20:  1280x960    60.000000 Hz   4:3     60.000 kHz    108.000000 MHz
    DMT 0x55:  1280x720    60.000000 Hz  16:9     45.000 kHz     74.250000 MHz
  Detailed Timing Descriptors:
    DTD 1:  1920x1080   60.000000 Hz  16:9     67.500 kHz    148.500000 MHz (480 mm x 270 mm)
                 Hfront   88 Hsync  44 Hback  148 Hpol P
                 Vfront    4 Vsync   5 Vback   36 Vpol P
    DTD 2:  1440x1080   71.000000 Hz   4:3     78.100 kHz    124.960000 MHz (360 mm x 270 mm)
                 Hfront   48 Hsync  32 Hback   80 Hpol P
                 Vfront    3 Vsync   4 Vback   13 Vpol P
    DTD 3:  1600x900    82.002457 Hz  16:9     75.852 kHz    133.500000 MHz (400 mm x 225 mm)
                 Hfront   48 Hsync  32 Hback   80 Hpol P
                 Vfront    3 Vsync   5 Vback   17 Vpol P
    DTD 4:  1920x1080   71.000000 Hz  16:9     78.100 kHz    156.200000 MHz (480 mm x 270 mm)
                 Hfront   24 Hsync  32 Hback   24 Hpol P
                 Vfront    3 Vsync   5 Vback   12 Vpol P
Checksum: 0xe1

----------------

Block 1, Unknown EDID Extension Block 0x00:
  00 ff ff ff ff ff ff 00 41 0c 18 c2 73 04 00 00 '........A...s...'
  34 1d 01 03 80 30 1b 78 2a 28 c5 a8 55 51 9b 25 '4....0.x*(..UQ.%'
  11 50 54 2f cf 00 d1 c0 b3 00 95 00 81 80 81 40 '.PT/...........@'
  81 c0 01 01 01 01 02 3a 80 18 71 38 2d 40 58 2c '.......:..q8-@X,'
  45 00 e0 0e 11 00 00 1e d0 30 a0 a0 50 38 14 40 'E........0..P8.@'
  30 20 34 00 68 0e 11 00 00 1e 26 34 40 a0 60 84 '0 4.h.....&4@.`.'
  19 30 30 20 35 00 90 e1 10 00 00 1e 04 3d 80 50 '.00 5........=.P'
  70 38 14 40 18 20 35 00 e0 0e 11 00 00 1e 00 e1 'p8.@. 5.........'
Checksum: 0xe1

----------------

Failures:

Block 0, Base EDID:
  Detailed Timing Descriptor #3: Mismatch of image size 400x225 mm vs display size 480x270 mm.
  Missing Display Product Name.
  Missing Display Range Limits Descriptor.
Block 1, Base EDID:
  Unknown Extension Block.
EDID:
  Base EDID: EDID specified 0 extension block(s), but found 1 extension block(s).

EDID conformity: FAIL
