
EDID (hex):
00ffffffffffff004d04bd0201000000
ff190104e20000783fde57a3544c9926
0f4f51ffff8081009500010101010101
010101010101023a801871382d40582c
45006e3e0000001e000000fd0a00ff00
ff0f041190f0f858f03c000000fc0053
4844203730314c6974650a20000000ff
003030303030300a20202020202001e2
02037cf1230f5707837f00006c030c00
1000781e000000000067d85dc4011e00
00e3050300e2006a5f902021221f1405
27282e043c3d3e13292f414243444546
4748494a4b4c4f505f5152535455261e
12111d25352b2a341a1519162d2c3736
2423313038393233533a3b0b0a0f0e03
02070601181c1b17090d080c00000067

Extracted contents:
header:          00 ff ff ff ff ff ff 00
serial number:   4d 04 bd 02 01 00 00 00 ff 19
version:         01 04
basic params:    e2 00 00 78 3f
chroma info:     de 57 a3 54 4c 99 26 0f 4f 51
established:     ff ff 80
standard:        81 00 95 00 01 01 01 01 01 01 01 01 01 01 01 01
descriptor 1:    02 3a 80 18 71 38 2d 40 58 2c 45 00 6e 3e 00 00 00 1e
descriptor 2:    00 00 00 fd 0a 00 ff 00 ff 0f 04 11 90 f0 f8 58 f0 3c
descriptor 3:    00 00 00 fc 00 53 48 44 20 37 30 31 4c 69 74 65 0a 20
descriptor 4:    00 00 00 ff 00 30 30 30 30 30 30 0a 20 20 20 20 20 20
extensions:      01
checksum:        e2

EDID version: 1.4
Manufacturer: SHD Model 2bd Serial Number --
Model year 2015
Digital display
16 bits per primary color channel
HDMI-a interface
Image size is variable
Gamma: 2.20
DPMS levels: Off
Supported color formats: RGB 4:4:4, YCrCb 4:4:4, YCrCb 4:2:2
Default (sRGB) color space is primary color space
First detailed timing includes the native pixel format and preferred refresh rate
Display is continuous frequency
Display x,y Chromaticity:
  Red:   0.6396, 0.3291
  Green: 0.2998, 0.5996
  Blue:  0.1494, 0.0595
  White: 0.3095, 0.3193
Established timings supported:
  720x400@70Hz 9:5 HorFreq: 31469 Hz Clock: 28.320 MHz
  720x400@88Hz 9:5 HorFreq: 39500 Hz Clock: 35.500 MHz
  640x480@60Hz 4:3 HorFreq: 31469 Hz Clock: 25.175 MHz
  640x480@67Hz 4:3 HorFreq: 35000 Hz Clock: 30.240 MHz
  640x480@72Hz 4:3 HorFreq: 37900 Hz Clock: 31.500 MHz
  640x480@75Hz 4:3 HorFreq: 37500 Hz Clock: 31.500 MHz
  800x600@56Hz 4:3 HorFreq: 35200 Hz Clock: 36.000 MHz
  800x600@60Hz 4:3 HorFreq: 37900 Hz Clock: 40.000 MHz
  800x600@72Hz 4:3 HorFreq: 48100 Hz Clock: 50.000 MHz
  800x600@75Hz 4:3 HorFreq: 46900 Hz Clock: 49.500 MHz
  832x624@75Hz 4:3 HorFreq: 49726 Hz Clock: 57.284 MHz
  1280x768i@87Hz 5:3 HorFreq: 35522 Hz Clock: 44.900 MHz
  1024x768@60Hz 4:3 HorFreq: 48400 Hz Clock: 65.000 MHz
  1024x768@70Hz 4:3 HorFreq: 56500 Hz Clock: 75.000 MHz
  1024x768@75Hz 4:3 HorFreq: 60000 Hz Clock: 78.750 MHz
  1280x1024@75Hz 5:4 HorFreq: 80000 Hz Clock: 135.000 MHz
  1152x870@75Hz 192:145 HorFreq: 67500 Hz Clock: 108.000 MHz
Standard timings supported:
  1280x800@60Hz 16:10
  1440x900@60Hz 16:10 HorFreq: 55500 Hz Clock: 88.750 MHz
Detailed mode: Clock 148.500 MHz, 110 mm x 62 mm
               1920 2008 2052 2200 hborder 0
               1080 1084 1089 1125 vborder 0
               +hsync +vsync 
               VertFreq: 60 Hz, HorFreq: 67500 Hz
Monitor ranges (CVT): 0-510Hz V, 0-255kHz H, max dotclock 150MHz
CVT version 1.1
Real max dotclock: 141.00MHz
Max active pixels per line: 1920
Supported aspect ratios: 4:3 16:9 16:10 5:4 15:9
Preferred aspect ratio: 16:10
Supports CVT standard blanking
Supports CVT reduced blanking
Supported display scaling:
    Horizontal shrink
    Horizontal stretch
    Vertical shrink
    Vertical stretch
Preferred vertical refresh: 60 Hz
Monitor name: SHD 701Lite
Serial number: --
Has 1 extension blocks
Checksum: 0xe2 (valid)

CTA extension block
Extension version: 3
120 bytes of CTA data
  Audio data block
    Linear PCM, max channels 8
      Supported sample rates (kHz): 192 96 48 44.1 32
      Supported sample sizes (bits): 24 20 16
  Speaker allocation data block
    Speaker map:
      FL/FR - Front Left/Right
      LFE - Low Frequency Effects
      FC - Front Center
      BL/BR - Back Left/Right
      BC - Back Center
      FLC/FRC - Front Left/Right of Center
      RLC/RRC - Rear Left/Right of Center
  Vendor-specific data block, OUI 000c03 (HDMI)
    Source physical address 1.0.0.0
    DC_48bit
    DC_36bit
    DC_30bit
    DC_Y444
    Maximum TMDS clock: 150MHz
  Vendor-specific data block, OUI c45dd8 (HDMI Forum)
    Version: 1
    Maximum TMDS Character Rate: 150MHz
  Extended tag: Colorimetry data block
    xvYCC601
    xvYCC709
  Extended tag: Video capability data block
    YCbCr quantization: No Data (0)
    RGB quantization: Selectable (via AVI Q) (1)
    PT scan behaviour: Always Underscanned (2)
    IT scan behaviour: Always Underscanned (2)
    CE scan behaviour: Always Underscanned (2)
  Video data block
    VIC  16 1920x1080@60Hz 16:9 (native) HorFreq: 67500 Hz Clock: 148.500 MHz
    VIC  32 1920x1080@24Hz 16:9  HorFreq: 27000 Hz Clock: 74.250 MHz
    VIC  33 1920x1080@25Hz 16:9  HorFreq: 28125 Hz Clock: 74.250 MHz
    VIC  34 1920x1080@30Hz 16:9  HorFreq: 33750 Hz Clock: 74.250 MHz
    VIC  31 1920x1080@50Hz 16:9  HorFreq: 56250 Hz Clock: 148.500 MHz
    VIC  20 1920x1080i@50Hz 16:9  HorFreq: 28125 Hz Clock: 74.250 MHz
    VIC   5 1920x1080i@60Hz 16:9  HorFreq: 33750 Hz Clock: 74.250 MHz
    VIC  39 1920x1080i@50Hz 16:9  HorFreq: 31250 Hz Clock: 72.000 MHz
    VIC  40 1920x1080i@100Hz 16:9  HorFreq: 56250 Hz Clock: 148.500 MHz
    VIC  46 1920x1080i@120Hz 16:9  HorFreq: 67500 Hz Clock: 148.500 MHz
    VIC   4 1280x720@60Hz 16:9  HorFreq: 45000 Hz Clock: 74.250 MHz
    VIC  60 1280x720@24Hz 16:9  HorFreq: 18000 Hz Clock: 59.400 MHz
    VIC  61 1280x720@25Hz 16:9  HorFreq: 18750 Hz Clock: 74.250 MHz
    VIC  62 1280x720@30Hz 16:9  HorFreq: 22500 Hz Clock: 74.250 MHz
    VIC  19 1280x720@50Hz 16:9  HorFreq: 37500 Hz Clock: 74.250 MHz
    VIC  41 1280x720@100Hz 16:9  HorFreq: 75000 Hz Clock: 148.500 MHz
    VIC  47 1280x720@120Hz 16:9  HorFreq: 90000 Hz Clock: 148.500 MHz
    VIC  65 1280x720@24Hz 64:27  HorFreq: 18000 Hz Clock: 59.400 MHz
    VIC  66 1280x720@25Hz 64:27  HorFreq: 18750 Hz Clock: 74.250 MHz
    VIC  67 1280x720@30Hz 64:27  HorFreq: 22500 Hz Clock: 74.250 MHz
    VIC  68 1280x720@50Hz 64:27  HorFreq: 37500 Hz Clock: 74.250 MHz
    VIC  69 1280x720@60Hz 64:27  HorFreq: 45000 Hz Clock: 74.250 MHz
    VIC  70 1280x720@100Hz 64:27  HorFreq: 75000 Hz Clock: 148.500 MHz
    VIC  71 1280x720@120Hz 64:27  HorFreq: 91000 Hz Clock: 148.500 MHz
    VIC  72 1920x1080@24Hz 64:27  HorFreq: 27000 Hz Clock: 74.250 MHz
    VIC  73 1920x1080@25Hz 64:27  HorFreq: 28125 Hz Clock: 74.250 MHz
    VIC  74 1920x1080@30Hz 64:27  HorFreq: 33750 Hz Clock: 74.250 MHz
    VIC  75 1920x1080@50Hz 64:27  HorFreq: 56250 Hz Clock: 148.500 MHz
    VIC  76 1920x1080@60Hz 64:27  HorFreq: 67500 Hz Clock: 148.500 MHz
    VIC  79 1680x720@24Hz 64:27  HorFreq: 18000 Hz Clock: 59.400 MHz
    VIC  80 1680x720@25Hz 64:27  HorFreq: 18750 Hz Clock: 59.400 MHz
  Video data block
    VIC  81 1680x720@30Hz 64:27  HorFreq: 22500 Hz Clock: 59.400 MHz
    VIC  82 1680x720@50Hz 64:27  HorFreq: 37500 Hz Clock: 82.500 MHz
    VIC  83 1680x720@60Hz 64:27  HorFreq: 45000 Hz Clock: 99.000 MHz
    VIC  84 1680x720@100Hz 64:27  HorFreq: 82500 Hz Clock: 165.000 MHz
    VIC  85 1680x720@120Hz 64:27  HorFreq: 99000 Hz Clock: 198.000 MHz
    VIC  38 2880x576@50Hz 16:9  HorFreq: 31250 Hz Clock: 108.000 MHz
    VIC  30 1440x576@50Hz 16:9  HorFreq: 31250 Hz Clock: 54.000 MHz
    VIC  18 720x576@50Hz 16:9  HorFreq: 31250 Hz Clock: 27.000 MHz
    VIC  17 720x576@50Hz 4:3  HorFreq: 31250 Hz Clock: 27.000 MHz
    VIC  29 1440x576@50Hz 4:3  HorFreq: 31250 Hz Clock: 54.000 MHz
    VIC  37 2880x576@50Hz 4:3  HorFreq: 31250 Hz Clock: 108.000 MHz
    VIC  53 720x576@200Hz 16:9  HorFreq: 125000 Hz Clock: 108.000 MHz
    VIC  43 720x576@100Hz 16:9  HorFreq: 62500 Hz Clock: 54.000 MHz
    VIC  42 720x576@100Hz 4:3  HorFreq: 62500 Hz Clock: 54.000 MHz
    VIC  52 720x576@200Hz 4:3  HorFreq: 125000 Hz Clock: 108.000 MHz
    VIC  26 2880x576i@50Hz 16:9  HorFreq: 15625 Hz Clock: 54.000 MHz
    VIC  21 1440x576i@50Hz 4:3  HorFreq: 15625 Hz Clock: 27.000 MHz
    VIC  25 2880x576i@50Hz 4:3  HorFreq: 15625 Hz Clock: 54.000 MHz
    VIC  22 1440x576i@50Hz 16:9  HorFreq: 15625 Hz Clock: 27.000 MHz
    VIC  45 1440x576@100Hz 16:9  HorFreq: 31250 Hz Clock: 54.000 MHz
    VIC  44 1440x576@100Hz 4:3  HorFreq: 31250 Hz Clock: 54.000 MHz
    VIC  55 1440x576i@200Hz 16:9  HorFreq: 62500 Hz Clock: 108.000 MHz
    VIC  54 1440x576i@200Hz 4:3  HorFreq: 62500 Hz Clock: 108.000 MHz
    VIC  36 2880x480@60Hz 16:9  HorFreq: 31469 Hz Clock: 108.000 MHz
    VIC  35 2880x480@60Hz 4:3  HorFreq: 31469 Hz Clock: 108.000 MHz
    VIC  49 720x480@120Hz 16:9  HorFreq: 62937 Hz Clock: 54.000 MHz
    VIC  48 720x480@120Hz 4:3  HorFreq: 62937 Hz Clock: 54.000 MHz
    VIC  56 720x480@240Hz 4:3  HorFreq: 125874 Hz Clock: 108.000 MHz
    VIC  57 720x480@240Hz 16:9  HorFreq: 125874 Hz Clock: 108.000 MHz
    VIC  50 1440x480i@120Hz 4:3  HorFreq: 31469 Hz Clock: 54.000 MHz
    VIC  51 1440x480i@120Hz 16:9  HorFreq: 31469 Hz Clock: 54.000 MHz
  Video data block
    VIC  58 1440x480i@240Hz 4:3  HorFreq: 62937 Hz Clock: 108.000 MHz
    VIC  59 1440x480i@240Hz 16:9  HorFreq: 62937 Hz Clock: 108.000 MHz
    VIC  11 2880x480i@60Hz 16:9  HorFreq: 15734 Hz Clock: 54.000 MHz
    VIC  10 2880x480i@60Hz 4:3  HorFreq: 15734 Hz Clock: 54.000 MHz
    VIC  15 1440x480@60Hz 16:9  HorFreq: 31469 Hz Clock: 54.000 MHz
    VIC  14 1440x480@60Hz 4:3  HorFreq: 31469 Hz Clock: 54.000 MHz
    VIC   3 720x480@60Hz 16:9  HorFreq: 31469 Hz Clock: 27.000 MHz
    VIC   2 720x480@60Hz 4:3  HorFreq: 31469 Hz Clock: 27.000 MHz
    VIC   7 1440x480i@60Hz 16:9  HorFreq: 15734 Hz Clock: 27.000 MHz
    VIC   6 1440x480i@60Hz 4:3  HorFreq: 15734 Hz Clock: 27.000 MHz
    VIC   1 640x480@60Hz 4:3  HorFreq: 31469 Hz Clock: 25.175 MHz
    VIC  24 1440x288@50Hz 16:9  HorFreq: 15625 Hz Clock: 27.000 MHz
    VIC  28 2880x288@50Hz 16:9  HorFreq: 15625 Hz Clock: 54.000 MHz
    VIC  27 2880x288@50Hz 4:3  HorFreq: 15625 Hz Clock: 54.000 MHz
    VIC  23 1440x288@50Hz 4:3  HorFreq: 15625 Hz Clock: 27.000 MHz
    VIC   9 1440x240@60Hz 16:9  HorFreq: 15734 Hz Clock: 27.000 MHz
    VIC  13 2880x240@60Hz 16:9  HorFreq: 15734 Hz Clock: 54.000 MHz
    VIC   8 1440x240@60Hz 4:3  HorFreq: 15734 Hz Clock: 27.000 MHz
    VIC  12 2880x240@60Hz 4:3  HorFreq: 15734 Hz Clock: 54.000 MHz
Underscans PC formats by default
Basic audio support
Supports YCbCr 4:4:4
Supports YCbCr 4:2:2
1 native detailed modes
Checksum: 0x67 (valid)

EDID block does NOT conform to EDID 1.4!
	sRGB is signaled, but the chromaticities do not match
	HDMI Forum VSDB Max TMDS rate is > 0 and <= 340 or > 600
Warning: One or more of the timings is out of range of the Monitor Ranges:
  Vertical Freq: 24 - 240 Hz
  Horizontal Freq: 15625 - 125874 Hz
  Maximum Clock: 198.000 MHz
EDID block does not conform at all!
	Both the serial number and the serial string are set
