edid-decode (hex):

00 ff ff ff ff ff ff 00 06 af d4 53 00 00 00 00
00 14 01 04 90 16 0e 78 02 cb 55 94 57 53 8e 27
23 50 54 00 00 00 01 01 01 01 01 01 01 01 01 01
01 01 01 01 01 01 d0 1b 00 b8 50 20 08 30 08 0a
31 00 d8 87 00 00 00 18 00 00 00 0f 00 00 00 00
00 00 00 00 00 00 00 00 00 20 00 00 00 fe 00 41
55 4f 0a 20 20 20 20 20 20 20 20 20 00 00 00 fe
00 42 31 30 31 45 57 30 35 20 56 33 20 0a 00 12

----------------

Block 0, Base EDID:
  EDID Structure Version & Revision: 1.4
  Vendor & Product Identification:
    Manufacturer: AUO
    Model: 21460
    Made in: 2010
  Basic Display Parameters & Features:
    Digital display
    Bits per primary color channel: 6
    Digital interface is not defined
    Maximum image size: 22 cm x 14 cm
    Gamma: 2.20
    Supported color formats: RGB 4:4:4
    First detailed timing includes the native pixel format and preferred refresh rate
  Color Characteristics:
    Red  : 0.5810, 0.3398
    Green: 0.3261, 0.5576
    Blue : 0.1533, 0.1376
    White: 0.3134, 0.3291
  Established Timings I & II: none
  Standard Timings: none
  Detailed Timing Descriptors:
    DTD 1:  1280x800    60.190 Hz   8:5    48.634 kHz  71.200 MHz (216 mm x 135 mm)
                 Hfront    8 Hsync  10 Hback 166 Hpol N
                 Vfront    3 Vsync   1 Vback   4 Vpol N
    Manufacturer-Specified Display Descriptor (0x0f): 00 0f 00 00 00 00 00 00 00 00 00 00 00 00 00 20 '............... '
    Alphanumeric Data String: 'AUO'
    Alphanumeric Data String: 'B101EW05 V3 '
Checksum: 0x12
