
EDID (hex):
00ffffffffffff0006afd45300000000
0014010490160e7802cb559457538e27
23505400000001010101010101010101
010101010101d01b00b850200830080a
3100d887000000180000000f00000000
00000000000000000020000000fe0041
554f0a202020202020202020000000fe
004231303145573035205633200a0012

Extracted contents:
header:          00 ff ff ff ff ff ff 00
serial number:   06 af d4 53 00 00 00 00 00 14
version:         01 04
basic params:    90 16 0e 78 02
chroma info:     cb 55 94 57 53 8e 27 23 50 54
established:     00 00 00
standard:        01 01 01 01 01 01 01 01 01 01 01 01 01 01 01 01
descriptor 1:    d0 1b 00 b8 50 20 08 30 08 0a 31 00 d8 87 00 00 00 18
descriptor 2:    00 00 00 0f 00 00 00 00 00 00 00 00 00 00 00 00 00 20
descriptor 3:    00 00 00 fe 00 41 55 4f 0a 20 20 20 20 20 20 20 20 20
descriptor 4:    00 00 00 fe 00 42 31 30 31 45 57 30 35 20 56 33 20 0a
extensions:      00
checksum:        12

EDID version: 1.4
Manufacturer: AUO Model 53d4 Serial Number --
Made in year 2010
Digital display
6 bits per primary color channel
Digital interface is not defined
Maximum image size: 22 cm x 14 cm
Gamma: 2.20
Supported color formats: RGB 4:4:4
First detailed timing includes the native pixel format and preferred refresh rate
Display x,y Chromaticity:
  Red:   0.5810, 0.3398
  Green: 0.3261, 0.5576
  Blue:  0.1533, 0.1376
  White: 0.3134, 0.3291
Established timings supported:
Standard timings supported:
Detailed mode: Clock 71.200 MHz, 216 mm x 135 mm
               1280 1288 1298 1464 hborder 0
                800  803  804  808 vborder 0
               -hsync -vsync 
               VertFreq: 60 Hz, HorFreq: 48633 Hz
Manufacturer-specified data, tag 15
ASCII string: AUO
ASCII string: B101EW05 V3 
Checksum: 0x12 (valid)
EDID block does NOT conform to EDID 1.4!
	Missing name descriptor
	Missing monitor ranges
