edid-decode (hex):

00 ff ff ff ff ff ff 00 36 67 01 00 f8 04 33 01
1a 19 01 03 08 2f 1e 78 8f 00 13 a0 57 49 9b 26
10 48 4e af ce 00 81 00 81 c0 81 80 01 01 95 00
71 4f 81 40 01 01 02 3a 80 18 71 38 2d 40 58 2c
45 00 a2 08 32 00 00 06 9a 29 a0 d0 51 84 22 30
50 98 36 00 e8 19 00 00 00 1c 00 00 00 fc 00 4c
45 44 0a 0a 0a 0a 0a 0a 0a 0a 0a 0a 00 00 00 fc
00 42 0a 0a 0a 0a 0a 0a 0a 0a 0a 0a 0a 0a 00 7c

00 ff ff ff ff ff ff 00 36 67 01 00 f8 04 33 01
1a 19 01 03 08 2f 1e 78 8f 00 13 a0 57 49 9b 26
10 48 4e af ce 00 81 00 81 c0 81 80 01 01 95 00
71 4f 81 40 01 01 02 3a 80 18 71 38 2d 40 58 2c
45 00 a2 08 32 00 00 06 9a 29 a0 d0 51 84 22 30
50 98 36 00 e8 19 00 00 00 1c 00 00 00 fc 00 4c
45 44 0a 0a 0a 0a 0a 0a 0a 0a 0a 0a 00 00 00 fc
00 42 0a 0a 0a 0a 0a 0a 0a 0a 0a 0a 0a 0a 00 7c

----------------

Block 0, Base EDID:
  EDID Structure Version & Revision: 1.3
  Vendor & Product Identification:
    Manufacturer: MSG
    Model: 1
    Serial Number: ...
    Made in: week 26 of 2015
  Basic Display Parameters & Features:
    Analog display
    Signal Level Standard: 0.700 : 0.300 : 1.000 V p-p
    Blank level equals black level
    Sync: Separate
    Maximum image size: 47 cm x 30 cm
    Gamma: 2.20
    DPMS levels: Standby
    RGB color display
    Default (sRGB) color space is primary color space
    First detailed timing is the preferred timing
    Supports GTF timings within operating range
  Color Characteristics:
    Red  : 0.6250, 0.3398
    Green: 0.2851, 0.6054
    Blue : 0.1484, 0.0634
    White: 0.2812, 0.3076
  Established Timings I & II:
    IBM     :   720x400    70.081663 Hz   9:5     31.467 kHz     28.320000 MHz
    DMT 0x04:   640x480    59.940476 Hz   4:3     31.469 kHz     25.175000 MHz
    DMT 0x05:   640x480    72.808802 Hz   4:3     37.861 kHz     31.500000 MHz
    DMT 0x06:   640x480    75.000000 Hz   4:3     37.500 kHz     31.500000 MHz
    DMT 0x08:   800x600    56.250000 Hz   4:3     35.156 kHz     36.000000 MHz
    DMT 0x09:   800x600    60.316541 Hz   4:3     37.879 kHz     40.000000 MHz
    DMT 0x0a:   800x600    72.187572 Hz   4:3     48.077 kHz     50.000000 MHz
    DMT 0x0b:   800x600    75.000000 Hz   4:3     46.875 kHz     49.500000 MHz
    DMT 0x10:  1024x768    60.003840 Hz   4:3     48.363 kHz     65.000000 MHz
    DMT 0x11:  1024x768    70.069359 Hz   4:3     56.476 kHz     75.000000 MHz
    DMT 0x12:  1024x768    75.028582 Hz   4:3     60.023 kHz     78.750000 MHz
  Standard Timings:
    DMT 0x1c:  1280x800    59.810326 Hz  16:10    49.702 kHz     83.500000 MHz
    DMT 0x55:  1280x720    60.000000 Hz  16:9     45.000 kHz     74.250000 MHz
    DMT 0x23:  1280x1024   60.019740 Hz   5:4     63.981 kHz    108.000000 MHz
    DMT 0x2f:  1440x900    59.887445 Hz  16:10    55.935 kHz    106.500000 MHz
    DMT 0x15:  1152x864    75.000000 Hz   4:3     67.500 kHz    108.000000 MHz
    DMT 0x20:  1280x960    60.000000 Hz   4:3     60.000 kHz    108.000000 MHz
  Detailed Timing Descriptors:
    DTD 1:  1920x1080   60.000000 Hz  16:9     67.500 kHz    148.500000 MHz (analog composite, serrate, 930 mm x 520 mm)
                 Hfront   88 Hsync  44 Hback  148 Hpol N
                 Vfront    4 Vsync   5 Vback   36 Vpol N
    DTD 2:  1440x900    59.887445 Hz  16:10    55.935 kHz    106.500000 MHz (232 mm x 25 mm)
                 Hfront   80 Hsync 152 Hback  232 Hpol N
                 Vfront    3 Vsync   6 Vback   25 Vpol P
    Display Product Name: 'LED'
    Display Product Name: 'B'
Checksum: 0x7c

----------------

Block 1, Unknown EDID Extension Block 0x00:
  00 ff ff ff ff ff ff 00 36 67 01 00 f8 04 33 01 '........6g....3.'
  1a 19 01 03 08 2f 1e 78 8f 00 13 a0 57 49 9b 26 '...../.x....WI.&'
  10 48 4e af ce 00 81 00 81 c0 81 80 01 01 95 00 '.HN.............'
  71 4f 81 40 01 01 02 3a 80 18 71 38 2d 40 58 2c 'qO.@...:..q8-@X,'
  45 00 a2 08 32 00 00 06 9a 29 a0 d0 51 84 22 30 'E...2....)..Q."0'
  50 98 36 00 e8 19 00 00 00 1c 00 00 00 fc 00 4c 'P.6............L'
  45 44 0a 0a 0a 0a 0a 0a 0a 0a 0a 0a 00 00 00 fc 'ED..............'
  00 42 0a 0a 0a 0a 0a 0a 0a 0a 0a 0a 0a 0a 00 7c '.B.............|'
Checksum: 0x7c

----------------

Warnings:

Block 0, Base EDID:
  Detailed Timing Descriptor #1: DTD is similar but not identical to VIC 16.

Failures:

Block 0, Base EDID:
  Basic Display Parameters & Features: sRGB is signaled, but the chromaticities do not match.
  Detailed Timing Descriptor #1: Mismatch of image size 930x520 mm vs display size 470x300 mm.
  Detailed Timing Descriptor #2: Mismatch of image size 232x25 mm vs display size 470x300 mm.
  Display Product Name: Non-space after newline.
  Display Product Name: Non-space after newline.
  Missing Display Range Limits Descriptor.
Block 1, Base EDID:
  Unknown Extension Block.
EDID:
  Base EDID: The DTD max image size is 930x520mm, which is larger than the display size 470.0x300.0mm.
  Base EDID: EDID specified 0 extension block(s), but found 1 extension block(s).

EDID conformity: FAIL
