
EDID (hex):
00ffffffffffff0030e4018a00000000
00120103802213780ae8959b56489626
1a505400000001010101010101010101
0101010101013e1c56a0500016303020
350058c2100000193e1c56a050001630
3020350058c210000019000000fe0050
31323148803135365748310a00000000
00ffffffffffffffff01010a2020001a

Extracted contents:
header:          00 ff ff ff ff ff ff 00
serial number:   30 e4 01 8a 00 00 00 00 00 12
version:         01 03
basic params:    80 22 13 78 0a
chroma info:     e8 95 9b 56 48 96 26 1a 50 54
established:     00 00 00
standard:        01 01 01 01 01 01 01 01 01 01 01 01 01 01 01 01
descriptor 1:    3e 1c 56 a0 50 00 16 30 30 20 35 00 58 c2 10 00 00 19
descriptor 2:    3e 1c 56 a0 50 00 16 30 30 20 35 00 58 c2 10 00 00 19
descriptor 3:    00 00 00 fe 00 50 31 32 31 48 80 31 35 36 57 48 31 0a
descriptor 4:    00 00 00 00 00 ff ff ff ff ff ff ff ff 01 01 0a 20 20
extensions:      00
checksum:        1a

EDID version: 1.3
Manufacturer: LGD Model 8a01 Serial Number --
Made in year 2008
Digital display
Maximum image size: 34 cm x 19 cm
Gamma: 2.20
RGB color display
First detailed timing is preferred timing
Display x,y Chromaticity:
  Red:   0.6083, 0.3378
  Green: 0.2832, 0.5859
  Blue:  0.1503, 0.1025
  White: 0.3134, 0.3291
Established timings supported:
Standard timings supported:
Detailed mode: Clock 72.300 MHz, 344 mm x 194 mm
               1366 1414 1446 1526 hborder 0
                768  771  776  790 vborder 0
               -hsync -vsync 
               VertFreq: 59 Hz, HorFreq: 47378 Hz
Detailed mode: Clock 72.300 MHz, 344 mm x 194 mm
               1366 1414 1446 1526 hborder 0
                768  771  776  790 vborder 0
               -hsync -vsync 
               VertFreq: 59 Hz, HorFreq: 47378 Hz
ASCII string: P121H
Manufacturer-specified data, tag 0
Checksum: 0x1a (valid)
EDID block does NOT conform to EDID 1.3!
	Missing name descriptor
	Missing monitor ranges
	Detailed block string not properly terminated
