
EDID (hex):
00ffffffffffff000daed31400000000
161a0104951f117802ee95a3544c9926
0f505400000001010101010101010101
010101010101b43b804a713834403020
350035ad1000001ab43b804a71383440
3020350035ad1000001a000000fe0034
38444757803134304843450a00000000
000041019e001000000a010a2020005a

Extracted contents:
header:          00 ff ff ff ff ff ff 00
serial number:   0d ae d3 14 00 00 00 00 16 1a
version:         01 04
basic params:    95 1f 11 78 02
chroma info:     ee 95 a3 54 4c 99 26 0f 50 54
established:     00 00 00
standard:        01 01 01 01 01 01 01 01 01 01 01 01 01 01 01 01
descriptor 1:    b4 3b 80 4a 71 38 34 40 30 20 35 00 35 ad 10 00 00 1a
descriptor 2:    b4 3b 80 4a 71 38 34 40 30 20 35 00 35 ad 10 00 00 1a
descriptor 3:    00 00 00 fe 00 34 38 44 47 57 80 31 34 30 48 43 45 0a
descriptor 4:    00 00 00 00 00 00 41 01 9e 00 10 00 00 0a 01 0a 20 20
extensions:      00
checksum:        5a

EDID version: 1.4
Manufacturer: CMN Model 14d3 Serial Number --
Made in week 22 of 2016
Digital display
6 bits per primary color channel
DisplayPort interface
Maximum image size: 31 cm x 17 cm
Gamma: 2.20
Supported color formats: RGB 4:4:4
First detailed timing includes the native pixel format and preferred refresh rate
Display x,y Chromaticity:
  Red:   0.6396, 0.3300
  Green: 0.2998, 0.5996
  Blue:  0.1503, 0.0595
  White: 0.3134, 0.3291
Established timings supported:
Standard timings supported:
Detailed mode: Clock 152.840 MHz, 309 mm x 173 mm
               1920 1968 2000 2250 hborder 0
               1080 1083 1088 1132 vborder 0
               +hsync -vsync 
               VertFreq: 60 Hz, HorFreq: 67928 Hz
Detailed mode: Clock 152.840 MHz, 309 mm x 173 mm
               1920 1968 2000 2250 hborder 0
               1080 1083 1088 1132 vborder 0
               +hsync -vsync 
               VertFreq: 60 Hz, HorFreq: 67928 Hz
ASCII string: 48DGW
Manufacturer-specified data, tag 0
Checksum: 0x5a (valid)
EDID block does NOT conform to EDID 1.4!
	Missing name descriptor
	Missing monitor ranges
	Detailed block string not properly terminated
