
EDID (hex):
00ffffffffffff0015c3922001010101
2716010380342178ea1ec5ae4f34b126
0e5054a10800a94081808140b3000101
010101010101283c80a070b023403020
360007442100001a000000ff00303335
35373039320a20202020000000fd003b
3d1a4e11000a202020202020000000fc
004347323433570a2020202020200021

edid-decode (hex):

00 ff ff ff ff ff ff 00 15 c3 92 20 01 01 01 01
27 16 01 03 80 34 21 78 ea 1e c5 ae 4f 34 b1 26
0e 50 54 a1 08 00 a9 40 81 80 81 40 b3 00 01 01
01 01 01 01 01 01 28 3c 80 a0 70 b0 23 40 30 20
36 00 07 44 21 00 00 1a 00 00 00 ff 00 30 33 35
35 37 30 39 32 0a 20 20 20 20 00 00 00 fd 00 3b
3d 1a 4e 11 00 0a 20 20 20 20 20 20 00 00 00 fc
00 43 47 32 34 33 57 0a 20 20 20 20 20 20 00 21

----------------

Block 0, Base EDID:
  EDID Structure Version & Revision: 1.3
  Vendor & Product Identification:
    Manufacturer: ENC
    Model: 8338
    Serial Number: 16843009
    Made in: week 39 of 2012
  Basic Display Parameters & Features:
    Digital display
    Maximum image size: 52 cm x 33 cm
    Gamma: 2.20
    DPMS levels: Standby Suspend Off
    RGB color display
    First detailed timing is the preferred timing
  Color Characteristics:
    Red  : 0.6796, 0.3095
    Green: 0.2060, 0.6933
    Blue : 0.1513, 0.0546
    White: 0.3134, 0.3291
  Established Timings I & II:
    IBM     :   720x400    70.081663 Hz   9:5     31.467 kHz     28.320000 MHz
    DMT 0x04:   640x480    59.940476 Hz   4:3     31.469 kHz     25.175000 MHz
    DMT 0x09:   800x600    60.316541 Hz   4:3     37.879 kHz     40.000000 MHz
    DMT 0x10:  1024x768    60.003840 Hz   4:3     48.363 kHz     65.000000 MHz
  Standard Timings:
    DMT 0x33:  1600x1200   60.000000 Hz   4:3     75.000 kHz    162.000000 MHz
    DMT 0x23:  1280x1024   60.019740 Hz   5:4     63.981 kHz    108.000000 MHz
    DMT 0x20:  1280x960    60.000000 Hz   4:3     60.000 kHz    108.000000 MHz
    DMT 0x3a:  1680x1050   59.954250 Hz  16:10    65.290 kHz    146.250000 MHz
  Detailed Timing Descriptors:
    DTD 1:  1920x1200   59.950171 Hz  16:10    74.038 kHz    154.000000 MHz (519 mm x 324 mm)
                 Hfront   48 Hsync  32 Hback   80 Hpol P
                 Vfront    3 Vsync   6 Vback   26 Vpol N
    Display Product Serial Number: '03557092'
    Display Range Limits:
      Monitor ranges (GTF): 59-61 Hz V, 26-78 kHz H, max dotclock 170 MHz
    Display Product Name: 'CG243W'
Checksum: 0x21
