
EDID (hex):
00ffffffffffff004ca3453100000000
00150103801b0f780a09e59757548a27
22505400000001010101010101010101
0101010101019e1b5678500018303020
25000c97100000190000000f00000000
00000000001eb4027400000000fe0053
414d53554e470a2020202020000000fe
00313235415430332d3830310a2000aa

Extracted contents:
header:          00 ff ff ff ff ff ff 00
serial number:   4c a3 45 31 00 00 00 00 00 15
version:         01 03
basic params:    80 1b 0f 78 0a
chroma info:     09 e5 97 57 54 8a 27 22 50 54
established:     00 00 00
standard:        01 01 01 01 01 01 01 01 01 01 01 01 01 01 01 01
descriptor 1:    9e 1b 56 78 50 00 18 30 30 20 25 00 0c 97 10 00 00 19
descriptor 2:    00 00 00 0f 00 00 00 00 00 00 00 00 00 1e b4 02 74 00
descriptor 3:    00 00 00 fe 00 53 41 4d 53 55 4e 47 0a 20 20 20 20 20
descriptor 4:    00 00 00 fe 00 31 32 35 41 54 30 33 2d 38 30 31 0a 20
extensions:      00
checksum:        aa

EDID version: 1.3
Manufacturer: SEC Model 3145 Serial Number --
Made in year 2011
Digital display
Maximum image size: 27 cm x 15 cm
Gamma: 2.20
RGB color display
First detailed timing is preferred timing
Display x,y Chromaticity:
  Red:   0.5898, 0.3398
  Green: 0.3300, 0.5400
  Blue:  0.1552, 0.1347
  White: 0.3134, 0.3291
Established timings supported:
Standard timings supported:
Detailed mode: Clock 70.700 MHz, 268 mm x 151 mm
               1366 1414 1446 1486 hborder 0
                768  770  775  792 vborder 0
               -hsync -vsync 
               VertFreq: 60 Hz, HorFreq: 47577 Hz
Manufacturer-specified data, tag 15
ASCII string: SAMSUNG
ASCII string: 125AT03-801
Checksum: 0xaa (valid)
EDID block does NOT conform to EDID 1.3!
	Missing name descriptor
	Missing monitor ranges
