
EDID (hex):
00ffffffffffff0009e5350a00000000
141f0104a51e137803a1d5985e599328
20505400000001010101010101010101
010101010101333f80dc70b03c403020
36002ebd1000001a000000fd00283c4c
4c10010a202020202020000000fe0042
4f452043510a202020202020000000fe
004e5631343057554d2d4e34330a00b5

Extracted contents:
header:          00 ff ff ff ff ff ff 00
serial number:   09 e5 35 0a 00 00 00 00 14 1f
version:         01 04
basic params:    a5 1e 13 78 03
chroma info:     a1 d5 98 5e 59 93 28 20 50 54
established:     00 00 00
standard:        01 01 01 01 01 01 01 01 01 01 01 01 01 01 01 01
descriptor 1:    33 3f 80 dc 70 b0 3c 40 30 20 36 00 2e bd 10 00 00 1a
descriptor 2:    00 00 00 fd 00 28 3c 4c 4c 10 01 0a 20 20 20 20 20 20
descriptor 3:    00 00 00 fe 00 42 4f 45 20 43 51 0a 20 20 20 20 20 20
descriptor 4:    00 00 00 fe 00 4e 56 31 34 30 57 55 4d 2d 4e 34 33 0a
extensions:      00
checksum:        b5

EDID version: 1.4
Manufacturer: BOE Model a35 Serial Number --
Made in week 20 of 2021
Digital display
8 bits per primary color channel
DisplayPort interface
Maximum image size: 30 cm x 19 cm
Gamma: 2.20
Supported color formats: RGB 4:4:4
First detailed timing includes the native pixel format and preferred refresh rate
Display is continuous frequency
Display x,y Chromaticity:
  Red:   0.5957, 0.3691
  Green: 0.3476, 0.5751
  Blue:  0.1591, 0.1259
  White: 0.3134, 0.3291
Established timings supported:
Standard timings supported:
Detailed mode: Clock 161.790 MHz, 302 mm x 189 mm
               1920 1968 2000 2140 hborder 0
               1200 1203 1209 1260 vborder 0
               +hsync -vsync 
               VertFreq: 60 Hz, HorFreq: 75602 Hz
Monitor ranges (bare limits): 40-60Hz V, 76-76kHz H, max dotclock 160MHz
ASCII string: BOE CQ
ASCII string: NV140WUM-N43
Checksum: 0xb5 (valid)
EDID block does NOT conform to EDID 1.4!
	Missing name descriptor
Warning: One or more of the timings is out of range of the Monitor Ranges:
  Vertical Freq: 60 - 60 Hz
  Horizontal Freq: 75602 - 75602 Hz
  Maximum Clock: 161.790 MHz
