
EDID (hex):
00ffffffffffff004a8b3a3b01010101
241d0103800000783eee91a3544c9926
0f5054210800d1c0d1e8d1fca9c081c0
0101010101010474801871382d40582c
450058c31000001a000000fc0052544b
20464844204844520a20000000ff0064
656d6f7365742d310a203020000000fd
003c901ea21e000a20202020202001a4
020337f05e04104d4e2f2f2f2f3f0000
00000000000000000000000000000000
00000023097f078301000068030c0011
00284400e200d5011d007251d01e206e
28550010090000001e023a801871382d
40582c450010090000001e023a007251
d01e206e28550010090000001e023a00
7251d01e206e285500100900000000b0

Extracted contents:
header:          00 ff ff ff ff ff ff 00
serial number:   4a 8b 3a 3b 01 01 01 01 24 1d
version:         01 03
basic params:    80 00 00 78 3e
chroma info:     ee 91 a3 54 4c 99 26 0f 50 54
established:     21 08 00
standard:        d1 c0 d1 e8 d1 fc a9 c0 81 c0 01 01 01 01 01 01
descriptor 1:    04 74 80 18 71 38 2d 40 58 2c 45 00 58 c3 10 00 00 1a
descriptor 2:    00 00 00 fc 00 52 54 4b 20 46 48 44 20 48 44 52 0a 20
descriptor 3:    00 00 00 ff 00 64 65 6d 6f 73 65 74 2d 31 0a 20 30 20
descriptor 4:    00 00 00 fd 00 3c 90 1e a2 1e 00 0a 20 20 20 20 20 20
extensions:      01
checksum:        a4

EDID version: 1.3
Manufacturer: RTK Model 3b3a Serial Number --
Made in week 36 of 2019
Digital display
Image size is variable
Gamma: 2.20
DPMS levels: Off
Undefined display color type
Default (sRGB) color space is primary color space
First detailed timing is preferred timing
Display x,y Chromaticity:
  Red:   0.6396, 0.3300
  Green: 0.2998, 0.5996
  Blue:  0.1503, 0.0595
  White: 0.3125, 0.3291
Established timings supported:
  640x480@60Hz 4:3 HorFreq: 31469 Hz Clock: 25.175 MHz
  800x600@60Hz 4:3 HorFreq: 37900 Hz Clock: 40.000 MHz
  1024x768@60Hz 4:3 HorFreq: 48400 Hz Clock: 65.000 MHz
Standard timings supported:
  1920x1080@60Hz 16:9
  1920x1080@100Hz 16:9
  1920x1080@120Hz 16:9
  1600x900@60Hz 16:9
  1280x720@60Hz 16:9
Detailed mode: Clock 297.000 MHz, 344 mm x 195 mm
               1920 2008 2052 2200 hborder 0
               1080 1084 1089 1125 vborder 0
               +hsync -vsync 
               VertFreq: 120 Hz, HorFreq: 135000 Hz
Monitor name: RTK FHD HDR
Serial number: --
Monitor ranges (GTF): 60-144Hz V, 30-162kHz H, max dotclock 300MHz
Has 1 extension blocks
Checksum: 0xa4 (valid)

CTA extension block
Extension version: 3
51 bytes of CTA data
  Video data block
    VIC   4 1280x720@60Hz 16:9  HorFreq: 45000 Hz Clock: 74.250 MHz
    VIC  16 1920x1080@60Hz 16:9  HorFreq: 67500 Hz Clock: 148.500 MHz
    VIC  77 1920x1080@100Hz 64:27  HorFreq: 112500 Hz Clock: 297.000 MHz
    VIC  78 1920x1080@120Hz 64:27  HorFreq: 135000 Hz Clock: 297.000 MHz
    VIC  47 1280x720@120Hz 16:9  HorFreq: 90000 Hz Clock: 148.500 MHz
    VIC  47 1280x720@120Hz 16:9  HorFreq: 90000 Hz Clock: 148.500 MHz
    VIC  47 1280x720@120Hz 16:9  HorFreq: 90000 Hz Clock: 148.500 MHz
    VIC  47 1280x720@120Hz 16:9  HorFreq: 90000 Hz Clock: 148.500 MHz
    VIC  63 1920x1080@120Hz 16:9  HorFreq: 135000 Hz Clock: 297.000 MHz
  Audio data block
    Linear PCM, max channels 2
      Supported sample rates (kHz): 192 176.4 96 88.2 48 44.1 32
      Supported sample sizes (bits): 24 20 16
  Speaker allocation data block
    Speaker map:
      FL/FR - Front Left/Right
  Vendor-specific data block, OUI 000c03 (HDMI)
    Source physical address 1.1.0.0
    DC_36bit
    DC_Y444
    Maximum TMDS clock: 340MHz
  Extended tag: Video capability data block
    YCbCr quantization: Selectable (via AVI YQ) (1)
    RGB quantization: Selectable (via AVI Q) (1)
    PT scan behaviour: Always Overscannned (1)
    IT scan behaviour: Always Overscannned (1)
    CE scan behaviour: Always Overscannned (1)
Underscans PC formats by default
Basic audio support
Supports YCbCr 4:4:4
Supports YCbCr 4:2:2
0 native detailed modes
Detailed mode: Clock 74.250 MHz, 16 mm x 9 mm
               1280 1390 1430 1650 hborder 0
                720  725  730  750 vborder 0
               +hsync +vsync 
               VertFreq: 60 Hz, HorFreq: 45000 Hz
Detailed mode: Clock 148.500 MHz, 16 mm x 9 mm
               1920 2008 2052 2200 hborder 0
               1080 1084 1089 1125 vborder 0
               +hsync +vsync 
               VertFreq: 60 Hz, HorFreq: 67500 Hz
Detailed mode: Clock 148.500 MHz, 16 mm x 9 mm
               1280 1390 1430 1650 hborder 0
                720  725  730  750 vborder 0
               +hsync +vsync 
               VertFreq: 120 Hz, HorFreq: 90000 Hz
Checksum: 0xb0 (valid)

EDID block does not conform at all!
	Both the serial number and the serial string are set
