
EDID (hex):
00ffffffffffff0006afd26100000000
0013010380160d780a15859758538a26
25505400000001010101010101010101
0101010101017413003a415814203020
2600de7d000000180000000f00000000
00000000000000000020000000fe0041
554f0a202020202020202020000000fe
004231303141573036205631200a0029

Extracted contents:
header:          00 ff ff ff ff ff ff 00
serial number:   06 af d2 61 00 00 00 00 00 13
version:         01 03
basic params:    80 16 0d 78 0a
chroma info:     15 85 97 58 53 8a 26 25 50 54
established:     00 00 00
standard:        01 01 01 01 01 01 01 01 01 01 01 01 01 01 01 01
descriptor 1:    74 13 00 3a 41 58 14 20 30 20 26 00 de 7d 00 00 00 18
descriptor 2:    00 00 00 0f 00 00 00 00 00 00 00 00 00 00 00 00 00 20
descriptor 3:    00 00 00 fe 00 41 55 4f 0a 20 20 20 20 20 20 20 20 20
descriptor 4:    00 00 00 fe 00 42 31 30 31 41 57 30 36 20 56 31 20 0a
extensions:      00
checksum:        29

EDID version: 1.3
Manufacturer: AUO Model 61d2 Serial Number --
Made in year 2009
Digital display
Maximum image size: 22 cm x 13 cm
Gamma: 2.20
RGB color display
First detailed timing is preferred timing
Display x,y Chromaticity:
  Red:   0.5898, 0.3447
  Green: 0.3251, 0.5400
  Blue:  0.1503, 0.1445
  White: 0.3134, 0.3291
Established timings supported:
Standard timings supported:
Detailed mode: Clock 49.800 MHz, 222 mm x 125 mm
               1024 1072 1104 1338 hborder 0
                600  602  608  620 vborder 0
               -hsync -vsync 
               VertFreq: 60 Hz, HorFreq: 37219 Hz
Manufacturer-specified data, tag 15
ASCII string: AUO
ASCII string: B101AW06 V1 
Checksum: 0x29 (valid)
EDID block does NOT conform to EDID 1.3!
	Missing name descriptor
	Missing monitor ranges
