
EDID (hex):
00ffffffffffff001ab3da07e6100000
20140103802b1a780ac905a3574b9c25
125054a54a0081c00101010101010101
010101010101662156aa51001e30468f
3300aeff1000001e000000fd00324b1c
5210000a202020202020000000fc004c
3139542d31204c45440a2020000000ff
00595633413030343332360a20200111
020319c1419023090707830100006703
0c000000001ee2000f00000000000000
00000000000000000000000000000000
00000000000000000000000000000000
00000000000000000000000000000000
00000000000000000000000000000000
00000000000000000000000000000000
0000000000000000000000000000000d

Extracted contents:
header:          00 ff ff ff ff ff ff 00
serial number:   1a b3 da 07 e6 10 00 00 20 14
version:         01 03
basic params:    80 2b 1a 78 0a
chroma info:     c9 05 a3 57 4b 9c 25 12 50 54
established:     a5 4a 00
standard:        81 c0 01 01 01 01 01 01 01 01 01 01 01 01 01 01
descriptor 1:    66 21 56 aa 51 00 1e 30 46 8f 33 00 ae ff 10 00 00 1e
descriptor 2:    00 00 00 fd 00 32 4b 1c 52 10 00 0a 20 20 20 20 20 20
descriptor 3:    00 00 00 fc 00 4c 31 39 54 2d 31 20 4c 45 44 0a 20 20
descriptor 4:    00 00 00 ff 00 59 56 33 41 30 30 34 33 32 36 0a 20 20
extensions:      01
checksum:        11

EDID version: 1.3
Manufacturer: FUS Model 7da Serial Number --
Made in week 32 of 2010
Digital display
Maximum image size: 43 cm x 26 cm
Gamma: 2.20
RGB color display
First detailed timing is preferred timing
Display x,y Chromaticity:
  Red:   0.6396, 0.3398
  Green: 0.2949, 0.6103
  Blue:  0.1445, 0.0703
  White: 0.3134, 0.3291
Established timings supported:
  720x400@70Hz 9:5 HorFreq: 31469 Hz Clock: 28.320 MHz
  640x480@60Hz 4:3 HorFreq: 31469 Hz Clock: 25.175 MHz
  640x480@75Hz 4:3 HorFreq: 37500 Hz Clock: 31.500 MHz
  800x600@60Hz 4:3 HorFreq: 37900 Hz Clock: 40.000 MHz
  800x600@75Hz 4:3 HorFreq: 46900 Hz Clock: 49.500 MHz
  1024x768@60Hz 4:3 HorFreq: 48400 Hz Clock: 65.000 MHz
  1024x768@75Hz 4:3 HorFreq: 60000 Hz Clock: 78.750 MHz
Standard timings supported:
  1280x720@60Hz 16:9
Detailed mode: Clock 85.500 MHz, 430 mm x 255 mm
               1366 1436 1579 1792 hborder 0
                768  771  774  798 vborder 0
               +hsync +vsync 
               VertFreq: 59 Hz, HorFreq: 47712 Hz
Monitor ranges (GTF): 50-75Hz V, 28-82kHz H, max dotclock 160MHz
Monitor name: L19T-1 LED
Serial number: --
Has 1 extension blocks
Checksum: 0x11 (valid)

CTA extension block
Extension version: 3
21 bytes of CTA data
  Video data block
    VIC  16 1920x1080@60Hz 16:9 (native) HorFreq: 67500 Hz Clock: 148.500 MHz
  Audio data block
    Linear PCM, max channels 2
      Supported sample rates (kHz): 48 44.1 32
      Supported sample sizes (bits): 24 20 16
  Speaker allocation data block
    Speaker map:
      FL/FR - Front Left/Right
  Vendor-specific data block, OUI 000c03 (HDMI)
    Source physical address 0.0.0.0
    Maximum TMDS clock: 150MHz
  Extended tag: Video capability data block
    YCbCr quantization: No Data (0)
    RGB quantization: No Data (0)
    PT scan behaviour: No Data (0)
    IT scan behaviour: Support both over- and underscan (3)
    CE scan behaviour: Support both over- and underscan (3)
Underscans PC formats by default
Basic audio support
1 native detailed modes
Checksum: 0xd (valid)

EDID block does not conform at all!
	Both the serial number and the serial string are set


