edid-decode (hex):

00 ff ff ff ff ff ff 00 38 70 5f 00 00 00 00 00
37 1f 01 04 a5 22 13 78 03 68 50 98 5c 58 8e 28
1b 50 54 00 00 00 01 01 01 01 01 01 01 01 01 01
01 01 01 01 01 01 0b 83 80 04 71 38 ca 40 30 20
35 00 58 c2 10 00 00 1a 00 00 00 fd 00 30 78 9a
9a 22 01 0a 20 20 20 20 20 20 00 00 00 fe 00 54
4b 30 44 48 80 4e 45 31 35 36 46 48 00 00 00 00
00 01 41 21 96 00 10 00 00 0a 01 0a 20 20 01 7d

70 13 79 00 00 03 01 14 81 41 00 04 7f 07 03 01
2f 00 1f 00 37 04 c9 00 02 00 04 00 00 00 00 00
00 00 00 00 00 00 00 00 00 00 00 00 00 00 00 00
00 00 00 00 00 00 00 00 00 00 00 00 00 00 00 00
00 00 00 00 00 00 00 00 00 00 00 00 00 00 00 00
00 00 00 00 00 00 00 00 00 00 00 00 00 00 00 00
00 00 00 00 00 00 00 00 00 00 00 00 00 00 00 00
00 00 00 00 00 00 00 00 00 00 00 00 00 00 b4 90

00 ff ff ff ff ff ff 00 38 70 5f 00 00 00 00 00
37 1f 01 04 a5 22 13 78 03 68 50 98 5c 58 8e 28
1b 50 54 00 00 00 01 01 01 01 01 01 01 01 01 01
01 01 01 01 01 01 0b 83 80 04 71 38 ca 40 30 20
35 00 58 c2 10 00 00 1a 00 00 00 fd 00 30 78 9a
9a 22 01 0a 20 20 20 20 20 20 00 00 00 fe 00 54
4b 30 44 48 80 4e 45 31 35 36 46 48 00 00 00 00
00 01 41 21 96 00 10 00 00 0a 01 0a 20 20 01 7d

70 13 79 00 00 03 01 14 81 41 00 04 7f 07 03 01
2f 00 1f 00 37 04 c9 00 02 00 04 00 00 00 00 00
00 00 00 00 00 00 00 00 00 00 00 00 00 00 00 00
00 00 00 00 00 00 00 00 00 00 00 00 00 00 00 00
00 00 00 00 00 00 00 00 00 00 00 00 00 00 00 00
00 00 00 00 00 00 00 00 00 00 00 00 00 00 00 00
00 00 00 00 00 00 00 00 00 00 00 00 00 00 00 00
00 00 00 00 00 00 00 00 00 00 00 00 00 00 b4 90

----------------

Block 0, Base EDID:
  EDID Structure Version & Revision: 1.4
  Vendor & Product Identification:
    Manufacturer: NCP
    Model: 95
    Made in: week 55 of 2021
  Basic Display Parameters & Features:
    Digital display
    Bits per primary color channel: 8
    DisplayPort interface
    Maximum image size: 34 cm x 19 cm
    Gamma: 2.20
    Supported color formats: RGB 4:4:4
    First detailed timing includes the native pixel format and preferred refresh rate
    Display is continuous frequency
  Color Characteristics:
    Red  : 0.5947, 0.3613
    Green: 0.3457, 0.5546
    Blue : 0.1572, 0.1064
    White: 0.3125, 0.3281
  Established Timings I & II: none
  Standard Timings: none
  Detailed Timing Descriptors:
    DTD 1:  1920x1080  120.035352 Hz  16:9    153.885 kHz    335.470000 MHz (344 mm x 194 mm)
                 Hfront   48 Hsync  32 Hback  180 Hpol P
                 Vfront    3 Vsync   5 Vback  194 Vpol N
    Display Range Limits:
      Monitor ranges (Bare Limits): 48-120 Hz V, 154-154 kHz H, max dotclock 340 MHz
    Alphanumeric Data String: 'TK0DH'
    Manufacturer-Specified Display Descriptor (0x00): 00 00 00 01 41 21 96 00 10 00 00 0a 01 0a 20 20 '....A!........  '
  Extension blocks: 1
Checksum: 0x7d

----------------

Block 1, DisplayID Extension Block:
  Version: 1.3
  Extension Count: 0
  Display Product Type: Extension Section
  Video Timing Modes Type 1 - Detailed Timings Data Block:
    DTD:  1920x1080   60.005152 Hz  16:9     76.927 kHz    167.700000 MHz (aspect 16:9, no 3D stereo)
               Hfront   48 Hsync  32 Hback  180 Hpol N
               Vfront    3 Vsync   5 Vback  194 Vpol N
  Checksum: 0xb4
Checksum: 0x90

----------------

Block 2, Unknown EDID Extension Block 0x00:
  00 ff ff ff ff ff ff 00 38 70 5f 00 00 00 00 00 '........8p_.....'
  37 1f 01 04 a5 22 13 78 03 68 50 98 5c 58 8e 28 '7....".x.hP.\X.('
  1b 50 54 00 00 00 01 01 01 01 01 01 01 01 01 01 '.PT.............'
  01 01 01 01 01 01 0b 83 80 04 71 38 ca 40 30 20 '..........q8.@0 '
  35 00 58 c2 10 00 00 1a 00 00 00 fd 00 30 78 9a '5.X..........0x.'
  9a 22 01 0a 20 20 20 20 20 20 00 00 00 fe 00 54 '."..      .....T'
  4b 30 44 48 80 4e 45 31 35 36 46 48 00 00 00 00 'K0DH.NE156FH....'
  00 01 41 21 96 00 10 00 00 0a 01 0a 20 20 01 7d '..A!........  .}'
Checksum: 0x7d

----------------

Block 3, DisplayID Extension Block:
  Version: 1.3
  Extension Count: 0
  Video Timing Modes Type 1 - Detailed Timings Data Block:
    DTD:  1920x1080   60.005152 Hz  16:9     76.927 kHz    167.700000 MHz (aspect 16:9, no 3D stereo)
               Hfront   48 Hsync  32 Hback  180 Hpol N
               Vfront    3 Vsync   5 Vback  194 Vpol N
  Checksum: 0xb4
Checksum: 0x90

----------------

Warnings:

Block 0, Base EDID:
  Missing Display Product Name.
EDID:
  Base EDID: Some timings are out of range of the Monitor Ranges:
    Horizontal Freq: 76.926 - 153.885 kHz (Monitor: 154.000 - 154.000 kHz)

Failures:

Block 0, Base EDID:
  Vendor & Product Identification: Invalid week 55 of manufacture.
  Alphanumeric Data String: Non-printable character.
Block 1, DisplayID Extension Block:
  DisplayID Base Block has no product type.
  Expected 0 DisplayID Extension Block, but got 1.
Block 2, Base EDID:
  Unknown Extension Block.
EDID:
  Base EDID: EDID specified 1 extension block(s), but found 3 extension block(s).
  DisplayID: Missing DisplayID Product Identification Data Block.
  DisplayID: DisplayID expects at least one preferred timing.

EDID conformity: FAIL
