
EDID (hex):
00ffffffffffff001585086300000000
1f1b0103685932780a1990a755469824
10494ba1090081809500a9c001010101
010101010101023a801871382d40582c
45004bba1000001e662156b051001b30
407036004bba1000001e000000fc0057
44333246424c313030310a20000000fd
0038460e5b0d000a20202020202000b1

Extracted contents:
header:          00 ff ff ff ff ff ff 00
serial number:   15 85 08 63 00 00 00 00 1f 1b
version:         01 03
basic params:    68 59 32 78 0a
chroma info:     19 90 a7 55 46 98 24 10 49 4b
established:     a1 09 00
standard:        81 80 95 00 a9 c0 01 01 01 01 01 01 01 01 01 01
descriptor 1:    02 3a 80 18 71 38 2d 40 58 2c 45 00 4b ba 10 00 00 1e
descriptor 2:    66 21 56 b0 51 00 1b 30 40 70 36 00 4b ba 10 00 00 1e
descriptor 3:    00 00 00 fc 00 57 44 33 32 46 42 4c 31 30 30 31 0a 20
descriptor 4:    00 00 00 fd 00 38 46 0e 5b 0d 00 0a 20 20 20 20 20 20
extensions:      00
checksum:        b1

EDID version: 1.3
Manufacturer: ELE Model 6308 Serial Number --
Made in week 31 of 2017
Analog display, Input voltage level: 0.7/0.7 V
Sync: Separate 
Maximum image size: 89 cm x 50 cm
Gamma: 2.20
RGB color display
First detailed timing is preferred timing
Display x,y Chromaticity:
  Red:   0.6523, 0.3330
  Green: 0.2753, 0.5947
  Blue:  0.1425, 0.0634
  White: 0.2851, 0.2929
Established timings supported:
  720x400@70Hz 9:5 HorFreq: 31469 Hz Clock: 28.320 MHz
  640x480@60Hz 4:3 HorFreq: 31469 Hz Clock: 25.175 MHz
  800x600@60Hz 4:3 HorFreq: 37900 Hz Clock: 40.000 MHz
  1024x768@60Hz 4:3 HorFreq: 48400 Hz Clock: 65.000 MHz
  1280x1024@75Hz 5:4 HorFreq: 80000 Hz Clock: 135.000 MHz
Standard timings supported:
  1280x1024@60Hz 5:4 HorFreq: 64000 Hz Clock: 108.000 MHz
  1440x900@60Hz 16:10 HorFreq: 55500 Hz Clock: 88.750 MHz
  1600x900@60Hz 16:9
Detailed mode: Clock 148.500 MHz, 331 mm x 186 mm
               1920 2008 2052 2200 hborder 0
               1080 1084 1089 1125 vborder 0
               +hsync +vsync 
               VertFreq: 60 Hz, HorFreq: 67500 Hz
Detailed mode: Clock 85.500 MHz, 331 mm x 186 mm
               1366 1430 1542 1798 hborder 0
                768  771  777  795 vborder 0
               +hsync +vsync 
               VertFreq: 59 Hz, HorFreq: 47552 Hz
Monitor name: WD32FBL1001
Monitor ranges (GTF): 56-70Hz V, 14-91kHz H, max dotclock 130MHz
Checksum: 0xb1 (valid)
One or more of the timings is out of range of the Monitor Ranges:
  Vertical Freq: 59 - 75 Hz
  Horizontal Freq: 31469 - 80000 Hz
  Maximum Clock: 148.500 MHz
