
EDID (hex):
00ffffffffffff0009e5f40500000000
01180104951c107802b0909758549226
1d505400000001010101010101010101
010101010101641b5677500013303020
4400159c1000001a841756c250002430
64644405159c1000001a000000fe0059
32484d39804842313232303100000000
00004101940010000009010a20200098

Extracted contents:
header:          00 ff ff ff ff ff ff 00
serial number:   09 e5 f4 05 00 00 00 00 01 18
version:         01 04
basic params:    95 1c 10 78 02
chroma info:     b0 90 97 58 54 92 26 1d 50 54
established:     00 00 00
standard:        01 01 01 01 01 01 01 01 01 01 01 01 01 01 01 01
descriptor 1:    64 1b 56 77 50 00 13 30 30 20 44 00 15 9c 10 00 00 1a
descriptor 2:    84 17 56 c2 50 00 24 30 64 64 44 05 15 9c 10 00 00 1a
descriptor 3:    00 00 00 fe 00 59 32 48 4d 39 80 48 42 31 32 32 30 31
descriptor 4:    00 00 00 00 00 00 41 01 94 00 10 00 00 09 01 0a 20 20
extensions:      00
checksum:        98

EDID version: 1.4
Manufacturer: BOE Model 5f4 Serial Number --
Made in week 1 of 2014
Digital display
6 bits per primary color channel
DisplayPort interface
Maximum image size: 28 cm x 16 cm
Gamma: 2.20
Supported color formats: RGB 4:4:4
First detailed timing includes the native pixel format and preferred refresh rate
Display x,y Chromaticity:
  Red:   0.5917, 0.3466
  Green: 0.3281, 0.5703
  Blue:  0.1503, 0.1142
  White: 0.3125, 0.3281
Established timings supported:
Standard timings supported:
Detailed mode: Clock 70.120 MHz, 277 mm x 156 mm
               1366 1414 1446 1485 hborder 0
                768  772  776  787 vborder 0
               +hsync -vsync 
               VertFreq: 59 Hz, HorFreq: 47218 Hz
Detailed mode: Clock 60.200 MHz, 277 mm x 156 mm
               1366 1466 1566 1560 hborder 0
                768  788  808  804 vborder 0
               +hsync -vsync 
               VertFreq: 47 Hz, HorFreq: 38589 Hz
ASCII string: Y2HM9
Manufacturer-specified data, tag 0
Checksum: 0x98 (valid)
EDID block does NOT conform to EDID 1.4!
	Missing name descriptor
	Missing monitor ranges
	Detailed block string not properly terminated
