
EDID (hex):
00ffffffffffff0006af995a00000000
001f0104a51e137803aeac9358599128
1d505400000001010101010101010101
0101010101018a3e80b870b044401010
3e002dbc10000018b12980b870b04440
10103e002dbc10000018000000000000
00000000000000000000000000000002
001048ff0f3c7d11201f7d202020003b

Extracted contents:
header:          00 ff ff ff ff ff ff 00
serial number:   06 af 99 5a 00 00 00 00 00 1f
version:         01 04
basic params:    a5 1e 13 78 03
chroma info:     ae ac 93 58 59 91 28 1d 50 54
established:     00 00 00
standard:        01 01 01 01 01 01 01 01 01 01 01 01 01 01 01 01
descriptor 1:    8a 3e 80 b8 70 b0 44 40 10 10 3e 00 2d bc 10 00 00 18
descriptor 2:    b1 29 80 b8 70 b0 44 40 10 10 3e 00 2d bc 10 00 00 18
descriptor 3:    00 00 00 00 00 00 00 00 00 00 00 00 00 00 00 00 00 00
descriptor 4:    00 00 00 02 00 10 48 ff 0f 3c 7d 11 20 1f 7d 20 20 20
extensions:      00
checksum:        3b

EDID version: 1.4
Manufacturer: AUO Model 5a99 Serial Number --
Made in year 2021
Digital display
8 bits per primary color channel
DisplayPort interface
Maximum image size: 30 cm x 19 cm
Gamma: 2.20
Supported color formats: RGB 4:4:4
First detailed timing includes the native pixel format and preferred refresh rate
Display is continuous frequency
Display x,y Chromaticity:
  Red:   0.5761, 0.3457
  Green: 0.3505, 0.5683
  Blue:  0.1582, 0.1152
  White: 0.3154, 0.3281
Established timings supported:
Standard timings supported:
Detailed mode: Clock 160.100 MHz, 301 mm x 188 mm
               1920 1936 1952 2104 hborder 0
               1200 1203 1217 1268 vborder 0
               -hsync -vsync 
               VertFreq: 60 Hz, HorFreq: 76093 Hz
Detailed mode: Clock 106.730 MHz, 301 mm x 188 mm
               1920 1936 1952 2104 hborder 0
               1200 1203 1217 1268 vborder 0
               -hsync -vsync 
               VertFreq: 40 Hz, HorFreq: 50727 Hz
Manufacturer-specified data, tag 0
Manufacturer-specified data, tag 2
Checksum: 0x3b (valid)
EDID block does NOT conform to EDID 1.4!
	Missing name descriptor
	Missing monitor ranges
