edid-decode (hex):

00 ff ff ff ff ff ff 00 0c 65 42 01 00 00 00 00
2a 10 01 03 7c 1d 15 99 e8 43 65 95 57 53 8e 26
20 50 54 bf ee 00 01 01 01 01 01 01 01 01 01 01
01 01 01 01 01 01 64 19 00 40 41 00 26 30 18 88
36 00 1d d6 10 00 00 18 00 00 00 fd 00 38 4b 1e
3d 08 00 0a 20 20 20 20 20 20 00 00 00 fc 00 4c
43 44 31 34 32 0a 0a 0a 0a 0a 0a 0a 00 00 00 ff
00 43 43 45 31 30 32 30 30 36 0a 0a 0a 0a 00 10

00 ff ff ff ff ff ff 00 0c 65 42 01 00 00 00 00
2a 10 01 03 7c 1d 15 99 e8 43 65 95 57 53 8e 26
20 50 54 bf ee 00 01 01 01 01 01 01 01 01 01 01
01 01 01 01 01 01 64 19 00 40 41 00 26 30 18 88
36 00 1d d6 10 00 00 18 00 00 00 fd 00 38 4b 1e
3d 08 00 0a 20 20 20 20 20 20 00 00 00 fc 00 4c
43 44 31 34 32 0a 0a 0a 0a 0a 0a 0a 00 00 00 ff
00 43 43 45 31 30 32 30 30 36 0a 0a 0a 0a 00 10

----------------

Block 0, Base EDID:
  EDID Structure Version & Revision: 1.3
  Vendor & Product Identification:
    Manufacturer: CCE
    Model: 322
    Made in: week 42 of 2006
  Basic Display Parameters & Features:
    Analog display
    Signal Level Standard: 0.700 : 0.000 : 0.700 V p-p
    Blank-to-black setup/pedestal
    Sync: Separate Composite
    Maximum image size: 29 cm x 21 cm
    Gamma: 2.53
    DPMS levels: Standby Suspend Off
    RGB color display
  Color Characteristics:
    Red  : 0.5830, 0.3398
    Green: 0.3242, 0.5576
    Blue : 0.1494, 0.1269
    White: 0.3134, 0.3291
  Established Timings I & II:
    IBM     :   720x400    70.081663 Hz   9:5     31.467 kHz     28.320000 MHz
    DMT 0x04:   640x480    59.940476 Hz   4:3     31.469 kHz     25.175000 MHz
    Apple   :   640x480    66.666667 Hz   4:3     35.000 kHz     30.240000 MHz
    DMT 0x05:   640x480    72.808802 Hz   4:3     37.861 kHz     31.500000 MHz
    DMT 0x06:   640x480    75.000000 Hz   4:3     37.500 kHz     31.500000 MHz
    DMT 0x08:   800x600    56.250000 Hz   4:3     35.156 kHz     36.000000 MHz
    DMT 0x09:   800x600    60.316541 Hz   4:3     37.879 kHz     40.000000 MHz
    DMT 0x0a:   800x600    72.187572 Hz   4:3     48.077 kHz     50.000000 MHz
    DMT 0x0b:   800x600    75.000000 Hz   4:3     46.875 kHz     49.500000 MHz
    Apple   :   832x624    74.551266 Hz   4:3     49.726 kHz     57.284000 MHz
    DMT 0x10:  1024x768    60.003840 Hz   4:3     48.363 kHz     65.000000 MHz
    DMT 0x11:  1024x768    70.069359 Hz   4:3     56.476 kHz     75.000000 MHz
    DMT 0x12:  1024x768    75.028582 Hz   4:3     60.023 kHz     78.750000 MHz
  Standard Timings: none
  Detailed Timing Descriptors:
    DTD 1:  1024x768    60.003840 Hz   4:3     48.363 kHz     65.000000 MHz (285 mm x 214 mm)
                 Hfront   24 Hsync 136 Hback  160 Hpol N
                 Vfront    3 Vsync   6 Vback   29 Vpol N
    Display Range Limits:
      Monitor ranges (GTF): 56-75 Hz V, 30-61 kHz H, max dotclock 80 MHz
    Display Product Name: 'LCD142'
    Display Product Serial Number: ...
Checksum: 0x10

----------------

Block 1, Unknown EDID Extension Block 0x00:
  00 ff ff ff ff ff ff 00 0c 65 42 01 00 00 00 00 '.........eB.....'
  2a 10 01 03 7c 1d 15 99 e8 43 65 95 57 53 8e 26 '*...|....Ce.WS.&'
  20 50 54 bf ee 00 01 01 01 01 01 01 01 01 01 01 ' PT.............'
  01 01 01 01 01 01 64 19 00 40 41 00 26 30 18 88 '......d..@A.&0..'
  36 00 1d d6 10 00 00 18 00 00 00 fd 00 38 4b 1e '6............8K.'
  3d 08 00 0a 20 20 20 20 20 20 00 00 00 fc 00 4c '=...      .....L'
  43 44 31 34 32 0a 0a 0a 0a 0a 0a 0a 00 00 00 ff 'CD142...........'
  00 43 43 45 31 30 32 30 30 36 0a 0a 0a 0a 00 10 '.CCE102006......'
Checksum: 0x10

----------------

Failures:

Block 0, Base EDID:
  Basic Display Parameters & Features: EDID 1.3 requires that the first detailed timing is the preferred timing.
  Display Product Name: Non-space after newline.
  Display Product Serial Number: ...
Block 1, Base EDID:
  Unknown Extension Block.
EDID:
  Base EDID: EDID specified 0 extension block(s), but found 1 extension block(s).

EDID conformity: FAIL
