
EDID (hex):
00ffffffffffff004e14c60c01000000
281d0103804628782bdd75a5554e9d27
0b5054230800614081c08180a9c07140
d1c0010101016a5e00a0a0a029503020
3500c48e2100001e000000fd00304117
631e000a202020202020023a80187138
2d40582c45000f282100001e000000fc
0053636570747265205133320a20012a
02032af14b101f051404130312021101
230907078301000068030c0010003878
00681a00000101303c008e4480a07038
2d40582c450055282100001e662150b0
51001b30407036000f282100001e7f21
56aa51001e30468f330055282100007f
d32c00a451382d4020a0350055282100
007b0000000000000000000000000012

Extracted contents:
header:          00 ff ff ff ff ff ff 00
serial number:   4e 14 c6 0c 01 00 00 00 28 1d
version:         01 03
basic params:    80 46 28 78 2b
chroma info:     dd 75 a5 55 4e 9d 27 0b 50 54
established:     23 08 00
standard:        61 40 81 c0 81 80 a9 c0 71 40 d1 c0 01 01 01 01
descriptor 1:    6a 5e 00 a0 a0 a0 29 50 30 20 35 00 c4 8e 21 00 00 1e
descriptor 2:    00 00 00 fd 00 30 41 17 63 1e 00 0a 20 20 20 20 20 20
descriptor 3:    02 3a 80 18 71 38 2d 40 58 2c 45 00 0f 28 21 00 00 1e
descriptor 4:    00 00 00 fc 00 53 63 65 70 74 72 65 20 51 33 32 0a 20
extensions:      01
checksum:        2a

EDID version: 1.3
Manufacturer: SPT Model cc6 Serial Number --
Made in week 40 of 2019
Digital display
Maximum image size: 70 cm x 40 cm
Gamma: 2.20
DPMS levels: Off
RGB color display
First detailed timing is preferred timing
Supports GTF timings within operating range
Display x,y Chromaticity:
  Red:   0.6474, 0.3330
  Green: 0.3076, 0.6142
  Blue:  0.1533, 0.0458
  White: 0.3134, 0.3291
Established timings supported:
  640x480@60Hz 4:3 HorFreq: 31469 Hz Clock: 25.175 MHz
  800x600@56Hz 4:3 HorFreq: 35200 Hz Clock: 36.000 MHz
  800x600@60Hz 4:3 HorFreq: 37900 Hz Clock: 40.000 MHz
  1024x768@60Hz 4:3 HorFreq: 48400 Hz Clock: 65.000 MHz
Standard timings supported:
  1024x768@60Hz 4:3 HorFreq: 48400 Hz Clock: 65.000 MHz
  1280x720@60Hz 16:9
  1280x1024@60Hz 5:4 HorFreq: 64000 Hz Clock: 108.000 MHz
  1600x900@60Hz 16:9
  1152x864@60Hz 4:3
  1920x1080@60Hz 16:9
Detailed mode: Clock 241.700 MHz, 708 mm x 398 mm
               2560 2608 2640 2720 hborder 0
               1440 1443 1448 1481 vborder 0
               +hsync +vsync 
               VertFreq: 60 Hz, HorFreq: 88860 Hz
Monitor ranges (GTF): 48-65Hz V, 23-99kHz H, max dotclock 300MHz
Detailed mode: Clock 148.500 MHz, 527 mm x 296 mm
               1920 2008 2052 2200 hborder 0
               1080 1084 1089 1125 vborder 0
               +hsync +vsync 
               VertFreq: 60 Hz, HorFreq: 67500 Hz
Monitor name: Sceptre Q32
Has 1 extension blocks
Checksum: 0x2a (valid)

CTA extension block
Extension version: 3
38 bytes of CTA data
  Video data block
    VIC  16 1920x1080@60Hz 16:9  HorFreq: 67500 Hz Clock: 148.500 MHz
    VIC  31 1920x1080@50Hz 16:9  HorFreq: 56250 Hz Clock: 148.500 MHz
    VIC   5 1920x1080i@60Hz 16:9  HorFreq: 33750 Hz Clock: 74.250 MHz
    VIC  20 1920x1080i@50Hz 16:9  HorFreq: 28125 Hz Clock: 74.250 MHz
    VIC   4 1280x720@60Hz 16:9  HorFreq: 45000 Hz Clock: 74.250 MHz
    VIC  19 1280x720@50Hz 16:9  HorFreq: 37500 Hz Clock: 74.250 MHz
    VIC   3 720x480@60Hz 16:9  HorFreq: 31469 Hz Clock: 27.000 MHz
    VIC  18 720x576@50Hz 16:9  HorFreq: 31250 Hz Clock: 27.000 MHz
    VIC   2 720x480@60Hz 4:3  HorFreq: 31469 Hz Clock: 27.000 MHz
    VIC  17 720x576@50Hz 4:3  HorFreq: 31250 Hz Clock: 27.000 MHz
    VIC   1 640x480@60Hz 4:3  HorFreq: 31469 Hz Clock: 25.175 MHz
  Audio data block
    Linear PCM, max channels 2
      Supported sample rates (kHz): 48 44.1 32
      Supported sample sizes (bits): 24 20 16
  Speaker allocation data block
    Speaker map:
      FL/FR - Front Left/Right
  Vendor-specific data block, OUI 000c03 (HDMI)
    Source physical address 1.0.0.0
    DC_36bit
    DC_30bit
    DC_Y444
    Maximum TMDS clock: 600MHz
  Vendor-specific data block, OUI 00001a
Underscans PC formats by default
Basic audio support
Supports YCbCr 4:4:4
Supports YCbCr 4:2:2
1 native detailed modes
Detailed mode: Clock 175.500 MHz, 597 mm x 296 mm
               1920 2008 2052 2080 hborder 0
               1080 1084 1089 1125 vborder 0
               +hsync +vsync 
               VertFreq: 75 Hz, HorFreq: 84375 Hz
Detailed mode: Clock 85.500 MHz, 527 mm x 296 mm
               1360 1424 1536 1792 hborder 0
                768  771  777  795 vborder 0
               +hsync +vsync 
               VertFreq: 60 Hz, HorFreq: 47712 Hz
Detailed mode: Clock 85.750 MHz, 597 mm x 296 mm
               1366 1436 1579 1792 hborder 0
                768  771  774  798 vborder 0
               +hsync +vsync side by side interleaved
               VertFreq: 59 Hz, HorFreq: 47851 Hz
Detailed mode: Clock 114.750 MHz, 597 mm x 296 mm
               1280 1312 1472 1700 hborder 0
               1080 1083 1088 1125 vborder 0
               +hsync -vsync side by side interleaved
               VertFreq: 60 Hz, HorFreq: 67500 Hz
Checksum: 0x12 (valid)

EDID block does NOT conform to EDID 1.3!
	HDMI VSDB Max TMDS rate is > 340
One or more of the timings is out of range of the Monitor Ranges:
  Vertical Freq: 50 - 75 Hz
  Horizontal Freq: 28125 - 88860 Hz
  Maximum Clock: 241.700 MHz
EDID block does not conform at all!
	Invalid detailed timing descriptor ordering
