
EDID (hex):
00ffffffffffff0030e4120300000000
00150103801d11780a20e59557568e28
1f505400000001010101010101010101
010101010101581b567e50000e302430
350026a6100000190000000000000000
00000000000000000000000000fe004c
4720446973706c61790a2020000000fe
004c503133335748342d544a4131005f

Extracted contents:
header:          00 ff ff ff ff ff ff 00
serial number:   30 e4 12 03 00 00 00 00 00 15
version:         01 03
basic params:    80 1d 11 78 0a
chroma info:     20 e5 95 57 56 8e 28 1f 50 54
established:     00 00 00
standard:        01 01 01 01 01 01 01 01 01 01 01 01 01 01 01 01
descriptor 1:    58 1b 56 7e 50 00 0e 30 24 30 35 00 26 a6 10 00 00 19
descriptor 2:    00 00 00 00 00 00 00 00 00 00 00 00 00 00 00 00 00 00
descriptor 3:    00 00 00 fe 00 4c 47 20 44 69 73 70 6c 61 79 0a 20 20
descriptor 4:    00 00 00 fe 00 4c 50 31 33 33 57 48 34 2d 54 4a 41 31
extensions:      00
checksum:        5f

EDID version: 1.3
Manufacturer: LGD Model 312 Serial Number --
Made in year 2011
Digital display
Maximum image size: 29 cm x 17 cm
Gamma: 2.20
RGB color display
First detailed timing is preferred timing
Display x,y Chromaticity:
  Red:   0.5820, 0.3417
  Green: 0.3359, 0.5546
  Blue:  0.1591, 0.1230
  White: 0.3134, 0.3291
Established timings supported:
Standard timings supported:
Detailed mode: Clock 70.000 MHz, 294 mm x 166 mm
               1366 1402 1450 1492 hborder 0
                768  771  776  782 vborder 0
               -hsync -vsync 
               VertFreq: 59 Hz, HorFreq: 46916 Hz
Manufacturer-specified data, tag 0
ASCII string: LG Display
ASCII string: LP133WH4-TJA1
Checksum: 0x5f (valid)
EDID block does NOT conform to EDID 1.3!
	Missing name descriptor
	Missing monitor ranges
