
EDID (hex):
00ffffffffffff0025cc030000000000
0013010380160c780a40859359569327
1b505400000001010101010101010101
010101010101201200bc405826203020
3600de7d000000180000000000000000
00000000000000000000000000fe0049
4e4c2020202020202020202000000000
00425431303149573031563020200072

Extracted contents:
header:          00 ff ff ff ff ff ff 00
serial number:   25 cc 03 00 00 00 00 00 00 13
version:         01 03
basic params:    80 16 0c 78 0a
chroma info:     40 85 93 59 56 93 27 1b 50 54
established:     00 00 00
standard:        01 01 01 01 01 01 01 01 01 01 01 01 01 01 01 01
descriptor 1:    20 12 00 bc 40 58 26 20 30 20 36 00 de 7d 00 00 00 18
descriptor 2:    00 00 00 00 00 00 00 00 00 00 00 00 00 00 00 00 00 00
descriptor 3:    00 00 00 fe 00 49 4e 4c 20 20 20 20 20 20 20 20 20 20
descriptor 4:    00 00 00 00 00 42 54 31 30 31 49 57 30 31 56 30 20 20
extensions:      00
checksum:        72

EDID version: 1.3
Manufacturer: INL Model 3 Serial Number --
Made in year 2009
Digital display
Maximum image size: 22 cm x 12 cm
Gamma: 2.20
RGB color display
First detailed timing is preferred timing
Display x,y Chromaticity:
  Red:   0.5751, 0.3476
  Green: 0.3359, 0.5742
  Blue:  0.1542, 0.1054
  White: 0.3134, 0.3291
Established timings supported:
Standard timings supported:
Detailed mode: Clock 46.400 MHz, 222 mm x 125 mm
               1024 1072 1104 1212 hborder 0
                600  603  609  638 vborder 0
               -hsync -vsync 
               VertFreq: 60 Hz, HorFreq: 38283 Hz
Manufacturer-specified data, tag 0
ASCII string: INL          
Manufacturer-specified data, tag 0
Checksum: 0x72 (valid)
EDID block does NOT conform to EDID 1.3!
	Missing name descriptor
	Missing monitor ranges
