
EDID (hex):
00ffffffffffff0010ac073039383341
230b010308221b8cea6f8ba25a4d9424
1a5156a54b0001010101010101010101
010101010101302a009851002a403070
1300520e1100001e000000ff00384731
3532313852413338390a000000fc0044
454c4c203137303246500a20000000fd
00384c1e500e000a2020202020200048

Extracted contents:
header:          00 ff ff ff ff ff ff 00
serial number:   10 ac 07 30 39 38 33 41 23 0b
version:         01 03
basic params:    08 22 1b 8c ea
chroma info:     6f 8b a2 5a 4d 94 24 1a 51 56
established:     a5 4b 00
standard:        01 01 01 01 01 01 01 01 01 01 01 01 01 01 01 01
descriptor 1:    30 2a 00 98 51 00 2a 40 30 70 13 00 52 0e 11 00 00 1e
descriptor 2:    00 00 00 ff 00 38 47 31 35 32 31 38 52 41 33 38 39 0a
descriptor 3:    00 00 00 fc 00 44 45 4c 4c 20 31 37 30 32 46 50 0a 20
descriptor 4:    00 00 00 fd 00 38 4c 1e 50 0e 00 0a 20 20 20 20 20 20
extensions:      00
checksum:        48

EDID version: 1.3
Manufacturer: DEL Model 3007 Serial Number --
Analog display, Input voltage level: 0.7/0.3 V
Sync: Separate 
Maximum image size: 34 cm x 27 cm
Gamma: 2.40
DPMS levels: Standby Suspend Off
RGB color display
First detailed timing is preferred timing
Display x,y Chromaticity:
  Red:   0.6337, 0.3535
  Green: 0.3037, 0.5810
  Blue:  0.1425, 0.1015
  White: 0.3183, 0.3388
Established timings supported:
  720x400@70Hz 9:5 HorFreq: 31469 Hz Clock: 28.320 MHz
  640x480@60Hz 4:3 HorFreq: 31469 Hz Clock: 25.175 MHz
  640x480@75Hz 4:3 HorFreq: 37500 Hz Clock: 31.500 MHz
  800x600@60Hz 4:3 HorFreq: 37900 Hz Clock: 40.000 MHz
  800x600@75Hz 4:3 HorFreq: 46900 Hz Clock: 49.500 MHz
  1024x768@60Hz 4:3 HorFreq: 48400 Hz Clock: 65.000 MHz
  1024x768@75Hz 4:3 HorFreq: 60000 Hz Clock: 78.750 MHz
  1280x1024@75Hz 5:4 HorFreq: 80000 Hz Clock: 135.000 MHz
Standard timings supported:
Detailed mode: Clock 108.000 MHz, 338 mm x 270 mm
               1280 1328 1440 1688 hborder 0
               1024 1025 1028 1066 vborder 0
               +hsync +vsync 
               VertFreq: 60 Hz, HorFreq: 63981 Hz
Serial number: --
Monitor name: DELL 1702FP
Monitor ranges (GTF): 56-76Hz V, 30-80kHz H, max dotclock 140MHz
Checksum: 0x48 (valid)
EDID block does not conform at all!
	Bad year of manufacture
