edid-decode (hex):

00 ff ff ff ff ff ff 00 22 f0 41 42 01 01 01 01
18 17 01 03 80 29 17 78 0a 40 60 a5 55 51 a0 27
0f 50 54 00 00 00 01 01 01 01 01 01 01 01 01 01
01 01 01 01 01 01 12 1b 56 46 50 00 23 30 24 30
35 00 58 c2 10 00 00 18 00 00 00 fe 00 41 55 4f
20 44 69 73 70 6c 61 79 0a 20 00 00 00 fc 00 48
50 20 41 6c 6c 2d 69 6e 2d 4f 6e 65 00 00 00 fe
00 4d 31 38 35 58 54 4e 30 31 2e 33 0a 20 00 5a

----------------

Block 0, Base EDID:
  EDID Structure Version & Revision: 1.3
  Vendor & Product Identification:
    Manufacturer: HWP
    Model: 16961
    Serial Number: ...
    Made in: week 24 of 2013
  Basic Display Parameters & Features:
    Digital display
    Maximum image size: 41 cm x 23 cm
    Gamma: 2.20
    RGB color display
    First detailed timing is the preferred timing
  Color Characteristics:
    Red  : 0.6455, 0.3320
    Green: 0.3164, 0.6250
    Blue : 0.1533, 0.0605
    White: 0.3125, 0.3281
  Established Timings I & II: none
  Standard Timings: none
  Detailed Timing Descriptors:
    DTD 1:  1366x768    60.098447 Hz 683:384   48.259 kHz     69.300000 MHz (344 mm x 194 mm)
                 Hfront   36 Hsync  48 Hback  -14 Hpol N
                 Vfront    3 Vsync   5 Vback   27 Vpol N
    Alphanumeric Data String: 'AUO Display'
    Display Product Name: 'HP All-in-One'
    Alphanumeric Data String: 'M185XTN01.3'
Checksum: 0x5a

----------------

Failures:

Block 0, Base EDID:
  Detailed Timing Descriptor #1: 0 or negative horizontal back porch.
  Detailed Timing Descriptor #1: Mismatch of image size 344x194 mm vs display size 410x230 mm.
  Missing Display Range Limits Descriptor.

EDID conformity: FAIL
