
EDID (hex):
00ffffffffffff0026cd0056e90f0000
01110103682f1e78ea7520a5564a9a25
105054a56b80b3007100814081809500
01010101010121399030621a274068b0
3600d9281100001c000000fd00374d1e
5411000a202020202020000000fc0050
4c45323230305753560a2020000000ff
003537373736333241424344450a003b

Extracted contents:
header:          00 ff ff ff ff ff ff 00
serial number:   26 cd 00 56 e9 0f 00 00 01 11
version:         01 03
basic params:    68 2f 1e 78 ea
chroma info:     75 20 a5 56 4a 9a 25 10 50 54
established:     a5 6b 80
standard:        b3 00 71 00 81 40 81 80 95 00 01 01 01 01 01 01
descriptor 1:    21 39 90 30 62 1a 27 40 68 b0 36 00 d9 28 11 00 00 1c
descriptor 2:    00 00 00 fd 00 37 4d 1e 54 11 00 0a 20 20 20 20 20 20
descriptor 3:    00 00 00 fc 00 50 4c 45 32 32 30 30 57 53 56 0a 20 20
descriptor 4:    00 00 00 ff 00 35 37 37 37 36 33 32 41 42 43 44 45 0a
extensions:      00
checksum:        3b

EDID version: 1.3
Manufacturer: IVM Model 5600 Serial Number --
Made in week 1 of 2007
Analog display, Input voltage level: 0.7/0.7 V
Sync: Separate 
Maximum image size: 47 cm x 30 cm
Gamma: 2.20
DPMS levels: Standby Suspend Off
RGB color display
First detailed timing is preferred timing
Display x,y Chromaticity:
  Red:   0.6455, 0.3388
  Green: 0.2900, 0.6025
  Blue:  0.1445, 0.0644
  White: 0.3125, 0.3281
Established timings supported:
  720x400@70Hz 9:5 HorFreq: 31469 Hz Clock: 28.320 MHz
  640x480@60Hz 4:3 HorFreq: 31469 Hz Clock: 25.175 MHz
  640x480@75Hz 4:3 HorFreq: 37500 Hz Clock: 31.500 MHz
  800x600@60Hz 4:3 HorFreq: 37900 Hz Clock: 40.000 MHz
  800x600@75Hz 4:3 HorFreq: 46900 Hz Clock: 49.500 MHz
  832x624@75Hz 4:3 HorFreq: 49726 Hz Clock: 57.284 MHz
  1024x768@60Hz 4:3 HorFreq: 48400 Hz Clock: 65.000 MHz
  1024x768@75Hz 4:3 HorFreq: 60000 Hz Clock: 78.750 MHz
  1280x1024@75Hz 5:4 HorFreq: 80000 Hz Clock: 135.000 MHz
  1152x870@75Hz 192:145 HorFreq: 67500 Hz Clock: 108.000 MHz
Standard timings supported:
  1680x1050@60Hz 16:10 HorFreq: 64700 Hz Clock: 119.000 MHz
  1152x720@60Hz 16:10
  1280x960@60Hz 4:3 HorFreq: 60000 Hz Clock: 108.000 MHz
  1280x1024@60Hz 5:4 HorFreq: 64000 Hz Clock: 108.000 MHz
  1440x900@60Hz 16:10 HorFreq: 55500 Hz Clock: 88.750 MHz
Detailed mode: Clock 146.250 MHz, 473 mm x 296 mm
               1680 1784 1960 2240 hborder 0
               1050 1053 1059 1089 vborder 0
               -hsync +vsync 
               VertFreq: 59 Hz, HorFreq: 65290 Hz
Monitor ranges (GTF): 55-77Hz V, 30-84kHz H, max dotclock 170MHz
Monitor name: PLE2200WSV
Serial number: --
Checksum: 0x3b (valid)
