edid-decode (hex):

00 ff ff ff ff ff ff 00 06 af 5c 31 00 00 00 00
00 16 01 03 80 1a 0e 78 0a 99 85 95 55 56 92 28
22 50 54 00 00 00 01 01 01 01 01 01 01 01 01 01
01 01 01 01 01 01 a3 1b 56 7e 50 00 16 30 30 20
36 00 00 90 10 00 00 18 6d 12 56 7e 50 00 16 30
30 20 36 00 00 90 10 00 00 18 00 00 00 fe 00 41
55 4f 0a 20 20 20 20 20 20 20 20 20 00 00 00 fe
00 42 31 31 36 58 57 30 33 20 56 31 20 0a 00 3d

----------------

Block 0, Base EDID:
  EDID Structure Version & Revision: 1.3
  Vendor & Product Identification:
    Manufacturer: AUO
    Model: 12636
    Made in: 2012
  Basic Display Parameters & Features:
    Digital display
    Maximum image size: 26 cm x 14 cm
    Gamma: 2.20
    RGB color display
    First detailed timing is the preferred timing
  Color Characteristics:
    Red  : 0.5839, 0.3330
    Green: 0.3378, 0.5712
    Blue : 0.1582, 0.1328
    White: 0.3134, 0.3291
  Established Timings I & II: none
  Standard Timings: none
  Detailed Timing Descriptors:
    DTD 1:  1366x768    60.025 Hz 683:384  47.420 kHz  70.750 MHz (256 mm x 144 mm)
                 Hfront   48 Hsync  32 Hback  46 Hpol N
                 Vfront    3 Vsync   6 Vback  13 Vpol N
    DTD 2:  1366x768    40.019 Hz 683:384  31.615 kHz  47.170 MHz (256 mm x 144 mm)
                 Hfront   48 Hsync  32 Hback  46 Hpol N
                 Vfront    3 Vsync   6 Vback  13 Vpol N
    Alphanumeric Data String: 'AUO'
    Alphanumeric Data String: 'B116XW03 V1 '
Checksum: 0x3d

----------------

Failures:

Block 0, Base EDID:
  Alphanumeric Data String: One or more trailing spaces.
  Missing Display Product Name.
  Missing Display Range Limits Descriptor.

EDID conformity: FAIL
