edid-decode (hex):

00 ff ff ff ff ff ff 00 06 af 5c 31 00 00 00 00
00 15 01 04 90 1a 0e 78 02 1c f5 97 58 50 8e 27
27 50 54 00 00 00 01 01 01 01 01 01 01 01 01 01
01 01 01 01 01 01 8a 1b 56 72 50 00 19 30 30 20
36 00 00 90 10 00 00 18 5c 12 56 72 50 00 19 30
30 20 36 00 00 90 10 00 00 18 00 00 00 00 00 00
00 00 00 00 00 00 00 00 00 00 00 00 00 00 00 02
00 0c 3f ff 0c 3c 77 00 00 17 77 20 20 20 00 4e

----------------

Block 0, Base EDID:
  EDID Structure Version & Revision: 1.4
  Vendor & Product Identification:
    Manufacturer: AUO
    Model: 12636
    Made in: 2011
  Basic Display Parameters & Features:
    Digital display
    Bits per primary color channel: 6
    Digital interface is not defined
    Maximum image size: 26 cm x 14 cm
    Gamma: 2.20
    Supported color formats: RGB 4:4:4
    First detailed timing includes the native pixel format and preferred refresh rate
  Color Characteristics:
    Red  : 0.5898, 0.3447
    Green: 0.3154, 0.5546
    Blue : 0.1552, 0.1552
    White: 0.3134, 0.3291
  Established Timings I & II: none
  Standard Timings: none
  Detailed Timing Descriptors:
    DTD 1:  1366x768    60.069527 Hz 683:384   47.635 kHz     70.500000 MHz (256 mm x 144 mm)
                 Hfront   48 Hsync  32 Hback   34 Hpol N
                 Vfront    3 Vsync   6 Vback   16 Vpol N
    DTD 2:  1366x768    40.046352 Hz 683:384   31.757 kHz     47.000000 MHz (256 mm x 144 mm)
                 Hfront   48 Hsync  32 Hback   34 Hpol N
                 Vfront    3 Vsync   6 Vback   16 Vpol N
    Empty Descriptor
    Manufacturer-Specified Display Descriptor (0x02): 00 02 00 0c 3f ff 0c 3c 77 00 00 17 77 20 20 20 '....?..<w...w   '
Checksum: 0x4e

----------------

Warnings:

Block 0, Base EDID:
  Missing Display Product Name.

Failures:

Block 0, Base EDID:
  Empty Descriptor: Use Dummy Descriptor instead of all zeroes.

EDID conformity: FAIL
