
EDID (hex):
00ffffffffffff0022f04a2801010101
1d15010468342078ee9ec5a6564b9a25
135054210800814081809500a940b300
d1c0010101017d4b80a072b02d4088c8
360006442100001c000000fd00323f18
4c14000a202020202020000000fc004c
41323430350a202020202020000000ff
00434e3431323930514c370a20200054

Extracted contents:
header:          00 ff ff ff ff ff ff 00
serial number:   22 f0 4a 28 01 01 01 01 1d 15
version:         01 04
basic params:    68 34 20 78 ee
chroma info:     9e c5 a6 56 4b 9a 25 13 50 54
established:     21 08 00
standard:        81 40 81 80 95 00 a9 40 b3 00 d1 c0 01 01 01 01
descriptor 1:    7d 4b 80 a0 72 b0 2d 40 88 c8 36 00 06 44 21 00 00 1c
descriptor 2:    00 00 00 fd 00 32 3f 18 4c 14 00 0a 20 20 20 20 20 20
descriptor 3:    00 00 00 fc 00 4c 41 32 34 30 35 0a 20 20 20 20 20 20
descriptor 4:    00 00 00 ff 00 43 4e 34 31 32 39 30 51 4c 37 0a 20 20
extensions:      00
checksum:        54

EDID version: 1.4
Manufacturer: HWP Model 284a Serial Number --
Made in week 29 of 2011
Analog display, Input voltage level: 0.7/0.7 V
Blank level equals black level
Sync: Separate 
Maximum image size: 52 cm x 32 cm
Gamma: 2.20
DPMS levels: Standby Suspend Off
RGB color display
Default (sRGB) color space is primary color space
First detailed timing includes the native pixel format and preferred refresh rate
Display x,y Chromaticity:
  Red:   0.6503, 0.3369
  Green: 0.2958, 0.6035
  Blue:  0.1474, 0.0742
  White: 0.3134, 0.3291
Established timings supported:
  640x480@60Hz 4:3 HorFreq: 31469 Hz Clock: 25.175 MHz
  800x600@60Hz 4:3 HorFreq: 37900 Hz Clock: 40.000 MHz
  1024x768@60Hz 4:3 HorFreq: 48400 Hz Clock: 65.000 MHz
Standard timings supported:
  1280x960@60Hz 4:3 HorFreq: 60000 Hz Clock: 108.000 MHz
  1280x1024@60Hz 5:4 HorFreq: 64000 Hz Clock: 108.000 MHz
  1440x900@60Hz 16:10 HorFreq: 55500 Hz Clock: 88.750 MHz
  1600x1200@60Hz 4:3 HorFreq: 75000 Hz Clock: 162.000 MHz
  1680x1050@60Hz 16:10 HorFreq: 64700 Hz Clock: 119.000 MHz
  1920x1080@60Hz 16:9
Detailed mode: Clock 193.250 MHz, 518 mm x 324 mm
               1920 2056 2256 2592 hborder 0
               1200 1203 1209 1245 vborder 0
               -hsync +vsync 
               VertFreq: 59 Hz, HorFreq: 74556 Hz
Monitor ranges (GTF): 50-63Hz V, 24-76kHz H, max dotclock 200MHz
Monitor name: LA2405
Serial number: --
Checksum: 0x54 (valid)
EDID block does NOT conform to EDID 1.4!
	sRGB is signaled, but the chromaticities do not match
