edid-decode (hex):

00 ff ff ff ff ff ff 00 30 ae e0 40 00 00 00 00
01 14 01 03 80 1c 10 78 ea 20 e5 92 55 54 92 28
25 50 54 00 00 00 01 01 01 01 01 01 01 01 01 01
01 01 01 01 01 01 12 1b 56 58 50 00 19 30 30 20
36 00 15 9c 10 00 00 18 8f 16 56 58 50 00 19 30
30 20 36 00 15 9c 10 00 00 18 00 00 00 0f 00 8c
09 32 8c 09 28 14 09 00 06 af 56 30 00 00 00 fe
00 42 31 32 35 58 57 30 31 20 56 30 20 0a 00 4d

----------------

Block 0, Base EDID:
  EDID Structure Version & Revision: 1.3
  Vendor & Product Identification:
    Manufacturer: LEN
    Model: 16608
    Made in: week 1 of 2010
  Basic Display Parameters & Features:
    Digital display
    Maximum image size: 28 cm x 16 cm
    Gamma: 2.20
    DPMS levels: Standby Suspend Off
    RGB color display
    First detailed timing is preferred timing
  Color Characteristics:
    Red  : 0.5703, 0.3339
    Green: 0.3281, 0.5703
    Blue : 0.1591, 0.1464
    White: 0.3134, 0.3291
  Established Timings I & II: none
  Standard Timings: none
  Detailed Timing Descriptors:
    DTD 1:  1366x768    60.103 Hz 683:384  47.662 kHz  69.300 MHz (277 mm x 156 mm)
                 Hfront   48 Hsync  32 Hback   8 Hpol N
                 Vfront    3 Vsync   6 Vback  16 Vpol N
    DTD 2:  1366x768    50.086 Hz 683:384  39.718 kHz  57.750 MHz (277 mm x 156 mm)
                 Hfront   48 Hsync  32 Hback   8 Hpol N
                 Vfront    3 Vsync   6 Vback  16 Vpol N
    Manufacturer-Specified Display Descriptor (0x0f): 00 0f 00 8c 09 32 8c 09 28 14 09 00 06 af 56 30 '.....2..(.....V0'
    Alphanumeric Data String: 'B125XW01 V0 '
Checksum: 0x4d
