
EDID (hex):
00ffffffffffff0030aee04000000000
01140103801c1078ea20e59255549228
25505400000001010101010101010101
010101010101121b5658500019303020
3600159c100000188f16565850001930
30203600159c100000180000000f008c
09328c092814090006af5630000000fe
004231323558573031205630200a004d

Extracted contents:
header:          00 ff ff ff ff ff ff 00
serial number:   30 ae e0 40 00 00 00 00 01 14
version:         01 03
basic params:    80 1c 10 78 ea
chroma info:     20 e5 92 55 54 92 28 25 50 54
established:     00 00 00
standard:        01 01 01 01 01 01 01 01 01 01 01 01 01 01 01 01
descriptor 1:    12 1b 56 58 50 00 19 30 30 20 36 00 15 9c 10 00 00 18
descriptor 2:    8f 16 56 58 50 00 19 30 30 20 36 00 15 9c 10 00 00 18
descriptor 3:    00 00 00 0f 00 8c 09 32 8c 09 28 14 09 00 06 af 56 30
descriptor 4:    00 00 00 fe 00 42 31 32 35 58 57 30 31 20 56 30 20 0a
extensions:      00
checksum:        4d

EDID version: 1.3
Manufacturer: LEN Model 40e0 Serial Number --
Made in week 1 of 2010
Digital display
Maximum image size: 28 cm x 16 cm
Gamma: 2.20
DPMS levels: Standby Suspend Off
RGB color display
First detailed timing is preferred timing
Display x,y Chromaticity:
  Red:   0.5703, 0.3339
  Green: 0.3281, 0.5703
  Blue:  0.1591, 0.1464
  White: 0.3134, 0.3291
Established timings supported:
Standard timings supported:
Detailed mode: Clock 69.300 MHz, 277 mm x 156 mm
               1366 1414 1446 1454 hborder 0
                768  771  777  793 vborder 0
               -hsync -vsync 
               VertFreq: 60 Hz, HorFreq: 47661 Hz
Detailed mode: Clock 57.750 MHz, 277 mm x 156 mm
               1366 1414 1446 1454 hborder 0
                768  771  777  793 vborder 0
               -hsync -vsync 
               VertFreq: 50 Hz, HorFreq: 39718 Hz
Manufacturer-specified data, tag 15
ASCII string: B125XW01 V0 
Checksum: 0x4d (valid)
EDID block does NOT conform to EDID 1.3!
	Missing name descriptor
	Missing monitor ranges
