
EDID (hex):
00ffffffffffff0009e5810900000000
011e0104a51d127803f085a4534b9b25
0f505400000001010101010101010101
010101010101626b00c8a0403c603020
36001eb310000000000000fd00283c64
641b010a202020202020000000fe0042
4f452043510a202020202020000000fe
004e4531333351444d2d4e36310a0012

Extracted contents:
header:          00 ff ff ff ff ff ff 00
serial number:   09 e5 81 09 00 00 00 00 01 1e
version:         01 04
basic params:    a5 1d 12 78 03
chroma info:     f0 85 a4 53 4b 9b 25 0f 50 54
established:     00 00 00
standard:        01 01 01 01 01 01 01 01 01 01 01 01 01 01 01 01
descriptor 1:    62 6b 00 c8 a0 40 3c 60 30 20 36 00 1e b3 10 00 00 00
descriptor 2:    00 00 00 fd 00 28 3c 64 64 1b 01 0a 20 20 20 20 20 20
descriptor 3:    00 00 00 fe 00 42 4f 45 20 43 51 0a 20 20 20 20 20 20
descriptor 4:    00 00 00 fe 00 4e 45 31 33 33 51 44 4d 2d 4e 36 31 0a
extensions:      00
checksum:        12

EDID version: 1.4
Manufacturer: BOE Model 981 Serial Number --
Made in week 1 of 2020
Digital display
8 bits per primary color channel
DisplayPort interface
Maximum image size: 29 cm x 18 cm
Gamma: 2.20
Supported color formats: RGB 4:4:4
First detailed timing includes the native pixel format and preferred refresh rate
Display is continuous frequency
Display x,y Chromaticity:
  Red:   0.6435, 0.3271
  Green: 0.2929, 0.6054
  Blue:  0.1464, 0.0585
  White: 0.3134, 0.3291
Established timings supported:
Standard timings supported:
Detailed mode: Clock 274.900 MHz, 286 mm x 179 mm
               2560 2608 2640 2760 hborder 0
               1600 1603 1609 1660 vborder 0
               -hsync -vsync analog composite 
               VertFreq: 60 Hz, HorFreq: 99601 Hz
Monitor ranges (bare limits): 40-60Hz V, 100-100kHz H, max dotclock 270MHz
ASCII string: BOE CQ
ASCII string: NE133QDM-N61
Checksum: 0x12 (valid)
EDID block does NOT conform to EDID 1.4!
	Missing name descriptor
Warning: One or more of the timings is out of range of the Monitor Ranges:
  Vertical Freq: 60 - 60 Hz
  Horizontal Freq: 99601 - 99601 Hz
  Maximum Clock: 274.900 MHz
