
EDID (hex):
00ffffffffffff0006afa9b700000000
28200104951f117803f5658f555a932a
1f505400000001010101010101010101
010101010101603b8004713852401010
3e0035ae100000189527800471385240
10103e0035ae10000018000000fe0041
554f0a202020202020202020000000fe
004231343048414b30332e33200a00f1

edid-decode (hex):

00 ff ff ff ff ff ff 00 06 af a9 b7 00 00 00 00
28 20 01 04 95 1f 11 78 03 f5 65 8f 55 5a 93 2a
1f 50 54 00 00 00 01 01 01 01 01 01 01 01 01 01
01 01 01 01 01 01 60 3b 80 04 71 38 52 40 10 10
3e 00 35 ae 10 00 00 18 95 27 80 04 71 38 52 40
10 10 3e 00 35 ae 10 00 00 18 00 00 00 fe 00 41
55 4f 0a 20 20 20 20 20 20 20 20 20 00 00 00 fe
00 42 31 34 30 48 41 4b 30 33 2e 33 20 0a 00 f1

----------------

Block 0, Base EDID:
  EDID Structure Version & Revision: 1.4
  Vendor & Product Identification:
    Manufacturer: AUO
    Model: 47017
    Made in: week 40 of 2022
  Basic Display Parameters & Features:
    Digital display
    Bits per primary color channel: 6
    DisplayPort interface
    Maximum image size: 31 cm x 17 cm
    Gamma: 2.20
    Supported color formats: RGB 4:4:4
    First detailed timing includes the native pixel format and preferred refresh rate
    Display is continuous frequency
  Color Characteristics:
    Red  : 0.5615, 0.3349
    Green: 0.3525, 0.5751
    Blue : 0.1650, 0.1230
    White: 0.3134, 0.3291
  Established Timings I & II: none
  Standard Timings: none
  Detailed Timing Descriptors:
    DTD 1:  1920x1080   60.004106 Hz  16:9     69.725 kHz    152.000000 MHz (309 mm x 174 mm)
                 Hfront   16 Hsync  16 Hback  228 Hpol N
                 Vfront    3 Vsync  14 Vback   65 Vpol N
    DTD 2:  1920x1080   40.001421 Hz  16:9     46.482 kHz    101.330000 MHz (309 mm x 174 mm)
                 Hfront   16 Hsync  16 Hback  228 Hpol N
                 Vfront    3 Vsync  14 Vback   65 Vpol N
    Alphanumeric Data String: 'AUO'
    Alphanumeric Data String: 'B140HAK03.3 '
Checksum: 0xf1
