edid-decode (hex):

00 ff ff ff ff ff ff 00 09 e5 51 0b 00 00 00 00
18 20 01 04 b5 1e 13 78 03 9e 05 a8 53 4b 9b 25
0f 50 54 00 00 00 01 01 01 01 01 01 01 01 01 01
01 01 01 01 01 01 b2 9f 00 a0 a0 40 46 60 30 20
36 00 2e bc 10 00 00 1a 2c 55 00 a0 a0 40 46 60
30 20 35 00 2e bc 10 00 00 1a 00 00 00 fe 00 4b
50 4e 50 4d 80 4e 45 31 34 4e 34 31 00 00 00 00
00 03 41 29 9e 00 01 00 00 0b 41 0a 20 20 01 0f

70 20 79 02 00 25 00 09 ef 3c 06 ef 3c 06 30 5a
80 81 00 13 72 1a 00 00 03 01 30 5a 00 00 00 00
00 00 5a 00 00 00 00 00 00 00 00 00 00 00 00 00
00 00 00 00 00 00 00 00 00 00 00 00 00 00 00 00
00 00 00 00 00 00 00 00 00 00 00 00 00 00 00 00
00 00 00 00 00 00 00 00 00 00 00 00 00 00 00 00
00 00 00 00 00 00 00 00 00 00 00 00 00 00 00 00
00 00 00 00 00 00 00 00 00 00 00 00 00 00 c3 90

00 ff ff ff ff ff ff 00 09 e5 51 0b 00 00 00 00
18 20 01 04 b5 1e 13 78 03 9e 05 a8 53 4b 9b 25
0f 50 54 00 00 00 01 01 01 01 01 01 01 01 01 01
01 01 01 01 01 01 b2 9f 00 a0 a0 40 46 60 30 20
36 00 2e bc 10 00 00 1a 2c 55 00 a0 a0 40 46 60
30 20 35 00 2e bc 10 00 00 1a 00 00 00 fe 00 4b
50 4e 50 4d 80 4e 45 31 34 4e 34 31 00 00 00 00
00 03 41 29 9e 00 01 00 00 0b 41 0a 20 20 01 0f

70 20 79 02 00 25 00 09 ef 3c 06 ef 3c 06 30 5a
80 81 00 13 72 1a 00 00 03 01 30 5a 00 00 00 00
00 00 5a 00 00 00 00 00 00 00 00 00 00 00 00 00
00 00 00 00 00 00 00 00 00 00 00 00 00 00 00 00
00 00 00 00 00 00 00 00 00 00 00 00 00 00 00 00
00 00 00 00 00 00 00 00 00 00 00 00 00 00 00 00
00 00 00 00 00 00 00 00 00 00 00 00 00 00 00 00
00 00 00 00 00 00 00 00 00 00 00 00 00 00 c3 90

----------------

Block 0, Base EDID:
  EDID Structure Version & Revision: 1.4
  Vendor & Product Identification:
    Manufacturer: BOE
    Model: 2897
    Made in: week 24 of 2022
  Basic Display Parameters & Features:
    Digital display
    Bits per primary color channel: 10
    DisplayPort interface
    Maximum image size: 30 cm x 19 cm
    Gamma: 2.20
    Supported color formats: RGB 4:4:4
    First detailed timing includes the native pixel format and preferred refresh rate
    Display is continuous frequency
  Color Characteristics:
    Red  : 0.6582, 0.3251
    Green: 0.2958, 0.6074
    Blue : 0.1445, 0.0585
    White: 0.3134, 0.3291
  Established Timings I & II: none
  Standard Timings: none
  Detailed Timing Descriptors:
    DTD 1:  2560x1600   90.000881 Hz  16:10   150.301 kHz    408.820000 MHz (302 mm x 188 mm)
                 Hfront   48 Hsync  32 Hback   80 Hpol P
                 Vfront    3 Vsync   6 Vback   61 Vpol N
    DTD 2:  2560x1600   48.001057 Hz  16:10    80.162 kHz    218.040000 MHz (302 mm x 188 mm)
                 Hfront   48 Hsync  32 Hback   80 Hpol P
                 Vfront    3 Vsync   5 Vback   62 Vpol N
    Alphanumeric Data String: 'KPNPM'
    Manufacturer-Specified Display Descriptor (0x00): 00 00 00 03 41 29 9e 00 01 00 00 0b 41 0a 20 20 '....A)......A.  '
  Extension blocks: 1
Checksum: 0x0f

----------------

Block 1, DisplayID Extension Block:
  Version: 2.0
  Extension Count: 0
  Display Product Primary Use Case: None of the listed primary use cases; generic display
  Dynamic Video Timing Range Limits Data Block:
    Minimum Pixel Clock: 408816 kHz
    Maximum Pixel Clock: 408816 kHz
    Minimum Vertical Refresh Rate: 48 Hz
    Maximum Vertical Refresh Rate: 90 Hz
    Seamless Dynamic Video Timing Support: Yes
  CTA-861 DisplayID Data Block:
  Vendor-Specific Data Block (AMD), OUI 00-00-1A:
    Version: 3.1
    Minimum Refresh Rate: 48 Hz
    Maximum Refresh Rate: 90 Hz
    Flags 1.x: 0x00
    Flags 2.x: 0x00
    Maximum luminance: 0 (50.000 cd/m^2)
    Minimum luminance: 0 (0.000 cd/m^2)
    Unknown: 0x00 0x00
  Checksum: 0xc3
Checksum: 0x90

----------------

Block 2, Unknown EDID Extension Block 0x00:
  00 ff ff ff ff ff ff 00 09 e5 51 0b 00 00 00 00 '..........Q.....'
  18 20 01 04 b5 1e 13 78 03 9e 05 a8 53 4b 9b 25 '. .....x....SK.%'
  0f 50 54 00 00 00 01 01 01 01 01 01 01 01 01 01 '.PT.............'
  01 01 01 01 01 01 b2 9f 00 a0 a0 40 46 60 30 20 '...........@F`0 '
  36 00 2e bc 10 00 00 1a 2c 55 00 a0 a0 40 46 60 '6.......,U...@F`'
  30 20 35 00 2e bc 10 00 00 1a 00 00 00 fe 00 4b '0 5............K'
  50 4e 50 4d 80 4e 45 31 34 4e 34 31 00 00 00 00 'PNPM.NE14N41....'
  00 03 41 29 9e 00 01 00 00 0b 41 0a 20 20 01 0f '..A)......A.  ..'
Checksum: 0x0f

----------------

Block 3, DisplayID Extension Block:
  Version: 2.0
  Extension Count: 0
  Dynamic Video Timing Range Limits Data Block:
    Minimum Pixel Clock: 408816 kHz
    Maximum Pixel Clock: 408816 kHz
    Minimum Vertical Refresh Rate: 48 Hz
    Maximum Vertical Refresh Rate: 90 Hz
    Seamless Dynamic Video Timing Support: Yes
  CTA-861 DisplayID Data Block:
  Vendor-Specific Data Block (AMD), OUI 00-00-1A:
    Version: 3.1
    Minimum Refresh Rate: 48 Hz
    Maximum Refresh Rate: 90 Hz
    Flags 1.x: 0x00
    Flags 2.x: 0x00
    Maximum luminance: 0 (50.000 cd/m^2)
    Minimum luminance: 0 (0.000 cd/m^2)
    Unknown: 0x00 0x00
  Checksum: 0xc3
Checksum: 0x90

----------------

Warnings:

Block 0, Base EDID:
  Missing Display Product Name.

Failures:

Block 0, Base EDID:
  Alphanumeric Data String: Non-printable character.
  Missing Display Range Limits Descriptor.
Block 1, DisplayID Extension Block:
  Expected 0 DisplayID Extension Block, but got 1.
Block 2, Base EDID:
  Unknown Extension Block.
Block 3, DisplayID Extension Block:
  Product Type should be 0 in extension block.
EDID:
  Base EDID: EDID specified 1 extension block(s), but found 3 extension block(s).
  DisplayID: Missing DisplayID Product Identification Data Block.
  DisplayID: Missing DisplayID Display Parameters Data Block.
  DisplayID: Missing DisplayID Display Interface Features Data Block.
  DisplayID: Missing DisplayID Type VII Detailed Timing Data Block.
  DisplayID: DisplayID expects at least one preferred timing.

EDID conformity: FAIL
