edid-decode (hex):

00 ff ff ff ff ff ff 00 15 c3 93 26 a9 aa 3c 01
17 19 01 03 80 3c 22 78 ea 12 e5 b1 4e 37 b6 25
0c 50 54 a1 08 00 a9 40 81 80 81 40 d1 c0 01 01
01 01 01 01 01 01 21 39 00 00 a3 a0 1c 50 78 08
35 10 55 50 21 00 00 1c 28 3c 80 a0 70 b0 23 40
30 20 36 00 55 50 21 00 00 1a 00 00 00 fd 00 1d
3d 1f 59 10 00 0a 20 20 20 20 20 20 00 00 00 fc
00 43 53 32 37 30 0a 20 20 20 20 20 20 20 00 f1

00 ff ff ff ff ff ff 00 15 c3 93 26 a9 aa 3c 01
17 19 01 03 80 3c 22 78 ea 12 e5 b1 4e 37 b6 25
0c 50 54 a1 08 00 a9 40 81 80 81 40 d1 c0 01 01
01 01 01 01 01 01 21 39 00 00 a3 a0 1c 50 78 08
35 10 55 50 21 00 00 1c 28 3c 80 a0 70 b0 23 40
30 20 36 00 55 50 21 00 00 1a 00 00 00 fd 00 1d
3d 1f 59 10 00 0a 20 20 20 20 20 20 00 00 00 fc
00 43 53 32 37 30 0a 20 20 20 20 20 20 20 00 f1

----------------

Block 0, Base EDID:
  EDID Structure Version & Revision: 1.3
  Vendor & Product Identification:
    Manufacturer: ENC
    Model: 9875
    Serial Number: ...
    Made in: week 23 of 2015
  Basic Display Parameters & Features:
    Digital display
    Maximum image size: 60 cm x 34 cm
    Gamma: 2.20
    DPMS levels: Standby Suspend Off
    RGB color display
    First detailed timing is the preferred timing
  Color Characteristics:
    Red  : 0.6914, 0.3056
    Green: 0.2148, 0.7128
    Blue : 0.1474, 0.0488
    White: 0.3134, 0.3291
  Established Timings I & II:
    IBM     :   720x400    70.081663 Hz   9:5     31.467 kHz     28.320000 MHz
    DMT 0x04:   640x480    59.940476 Hz   4:3     31.469 kHz     25.175000 MHz
    DMT 0x09:   800x600    60.316541 Hz   4:3     37.879 kHz     40.000000 MHz
    DMT 0x10:  1024x768    60.003840 Hz   4:3     48.363 kHz     65.000000 MHz
  Standard Timings:
    DMT 0x33:  1600x1200   60.000000 Hz   4:3     75.000 kHz    162.000000 MHz
    DMT 0x23:  1280x1024   60.019740 Hz   5:4     63.981 kHz    108.000000 MHz
    DMT 0x20:  1280x960    60.000000 Hz   4:3     60.000 kHz    108.000000 MHz
    DMT 0x52:  1920x1080   60.000000 Hz  16:9     67.500 kHz    148.500000 MHz
  Detailed Timing Descriptors:
    DTD 1:  2560x1440   29.935499 Hz  16:9     43.945 kHz    146.250000 MHz (597 mm x 336 mm)
                 Hfront  120 Hsync 264 Hback  384 Hpol N
                 Vfront    3 Vsync   5 Vback   20 Vpol P
    DTD 2:  1920x1200   59.950171 Hz  16:10    74.038 kHz    154.000000 MHz (597 mm x 336 mm)
                 Hfront   48 Hsync  32 Hback   80 Hpol P
                 Vfront    3 Vsync   6 Vback   26 Vpol N
    Display Range Limits:
      Monitor ranges (GTF): 29-61 Hz V, 31-89 kHz H, max dotclock 160 MHz
    Display Product Name: 'CS270'
Checksum: 0xf1

----------------

Block 1, Unknown EDID Extension Block 0x00:
  00 ff ff ff ff ff ff 00 15 c3 93 26 a9 aa 3c 01 '...........&..<.'
  17 19 01 03 80 3c 22 78 ea 12 e5 b1 4e 37 b6 25 '.....<"x....N7.%'
  0c 50 54 a1 08 00 a9 40 81 80 81 40 d1 c0 01 01 '.PT....@...@....'
  01 01 01 01 01 01 21 39 00 00 a3 a0 1c 50 78 08 '......!9.....Px.'
  35 10 55 50 21 00 00 1c 28 3c 80 a0 70 b0 23 40 '5.UP!...(<..p.#@'
  30 20 36 00 55 50 21 00 00 1a 00 00 00 fd 00 1d '0 6.UP!.........'
  3d 1f 59 10 00 0a 20 20 20 20 20 20 00 00 00 fc '=.Y...      ....'
  00 43 53 32 37 30 0a 20 20 20 20 20 20 20 00 f1 '.CS270.       ..'
Checksum: 0xf1

----------------

Failures:

Block 1, Base EDID:
  Unknown Extension Block.
EDID:
  Base EDID: Some timings are out of range of the Monitor Ranges:
    Vertical Freq: 29.935 - 70.082 Hz (Monitor: 29.000 - 61.000 Hz)
    Maximum Clock: 162.000 MHz (Monitor: 160.000 MHz)
  Base EDID: EDID specified 0 extension block(s), but found 1 extension block(s).

EDID conformity: FAIL
