
EDID (hex):
00ffffffffffff0021630c3301000000
1e170103085d3578eaaaaaa054469824
0e484ca1080081800101010101010101
010101010101662150b051001b304070
3600b9882100001e000000fd0038551f
4b11000a202020202020000000fc004c
4533324237303030430a2020000000ff
00534e2d3030303030303030310a0001

Extracted contents:
header:          00 ff ff ff ff ff ff 00
serial number:   21 63 0c 33 01 00 00 00 1e 17
version:         01 03
basic params:    08 5d 35 78 ea
chroma info:     aa aa a0 54 46 98 24 0e 48 4c
established:     a1 08 00
standard:        81 80 01 01 01 01 01 01 01 01 01 01 01 01 01 01
descriptor 1:    66 21 50 b0 51 00 1b 30 40 70 36 00 b9 88 21 00 00 1e
descriptor 2:    00 00 00 fd 00 38 55 1f 4b 11 00 0a 20 20 20 20 20 20
descriptor 3:    00 00 00 fc 00 4c 45 33 32 42 37 30 30 30 43 0a 20 20
descriptor 4:    00 00 00 ff 00 53 4e 2d 30 30 30 30 30 30 30 30 31 0a
extensions:      00
checksum:        01

EDID version: 1.3
Manufacturer: HKC Model 330c Serial Number --
Made in week 30 of 2013
Analog display, Input voltage level: 0.7/0.3 V
Sync: Separate 
Maximum image size: 93 cm x 53 cm
Gamma: 2.20
DPMS levels: Standby Suspend Off
RGB color display
First detailed timing is preferred timing
Display x,y Chromaticity:
  Red:   0.6269, 0.3300
  Green: 0.2753, 0.5957
  Blue:  0.1425, 0.0566
  White: 0.2832, 0.2988
Established timings supported:
  720x400@70Hz 9:5 HorFreq: 31469 Hz Clock: 28.320 MHz
  640x480@60Hz 4:3 HorFreq: 31469 Hz Clock: 25.175 MHz
  800x600@60Hz 4:3 HorFreq: 37900 Hz Clock: 40.000 MHz
  1024x768@60Hz 4:3 HorFreq: 48400 Hz Clock: 65.000 MHz
Standard timings supported:
  1280x1024@60Hz 5:4 HorFreq: 64000 Hz Clock: 108.000 MHz
Detailed mode: Clock 85.500 MHz, 697 mm x 392 mm
               1360 1424 1536 1792 hborder 0
                768  771  777  795 vborder 0
               +hsync +vsync 
               VertFreq: 60 Hz, HorFreq: 47712 Hz
Monitor ranges (GTF): 56-85Hz V, 31-75kHz H, max dotclock 170MHz
Monitor name: LE32B7000C
Serial number: --
Checksum: 0x1 (valid)
