edid-decode (hex):

00 ff ff ff ff ff ff 00 22 0e 35 40 00 00 00 00
01 1d 01 04 a5 3b 21 78 22 05 a5 a6 55 4e 9c 25
11 50 54 00 00 00 01 01 01 01 01 01 01 01 01 01
01 01 01 01 01 01 02 3a 80 18 71 38 2d 40 30 20
84 00 55 50 21 00 00 1e 00 00 00 10 00 00 00 00
00 00 00 00 00 00 00 00 00 00 00 00 00 10 00 00
00 00 00 00 00 00 00 00 00 00 00 00 00 00 00 fc
00 48 50 20 43 6f 6e 74 69 6e 6f 0a 20 20 00 90

00 ff ff ff ff ff ff 00 22 0e 35 40 00 00 00 00
01 1d 01 04 a5 3b 21 78 22 05 a5 a6 55 4e 9c 25
11 50 54 00 00 00 01 01 01 01 01 01 01 01 01 01
01 01 01 01 01 01 02 3a 80 18 71 38 2d 40 30 20
84 00 55 50 21 00 00 1e 00 00 00 10 00 00 00 00
00 00 00 00 00 00 00 00 00 00 00 00 00 10 00 00
00 00 00 00 00 00 00 00 00 00 00 00 00 00 00 fc
00 48 50 20 43 6f 6e 74 69 6e 6f 0a 20 20 00 90

----------------

Block 0, Base EDID:
  EDID Structure Version & Revision: 1.4
  Vendor & Product Identification:
    Manufacturer: HPN
    Model: 16437
    Made in: week 1 of 2019
  Basic Display Parameters & Features:
    Digital display
    Bits per primary color channel: 8
    DisplayPort interface
    Maximum image size: 59 cm x 33 cm
    Gamma: 2.20
    DPMS levels: Off
    Supported color formats: RGB 4:4:4
    First detailed timing includes the native pixel format and preferred refresh rate
  Color Characteristics:
    Red  : 0.6484, 0.3320
    Green: 0.3056, 0.6103
    Blue : 0.1464, 0.0683
    White: 0.3134, 0.3291
  Established Timings I & II: none
  Standard Timings: none
  Detailed Timing Descriptors:
    DTD 1:  1920x1080   60.000000 Hz  16:9     67.500 kHz    148.500000 MHz (597 mm x 336 mm)
                 Hfront   48 Hsync  32 Hback  200 Hpol P
                 Vfront    8 Vsync   4 Vback   33 Vpol P
    Dummy Descriptor:
    Dummy Descriptor:
    Display Product Name: 'HP Contino'
Checksum: 0x90

----------------

Block 1, Unknown EDID Extension Block 0x00:
  00 ff ff ff ff ff ff 00 22 0e 35 40 00 00 00 00 '........".5@....'
  01 1d 01 04 a5 3b 21 78 22 05 a5 a6 55 4e 9c 25 '.....;!x"...UN.%'
  11 50 54 00 00 00 01 01 01 01 01 01 01 01 01 01 '.PT.............'
  01 01 01 01 01 01 02 3a 80 18 71 38 2d 40 30 20 '.......:..q8-@0 '
  84 00 55 50 21 00 00 1e 00 00 00 10 00 00 00 00 '..UP!...........'
  00 00 00 00 00 00 00 00 00 00 00 00 00 10 00 00 '................'
  00 00 00 00 00 00 00 00 00 00 00 00 00 00 00 fc '................'
  00 48 50 20 43 6f 6e 74 69 6e 6f 0a 20 20 00 90 '.HP Contino.  ..'
Checksum: 0x90

----------------

Warnings:

Block 0, Base EDID:
  Detailed Timing Descriptor #1: DTD is similar but not identical to VIC 16.

Failures:

Block 1, Base EDID:
  Unknown Extension Block.
EDID:
  Base EDID: EDID specified 0 extension block(s), but found 1 extension block(s).

EDID conformity: FAIL
