
EDID (hex):
00ffffffffffff0008590b0b01000000
06140103085d3478cad258a3544a9926
0f474aa1080081800101010101010101
0101010101011a3680a070381f403020
350034cc3100001a000000fd003b471f
440f000a202020202020662150b05100
1b304070350034cc3100001e000000fc
004e532d3332453537304131310a00fd

Extracted contents:
header:          00 ff ff ff ff ff ff 00
serial number:   08 59 0b 0b 01 00 00 00 06 14
version:         01 03
basic params:    08 5d 34 78 ca
chroma info:     d2 58 a3 54 4a 99 26 0f 47 4a
established:     a1 08 00
standard:        81 80 01 01 01 01 01 01 01 01 01 01 01 01 01 01
descriptor 1:    1a 36 80 a0 70 38 1f 40 30 20 35 00 34 cc 31 00 00 1a
descriptor 2:    00 00 00 fd 00 3b 47 1f 44 0f 00 0a 20 20 20 20 20 20
descriptor 3:    66 21 50 b0 51 00 1b 30 40 70 35 00 34 cc 31 00 00 1e
descriptor 4:    00 00 00 fc 00 4e 53 2d 33 32 45 35 37 30 41 31 31 0a
extensions:      00
checksum:        fd

EDID version: 1.3
Manufacturer: BBY Model b0b Serial Number --
Made in week 6 of 2010
Analog display, Input voltage level: 0.7/0.3 V
Sync: Separate 
Maximum image size: 93 cm x 52 cm
Gamma: 2.20
DPMS levels: Standby Suspend
RGB color display
First detailed timing is preferred timing
Display x,y Chromaticity:
  Red:   0.6396, 0.3291
  Green: 0.2890, 0.5996
  Blue:  0.1494, 0.0595
  White: 0.2792, 0.2890
Established timings supported:
  720x400@70Hz 9:5 HorFreq: 31469 Hz Clock: 28.320 MHz
  640x480@60Hz 4:3 HorFreq: 31469 Hz Clock: 25.175 MHz
  800x600@60Hz 4:3 HorFreq: 37900 Hz Clock: 40.000 MHz
  1024x768@60Hz 4:3 HorFreq: 48400 Hz Clock: 65.000 MHz
Standard timings supported:
  1280x1024@60Hz 5:4 HorFreq: 64000 Hz Clock: 108.000 MHz
Detailed mode: Clock 138.500 MHz, 820 mm x 460 mm
               1920 1968 2000 2080 hborder 0
               1080 1083 1088 1111 vborder 0
               +hsync -vsync 
               VertFreq: 59 Hz, HorFreq: 66586 Hz
Monitor ranges (GTF): 59-71Hz V, 31-68kHz H, max dotclock 150MHz
Detailed mode: Clock 85.500 MHz, 820 mm x 460 mm
               1360 1424 1536 1792 hborder 0
                768  771  776  795 vborder 0
               +hsync +vsync 
               VertFreq: 60 Hz, HorFreq: 47712 Hz
Monitor name: NS-32E570A11
Checksum: 0xfd (valid)
EDID block does not conform at all!
	Invalid detailed timing descriptor ordering
