
EDID (hex):
00ffffffffffff0009e5cc0a00000000
021e0104a52213780395b1965d5a9229
1e4e5200000001010101010101010101
01010101010188918018713860403020
360058c21000001a0000000000000000
00000000000000000000000000fe0042
4f452043510a202020202020000000fe
004e5631353646484d2d4e58340a006c

Extracted contents:
header:          00 ff ff ff ff ff ff 00
serial number:   09 e5 cc 0a 00 00 00 00 02 1e
version:         01 04
basic params:    a5 22 13 78 03
chroma info:     95 b1 96 5d 5a 92 29 1e 4e 52
established:     00 00 00
standard:        01 01 01 01 01 01 01 01 01 01 01 01 01 01 01 01
descriptor 1:    88 91 80 18 71 38 60 40 30 20 36 00 58 c2 10 00 00 1a
descriptor 2:    00 00 00 00 00 00 00 00 00 00 00 00 00 00 00 00 00 00
descriptor 3:    00 00 00 fe 00 42 4f 45 20 43 51 0a 20 20 20 20 20 20
descriptor 4:    00 00 00 fe 00 4e 56 31 35 36 46 48 4d 2d 4e 58 34 0a
extensions:      00
checksum:        6c

EDID version: 1.4
Manufacturer: BOE Model acc Serial Number --
Made in week 2 of 2020
Digital display
8 bits per primary color channel
DisplayPort interface
Maximum image size: 34 cm x 19 cm
Gamma: 2.20
Supported color formats: RGB 4:4:4
First detailed timing includes the native pixel format and preferred refresh rate
Display is continuous frequency
Display x,y Chromaticity:
  Red:   0.5878, 0.3642
  Green: 0.3525, 0.5712
  Blue:  0.1621, 0.1201
  White: 0.3046, 0.3212
Established timings supported:
Standard timings supported:
Detailed mode: Clock 372.560 MHz, 344 mm x 194 mm
               1920 1968 2000 2200 hborder 0
               1080 1083 1089 1176 vborder 0
               +hsync -vsync 
               VertFreq: 144 Hz, HorFreq: 169345 Hz
Manufacturer-specified data, tag 0
ASCII string: BOE CQ
ASCII string: NV156FHM-NX4
Checksum: 0x6c (valid)
EDID block does NOT conform to EDID 1.4!
	Missing name descriptor
	Missing monitor ranges


