
EDID (hex):
00ffffffffffff0034ac3246260f0000
020d01030e281e78eb9c68a0574a9b26
12484cffef80315945596159714f8199
a94fd159e159a659403062b0324040c0
13008c291100001e000000fd0032a01e
8c2a000a202020202020000000fc0044
50726f203230373053420a20000000ff
003330313130333837380a20202000d5

Extracted contents:
header:          00 ff ff ff ff ff ff 00
serial number:   34 ac 32 46 26 0f 00 00 02 0d
version:         01 03
basic params:    0e 28 1e 78 eb
chroma info:     9c 68 a0 57 4a 9b 26 12 48 4c
established:     ff ef 80
standard:        31 59 45 59 61 59 71 4f 81 99 a9 4f d1 59 e1 59
descriptor 1:    a6 59 40 30 62 b0 32 40 40 c0 13 00 8c 29 11 00 00 1e
descriptor 2:    00 00 00 fd 00 32 a0 1e 8c 2a 00 0a 20 20 20 20 20 20
descriptor 3:    00 00 00 fc 00 44 50 72 6f 20 32 30 37 30 53 42 0a 20
descriptor 4:    00 00 00 ff 00 33 30 31 31 30 33 38 37 38 0a 20 20 20
extensions:      00
checksum:        d5

EDID version: 1.3
Manufacturer: MEL Model 4632 Serial Number --
Analog display, Input voltage level: 0.7/0.3 V
Sync: Separate Composite SyncOnGreen 
Maximum image size: 40 cm x 30 cm
Gamma: 2.20
DPMS levels: Standby Suspend Off
RGB color display
First detailed timing is preferred timing
Supports GTF timings within operating range
Display x,y Chromaticity:
  Red:   0.6269, 0.3408
  Green: 0.2919, 0.6054
  Blue:  0.1494, 0.0722
  White: 0.2832, 0.2968
Established timings supported:
  720x400@70Hz 9:5 HorFreq: 31469 Hz Clock: 28.320 MHz
  720x400@88Hz 9:5 HorFreq: 39500 Hz Clock: 35.500 MHz
  640x480@60Hz 4:3 HorFreq: 31469 Hz Clock: 25.175 MHz
  640x480@67Hz 4:3 HorFreq: 35000 Hz Clock: 30.240 MHz
  640x480@72Hz 4:3 HorFreq: 37900 Hz Clock: 31.500 MHz
  640x480@75Hz 4:3 HorFreq: 37500 Hz Clock: 31.500 MHz
  800x600@56Hz 4:3 HorFreq: 35200 Hz Clock: 36.000 MHz
  800x600@60Hz 4:3 HorFreq: 37900 Hz Clock: 40.000 MHz
  800x600@72Hz 4:3 HorFreq: 48100 Hz Clock: 50.000 MHz
  800x600@75Hz 4:3 HorFreq: 46900 Hz Clock: 49.500 MHz
  832x624@75Hz 4:3 HorFreq: 49726 Hz Clock: 57.284 MHz
  1024x768@60Hz 4:3 HorFreq: 48400 Hz Clock: 65.000 MHz
  1024x768@70Hz 4:3 HorFreq: 56500 Hz Clock: 75.000 MHz
  1024x768@75Hz 4:3 HorFreq: 60000 Hz Clock: 78.750 MHz
  1280x1024@75Hz 5:4 HorFreq: 80000 Hz Clock: 135.000 MHz
  1152x870@75Hz 192:145 HorFreq: 67500 Hz Clock: 108.000 MHz
Standard timings supported:
  640x480@85Hz 4:3 HorFreq: 43300 Hz Clock: 36.000 MHz
  800x600@85Hz 4:3 HorFreq: 53700 Hz Clock: 56.250 MHz
  1024x768@85Hz 4:3 HorFreq: 68700 Hz Clock: 94.500 MHz
  1152x864@75Hz 4:3 HorFreq: 67500 Hz Clock: 108.000 MHz
  1280x1024@85Hz 5:4 HorFreq: 91100 Hz Clock: 157.500 MHz
  1600x1200@75Hz 4:3 HorFreq: 93800 Hz Clock: 202.500 MHz
  1920x1440@85Hz 4:3
  2048x1536@85Hz 4:3
Detailed mode: Clock 229.500 MHz, 396 mm x 297 mm
               1600 1664 1856 2160 hborder 0
               1200 1201 1204 1250 vborder 0
               +hsync +vsync 
               VertFreq: 85 Hz, HorFreq: 106250 Hz
Monitor ranges (GTF): 50-160Hz V, 30-140kHz H, max dotclock 420MHz
Monitor name: DPro 2070SB
Serial number: --
Checksum: 0xd5 (valid)
EDID block does not conform at all!
	Bad year of manufacture
