
EDID (hex):
00ffffffffffff00418e1020be0e0000
0611010368281e782e9d60a359479a24
115054afcf007140714f814081809040
010101010101a82f78d0511a27405890
3400902c1100001c000000ff00503738
3037324a413033373734000000fd0037
4b1d520d000a202020202020000000fc
005045323031300a20202020202000d2

Extracted contents:
header:          00 ff ff ff ff ff ff 00
serial number:   41 8e 10 20 be 0e 00 00 06 11
version:         01 03
basic params:    68 28 1e 78 2e
chroma info:     9d 60 a3 59 47 9a 24 11 50 54
established:     af cf 00
standard:        71 40 71 4f 81 40 81 80 90 40 01 01 01 01 01 01
descriptor 1:    a8 2f 78 d0 51 1a 27 40 58 90 34 00 90 2c 11 00 00 1c
descriptor 2:    00 00 00 ff 00 50 37 38 30 37 32 4a 41 30 33 37 37 34
descriptor 3:    00 00 00 fd 00 37 4b 1d 52 0d 00 0a 20 20 20 20 20 20
descriptor 4:    00 00 00 fc 00 50 45 32 30 31 30 0a 20 20 20 20 20 20
extensions:      00
checksum:        d2

EDID version: 1.3
Manufacturer: PLN Model 2010 Serial Number --
Made in week 6 of 2007
Analog display, Input voltage level: 0.7/0.7 V
Sync: Separate 
Maximum image size: 40 cm x 30 cm
Gamma: 2.20
DPMS levels: Off
RGB color display
Default (sRGB) color space is primary color space
First detailed timing is preferred timing
Display x,y Chromaticity:
  Red:   0.6386, 0.3486
  Green: 0.2802, 0.6025
  Blue:  0.1416, 0.0683
  White: 0.3125, 0.3281
Established timings supported:
  720x400@70Hz 9:5 HorFreq: 31469 Hz Clock: 28.320 MHz
  640x480@60Hz 4:3 HorFreq: 31469 Hz Clock: 25.175 MHz
  640x480@72Hz 4:3 HorFreq: 37900 Hz Clock: 31.500 MHz
  640x480@75Hz 4:3 HorFreq: 37500 Hz Clock: 31.500 MHz
  800x600@56Hz 4:3 HorFreq: 35200 Hz Clock: 36.000 MHz
  800x600@60Hz 4:3 HorFreq: 37900 Hz Clock: 40.000 MHz
  800x600@72Hz 4:3 HorFreq: 48100 Hz Clock: 50.000 MHz
  800x600@75Hz 4:3 HorFreq: 46900 Hz Clock: 49.500 MHz
  1024x768@60Hz 4:3 HorFreq: 48400 Hz Clock: 65.000 MHz
  1024x768@70Hz 4:3 HorFreq: 56500 Hz Clock: 75.000 MHz
  1024x768@75Hz 4:3 HorFreq: 60000 Hz Clock: 78.750 MHz
  1280x1024@75Hz 5:4 HorFreq: 80000 Hz Clock: 135.000 MHz
Standard timings supported:
  1152x864@60Hz 4:3
  1152x864@75Hz 4:3 HorFreq: 67500 Hz Clock: 108.000 MHz
  1280x960@60Hz 4:3 HorFreq: 60000 Hz Clock: 108.000 MHz
  1280x1024@60Hz 5:4 HorFreq: 64000 Hz Clock: 108.000 MHz
  1400x1050@60Hz 4:3 HorFreq: 64700 Hz Clock: 101.000 MHz
Detailed mode: Clock 122.000 MHz, 400 mm x 300 mm
               1400 1488 1632 1864 hborder 0
               1050 1053 1057 1089 vborder 0
               -hsync +vsync 
               VertFreq: 60 Hz, HorFreq: 65450 Hz
Serial number: --
Monitor ranges (GTF): 55-75Hz V, 29-82kHz H, max dotclock 130MHz
Monitor name: PE2010
Checksum: 0xd2 (valid)
EDID block does NOT conform to EDID 1.3!
	sRGB is signaled, but the chromaticities do not match
One or more of the timings is out of range of the Monitor Ranges:
  Vertical Freq: 56 - 75 Hz
  Horizontal Freq: 31469 - 80000 Hz
  Maximum Clock: 135.000 MHz
