edid-decode (hex):

00 ff ff ff ff ff ff 00 38 70 4c 00 00 00 00 00
14 1d 01 04 95 1d 11 78 02 11 40 96 5c 57 8d 27
1c 50 54 00 00 00 01 01 01 01 01 01 01 01 01 01
01 01 01 01 01 01 29 36 80 a0 70 38 1f 40 30 20
35 00 26 a5 10 00 00 1a 52 2b 80 a0 70 38 1f 40
30 20 35 00 26 a5 10 00 00 1a 00 00 00 fe 00 39
58 36 48 56 80 31 33 33 36 4c 30 33 00 00 00 00
00 00 41 21 96 00 10 00 00 0a 01 0a 20 20 00 a7

00 ff ff ff ff ff ff 00 38 70 4c 00 00 00 00 00
14 1d 01 04 95 1d 11 78 02 11 40 96 5c 57 8d 27
1c 50 54 00 00 00 01 01 01 01 01 01 01 01 01 01
01 01 01 01 01 01 29 36 80 a0 70 38 1f 40 30 20
35 00 26 a5 10 00 00 1a 52 2b 80 a0 70 38 1f 40
30 20 35 00 26 a5 10 00 00 1a 00 00 00 fe 00 39
58 36 48 56 80 31 33 33 36 4c 30 33 00 00 00 00
00 00 41 21 96 00 10 00 00 0a 01 0a 20 20 00 a7

----------------

Block 0, Base EDID:
  EDID Structure Version & Revision: 1.4
  Vendor & Product Identification:
    Manufacturer: NCP
    Model: 76
    Made in: week 20 of 2019
  Basic Display Parameters & Features:
    Digital display
    Bits per primary color channel: 6
    DisplayPort interface
    Maximum image size: 29 cm x 17 cm
    Gamma: 2.20
    Supported color formats: RGB 4:4:4
    First detailed timing includes the native pixel format and preferred refresh rate
  Color Characteristics:
    Red  : 0.5859, 0.3603
    Green: 0.3398, 0.5517
    Blue : 0.1533, 0.1093
    White: 0.3125, 0.3281
  Established Timings I & II: none
  Standard Timings: none
  Detailed Timing Descriptors:
    DTD 1:  1920x1080   59.998788 Hz  16:9     66.659 kHz    138.650000 MHz (294 mm x 165 mm)
                 Hfront   48 Hsync  32 Hback   80 Hpol P
                 Vfront    3 Vsync   5 Vback   23 Vpol N
    DTD 2:  1920x1080   47.990376 Hz  16:9     53.317 kHz    110.900000 MHz (294 mm x 165 mm)
                 Hfront   48 Hsync  32 Hback   80 Hpol P
                 Vfront    3 Vsync   5 Vback   23 Vpol N
    Alphanumeric Data String: '9X6HV'
    Manufacturer-Specified Display Descriptor (0x00): 00 00 00 00 41 21 96 00 10 00 00 0a 01 0a 20 20 '....A!........  '
Checksum: 0xa7

----------------

Block 1, Unknown EDID Extension Block 0x00:
  00 ff ff ff ff ff ff 00 38 70 4c 00 00 00 00 00 '........8pL.....'
  14 1d 01 04 95 1d 11 78 02 11 40 96 5c 57 8d 27 '.......x..@.\W.''
  1c 50 54 00 00 00 01 01 01 01 01 01 01 01 01 01 '.PT.............'
  01 01 01 01 01 01 29 36 80 a0 70 38 1f 40 30 20 '......)6..p8.@0 '
  35 00 26 a5 10 00 00 1a 52 2b 80 a0 70 38 1f 40 '5.&.....R+..p8.@'
  30 20 35 00 26 a5 10 00 00 1a 00 00 00 fe 00 39 '0 5.&..........9'
  58 36 48 56 80 31 33 33 36 4c 30 33 00 00 00 00 'X6HV.1336L03....'
  00 00 41 21 96 00 10 00 00 0a 01 0a 20 20 00 a7 '..A!........  ..'
Checksum: 0xa7

----------------

Warnings:

Block 0, Base EDID:
  Missing Display Product Name.

Failures:

Block 0, Base EDID:
  Alphanumeric Data String: Non-printable character.
Block 1, Base EDID:
  Unknown Extension Block.
EDID:
  Base EDID: EDID specified 0 extension block(s), but found 1 extension block(s).

EDID conformity: FAIL
