edid-decode (hex):

00 ff ff ff ff ff ff 00 30 e4 54 05 a1 00 00 0d
00 1a 01 04 a5 20 15 78 03 ee 95 a3 54 4c 99 26
0f 50 54 00 00 00 01 01 01 01 01 01 01 01 01 01
01 01 01 01 01 01 0d b1 a8 a0 c0 70 3e 80 30 20
3a 00 3d d3 10 00 00 19 00 00 00 fd 00 30 3c 00
00 2d 04 0a 14 14 14 14 14 14 00 00 00 fe 00 4c
47 44 5f 4d 50 30 2e 30 5f 0a 20 20 00 00 00 fe
00 4c 50 31 35 30 51 44 31 31 32 36 30 34 00 61

----------------

Block 0, Base EDID:
  EDID Structure Version & Revision: 1.4
  Vendor & Product Identification:
    Manufacturer: LGD
    Model: 1364
    Serial Number: ...
    Made in: 2016
  Basic Display Parameters & Features:
    Digital display
    Bits per primary color channel: 8
    DisplayPort interface
    Maximum image size: 32 cm x 21 cm
    Gamma: 2.20
    Supported color formats: RGB 4:4:4
    First detailed timing includes the native pixel format and preferred refresh rate
    Display is continuous frequency
  Color Characteristics:
    Red  : 0.6396, 0.3300
    Green: 0.2998, 0.5996
    Blue : 0.1503, 0.0595
    White: 0.3134, 0.3291
  Established Timings I & II: none
  Standard Timings: none
  Detailed Timing Descriptors:
    DTD 1:  3240x2160   59.995 Hz   3:2   133.309 kHz 453.250 MHz (317 mm x 211 mm)
                 Hfront   48 Hsync  32 Hback  80 Hpol N
                 Vfront    3 Vsync  10 Vback  49 Vpol N
  Display Range Limits:
    Monitor ranges (CVT): 48-60 Hz V, 0-0 kHz H, max dotclock 450 MHz
    CVT version 0.10
    Real max dotclock: 448.75 MHz
    Max active pixels per line: 160
    Supported aspect ratios: 5:4
    Preferred aspect ratio: 4:3
    Supports CVT reduced blanking
    Supported display scaling:
      Vertical stretch
    Preferred vertical refresh: 20 Hz
    Alphanumeric Data String: 'LGD_MP0.0_'
    Alphanumeric Data String: 'LP150QD112604'
Checksum: 0x61

----------------

Warnings:

EDID:
  Base EDID: Some timings are out of range of the Monitor Ranges:
    Maximum Clock: 453.250 MHz (Monitor: 450.000 MHz)
    Could be due to a Monitor Range off-by-one rounding issue

Failures:

Block 0, Base EDID:
  Display Range Limits: Reserved bits of byte 14 are non-zero.
  Display Range Limits: Reserved bits of byte 15 are non-zero.
  Display Range Limits: Reserved bits of byte 16 are non-zero.
  Missing Display Product Name.

EDID conformity: FAIL
