
EDID (hex):
00ffffffffffff0030e45405a100000d
001a0104a520157803ee95a3544c9926
0f505400000001010101010101010101
0101010101010db1a8a0c0703e803020
3a003dd310000019000000fd00303c00
002d040a141414141414000000fe004c
47445f4d50302e305f0a2020000000fe
004c5031353051443131323630340061

Extracted contents:
header:          00 ff ff ff ff ff ff 00
serial number:   30 e4 54 05 a1 00 00 0d 00 1a
version:         01 04
basic params:    a5 20 15 78 03
chroma info:     ee 95 a3 54 4c 99 26 0f 50 54
established:     00 00 00
standard:        01 01 01 01 01 01 01 01 01 01 01 01 01 01 01 01
descriptor 1:    0d b1 a8 a0 c0 70 3e 80 30 20 3a 00 3d d3 10 00 00 19
descriptor 2:    00 00 00 fd 00 30 3c 00 00 2d 04 0a 14 14 14 14 14 14
descriptor 3:    00 00 00 fe 00 4c 47 44 5f 4d 50 30 2e 30 5f 0a 20 20
descriptor 4:    00 00 00 fe 00 4c 50 31 35 30 51 44 31 31 32 36 30 34
extensions:      00
checksum:        61

EDID version: 1.4
Manufacturer: LGD Model 554 Serial Number --
Made in year 2016
Digital display
8 bits per primary color channel
DisplayPort interface
Maximum image size: 32 cm x 21 cm
Gamma: 2.20
Supported color formats: RGB 4:4:4
First detailed timing includes the native pixel format and preferred refresh rate
Display is continuous frequency
Display x,y Chromaticity:
  Red:   0.6396, 0.3300
  Green: 0.2998, 0.5996
  Blue:  0.1503, 0.0595
  White: 0.3134, 0.3291
Established timings supported:
Standard timings supported:
Detailed mode: Clock 453.250 MHz, 317 mm x 211 mm
               3240 3288 3320 3400 hborder 0
               2160 2163 2173 2222 vborder 0
               -hsync -vsync 
               VertFreq: 59 Hz, HorFreq: 133308 Hz
Monitor ranges (CVT): 48-60Hz V, 0-0kHz H, max dotclock 450MHz
CVT version 0.10
Real max dotclock: 448.75MHz
Max active pixels per line: 160
Supported aspect ratios:    5:4 
Preferred aspect ratio: 4:3
Supports CVT reduced blanking
Supported display scaling:
    Vertical stretch
Preferred vertical refresh: 20 Hz
ASCII string: LGD_MP0.0_
ASCII string: LP150QD112604
Checksum: 0x61 (valid)
EDID block does NOT conform to EDID 1.4!
	Missing name descriptor
EDID block does not conform at all!
	Detailed blocks filled with garbage
	Range descriptor contains garbage
