
EDID (hex):
00ffffffffffff002283991770070000
290b0102081e1676e898cf9e54479723
1c4c4cafce0001010101010101010101
01010101010164190040410026301888
360030e410000018000000fd00384b1f
3c08000a202020202020000000fc0043
4d4c313532580a2020202020000000ff
0048314a3030313930340a20202000ef

Extracted contents:
header:          00 ff ff ff ff ff ff 00
serial number:   22 83 99 17 70 07 00 00 29 0b
version:         01 02
basic params:    08 1e 16 76 e8
chroma info:     98 cf 9e 54 47 97 23 1c 4c 4c
established:     af ce 00
standard:        01 01 01 01 01 01 01 01 01 01 01 01 01 01 01 01
descriptor 1:    64 19 00 40 41 00 26 30 18 88 36 00 30 e4 10 00 00 18
descriptor 2:    00 00 00 fd 00 38 4b 1f 3c 08 00 0a 20 20 20 20 20 20
descriptor 3:    00 00 00 fc 00 43 4d 4c 31 35 32 58 0a 20 20 20 20 20
descriptor 4:    00 00 00 ff 00 48 31 4a 30 30 31 39 30 34 0a 20 20 20
extensions:      00
checksum:        ef

EDID version: 1.2
Manufacturer: HTC Model 1799 Serial Number --
Analog display, Input voltage level: 0.7/0.3 V
Sync: Separate 
Maximum image size: 30 cm x 22 cm
Gamma: 2.18
DPMS levels: Standby Suspend Off
RGB color display
Display x,y Chromaticity:
  Red:   0.6191, 0.3291
  Green: 0.2792, 0.5898
  Blue:  0.1396, 0.1093
  White: 0.2998, 0.2998
Established timings supported:
  720x400@70Hz 9:5 HorFreq: 31469 Hz Clock: 28.320 MHz
  640x480@60Hz 4:3 HorFreq: 31469 Hz Clock: 25.175 MHz
  640x480@72Hz 4:3 HorFreq: 37900 Hz Clock: 31.500 MHz
  640x480@75Hz 4:3 HorFreq: 37500 Hz Clock: 31.500 MHz
  800x600@56Hz 4:3 HorFreq: 35200 Hz Clock: 36.000 MHz
  800x600@60Hz 4:3 HorFreq: 37900 Hz Clock: 40.000 MHz
  800x600@72Hz 4:3 HorFreq: 48100 Hz Clock: 50.000 MHz
  800x600@75Hz 4:3 HorFreq: 46900 Hz Clock: 49.500 MHz
  1024x768@60Hz 4:3 HorFreq: 48400 Hz Clock: 65.000 MHz
  1024x768@70Hz 4:3 HorFreq: 56500 Hz Clock: 75.000 MHz
  1024x768@75Hz 4:3 HorFreq: 60000 Hz Clock: 78.750 MHz
Standard timings supported:
Detailed mode: Clock 65.000 MHz, 304 mm x 228 mm
               1024 1048 1184 1344 hborder 0
                768  771  777  806 vborder 0
               -hsync -vsync 
               VertFreq: 60 Hz, HorFreq: 48363 Hz
Monitor ranges (GTF): 56-75Hz V, 31-60kHz H, max dotclock 80MHz
Monitor name: CML152X
Serial number: --
Checksum: 0xef (valid)
EDID block does not conform at all!
	Bad year of manufacture
