edid-decode (hex):

00 ff ff ff ff ff ff 00 30 61 c0 24 01 00 00 00
0e 14 01 03 80 34 20 78 ea 83 72 ac 51 30 b2 25
10 50 53 bf cf 80 31 4a a9 40 81 80 d1 c0 81 c0
01 01 01 01 01 01 34 3c 80 a0 70 b0 23 40 30 20
26 00 06 44 21 00 00 1e 03 3a 80 18 71 38 2d 40
28 40 82 08 06 44 21 00 00 1e 00 00 00 ff 00 43
4c 32 34 43 47 47 32 53 30 32 37 32 00 00 00 fc
00 4c 61 43 69 65 20 33 32 34 69 0a 20 20 00 8a

----------------

Block 0, Base EDID:
  EDID Structure Version & Revision: 1.3
  Vendor & Product Identification:
    Manufacturer: LCA
    Model: 9408
    Serial Number: ...
    Made in: week 14 of 2010
  Basic Display Parameters & Features:
    Digital display
    Maximum image size: 52 cm x 32 cm
    Gamma: 2.20
    DPMS levels: Standby Suspend Off
    RGB color display
    First detailed timing is preferred timing
  Color Characteristics:
    Red  : 0.6738, 0.3164
    Green: 0.1875, 0.6982
    Blue : 0.1455, 0.0654
    White: 0.3125, 0.3261
  Established Timings I & II:
    IBM     :   720x400    70.082 Hz   9:5    31.467 kHz  28.320 MHz
    DMT 0x04:   640x480    59.940 Hz   4:3    31.469 kHz  25.175 MHz
    Apple   :   640x480    66.667 Hz   4:3    35.000 kHz  30.240 MHz
    DMT 0x05:   640x480    72.809 Hz   4:3    37.861 kHz  31.500 MHz
    DMT 0x06:   640x480    75.000 Hz   4:3    37.500 kHz  31.500 MHz
    DMT 0x08:   800x600    56.250 Hz   4:3    35.156 kHz  36.000 MHz
    DMT 0x09:   800x600    60.317 Hz   4:3    37.879 kHz  40.000 MHz
    DMT 0x0a:   800x600    72.188 Hz   4:3    48.077 kHz  50.000 MHz
    DMT 0x0b:   800x600    75.000 Hz   4:3    46.875 kHz  49.500 MHz
    DMT 0x10:  1024x768    60.004 Hz   4:3    48.363 kHz  65.000 MHz
    DMT 0x11:  1024x768    70.069 Hz   4:3    56.476 kHz  75.000 MHz
    DMT 0x12:  1024x768    75.029 Hz   4:3    60.023 kHz  78.750 MHz
    DMT 0x24:  1280x1024   75.025 Hz   5:4    79.976 kHz 135.000 MHz
    Apple   :  1152x870    75.062 Hz 192:145  68.681 kHz 100.000 MHz
  Standard Timings:
    GTF     :   640x480    70.000 Hz   4:3    35.000 kHz  28.560 MHz
    DMT 0x33:  1600x1200   60.000 Hz   4:3    75.000 kHz 162.000 MHz
    DMT 0x23:  1280x1024   60.020 Hz   5:4    63.981 kHz 108.000 MHz
    DMT 0x52:  1920x1080   60.000 Hz  16:9    67.500 kHz 148.500 MHz
    DMT 0x55:  1280x720    60.000 Hz  16:9    45.000 kHz  74.250 MHz
  Detailed Timing Descriptors:
    DTD 1:  1920x1200   59.997 Hz   8:5    74.096 kHz 154.120 MHz (518 mm x 324 mm)
                 Hfront   48 Hsync  32 Hback  80 Hpol P
                 Vfront    2 Vsync   6 Vback  27 Vpol P
    DTD 2:  1920x1080   60.004 Hz  16:9    67.505 kHz 148.510 MHz (518 mm x 324 mm)
                 Hfront   40 Hsync  64 Hback 176 Hpol P
                 Vfront   40 Vsync   2 Vback   3 Vpol P
    Display Product Serial Number: ...
    Display Product Name: 'LaCie 324i'
Checksum: 0x8a

----------------

Failures:

Block 0, Base EDID:
  Missing Display Range Limits Descriptor.
All Blocks:
  GTF timings are used, but the EDID does not signal GTF support.

EDID conformity: FAIL
