
EDID (hex):
00ffffffffffff0006af742700000000
01120103902115780a07f597574f8c27
27505400000001010101010101010101
010101010101c71b00a5502014303020
36004bcf1000001ac71b00a550201430
302036004bcf1000001a000000fe0059
32383647804231353445573200000000
00293842496684b0ff01010a2020004d

Extracted contents:
header:          00 ff ff ff ff ff ff 00
serial number:   06 af 74 27 00 00 00 00 01 12
version:         01 03
basic params:    90 21 15 78 0a
chroma info:     07 f5 97 57 4f 8c 27 27 50 54
established:     00 00 00
standard:        01 01 01 01 01 01 01 01 01 01 01 01 01 01 01 01
descriptor 1:    c7 1b 00 a5 50 20 14 30 30 20 36 00 4b cf 10 00 00 1a
descriptor 2:    c7 1b 00 a5 50 20 14 30 30 20 36 00 4b cf 10 00 00 1a
descriptor 3:    00 00 00 fe 00 59 32 38 36 47 80 42 31 35 34 45 57 32
descriptor 4:    00 00 00 00 00 29 38 42 49 66 84 b0 ff 01 01 0a 20 20
extensions:      00
checksum:        4d

EDID version: 1.3
Manufacturer: AUO Model 2774 Serial Number --
Made in week 1 of 2008
Digital display
Maximum image size: 33 cm x 21 cm
Gamma: 2.20
RGB color display
First detailed timing is preferred timing
Display x,y Chromaticity:
  Red:   0.5898, 0.3398
  Green: 0.3095, 0.5498
  Blue:  0.1552, 0.1552
  White: 0.3134, 0.3291
Established timings supported:
Standard timings supported:
Detailed mode: Clock 71.110 MHz, 331 mm x 207 mm
               1280 1328 1360 1445 hborder 0
                800  803  809  820 vborder 0
               +hsync -vsync 
               VertFreq: 60 Hz, HorFreq: 49211 Hz
Detailed mode: Clock 71.110 MHz, 331 mm x 207 mm
               1280 1328 1360 1445 hborder 0
                800  803  809  820 vborder 0
               +hsync -vsync 
               VertFreq: 60 Hz, HorFreq: 49211 Hz
ASCII string: Y286G
Manufacturer-specified data, tag 0
Checksum: 0x4d (valid)
EDID block does NOT conform to EDID 1.3!
	Digital display field contains garbage: 10
	Missing name descriptor
	Missing monitor ranges
	Detailed block string not properly terminated
