
EDID (hex):
00ffffffffffff00158f4207141a0000
270e0103681e1778ea6d8c9859509326
204c52bfee00314f454f614f01010101
01010101010164190040410026301888
3600000000000000000000fc00455431
3532354c2d375557430a000000fd0037
4b1f3c080000000000000000000000fe
00200a0a0a0a0a0a0a0a0a0a0a0a00da

Extracted contents:
header:          00 ff ff ff ff ff ff 00
serial number:   15 8f 42 07 14 1a 00 00 27 0e
version:         01 03
basic params:    68 1e 17 78 ea
chroma info:     6d 8c 98 59 50 93 26 20 4c 52
established:     bf ee 00
standard:        31 4f 45 4f 61 4f 01 01 01 01 01 01 01 01 01 01
descriptor 1:    64 19 00 40 41 00 26 30 18 88 36 00 00 00 00 00 00 00
descriptor 2:    00 00 00 fc 00 45 54 31 35 32 35 4c 2d 37 55 57 43 0a
descriptor 3:    00 00 00 fd 00 37 4b 1f 3c 08 00 00 00 00 00 00 00 00
descriptor 4:    00 00 00 fe 00 20 0a 0a 0a 0a 0a 0a 0a 0a 0a 0a 0a 0a
extensions:      00
checksum:        da

EDID version: 1.3
Manufacturer: ELO Model 742 Serial Number --
Analog display, Input voltage level: 0.7/0.7 V
Sync: Separate 
Maximum image size: 30 cm x 23 cm
Gamma: 2.20
DPMS levels: Standby Suspend Off
RGB color display
First detailed timing is preferred timing
Display x,y Chromaticity:
  Red:   0.5947, 0.3496
  Green: 0.3154, 0.5751
  Blue:  0.1503, 0.1250
  White: 0.2998, 0.3203
Established timings supported:
  720x400@70Hz 9:5 HorFreq: 31469 Hz Clock: 28.320 MHz
  640x480@60Hz 4:3 HorFreq: 31469 Hz Clock: 25.175 MHz
  640x480@67Hz 4:3 HorFreq: 35000 Hz Clock: 30.240 MHz
  640x480@72Hz 4:3 HorFreq: 37900 Hz Clock: 31.500 MHz
  640x480@75Hz 4:3 HorFreq: 37500 Hz Clock: 31.500 MHz
  800x600@56Hz 4:3 HorFreq: 35200 Hz Clock: 36.000 MHz
  800x600@60Hz 4:3 HorFreq: 37900 Hz Clock: 40.000 MHz
  800x600@72Hz 4:3 HorFreq: 48100 Hz Clock: 50.000 MHz
  800x600@75Hz 4:3 HorFreq: 46900 Hz Clock: 49.500 MHz
  832x624@75Hz 4:3 HorFreq: 49726 Hz Clock: 57.284 MHz
  1024x768@60Hz 4:3 HorFreq: 48400 Hz Clock: 65.000 MHz
  1024x768@70Hz 4:3 HorFreq: 56500 Hz Clock: 75.000 MHz
  1024x768@75Hz 4:3 HorFreq: 60000 Hz Clock: 78.750 MHz
Standard timings supported:
  640x480@75Hz 4:3 HorFreq: 37500 Hz Clock: 31.500 MHz
  800x600@75Hz 4:3 HorFreq: 46900 Hz Clock: 49.500 MHz
  1024x768@75Hz 4:3 HorFreq: 60000 Hz Clock: 78.750 MHz
Detailed mode: Clock 65.000 MHz, 0 mm x 0 mm
               1024 1048 1184 1344 hborder 0
                768  771  777  806 vborder 0
               -hsync -vsync analog composite 
               VertFreq: 60 Hz, HorFreq: 48363 Hz
Monitor name: ET1525L-7UWC
Monitor ranges (GTF): 55-75Hz V, 31-60kHz H, max dotclock 80MHz
ASCII string:  
Checksum: 0xda (valid)
EDID block does NOT conform to EDID 1.3!
	Detailed block string not properly terminated
EDID block does not conform at all!
	Bad year of manufacture
