
EDID (hex):
00ffffffffffff0009e5660800000000
011d0104a52213780379c0a7514e9d27
11505400000001010101010101010101
01010101010152d000a0f0703e803020
350058c21000001a0000000000000000
0000000000000000001a000000fe0042
4f452048460a202020202020000000fe
004e4531353651554d2d4e36370a0009

Extracted contents:
header:          00 ff ff ff ff ff ff 00
serial number:   09 e5 66 08 00 00 00 00 01 1d
version:         01 04
basic params:    a5 22 13 78 03
chroma info:     79 c0 a7 51 4e 9d 27 11 50 54
established:     00 00 00
standard:        01 01 01 01 01 01 01 01 01 01 01 01 01 01 01 01
descriptor 1:    52 d0 00 a0 f0 70 3e 80 30 20 35 00 58 c2 10 00 00 1a
descriptor 2:    00 00 00 00 00 00 00 00 00 00 00 00 00 00 00 00 00 1a
descriptor 3:    00 00 00 fe 00 42 4f 45 20 48 46 0a 20 20 20 20 20 20
descriptor 4:    00 00 00 fe 00 4e 45 31 35 36 51 55 4d 2d 4e 36 37 0a
extensions:      00
checksum:        09

EDID version: 1.4
Manufacturer: BOE Model 866 Serial Number --
Made in week 1 of 2019
Digital display
8 bits per primary color channel
DisplayPort interface
Maximum image size: 34 cm x 19 cm
Gamma: 2.20
Supported color formats: RGB 4:4:4
First detailed timing includes the native pixel format and preferred refresh rate
Display is continuous frequency
Display x,y Chromaticity:
  Red:   0.6533, 0.3193
  Green: 0.3066, 0.6142
  Blue:  0.1552, 0.0664
  White: 0.3125, 0.3281
Established timings supported:
Standard timings supported:
Detailed mode: Clock 533.300 MHz, 344 mm x 194 mm
               3840 3888 3920 4000 hborder 0
               2160 2163 2168 2222 vborder 0
               +hsync -vsync 
               VertFreq: 60 Hz, HorFreq: 133325 Hz
Manufacturer-specified data, tag 0
ASCII string: BOE HF
ASCII string: NE156QUM-N67
Checksum: 0x9 (valid)
EDID block does NOT conform to EDID 1.4!
	Missing name descriptor
	Missing monitor ranges


