
EDID (hex):
00ffffffffffff002c82301100000000
311e0104951a0e7802e1c1945b599429
22505400000001010101010101010101
0101010101013e1c56a0500016302820
55000090100000180000000000000000
00000000000000000000000000000000
000000000000000000000000000000fe
004b443131364e3239333041303200f0

Extracted contents:
header:          00 ff ff ff ff ff ff 00
serial number:   2c 82 30 11 00 00 00 00 31 1e
version:         01 04
basic params:    95 1a 0e 78 02
chroma info:     e1 c1 94 5b 59 94 29 22 50 54
established:     00 00 00
standard:        01 01 01 01 01 01 01 01 01 01 01 01 01 01 01 01
descriptor 1:    3e 1c 56 a0 50 00 16 30 28 20 55 00 00 90 10 00 00 18
descriptor 2:    00 00 00 00 00 00 00 00 00 00 00 00 00 00 00 00 00 00
descriptor 3:    00 00 00 00 00 00 00 00 00 00 00 00 00 00 00 00 00 00
descriptor 4:    00 00 00 fe 00 4b 44 31 31 36 4e 32 39 33 30 41 30 32
extensions:      00
checksum:        f0

EDID version: 1.4
Manufacturer: KDB Model 1130 Serial Number --
Made in week 49 of 2020
Digital display
6 bits per primary color channel
DisplayPort interface
Maximum image size: 26 cm x 14 cm
Gamma: 2.20
Supported color formats: RGB 4:4:4
First detailed timing includes the native pixel format and preferred refresh rate
Display x,y Chromaticity:
  Red:   0.5810, 0.3574
  Green: 0.3476, 0.5791
  Blue:  0.1630, 0.1328
  White: 0.3125, 0.3291
Established timings supported:
Standard timings supported:
Detailed mode: Clock 72.300 MHz, 256 mm x 144 mm
               1366 1406 1438 1526 hborder 0
                768  773  778  790 vborder 0
               -hsync -vsync 
               VertFreq: 59 Hz, HorFreq: 47378 Hz
Manufacturer-specified data, tag 0
Manufacturer-specified data, tag 0
ASCII string: KD116N2930A02
Checksum: 0xf0 (valid)
EDID block does NOT conform to EDID 1.4!
	Missing name descriptor
	Missing monitor ranges
