
EDID (hex):
00ffffffffffff0022f0f22601010101
1b1201036e342078eaee96a3544c9926
0f5458a5080081408180a900a940b300
d1c0d1000101283c80a070b023403020
360006442100001a000000fd002f3d18
5014000a202020202020000000fc0048
50204c50323438307a780a20000000ff
0033434d383237303042500a20200090

Extracted contents:
header:          00 ff ff ff ff ff ff 00
serial number:   22 f0 f2 26 01 01 01 01 1b 12
version:         01 03
basic params:    6e 34 20 78 ea
chroma info:     ee 96 a3 54 4c 99 26 0f 54 58
established:     a5 08 00
standard:        81 40 81 80 a9 00 a9 40 b3 00 d1 c0 d1 00 01 01
descriptor 1:    28 3c 80 a0 70 b0 23 40 30 20 36 00 06 44 21 00 00 1a
descriptor 2:    00 00 00 fd 00 2f 3d 18 50 14 00 0a 20 20 20 20 20 20
descriptor 3:    00 00 00 fc 00 48 50 20 4c 50 32 34 38 30 7a 78 0a 20
descriptor 4:    00 00 00 ff 00 33 43 4d 38 32 37 30 30 42 50 0a 20 20
extensions:      00
checksum:        90

EDID version: 1.3
Manufacturer: HWP Model 26f2 Serial Number --
Made in week 27 of 2008
Analog display, Input voltage level: 0.7/0.7 V
Sync: Separate Composite SyncOnGreen 
Maximum image size: 52 cm x 32 cm
Gamma: 2.20
DPMS levels: Standby Suspend Off
RGB color display
First detailed timing is preferred timing
Display x,y Chromaticity:
  Red:   0.6396, 0.3300
  Green: 0.2998, 0.5996
  Blue:  0.1503, 0.0595
  White: 0.3291, 0.3457
Established timings supported:
  720x400@70Hz 9:5 HorFreq: 31469 Hz Clock: 28.320 MHz
  640x480@60Hz 4:3 HorFreq: 31469 Hz Clock: 25.175 MHz
  640x480@75Hz 4:3 HorFreq: 37500 Hz Clock: 31.500 MHz
  800x600@60Hz 4:3 HorFreq: 37900 Hz Clock: 40.000 MHz
  1024x768@60Hz 4:3 HorFreq: 48400 Hz Clock: 65.000 MHz
Standard timings supported:
  1280x960@60Hz 4:3 HorFreq: 60000 Hz Clock: 108.000 MHz
  1280x1024@60Hz 5:4 HorFreq: 64000 Hz Clock: 108.000 MHz
  1600x1000@60Hz 16:10
  1600x1200@60Hz 4:3 HorFreq: 75000 Hz Clock: 162.000 MHz
  1680x1050@60Hz 16:10 HorFreq: 64700 Hz Clock: 119.000 MHz
  1920x1080@60Hz 16:9
  1920x1200@60Hz 16:10 HorFreq: 74000 Hz Clock: 154.000 MHz
Detailed mode: Clock 154.000 MHz, 518 mm x 324 mm
               1920 1968 2000 2080 hborder 0
               1200 1203 1209 1235 vborder 0
               +hsync -vsync 
               VertFreq: 59 Hz, HorFreq: 74038 Hz
Monitor ranges (GTF): 47-61Hz V, 24-80kHz H, max dotclock 200MHz
Monitor name: HP LP2480zx
Serial number: --
Checksum: 0x90 (valid)
One or more of the timings is out of range of the Monitor Ranges:
  Vertical Freq: 59 - 75 Hz
  Horizontal Freq: 31469 - 75000 Hz
  Maximum Clock: 162.000 MHz
