
EDID (hex):
00ffffffffffff0009d102897bca0000
2d190103a000007802adf9a05a569325
104f58bdef8061c081c0810081809500
a940457c813ca00f200031581c202880
140000000000001e000000fd0017780f
6611000a202020202020000000fe0042
454e510a2020202020202020000000fc
0042656e5120504a0a20202020200049

Extracted contents:
header:          00 ff ff ff ff ff ff 00
serial number:   09 d1 02 89 7b ca 00 00 2d 19
version:         01 03
basic params:    a0 00 00 78 02
chroma info:     ad f9 a0 5a 56 93 25 10 4f 58
established:     bd ef 80
standard:        61 c0 81 c0 81 00 81 80 95 00 a9 40 45 7c 81 3c
descriptor 1:    a0 0f 20 00 31 58 1c 20 28 80 14 00 00 00 00 00 00 1e
descriptor 2:    00 00 00 fd 00 17 78 0f 66 11 00 0a 20 20 20 20 20 20
descriptor 3:    00 00 00 fe 00 42 45 4e 51 0a 20 20 20 20 20 20 20 20
descriptor 4:    00 00 00 fc 00 42 65 6e 51 20 50 4a 0a 20 20 20 20 20
extensions:      00
checksum:        49

EDID version: 1.3
Manufacturer: BNQ Model 8902 Serial Number --
Made in week 45 of 2015
Digital display
Image size is variable
Gamma: 2.20
Monochrome or grayscale display
First detailed timing is preferred timing
Display x,y Chromaticity:
  Red:   0.6269, 0.3535
  Green: 0.3388, 0.5751
  Blue:  0.1474, 0.0654
  White: 0.3105, 0.3447
Established timings supported:
  720x400@70Hz 9:5 HorFreq: 31469 Hz Clock: 28.320 MHz
  640x480@60Hz 4:3 HorFreq: 31469 Hz Clock: 25.175 MHz
  640x480@67Hz 4:3 HorFreq: 35000 Hz Clock: 30.240 MHz
  640x480@72Hz 4:3 HorFreq: 37900 Hz Clock: 31.500 MHz
  640x480@75Hz 4:3 HorFreq: 37500 Hz Clock: 31.500 MHz
  800x600@60Hz 4:3 HorFreq: 37900 Hz Clock: 40.000 MHz
  800x600@72Hz 4:3 HorFreq: 48100 Hz Clock: 50.000 MHz
  800x600@75Hz 4:3 HorFreq: 46900 Hz Clock: 49.500 MHz
  832x624@75Hz 4:3 HorFreq: 49726 Hz Clock: 57.284 MHz
  1024x768@60Hz 4:3 HorFreq: 48400 Hz Clock: 65.000 MHz
  1024x768@70Hz 4:3 HorFreq: 56500 Hz Clock: 75.000 MHz
  1024x768@75Hz 4:3 HorFreq: 60000 Hz Clock: 78.750 MHz
  1280x1024@75Hz 5:4 HorFreq: 80000 Hz Clock: 135.000 MHz
  1152x870@75Hz 192:145 HorFreq: 67500 Hz Clock: 108.000 MHz
Standard timings supported:
  1024x576@60Hz 16:9
  1280x720@60Hz 16:9
  1280x800@60Hz 16:10
  1280x1024@60Hz 5:4 HorFreq: 64000 Hz Clock: 108.000 MHz
  1440x900@60Hz 16:10 HorFreq: 55500 Hz Clock: 88.750 MHz
  1600x1200@60Hz 4:3 HorFreq: 75000 Hz Clock: 162.000 MHz
  800x600@120Hz 4:3
  1280x800@120Hz 16:10
Detailed mode: Clock 40.000 MHz, 0 mm x 0 mm
                800  840  968 1056 hborder 0
                600  601  605  628 vborder 0
               +hsync +vsync 
               VertFreq: 60 Hz, HorFreq: 37878 Hz
Monitor ranges (GTF): 23-120Hz V, 15-102kHz H, max dotclock 170MHz
ASCII string: BENQ
Monitor name: BenQ PJ
Checksum: 0x49 (valid)
EDID block does NOT conform to EDID 1.3!
	Digital display field contains garbage: 20
