edid-decode (hex):

00 ff ff ff ff ff ff 00 30 ae a0 40 00 00 00 00
01 14 01 03 80 1f 11 78 ea 73 c1 9b 59 55 9d 25
1a 50 54 00 00 00 01 01 01 01 01 01 01 01 01 01
01 01 01 01 01 01 bb 1d 56 cc 50 00 28 30 30 20
36 00 35 ad 10 00 00 19 c7 18 56 cc 50 00 28 30
30 20 36 00 35 ad 10 00 00 19 00 00 00 0f 00 8c
09 32 8c 09 28 16 09 00 09 e5 94 05 00 00 00 fe
00 48 54 31 34 30 57 58 42 2d 31 30 30 0a 00 82

----------------

Block 0, Base EDID:
  EDID Structure Version & Revision: 1.3
  Vendor & Product Identification:
    Manufacturer: LEN
    Model: 16544
    Made in: week 1 of 2010
  Basic Display Parameters & Features:
    Digital display
    Maximum image size: 31 cm x 17 cm
    Gamma: 2.20
    DPMS levels: Standby Suspend Off
    RGB color display
    First detailed timing is the preferred timing
  Color Characteristics:
    Red  : 0.6064, 0.3505
    Green: 0.3320, 0.6162
    Blue : 0.1474, 0.1015
    White: 0.3125, 0.3291
  Established Timings I & II: none
  Standard Timings: none
  Detailed Timing Descriptors:
    DTD 1:  1366x768    59.997162 Hz 683:384   48.478 kHz     76.110000 MHz (309 mm x 173 mm)
                 Hfront   48 Hsync  32 Hback  124 Hpol N
                 Vfront    3 Vsync   6 Vback   31 Vpol N
    DTD 2:  1366x768    50.001577 Hz 683:384   40.401 kHz     63.430000 MHz (309 mm x 173 mm)
                 Hfront   48 Hsync  32 Hback  124 Hpol N
                 Vfront    3 Vsync   6 Vback   31 Vpol N
    Manufacturer-Specified Display Descriptor (0x0f): 00 0f 00 8c 09 32 8c 09 28 16 09 00 09 e5 94 05 '.....2..(.......'
    Alphanumeric Data String: 'HT140WXB-100'
Checksum: 0x82

----------------

Failures:

Block 0, Base EDID:
  Missing Display Product Name.
  Missing Display Range Limits Descriptor.

EDID conformity: FAIL
