edid-decode (hex):

00 ff ff ff ff ff ff 00 30 ae 11 40 00 00 00 00
01 13 01 03 80 1a 10 78 ea 65 85 8f 59 58 8f 26
1b 50 54 00 00 00 01 01 01 01 01 01 01 01 01 01
01 01 01 01 01 01 12 1b 00 7b 50 20 15 30 30 20
36 00 05 a3 10 00 00 18 7f 16 00 7b 50 20 15 30
30 20 36 00 05 a3 10 00 00 18 00 00 00 0f 00 81
0a 3c 81 0a 32 16 09 00 06 af 56 33 00 00 00 fe
00 42 31 32 31 45 57 30 39 20 56 33 20 0a 00 9b

----------------

Block 0, Base EDID:
  EDID Structure Version & Revision: 1.3
  Vendor & Product Identification:
    Manufacturer: LEN
    Model: 16401
    Made in: week 1 of 2009
  Basic Display Parameters & Features:
    Digital display
    Maximum image size: 26 cm x 16 cm
    Gamma: 2.20
    DPMS levels: Standby Suspend Off
    RGB color display
    First detailed timing is preferred timing
  Color Characteristics:
    Red  : 0.5595, 0.3496
    Green: 0.3447, 0.5595
    Blue : 0.1503, 0.1054
    White: 0.3134, 0.3291
  Established Timings I & II: none
  Standard Timings: none
  Detailed Timing Descriptors:
    DTD 1:  1280x800    60.163 Hz   8:5    49.394 kHz  69.300 MHz (261 mm x 163 mm)
                 Hfront   48 Hsync  32 Hback  43 Hpol N
                 Vfront    3 Vsync   6 Vback  12 Vpol N
    DTD 2:  1280x800    49.997 Hz   8:5    41.048 kHz  57.590 MHz (261 mm x 163 mm)
                 Hfront   48 Hsync  32 Hback  43 Hpol N
                 Vfront    3 Vsync   6 Vback  12 Vpol N
    Manufacturer-Specified Display Descriptor (0x0f): 00 0f 00 81 0a 3c 81 0a 32 16 09 00 06 af 56 33 '.....<..2.....V3'
    Alphanumeric Data String: 'B121EW09 V3 '
Checksum: 0x9b

----------------

Failures:

Block 0, Base EDID:
  Alphanumeric Data String: One or more trailing spaces.
  Missing Display Product Name.
  Missing Display Range Limits Descriptor.

EDID conformity: FAIL
