
EDID (hex):
00ffffffffffff0030ae114000000000
35130103801a1078ead0a3965b579426
23525900000001010101010101010101
0101010101018a1b00ab50200a303020
330005a3100000188a1b00ab50200a30
3020330005a3100000180000000f0081
0a3c810a3c1e090030640008000000fe
004c54443132314b5836420a20200057

Extracted contents:
header:          00 ff ff ff ff ff ff 00
serial number:   30 ae 11 40 00 00 00 00 35 13
version:         01 03
basic params:    80 1a 10 78 ea
chroma info:     d0 a3 96 5b 57 94 26 23 52 59
established:     00 00 00
standard:        01 01 01 01 01 01 01 01 01 01 01 01 01 01 01 01
descriptor 1:    8a 1b 00 ab 50 20 0a 30 30 20 33 00 05 a3 10 00 00 18
descriptor 2:    8a 1b 00 ab 50 20 0a 30 30 20 33 00 05 a3 10 00 00 18
descriptor 3:    00 00 00 0f 00 81 0a 3c 81 0a 3c 1e 09 00 30 64 00 08
descriptor 4:    00 00 00 fe 00 4c 54 44 31 32 31 4b 58 36 42 0a 20 20
extensions:      00
checksum:        57

EDID version: 1.3
Manufacturer: LEN Model 4011 Serial Number --
Made in week 53 of 2009
Digital display
Maximum image size: 26 cm x 16 cm
Gamma: 2.20
DPMS levels: Standby Suspend Off
RGB color display
First detailed timing is preferred timing
Display x,y Chromaticity:
  Red:   0.5888, 0.3564
  Green: 0.3398, 0.5781
  Blue:  0.1503, 0.1386
  White: 0.3203, 0.3505
Established timings supported:
Standard timings supported:
Detailed mode: Clock 70.500 MHz, 261 mm x 163 mm
               1280 1328 1360 1451 hborder 0
                800  803  806  810 vborder 0
               -hsync -vsync 
               VertFreq: 59 Hz, HorFreq: 48587 Hz
Detailed mode: Clock 70.500 MHz, 261 mm x 163 mm
               1280 1328 1360 1451 hborder 0
                800  803  806  810 vborder 0
               -hsync -vsync 
               VertFreq: 59 Hz, HorFreq: 48587 Hz
Manufacturer-specified data, tag 15
ASCII string: LTD121KX6B
Checksum: 0x57 (valid)
EDID block does NOT conform to EDID 1.3!
	Missing name descriptor
	Missing monitor ranges
