
EDID (hex):
00ffffffffffff0030ae114000000000
05130103801a1178ea98d5925c589427
1c505400000001010101010101010101
010101010101121b008450201230281a
340004aa100000188f16008450201230
281a340004aa100000180000000f0081
0a3c810a321609000daf3312000000fe
004e31323149422d4c30350a20200054

Extracted contents:
header:          00 ff ff ff ff ff ff 00
serial number:   30 ae 11 40 00 00 00 00 05 13
version:         01 03
basic params:    80 1a 11 78 ea
chroma info:     98 d5 92 5c 58 94 27 1c 50 54
established:     00 00 00
standard:        01 01 01 01 01 01 01 01 01 01 01 01 01 01 01 01
descriptor 1:    12 1b 00 84 50 20 12 30 28 1a 34 00 04 aa 10 00 00 18
descriptor 2:    8f 16 00 84 50 20 12 30 28 1a 34 00 04 aa 10 00 00 18
descriptor 3:    00 00 00 0f 00 81 0a 3c 81 0a 32 16 09 00 0d af 33 12
descriptor 4:    00 00 00 fe 00 4e 31 32 31 49 42 2d 4c 30 35 0a 20 20
extensions:      00
checksum:        54

EDID version: 1.3
Manufacturer: LEN Model 4011 Serial Number --
Made in week 5 of 2009
Digital display
Maximum image size: 26 cm x 17 cm
Gamma: 2.20
DPMS levels: Standby Suspend Off
RGB color display
First detailed timing is preferred timing
Display x,y Chromaticity:
  Red:   0.5722, 0.3603
  Green: 0.3457, 0.5781
  Blue:  0.1552, 0.1103
  White: 0.3134, 0.3291
Established timings supported:
Standard timings supported:
Detailed mode: Clock 69.300 MHz, 260 mm x 170 mm
               1280 1320 1346 1412 hborder 0
                800  803  807  818 vborder 0
               -hsync -vsync 
               VertFreq: 59 Hz, HorFreq: 49079 Hz
Detailed mode: Clock 57.750 MHz, 260 mm x 170 mm
               1280 1320 1346 1412 hborder 0
                800  803  807  818 vborder 0
               -hsync -vsync 
               VertFreq: 49 Hz, HorFreq: 40899 Hz
Manufacturer-specified data, tag 15
ASCII string: N121IB-L05
Checksum: 0x54 (valid)
EDID block does NOT conform to EDID 1.3!
	Missing name descriptor
	Missing monitor ranges
