
EDID (hex):
00ffffffffffff0030ae114000000000
00130103801a1078ea2f158a58568f26
18505400000001010101010101010101
0101010101015c1d00f2502017303054
360005a3100000195c1d00f250201730
3054360005a3100000190000000f0081
0a3c810a3c1e0a0000009e08000000fe
0048563132315758362d3131300a0014

Extracted contents:
header:          00 ff ff ff ff ff ff 00
serial number:   30 ae 11 40 00 00 00 00 00 13
version:         01 03
basic params:    80 1a 10 78 ea
chroma info:     2f 15 8a 58 56 8f 26 18 50 54
established:     00 00 00
standard:        01 01 01 01 01 01 01 01 01 01 01 01 01 01 01 01
descriptor 1:    5c 1d 00 f2 50 20 17 30 30 54 36 00 05 a3 10 00 00 19
descriptor 2:    5c 1d 00 f2 50 20 17 30 30 54 36 00 05 a3 10 00 00 19
descriptor 3:    00 00 00 0f 00 81 0a 3c 81 0a 3c 1e 0a 00 00 00 9e 08
descriptor 4:    00 00 00 fe 00 48 56 31 32 31 57 58 36 2d 31 31 30 0a
extensions:      00
checksum:        14

EDID version: 1.3
Manufacturer: LEN Model 4011 Serial Number --
Made in year 2009
Digital display
Maximum image size: 26 cm x 16 cm
Gamma: 2.20
DPMS levels: Standby Suspend Off
RGB color display
First detailed timing is preferred timing
Display x,y Chromaticity:
  Red:   0.5390, 0.3457
  Green: 0.3388, 0.5615
  Blue:  0.1484, 0.0947
  White: 0.3134, 0.3291
Established timings supported:
Standard timings supported:
Detailed mode: Clock 75.160 MHz, 261 mm x 163 mm
               1280 1328 1412 1522 hborder 0
                800  803  809  823 vborder 0
               -hsync -vsync 
               VertFreq: 60 Hz, HorFreq: 49382 Hz
Detailed mode: Clock 75.160 MHz, 261 mm x 163 mm
               1280 1328 1412 1522 hborder 0
                800  803  809  823 vborder 0
               -hsync -vsync 
               VertFreq: 60 Hz, HorFreq: 49382 Hz
Manufacturer-specified data, tag 15
ASCII string: HV121WX6-110
Checksum: 0x14 (valid)
EDID block does NOT conform to EDID 1.3!
	Missing name descriptor
	Missing monitor ranges
