
EDID (hex):
00ffffffffffff0022f0801001000000
1517010380331d780a0540a556519d25
0e505400000001010101010101010101
0101010101019d34806470381f403020
2600fe1f11000018000000fe00563038
0a202020202020202020000000fc0048
5051203830302041494f0a20000000fe
004c544d323330484c30380a202000e8

Extracted contents:
header:          00 ff ff ff ff ff ff 00
serial number:   22 f0 80 10 01 00 00 00 15 17
version:         01 03
basic params:    80 33 1d 78 0a
chroma info:     05 40 a5 56 51 9d 25 0e 50 54
established:     00 00 00
standard:        01 01 01 01 01 01 01 01 01 01 01 01 01 01 01 01
descriptor 1:    9d 34 80 64 70 38 1f 40 30 20 26 00 fe 1f 11 00 00 18
descriptor 2:    00 00 00 fe 00 56 30 38 0a 20 20 20 20 20 20 20 20 20
descriptor 3:    00 00 00 fc 00 48 50 51 20 38 30 30 20 41 49 4f 0a 20
descriptor 4:    00 00 00 fe 00 4c 54 4d 32 33 30 48 4c 30 38 0a 20 20
extensions:      00
checksum:        e8

EDID version: 1.3
Manufacturer: HWP Model 1080 Serial Number --
Made in week 21 of 2013
Digital display
Maximum image size: 51 cm x 29 cm
Gamma: 2.20
RGB color display
First detailed timing is preferred timing
Display x,y Chromaticity:
  Red:   0.6445, 0.3359
  Green: 0.3173, 0.6142
  Blue:  0.1455, 0.0546
  White: 0.3125, 0.3281
Established timings supported:
Standard timings supported:
Detailed mode: Clock 134.690 MHz, 510 mm x 287 mm
               1920 1968 2000 2020 hborder 0
               1080 1082 1088 1111 vborder 0
               -hsync -vsync 
               VertFreq: 60 Hz, HorFreq: 66678 Hz
ASCII string: V08
Monitor name: HPQ 800 AIO
ASCII string: LTM230HL08
Checksum: 0xe8 (valid)
EDID block does NOT conform to EDID 1.3!
	Missing monitor ranges
