edid-decode (hex):

00 ff ff ff ff ff ff 00 09 e5 ca 0b 00 00 00 00
2f 20 01 04 a5 1c 13 78 03 de 50 a3 54 4c 99 26
0f 50 54 00 00 00 01 01 01 01 01 01 01 01 01 01
01 01 01 01 01 01 11 5c d0 18 81 e0 2d 50 30 20
36 00 1d be 10 00 00 1a a7 49 d0 18 81 e0 2d 50
30 20 36 00 1d be 10 00 00 1a 00 00 00 fe 00 42
4f 45 20 43 51 0a 20 20 20 20 20 20 00 00 00 fe
00 4e 45 31 33 35 46 42 4d 2d 4e 34 31 0a 00 73

00 ff ff ff ff ff ff 00 09 e5 ca 0b 00 00 00 00
2f 20 01 04 a5 1c 13 78 03 de 50 a3 54 4c 99 26
0f 50 54 00 00 00 01 01 01 01 01 01 01 01 01 01
01 01 01 01 01 01 11 5c d0 18 81 e0 2d 50 30 20
36 00 1d be 10 00 00 1a a7 49 d0 18 81 e0 2d 50
30 20 36 00 1d be 10 00 00 1a 00 00 00 fe 00 42
4f 45 20 43 51 0a 20 20 20 20 20 20 00 00 00 fe
00 4e 45 31 33 35 46 42 4d 2d 4e 34 31 0a 00 73

----------------

Block 0, Base EDID:
  EDID Structure Version & Revision: 1.4
  Vendor & Product Identification:
    Manufacturer: BOE
    Model: 3018
    Made in: week 47 of 2022
  Basic Display Parameters & Features:
    Digital display
    Bits per primary color channel: 8
    DisplayPort interface
    Maximum image size: 28 cm x 19 cm
    Gamma: 2.20
    Supported color formats: RGB 4:4:4
    First detailed timing includes the native pixel format and preferred refresh rate
    Display is continuous frequency
  Color Characteristics:
    Red  : 0.6396, 0.3291
    Green: 0.2998, 0.5996
    Blue : 0.1494, 0.0595
    White: 0.3125, 0.3281
  Established Timings I & II: none
  Standard Timings: none
  Detailed Timing Descriptors:
    DTD 1:  2256x1504   59.998513 Hz   3:2     92.938 kHz    235.690000 MHz (285 mm x 190 mm)
                 Hfront   48 Hsync  32 Hback  200 Hpol P
                 Vfront    3 Vsync   6 Vback   36 Vpol N
    DTD 2:  2256x1504   47.998302 Hz   3:2     74.349 kHz    188.550000 MHz (285 mm x 190 mm)
                 Hfront   48 Hsync  32 Hback  200 Hpol P
                 Vfront    3 Vsync   6 Vback   36 Vpol N
    Alphanumeric Data String: 'BOE CQ'
    Alphanumeric Data String: 'NE135FBM-N41'
Checksum: 0x73

----------------

Block 1, Unknown EDID Extension Block 0x00:
  00 ff ff ff ff ff ff 00 09 e5 ca 0b 00 00 00 00 '................'
  2f 20 01 04 a5 1c 13 78 03 de 50 a3 54 4c 99 26 '/ .....x..P.TL.&'
  0f 50 54 00 00 00 01 01 01 01 01 01 01 01 01 01 '.PT.............'
  01 01 01 01 01 01 11 5c d0 18 81 e0 2d 50 30 20 '.......\....-P0 '
  36 00 1d be 10 00 00 1a a7 49 d0 18 81 e0 2d 50 '6........I....-P'
  30 20 36 00 1d be 10 00 00 1a 00 00 00 fe 00 42 '0 6............B'
  4f 45 20 43 51 0a 20 20 20 20 20 20 00 00 00 fe 'OE CQ.      ....'
  00 4e 45 31 33 35 46 42 4d 2d 4e 34 31 0a 00 73 '.NE135FBM-N41..s'
Checksum: 0x73

----------------

Warnings:

Block 0, Base EDID:
  Missing Display Product Name.

Failures:

Block 0, Base EDID:
  Missing Display Range Limits Descriptor.
Block 1, Base EDID:
  Unknown Extension Block.
EDID:
  Base EDID: EDID specified 0 extension block(s), but found 1 extension block(s).

EDID conformity: FAIL
