
EDID (hex):
00ffffffffffff004933020901010101
1718010380341d78eaa980a555489b26
125054a54b0081809500b30001010101
010101010101023a801871382d40582c
450009252100001e000000fd00324c1e
5211000a202020202020000000fc0070
686f746f32340a2020202020000000ff
006f746f32343134303631383733007f

Extracted contents:
header:          00 ff ff ff ff ff ff 00
serial number:   49 33 02 09 01 01 01 01 17 18
version:         01 03
basic params:    80 34 1d 78 ea
chroma info:     a9 80 a5 55 48 9b 26 12 50 54
established:     a5 4b 00
standard:        81 80 95 00 b3 00 01 01 01 01 01 01 01 01 01 01
descriptor 1:    02 3a 80 18 71 38 2d 40 58 2c 45 00 09 25 21 00 00 1e
descriptor 2:    00 00 00 fd 00 32 4c 1e 52 11 00 0a 20 20 20 20 20 20
descriptor 3:    00 00 00 fc 00 70 68 6f 74 6f 32 34 0a 20 20 20 20 20
descriptor 4:    00 00 00 ff 00 6f 74 6f 32 34 31 34 30 36 31 38 37 33
extensions:      00
checksum:        7f

EDID version: 1.3
Manufacturer: RIS Model 902 Serial Number --
Made in week 23 of 2014
Digital display
Maximum image size: 52 cm x 29 cm
Gamma: 2.20
DPMS levels: Standby Suspend Off
RGB color display
First detailed timing is preferred timing
Display x,y Chromaticity:
  Red:   0.6464, 0.3339
  Green: 0.2832, 0.6064
  Blue:  0.1503, 0.0703
  White: 0.3125, 0.3281
Established timings supported:
  720x400@70Hz 9:5 HorFreq: 31469 Hz Clock: 28.320 MHz
  640x480@60Hz 4:3 HorFreq: 31469 Hz Clock: 25.175 MHz
  640x480@75Hz 4:3 HorFreq: 37500 Hz Clock: 31.500 MHz
  800x600@60Hz 4:3 HorFreq: 37900 Hz Clock: 40.000 MHz
  800x600@75Hz 4:3 HorFreq: 46900 Hz Clock: 49.500 MHz
  1024x768@60Hz 4:3 HorFreq: 48400 Hz Clock: 65.000 MHz
  1024x768@75Hz 4:3 HorFreq: 60000 Hz Clock: 78.750 MHz
  1280x1024@75Hz 5:4 HorFreq: 80000 Hz Clock: 135.000 MHz
Standard timings supported:
  1280x1024@60Hz 5:4 HorFreq: 64000 Hz Clock: 108.000 MHz
  1440x900@60Hz 16:10 HorFreq: 55500 Hz Clock: 88.750 MHz
  1680x1050@60Hz 16:10 HorFreq: 64700 Hz Clock: 119.000 MHz
Detailed mode: Clock 148.500 MHz, 521 mm x 293 mm
               1920 2008 2052 2200 hborder 0
               1080 1084 1089 1125 vborder 0
               +hsync +vsync 
               VertFreq: 60 Hz, HorFreq: 67500 Hz
Monitor ranges (GTF): 50-76Hz V, 30-82kHz H, max dotclock 170MHz
Monitor name: photo24
Serial number: --
Checksum: 0x7f (valid)


