edid-decode (hex):

00 ff ff ff ff ff ff 00 1a b3 4f 08 43 64 00 00
0b 19 01 03 80 34 20 78 2a 4c a5 a7 55 4d a2 26
10 50 54 a5 4b 00 a9 40 b3 00 95 00 81 80 a9 c0
d1 c0 81 c0 01 01 28 3c 80 a0 70 b0 23 40 30 20
36 00 06 44 21 00 00 1a 00 00 00 fd 00 30 4c 1e
52 11 00 0a 20 20 20 20 20 20 00 00 00 fc 00 50
32 34 57 2d 37 20 4c 45 44 0a 20 20 00 00 00 ff
00 59 56 38 53 30 32 35 36 36 37 0a 20 20 00 49

00 ff ff ff ff ff ff 00 1a b3 4f 08 43 64 00 00
0b 19 01 03 80 34 20 78 2a 4c a5 a7 55 4d a2 26
10 50 54 a5 4b 00 a9 40 b3 00 95 00 81 80 a9 c0
d1 c0 81 c0 01 01 28 3c 80 a0 70 b0 23 40 30 20
36 00 06 44 21 00 00 1a 00 00 00 fd 00 30 4c 1e
52 11 00 0a 20 20 20 20 20 20 00 00 00 fc 00 50
32 34 57 2d 37 20 4c 45 44 0a 20 20 00 00 00 ff
00 59 56 38 53 30 32 35 36 36 37 0a 20 20 00 49

----------------

Block 0, Base EDID:
  EDID Structure Version & Revision: 1.3
  Vendor & Product Identification:
    Manufacturer: FUS
    Model: 2127
    Serial Number: ...
    Made in: week 11 of 2015
  Basic Display Parameters & Features:
    Digital display
    Maximum image size: 52 cm x 32 cm
    Gamma: 2.20
    DPMS levels: Off
    RGB color display
    First detailed timing is the preferred timing
  Color Characteristics:
    Red  : 0.6533, 0.3320
    Green: 0.3037, 0.6328
    Blue : 0.1503, 0.0644
    White: 0.3134, 0.3291
  Established Timings I & II:
    IBM     :   720x400    70.081663 Hz   9:5     31.467 kHz     28.320000 MHz
    DMT 0x04:   640x480    59.940476 Hz   4:3     31.469 kHz     25.175000 MHz
    DMT 0x06:   640x480    75.000000 Hz   4:3     37.500 kHz     31.500000 MHz
    DMT 0x09:   800x600    60.316541 Hz   4:3     37.879 kHz     40.000000 MHz
    DMT 0x0b:   800x600    75.000000 Hz   4:3     46.875 kHz     49.500000 MHz
    DMT 0x10:  1024x768    60.003840 Hz   4:3     48.363 kHz     65.000000 MHz
    DMT 0x12:  1024x768    75.028582 Hz   4:3     60.023 kHz     78.750000 MHz
    DMT 0x24:  1280x1024   75.024675 Hz   5:4     79.976 kHz    135.000000 MHz
  Standard Timings:
    DMT 0x33:  1600x1200   60.000000 Hz   4:3     75.000 kHz    162.000000 MHz
    DMT 0x3a:  1680x1050   59.954250 Hz  16:10    65.290 kHz    146.250000 MHz
    DMT 0x2f:  1440x900    59.887445 Hz  16:10    55.935 kHz    106.500000 MHz
    DMT 0x23:  1280x1024   60.019740 Hz   5:4     63.981 kHz    108.000000 MHz
    DMT 0x53:  1600x900    60.000000 Hz  16:9     60.000 kHz    108.000000 MHz (RB)
    DMT 0x52:  1920x1080   60.000000 Hz  16:9     67.500 kHz    148.500000 MHz
    DMT 0x55:  1280x720    60.000000 Hz  16:9     45.000 kHz     74.250000 MHz
  Detailed Timing Descriptors:
    DTD 1:  1920x1200   59.950171 Hz  16:10    74.038 kHz    154.000000 MHz (518 mm x 324 mm)
                 Hfront   48 Hsync  32 Hback   80 Hpol P
                 Vfront    3 Vsync   6 Vback   26 Vpol N
    Display Range Limits:
      Monitor ranges (GTF): 48-76 Hz V, 30-82 kHz H, max dotclock 170 MHz
    Display Product Name: 'P24W-7 LED'
    Display Product Serial Number: ...
Checksum: 0x49

----------------

Block 1, Unknown EDID Extension Block 0x00:
  00 ff ff ff ff ff ff 00 1a b3 4f 08 43 64 00 00 '..........O.Cd..'
  0b 19 01 03 80 34 20 78 2a 4c a5 a7 55 4d a2 26 '.....4 x*L..UM.&'
  10 50 54 a5 4b 00 a9 40 b3 00 95 00 81 80 a9 c0 '.PT.K..@........'
  d1 c0 81 c0 01 01 28 3c 80 a0 70 b0 23 40 30 20 '......(<..p.#@0 '
  36 00 06 44 21 00 00 1a 00 00 00 fd 00 30 4c 1e '6..D!........0L.'
  52 11 00 0a 20 20 20 20 20 20 00 00 00 fc 00 50 'R...      .....P'
  32 34 57 2d 37 20 4c 45 44 0a 20 20 00 00 00 ff '24W-7 LED.  ....'
  00 59 56 38 53 30 32 35 36 36 37 0a 20 20 00 49 '.YV8S025667.  .I'
Checksum: 0x49

----------------

Failures:

Block 1, Base EDID:
  Unknown Extension Block.
EDID:
  Base EDID: EDID specified 0 extension block(s), but found 1 extension block(s).

EDID conformity: FAIL
