edid-decode (hex):

00 ff ff ff ff ff ff 00 30 ae 94 40 00 00 00 00
21 1c 01 04 95 1d 11 78 e2 49 95 a3 56 52 9c 27
0a 50 54 00 00 00 01 01 01 01 01 01 01 01 01 01
01 01 01 01 01 01 14 37 80 b8 70 38 24 40 10 10
3e 00 25 a5 10 00 00 18 10 2c 80 b8 70 38 24 40
10 10 3e 00 25 a5 10 00 00 18 00 00 00 0f 00 d1
09 3c d1 09 30 1e 0a 00 06 af 2d 22 00 00 00 fe
00 42 31 33 33 48 41 4b 30 32 2e 32 20 0a 00 aa

00 ff ff ff ff ff ff 00 30 ae 94 40 00 00 00 00
21 1c 01 04 95 1d 11 78 e2 49 95 a3 56 52 9c 27
0a 50 54 00 00 00 01 01 01 01 01 01 01 01 01 01
01 01 01 01 01 01 14 37 80 b8 70 38 24 40 10 10
3e 00 25 a5 10 00 00 18 10 2c 80 b8 70 38 24 40
10 10 3e 00 25 a5 10 00 00 18 00 00 00 0f 00 d1
09 3c d1 09 30 1e 0a 00 06 af 2d 22 00 00 00 fe
00 42 31 33 33 48 41 4b 30 32 2e 32 20 0a 00 aa

----------------

Block 0, Base EDID:
  EDID Structure Version & Revision: 1.4
  Vendor & Product Identification:
    Manufacturer: LEN
    Model: 16532
    Made in: week 33 of 2018
  Basic Display Parameters & Features:
    Digital display
    Bits per primary color channel: 6
    DisplayPort interface
    Maximum image size: 29 cm x 17 cm
    Gamma: 2.20
    DPMS levels: Standby Suspend Off
    Supported color formats: RGB 4:4:4
    First detailed timing includes the native pixel format and preferred refresh rate
  Color Characteristics:
    Red  : 0.6376, 0.3359
    Green: 0.3222, 0.6103
    Blue : 0.1542, 0.0400
    White: 0.3134, 0.3291
  Established Timings I & II: none
  Standard Timings: none
  Detailed Timing Descriptors:
    DTD 1:  1920x1080   60.049471 Hz  16:9     67.015 kHz    141.000000 MHz (293 mm x 165 mm)
                 Hfront   16 Hsync  16 Hback  152 Hpol N
                 Vfront    3 Vsync  14 Vback   19 Vpol N
    DTD 2:  1920x1080   48.039576 Hz  16:9     53.612 kHz    112.800000 MHz (293 mm x 165 mm)
                 Hfront   16 Hsync  16 Hback  152 Hpol N
                 Vfront    3 Vsync  14 Vback   19 Vpol N
    Manufacturer-Specified Display Descriptor (0x0f): 00 0f 00 d1 09 3c d1 09 30 1e 0a 00 06 af 2d 22 '.....<..0.....-"'
    Alphanumeric Data String: 'B133HAK02.2 '
Checksum: 0xaa

----------------

Block 1, Unknown EDID Extension Block 0x00:
  00 ff ff ff ff ff ff 00 30 ae 94 40 00 00 00 00 '........0..@....'
  21 1c 01 04 95 1d 11 78 e2 49 95 a3 56 52 9c 27 '!......x.I..VR.''
  0a 50 54 00 00 00 01 01 01 01 01 01 01 01 01 01 '.PT.............'
  01 01 01 01 01 01 14 37 80 b8 70 38 24 40 10 10 '.......7..p8$@..'
  3e 00 25 a5 10 00 00 18 10 2c 80 b8 70 38 24 40 '>.%......,..p8$@'
  10 10 3e 00 25 a5 10 00 00 18 00 00 00 0f 00 d1 '..>.%...........'
  09 3c d1 09 30 1e 0a 00 06 af 2d 22 00 00 00 fe '.<..0.....-"....'
  00 42 31 33 33 48 41 4b 30 32 2e 32 20 0a 00 aa '.B133HAK02.2 ...'
Checksum: 0xaa

----------------

Warnings:

Block 0, Base EDID:
  Missing Display Product Name.

Failures:

Block 0, Base EDID:
  Alphanumeric Data String: One or more trailing spaces.
Block 1, Base EDID:
  Unknown Extension Block.
EDID:
  Base EDID: EDID specified 0 extension block(s), but found 1 extension block(s).

EDID conformity: FAIL
