
EDID (hex):
00ffffffffffff0009e5000a00000000
091f0104a5261578039a25a5554b9c25
0f505400000001010101010101010101
0101010101012f3f80a07038d8406c30
aa007ed71000001a000000fd0e3c69d4
d461010a202020202020000000fe0042
4f452043510a202020202020000000fe
004e4531373346484d2d4e5a360a01f8
7013790000030114157b01847f079f00
61002f003704d7000900090000000000
00000000000000000000000000000000
00000000000000000000000000000000
00000000000000000000000000000000
00000000000000000000000000000000
00000000000000000000000000000000
00000000000000000000000000006e90

Extracted contents:
header:          00 ff ff ff ff ff ff 00
serial number:   09 e5 00 0a 00 00 00 00 09 1f
version:         01 04
basic params:    a5 26 15 78 03
chroma info:     9a 25 a5 55 4b 9c 25 0f 50 54
established:     00 00 00
standard:        01 01 01 01 01 01 01 01 01 01 01 01 01 01 01 01
descriptor 1:    2f 3f 80 a0 70 38 d8 40 6c 30 aa 00 7e d7 10 00 00 1a
descriptor 2:    00 00 00 fd 0e 3c 69 d4 d4 61 01 0a 20 20 20 20 20 20
descriptor 3:    00 00 00 fe 00 42 4f 45 20 43 51 0a 20 20 20 20 20 20
descriptor 4:    00 00 00 fe 00 4e 45 31 37 33 46 48 4d 2d 4e 5a 36 0a
extensions:      01
checksum:        f8

EDID version: 1.4
Manufacturer: BOE Model a00 Serial Number --
Made in week 9 of 2021
Digital display
8 bits per primary color channel
DisplayPort interface
Maximum image size: 38 cm x 21 cm
Gamma: 2.20
Supported color formats: RGB 4:4:4
First detailed timing includes the native pixel format and preferred refresh rate
Display is continuous frequency
Display x,y Chromaticity:
  Red:   0.6464, 0.3330
  Green: 0.2949, 0.6113
  Blue:  0.1445, 0.0605
  White: 0.3134, 0.3291
Established timings supported:
Standard timings supported:
Detailed mode: Clock 161.750 MHz, 382 mm x 215 mm
               1920 2028 2076 2080 hborder 0
               1080 1090 1100 1296 vborder 0
               +hsync -vsync 
               VertFreq: 60 Hz, HorFreq: 77764 Hz
Monitor ranges (bare limits): 60-360Hz V, 467-467kHz H, max dotclock 970MHz
ASCII string: BOE CQ
ASCII string: NE173FHM-NZ6
Has 1 extension blocks
Checksum: 0xf8 (valid)

DisplayID extension block
Extension version: 19
Length 121, version 19, extension count 0
Checksum: 0x6e (valid)
Type 1 detailed timing: aspect: 16:9, Preferred  
Detailed mode: Clock 970.450 MHz, 0 mm x 0 mm
               1919 2016 2063 2078
               1079 1088 1097 1294
               -hsync -vsync

EDID block does NOT conform to EDID 1.4!
	Missing name descriptor
Warning: One or more of the timings is out of range of the Monitor Ranges:
  Vertical Freq: 60 - 60 Hz
  Horizontal Freq: 77764 - 77764 Hz
  Maximum Clock: 161.750 MHz
EDID block does not conform at all!
	Has 134217728 nonconformant extension block(s)
