
EDID (hex):
00ffffffffffff0036c4200200000000
14110103e02f1e78ea6f8ba25a4d9424
1a5156bfef0081c08180814095009040
7140714f00446c39903a621a254068b8
1600d928110000009a29a0ca51842230
50981600d92811000000da3e402d62b0
2a4068b01400d92811000000000000fc
004d56323230440a202020202020002f

Extracted contents:
header:          00 ff ff ff ff ff ff 00
serial number:   36 c4 20 02 00 00 00 00 14 11
version:         01 03
basic params:    e0 2f 1e 78 ea
chroma info:     6f 8b a2 5a 4d 94 24 1a 51 56
established:     bf ef 00
standard:        81 c0 81 80 81 40 95 00 90 40 71 40 71 4f 00 44
descriptor 1:    6c 39 90 3a 62 1a 25 40 68 b8 16 00 d9 28 11 00 00 00
descriptor 2:    9a 29 a0 ca 51 84 22 30 50 98 16 00 d9 28 11 00 00 00
descriptor 3:    da 3e 40 2d 62 b0 2a 40 68 b0 14 00 d9 28 11 00 00 00
descriptor 4:    00 00 00 fc 00 4d 56 32 32 30 44 0a 20 20 20 20 20 20
extensions:      00
checksum:        2f

EDID version: 1.3
Manufacturer: MVD Model 220 Serial Number --
Made in week 20 of 2007
Digital display
Maximum image size: 47 cm x 30 cm
Gamma: 2.20
DPMS levels: Standby Suspend Off
RGB color display
First detailed timing is preferred timing
Display x,y Chromaticity:
  Red:   0.6337, 0.3535
  Green: 0.3037, 0.5810
  Blue:  0.1425, 0.1015
  White: 0.3183, 0.3388
Established timings supported:
  720x400@70Hz 9:5 HorFreq: 31469 Hz Clock: 28.320 MHz
  640x480@60Hz 4:3 HorFreq: 31469 Hz Clock: 25.175 MHz
  640x480@67Hz 4:3 HorFreq: 35000 Hz Clock: 30.240 MHz
  640x480@72Hz 4:3 HorFreq: 37900 Hz Clock: 31.500 MHz
  640x480@75Hz 4:3 HorFreq: 37500 Hz Clock: 31.500 MHz
  800x600@56Hz 4:3 HorFreq: 35200 Hz Clock: 36.000 MHz
  800x600@60Hz 4:3 HorFreq: 37900 Hz Clock: 40.000 MHz
  800x600@72Hz 4:3 HorFreq: 48100 Hz Clock: 50.000 MHz
  800x600@75Hz 4:3 HorFreq: 46900 Hz Clock: 49.500 MHz
  832x624@75Hz 4:3 HorFreq: 49726 Hz Clock: 57.284 MHz
  1024x768@60Hz 4:3 HorFreq: 48400 Hz Clock: 65.000 MHz
  1024x768@70Hz 4:3 HorFreq: 56500 Hz Clock: 75.000 MHz
  1024x768@75Hz 4:3 HorFreq: 60000 Hz Clock: 78.750 MHz
  1280x1024@75Hz 5:4 HorFreq: 80000 Hz Clock: 135.000 MHz
Standard timings supported:
  1280x720@60Hz 16:9
  1280x1024@60Hz 5:4 HorFreq: 64000 Hz Clock: 108.000 MHz
  1280x960@60Hz 4:3 HorFreq: 60000 Hz Clock: 108.000 MHz
  1440x900@60Hz 16:10 HorFreq: 55500 Hz Clock: 88.750 MHz
  1400x1050@60Hz 4:3 HorFreq: 64700 Hz Clock: 101.000 MHz
  1152x864@60Hz 4:3
  1152x864@75Hz 4:3 HorFreq: 67500 Hz Clock: 108.000 MHz
non-conformant standard timing (0 horiz)
Detailed mode: Clock 147.000 MHz, 473 mm x 296 mm
               1680 1784 1968 2250 hborder 0
               1050 1051 1057 1087 vborder 0
               -hsync -vsync analog composite 
               VertFreq: 60 Hz, HorFreq: 65333 Hz
Detailed mode: Clock 106.500 MHz, 473 mm x 296 mm
               1440 1520 1672 1898 hborder 0
                900  901  907  934 vborder 0
               -hsync -vsync analog composite 
               VertFreq: 60 Hz, HorFreq: 56111 Hz
Detailed mode: Clock 160.900 MHz, 473 mm x 296 mm
               1600 1704 1880 2157 hborder 0
               1200 1201 1205 1242 vborder 0
               -hsync -vsync analog composite 
               VertFreq: 60 Hz, HorFreq: 74594 Hz
Monitor name: MV220D
Checksum: 0x2f (valid)
EDID block does NOT conform to EDID 1.3!
	Digital display field contains garbage: 60
	Missing monitor ranges
