edid-decode (hex):

00 ff ff ff ff ff ff 00 36 c4 20 02 00 00 00 00
14 11 01 03 e0 2f 1e 78 ea 6f 8b a2 5a 4d 94 24
1a 51 56 bf ef 00 81 c0 81 80 81 40 95 00 90 40
71 40 71 4f 00 44 6c 39 90 3a 62 1a 25 40 68 b8
16 00 d9 28 11 00 00 00 9a 29 a0 ca 51 84 22 30
50 98 16 00 d9 28 11 00 00 00 da 3e 40 2d 62 b0
2a 40 68 b0 14 00 d9 28 11 00 00 00 00 00 00 fc
00 4d 56 32 32 30 44 0a 20 20 20 20 20 20 00 2f

----------------

Block 0, Base EDID:
  EDID Structure Version & Revision: 1.3
  Vendor & Product Identification:
    Manufacturer: MVD
    Model: 544
    Made in: week 20 of 2007
  Basic Display Parameters & Features:
    Digital display
    Maximum image size: 47 cm x 30 cm
    Gamma: 2.20
    DPMS levels: Standby Suspend Off
    RGB color display
    First detailed timing is the preferred timing
  Color Characteristics:
    Red  : 0.6337, 0.3535
    Green: 0.3037, 0.5810
    Blue : 0.1425, 0.1015
    White: 0.3183, 0.3388
  Established Timings I & II:
    IBM     :   720x400    70.081663 Hz   9:5     31.467 kHz     28.320000 MHz
    DMT 0x04:   640x480    59.940476 Hz   4:3     31.469 kHz     25.175000 MHz
    Apple   :   640x480    66.666667 Hz   4:3     35.000 kHz     30.240000 MHz
    DMT 0x05:   640x480    72.808802 Hz   4:3     37.861 kHz     31.500000 MHz
    DMT 0x06:   640x480    75.000000 Hz   4:3     37.500 kHz     31.500000 MHz
    DMT 0x08:   800x600    56.250000 Hz   4:3     35.156 kHz     36.000000 MHz
    DMT 0x09:   800x600    60.316541 Hz   4:3     37.879 kHz     40.000000 MHz
    DMT 0x0a:   800x600    72.187572 Hz   4:3     48.077 kHz     50.000000 MHz
    DMT 0x0b:   800x600    75.000000 Hz   4:3     46.875 kHz     49.500000 MHz
    Apple   :   832x624    74.551266 Hz   4:3     49.726 kHz     57.284000 MHz
    DMT 0x10:  1024x768    60.003840 Hz   4:3     48.363 kHz     65.000000 MHz
    DMT 0x11:  1024x768    70.069359 Hz   4:3     56.476 kHz     75.000000 MHz
    DMT 0x12:  1024x768    75.028582 Hz   4:3     60.023 kHz     78.750000 MHz
    DMT 0x24:  1280x1024   75.024675 Hz   5:4     79.976 kHz    135.000000 MHz
  Standard Timings:
    DMT 0x55:  1280x720    60.000000 Hz  16:9     45.000 kHz     74.250000 MHz
    DMT 0x23:  1280x1024   60.019740 Hz   5:4     63.981 kHz    108.000000 MHz
    DMT 0x20:  1280x960    60.000000 Hz   4:3     60.000 kHz    108.000000 MHz
    DMT 0x2f:  1440x900    59.887445 Hz  16:10    55.935 kHz    106.500000 MHz
    DMT 0x2a:  1400x1050   59.978442 Hz   4:3     65.317 kHz    121.750000 MHz
    GTF     :  1152x864    60.000000 Hz   4:3     53.700 kHz     81.624000 MHz
    DMT 0x15:  1152x864    75.000000 Hz   4:3     67.500 kHz    108.000000 MHz
  Detailed Timing Descriptors:
    DTD 1:  1680x1050   60.104262 Hz   8:5     65.333 kHz    147.000000 MHz (analog composite, sync-on-green, 473 mm x 296 mm)
                 Hfront  104 Hsync 184 Hback  282 Hpol N
                 Vfront    1 Vsync   6 Vback   30 Vpol N
    DTD 2:  1440x900    60.076763 Hz   8:5     56.112 kHz    106.500000 MHz (analog composite, sync-on-green, 473 mm x 296 mm)
                 Hfront   80 Hsync 152 Hback  226 Hpol N
                 Vfront    1 Vsync   6 Vback   27 Vpol N
    DTD 3:  1600x1200   60.059858 Hz   4:3     74.594 kHz    160.900000 MHz (analog composite, sync-on-green, 473 mm x 296 mm)
                 Hfront  104 Hsync 176 Hback  277 Hpol N
                 Vfront    1 Vsync   4 Vback   37 Vpol N
    Display Product Name: 'MV220D'
Checksum: 0x2f

----------------

Failures:

Block 0, Base EDID:
  Basic Display Parameters & Features: Digital Video Interface Standard set to reserved value 0x60.
  Standard Timings: Use 0x0101 as the invalid Standard Timings code, not 0x0044.
  Missing Display Range Limits Descriptor.

EDID conformity: FAIL
