
EDID (hex):
00ffffffffffff0006af2d1400000000
021a0104951d117802bbf59455549027
23505400000001010101010101010101
0101010101013c3780c0703820403064
8e0025a5100000180000000f00000000
00000000000000000020000000fe0041
554f0a202020202020202020000000fe
004231333348544e30312e34200a007e

Extracted contents:
header:          00 ff ff ff ff ff ff 00
serial number:   06 af 2d 14 00 00 00 00 02 1a
version:         01 04
basic params:    95 1d 11 78 02
chroma info:     bb f5 94 55 54 90 27 23 50 54
established:     00 00 00
standard:        01 01 01 01 01 01 01 01 01 01 01 01 01 01 01 01
descriptor 1:    3c 37 80 c0 70 38 20 40 30 64 8e 00 25 a5 10 00 00 18
descriptor 2:    00 00 00 0f 00 00 00 00 00 00 00 00 00 00 00 00 00 20
descriptor 3:    00 00 00 fe 00 41 55 4f 0a 20 20 20 20 20 20 20 20 20
descriptor 4:    00 00 00 fe 00 42 31 33 33 48 54 4e 30 31 2e 34 20 0a
extensions:      00
checksum:        7e

EDID version: 1.4
Manufacturer: AUO Model 142d Serial Number --
Made in week 2 of 2016
Digital display
6 bits per primary color channel
DisplayPort interface
Maximum image size: 29 cm x 17 cm
Gamma: 2.20
Supported color formats: RGB 4:4:4
First detailed timing includes the native pixel format and preferred refresh rate
Display x,y Chromaticity:
  Red:   0.5800, 0.3349
  Green: 0.3300, 0.5654
  Blue:  0.1552, 0.1396
  White: 0.3134, 0.3291
Established timings supported:
Standard timings supported:
Detailed mode: Clock 141.400 MHz, 293 mm x 165 mm
               1920 1968 2068 2112 hborder 0
               1080 1088 1102 1112 vborder 0
               -hsync -vsync 
               VertFreq: 60 Hz, HorFreq: 66950 Hz
Manufacturer-specified data, tag 15
ASCII string: AUO
ASCII string: B133HTN01.4 
Checksum: 0x7e (valid)
EDID block does NOT conform to EDID 1.4!
	Missing name descriptor
	Missing monitor ranges
