
EDID (hex):
00ffffffffffff004d79010001010101
18180103805932780a0dc9a057479827
12484cbfef0031404540614081008bc0
8180d1c00101023a801871382d40582c
450075f23100001e662150b051001b30
4070360075f23100009e000000fc0054
562d6d6f6e69746f720a2020000000fd
00314c0f500e000a20202020202000de

Extracted contents:
header:          00 ff ff ff ff ff ff 00
serial number:   4d 79 01 00 01 01 01 01 18 18
version:         01 03
basic params:    80 59 32 78 0a
chroma info:     0d c9 a0 57 47 98 27 12 48 4c
established:     bf ef 00
standard:        31 40 45 40 61 40 81 00 8b c0 81 80 d1 c0 01 01
descriptor 1:    02 3a 80 18 71 38 2d 40 58 2c 45 00 75 f2 31 00 00 1e
descriptor 2:    66 21 50 b0 51 00 1b 30 40 70 36 00 75 f2 31 00 00 9e
descriptor 3:    00 00 00 fc 00 54 56 2d 6d 6f 6e 69 74 6f 72 0a 20 20
descriptor 4:    00 00 00 fd 00 31 4c 0f 50 0e 00 0a 20 20 20 20 20 20
extensions:      00
checksum:        de

EDID version: 1.3
Manufacturer: SKY Model 1 Serial Number --
Made in week 24 of 2014
Digital display
Maximum image size: 89 cm x 50 cm
Gamma: 2.20
RGB color display
First detailed timing is preferred timing
Display x,y Chromaticity:
  Red:   0.6250, 0.3398
  Green: 0.2802, 0.5947
  Blue:  0.1552, 0.0703
  White: 0.2832, 0.2978
Established timings supported:
  720x400@70Hz 9:5 HorFreq: 31469 Hz Clock: 28.320 MHz
  640x480@60Hz 4:3 HorFreq: 31469 Hz Clock: 25.175 MHz
  640x480@67Hz 4:3 HorFreq: 35000 Hz Clock: 30.240 MHz
  640x480@72Hz 4:3 HorFreq: 37900 Hz Clock: 31.500 MHz
  640x480@75Hz 4:3 HorFreq: 37500 Hz Clock: 31.500 MHz
  800x600@56Hz 4:3 HorFreq: 35200 Hz Clock: 36.000 MHz
  800x600@60Hz 4:3 HorFreq: 37900 Hz Clock: 40.000 MHz
  800x600@72Hz 4:3 HorFreq: 48100 Hz Clock: 50.000 MHz
  800x600@75Hz 4:3 HorFreq: 46900 Hz Clock: 49.500 MHz
  832x624@75Hz 4:3 HorFreq: 49726 Hz Clock: 57.284 MHz
  1024x768@60Hz 4:3 HorFreq: 48400 Hz Clock: 65.000 MHz
  1024x768@70Hz 4:3 HorFreq: 56500 Hz Clock: 75.000 MHz
  1024x768@75Hz 4:3 HorFreq: 60000 Hz Clock: 78.750 MHz
  1280x1024@75Hz 5:4 HorFreq: 80000 Hz Clock: 135.000 MHz
Standard timings supported:
  640x480@60Hz 4:3 HorFreq: 31469 Hz Clock: 25.175 MHz
  800x600@60Hz 4:3 HorFreq: 37900 Hz Clock: 40.000 MHz
  1024x768@60Hz 4:3 HorFreq: 48400 Hz Clock: 65.000 MHz
  1280x800@60Hz 16:10
  1360x765@60Hz 16:9
  1280x1024@60Hz 5:4 HorFreq: 64000 Hz Clock: 108.000 MHz
  1920x1080@60Hz 16:9
Detailed mode: Clock 148.500 MHz, 885 mm x 498 mm
               1920 2008 2052 2200 hborder 0
               1080 1084 1089 1125 vborder 0
               +hsync +vsync 
               VertFreq: 60 Hz, HorFreq: 67500 Hz
Detailed mode: Clock 85.500 MHz, 885 mm x 498 mm
               1360 1424 1536 1792 hborder 0
                768  771  777  795 vborder 0
               +hsync +vsync interlaced 
               VertFreq: 60 Hz, HorFreq: 47712 Hz
Monitor name: TV-monitor
Monitor ranges (GTF): 49-76Hz V, 15-80kHz H, max dotclock 140MHz
Checksum: 0xde (valid)
One or more of the timings is out of range of the Monitor Ranges:
  Vertical Freq: 56 - 75 Hz
  Horizontal Freq: 31469 - 80000 Hz
  Maximum Clock: 148.500 MHz
