
EDID (hex):
00ffffffffffff0009e50a0a00000000
0a1f0104a517107803ee95a3544c9926
0f505400000001010101010101010101
0101010101012c5170b480a028503020
3600e99b0000001a1d3670b480a02850
30203600e99b0000001a000000000000
00000000000000000000000000000002
000d28ff0a3cc8120a20c8000000006f

Extracted contents:
header:          00 ff ff ff ff ff ff 00
serial number:   09 e5 0a 0a 00 00 00 00 0a 1f
version:         01 04
basic params:    a5 17 10 78 03
chroma info:     ee 95 a3 54 4c 99 26 0f 50 54
established:     00 00 00
standard:        01 01 01 01 01 01 01 01 01 01 01 01 01 01 01 01
descriptor 1:    2c 51 70 b4 80 a0 28 50 30 20 36 00 e9 9b 00 00 00 1a
descriptor 2:    1d 36 70 b4 80 a0 28 50 30 20 36 00 e9 9b 00 00 00 1a
descriptor 3:    00 00 00 00 00 00 00 00 00 00 00 00 00 00 00 00 00 00
descriptor 4:    00 00 00 02 00 0d 28 ff 0a 3c c8 12 0a 20 c8 00 00 00
extensions:      00
checksum:        6f

EDID version: 1.4
Manufacturer: BOE Model a0a Serial Number --
Made in week 10 of 2021
Digital display
8 bits per primary color channel
DisplayPort interface
Maximum image size: 23 cm x 16 cm
Gamma: 2.20
Supported color formats: RGB 4:4:4
First detailed timing includes the native pixel format and preferred refresh rate
Display is continuous frequency
Display x,y Chromaticity:
  Red:   0.6396, 0.3300
  Green: 0.2998, 0.5996
  Blue:  0.1503, 0.0595
  White: 0.3134, 0.3291
Established timings supported:
Standard timings supported:
Detailed mode: Clock 207.800 MHz, 233 mm x 155 mm
               2160 2208 2240 2340 hborder 0
               1440 1443 1449 1480 vborder 0
               +hsync -vsync 
               VertFreq: 60 Hz, HorFreq: 88803 Hz
Detailed mode: Clock 138.530 MHz, 233 mm x 155 mm
               2160 2208 2240 2340 hborder 0
               1440 1443 1449 1480 vborder 0
               +hsync -vsync 
               VertFreq: 40 Hz, HorFreq: 59200 Hz
Manufacturer-specified data, tag 0
Manufacturer-specified data, tag 2
Checksum: 0x6f (valid)
EDID block does NOT conform to EDID 1.4!
	Missing name descriptor
	Missing monitor ranges
