edid-decode (hex):

00 ff ff ff ff ff ff 00 5d 34 00 15 01 00 00 00
14 16 01 03 a0 a0 5a 78 22 ed ec a6 55 4d 9e 25
0c 4e 53 bf ef 80 d1 40 81 c0 95 00 81 80 a9 40
b3 00 d1 c0 d1 00 02 3a 80 18 71 38 2d 40 30 20
35 00 58 c2 10 00 00 1a 66 21 56 aa 51 00 1e 30
46 8f 33 00 55 50 21 00 00 1e 00 00 00 fd 00 38
4b 1e 5b 19 00 0a 20 20 20 20 20 20 00 00 00 fc
00 52 47 42 0a 20 20 20 20 20 20 20 20 20 00 b6

00 ff ff ff ff ff ff 00 5d 34 00 15 01 00 00 00
14 16 01 03 a0 a0 5a 78 22 ed ec a6 55 4d 9e 25
0c 4e 53 bf ef 80 d1 40 81 c0 95 00 81 80 a9 40
b3 00 d1 c0 d1 00 02 3a 80 18 71 38 2d 40 30 20
35 00 58 c2 10 00 00 1a 66 21 56 aa 51 00 1e 30
46 8f 33 00 55 50 21 00 00 1e 00 00 00 fd 00 38
4b 1e 5b 19 00 0a 20 20 20 20 20 20 00 00 00 fc
00 52 47 42 0a 20 20 20 20 20 20 20 20 20 00 b6

----------------

Block 0, Base EDID:
  EDID Structure Version & Revision: 1.3
  Vendor & Product Identification:
    Manufacturer: WIT
    Model: 5376
    Serial Number: ...
    Made in: week 20 of 2012
  Basic Display Parameters & Features:
    Digital display
    Maximum image size: 160 cm x 90 cm
    Gamma: 2.20
    DPMS levels: Off
    Monochrome or grayscale display
    First detailed timing is the preferred timing
  Color Characteristics:
    Red  : 0.6513, 0.3339
    Green: 0.3037, 0.6181
    Blue : 0.1474, 0.0488
    White: 0.3076, 0.3242
  Established Timings I & II:
    IBM     :   720x400    70.081663 Hz   9:5     31.467 kHz     28.320000 MHz
    DMT 0x04:   640x480    59.940476 Hz   4:3     31.469 kHz     25.175000 MHz
    Apple   :   640x480    66.666667 Hz   4:3     35.000 kHz     30.240000 MHz
    DMT 0x05:   640x480    72.808802 Hz   4:3     37.861 kHz     31.500000 MHz
    DMT 0x06:   640x480    75.000000 Hz   4:3     37.500 kHz     31.500000 MHz
    DMT 0x08:   800x600    56.250000 Hz   4:3     35.156 kHz     36.000000 MHz
    DMT 0x09:   800x600    60.316541 Hz   4:3     37.879 kHz     40.000000 MHz
    DMT 0x0a:   800x600    72.187572 Hz   4:3     48.077 kHz     50.000000 MHz
    DMT 0x0b:   800x600    75.000000 Hz   4:3     46.875 kHz     49.500000 MHz
    Apple   :   832x624    74.551266 Hz   4:3     49.726 kHz     57.284000 MHz
    DMT 0x10:  1024x768    60.003840 Hz   4:3     48.363 kHz     65.000000 MHz
    DMT 0x11:  1024x768    70.069359 Hz   4:3     56.476 kHz     75.000000 MHz
    DMT 0x12:  1024x768    75.028582 Hz   4:3     60.023 kHz     78.750000 MHz
    DMT 0x24:  1280x1024   75.024675 Hz   5:4     79.976 kHz    135.000000 MHz
    Apple   :  1152x870    75.061550 Hz 192:145   68.681 kHz    100.000000 MHz
  Standard Timings:
    DMT 0x49:  1920x1440   60.000000 Hz   4:3     90.000 kHz    234.000000 MHz
    DMT 0x55:  1280x720    60.000000 Hz  16:9     45.000 kHz     74.250000 MHz
    DMT 0x2f:  1440x900    59.887445 Hz  16:10    55.935 kHz    106.500000 MHz
    DMT 0x23:  1280x1024   60.019740 Hz   5:4     63.981 kHz    108.000000 MHz
    DMT 0x33:  1600x1200   60.000000 Hz   4:3     75.000 kHz    162.000000 MHz
    DMT 0x3a:  1680x1050   59.954250 Hz  16:10    65.290 kHz    146.250000 MHz
    DMT 0x52:  1920x1080   60.000000 Hz  16:9     67.500 kHz    148.500000 MHz
    DMT 0x45:  1920x1200   59.884600 Hz  16:10    74.556 kHz    193.250000 MHz
  Detailed Timing Descriptors:
    DTD 1:  1920x1080   60.000000 Hz  16:9     67.500 kHz    148.500000 MHz (344 mm x 194 mm)
                 Hfront   48 Hsync  32 Hback  200 Hpol P
                 Vfront    3 Vsync   5 Vback   37 Vpol N
    DTD 2:  1366x768    59.789541 Hz 683:384   47.712 kHz     85.500000 MHz (597 mm x 336 mm)
                 Hfront   70 Hsync 143 Hback  213 Hpol P
                 Vfront    3 Vsync   3 Vback   24 Vpol P
    Display Range Limits:
      Monitor ranges (GTF): 56-75 Hz V, 30-91 kHz H, max dotclock 250 MHz
    Display Product Name: 'RGB'
Checksum: 0xb6

----------------

Block 1, Unknown EDID Extension Block 0x00:
  00 ff ff ff ff ff ff 00 5d 34 00 15 01 00 00 00 '........]4......'
  14 16 01 03 a0 a0 5a 78 22 ed ec a6 55 4d 9e 25 '......Zx"...UM.%'
  0c 4e 53 bf ef 80 d1 40 81 c0 95 00 81 80 a9 40 '.NS....@.......@'
  b3 00 d1 c0 d1 00 02 3a 80 18 71 38 2d 40 30 20 '.......:..q8-@0 '
  35 00 58 c2 10 00 00 1a 66 21 56 aa 51 00 1e 30 '5.X.....f!V.Q..0'
  46 8f 33 00 55 50 21 00 00 1e 00 00 00 fd 00 38 'F.3.UP!........8'
  4b 1e 5b 19 00 0a 20 20 20 20 20 20 00 00 00 fc 'K.[...      ....'
  00 52 47 42 0a 20 20 20 20 20 20 20 20 20 00 b6 '.RGB.         ..'
Checksum: 0xb6

----------------

Warnings:

Block 0, Base EDID:
  Detailed Timing Descriptor #1: DTD is similar but not identical to VIC 16.

Failures:

Block 0, Base EDID:
  Basic Display Parameters & Features: Digital Video Interface Standard set to reserved value 0x20.
  Detailed Timing Descriptor #1: Mismatch of image size 344x194 mm vs display size 1600x900 mm.
  Detailed Timing Descriptor #2: Mismatch of image size 597x336 mm vs display size 1600x900 mm.
Block 1, Base EDID:
  Unknown Extension Block.
EDID:
  Base EDID: EDID specified 0 extension block(s), but found 1 extension block(s).

EDID conformity: FAIL
