
EDID (hex):
00ffffffffffff004a84000001000000
34210103a50000782af0659857519127
2150542108000101a9c0010101010101
0101010101016c2480b470d01420302a
3a0036801000001e422090b460d01420
302a3a0036801000001e000000fc0031
322e334648440a2020202020000000fd
00313d0f440f000a20202020202001df
02032bf2470445536cee4453e300d5d5
e305c00023097f078301000067030c00
10003848e606050169694f6c2480b470
d01420302a3a0036801000001e000000
00000000000000000000000000000000
00000000000000000000000000000000
00000000000000000000000000000000
000000000000000000000000000000d6

edid-decode (hex):

00 ff ff ff ff ff ff 00 4a 84 00 00 01 00 00 00
34 21 01 03 a5 00 00 78 2a f0 65 98 57 51 91 27
21 50 54 21 08 00 01 01 a9 c0 01 01 01 01 01 01
01 01 01 01 01 01 6c 24 80 b4 70 d0 14 20 30 2a
3a 00 36 80 10 00 00 1e 42 20 90 b4 60 d0 14 20
30 2a 3a 00 36 80 10 00 00 1e 00 00 00 fc 00 31
32 2e 33 46 48 44 0a 20 20 20 20 20 00 00 00 fd
00 31 3d 0f 44 0f 00 0a 20 20 20 20 20 20 01 df

02 03 2b f2 47 04 45 53 6c ee 44 53 e3 00 d5 d5
e3 05 c0 00 23 09 7f 07 83 01 00 00 67 03 0c 00
10 00 38 48 e6 06 05 01 69 69 4f 6c 24 80 b4 70
d0 14 20 30 2a 3a 00 36 80 10 00 00 1e 00 00 00
00 00 00 00 00 00 00 00 00 00 00 00 00 00 00 00
00 00 00 00 00 00 00 00 00 00 00 00 00 00 00 00
00 00 00 00 00 00 00 00 00 00 00 00 00 00 00 00
00 00 00 00 00 00 00 00 00 00 00 00 00 00 00 d6

----------------

Block 0, Base EDID:
  EDID Structure Version & Revision: 1.3
  Vendor & Product Identification:
    Manufacturer: RTD
    Model: 0
    Serial Number: 1
    Made in: week 52 of 2023
  Basic Display Parameters & Features:
    Digital display
    DFP 1.x compatible TMDS
    Image size is variable
    Gamma: 2.20
    DPMS levels: Off
    RGB color display
    First detailed timing is the preferred timing
  Color Characteristics:
    Red  : 0.5966, 0.3427
    Green: 0.3164, 0.5664
    Blue : 0.1533, 0.1308
    White: 0.3134, 0.3291
  Established Timings I & II:
    DMT 0x04:   640x480    59.940476 Hz   4:3     31.469 kHz     25.175000 MHz
    DMT 0x09:   800x600    60.316541 Hz   4:3     37.879 kHz     40.000000 MHz
    DMT 0x10:  1024x768    60.003840 Hz   4:3     48.363 kHz     65.000000 MHz
  Standard Timings:
    DMT 0x53:  1600x900    60.000000 Hz  16:9     60.000 kHz    108.000000 MHz (RB)
  Detailed Timing Descriptors:
    DTD 1:  1920x720    60.000000 Hz   8:3     44.400 kHz     93.240000 MHz (310 mm x 128 mm)
                 Hfront   48 Hsync  42 Hback   90 Hpol P
                 Vfront    3 Vsync  10 Vback    7 Vpol P
    DTD 2:  1680x720    59.997094 Hz   7:3     44.398 kHz     82.580000 MHz (310 mm x 128 mm)
                 Hfront   48 Hsync  42 Hback   90 Hpol P
                 Vfront    3 Vsync  10 Vback    7 Vpol P
    Display Product Name: '12.3FHD'
    Display Range Limits:
      Monitor ranges (GTF): 49-61 Hz V, 15-68 kHz H, max dotclock 150 MHz
  Extension blocks: 1
Checksum: 0xdf

----------------

Block 1, CTA-861 Extension Block:
  Revision: 3
  Underscans IT Video Formats by default
  Basic audio support
  Supports YCbCr 4:4:4
  Supports YCbCr 4:2:2
  Native detailed modes: 2
  Video Data Block:
    VIC   4:  1280x720    60.000000 Hz  16:9     45.000 kHz     74.250000 MHz
    VIC  69:  1280x720    60.000000 Hz  64:27    45.000 kHz     74.250000 MHz
    VIC  83:  1680x720    60.000000 Hz  64:27    45.000 kHz     99.000000 MHz
    VIC 108:  1280x720    48.000000 Hz  16:9     36.000 kHz     90.000000 MHz
    Unknown (VIC 238)
    VIC  68:  1280x720    50.000000 Hz  64:27    37.500 kHz     74.250000 MHz
    VIC  83:  1680x720    60.000000 Hz  64:27    45.000 kHz     99.000000 MHz
  Video Capability Data Block:
    YCbCr quantization: Selectable (via AVI YQ)
    RGB quantization: Selectable (via AVI Q)
    PT scan behavior: Always Overscanned
    IT scan behavior: Always Overscanned
    CE scan behavior: Always Overscanned
  Colorimetry Data Block:
    BT2020YCC
    BT2020RGB
  Audio Data Block:
    Linear PCM:
      Max channels: 2
      Supported sample rates (kHz): 192 176.4 96 88.2 48 44.1 32
      Supported sample sizes (bits): 24 20 16
  Speaker Allocation Data Block:
    FL/FR - Front Left/Right
  Vendor-Specific Data Block (HDMI), OUI 00-0C-03:
    Source physical address: 1.0.0.0
    DC_36bit
    DC_30bit
    DC_Y444
    Maximum TMDS clock: 360 MHz
  HDR Static Metadata Data Block:
    Electro optical transfer functions:
      Traditional gamma - SDR luminance range
      SMPTE ST2084
    Supported static metadata descriptors:
      Static metadata type 1
    Desired content max luminance: 105 (486.099 cd/m^2)
    Desired content max frame-average luminance: 105 (486.099 cd/m^2)
    Desired content min luminance: 79 (0.467 cd/m^2)
  Detailed Timing Descriptors:
    DTD 3:  1920x720    60.000000 Hz   8:3     44.400 kHz     93.240000 MHz (310 mm x 128 mm)
                 Hfront   48 Hsync  42 Hback   90 Hpol P
                 Vfront    3 Vsync  10 Vback    7 Vpol P
Checksum: 0xd6  Unused space in Extension Block: 66 bytes
