edid-decode (hex):

00 ff ff ff ff ff ff 00 4a 84 00 00 01 00 00 00
34 21 01 03 a5 00 00 78 2a f0 65 98 57 51 91 27
21 50 54 21 08 00 01 01 a9 c0 01 01 01 01 01 01
01 01 01 01 01 01 6c 24 80 b4 70 d0 14 20 30 2a
3a 00 36 80 10 00 00 1e 42 20 90 b4 60 d0 14 20
30 2a 3a 00 36 80 10 00 00 1e 00 00 00 fc 00 31
32 2e 33 46 48 44 0a 20 20 20 20 20 00 00 00 fd
00 31 3d 0f 44 0f 00 0a 20 20 20 20 20 20 01 df

02 03 2b f2 47 04 45 53 6c ee 44 53 e3 00 d5 d5
e3 05 c0 00 23 09 7f 07 83 01 00 00 67 03 0c 00
10 00 38 48 e6 06 05 01 69 69 4f 6c 24 80 b4 70
d0 14 20 30 2a 3a 00 36 80 10 00 00 1e 00 00 00
00 00 00 00 00 00 00 00 00 00 00 00 00 00 00 00
00 00 00 00 00 00 00 00 00 00 00 00 00 00 00 00
00 00 00 00 00 00 00 00 00 00 00 00 00 00 00 00
00 00 00 00 00 00 00 00 00 00 00 00 00 00 00 d6

00 ff ff ff ff ff ff 00 4a 84 00 00 01 00 00 00
34 21 01 03 a5 00 00 78 2a f0 65 98 57 51 91 27
21 50 54 21 08 00 01 01 a9 c0 01 01 01 01 01 01
01 01 01 01 01 01 6c 24 80 b4 70 d0 14 20 30 2a
3a 00 36 80 10 00 00 1e 42 20 90 b4 60 d0 14 20
30 2a 3a 00 36 80 10 00 00 1e 00 00 00 fc 00 31
32 2e 33 46 48 44 0a 20 20 20 20 20 00 00 00 fd
00 31 3d 0f 44 0f 00 0a 20 20 20 20 20 20 01 df

02 03 2b f2 47 04 45 53 6c ee 44 53 e3 00 d5 d5
e3 05 c0 00 23 09 7f 07 83 01 00 00 67 03 0c 00
10 00 38 48 e6 06 05 01 69 69 4f 6c 24 80 b4 70
d0 14 20 30 2a 3a 00 36 80 10 00 00 1e 00 00 00
00 00 00 00 00 00 00 00 00 00 00 00 00 00 00 00
00 00 00 00 00 00 00 00 00 00 00 00 00 00 00 00
00 00 00 00 00 00 00 00 00 00 00 00 00 00 00 00
00 00 00 00 00 00 00 00 00 00 00 00 00 00 00 d6

----------------

Block 0, Base EDID:
  EDID Structure Version & Revision: 1.3
  Vendor & Product Identification:
    Manufacturer: RTD
    Model: 0
    Serial Number: ...
    Made in: week 52 of 2023
  Basic Display Parameters & Features:
    Digital display
    DFP 1.x compatible TMDS
    Image size is variable
    Gamma: 2.20
    DPMS levels: Off
    RGB color display
    First detailed timing is the preferred timing
  Color Characteristics:
    Red  : 0.5966, 0.3427
    Green: 0.3164, 0.5664
    Blue : 0.1533, 0.1308
    White: 0.3134, 0.3291
  Established Timings I & II:
    DMT 0x04:   640x480    59.940476 Hz   4:3     31.469 kHz     25.175000 MHz
    DMT 0x09:   800x600    60.316541 Hz   4:3     37.879 kHz     40.000000 MHz
    DMT 0x10:  1024x768    60.003840 Hz   4:3     48.363 kHz     65.000000 MHz
  Standard Timings:
    DMT 0x53:  1600x900    60.000000 Hz  16:9     60.000 kHz    108.000000 MHz (RB)
  Detailed Timing Descriptors:
    DTD 1:  1920x720    60.000000 Hz   8:3     44.400 kHz     93.240000 MHz (310 mm x 128 mm)
                 Hfront   48 Hsync  42 Hback   90 Hpol P
                 Vfront    3 Vsync  10 Vback    7 Vpol P
    DTD 2:  1680x720    59.997094 Hz   7:3     44.398 kHz     82.580000 MHz (310 mm x 128 mm)
                 Hfront   48 Hsync  42 Hback   90 Hpol P
                 Vfront    3 Vsync  10 Vback    7 Vpol P
    Display Product Name: '12.3FHD'
    Display Range Limits:
      Monitor ranges (GTF): 49-61 Hz V, 15-68 kHz H, max dotclock 150 MHz
  Extension blocks: 1
Checksum: 0xdf

----------------

Block 1, CTA-861 Extension Block:
  Revision: 3
  Underscans IT Video Formats by default
  Basic audio support
  Supports YCbCr 4:4:4
  Supports YCbCr 4:2:2
  Native detailed modes: 2
  Video Data Block:
    VIC   4:  1280x720    60.000000 Hz  16:9     45.000 kHz     74.250000 MHz
    VIC  69:  1280x720    60.000000 Hz  64:27    45.000 kHz     74.250000 MHz
    VIC  83:  1680x720    60.000000 Hz  64:27    45.000 kHz     99.000000 MHz
    VIC 108:  1280x720    48.000000 Hz  16:9     36.000 kHz     90.000000 MHz
    Unknown (VIC 238)
    VIC  68:  1280x720    50.000000 Hz  64:27    37.500 kHz     74.250000 MHz
    VIC  83:  1680x720    60.000000 Hz  64:27    45.000 kHz     99.000000 MHz
  Video Capability Data Block:
    YCbCr quantization: Selectable (via AVI YQ)
    RGB quantization: Selectable (via AVI Q)
    PT scan behavior: Always Overscanned
    IT scan behavior: Always Overscanned
    CE scan behavior: Always Overscanned
  Colorimetry Data Block:
    BT2020YCC
    BT2020RGB
  Audio Data Block:
    Linear PCM:
      Max channels: 2
      Supported sample rates (kHz): 192 176.4 96 88.2 48 44.1 32
      Supported sample sizes (bits): 24 20 16
  Speaker Allocation Data Block:
    FL/FR - Front Left/Right
  Vendor-Specific Data Block (HDMI), OUI 00-0C-03:
    Source physical address: 1.0.0.0
    DC_36bit
    DC_30bit
    DC_Y444
    Maximum TMDS clock: 360 MHz
  HDR Static Metadata Data Block:
    Electro optical transfer functions:
      Traditional gamma - SDR luminance range
      SMPTE ST2084
    Supported static metadata descriptors:
      Static metadata type 1
    Desired content max luminance: 105 (486.099 cd/m^2)
    Desired content max frame-average luminance: 105 (486.099 cd/m^2)
    Desired content min luminance: 79 (0.467 cd/m^2)
  Detailed Timing Descriptors:
    DTD 3:  1920x720    60.000000 Hz   8:3     44.400 kHz     93.240000 MHz (310 mm x 128 mm)
                 Hfront   48 Hsync  42 Hback   90 Hpol P
                 Vfront    3 Vsync  10 Vback    7 Vpol P
Checksum: 0xd6  Unused space in Extension Block: 66 bytes

----------------

Block 2, Unknown EDID Extension Block 0x00:
  00 ff ff ff ff ff ff 00 4a 84 00 00 01 00 00 00 '........J.......'
  34 21 01 03 a5 00 00 78 2a f0 65 98 57 51 91 27 '4!.....x*.e.WQ.''
  21 50 54 21 08 00 01 01 a9 c0 01 01 01 01 01 01 '!PT!............'
  01 01 01 01 01 01 6c 24 80 b4 70 d0 14 20 30 2a '......l$..p.. 0*'
  3a 00 36 80 10 00 00 1e 42 20 90 b4 60 d0 14 20 ':.6.....B ..`.. '
  30 2a 3a 00 36 80 10 00 00 1e 00 00 00 fc 00 31 '0*:.6..........1'
  32 2e 33 46 48 44 0a 20 20 20 20 20 00 00 00 fd '2.3FHD.     ....'
  00 31 3d 0f 44 0f 00 0a 20 20 20 20 20 20 01 df '.1=.D...      ..'
Checksum: 0xdf

----------------

Block 3, CTA-861 Extension Block:
  Revision: 3
  Underscans IT Video Formats by default
  Basic audio support
  Supports YCbCr 4:4:4
  Supports YCbCr 4:2:2
  Native detailed modes: 2
  Video Data Block:
    VIC   4:  1280x720    60.000000 Hz  16:9     45.000 kHz     74.250000 MHz
    VIC  69:  1280x720    60.000000 Hz  64:27    45.000 kHz     74.250000 MHz
    VIC  83:  1680x720    60.000000 Hz  64:27    45.000 kHz     99.000000 MHz
    VIC 108:  1280x720    48.000000 Hz  16:9     36.000 kHz     90.000000 MHz
    Unknown (VIC 238)
    VIC  68:  1280x720    50.000000 Hz  64:27    37.500 kHz     74.250000 MHz
    VIC  83:  1680x720    60.000000 Hz  64:27    45.000 kHz     99.000000 MHz
  Video Capability Data Block:
    YCbCr quantization: Selectable (via AVI YQ)
    RGB quantization: Selectable (via AVI Q)
    PT scan behavior: Always Overscanned
    IT scan behavior: Always Overscanned
    CE scan behavior: Always Overscanned
  Colorimetry Data Block:
    BT2020YCC
    BT2020RGB
  Audio Data Block:
    Linear PCM:
      Max channels: 2
      Supported sample rates (kHz): 192 176.4 96 88.2 48 44.1 32
      Supported sample sizes (bits): 24 20 16
  Speaker Allocation Data Block:
    FL/FR - Front Left/Right
  Vendor-Specific Data Block (HDMI), OUI 00-0C-03:
    Source physical address: 1.0.0.0
    DC_36bit
    DC_30bit
    DC_Y444
    Maximum TMDS clock: 360 MHz
  HDR Static Metadata Data Block:
    Electro optical transfer functions:
      Traditional gamma - SDR luminance range
      SMPTE ST2084
    Supported static metadata descriptors:
      Static metadata type 1
    Desired content max luminance: 105 (486.099 cd/m^2)
    Desired content max frame-average luminance: 105 (486.099 cd/m^2)
    Desired content min luminance: 79 (0.467 cd/m^2)
  Detailed Timing Descriptors:
    DTD 4:  1920x720    60.000000 Hz   8:3     44.400 kHz     93.240000 MHz (310 mm x 128 mm)
                 Hfront   48 Hsync  42 Hback   90 Hpol P
                 Vfront    3 Vsync  10 Vback    7 Vpol P
Checksum: 0xd6  Unused space in Extension Block: 66 bytes

----------------

Warnings:

Block 1, CTA-861 Extension Block:
  Video Capability Data Block: IT scan behavior is expected to support underscanned.
  Video Capability Data Block: S_PT is equal to S_IT and S_CE, so should be set to 0 instead.
  Colorimetry Data Block: Set the sRGB colorimetry bit to avoid interop issues.
Block 3, CTA-861 Extension Block:
  Video Capability Data Block: IT scan behavior is expected to support underscanned.
  Video Capability Data Block: S_PT is equal to S_IT and S_CE, so should be set to 0 instead.
  Colorimetry Data Block: Set the sRGB colorimetry bit to avoid interop issues.

Failures:

Block 0, Base EDID:
  Basic Display Parameters & Features: Digital Video Interface Standard set to reserved value 0x24.
Block 1, CTA-861 Extension Block:
  Video Data Block: Unknown VIC 238.
  Video Data Block: Duplicate VIC 83.
  Video Capability Data Block: IT video formats are always overscanned, but bit 7 of Byte 3 of the CTA-861 Extension header is set to underscanned.
  Vendor-Specific Data Block (HDMI), OUI 00-0C-03: HDMI VSDB Max TMDS rate is > 340.
Block 2, Base EDID:
  Unknown Extension Block.
Block 3, CTA-861 Extension Block:
  Video Data Block: Duplicate VIC 4.
  Video Data Block: Duplicate VIC 69.
  Video Data Block: Duplicate VIC 108.
  Video Data Block: Unknown VIC 238.
  Video Data Block: Duplicate VIC 238.
  Video Data Block: Duplicate VIC 68.
  Video Capability Data Block: Only one instance of this Data Block is allowed.
  Video Capability Data Block: IT video formats are always overscanned, but bit 7 of Byte 3 of the CTA-861 Extension header is set to underscanned.
  Colorimetry Data Block: Only one instance of this Data Block is allowed.
  Speaker Allocation Data Block: Only one instance of this Data Block is allowed.
  Vendor-Specific Data Block (HDMI), OUI 00-0C-03: HDMI VSDB Max TMDS rate is > 340.
  HDR Static Metadata Data Block: Only one instance of this Data Block is allowed.
EDID:
  Base EDID: Some timings are out of range of the Monitor Ranges:
    Vertical Freq: 48.000 - 60.317 Hz (Monitor: 49.000 - 61.000 Hz)
  Base EDID: The DTD max image size is 310x128mm, but the display size is not specified anywhere.
  Base EDID: EDID specified 1 extension block(s), but found 3 extension block(s).
  Base EDID: EDID 1.3 requires a Block Map Extension in Block 1 if there are more than 2 blocks in the EDID.
  CTA-861: Native progressive timings are a mix of several resolutions.

EDID conformity: FAIL
