
EDID (hex):
00ffffffffffff0042933a0601010101
17120103001e168ceaf240a454459a24
13494b2dc80001010101010101010101
01010101010164190040410026301888
360030e410000018000000fd003c4b1f
3207000a202020202020000000fc004c
5431353034530a2020202020000000ff
00303832333036303030383539310035

Extracted contents:
header:          00 ff ff ff ff ff ff 00
serial number:   42 93 3a 06 01 01 01 01 17 12
version:         01 03
basic params:    00 1e 16 8c ea
chroma info:     f2 40 a4 54 45 9a 24 13 49 4b
established:     2d c8 00
standard:        01 01 01 01 01 01 01 01 01 01 01 01 01 01 01 01
descriptor 1:    64 19 00 40 41 00 26 30 18 88 36 00 30 e4 10 00 00 18
descriptor 2:    00 00 00 fd 00 3c 4b 1f 32 07 00 0a 20 20 20 20 20 20
descriptor 3:    00 00 00 fc 00 4c 54 31 35 30 34 53 0a 20 20 20 20 20
descriptor 4:    00 00 00 ff 00 30 38 32 33 30 36 30 30 30 38 35 39 31
extensions:      00
checksum:        35

EDID version: 1.3
Manufacturer: PTS Model 63a Serial Number --
Made in week 23 of 2008
Analog display, Input voltage level: 0.7/0.3 V
Sync: 
Maximum image size: 30 cm x 22 cm
Gamma: 2.40
DPMS levels: Standby Suspend Off
RGB color display
First detailed timing is preferred timing
Display x,y Chromaticity:
  Red:   0.6435, 0.3310
  Green: 0.2695, 0.6035
  Blue:  0.1416, 0.0742
  White: 0.2851, 0.2929
Established timings supported:
  640x480@60Hz 4:3 HorFreq: 31469 Hz Clock: 25.175 MHz
  640x480@72Hz 4:3 HorFreq: 37900 Hz Clock: 31.500 MHz
  640x480@75Hz 4:3 HorFreq: 37500 Hz Clock: 31.500 MHz
  800x600@60Hz 4:3 HorFreq: 37900 Hz Clock: 40.000 MHz
  800x600@72Hz 4:3 HorFreq: 48100 Hz Clock: 50.000 MHz
  800x600@75Hz 4:3 HorFreq: 46900 Hz Clock: 49.500 MHz
  1024x768@60Hz 4:3 HorFreq: 48400 Hz Clock: 65.000 MHz
Standard timings supported:
Detailed mode: Clock 65.000 MHz, 304 mm x 228 mm
               1024 1048 1184 1344 hborder 0
                768  771  777  806 vborder 0
               -hsync -vsync 
               VertFreq: 60 Hz, HorFreq: 48363 Hz
Monitor ranges (GTF): 60-75Hz V, 31-50kHz H, max dotclock 70MHz
Monitor name: LT1504S
Serial number: --
Checksum: 0x35 (valid)
