edid-decode (hex):

00 ff ff ff ff ff ff 00 30 ae 36 40 00 00 00 00
00 11 01 03 80 1e 13 78 ea cd 75 91 55 4f 8b 26
21 50 54 00 00 00 01 01 01 01 01 01 01 01 01 01
01 01 01 01 01 01 ac 27 a0 84 51 84 1a 30 30 20
36 00 2f be 10 00 00 19 d5 21 a0 f8 50 84 7e 30
30 20 36 00 2f be 10 00 00 19 00 00 00 0f 00 95
0a 32 95 0a 28 19 09 00 4c a3 57 54 00 00 00 fe
00 4c 54 4e 31 34 31 42 54 30 34 30 30 32 00 be

----------------

Block 0, Base EDID:
  EDID Structure Version & Revision: 1.3
  Vendor & Product Identification:
    Manufacturer: LEN
    Model: 16438
    Made in: 2007
  Basic Display Parameters & Features:
    Digital display
    Maximum image size: 30 cm x 19 cm
    Gamma: 2.20
    DPMS levels: Standby Suspend Off
    RGB color display
    First detailed timing is the preferred timing
  Color Characteristics:
    Red  : 0.5693, 0.3320
    Green: 0.3115, 0.5439
    Blue : 0.1494, 0.1318
    White: 0.3134, 0.3291
  Established Timings I & II: none
  Standard Timings: none
  Detailed Timing Descriptors:
    DTD 1:  1440x900    59.997826 Hz  16:10    55.558 kHz    101.560000 MHz (303 mm x 190 mm)
                 Hfront   48 Hsync  32 Hback  308 Hpol N
                 Vfront    3 Vsync   6 Vback   17 Vpol N
    DTD 2:  1440x900    50.009008 Hz  16:10    51.309 kHz     86.610000 MHz (303 mm x 190 mm)
                 Hfront   48 Hsync  32 Hback  168 Hpol N
                 Vfront    3 Vsync   6 Vback  117 Vpol N
    Manufacturer-Specified Display Descriptor (0x0f): 00 0f 00 95 0a 32 95 0a 28 19 09 00 4c a3 57 54 '.....2..(...L.WT'
    Alphanumeric Data String: 'LTN141BT04002'
Checksum: 0xbe

----------------

Failures:

Block 0, Base EDID:
  Missing Display Product Name.
  Missing Display Range Limits Descriptor.

EDID conformity: FAIL
