
EDID (hex):
00ffffffffffff0030ae364000000000
01130103801e1378eafcc59757569125
20505400000001010101010101010101
0101010101019227a08a518414303020
36002fbd100000189127a0d05184a430
302036002fbd100000180000000f0095
0a32950a2816090006af5630000000fe
004231343150573034205630200a0045

Extracted contents:
header:          00 ff ff ff ff ff ff 00
serial number:   30 ae 36 40 00 00 00 00 01 13
version:         01 03
basic params:    80 1e 13 78 ea
chroma info:     fc c5 97 57 56 91 25 20 50 54
established:     00 00 00
standard:        01 01 01 01 01 01 01 01 01 01 01 01 01 01 01 01
descriptor 1:    92 27 a0 8a 51 84 14 30 30 20 36 00 2f bd 10 00 00 18
descriptor 2:    91 27 a0 d0 51 84 a4 30 30 20 36 00 2f bd 10 00 00 18
descriptor 3:    00 00 00 0f 00 95 0a 32 95 0a 28 16 09 00 06 af 56 30
descriptor 4:    00 00 00 fe 00 42 31 34 31 50 57 30 34 20 56 30 20 0a
extensions:      00
checksum:        45

EDID version: 1.3
Manufacturer: LEN Model 4036 Serial Number --
Made in week 1 of 2009
Digital display
Maximum image size: 30 cm x 19 cm
Gamma: 2.20
DPMS levels: Standby Suspend Off
RGB color display
First detailed timing is preferred timing
Display x,y Chromaticity:
  Red:   0.5927, 0.3427
  Green: 0.3388, 0.5664
  Blue:  0.1474, 0.1250
  White: 0.3134, 0.3291
Established timings supported:
Standard timings supported:
Detailed mode: Clock 101.300 MHz, 303 mm x 189 mm
               1440 1488 1520 1834 hborder 0
                900  903  909  920 vborder 0
               -hsync -vsync 
               VertFreq: 60 Hz, HorFreq: 55234 Hz
Detailed mode: Clock 101.290 MHz, 303 mm x 189 mm
               1440 1488 1520 1904 hborder 0
                900  903  909 1064 vborder 0
               -hsync -vsync 
               VertFreq: 49 Hz, HorFreq: 53198 Hz
Manufacturer-specified data, tag 15
ASCII string: B141PW04 V0 
Checksum: 0x45 (valid)
EDID block does NOT conform to EDID 1.3!
	Missing name descriptor
	Missing monitor ranges
