edid-decode (hex):

00 ff ff ff ff ff ff 00 30 ae 36 40 00 00 00 00
00 13 01 03 80 1e 13 78 ea ef 25 94 58 56 8a 29
24 50 54 00 00 00 01 01 01 01 01 01 01 01 01 01
01 01 01 01 01 01 8a 25 a0 20 51 84 1a 30 30 40
36 00 30 be 10 00 00 19 5e 1f a0 20 51 84 1a 30
30 40 36 00 30 be 10 00 00 19 00 00 00 0f 00 95
0a 32 95 0a 28 16 09 00 30 e4 73 02 00 00 00 fe
00 4c 50 31 34 31 57 50 33 2d 54 4c 41 31 00 ab

----------------

Block 0, Base EDID:
  EDID Structure Version & Revision: 1.3
  Vendor & Product Identification:
    Manufacturer: LEN
    Model: 16438
    Made in: 2009
  Basic Display Parameters & Features:
    Digital display
    Maximum image size: 30 cm x 19 cm
    Gamma: 2.20
    DPMS levels: Standby Suspend Off
    RGB color display
    First detailed timing is the preferred timing
  Color Characteristics:
    Red  : 0.5810, 0.3457
    Green: 0.3388, 0.5419
    Blue : 0.1601, 0.1425
    White: 0.3134, 0.3291
  Established Timings I & II: none
  Standard Timings: none
  Detailed Timing Descriptors:
    DTD 1:  1440x900    60.057695 Hz   8:5     55.613 kHz     96.100000 MHz (304 mm x 190 mm)
                 Hfront   48 Hsync  64 Hback  176 Hpol N
                 Vfront    3 Vsync   6 Vback   17 Vpol N
    DTD 2:  1440x900    50.183485 Hz   8:5     46.470 kHz     80.300000 MHz (304 mm x 190 mm)
                 Hfront   48 Hsync  64 Hback  176 Hpol N
                 Vfront    3 Vsync   6 Vback   17 Vpol N
    Manufacturer-Specified Display Descriptor (0x0f): 00 0f 00 95 0a 32 95 0a 28 16 09 00 30 e4 73 02 '.....2..(...0.s.'
    Alphanumeric Data String: 'LP141WP3-TLA1'
Checksum: 0xab

----------------

Failures:

Block 0, Base EDID:
  Missing Display Product Name.
  Missing Display Range Limits Descriptor.

EDID conformity: FAIL
