
EDID (hex):
00ffffffffffff0030ae364000000000
00130103801e1378eae59593564f9028
28505400000001010101010101010101
0101010101018e2ca05c52841e303020
36002fbe100000198e2ca0fc52848730
302036002fbe100000190000000f0095
0a32950a281609004ca34254000000fe
004c544e3134314254303930303100f0

Extracted contents:
header:          00 ff ff ff ff ff ff 00
serial number:   30 ae 36 40 00 00 00 00 00 13
version:         01 03
basic params:    80 1e 13 78 ea
chroma info:     e5 95 93 56 4f 90 28 28 50 54
established:     00 00 00
standard:        01 01 01 01 01 01 01 01 01 01 01 01 01 01 01 01
descriptor 1:    8e 2c a0 5c 52 84 1e 30 30 20 36 00 2f be 10 00 00 19
descriptor 2:    8e 2c a0 fc 52 84 87 30 30 20 36 00 2f be 10 00 00 19
descriptor 3:    00 00 00 0f 00 95 0a 32 95 0a 28 16 09 00 4c a3 42 54
descriptor 4:    00 00 00 fe 00 4c 54 4e 31 34 31 42 54 30 39 30 30 31
extensions:      00
checksum:        f0

EDID version: 1.3
Manufacturer: LEN Model 4036 Serial Number --
Made in year 2009
Digital display
Maximum image size: 30 cm x 19 cm
Gamma: 2.20
DPMS levels: Standby Suspend Off
RGB color display
First detailed timing is preferred timing
Display x,y Chromaticity:
  Red:   0.5771, 0.3378
  Green: 0.3095, 0.5634
  Blue:  0.1582, 0.1572
  White: 0.3134, 0.3291
Established timings supported:
Standard timings supported:
Detailed mode: Clock 114.060 MHz, 303 mm x 190 mm
               1440 1488 1520 2044 hborder 0
                900  903  909  930 vborder 0
               -hsync -vsync 
               VertFreq: 60 Hz, HorFreq: 55802 Hz
Detailed mode: Clock 114.060 MHz, 303 mm x 190 mm
               1440 1488 1520 2204 hborder 0
                900  903  909 1035 vborder 0
               -hsync -vsync 
               VertFreq: 50 Hz, HorFreq: 51751 Hz
Manufacturer-specified data, tag 15
ASCII string: LTN141BT09001
Checksum: 0xf0 (valid)
EDID block does NOT conform to EDID 1.3!
	Missing name descriptor
	Missing monitor ranges
