
EDID (hex):
00ffffffffffff0006af95e100000000
251f0104b52615780314b5a85333b625
0e505400000001010101010101010101
01010101010194d900a0f070a0803020
35007dd61000001a000000fd0c3c7818
186f010a202020202020000000fe004b
48594a4480423137335a414e00000000
0003810fb2000100000f010a2020027d
02030f00e3058000e60605016b6b4700
00000000000000000000000000000000
00000000000000000000000000000000
00000000000000000000000000000000
00000000000000000000000000000000
00000000000000000000000000000000
00000000000000000000000000000000
00000000000000000000000000000075
702079020081000be3058000e6060501
6b6b4721001dea0e6408000f7008807a
3a533303b65652f5023554405e405e47
3513782200148fff1084ff0e9f002f80
1f006f089f00020004002500098fff10
8fff103c78807e002500000000000000
00000000000000000000000000000000
00000000000000000000000000002c90

Extracted contents:
header:          00 ff ff ff ff ff ff 00
serial number:   06 af 95 e1 00 00 00 00 25 1f
version:         01 04
basic params:    b5 26 15 78 03
chroma info:     14 b5 a8 53 33 b6 25 0e 50 54
established:     00 00 00
standard:        01 01 01 01 01 01 01 01 01 01 01 01 01 01 01 01
descriptor 1:    94 d9 00 a0 f0 70 a0 80 30 20 35 00 7d d6 10 00 00 1a
descriptor 2:    00 00 00 fd 0c 3c 78 18 18 6f 01 0a 20 20 20 20 20 20
descriptor 3:    00 00 00 fe 00 4b 48 59 4a 44 80 42 31 37 33 5a 41 4e
descriptor 4:    00 00 00 00 00 03 81 0f b2 00 01 00 00 0f 01 0a 20 20
extensions:      02
checksum:        7d

EDID version: 1.4
Manufacturer: AUO Model e195 Serial Number --
Made in week 37 of 2021
Digital display
10 bits per primary color channel
DisplayPort interface
Maximum image size: 38 cm x 21 cm
Gamma: 2.20
Supported color formats: RGB 4:4:4
First detailed timing includes the native pixel format and preferred refresh rate
Display is continuous frequency
Display x,y Chromaticity:
  Red:   0.6562, 0.3251
  Green: 0.2001, 0.7109
  Blue:  0.1464, 0.0576
  White: 0.3134, 0.3291
Established timings supported:
Standard timings supported:
Detailed mode: Clock 557.000 MHz, 381 mm x 214 mm
               3840 3888 3920 4000 hborder 0
               2160 2163 2168 2320 vborder 0
               +hsync -vsync 
               VertFreq: 60 Hz, HorFreq: 139250 Hz
Monitor ranges (bare limits): 60-120Hz V, 24-279kHz H, max dotclock 1110MHz
ASCII string: KHYJD
Manufacturer-specified data, tag 0
Has 2 extension blocks
Checksum: 0x7d (valid)

CTA extension block
Extension version: 3
11 bytes of CTA data
  Extended tag: Colorimetry data block
    BT2020RGB
  Extended tag: HDR static metadata data block
    Electro optical transfer functions:
      Traditional gamma - SDR luminance range
      SMPTE ST2084
    Supported static metadata descriptors:
      Static metadata type 1
    Desired content max luminance: 107 (507.620 cd/m^2)
    Desired content max frame-average luminance: 107 (507.620 cd/m^2)
    Desired content min luminance: 71 (0.394 cd/m^2)
0 native detailed modes
Checksum: 0x75 (valid)


DisplayID extension block
Extension version: 32
Length 121, version 32, extension count 0
Checksum: 0x2c (valid)
Unknown displayid data block 0x81
Unknown displayid data block 0x21
Unknown displayid data block 0x22
Unknown displayid data block 0x25
Unknown displayid data block 0x7e

EDID block does NOT conform to EDID 1.4!
	Required 640x480p60 timings are missing in the established timings
	and/or in the SVD list (VIC 1)
	Missing name descriptor
	Detailed block string not properly terminated
