
EDID (hex):
00ffffffffffff004dd9044b01010101
011b010380a05a780a0dc9a057479827
12484c2108008180a9c0714fb3000101
01010101010108e80030f2705a80b058
8a0040846300001e023a801871382d40
582c450040846300001e000000fc0053
4f4e5920545620202a30300a000000fd
00173e0e883c000a20202020202001ed
020359f05b61605d5e5f621f10140513
09ffffffffffffffffffffffffffffff
ffffffffffffffffffffffffffffffff
ffffffffffffffffffffffffffffffff
ffffffffffffffffffffffffffffffff
ffffffffffffffffffffffffffffffff
ffffffffffffffffffffffffffffffff
ffffffffffffffffffffffffffffffff

Extracted contents:
header:          00 ff ff ff ff ff ff 00
serial number:   4d d9 04 4b 01 01 01 01 01 1b
version:         01 03
basic params:    80 a0 5a 78 0a
chroma info:     0d c9 a0 57 47 98 27 12 48 4c
established:     21 08 00
standard:        81 80 a9 c0 71 4f b3 00 01 01 01 01 01 01 01 01
descriptor 1:    08 e8 00 30 f2 70 5a 80 b0 58 8a 00 40 84 63 00 00 1e
descriptor 2:    02 3a 80 18 71 38 2d 40 58 2c 45 00 40 84 63 00 00 1e
descriptor 3:    00 00 00 fc 00 53 4f 4e 59 20 54 56 20 20 2a 30 30 0a
descriptor 4:    00 00 00 fd 00 17 3e 0e 88 3c 00 0a 20 20 20 20 20 20
extensions:      01
checksum:        ed

EDID version: 1.3
Manufacturer: SNY Model 4b04 Serial Number --
Made in week 1 of 2017
Digital display
Maximum image size: 160 cm x 90 cm
Gamma: 2.20
RGB color display
First detailed timing is preferred timing
Display x,y Chromaticity:
  Red:   0.6250, 0.3398
  Green: 0.2802, 0.5947
  Blue:  0.1552, 0.0703
  White: 0.2832, 0.2978
Established timings supported:
  640x480@60Hz 4:3 HorFreq: 31469 Hz Clock: 25.175 MHz
  800x600@60Hz 4:3 HorFreq: 37900 Hz Clock: 40.000 MHz
  1024x768@60Hz 4:3 HorFreq: 48400 Hz Clock: 65.000 MHz
Standard timings supported:
  1280x1024@60Hz 5:4 HorFreq: 64000 Hz Clock: 108.000 MHz
  1600x900@60Hz 16:9
  1152x864@75Hz 4:3 HorFreq: 67500 Hz Clock: 108.000 MHz
  1680x1050@60Hz 16:10 HorFreq: 64700 Hz Clock: 119.000 MHz
Detailed mode: Clock 594.000 MHz, 1600 mm x 900 mm
               3840 4016 4104 4400 hborder 0
               2160 2168 2178 2250 vborder 0
               +hsync +vsync 
               VertFreq: 60 Hz, HorFreq: 135000 Hz
Detailed mode: Clock 148.500 MHz, 1600 mm x 900 mm
               1920 2008 2052 2200 hborder 0
               1080 1084 1089 1125 vborder 0
               +hsync +vsync 
               VertFreq: 60 Hz, HorFreq: 67500 Hz
Monitor name: SONY TV  *00
Monitor ranges (GTF): 23-62Hz V, 14-136kHz H, max dotclock 600MHz
Has 1 extension blocks
Checksum: 0xed (valid)

CTA extension block
Extension version: 3
85 bytes of CTA data
  Video data block
    VIC  97 3840x2160@60Hz 16:9  HorFreq: 135000 Hz Clock: 594.000 MHz
    VIC  96 3840x2160@50Hz 16:9  HorFreq: 112500 Hz Clock: 594.000 MHz
    VIC  93 3840x2160@24Hz 16:9  HorFreq: 54000 Hz Clock: 297.000 MHz
    VIC  94 3840x2160@25Hz 16:9  HorFreq: 56250 Hz Clock: 297.000 MHz
    VIC  95 3840x2160@30Hz 16:9  HorFreq: 67500 Hz Clock: 297.000 MHz
    VIC  98 4096x2160@24Hz 256:135  HorFreq: 54000 Hz Clock: 297.000 MHz
    VIC  31 1920x1080@50Hz 16:9  HorFreq: 56250 Hz Clock: 148.500 MHz
    VIC  16 1920x1080@60Hz 16:9  HorFreq: 67500 Hz Clock: 148.500 MHz
    VIC  20 1920x1080i@50Hz 16:9  HorFreq: 28125 Hz Clock: 74.250 MHz
    VIC   5 1920x1080i@60Hz 16:9  HorFreq: 33750 Hz Clock: 74.250 MHz
    VIC  19 1280x720@50Hz 16:9  HorFreq: 37500 Hz Clock: 74.250 MHz
    VIC   9 1440x240@60Hz 16:9  HorFreq: 15734 Hz Clock: 27.000 MHz
    VIC 255 Unknown mode  HorFreq: 0 Hz Clock: 0.000 MHz
    VIC 255 Unknown mode  HorFreq: 0 Hz Clock: 0.000 MHz
    VIC 255 Unknown mode  HorFreq: 0 Hz Clock: 0.000 MHz
    VIC 255 Unknown mode  HorFreq: 0 Hz Clock: 0.000 MHz
    VIC 255 Unknown mode  HorFreq: 0 Hz Clock: 0.000 MHz
    VIC 255 Unknown mode  HorFreq: 0 Hz Clock: 0.000 MHz
    VIC 255 Unknown mode  HorFreq: 0 Hz Clock: 0.000 MHz
    VIC 255 Unknown mode  HorFreq: 0 Hz Clock: 0.000 MHz
    VIC 255 Unknown mode  HorFreq: 0 Hz Clock: 0.000 MHz
    VIC 255 Unknown mode  HorFreq: 0 Hz Clock: 0.000 MHz
    VIC 255 Unknown mode  HorFreq: 0 Hz Clock: 0.000 MHz
    VIC 255 Unknown mode  HorFreq: 0 Hz Clock: 0.000 MHz
    VIC 255 Unknown mode  HorFreq: 0 Hz Clock: 0.000 MHz
    VIC 255 Unknown mode  HorFreq: 0 Hz Clock: 0.000 MHz
    VIC 255 Unknown mode  HorFreq: 0 Hz Clock: 0.000 MHz
  Extended tag: Reserved (ff)
  Extended tag: Reserved (ff)
Underscans PC formats by default
Basic audio support
Supports YCbCr 4:4:4
Supports YCbCr 4:2:2
0 native detailed modes
Detailed mode: Clock 655.350 MHz, 4095 mm x 4095 mm
               4095 5118 6141 8190 hborder 255
               4095 4158 4221 8190 vborder 255
               +hsync +vsync interlaced side by side interleaved
               VertFreq: 9 Hz, HorFreq: 80018 Hz
Detailed mode: Clock 655.350 MHz, 4095 mm x 4095 mm
               4095 5118 6141 8190 hborder 255
               4095 4158 4221 8190 vborder 255
               +hsync +vsync interlaced side by side interleaved
               VertFreq: 9 Hz, HorFreq: 80018 Hz
Checksum: 0xff (should be 0x24)

One or more of the timings is out of range of the Monitor Ranges:
  Vertical Freq: 9 - 75 Hz
  Horizontal Freq: 15734 - 135000 Hz
  Maximum Clock: 655.350 MHz
CTA extension block does not conform
	Block has broken checksum


