edid-decode (hex):

00 ff ff ff ff ff ff 00 06 af ec 10 00 00 00 00
00 17 01 04 90 22 13 78 02 bb f5 94 55 54 90 27
23 50 54 00 00 00 01 01 01 01 01 01 01 01 01 01
01 01 01 01 01 01 12 1b 56 5a 50 00 19 30 28 20
36 00 58 c1 10 00 00 1a 12 1b 56 5a 50 00 19 30
28 20 36 00 58 c1 10 00 00 1a 00 00 00 fe 00 52
4b 32 4d 44 80 42 31 35 36 58 54 54 00 00 00 00
00 00 41 01 94 01 11 00 00 01 01 0a 20 20 00 21

----------------

Block 0, Base EDID:
  EDID Structure Version & Revision: 1.4
  Vendor & Product Identification:
    Manufacturer: AUO
    Model: 4332
    Made in: 2013
  Basic Display Parameters & Features:
    Digital display
    Bits per primary color channel: 6
    Digital interface is not defined
    Maximum image size: 34 cm x 19 cm
    Gamma: 2.20
    Supported color formats: RGB 4:4:4
    First detailed timing includes the native pixel format and preferred refresh rate
  Color Characteristics:
    Red  : 0.5800, 0.3349
    Green: 0.3300, 0.5654
    Blue : 0.1552, 0.1396
    White: 0.3134, 0.3291
  Established Timings I & II: none
  Standard Timings: none
  Detailed Timing Descriptors:
    DTD 1:  1366x768    60.020371 Hz 683:384   47.596 kHz     69.300000 MHz (344 mm x 193 mm)
                 Hfront   40 Hsync  32 Hback   18 Hpol P
                 Vfront    3 Vsync   6 Vback   16 Vpol N
    DTD 2:  1366x768    60.020371 Hz 683:384   47.596 kHz     69.300000 MHz (344 mm x 193 mm)
                 Hfront   40 Hsync  32 Hback   18 Hpol P
                 Vfront    3 Vsync   6 Vback   16 Vpol N
    Alphanumeric Data String: 'RK2MD'
    Manufacturer-Specified Display Descriptor (0x00): 00 00 00 00 41 01 94 01 11 00 00 01 01 0a 20 20 '....A.........  '
Checksum: 0x21

----------------

Failures:

Block 0, Base EDID:
  Alphanumeric Data String: Non-printable character.
  Missing Display Product Name.

EDID conformity: FAIL
