edid-decode (hex):

00 ff ff ff ff ff ff 00 4d 10 8f 15 00 00 00 00
2e 21 01 04 b5 1d 12 78 03 0f 95 ae 52 43 b0 26
0f 50 54 00 00 00 01 01 01 01 01 01 01 01 01 01
01 01 01 01 01 01 fd d7 00 a0 a0 40 fc 66 30 20
36 00 20 b4 10 00 00 18 00 00 00 fd 00 1e 78 cc
cc 38 01 0a 20 20 20 20 20 20 00 00 00 fe 00 43
37 31 4d 31 81 4c 51 31 33 34 5a 31 00 00 00 00
00 02 41 0c 32 01 01 00 00 0b 41 0a 20 20 01 ea

70 20 79 02 00 20 00 13 8c 52 19 8f 15 00 00 00
00 2e 17 07 4c 51 31 33 34 5a 31 21 00 1d 40 0b
08 07 00 0a 40 06 88 e1 fa 51 3d a4 b0 66 62 0f
02 45 54 d0 5f d0 5f 00 34 13 78 26 00 09 06 00
00 00 00 00 41 00 00 22 00 14 d9 6f 08 05 ff 09
9f 00 2f 00 1f 00 3f 06 5d 00 02 00 05 00 25 01
09 d9 6f 08 d9 6f 08 1e 78 80 81 00 0b e3 05 80
00 e6 06 05 01 6a 6a 39 00 00 00 00 00 00 58 90

00 ff ff ff ff ff ff 00 4d 10 8f 15 00 00 00 00
2e 21 01 04 b5 1d 12 78 03 0f 95 ae 52 43 b0 26
0f 50 54 00 00 00 01 01 01 01 01 01 01 01 01 01
01 01 01 01 01 01 fd d7 00 a0 a0 40 fc 66 30 20
36 00 20 b4 10 00 00 18 00 00 00 fd 00 1e 78 cc
cc 38 01 0a 20 20 20 20 20 20 00 00 00 fe 00 43
37 31 4d 31 81 4c 51 31 33 34 5a 31 00 00 00 00
00 02 41 0c 32 01 01 00 00 0b 41 0a 20 20 01 ea

70 20 79 02 00 20 00 13 8c 52 19 8f 15 00 00 00
00 2e 17 07 4c 51 31 33 34 5a 31 21 00 1d 40 0b
08 07 00 0a 40 06 88 e1 fa 51 3d a4 b0 66 62 0f
02 45 54 d0 5f d0 5f 00 34 13 78 26 00 09 06 00
00 00 00 00 41 00 00 22 00 14 d9 6f 08 05 ff 09
9f 00 2f 00 1f 00 3f 06 5d 00 02 00 05 00 25 01
09 d9 6f 08 d9 6f 08 1e 78 80 81 00 0b e3 05 80
00 e6 06 05 01 6a 6a 39 00 00 00 00 00 00 58 90

----------------

Block 0, Base EDID:
  EDID Structure Version & Revision: 1.4
  Vendor & Product Identification:
    Manufacturer: SHP
    Model: 5519
    Made in: week 46 of 2023
  Basic Display Parameters & Features:
    Digital display
    Bits per primary color channel: 10
    DisplayPort interface
    Maximum image size: 29 cm x 18 cm
    Gamma: 2.20
    Supported color formats: RGB 4:4:4
    First detailed timing includes the native pixel format and preferred refresh rate
    Display is continuous frequency
  Color Characteristics:
    Red  : 0.6796, 0.3203
    Green: 0.2646, 0.6904
    Blue : 0.1503, 0.0595
    White: 0.3134, 0.3291
  Established Timings I & II: none
  Standard Timings: none
  Detailed Timing Descriptors:
    DTD 1:  2560x1600   60.000912 Hz  16:10   203.283 kHz    552.930000 MHz (288 mm x 180 mm)
                 Hfront   48 Hsync  32 Hback   80 Hpol N
                 Vfront    3 Vsync   6 Vback 1779 Vpol N
    Display Range Limits:
      Monitor ranges (Bare Limits): 30-120 Hz V, 204-204 kHz H, max dotclock 560 MHz
    Alphanumeric Data String: 'C71M1'
    Manufacturer-Specified Display Descriptor (0x00): 00 00 00 02 41 0c 32 01 01 00 00 0b 41 0a 20 20 '....A.2.....A.  '
  Extension blocks: 1
Checksum: 0xea

----------------

Block 1, DisplayID Extension Block:
  Version: 2.0
  Extension Count: 0
  Display Product Primary Use Case: None of the listed primary use cases; generic display
  Product Identification Data Block (0x20), OUI 8C-52-19:
    Product Code: 5519
    Year of Manufacture: 2023, Week 46
    Product ID: LQ134Z1
  Display Parameters Data Block (0x21):
    Image size: 288.0 mm x 180.0 mm
    Display native pixel format: 2560x1600
    Scan Orientation: Left to Right, Top to Bottom
    Luminance Information: Guidance for the Source device
    Color Information: CIE 1931
    Audio Speaker Information: not integrated
    Native Color Chromaticity:
      Primary #1:  (0.679932, 0.320068)
      Primary #2:  (0.264893, 0.689941)
      Primary #3:  (0.149902, 0.060059)
      White Point: (0.312988, 0.329102)
    Native Maximum Luminance (Full Coverage): 500.000000 cd/m^2
    Native Maximum Luminance (10% Rectangular Coverage): 500.000000 cd/m^2
    Native Minimum Luminance: 0.250000 cd/m^2
    Native Color Depth: 12 bpc
    Display Device Technology: Active Matrix LCD
    Native Gamma EOTF: 2.20
  Display Interface Features Data Block:
    Supported bpc for RGB encoding: 8, 10
    Supported color space and EOTF standard combination 1: sRGB, BT.2020/SMPTE ST 2084
  Video Timing Modes Type 7 - Detailed Timings Data Block:
    DTD:  2560x1600  120.000087 Hz  16:10   203.280 kHz    552.922000 MHz (aspect 16:10, no 3D stereo)
               Hfront   48 Hsync  32 Hback   80 Hpol N
               Vfront    3 Vsync   6 Vback   85 Vpol N
  Dynamic Video Timing Range Limits Data Block:
    Minimum Pixel Clock: 552922 kHz
    Maximum Pixel Clock: 552922 kHz
    Minimum Vertical Refresh Rate: 30 Hz
    Maximum Vertical Refresh Rate: 120 Hz
    Seamless Dynamic Video Timing Support: Yes
  CTA-861 DisplayID Data Block:
  Colorimetry Data Block:
    BT2020RGB
  HDR Static Metadata Data Block:
    Electro optical transfer functions:
      Traditional gamma - SDR luminance range
      SMPTE ST2084
    Supported static metadata descriptors:
      Static metadata type 1
    Desired content max luminance: 106 (496.743 cd/m^2)
    Desired content max frame-average luminance: 106 (496.743 cd/m^2)
    Desired content min luminance: 57 (0.248 cd/m^2)
  Checksum: 0x58
Checksum: 0x90

----------------

Block 2, Unknown EDID Extension Block 0x00:
  00 ff ff ff ff ff ff 00 4d 10 8f 15 00 00 00 00 '........M.......'
  2e 21 01 04 b5 1d 12 78 03 0f 95 ae 52 43 b0 26 '.!.....x....RC.&'
  0f 50 54 00 00 00 01 01 01 01 01 01 01 01 01 01 '.PT.............'
  01 01 01 01 01 01 fd d7 00 a0 a0 40 fc 66 30 20 '...........@.f0 '
  36 00 20 b4 10 00 00 18 00 00 00 fd 00 1e 78 cc '6. ...........x.'
  cc 38 01 0a 20 20 20 20 20 20 00 00 00 fe 00 43 '.8..      .....C'
  37 31 4d 31 81 4c 51 31 33 34 5a 31 00 00 00 00 '71M1.LQ134Z1....'
  00 02 41 0c 32 01 01 00 00 0b 41 0a 20 20 01 ea '..A.2.....A.  ..'
Checksum: 0xea

----------------

Block 3, DisplayID Extension Block:
  Version: 2.0
  Extension Count: 0
  Product Identification Data Block (0x20), OUI 8C-52-19:
    Product Code: 5519
    Year of Manufacture: 2023, Week 46
    Product ID: LQ134Z1
  Display Parameters Data Block (0x21):
    Image size: 288.0 mm x 180.0 mm
    Display native pixel format: 2560x1600
    Scan Orientation: Left to Right, Top to Bottom
    Luminance Information: Guidance for the Source device
    Color Information: CIE 1931
    Audio Speaker Information: not integrated
    Native Color Chromaticity:
      Primary #1:  (0.679932, 0.320068)
      Primary #2:  (0.264893, 0.689941)
      Primary #3:  (0.149902, 0.060059)
      White Point: (0.312988, 0.329102)
    Native Maximum Luminance (Full Coverage): 500.000000 cd/m^2
    Native Maximum Luminance (10% Rectangular Coverage): 500.000000 cd/m^2
    Native Minimum Luminance: 0.250000 cd/m^2
    Native Color Depth: 12 bpc
    Display Device Technology: Active Matrix LCD
    Native Gamma EOTF: 2.20
  Display Interface Features Data Block:
    Supported bpc for RGB encoding: 8, 10
    Supported color space and EOTF standard combination 1: sRGB, BT.2020/SMPTE ST 2084
  Video Timing Modes Type 7 - Detailed Timings Data Block:
    DTD:  2560x1600  120.000087 Hz  16:10   203.280 kHz    552.922000 MHz (aspect 16:10, no 3D stereo)
               Hfront   48 Hsync  32 Hback   80 Hpol N
               Vfront    3 Vsync   6 Vback   85 Vpol N
  Dynamic Video Timing Range Limits Data Block:
    Minimum Pixel Clock: 552922 kHz
    Maximum Pixel Clock: 552922 kHz
    Minimum Vertical Refresh Rate: 30 Hz
    Maximum Vertical Refresh Rate: 120 Hz
    Seamless Dynamic Video Timing Support: Yes
  CTA-861 DisplayID Data Block:
  Colorimetry Data Block:
    BT2020RGB
  HDR Static Metadata Data Block:
    Electro optical transfer functions:
      Traditional gamma - SDR luminance range
      SMPTE ST2084
    Supported static metadata descriptors:
      Static metadata type 1
    Desired content max luminance: 106 (496.743 cd/m^2)
    Desired content max frame-average luminance: 106 (496.743 cd/m^2)
    Desired content min luminance: 57 (0.248 cd/m^2)
  Checksum: 0x58
Checksum: 0x90

----------------

Warnings:

Block 0, Base EDID:
  Missing Display Product Name.
Block 1, DisplayID Extension Block:
  Product Identification Data Block (0x20), OUI 8C-52-19: Unknown OUI 8C-52-19.
  Colorimetry Data Block: Set the sRGB colorimetry bit to avoid interop issues.
Block 3, DisplayID Extension Block:
  Product Identification Data Block (0x20), OUI 8C-52-19: Unknown OUI 8C-52-19.
  Colorimetry Data Block: Set the sRGB colorimetry bit to avoid interop issues.
EDID:
  Base EDID: Some timings are out of range of the Monitor Ranges:
    Horizontal Freq: 203.280 - 203.283 kHz (Monitor: 204.000 - 204.000 kHz)
    Could be due to a Monitor Range off-by-one rounding issue

Failures:

Block 0, Base EDID:
  Alphanumeric Data String: Non-printable character.
Block 1, DisplayID Extension Block:
  Expected 0 DisplayID Extension Block, but got 1.
Block 2, Base EDID:
  Unknown Extension Block.
Block 3, DisplayID Extension Block:
  Product Type should be 0 in extension block.
  Product Identification Data Block (0x20), OUI 8C-52-19: Product Identification Data Block (0x20), OUI 8C-52-19 is required to be the first DisplayID Data Block.
  Display Parameters Data Block (0x21): Duplicate Display Parameters Data Block.
  Colorimetry Data Block: Only one instance of this Data Block is allowed.
  HDR Static Metadata Data Block: Only one instance of this Data Block is allowed.
EDID:
  Base EDID: EDID specified 1 extension block(s), but found 3 extension block(s).
  DisplayID: DisplayID expects at least one preferred timing.

EDID conformity: FAIL
