edid-decode (hex):

00 ff ff ff ff ff ff 00 6b 5a f6 ff 00 00 00 20
34 1e 01 03 08 28 19 78 2e eb d5 ac 4f 44 a4 22
13 50 54 25 4f 00 81 8f 71 4f 81 0f 81 4f 81 8f
81 cf 8b cf 3b 8f 9a 29 a0 d0 51 84 22 30 50 98
36 00 98 ff 10 00 00 00 80 0a d0 b0 20 e0 14 10
18 40 3a 00 52 0e 11 00 00 00 00 00 00 fd 00 32
4b 18 53 0c 00 0a 20 20 20 20 20 20 ff 27 00 a0
51 00 25 30 50 80 37 00 52 0e 11 00 00 02 00 52

00 ff ff ff ff ff ff 00 6b 5a f6 ff 00 00 00 20
34 1e 01 03 08 28 19 78 2e eb d5 ac 4f 44 a4 22
13 50 54 25 4f 00 81 8f 71 4f 81 0f 81 4f 81 8f
81 cf 8b cf 3b 8f 9a 29 a0 d0 51 84 22 30 50 98
36 00 98 ff 10 00 00 00 80 0a d0 b0 20 e0 14 10
18 40 3a 00 52 0e 11 00 00 00 00 00 00 fd 00 32
4b 18 53 0c 00 0a 20 20 20 20 20 20 ff 27 00 a0
51 00 25 30 50 80 37 00 52 0e 11 00 00 02 00 52

----------------

Block 0, Base EDID:
  EDID Structure Version & Revision: 1.3
  Vendor & Product Identification:
    Manufacturer: ZZZ
    Model: 65526
    Serial Number: ...
    Made in: week 52 of 2020
  Basic Display Parameters & Features:
    Analog display
    Signal Level Standard: 0.700 : 0.300 : 1.000 V p-p
    Blank level equals black level
    Sync: Separate
    Maximum image size: 40 cm x 25 cm
    Gamma: 2.20
    DPMS levels: Off
    RGB color display
    Default (sRGB) color space is primary color space
    First detailed timing is the preferred timing
  Color Characteristics:
    Red  : 0.6748, 0.3105
    Green: 0.2675, 0.6435
    Blue : 0.1357, 0.0751
    White: 0.3134, 0.3291
  Established Timings I & II:
    DMT 0x04:   640x480    59.940476 Hz   4:3     31.469 kHz     25.175000 MHz
    DMT 0x06:   640x480    75.000000 Hz   4:3     37.500 kHz     31.500000 MHz
    DMT 0x09:   800x600    60.316541 Hz   4:3     37.879 kHz     40.000000 MHz
    DMT 0x0b:   800x600    75.000000 Hz   4:3     46.875 kHz     49.500000 MHz
    DMT 0x10:  1024x768    60.003840 Hz   4:3     48.363 kHz     65.000000 MHz
    DMT 0x11:  1024x768    70.069359 Hz   4:3     56.476 kHz     75.000000 MHz
    DMT 0x12:  1024x768    75.028582 Hz   4:3     60.023 kHz     78.750000 MHz
    DMT 0x24:  1280x1024   75.024675 Hz   5:4     79.976 kHz    135.000000 MHz
  Standard Timings:
    DMT 0x24:  1280x1024   75.024675 Hz   5:4     79.976 kHz    135.000000 MHz
    DMT 0x15:  1152x864    75.000000 Hz   4:3     67.500 kHz    108.000000 MHz
    DMT 0x1d:  1280x800    74.934142 Hz  16:10    62.795 kHz    106.500000 MHz
    GTF     :  1280x960    74.999884 Hz   4:3     75.150 kHz    129.859000 MHz
    DMT 0x24:  1280x1024   75.024675 Hz   5:4     79.976 kHz    135.000000 MHz
    GTF     :  1280x720    74.999686 Hz  16:9     56.400 kHz     95.654000 MHz
    GTF     :  1360x765    74.999723 Hz  16:9     59.925 kHz    108.344000 MHz
    GTF     :   720x576    75.000704 Hz   5:4     45.150 kHz     42.622000 MHz
  Detailed Timing Descriptors:
    DTD 1:  1440x900    59.887445 Hz  16:10    55.935 kHz    106.500000 MHz (analog composite, sync-on-green, 408 mm x 255 mm)
                 Hfront   80 Hsync 152 Hback  232 Hpol N
                 Vfront    3 Vsync   6 Vback   25 Vpol N
    DTD 2:   720x480    60.000000 Hz   3:2     30.000 kHz     26.880000 MHz (analog composite, sync-on-green, 338 mm x 270 mm)
                 Hfront   24 Hsync  64 Hback   88 Hpol N
                 Vfront    3 Vsync  10 Vback    7 Vpol N
    Display Range Limits:
      Monitor ranges (GTF): 50-75 Hz V, 24-83 kHz H, max dotclock 120 MHz
    DTD 3:  1280x768    74.995605 Hz   5:3     60.371 kHz    102.390000 MHz (analog composite, 338 mm x 270 mm)
                 Hfront   80 Hsync 128 Hback  208 Hpol N
                 Vfront    3 Vsync   7 Vback   27 Vpol N
Checksum: 0x52

----------------

Block 1, Unknown EDID Extension Block 0x00:
  00 ff ff ff ff ff ff 00 6b 5a f6 ff 00 00 00 20 '........kZ..... '
  34 1e 01 03 08 28 19 78 2e eb d5 ac 4f 44 a4 22 '4....(.x....OD."'
  13 50 54 25 4f 00 81 8f 71 4f 81 0f 81 4f 81 8f '.PT%O...qO...O..'
  81 cf 8b cf 3b 8f 9a 29 a0 d0 51 84 22 30 50 98 '....;..)..Q."0P.'
  36 00 98 ff 10 00 00 00 80 0a d0 b0 20 e0 14 10 '6........... ...'
  18 40 3a 00 52 0e 11 00 00 00 00 00 00 fd 00 32 '.@:.R..........2'
  4b 18 53 0c 00 0a 20 20 20 20 20 20 ff 27 00 a0 'K.S...      .'..'
  51 00 25 30 50 80 37 00 52 0e 11 00 00 02 00 52 'Q.%0P.7.R......R'
Checksum: 0x52

----------------

Warnings:

Block 0, Base EDID:
  Standard Timings: Standard Timing 1360x765 has a dubious odd vertical resolution.
  Detailed Timing Descriptor #1: DTD is similar but not identical to DMT 0x2f.

Failures:

Block 0, Base EDID:
  Basic Display Parameters & Features: sRGB is signaled, but the chromaticities do not match.
  Detailed Timing Descriptor #2: Mismatch of image size 338x270 mm vs display size 400x250 mm.
  Detailed Timing Descriptor #3: Mismatch of image size 338x270 mm vs display size 400x250 mm.
  Detailed Timing Descriptor #3: Invalid detailed timing descriptor ordering.
  Missing Display Product Name.
Block 1, Base EDID:
  Unknown Extension Block.
EDID:
  Base EDID: Some timings are out of range of the Monitor Ranges:
    Maximum Clock: 135.000 MHz (Monitor: 120.000 MHz)
  Base EDID: The DTD max image size is 408x270mm, which is larger than the display size 400.0x250.0mm.
  Base EDID: EDID specified 0 extension block(s), but found 1 extension block(s).

EDID conformity: FAIL
