
EDID (hex):
00ffffffffffff00642b110015cd5b07
201001036e221b78e80515a258499d24
165054adcf0001010101010101010101
010101010101302a009851002a401088
3600671f11000038000000fc00313758
46380a20202020202020000000fd003a
4b1e5e0f000a20202020202000000010
003030303030310a202020202020003f

Extracted contents:
header:          00 ff ff ff ff ff ff 00
serial number:   64 2b 11 00 15 cd 5b 07 20 10
version:         01 03
basic params:    6e 22 1b 78 e8
chroma info:     05 15 a2 58 49 9d 24 16 50 54
established:     ad cf 00
standard:        01 01 01 01 01 01 01 01 01 01 01 01 01 01 01 01
descriptor 1:    30 2a 00 98 51 00 2a 40 10 88 36 00 67 1f 11 00 00 38
descriptor 2:    00 00 00 fc 00 31 37 58 46 38 0a 20 20 20 20 20 20 20
descriptor 3:    00 00 00 fd 00 3a 4b 1e 5e 0f 00 0a 20 20 20 20 20 20
descriptor 4:    00 00 00 10 00 30 30 30 30 30 31 0a 20 20 20 20 20 20
extensions:      00
checksum:        3f

EDID version: 1.3
Manufacturer: YAK Model 11 Serial Number --
Made in week 32 of 2006
Analog display, Input voltage level: 0.7/0.7 V
Sync: Separate Composite SyncOnGreen 
Maximum image size: 34 cm x 27 cm
Gamma: 2.20
DPMS levels: Standby Suspend Off
RGB color display
Display x,y Chromaticity:
  Red:   0.6328, 0.3437
  Green: 0.2861, 0.6142
  Blue:  0.1406, 0.0869
  White: 0.3134, 0.3291
Established timings supported:
  720x400@70Hz 9:5 HorFreq: 31469 Hz Clock: 28.320 MHz
  640x480@60Hz 4:3 HorFreq: 31469 Hz Clock: 25.175 MHz
  640x480@72Hz 4:3 HorFreq: 37900 Hz Clock: 31.500 MHz
  640x480@75Hz 4:3 HorFreq: 37500 Hz Clock: 31.500 MHz
  800x600@60Hz 4:3 HorFreq: 37900 Hz Clock: 40.000 MHz
  800x600@72Hz 4:3 HorFreq: 48100 Hz Clock: 50.000 MHz
  800x600@75Hz 4:3 HorFreq: 46900 Hz Clock: 49.500 MHz
  1024x768@60Hz 4:3 HorFreq: 48400 Hz Clock: 65.000 MHz
  1024x768@70Hz 4:3 HorFreq: 56500 Hz Clock: 75.000 MHz
  1024x768@75Hz 4:3 HorFreq: 60000 Hz Clock: 78.750 MHz
  1280x1024@75Hz 5:4 HorFreq: 80000 Hz Clock: 135.000 MHz
Standard timings supported:
Detailed mode: Clock 108.000 MHz, 359 mm x 287 mm
               1280 1296 1432 1688 hborder 0
               1024 1027 1033 1066 vborder 0
               -hsync -vsync field sequential L/R
               VertFreq: 60 Hz, HorFreq: 63981 Hz
Monitor name: 17XF8
Monitor ranges (GTF): 58-75Hz V, 30-94kHz H, max dotclock 150MHz
Dummy block
Checksum: 0x3f (valid)
EDID block does NOT conform to EDID 1.3!
	Missing preferred timing
EDID block does not conform at all!
	Dummy block filled with garbage
