
EDID (hex):
00ffffffffffff0026cfbe8c04000000
001f0104a51e13780bde50a3544c9926
0f505400000001010101010101010101
010101010101323c80a070b023401830
6c002ebd10000019000000fe00583134
304e56344a205230200a000000030003
54d804647d130c19af00000000000003
001951ff64a0f4150c4af401010000de

Extracted contents:
header:          00 ff ff ff ff ff ff 00
serial number:   26 cf be 8c 04 00 00 00 00 1f
version:         01 04
basic params:    a5 1e 13 78 0b
chroma info:     de 50 a3 54 4c 99 26 0f 50 54
established:     00 00 00
standard:        01 01 01 01 01 01 01 01 01 01 01 01 01 01 01 01
descriptor 1:    32 3c 80 a0 70 b0 23 40 18 30 6c 00 2e bd 10 00 00 19
descriptor 2:    00 00 00 fe 00 58 31 34 30 4e 56 34 4a 20 52 30 20 0a
descriptor 3:    00 00 00 03 00 03 54 d8 04 64 7d 13 0c 19 af 00 00 00
descriptor 4:    00 00 00 03 00 19 51 ff 64 a0 f4 15 0c 4a f4 01 01 00
extensions:      00
checksum:        de

EDID version: 1.4
Manufacturer: IVO Model 8cbe Serial Number --
Made in year 2021
Digital display
8 bits per primary color channel
DisplayPort interface
Maximum image size: 30 cm x 19 cm
Gamma: 2.20
Supported color formats: RGB 4:4:4, YCrCb 4:4:4
First detailed timing includes the native pixel format and preferred refresh rate
Display is continuous frequency
Display x,y Chromaticity:
  Red:   0.6396, 0.3291
  Green: 0.2998, 0.5996
  Blue:  0.1494, 0.0595
  White: 0.3125, 0.3281
Established timings supported:
Standard timings supported:
Detailed mode: Clock 154.100 MHz, 302 mm x 189 mm
               1920 1944 1992 2080 hborder 0
               1200 1206 1218 1235 vborder 0
               -hsync -vsync 
               VertFreq: 59 Hz, HorFreq: 74086 Hz
ASCII string: X140NV4J R0 
Manufacturer-specified data, tag 3
Manufacturer-specified data, tag 3
Checksum: 0xde (valid)
EDID block does NOT conform to EDID 1.4!
	Missing name descriptor
	Missing monitor ranges
