
EDID (hex):
00ffffffffffff0006afadd700000000
00210104a51e137803cb5591575a9129
1c505400000001010101010101010101
010101010101263d80b870b028401010
3e002dbc10000018c42880b870b02840
10103e002dbc10000018000000000000
00000000000000000000000000000002
00103cff0f3c9611201f7d2020200161
70207902002200147b6302857f07b700
0f800f00af04270002000d002501097b
63027b6302283c808100106f1a000003
01283c0000535153513c000000000000
00000000000000000000000000000000
00000000000000000000000000000000
00000000000000000000000000000000
00000000000000000000000000002d90

edid-decode (hex):

00 ff ff ff ff ff ff 00 06 af ad d7 00 00 00 00
00 21 01 04 a5 1e 13 78 03 cb 55 91 57 5a 91 29
1c 50 54 00 00 00 01 01 01 01 01 01 01 01 01 01
01 01 01 01 01 01 26 3d 80 b8 70 b0 28 40 10 10
3e 00 2d bc 10 00 00 18 c4 28 80 b8 70 b0 28 40
10 10 3e 00 2d bc 10 00 00 18 00 00 00 00 00 00
00 00 00 00 00 00 00 00 00 00 00 00 00 00 00 02
00 10 3c ff 0f 3c 96 11 20 1f 7d 20 20 20 01 61

70 20 79 02 00 22 00 14 7b 63 02 85 7f 07 b7 00
0f 80 0f 00 af 04 27 00 02 00 0d 00 25 01 09 7b
63 02 7b 63 02 28 3c 80 81 00 10 6f 1a 00 00 03
01 28 3c 00 00 53 51 53 51 3c 00 00 00 00 00 00
00 00 00 00 00 00 00 00 00 00 00 00 00 00 00 00
00 00 00 00 00 00 00 00 00 00 00 00 00 00 00 00
00 00 00 00 00 00 00 00 00 00 00 00 00 00 00 00
00 00 00 00 00 00 00 00 00 00 00 00 00 00 2d 90

----------------

Block 0, Base EDID:
  EDID Structure Version & Revision: 1.4
  Vendor & Product Identification:
    Manufacturer: AUO
    Model: 55213
    Made in: 2023
  Basic Display Parameters & Features:
    Digital display
    Bits per primary color channel: 8
    DisplayPort interface
    Maximum image size: 30 cm x 19 cm
    Gamma: 2.20
    Supported color formats: RGB 4:4:4
    First detailed timing includes the native pixel format and preferred refresh rate
    Display is continuous frequency
  Color Characteristics:
    Red  : 0.5693, 0.3398
    Green: 0.3535, 0.5693
    Blue : 0.1611, 0.1103
    White: 0.3134, 0.3291
  Established Timings I & II: none
  Standard Timings: none
  Detailed Timing Descriptors:
    DTD 1:  1920x1200   60.000920 Hz  16:10    74.401 kHz    156.540000 MHz (301 mm x 188 mm)
                 Hfront   16 Hsync  16 Hback  152 Hpol N
                 Vfront    3 Vsync  14 Vback   23 Vpol N
    DTD 2:  1920x1200   40.000613 Hz  16:10    49.601 kHz    104.360000 MHz (301 mm x 188 mm)
                 Hfront   16 Hsync  16 Hback  152 Hpol N
                 Vfront    3 Vsync  14 Vback   23 Vpol N
    Empty Descriptor
    Manufacturer-Specified Display Descriptor (0x02): 00 02 00 10 3c ff 0f 3c 96 11 20 1f 7d 20 20 20 '....<..<.. .}   '
  Extension blocks: 1
Checksum: 0x61

----------------

Block 1, DisplayID Extension Block:
  Version: 2.0
  Extension Count: 0
  Display Product Primary Use Case: None of the listed primary use cases; generic display
  Video Timing Modes Type 7 - Detailed Timings Data Block:
    DTD:  1920x1200   60.000920 Hz  16:10    74.401 kHz    156.540000 MHz (aspect 16:10, no 3D stereo, preferred)
               Hfront   16 Hsync  16 Hback  152 Hpol P
               Vfront    3 Vsync  14 Vback   23 Vpol N
  Dynamic Video Timing Range Limits Data Block:
    Minimum Pixel Clock: 156540 kHz
    Maximum Pixel Clock: 156540 kHz
    Minimum Vertical Refresh Rate: 40 Hz
    Maximum Vertical Refresh Rate: 60 Hz
    Seamless Dynamic Video Timing Support: Yes
  CTA-861 DisplayID Data Block:
  Vendor-Specific Data Block (AMD), OUI 00-00-1A:
    Version: 3.1
    Minimum Refresh Rate: 40 Hz
    Maximum Refresh Rate: 60 Hz
    Flags 1.x: 0x00
    Flags 2.x: 0x00
    Maximum luminance: 83 (301.833 cd/m^2)
    Minimum luminance: 81 (0.305 cd/m^2)
    Unknown: 0x53 0x51
  Checksum: 0x2d
Checksum: 0x90
