
EDID (hex):
00ffffffffffff0009e5f10500000000
01190104951f117802b0909758549226
1d505400000001010101010101010101
010101010101641b5677500013303020
360035ad1000001a701756775000d830
3020360035ad10000000000000fe004b
36394437804842313435303400000000
00004101940100000009010a202000bd

Extracted contents:
header:          00 ff ff ff ff ff ff 00
serial number:   09 e5 f1 05 00 00 00 00 01 19
version:         01 04
basic params:    95 1f 11 78 02
chroma info:     b0 90 97 58 54 92 26 1d 50 54
established:     00 00 00
standard:        01 01 01 01 01 01 01 01 01 01 01 01 01 01 01 01
descriptor 1:    64 1b 56 77 50 00 13 30 30 20 36 00 35 ad 10 00 00 1a
descriptor 2:    70 17 56 77 50 00 d8 30 30 20 36 00 35 ad 10 00 00 00
descriptor 3:    00 00 00 fe 00 4b 36 39 44 37 80 48 42 31 34 35 30 34
descriptor 4:    00 00 00 00 00 00 41 01 94 01 00 00 00 09 01 0a 20 20
extensions:      00
checksum:        bd

EDID version: 1.4
Manufacturer: BOE Model 5f1 Serial Number --
Made in week 1 of 2015
Digital display
6 bits per primary color channel
DisplayPort interface
Maximum image size: 31 cm x 17 cm
Gamma: 2.20
Supported color formats: RGB 4:4:4
First detailed timing includes the native pixel format and preferred refresh rate
Display x,y Chromaticity:
  Red:   0.5917, 0.3466
  Green: 0.3281, 0.5703
  Blue:  0.1503, 0.1142
  White: 0.3125, 0.3281
Established timings supported:
Standard timings supported:
Detailed mode: Clock 70.120 MHz, 309 mm x 173 mm
               1366 1414 1446 1485 hborder 0
                768  771  777  787 vborder 0
               +hsync -vsync 
               VertFreq: 59 Hz, HorFreq: 47218 Hz
Detailed mode: Clock 60.000 MHz, 309 mm x 173 mm
               1366 1414 1446 1485 hborder 0
                768  771  777  984 vborder 0
               -hsync -vsync analog composite 
               VertFreq: 41 Hz, HorFreq: 40404 Hz
ASCII string: K69D7
Manufacturer-specified data, tag 0
Checksum: 0xbd (valid)
EDID block does NOT conform to EDID 1.4!
	Missing name descriptor
	Missing monitor ranges
	Detailed block string not properly terminated
