
EDID (hex):
00ffffffffffff0009e56a0600000000
01190104952213780a24109759548e27
1e505400000001010101010101010101
0101010101013c3780de703814403020
360058c21000001a302c80de70381440
3020360058c21000001a000000fe0032
44485836804e56313541313100000000
0000411196000000000a010a20200073

Extracted contents:
header:          00 ff ff ff ff ff ff 00
serial number:   09 e5 6a 06 00 00 00 00 01 19
version:         01 04
basic params:    95 22 13 78 0a
chroma info:     24 10 97 59 54 8e 27 1e 50 54
established:     00 00 00
standard:        01 01 01 01 01 01 01 01 01 01 01 01 01 01 01 01
descriptor 1:    3c 37 80 de 70 38 14 40 30 20 36 00 58 c2 10 00 00 1a
descriptor 2:    30 2c 80 de 70 38 14 40 30 20 36 00 58 c2 10 00 00 1a
descriptor 3:    00 00 00 fe 00 32 44 48 58 36 80 4e 56 31 35 41 31 31
descriptor 4:    00 00 00 00 00 00 41 11 96 00 00 00 00 0a 01 0a 20 20
extensions:      00
checksum:        73

EDID version: 1.4
Manufacturer: BOE Model 66a Serial Number --
Made in week 1 of 2015
Digital display
6 bits per primary color channel
DisplayPort interface
Maximum image size: 34 cm x 19 cm
Gamma: 2.20
Supported color formats: RGB 4:4:4, YCrCb 4:4:4
First detailed timing includes the native pixel format and preferred refresh rate
Display x,y Chromaticity:
  Red:   0.5898, 0.3496
  Green: 0.3291, 0.5546
  Blue:  0.1523, 0.1181
  White: 0.3125, 0.3281
Established timings supported:
Standard timings supported:
Detailed mode: Clock 141.400 MHz, 344 mm x 194 mm
               1920 1968 2000 2142 hborder 0
               1080 1083 1089 1100 vborder 0
               +hsync -vsync 
               VertFreq: 60 Hz, HorFreq: 66013 Hz
Detailed mode: Clock 113.120 MHz, 344 mm x 194 mm
               1920 1968 2000 2142 hborder 0
               1080 1083 1089 1100 vborder 0
               +hsync -vsync 
               VertFreq: 48 Hz, HorFreq: 52810 Hz
ASCII string: 2DHX6
Manufacturer-specified data, tag 0
Checksum: 0x73 (valid)
EDID block does NOT conform to EDID 1.4!
	Missing name descriptor
	Missing monitor ranges
	Detailed block string not properly terminated
