
EDID (hex):
00ffffffffffff0015c3032201010101
1615010368261f78eae415a3544a9b25
135054a54b0081808140714f01010101
010101010101302a009851002a403070
1300792e1100001e000000ff00383736
30333035310a20202020000000fd0032
4b1f500e000a202020202020000000fc
0053313932312d580a20202020200031

Extracted contents:
header:          00 ff ff ff ff ff ff 00
serial number:   15 c3 03 22 01 01 01 01 16 15
version:         01 03
basic params:    68 26 1f 78 ea
chroma info:     e4 15 a3 54 4a 9b 25 13 50 54
established:     a5 4b 00
standard:        81 80 81 40 71 4f 01 01 01 01 01 01 01 01 01 01
descriptor 1:    30 2a 00 98 51 00 2a 40 30 70 13 00 79 2e 11 00 00 1e
descriptor 2:    00 00 00 ff 00 38 37 36 30 33 30 35 31 0a 20 20 20 20
descriptor 3:    00 00 00 fd 00 32 4b 1f 50 0e 00 0a 20 20 20 20 20 20
descriptor 4:    00 00 00 fc 00 53 31 39 32 31 2d 58 0a 20 20 20 20 20
extensions:      00
checksum:        31

EDID version: 1.3
Manufacturer: ENC Model 2203 Serial Number --
Made in week 22 of 2011
Analog display, Input voltage level: 0.7/0.7 V
Sync: Separate 
Maximum image size: 38 cm x 31 cm
Gamma: 2.20
DPMS levels: Standby Suspend Off
RGB color display
First detailed timing is preferred timing
Display x,y Chromaticity:
  Red:   0.6396, 0.3300
  Green: 0.2900, 0.6054
  Blue:  0.1445, 0.0751
  White: 0.3134, 0.3291
Established timings supported:
  720x400@70Hz 9:5 HorFreq: 31469 Hz Clock: 28.320 MHz
  640x480@60Hz 4:3 HorFreq: 31469 Hz Clock: 25.175 MHz
  640x480@75Hz 4:3 HorFreq: 37500 Hz Clock: 31.500 MHz
  800x600@60Hz 4:3 HorFreq: 37900 Hz Clock: 40.000 MHz
  800x600@75Hz 4:3 HorFreq: 46900 Hz Clock: 49.500 MHz
  1024x768@60Hz 4:3 HorFreq: 48400 Hz Clock: 65.000 MHz
  1024x768@75Hz 4:3 HorFreq: 60000 Hz Clock: 78.750 MHz
  1280x1024@75Hz 5:4 HorFreq: 80000 Hz Clock: 135.000 MHz
Standard timings supported:
  1280x1024@60Hz 5:4 HorFreq: 64000 Hz Clock: 108.000 MHz
  1280x960@60Hz 4:3 HorFreq: 60000 Hz Clock: 108.000 MHz
  1152x864@75Hz 4:3 HorFreq: 67500 Hz Clock: 108.000 MHz
Detailed mode: Clock 108.000 MHz, 377 mm x 302 mm
               1280 1328 1440 1688 hborder 0
               1024 1025 1028 1066 vborder 0
               +hsync +vsync 
               VertFreq: 60 Hz, HorFreq: 63981 Hz
Serial number: --
Monitor ranges (GTF): 50-75Hz V, 31-80kHz H, max dotclock 140MHz
Monitor name: S1921-X
Checksum: 0x31 (valid)
