edid-decode (hex):

00 ff ff ff ff ff ff 00 06 af a3 48 00 00 00 00
31 1f 01 04 a5 1d 12 78 03 1f 85 a9 54 47 9c 24
0f 50 54 00 00 00 01 01 01 01 01 01 01 01 01 01
01 01 01 01 01 01 fa 3c 80 b8 70 b0 24 40 10 10
3e 00 1e b2 10 00 00 1a c8 30 80 b8 70 b0 24 40
10 10 3e 00 1e b2 10 00 00 1a 00 00 00 fe 00 34
39 4e 56 54 80 42 31 33 33 55 41 4e 00 00 00 00
00 02 41 02 a8 00 11 00 00 0a 41 0a 20 20 00 ce

00 ff ff ff ff ff ff 00 06 af a3 48 00 00 00 00
31 1f 01 04 a5 1d 12 78 03 1f 85 a9 54 47 9c 24
0f 50 54 00 00 00 01 01 01 01 01 01 01 01 01 01
01 01 01 01 01 01 fa 3c 80 b8 70 b0 24 40 10 10
3e 00 1e b2 10 00 00 1a c8 30 80 b8 70 b0 24 40
10 10 3e 00 1e b2 10 00 00 1a 00 00 00 fe 00 34
39 4e 56 54 80 42 31 33 33 55 41 4e 00 00 00 00
00 02 41 02 a8 00 11 00 00 0a 41 0a 20 20 00 ce

----------------

Block 0, Base EDID:
  EDID Structure Version & Revision: 1.4
  Vendor & Product Identification:
    Manufacturer: AUO
    Model: 18595
    Made in: week 49 of 2021
  Basic Display Parameters & Features:
    Digital display
    Bits per primary color channel: 8
    DisplayPort interface
    Maximum image size: 29 cm x 18 cm
    Gamma: 2.20
    Supported color formats: RGB 4:4:4
    First detailed timing includes the native pixel format and preferred refresh rate
    Display is continuous frequency
  Color Characteristics:
    Red  : 0.6601, 0.3291
    Green: 0.2802, 0.6123
    Blue : 0.1425, 0.0585
    White: 0.3134, 0.3291
  Established Timings I & II: none
  Standard Timings: none
  Detailed Timing Descriptors:
    DTD 1:  1920x1200   60.025902 Hz  16:10    74.192 kHz    156.100000 MHz (286 mm x 178 mm)
                 Hfront   16 Hsync  16 Hback  152 Hpol P
                 Vfront    3 Vsync  14 Vback   19 Vpol N
    DTD 2:  1920x1200   48.020722 Hz  16:10    59.354 kHz    124.880000 MHz (286 mm x 178 mm)
                 Hfront   16 Hsync  16 Hback  152 Hpol P
                 Vfront    3 Vsync  14 Vback   19 Vpol N
    Alphanumeric Data String: '49NVT'
    Manufacturer-Specified Display Descriptor (0x00): 00 00 00 02 41 02 a8 00 11 00 00 0a 41 0a 20 20 '....A.......A.  '
Checksum: 0xce

----------------

Block 1, Unknown EDID Extension Block 0x00:
  00 ff ff ff ff ff ff 00 06 af a3 48 00 00 00 00 '...........H....'
  31 1f 01 04 a5 1d 12 78 03 1f 85 a9 54 47 9c 24 '1......x....TG.$'
  0f 50 54 00 00 00 01 01 01 01 01 01 01 01 01 01 '.PT.............'
  01 01 01 01 01 01 fa 3c 80 b8 70 b0 24 40 10 10 '.......<..p.$@..'
  3e 00 1e b2 10 00 00 1a c8 30 80 b8 70 b0 24 40 '>........0..p.$@'
  10 10 3e 00 1e b2 10 00 00 1a 00 00 00 fe 00 34 '..>............4'
  39 4e 56 54 80 42 31 33 33 55 41 4e 00 00 00 00 '9NVT.B133UAN....'
  00 02 41 02 a8 00 11 00 00 0a 41 0a 20 20 00 ce '..A.......A.  ..'
Checksum: 0xce

----------------

Warnings:

Block 0, Base EDID:
  Missing Display Product Name.

Failures:

Block 0, Base EDID:
  Alphanumeric Data String: Non-printable character.
  Missing Display Range Limits Descriptor.
Block 1, Base EDID:
  Unknown Extension Block.
EDID:
  Base EDID: EDID specified 0 extension block(s), but found 1 extension block(s).

EDID conformity: FAIL
