edid-decode (hex):

00 ff ff ff ff ff ff 00 21 63 bd 36 00 00 00 00
2d 21 01 04 a5 1f 11 78 02 9a 9e 95 58 57 92 29
22 4f 54 00 00 00 01 01 01 01 01 01 01 01 01 01
01 01 01 01 01 01 c6 1d 56 e2 50 00 1e 30 30 20
36 00 35 ae 10 00 00 19 00 00 00 fd 00 2f 3c 44
44 07 01 0a 20 20 20 20 20 20 00 00 00 fe 00 48
4b 43 20 4d 59 20 20 20 20 0a 20 20 00 00 00 fe
00 4d 42 31 34 30 41 4e 30 31 27 37 20 20 00 c0

00 ff ff ff ff ff ff 00 21 63 bd 36 00 00 00 00
2d 21 01 04 a5 1f 11 78 02 9a 9e 95 58 57 92 29
22 4f 54 00 00 00 01 01 01 01 01 01 01 01 01 01
01 01 01 01 01 01 c6 1d 56 e2 50 00 1e 30 30 20
36 00 35 ae 10 00 00 19 00 00 00 fd 00 2f 3c 44
44 07 01 0a 20 20 20 20 20 20 00 00 00 fe 00 48
4b 43 20 4d 59 20 20 20 20 0a 20 20 00 00 00 fe
00 4d 42 31 34 30 41 4e 30 31 27 37 20 20 00 c0

----------------

Block 0, Base EDID:
  EDID Structure Version & Revision: 1.4
  Vendor & Product Identification:
    Manufacturer: HKC
    Model: 14013
    Made in: week 45 of 2023
  Basic Display Parameters & Features:
    Digital display
    Bits per primary color channel: 8
    DisplayPort interface
    Maximum image size: 31 cm x 17 cm
    Gamma: 2.20
    Supported color formats: RGB 4:4:4
    First detailed timing includes the native pixel format and preferred refresh rate
  Color Characteristics:
    Red  : 0.5839, 0.3447
    Green: 0.3417, 0.5722
    Blue : 0.1621, 0.1337
    White: 0.3115, 0.3300
  Established Timings I & II: none
  Standard Timings: none
  Detailed Timing Descriptors:
    DTD 1:  1366x768    59.996096 Hz 683:384   47.877 kHz     76.220000 MHz (309 mm x 174 mm)
                 Hfront   48 Hsync  32 Hback  146 Hpol N
                 Vfront    3 Vsync   6 Vback   21 Vpol N
    Display Range Limits:
      Monitor ranges (Bare Limits): 47-60 Hz V, 68-68 kHz H, max dotclock 70 MHz
    Alphanumeric Data String: 'HKC MY    '
    Alphanumeric Data String: 'MB140AN01'7  '
Checksum: 0xc0

----------------

Block 1, Unknown EDID Extension Block 0x00:
  00 ff ff ff ff ff ff 00 21 63 bd 36 00 00 00 00 '........!c.6....'
  2d 21 01 04 a5 1f 11 78 02 9a 9e 95 58 57 92 29 '-!.....x....XW.)'
  22 4f 54 00 00 00 01 01 01 01 01 01 01 01 01 01 '"OT.............'
  01 01 01 01 01 01 c6 1d 56 e2 50 00 1e 30 30 20 '........V.P..00 '
  36 00 35 ae 10 00 00 19 00 00 00 fd 00 2f 3c 44 '6.5........../<D'
  44 07 01 0a 20 20 20 20 20 20 00 00 00 fe 00 48 'D...      .....H'
  4b 43 20 4d 59 20 20 20 20 0a 20 20 00 00 00 fe 'KC MY    .  ....'
  00 4d 42 31 34 30 41 4e 30 31 27 37 20 20 00 c0 '.MB140AN01'7  ..'
Checksum: 0xc0

----------------

Warnings:

Block 0, Base EDID:
  Missing Display Product Name.
EDID:
  Base EDID: Some timings are out of range of the Monitor Ranges:
    Horizontal Freq: 47.876 - 47.876 kHz (Monitor: 68.000 - 68.000 kHz)
    Maximum Clock: 76.220 MHz (Monitor: 70.000 MHz)

Failures:

Block 0, Base EDID:
  Alphanumeric Data String: One or more trailing spaces.
  Alphanumeric Data String: One or more trailing spaces.
Block 1, Base EDID:
  Unknown Extension Block.
EDID:
  Base EDID: EDID specified 0 extension block(s), but found 1 extension block(s).

EDID conformity: FAIL
