edid-decode (hex):

00 ff ff ff ff ff ff 00 06 af af cb 00 00 00 00
01 21 01 04 a5 1e 13 78 03 ee 95 a3 54 4c 99 26
0f 50 54 00 00 00 01 01 01 01 01 01 01 01 01 01
01 01 01 01 01 01 80 55 c0 a0 80 78 78 50 30 20
f5 0c 2d bc 10 00 00 18 00 39 c0 a0 80 78 78 50
30 20 35 00 2d bc 10 00 00 18 00 00 00 00 00 00
00 00 00 00 00 00 00 00 00 00 00 00 00 00 00 02
00 10 3c ff 0f 3c 96 3c 09 17 96 00 00 20 01 90

70 20 79 02 00 22 00 14 ff 56 03 85 bf 08 9f 00
2f 80 1f 00 77 05 77 00 3e 00 04 00 25 01 09 ff
56 03 ff 56 03 28 3c 80 81 00 15 74 1a 00 00 03
c1 28 3c 00 00 53 4a 53 4a 3c 00 e0 93 04 00 00
00 00 00 00 00 00 00 00 00 00 00 00 00 00 00 00
00 00 00 00 00 00 00 00 00 00 00 00 00 00 00 00
00 00 00 00 00 00 00 00 00 00 00 00 00 00 00 00
00 00 00 00 00 00 00 00 00 00 00 00 00 00 ed 90

00 ff ff ff ff ff ff 00 06 af af cb 00 00 00 00
01 21 01 04 a5 1e 13 78 03 ee 95 a3 54 4c 99 26
0f 50 54 00 00 00 01 01 01 01 01 01 01 01 01 01
01 01 01 01 01 01 80 55 c0 a0 80 78 78 50 30 20
f5 0c 2d bc 10 00 00 18 00 39 c0 a0 80 78 78 50
30 20 35 00 2d bc 10 00 00 18 00 00 00 00 00 00
00 00 00 00 00 00 00 00 00 00 00 00 00 00 00 02
00 10 3c ff 0f 3c 96 3c 09 17 96 00 00 20 01 90

70 20 79 02 00 22 00 14 ff 56 03 85 bf 08 9f 00
2f 80 1f 00 77 05 77 00 3e 00 04 00 25 01 09 ff
56 03 ff 56 03 28 3c 80 81 00 15 74 1a 00 00 03
c1 28 3c 00 00 53 4a 53 4a 3c 00 e0 93 04 00 00
00 00 00 00 00 00 00 00 00 00 00 00 00 00 00 00
00 00 00 00 00 00 00 00 00 00 00 00 00 00 00 00
00 00 00 00 00 00 00 00 00 00 00 00 00 00 00 00
00 00 00 00 00 00 00 00 00 00 00 00 00 00 ed 90

----------------

Block 0, Base EDID:
  EDID Structure Version & Revision: 1.4
  Vendor & Product Identification:
    Manufacturer: AUO
    Model: 52143
    Made in: week 1 of 2023
  Basic Display Parameters & Features:
    Digital display
    Bits per primary color channel: 8
    DisplayPort interface
    Maximum image size: 30 cm x 19 cm
    Gamma: 2.20
    Supported color formats: RGB 4:4:4
    First detailed timing includes the native pixel format and preferred refresh rate
    Display is continuous frequency
  Color Characteristics:
    Red  : 0.6396, 0.3300
    Green: 0.2998, 0.5996
    Blue : 0.1503, 0.0595
    White: 0.3134, 0.3291
  Established Timings I & II: none
  Standard Timings: none
  Detailed Timing Descriptors:
    DTD 1:  2240x1400   60.000000 Hz  16:10    91.200 kHz    218.880000 MHz (301 mm x 188 mm)
                 Hfront   48 Hsync  32 Hback   80 Hpol N
                 Vfront   63 Vsync   5 Vback   52 Vpol N
    DTD 2:  2240x1400   40.000000 Hz  16:10    60.800 kHz    145.920000 MHz (301 mm x 188 mm)
                 Hfront   48 Hsync  32 Hback   80 Hpol N
                 Vfront    3 Vsync   5 Vback  112 Vpol N
    Empty Descriptor
    Manufacturer-Specified Display Descriptor (0x02): 00 02 00 10 3c ff 0f 3c 96 3c 09 17 96 00 00 20 '....<..<.<..... '
  Extension blocks: 1
Checksum: 0x90

----------------

Block 1, DisplayID Extension Block:
  Version: 2.0
  Extension Count: 0
  Display Product Primary Use Case: None of the listed primary use cases; generic display
  Video Timing Modes Type 7 - Detailed Timings Data Block:
    DTD:  2240x1400   60.000000 Hz  16:10    91.200 kHz    218.880000 MHz (aspect 16:10, no 3D stereo, preferred)
               Hfront   48 Hsync  32 Hback   80 Hpol P
               Vfront   63 Vsync   5 Vback   52 Vpol N
  Dynamic Video Timing Range Limits Data Block:
    Minimum Pixel Clock: 218880 kHz
    Maximum Pixel Clock: 218880 kHz
    Minimum Vertical Refresh Rate: 40 Hz
    Maximum Vertical Refresh Rate: 60 Hz
    Seamless Dynamic Video Timing Support: Yes
  CTA-861 DisplayID Data Block:
  Vendor-Specific Data Block (AMD), OUI 00-00-1A:
    Version: 3.193
    Minimum Refresh Rate: 40 Hz
    Maximum Refresh Rate: 60 Hz
    Flags 1.x: 0x00
    Flags 2.x: 0x00
    Maximum luminance: 83 (301.833 cd/m^2)
    Minimum luminance: 74 (0.254 cd/m^2)
    Unknown: 0x53 0x4a
  Checksum: 0xed
Checksum: 0x90

----------------

Block 2, Unknown EDID Extension Block 0x00:
  00 ff ff ff ff ff ff 00 06 af af cb 00 00 00 00 '................'
  01 21 01 04 a5 1e 13 78 03 ee 95 a3 54 4c 99 26 '.!.....x....TL.&'
  0f 50 54 00 00 00 01 01 01 01 01 01 01 01 01 01 '.PT.............'
  01 01 01 01 01 01 80 55 c0 a0 80 78 78 50 30 20 '.......U...xxP0 '
  f5 0c 2d bc 10 00 00 18 00 39 c0 a0 80 78 78 50 '..-......9...xxP'
  30 20 35 00 2d bc 10 00 00 18 00 00 00 00 00 00 '0 5.-...........'
  00 00 00 00 00 00 00 00 00 00 00 00 00 00 00 02 '................'
  00 10 3c ff 0f 3c 96 3c 09 17 96 00 00 20 01 90 '..<..<.<..... ..'
Checksum: 0x90

----------------

Block 3, DisplayID Extension Block:
  Version: 2.0
  Extension Count: 0
  Video Timing Modes Type 7 - Detailed Timings Data Block:
    DTD:  2240x1400   60.000000 Hz  16:10    91.200 kHz    218.880000 MHz (aspect 16:10, no 3D stereo, preferred)
               Hfront   48 Hsync  32 Hback   80 Hpol P
               Vfront   63 Vsync   5 Vback   52 Vpol N
  Dynamic Video Timing Range Limits Data Block:
    Minimum Pixel Clock: 218880 kHz
    Maximum Pixel Clock: 218880 kHz
    Minimum Vertical Refresh Rate: 40 Hz
    Maximum Vertical Refresh Rate: 60 Hz
    Seamless Dynamic Video Timing Support: Yes
  CTA-861 DisplayID Data Block:
  Vendor-Specific Data Block (AMD), OUI 00-00-1A:
    Version: 3.193
    Minimum Refresh Rate: 40 Hz
    Maximum Refresh Rate: 60 Hz
    Flags 1.x: 0x00
    Flags 2.x: 0x00
    Maximum luminance: 83 (301.833 cd/m^2)
    Minimum luminance: 74 (0.254 cd/m^2)
    Unknown: 0x53 0x4a
  Checksum: 0xed
Checksum: 0x90

----------------

Warnings:

Block 0, Base EDID:
  Missing Display Product Name.

Failures:

Block 0, Base EDID:
  Empty Descriptor: Use Dummy Descriptor instead of all zeroes.
  Missing Display Range Limits Descriptor.
Block 1, DisplayID Extension Block:
  Expected 0 DisplayID Extension Block, but got 1.
Block 2, Base EDID:
  Unknown Extension Block.
Block 3, DisplayID Extension Block:
  Product Type should be 0 in extension block.
EDID:
  Base EDID: EDID specified 1 extension block(s), but found 3 extension block(s).
  DisplayID: Missing DisplayID Product Identification Data Block.
  DisplayID: Missing DisplayID Display Parameters Data Block.
  DisplayID: Missing DisplayID Display Interface Features Data Block.

EDID conformity: FAIL
