
EDID (hex):
00ffffffffffff000daee01400000000
121b0104951f117802ee95a3544c9926
0f505400000001010101010101010101
010101010101b43b804a713834403020
350035ad1000001ab43b804a71386a42
3020350035ad1000001a000000000000
00000000000000000000000000000002
000c26ff143cc8110c29c8000000003f

Extracted contents:
header:          00 ff ff ff ff ff ff 00
serial number:   0d ae e0 14 00 00 00 00 12 1b
version:         01 04
basic params:    95 1f 11 78 02
chroma info:     ee 95 a3 54 4c 99 26 0f 50 54
established:     00 00 00
standard:        01 01 01 01 01 01 01 01 01 01 01 01 01 01 01 01
descriptor 1:    b4 3b 80 4a 71 38 34 40 30 20 35 00 35 ad 10 00 00 1a
descriptor 2:    b4 3b 80 4a 71 38 6a 42 30 20 35 00 35 ad 10 00 00 1a
descriptor 3:    00 00 00 00 00 00 00 00 00 00 00 00 00 00 00 00 00 00
descriptor 4:    00 00 00 02 00 0c 26 ff 14 3c c8 11 0c 29 c8 00 00 00
extensions:      00
checksum:        3f

EDID version: 1.4
Manufacturer: CMN Model 14e0 Serial Number --
Made in week 18 of 2017
Digital display
6 bits per primary color channel
DisplayPort interface
Maximum image size: 31 cm x 17 cm
Gamma: 2.20
Supported color formats: RGB 4:4:4
First detailed timing includes the native pixel format and preferred refresh rate
Display x,y Chromaticity:
  Red:   0.6396, 0.3300
  Green: 0.2998, 0.5996
  Blue:  0.1503, 0.0595
  White: 0.3134, 0.3291
Established timings supported:
Standard timings supported:
Detailed mode: Clock 152.840 MHz, 309 mm x 173 mm
               1920 1968 2000 2250 hborder 0
               1080 1083 1088 1132 vborder 0
               +hsync -vsync 
               VertFreq: 60 Hz, HorFreq: 67928 Hz
Detailed mode: Clock 152.840 MHz, 309 mm x 173 mm
               1920 1968 2000 2250 hborder 0
               1080 1083 1088 1698 vborder 0
               +hsync -vsync 
               VertFreq: 40 Hz, HorFreq: 67928 Hz
Manufacturer-specified data, tag 0
Manufacturer-specified data, tag 2
Checksum: 0x3f (valid)
EDID block does NOT conform to EDID 1.4!
	Missing name descriptor
	Missing monitor ranges
