
EDID (hex):
00ffffffffffff0040a7d00001010101
0d13010380301b78eed105a655479d25
155054a56b8081809500a9c001010101
010101010101023a801871382d40942c
4508dd0c1100001e000000fd00304c18
510f000a202020202020000000fc0050
4547412032300a2020202020000000ff
003030303030300a20202020202000d2

Extracted contents:
header:          00 ff ff ff ff ff ff 00
serial number:   40 a7 d0 00 01 01 01 01 0d 13
version:         01 03
basic params:    80 30 1b 78 ee
chroma info:     d1 05 a6 55 47 9d 25 15 50 54
established:     a5 6b 80
standard:        81 80 95 00 a9 c0 01 01 01 01 01 01 01 01 01 01
descriptor 1:    02 3a 80 18 71 38 2d 40 94 2c 45 08 dd 0c 11 00 00 1e
descriptor 2:    00 00 00 fd 00 30 4c 18 51 0f 00 0a 20 20 20 20 20 20
descriptor 3:    00 00 00 fc 00 50 45 47 41 20 32 30 0a 20 20 20 20 20
descriptor 4:    00 00 00 ff 00 30 30 30 30 30 30 0a 20 20 20 20 20 20
extensions:      00
checksum:        d2

EDID version: 1.3
Manufacturer: PEG Model d0 Serial Number --
Made in week 13 of 2009
Digital display
Maximum image size: 48 cm x 27 cm
Gamma: 2.20
DPMS levels: Standby Suspend Off
RGB color display
Default (sRGB) color space is primary color space
First detailed timing is preferred timing
Display x,y Chromaticity:
  Red:   0.6513, 0.3330
  Green: 0.2773, 0.6142
  Blue:  0.1445, 0.0820
  White: 0.3134, 0.3291
Established timings supported:
  720x400@70Hz 9:5 HorFreq: 31469 Hz Clock: 28.320 MHz
  640x480@60Hz 4:3 HorFreq: 31469 Hz Clock: 25.175 MHz
  640x480@75Hz 4:3 HorFreq: 37500 Hz Clock: 31.500 MHz
  800x600@60Hz 4:3 HorFreq: 37900 Hz Clock: 40.000 MHz
  800x600@75Hz 4:3 HorFreq: 46900 Hz Clock: 49.500 MHz
  832x624@75Hz 4:3 HorFreq: 49726 Hz Clock: 57.284 MHz
  1024x768@60Hz 4:3 HorFreq: 48400 Hz Clock: 65.000 MHz
  1024x768@75Hz 4:3 HorFreq: 60000 Hz Clock: 78.750 MHz
  1280x1024@75Hz 5:4 HorFreq: 80000 Hz Clock: 135.000 MHz
  1152x870@75Hz 192:145 HorFreq: 67500 Hz Clock: 108.000 MHz
Standard timings supported:
  1280x1024@60Hz 5:4 HorFreq: 64000 Hz Clock: 108.000 MHz
  1440x900@60Hz 16:10 HorFreq: 55500 Hz Clock: 88.750 MHz
  1600x900@60Hz 16:9
Detailed mode: Clock 148.500 MHz, 477 mm x 268 mm
               1920 2068 2112 2200 hborder 0
               1080 1116 1121 1125 vborder 0
               +hsync +vsync 
               VertFreq: 60 Hz, HorFreq: 67500 Hz
Monitor ranges (GTF): 48-76Hz V, 24-81kHz H, max dotclock 150MHz
Monitor name: PEGA 20
Serial number: --
Checksum: 0xd2 (valid)
EDID block does NOT conform to EDID 1.3!
	sRGB is signaled, but the chromaticities do not match
