
EDID (hex):
00ffffffffffff001a6e0c3001010101
04160103ff794478ea611aa656489c24
13494bafef80314aa9408180d1c081c0
010101010101023a801871382d40582c
5500c06c0000001c413c80a070b02340
30202600d33d0100001a000000fd002d
50195011000a202020202020000000fc
0046532d533535303246284c290a0029

Extracted contents:
header:          00 ff ff ff ff ff ff 00
serial number:   1a 6e 0c 30 01 01 01 01 04 16
version:         01 03
basic params:    ff 79 44 78 ea
chroma info:     61 1a a6 56 48 9c 24 13 49 4b
established:     af ef 80
standard:        31 4a a9 40 81 80 d1 c0 81 c0 01 01 01 01 01 01
descriptor 1:    02 3a 80 18 71 38 2d 40 58 2c 55 00 c0 6c 00 00 00 1c
descriptor 2:    41 3c 80 a0 70 b0 23 40 30 20 26 00 d3 3d 01 00 00 1a
descriptor 3:    00 00 00 fd 00 2d 50 19 50 11 00 0a 20 20 20 20 20 20
descriptor 4:    00 00 00 fc 00 46 53 2d 53 35 35 30 32 46 28 4c 29 0a
extensions:      00
checksum:        29

EDID version: 1.3
Manufacturer: FSN Model 300c Serial Number --
Made in week 4 of 2012
Digital display
DFP 1.x compatible TMDS
Maximum image size: 121 cm x 68 cm
Gamma: 2.20
DPMS levels: Standby Suspend Off
RGB color display
First detailed timing is preferred timing
Display x,y Chromaticity:
  Red:   0.6494, 0.3378
  Green: 0.2812, 0.6103
  Blue:  0.1406, 0.0751
  White: 0.2871, 0.2949
Established timings supported:
  720x400@70Hz 9:5 HorFreq: 31469 Hz Clock: 28.320 MHz
  640x480@60Hz 4:3 HorFreq: 31469 Hz Clock: 25.175 MHz
  640x480@72Hz 4:3 HorFreq: 37900 Hz Clock: 31.500 MHz
  640x480@75Hz 4:3 HorFreq: 37500 Hz Clock: 31.500 MHz
  800x600@56Hz 4:3 HorFreq: 35200 Hz Clock: 36.000 MHz
  800x600@60Hz 4:3 HorFreq: 37900 Hz Clock: 40.000 MHz
  800x600@72Hz 4:3 HorFreq: 48100 Hz Clock: 50.000 MHz
  800x600@75Hz 4:3 HorFreq: 46900 Hz Clock: 49.500 MHz
  832x624@75Hz 4:3 HorFreq: 49726 Hz Clock: 57.284 MHz
  1024x768@60Hz 4:3 HorFreq: 48400 Hz Clock: 65.000 MHz
  1024x768@70Hz 4:3 HorFreq: 56500 Hz Clock: 75.000 MHz
  1024x768@75Hz 4:3 HorFreq: 60000 Hz Clock: 78.750 MHz
  1280x1024@75Hz 5:4 HorFreq: 80000 Hz Clock: 135.000 MHz
  1152x870@75Hz 192:145 HorFreq: 67500 Hz Clock: 108.000 MHz
Standard timings supported:
  640x480@70Hz 4:3
  1600x1200@60Hz 4:3 HorFreq: 75000 Hz Clock: 162.000 MHz
  1280x1024@60Hz 5:4 HorFreq: 64000 Hz Clock: 108.000 MHz
  1920x1080@60Hz 16:9
  1280x720@60Hz 16:9
Detailed mode: Clock 148.500 MHz, 192 mm x 108 mm
               1920 2008 2052 2200 hborder 0
               1080 1085 1090 1125 vborder 0
               -hsync +vsync 
               VertFreq: 60 Hz, HorFreq: 67500 Hz
Detailed mode: Clock 154.250 MHz, 211 mm x 317 mm
               1920 1968 2000 2080 hborder 0
               1200 1202 1208 1235 vborder 0
               +hsync -vsync 
               VertFreq: 60 Hz, HorFreq: 74158 Hz
Monitor ranges (GTF): 45-80Hz V, 25-80kHz H, max dotclock 170MHz
Monitor name: FS-S5502F(L)
Checksum: 0x29 (valid)
EDID block does NOT conform to EDID 1.3!
	Digital display field contains garbage: 7e
