
EDID (hex):
00ffffffffffff002264752201010101
231301030a341d78eaeed5a555489b26
125054a54b80818081c09500a940b300
010101010101023a801871382d40582c
450009252100001e000000fc0048616e
6e732e47204848323431000000fd0038
4c1f5211000a202020202020000000ff
003933355258335859303238393700b4

Extracted contents:
header:          00 ff ff ff ff ff ff 00
serial number:   22 64 75 22 01 01 01 01 23 13
version:         01 03
basic params:    0a 34 1d 78 ea
chroma info:     ee d5 a5 55 48 9b 26 12 50 54
established:     a5 4b 80
standard:        81 80 81 c0 95 00 a9 40 b3 00 01 01 01 01 01 01
descriptor 1:    02 3a 80 18 71 38 2d 40 58 2c 45 00 09 25 21 00 00 1e
descriptor 2:    00 00 00 fc 00 48 61 6e 6e 73 2e 47 20 48 48 32 34 31
descriptor 3:    00 00 00 fd 00 38 4c 1f 52 11 00 0a 20 20 20 20 20 20
descriptor 4:    00 00 00 ff 00 39 33 35 52 58 33 58 59 30 32 38 39 37
extensions:      00
checksum:        b4

EDID version: 1.3
Manufacturer: HSD Model 2275 Serial Number --
Made in week 35 of 2009
Analog display, Input voltage level: 0.7/0.3 V
Sync: Separate SyncOnGreen 
Maximum image size: 52 cm x 29 cm
Gamma: 2.20
DPMS levels: Standby Suspend Off
RGB color display
First detailed timing is preferred timing
Display x,y Chromaticity:
  Red:   0.6474, 0.3339
  Green: 0.2841, 0.6074
  Blue:  0.1513, 0.0712
  White: 0.3134, 0.3291
Established timings supported:
  720x400@70Hz 9:5 HorFreq: 31469 Hz Clock: 28.320 MHz
  640x480@60Hz 4:3 HorFreq: 31469 Hz Clock: 25.175 MHz
  640x480@75Hz 4:3 HorFreq: 37500 Hz Clock: 31.500 MHz
  800x600@60Hz 4:3 HorFreq: 37900 Hz Clock: 40.000 MHz
  800x600@75Hz 4:3 HorFreq: 46900 Hz Clock: 49.500 MHz
  1024x768@60Hz 4:3 HorFreq: 48400 Hz Clock: 65.000 MHz
  1024x768@75Hz 4:3 HorFreq: 60000 Hz Clock: 78.750 MHz
  1280x1024@75Hz 5:4 HorFreq: 80000 Hz Clock: 135.000 MHz
  1152x870@75Hz 192:145 HorFreq: 67500 Hz Clock: 108.000 MHz
Standard timings supported:
  1280x1024@60Hz 5:4 HorFreq: 64000 Hz Clock: 108.000 MHz
  1280x720@60Hz 16:9
  1440x900@60Hz 16:10 HorFreq: 55500 Hz Clock: 88.750 MHz
  1600x1200@60Hz 4:3 HorFreq: 75000 Hz Clock: 162.000 MHz
  1680x1050@60Hz 16:10 HorFreq: 64700 Hz Clock: 119.000 MHz
Detailed mode: Clock 148.500 MHz, 521 mm x 293 mm
               1920 2008 2052 2200 hborder 0
               1080 1084 1089 1125 vborder 0
               +hsync +vsync 
               VertFreq: 60 Hz, HorFreq: 67500 Hz
Monitor ranges (GTF): 56-76Hz V, 31-82kHz H, max dotclock 170MHz
Serial number: --
Checksum: 0xb4 (valid)
EDID block does NOT conform to EDID 1.3!
	Name descriptor not terminated with a newline
