
EDID (hex):
00ffffffffffff005a8b004900000000
1e1c0104b57822783bf63da3554e9e27
0d474aa54b00d1c0b3009500818081c0
8140a9c0a9fc936900c8f03823403020
3500ac504100001a10d100a0f0382340
30203500ac504100001a000000fc0053
55573439430a202020202020000000fd
00307888883f010a2020202020200199
020328f450010203049012131f11593f
5d5e5f60612309070783010000e305c0
00e606050160594572f60064f0382040
24203500ac504100001af27f80787038
234030203500ac504100001e154700a0
a038234030203500ac504100001e0000
00000000000000000000000000000000
00000000000000000000000000000048

Extracted contents:
header:          00 ff ff ff ff ff ff 00
serial number:   5a 8b 00 49 00 00 00 00 1e 1c
version:         01 04
basic params:    b5 78 22 78 3b
chroma info:     f6 3d a3 55 4e 9e 27 0d 47 4a
established:     a5 4b 00
standard:        d1 c0 b3 00 95 00 81 80 81 c0 81 40 a9 c0 a9 fc
descriptor 1:    93 69 00 c8 f0 38 23 40 30 20 35 00 ac 50 41 00 00 1a
descriptor 2:    10 d1 00 a0 f0 38 23 40 30 20 35 00 ac 50 41 00 00 1a
descriptor 3:    00 00 00 fc 00 53 55 57 34 39 43 0a 20 20 20 20 20 20
descriptor 4:    00 00 00 fd 00 30 78 88 88 3f 01 0a 20 20 20 20 20 20
extensions:      01
checksum:        99

EDID version: 1.4
Manufacturer: VTK Model 4900 Serial Number --
Made in week 30 of 2018
Digital display
10 bits per primary color channel
DisplayPort interface
Maximum image size: 120 cm x 34 cm
Gamma: 2.20
DPMS levels: Off
Supported color formats: RGB 4:4:4, YCrCb 4:4:4, YCrCb 4:2:2
First detailed timing includes the native pixel format and preferred refresh rate
Display is continuous frequency
Display x,y Chromaticity:
  Red:   0.6396, 0.3349
  Green: 0.3056, 0.6191
  Blue:  0.1523, 0.0537
  White: 0.2802, 0.2900
Established timings supported:
  720x400@70Hz 9:5 HorFreq: 31469 Hz Clock: 28.320 MHz
  640x480@60Hz 4:3 HorFreq: 31469 Hz Clock: 25.175 MHz
  640x480@75Hz 4:3 HorFreq: 37500 Hz Clock: 31.500 MHz
  800x600@60Hz 4:3 HorFreq: 37900 Hz Clock: 40.000 MHz
  800x600@75Hz 4:3 HorFreq: 46900 Hz Clock: 49.500 MHz
  1024x768@60Hz 4:3 HorFreq: 48400 Hz Clock: 65.000 MHz
  1024x768@75Hz 4:3 HorFreq: 60000 Hz Clock: 78.750 MHz
  1280x1024@75Hz 5:4 HorFreq: 80000 Hz Clock: 135.000 MHz
Standard timings supported:
  1920x1080@60Hz 16:9
  1680x1050@60Hz 16:10 HorFreq: 64700 Hz Clock: 119.000 MHz
  1440x900@60Hz 16:10 HorFreq: 55500 Hz Clock: 88.750 MHz
  1280x1024@60Hz 5:4 HorFreq: 64000 Hz Clock: 108.000 MHz
  1280x720@60Hz 16:9
  1280x960@60Hz 4:3 HorFreq: 60000 Hz Clock: 108.000 MHz
  1600x900@60Hz 16:9
  1600x900@120Hz 16:9
Detailed mode: Clock 270.270 MHz, 1196 mm x 336 mm
               3840 3888 3920 4040 hborder 0
               1080 1083 1088 1115 vborder 0
               +hsync -vsync 
               VertFreq: 59 Hz, HorFreq: 66898 Hz
Detailed mode: Clock 535.200 MHz, 1196 mm x 336 mm
               3840 3888 3920 4000 hborder 0
               1080 1083 1088 1115 vborder 0
               +hsync -vsync 
               VertFreq: 120 Hz, HorFreq: 133800 Hz
Monitor name: SUW49C
Monitor ranges (bare limits): 48-120Hz V, 136-136kHz H, max dotclock 630MHz
Has 1 extension blocks
Checksum: 0x99 (valid)

CTA extension block
Extension version: 3
36 bytes of CTA data
  Video data block
    VIC   1 640x480@60Hz 4:3  HorFreq: 31469 Hz Clock: 25.175 MHz
    VIC   2 720x480@60Hz 4:3  HorFreq: 31469 Hz Clock: 27.000 MHz
    VIC   3 720x480@60Hz 16:9  HorFreq: 31469 Hz Clock: 27.000 MHz
    VIC   4 1280x720@60Hz 16:9  HorFreq: 45000 Hz Clock: 74.250 MHz
    VIC  16 1920x1080@60Hz 16:9 (native) HorFreq: 67500 Hz Clock: 148.500 MHz
    VIC  18 720x576@50Hz 16:9  HorFreq: 31250 Hz Clock: 27.000 MHz
    VIC  19 1280x720@50Hz 16:9  HorFreq: 37500 Hz Clock: 74.250 MHz
    VIC  31 1920x1080@50Hz 16:9  HorFreq: 56250 Hz Clock: 148.500 MHz
    VIC  17 720x576@50Hz 4:3  HorFreq: 31250 Hz Clock: 27.000 MHz
    VIC  89 2560x1080@50Hz 64:27  HorFreq: 56250 Hz Clock: 185.625 MHz
    VIC  63 1920x1080@120Hz 16:9  HorFreq: 135000 Hz Clock: 297.000 MHz
    VIC  93 3840x2160@24Hz 16:9  HorFreq: 54000 Hz Clock: 297.000 MHz
    VIC  94 3840x2160@25Hz 16:9  HorFreq: 56250 Hz Clock: 297.000 MHz
    VIC  95 3840x2160@30Hz 16:9  HorFreq: 67500 Hz Clock: 297.000 MHz
    VIC  96 3840x2160@50Hz 16:9  HorFreq: 112500 Hz Clock: 594.000 MHz
    VIC  97 3840x2160@60Hz 16:9  HorFreq: 135000 Hz Clock: 594.000 MHz
  Audio data block
    Linear PCM, max channels 2
      Supported sample rates (kHz): 48 44.1 32
      Supported sample sizes (bits): 24 20 16
  Speaker allocation data block
    Speaker map:
      FL/FR - Front Left/Right
  Extended tag: Colorimetry data block
    BT2020YCC
    BT2020RGB
  Extended tag: HDR static metadata data block
    Electro optical transfer functions:
      Traditional gamma - SDR luminance range
      SMPTE ST2084
    Supported static metadata descriptors:
      Static metadata type 1
    Desired content max luminance: 96 (400.000 cd/m^2)
    Desired content max frame-average luminance: 89 (343.724 cd/m^2)
    Desired content min luminance: 69 (0.293 cd/m^2)
Underscans PC formats by default
Basic audio support
Supports YCbCr 4:4:4
Supports YCbCr 4:2:2
4 native detailed modes
Detailed mode: Clock 630.900 MHz, 1196 mm x 336 mm
               3840 3876 3908 3940 hborder 0
               1080 1083 1088 1112 vborder 0
               +hsync -vsync 
               VertFreq: 143 Hz, HorFreq: 160126 Hz
Detailed mode: Clock 327.540 MHz, 1196 mm x 336 mm
               1920 1968 2000 2040 hborder 0
               1080 1083 1088 1115 vborder 0
               +hsync +vsync 
               VertFreq: 143 Hz, HorFreq: 160558 Hz
Detailed mode: Clock 181.970 MHz, 1196 mm x 336 mm
               2560 2608 2640 2720 hborder 0
               1080 1083 1088 1115 vborder 0
               +hsync +vsync 
               VertFreq: 60 Hz, HorFreq: 66900 Hz
Checksum: 0x48 (valid)

Warning: One or more of the timings is out of range of the Monitor Ranges:
  Vertical Freq: 24 - 143 Hz
  Horizontal Freq: 31250 - 160558 Hz
  Maximum Clock: 630.900 MHz


