
EDID (hex):
00ffffffffffff0016c5010001010101
1a1f0103803c22783a63f5ac5044af26
0b5054a70800d1c0b300310a81808140
81c081e8010108e80030f2705a80b058
8a00544f2100001a000000fd0028901e
ff3c000a202020202020000000fc0045
5330374430330a2020202020000000ff
004556453231323630313236310a0201
02035bf2537660612f1f130175405d10
040507143f5f5e162309070783010000
6d030c002000183c2000600102036dd8
5dc40178806b1030900000006d1a0000
020b3090e60478137a12e305c381e20f
87e60607017b7b18e200d508e80030f2
705a80b0588a00544f2100001a565e00
a0a0a0295030203500544f2100001aae
7012790000030150e2f30184ff0e9f00
2f803f006f083d00020004009b450004
ff0471016d802700cf021d0004800400
378b00047f07170157802b0037042c00
030004007de50004ff099f002f803700
9f053b00020007000000000000000000
00000000000000000000000000000000
0000000000000000000000000000e190

Extracted contents:
header:          00 ff ff ff ff ff ff 00
serial number:   16 c5 01 00 01 01 01 01 1a 1f
version:         01 03
basic params:    80 3c 22 78 3a
chroma info:     63 f5 ac 50 44 af 26 0b 50 54
established:     a7 08 00
standard:        d1 c0 b3 00 31 0a 81 80 81 40 81 c0 81 e8 01 01
descriptor 1:    08 e8 00 30 f2 70 5a 80 b0 58 8a 00 54 4f 21 00 00 1a
descriptor 2:    00 00 00 fd 00 28 90 1e ff 3c 00 0a 20 20 20 20 20 20
descriptor 3:    00 00 00 fc 00 45 53 30 37 44 30 33 0a 20 20 20 20 20
descriptor 4:    00 00 00 ff 00 45 56 45 32 31 32 36 30 31 32 36 31 0a
extensions:      02
checksum:        01

EDID version: 1.3
Manufacturer: EVE Model 1 Serial Number --
Made in week 26 of 2021
Digital display
Maximum image size: 60 cm x 34 cm
Gamma: 2.20
DPMS levels: Off
Undefined display color type
First detailed timing is preferred timing
Display x,y Chromaticity:
  Red:   0.6728, 0.3144
  Green: 0.2656, 0.6865
  Blue:  0.1513, 0.0458
  White: 0.3134, 0.3291
Established timings supported:
  720x400@70Hz 9:5 HorFreq: 31469 Hz Clock: 28.320 MHz
  640x480@60Hz 4:3 HorFreq: 31469 Hz Clock: 25.175 MHz
  640x480@75Hz 4:3 HorFreq: 37500 Hz Clock: 31.500 MHz
  800x600@56Hz 4:3 HorFreq: 35200 Hz Clock: 36.000 MHz
  800x600@60Hz 4:3 HorFreq: 37900 Hz Clock: 40.000 MHz
  1024x768@60Hz 4:3 HorFreq: 48400 Hz Clock: 65.000 MHz
Standard timings supported:
  1920x1080@60Hz 16:9
  1680x1050@60Hz 16:10 HorFreq: 64700 Hz Clock: 119.000 MHz
  640x400@70Hz 16:10
  1280x1024@60Hz 5:4 HorFreq: 64000 Hz Clock: 108.000 MHz
  1280x960@60Hz 4:3 HorFreq: 60000 Hz Clock: 108.000 MHz
  1280x720@60Hz 16:9
  1280x720@100Hz 16:9
Detailed mode: Clock 594.000 MHz, 596 mm x 335 mm
               3840 4016 4104 4400 hborder 0
               2160 2168 2178 2250 vborder 0
               +hsync -vsync 
               VertFreq: 60 Hz, HorFreq: 135000 Hz
Monitor ranges (GTF): 40-144Hz V, 30-255kHz H, max dotclock 600MHz
Monitor name: ES07D03
Serial number: --
Has 2 extension blocks
Checksum: 0x1 (valid)

CTA extension block
Extension version: 3
87 bytes of CTA data
  Video data block
    VIC 118 3840x2160@120Hz 16:9  HorFreq: 270000 Hz Clock: 1188.000 MHz
    VIC  96 3840x2160@50Hz 16:9  HorFreq: 112500 Hz Clock: 594.000 MHz
    VIC  97 3840x2160@60Hz 16:9  HorFreq: 135000 Hz Clock: 594.000 MHz
    VIC  47 1280x720@120Hz 16:9  HorFreq: 90000 Hz Clock: 148.500 MHz
    VIC  31 1920x1080@50Hz 16:9  HorFreq: 56250 Hz Clock: 148.500 MHz
    VIC  19 1280x720@50Hz 16:9  HorFreq: 37500 Hz Clock: 74.250 MHz
    VIC   1 640x480@60Hz 4:3  HorFreq: 31469 Hz Clock: 25.175 MHz
    VIC 117 3840x2160@100Hz 16:9  HorFreq: 225000 Hz Clock: 1188.000 MHz
    VIC  64 1920x1080@100Hz 16:9  HorFreq: 112500 Hz Clock: 297.000 MHz
    VIC  93 3840x2160@24Hz 16:9  HorFreq: 54000 Hz Clock: 297.000 MHz
    VIC  16 1920x1080@60Hz 16:9  HorFreq: 67500 Hz Clock: 148.500 MHz
    VIC   4 1280x720@60Hz 16:9  HorFreq: 45000 Hz Clock: 74.250 MHz
    VIC   5 1920x1080i@60Hz 16:9  HorFreq: 33750 Hz Clock: 74.250 MHz
    VIC   7 1440x480i@60Hz 16:9  HorFreq: 15734 Hz Clock: 27.000 MHz
    VIC  20 1920x1080i@50Hz 16:9  HorFreq: 28125 Hz Clock: 74.250 MHz
    VIC  63 1920x1080@120Hz 16:9  HorFreq: 135000 Hz Clock: 297.000 MHz
    VIC  95 3840x2160@30Hz 16:9  HorFreq: 67500 Hz Clock: 297.000 MHz
    VIC  94 3840x2160@25Hz 16:9  HorFreq: 56250 Hz Clock: 297.000 MHz
    VIC  22 1440x576i@50Hz 16:9  HorFreq: 15625 Hz Clock: 27.000 MHz
  Audio data block
    Linear PCM, max channels 2
      Supported sample rates (kHz): 48 44.1 32
      Supported sample sizes (bits): 24 20 16
  Speaker allocation data block
    Speaker map:
      FL/FR - Front Left/Right
  Vendor-specific data block, OUI 000c03 (HDMI)
    Source physical address 2.0.0.0
    DC_30bit
    DC_Y444
    Maximum TMDS clock: 300MHz
    Extended HDMI video details:
      HDMI VIC 1 3840x2160@30Hz 16:9 HorFreq: 67500 Hz Clock: 297.000 MHz
      HDMI VIC 2 3840x2160@25Hz 16:9 HorFreq: 56250 Hz Clock: 297.000 MHz
      HDMI VIC 3 3840x2160@24Hz 16:9 HorFreq: 54000 Hz Clock: 297.000 MHz
  Vendor-specific data block, OUI c45dd8 (HDMI Forum)
    Version: 1
    Maximum TMDS Character Rate: 600MHz
    SCDC Present
    Supports 12-bits/component Deep Color 4:2:0 Pixel Encoding
    Supports 10-bits/component Deep Color 4:2:0 Pixel Encoding
  Vendor-specific data block, OUI 00001a
  Extended tag: Colorimetry data block
    xvYCC601
    xvYCC709
    BT2020YCC
    BT2020RGB
    DCI-P3
  Extended tag: YCbCr 4:2:0 capability map data block
    VSD Index 0
    VSD Index 1
    VSD Index 2
    VSD Index 7
  Extended tag: HDR static metadata data block
    Electro optical transfer functions:
      Traditional gamma - SDR luminance range
      Traditional gamma - HDR luminance range
      SMPTE ST2084
    Supported static metadata descriptors:
      Static metadata type 1
    Desired content max luminance: 123 (717.884 cd/m^2)
    Desired content max frame-average luminance: 123 (717.884 cd/m^2)
    Desired content min luminance: 24 (0.064 cd/m^2)
  Extended tag: Video capability data block
    YCbCr quantization: Selectable (via AVI YQ) (1)
    RGB quantization: Selectable (via AVI Q) (1)
    PT scan behaviour: Always Overscannned (1)
    IT scan behaviour: Always Overscannned (1)
    CE scan behaviour: Always Overscannned (1)
Underscans PC formats by default
Basic audio support
Supports YCbCr 4:4:4
Supports YCbCr 4:2:2
2 native detailed modes
Detailed mode: Clock 594.000 MHz, 596 mm x 335 mm
               3840 4016 4104 4400 hborder 0
               2160 2168 2178 2250 vborder 0
               +hsync -vsync 
               VertFreq: 60 Hz, HorFreq: 135000 Hz
Checksum: 0xae (valid)


DisplayID extension block
Extension version: 18
Length 121, version 18, extension count 0
Checksum: 0xe1 (valid)
Type 1 detailed timing: aspect: 16:9, Preferred  
Detailed mode: Clock 1279.700 MHz, 0 mm x 0 mm
               3839 3886 3949 3998
               2159 2161 2165 2220
               +hsync -vsync
Type 1 detailed timing: aspect: 16:9,  
Detailed mode: Clock 178.190 MHz, 0 mm x 0 mm
               1279 1388 1427 1648
                719  723  727  748
               +hsync +vsync
Type 1 detailed timing: aspect: 16:9,  
Detailed mode: Clock 356.390 MHz, 0 mm x 0 mm
               1919 2006 2049 2198
               1079 1082 1086 1123
               +hsync -vsync
Type 1 detailed timing: aspect: 16:9,  
Detailed mode: Clock 587.490 MHz, 0 mm x 0 mm
               2559 2606 2661 2718
               1439 1441 1448 1498
               +hsync -vsync

One or more of the timings is out of range of the Monitor Ranges:
  Vertical Freq: 24 - 120 Hz
  Horizontal Freq: 15625 - 270000 Hz
  Maximum Clock: 1188.000 MHz
EDID block does not conform at all!
	Both the serial number and the serial string are set
