
EDID (hex):
00ffffffffffff00061005a000000000
31140103802115780a50c59858528e27
25505400000001010101010101010101
0101010101017c2e90a0601a1e403020
36004bcf100000180000000100061030
00000000000000000a20000000fe004c
503135345745332d544c4232000000fc
00436f6c6f72204c43440a202020005e

Extracted contents:
header:          00 ff ff ff ff ff ff 00
serial number:   06 10 05 a0 00 00 00 00 31 14
version:         01 03
basic params:    80 21 15 78 0a
chroma info:     50 c5 98 58 52 8e 27 25 50 54
established:     00 00 00
standard:        01 01 01 01 01 01 01 01 01 01 01 01 01 01 01 01
descriptor 1:    7c 2e 90 a0 60 1a 1e 40 30 20 36 00 4b cf 10 00 00 18
descriptor 2:    00 00 00 01 00 06 10 30 00 00 00 00 00 00 00 00 0a 20
descriptor 3:    00 00 00 fe 00 4c 50 31 35 34 57 45 33 2d 54 4c 42 32
descriptor 4:    00 00 00 fc 00 43 6f 6c 6f 72 20 4c 43 44 0a 20 20 20
extensions:      00
checksum:        5e

EDID version: 1.3
Manufacturer: APP Model a005 Serial Number --
Made in week 49 of 2010
Digital display
Maximum image size: 33 cm x 21 cm
Gamma: 2.20
RGB color display
First detailed timing is preferred timing
Display x,y Chromaticity:
  Red:   0.5947, 0.3447
  Green: 0.3203, 0.5546
  Blue:  0.1552, 0.1445
  White: 0.3134, 0.3291
Established timings supported:
Standard timings supported:
Detailed mode: Clock 119.000 MHz, 331 mm x 207 mm
               1680 1728 1760 1840 hborder 0
               1050 1053 1059 1080 vborder 0
               -hsync -vsync 
               VertFreq: 59 Hz, HorFreq: 64673 Hz
Manufacturer-specified data, tag 1
ASCII string: LP154WE3-TLB2
Monitor name: Color LCD
Checksum: 0x5e (valid)
EDID block does NOT conform to EDID 1.3!
	Missing monitor ranges
