
EDID (hex):
00ffffffffffff004d10b414a0230f00
051d0104a520157807de50a3544c9926
0f505400000001010101010101010101
0101010101018b6ac0a0908030603020
3a003dd310000018000000fd00143c70
701c0100000000000000000000100000
000000000000000000000000000000fc
004c5131353050314a5835310a2000a9

Extracted contents:
header:          00 ff ff ff ff ff ff 00
serial number:   4d 10 b4 14 a0 23 0f 00 05 1d
version:         01 04
basic params:    a5 20 15 78 07
chroma info:     de 50 a3 54 4c 99 26 0f 50 54
established:     00 00 00
standard:        01 01 01 01 01 01 01 01 01 01 01 01 01 01 01 01
descriptor 1:    8b 6a c0 a0 90 80 30 60 30 20 3a 00 3d d3 10 00 00 18
descriptor 2:    00 00 00 fd 00 14 3c 70 70 1c 01 00 00 00 00 00 00 00
descriptor 3:    00 00 00 10 00 00 00 00 00 00 00 00 00 00 00 00 00 00
descriptor 4:    00 00 00 fc 00 4c 51 31 35 30 50 31 4a 58 35 31 0a 20
extensions:      00
checksum:        a9

EDID version: 1.4
Manufacturer: SHP Model 14b4 Serial Number --
Made in week 5 of 2019
Digital display
8 bits per primary color channel
DisplayPort interface
Maximum image size: 32 cm x 21 cm
Gamma: 2.20
Supported color formats: RGB 4:4:4
Default (sRGB) color space is primary color space
First detailed timing includes the native pixel format and preferred refresh rate
Display is continuous frequency
Display x,y Chromaticity:
  Red:   0.6396, 0.3291
  Green: 0.2998, 0.5996
  Blue:  0.1494, 0.0595
  White: 0.3125, 0.3281
Established timings supported:
Standard timings supported:
Detailed mode: Clock 272.750 MHz, 317 mm x 211 mm
               2496 2544 2576 2656 hborder 0
               1664 1667 1677 1712 vborder 0
               -hsync -vsync 
               VertFreq: 59 Hz, HorFreq: 102692 Hz
Monitor ranges (bare limits): 20-60Hz V, 112-112kHz H, max dotclock 280MHz
Dummy block
Monitor name: LQ150P1JX51
Checksum: 0xa9 (valid)
EDID block does NOT conform to EDID 1.4!
	sRGB is signaled, but the chromaticities do not match
Warning: One or more of the timings is out of range of the Monitor Ranges:
  Vertical Freq: 59 - 59 Hz
  Horizontal Freq: 102692 - 102692 Hz
  Maximum Clock: 272.750 MHz
