
EDID (hex):
00ffffffffffff005a6320c501010101
201201037a0000780ad11ea3585b8c24
164f5aadce0045593159615981800101
010101010101a00f200031581c202880
140000000000001e000000ff00515459
3038333230323534330a000000fd0032
571e46ff000a202020202020000000fc
00504a353133440a20202020202000e4

Extracted contents:
header:          00 ff ff ff ff ff ff 00
serial number:   5a 63 20 c5 01 01 01 01 20 12
version:         01 03
basic params:    7a 00 00 78 0a
chroma info:     d1 1e a3 58 5b 8c 24 16 4f 5a
established:     ad ce 00
standard:        45 59 31 59 61 59 81 80 01 01 01 01 01 01 01 01
descriptor 1:    a0 0f 20 00 31 58 1c 20 28 80 14 00 00 00 00 00 00 1e
descriptor 2:    00 00 00 ff 00 51 54 59 30 38 33 32 30 32 35 34 33 0a
descriptor 3:    00 00 00 fd 00 32 57 1e 46 ff 00 0a 20 20 20 20 20 20
descriptor 4:    00 00 00 fc 00 50 4a 35 31 33 44 0a 20 20 20 20 20 20
extensions:      00
checksum:        e4

EDID version: 1.3
Manufacturer: VSC Model c520 Serial Number --
Made in week 32 of 2008
Analog display, Input voltage level: 0.7/0.7 V
Configurable signal levels
Sync: Separate SyncOnGreen 
Image size is variable
Gamma: 2.20
RGB color display
First detailed timing is preferred timing
Display x,y Chromaticity:
  Red:   0.6396, 0.3447
  Green: 0.3554, 0.5478
  Blue:  0.1406, 0.0869
  White: 0.3115, 0.3535
Established timings supported:
  720x400@70Hz 9:5 HorFreq: 31469 Hz Clock: 28.320 MHz
  640x480@60Hz 4:3 HorFreq: 31469 Hz Clock: 25.175 MHz
  640x480@72Hz 4:3 HorFreq: 37900 Hz Clock: 31.500 MHz
  640x480@75Hz 4:3 HorFreq: 37500 Hz Clock: 31.500 MHz
  800x600@60Hz 4:3 HorFreq: 37900 Hz Clock: 40.000 MHz
  800x600@72Hz 4:3 HorFreq: 48100 Hz Clock: 50.000 MHz
  800x600@75Hz 4:3 HorFreq: 46900 Hz Clock: 49.500 MHz
  1024x768@60Hz 4:3 HorFreq: 48400 Hz Clock: 65.000 MHz
  1024x768@70Hz 4:3 HorFreq: 56500 Hz Clock: 75.000 MHz
  1024x768@75Hz 4:3 HorFreq: 60000 Hz Clock: 78.750 MHz
Standard timings supported:
  800x600@85Hz 4:3 HorFreq: 53700 Hz Clock: 56.250 MHz
  640x480@85Hz 4:3 HorFreq: 43300 Hz Clock: 36.000 MHz
  1024x768@85Hz 4:3 HorFreq: 68700 Hz Clock: 94.500 MHz
  1280x1024@60Hz 5:4 HorFreq: 64000 Hz Clock: 108.000 MHz
Detailed mode: Clock 40.000 MHz, 0 mm x 0 mm
                800  840  968 1056 hborder 0
                600  601  605  628 vborder 0
               +hsync +vsync 
               VertFreq: 60 Hz, HorFreq: 37878 Hz
Serial number: --
Monitor ranges (GTF): 50-87Hz V, 30-70kHz H, max dotclock 2550MHz
Monitor name: PJ513D
Checksum: 0xe4 (valid)
