edid-decode (hex):

00 ff ff ff ff ff ff 00 25 cc 0d 00 00 00 00 00
00 13 01 03 80 16 0c 78 0a 40 85 93 59 56 93 27
1b 50 54 00 00 00 01 01 01 01 01 01 01 01 01 01
01 01 01 01 01 01 2c 15 00 7a 41 58 2c 20 30 20
36 00 de 7d 00 00 00 18 00 00 00 00 00 00 00 00
00 00 00 00 00 00 00 00 00 00 00 00 00 fe 00 49
4e 4c 0a 20 20 20 20 20 20 20 20 20 00 00 00 fc
00 42 54 31 30 31 49 57 30 33 56 31 0a 20 00 c1

----------------

Block 0, Base EDID:
  EDID Structure Version & Revision: 1.3
  Vendor & Product Identification:
    Manufacturer: INL
    Model: 13
    Made in: 2009
  Basic Display Parameters & Features:
    Digital display
    Maximum image size: 22 cm x 12 cm
    Gamma: 2.20
    RGB color display
    First detailed timing is the preferred timing
  Color Characteristics:
    Red  : 0.5751, 0.3476
    Green: 0.3359, 0.5742
    Blue : 0.1542, 0.1054
    White: 0.3134, 0.3291
  Established Timings I & II: none
  Standard Timings: none
  Detailed Timing Descriptors:
    DTD 1:  1024x600    60.029594 Hz 128:75    38.659 kHz     54.200000 MHz (222 mm x 125 mm)
                 Hfront   48 Hsync  32 Hback  298 Hpol N
                 Vfront    3 Vsync   6 Vback   35 Vpol N
    Empty Descriptor
    Alphanumeric Data String: 'INL'
    Display Product Name: 'BT101IW03V1'
Checksum: 0xc1

----------------

Failures:

Block 0, Base EDID:
  Empty Descriptor: Use Dummy Descriptor instead of all zeroes.
  Missing Display Range Limits Descriptor.

EDID conformity: FAIL
