
EDID (hex):
00ffffffffffff0006af9d1100000000
001801049026157802c8959e57549226
0f505400000001010101010101010101
010101010101843a8034713828403064
31007dd61000001a882c80c870382840
306431007dd61000001a000000fe004d
4d373748804231373348544e00000000
00004121960111000002010a20200021

Extracted contents:
header:          00 ff ff ff ff ff ff 00
serial number:   06 af 9d 11 00 00 00 00 00 18
version:         01 04
basic params:    90 26 15 78 02
chroma info:     c8 95 9e 57 54 92 26 0f 50 54
established:     00 00 00
standard:        01 01 01 01 01 01 01 01 01 01 01 01 01 01 01 01
descriptor 1:    84 3a 80 34 71 38 28 40 30 64 31 00 7d d6 10 00 00 1a
descriptor 2:    88 2c 80 c8 70 38 28 40 30 64 31 00 7d d6 10 00 00 1a
descriptor 3:    00 00 00 fe 00 4d 4d 37 37 48 80 42 31 37 33 48 54 4e
descriptor 4:    00 00 00 00 00 00 41 21 96 01 11 00 00 02 01 0a 20 20
extensions:      00
checksum:        21

EDID version: 1.4
Manufacturer: AUO Model 119d Serial Number --
Made in year 2014
Digital display
6 bits per primary color channel
Digital interface is not defined
Maximum image size: 38 cm x 21 cm
Gamma: 2.20
Supported color formats: RGB 4:4:4
First detailed timing includes the native pixel format and preferred refresh rate
Display x,y Chromaticity:
  Red:   0.6201, 0.3398
  Green: 0.3300, 0.5703
  Blue:  0.1503, 0.0595
  White: 0.3134, 0.3291
Established timings supported:
Standard timings supported:
Detailed mode: Clock 149.800 MHz, 381 mm x 214 mm
               1920 1968 2068 2228 hborder 0
               1080 1083 1084 1120 vborder 0
               +hsync -vsync 
               VertFreq: 60 Hz, HorFreq: 67235 Hz
Detailed mode: Clock 114.000 MHz, 381 mm x 214 mm
               1920 1968 2068 2120 hborder 0
               1080 1083 1084 1120 vborder 0
               +hsync -vsync 
               VertFreq: 48 Hz, HorFreq: 53773 Hz
ASCII string: MM77H
Manufacturer-specified data, tag 0
Checksum: 0x21 (valid)
EDID block does NOT conform to EDID 1.4!
	Missing name descriptor
	Missing monitor ranges
	Detailed block string not properly terminated
