edid-decode (hex):

00 ff ff ff ff ff ff 00 06 af 9d 11 58 26 bc 26
00 1a 01 04 a5 26 15 78 02 d2 95 a3 56 52 9d 27
0b 50 54 00 00 00 01 01 01 01 01 01 01 01 01 01
01 01 01 01 01 01 32 69 80 78 70 38 14 40 0a 0a
33 00 7d d6 10 00 00 18 32 69 80 78 70 38 60 44
0a 0a 33 00 7d d6 10 00 00 18 00 00 00 fe 00 41
55 4f 0a 20 20 20 20 20 20 20 20 20 00 00 00 fe
00 42 31 37 33 48 41 4e 30 31 2e 31 20 0a 00 fa

----------------

Block 0, Base EDID:
  EDID Structure Version & Revision: 1.4
  Vendor & Product Identification:
    Manufacturer: AUO
    Model: 4509
    Serial Number: ...
    Made in: 2016
  Basic Display Parameters & Features:
    Digital display
    Bits per primary color channel: 8
    DisplayPort interface
    Maximum image size: 38 cm x 21 cm
    Gamma: 2.20
    Supported color formats: RGB 4:4:4
    First detailed timing includes the native pixel format and preferred refresh rate
  Color Characteristics:
    Red  : 0.6396, 0.3369
    Green: 0.3203, 0.6152
    Blue : 0.1542, 0.0439
    White: 0.3134, 0.3291
  Established Timings I & II: none
  Standard Timings: none
  Detailed Timing Descriptors:
    DTD 1:  1920x1080  120.008913 Hz  16:9    132.010 kHz    269.300000 MHz (381 mm x 214 mm)
                 Hfront   10 Hsync  10 Hback  100 Hpol N
                 Vfront    3 Vsync   3 Vback   14 Vpol N
    DTD 2:  1920x1080   60.004456 Hz  16:9    132.010 kHz    269.300000 MHz (381 mm x 214 mm)
                 Hfront   10 Hsync  10 Hback  100 Hpol N
                 Vfront    3 Vsync   3 Vback 1114 Vpol N
    Alphanumeric Data String: 'AUO'
    Alphanumeric Data String: 'B173HAN01.1 '
Checksum: 0xfa

----------------

Warnings:

Block 0, Base EDID:
  Missing Display Product Name.

Failures:

Block 0, Base EDID:
  Alphanumeric Data String: One or more trailing spaces.

EDID conformity: FAIL
