
EDID (hex):
00ffffffffffff0015c3441801010101
27110103802c2150eae69ba3544a9926
0f585ba1000001010101010101010101
010101010101613fb0b041403a605880
3a0044b01100001c000000ff00323536
36323130370a20202020000000fd003b
3d1f6411000a202020202020000000fc
0043473231310a20202020202020004c

edid-decode (hex):

00 ff ff ff ff ff ff 00 15 c3 44 18 01 01 01 01
27 11 01 03 80 2c 21 50 ea e6 9b a3 54 4a 99 26
0f 58 5b a1 00 00 01 01 01 01 01 01 01 01 01 01
01 01 01 01 01 01 61 3f b0 b0 41 40 3a 60 58 80
3a 00 44 b0 11 00 00 1c 00 00 00 ff 00 32 35 36
36 32 31 30 37 0a 20 20 20 20 00 00 00 fd 00 3b
3d 1f 64 11 00 0a 20 20 20 20 20 20 00 00 00 fc
00 43 47 32 31 31 0a 20 20 20 20 20 20 20 00 4c

----------------

Block 0, Base EDID:
  EDID Structure Version & Revision: 1.3
  Vendor & Product Identification:
    Manufacturer: ENC
    Model: 6212
    Serial Number: 16843009
    Made in: week 39 of 2007
  Basic Display Parameters & Features:
    Digital display
    Maximum image size: 44 cm x 33 cm
    Gamma: 1.80
    DPMS levels: Standby Suspend Off
    RGB color display
    First detailed timing is the preferred timing
  Color Characteristics:
    Red  : 0.6396, 0.3300
    Green: 0.2900, 0.5996
    Blue : 0.1503, 0.0595
    White: 0.3457, 0.3583
  Established Timings I & II:
    IBM     :   720x400    70.081663 Hz   9:5     31.467 kHz     28.320000 MHz
    DMT 0x04:   640x480    59.940476 Hz   4:3     31.469 kHz     25.175000 MHz
    DMT 0x09:   800x600    60.316541 Hz   4:3     37.879 kHz     40.000000 MHz
  Standard Timings: none
  Detailed Timing Descriptors:
    DTD 1:  1200x1600   59.962541 Hz   3:4     99.418 kHz    162.250000 MHz (324 mm x 432 mm)
                 Hfront   88 Hsync 128 Hback  216 Hpol N
                 Vfront    3 Vsync  10 Vback   45 Vpol P
    Display Product Serial Number: '25662107'
    Display Range Limits:
      Monitor ranges (GTF): 59-61 Hz V, 31-100 kHz H, max dotclock 170 MHz
    Display Product Name: 'CG211'
Checksum: 0x4c
