
EDID (hex):
00ffffffffffff002194130901000000
301d0103800000780a0dc9a057479827
12484c00000001010101010101010101
010101010101c06700aca04014606420
c400c07800000018c06700aca0401460
6420c400c07800000018000000fc0057
61766553686172650a20202000000000
000000000000000000000000000001ed
02031a7147c646464646464623090701
8301000065030c001000b83538684080
107020208400803874000018b8353868
4080107020208400803874000018b835
38684080107020208400803874000018
b8353868408010702020840080387400
00180000000000000000000000000000
0000000000000000000000000000002f

Extracted contents:
header:          00 ff ff ff ff ff ff 00
serial number:   21 94 13 09 01 00 00 00 30 1d
version:         01 03
basic params:    80 00 00 78 0a
chroma info:     0d c9 a0 57 47 98 27 12 48 4c
established:     00 00 00
standard:        01 01 01 01 01 01 01 01 01 01 01 01 01 01 01 01
descriptor 1:    c0 67 00 ac a0 40 14 60 64 20 c4 00 c0 78 00 00 00 18
descriptor 2:    c0 67 00 ac a0 40 14 60 64 20 c4 00 c0 78 00 00 00 18
descriptor 3:    00 00 00 fc 00 57 61 76 65 53 68 61 72 65 0a 20 20 20
descriptor 4:    00 00 00 00 00 00 00 00 00 00 00 00 00 00 00 00 00 00
extensions:      01
checksum:        ed

EDID version: 1.3
Manufacturer: HLT Model 913 Serial Number --
Made in week 48 of 2019
Digital display
Image size is variable
Gamma: 2.20
RGB color display
First detailed timing is preferred timing
Display x,y Chromaticity:
  Red:   0.6250, 0.3398
  Green: 0.2802, 0.5947
  Blue:  0.1552, 0.0703
  White: 0.2832, 0.2978
Established timings supported:
Standard timings supported:
Detailed mode: Clock 265.600 MHz, 192 mm x 120 mm
               2560 2660 2692 2732 hborder 0
               1600 1612 1616 1620 vborder 0
               -hsync -vsync 
               VertFreq: 60 Hz, HorFreq: 97218 Hz
Detailed mode: Clock 265.600 MHz, 192 mm x 120 mm
               2560 2660 2692 2732 hborder 0
               1600 1612 1616 1620 vborder 0
               -hsync -vsync 
               VertFreq: 60 Hz, HorFreq: 97218 Hz
Monitor name: WaveShare
Manufacturer-specified data, tag 0
Has 1 extension blocks
Checksum: 0xed (valid)

CTA extension block
Extension version: 3
22 bytes of CTA data
  Video data block
    VIC 198 7680x4320@50Hz 16:9  HorFreq: 220000 Hz Clock: 2376.000 MHz
    VIC  70 1280x720@100Hz 64:27  HorFreq: 75000 Hz Clock: 148.500 MHz
    VIC  70 1280x720@100Hz 64:27  HorFreq: 75000 Hz Clock: 148.500 MHz
    VIC  70 1280x720@100Hz 64:27  HorFreq: 75000 Hz Clock: 148.500 MHz
    VIC  70 1280x720@100Hz 64:27  HorFreq: 75000 Hz Clock: 148.500 MHz
    VIC  70 1280x720@100Hz 64:27  HorFreq: 75000 Hz Clock: 148.500 MHz
    VIC  70 1280x720@100Hz 64:27  HorFreq: 75000 Hz Clock: 148.500 MHz
  Audio data block
    Linear PCM, max channels 2
      Supported sample rates (kHz): 48 44.1 32
      Supported sample sizes (bits): 16
  Speaker allocation data block
    Speaker map:
      FL/FR - Front Left/Right
  Vendor-specific data block, OUI 000c03 (HDMI)
    Source physical address 1.0.0.0
Basic audio support
Supports YCbCr 4:4:4
Supports YCbCr 4:2:2
1 native detailed modes
Detailed mode: Clock 137.520 MHz, 1920 mm x 1080 mm
               1080 1112 1144 1184 hborder 0
               1920 1928 1932 1936 vborder 0
               -hsync -vsync 
               VertFreq: 59 Hz, HorFreq: 116148 Hz
Detailed mode: Clock 137.520 MHz, 1920 mm x 1080 mm
               1080 1112 1144 1184 hborder 0
               1920 1928 1932 1936 vborder 0
               -hsync -vsync 
               VertFreq: 59 Hz, HorFreq: 116148 Hz
Detailed mode: Clock 137.520 MHz, 1920 mm x 1080 mm
               1080 1112 1144 1184 hborder 0
               1920 1928 1932 1936 vborder 0
               -hsync -vsync 
               VertFreq: 59 Hz, HorFreq: 116148 Hz
Detailed mode: Clock 137.520 MHz, 1920 mm x 1080 mm
               1080 1112 1144 1184 hborder 0
               1920 1928 1932 1936 vborder 0
               -hsync -vsync 
               VertFreq: 59 Hz, HorFreq: 116148 Hz
Checksum: 0x2f (valid)

EDID block does NOT conform to EDID 1.3!
	Required 640x480p60 timings are missing in the established timings
	and/or in the SVD list (VIC 1)
	Missing monitor ranges
