edid-decode (hex):

00 ff ff ff ff ff ff 00 26 cf dd 32 00 00 00 00
00 1d 01 04 a5 1b 12 78 0a de 50 a3 54 4c 99 26
0f 50 54 00 00 00 01 01 01 01 01 01 01 01 01 01
01 01 01 01 01 01 38 40 80 a0 70 00 25 50 18 30
3c 00 10 b6 10 00 00 19 00 00 00 fe 00 4d 31 33
30 4e 56 34 32 20 52 31 20 0a 00 00 00 03 00 03
26 a2 04 2c 5c 16 07 07 9d 00 00 00 00 00 00 03
00 19 51 ff 64 a0 f4 16 08 30 c2 01 01 00 00 62

00 ff ff ff ff ff ff 00 26 cf dd 32 00 00 00 00
00 1d 01 04 a5 1b 12 78 0a de 50 a3 54 4c 99 26
0f 50 54 00 00 00 01 01 01 01 01 01 01 01 01 01
01 01 01 01 01 01 38 40 80 a0 70 00 25 50 18 30
3c 00 10 b6 10 00 00 19 00 00 00 fe 00 4d 31 33
30 4e 56 34 32 20 52 31 20 0a 00 00 00 03 00 03
26 a2 04 2c 5c 16 07 07 9d 00 00 00 00 00 00 03
00 19 51 ff 64 a0 f4 16 08 30 c2 01 01 00 00 62

----------------

Block 0, Base EDID:
  EDID Structure Version & Revision: 1.4
  Vendor & Product Identification:
    Manufacturer: IVO
    Model: 13021
    Made in: 2019
  Basic Display Parameters & Features:
    Digital display
    Bits per primary color channel: 8
    DisplayPort interface
    Maximum image size: 27 cm x 18 cm
    Gamma: 2.20
    Supported color formats: RGB 4:4:4, YCrCb 4:4:4
    First detailed timing includes the native pixel format and preferred refresh rate
  Color Characteristics:
    Red  : 0.6396, 0.3291
    Green: 0.2998, 0.5996
    Blue : 0.1494, 0.0595
    White: 0.3125, 0.3281
  Established Timings I & II: none
  Standard Timings: none
  Detailed Timing Descriptors:
    DTD 1:  1920x1280   60.014018 Hz   3:2     79.038 kHz    164.400000 MHz (272 mm x 182 mm)
                 Hfront   24 Hsync  48 Hback   88 Hpol N
                 Vfront    3 Vsync  12 Vback   22 Vpol N
    Alphanumeric Data String: 'M130NV42 R1 '
    Manufacturer-Specified Display Descriptor (0x03): 00 03 00 03 26 a2 04 2c 5c 16 07 07 9d 00 00 00 '....&..,\.......'
    Manufacturer-Specified Display Descriptor (0x03): 00 03 00 19 51 ff 64 a0 f4 16 08 30 c2 01 01 00 '....Q.d....0....'
Checksum: 0x62

----------------

Block 1, Unknown EDID Extension Block 0x00:
  00 ff ff ff ff ff ff 00 26 cf dd 32 00 00 00 00 '........&..2....'
  00 1d 01 04 a5 1b 12 78 0a de 50 a3 54 4c 99 26 '.......x..P.TL.&'
  0f 50 54 00 00 00 01 01 01 01 01 01 01 01 01 01 '.PT.............'
  01 01 01 01 01 01 38 40 80 a0 70 00 25 50 18 30 '......8@..p.%P.0'
  3c 00 10 b6 10 00 00 19 00 00 00 fe 00 4d 31 33 '<............M13'
  30 4e 56 34 32 20 52 31 20 0a 00 00 00 03 00 03 '0NV42 R1 .......'
  26 a2 04 2c 5c 16 07 07 9d 00 00 00 00 00 00 03 '&..,\...........'
  00 19 51 ff 64 a0 f4 16 08 30 c2 01 01 00 00 62 '..Q.d....0.....b'
Checksum: 0x62

----------------

Warnings:

Block 0, Base EDID:
  Missing Display Product Name.

Failures:

Block 0, Base EDID:
  Alphanumeric Data String: One or more trailing spaces.
Block 1, Base EDID:
  Unknown Extension Block.
EDID:
  Base EDID: EDID specified 0 extension block(s), but found 1 extension block(s).

EDID conformity: FAIL
