
EDID (hex):
00ffffffffffff004249320001000000
01140103814627780ade58a3544c9926
0f4547afce0001010101010101010101
010101100101662150b051001b300070
2644c48e2100001ed60980a020e02d10
08602200128e21080818000000fc0042
4259204c43442054560a2020000000fd
00304c0f440f000a202020202020018d
02032073488504030201060710260907
071107508301000067030c002000b828
011d007251d01e206e285500c48e2100
001e8c0ad08a20e02d10103e9600138e
21000018011d8018711c1620582c2500
c48e2100009e00000000000000000000
00000000000000000000000000000000
0000000000000000000000000000004c

Extracted contents:
header:          00 ff ff ff ff ff ff 00
serial number:   42 49 32 00 01 00 00 00 01 14
version:         01 03
basic params:    81 46 27 78 0a
chroma info:     de 58 a3 54 4c 99 26 0f 45 47
established:     af ce 00
standard:        01 01 01 01 01 01 01 01 01 01 01 01 01 10 01 01
descriptor 1:    66 21 50 b0 51 00 1b 30 00 70 26 44 c4 8e 21 00 00 1e
descriptor 2:    d6 09 80 a0 20 e0 2d 10 08 60 22 00 12 8e 21 08 08 18
descriptor 3:    00 00 00 fc 00 42 42 59 20 4c 43 44 20 54 56 0a 20 20
descriptor 4:    00 00 00 fd 00 30 4c 0f 44 0f 00 0a 20 20 20 20 20 20
extensions:      01
checksum:        8d

EDID version: 1.3
Manufacturer: PRI Model 32 Serial Number --
Made in week 1 of 2010
Digital display
DFP 1.x compatible TMDS
Maximum image size: 70 cm x 39 cm
Gamma: 2.20
RGB color display
First detailed timing is preferred timing
Display x,y Chromaticity:
  Red:   0.6396, 0.3291
  Green: 0.2998, 0.5996
  Blue:  0.1494, 0.0595
  White: 0.2714, 0.2773
Established timings supported:
  720x400@70Hz 9:5 HorFreq: 31469 Hz Clock: 28.320 MHz
  640x480@60Hz 4:3 HorFreq: 31469 Hz Clock: 25.175 MHz
  640x480@72Hz 4:3 HorFreq: 37900 Hz Clock: 31.500 MHz
  640x480@75Hz 4:3 HorFreq: 37500 Hz Clock: 31.500 MHz
  800x600@56Hz 4:3 HorFreq: 35200 Hz Clock: 36.000 MHz
  800x600@60Hz 4:3 HorFreq: 37900 Hz Clock: 40.000 MHz
  800x600@72Hz 4:3 HorFreq: 48100 Hz Clock: 50.000 MHz
  800x600@75Hz 4:3 HorFreq: 46900 Hz Clock: 49.500 MHz
  1024x768@60Hz 4:3 HorFreq: 48400 Hz Clock: 65.000 MHz
  1024x768@70Hz 4:3 HorFreq: 56500 Hz Clock: 75.000 MHz
  1024x768@75Hz 4:3 HorFreq: 60000 Hz Clock: 78.750 MHz
Standard timings supported:
  256x160@76Hz 16:10
Detailed mode: Clock 85.500 MHz, 708 mm x 398 mm
               1360 1616 1728 1792 hborder 0
                768  786  792  795 vborder 0
               +hsync +vsync 
               VertFreq: 60 Hz, HorFreq: 47712 Hz
Detailed mode: Clock 25.180 MHz, 530 mm x 398 mm
                640  648  744  800 hborder 8
                480  482  484  525 vborder 8
               -hsync -vsync 
               VertFreq: 59 Hz, HorFreq: 31475 Hz
Monitor name: BBY LCD TV
Monitor ranges (GTF): 48-76Hz V, 15-68kHz H, max dotclock 150MHz
Has 1 extension blocks
Checksum: 0x8d (valid)

CTA extension block
Extension version: 3
28 bytes of CTA data
  Video data block
    VIC   5 1920x1080i@60Hz 16:9 (native) HorFreq: 33750 Hz Clock: 74.250 MHz
    VIC   4 1280x720@60Hz 16:9  HorFreq: 45000 Hz Clock: 74.250 MHz
    VIC   3 720x480@60Hz 16:9  HorFreq: 31469 Hz Clock: 27.000 MHz
    VIC   2 720x480@60Hz 4:3  HorFreq: 31469 Hz Clock: 27.000 MHz
    VIC   1 640x480@60Hz 4:3  HorFreq: 31469 Hz Clock: 25.175 MHz
    VIC   6 1440x480i@60Hz 4:3  HorFreq: 15734 Hz Clock: 27.000 MHz
    VIC   7 1440x480i@60Hz 16:9  HorFreq: 15734 Hz Clock: 27.000 MHz
    VIC  16 1920x1080@60Hz 16:9  HorFreq: 67500 Hz Clock: 148.500 MHz
  Audio data block
    Linear PCM, max channels 2
      Supported sample rates (kHz): 48 44.1 32
      Supported sample sizes (bits): 24 20 16
    AC-3, max channels 2
      Supported sample rates (kHz): 48 44.1 32
      Maximum bit rate: 640 kHz
  Speaker allocation data block
    Speaker map:
      FL/FR - Front Left/Right
  Vendor-specific data block, OUI 000c03 (HDMI)
    Source physical address 2.0.0.0
    Supports_AI
    DC_36bit
    DC_30bit
    DC_Y444
    Maximum TMDS clock: 200MHz
Basic audio support
Supports YCbCr 4:4:4
Supports YCbCr 4:2:2
3 native detailed modes
Detailed mode: Clock 74.250 MHz, 708 mm x 398 mm
               1280 1390 1430 1650 hborder 0
                720  725  730  750 vborder 0
               +hsync +vsync 
               VertFreq: 60 Hz, HorFreq: 45000 Hz
Detailed mode: Clock 27.000 MHz, 531 mm x 398 mm
                720  736  798  858 hborder 0
                480  489  495  525 vborder 0
               -hsync -vsync 
               VertFreq: 59 Hz, HorFreq: 31468 Hz
Detailed mode: Clock 74.250 MHz, 708 mm x 398 mm
               1920 2008 2052 2200 hborder 0
                540  542  547  562 vborder 0
               +hsync +vsync interlaced 
               VertFreq: 60 Hz, HorFreq: 33750 Hz
Checksum: 0x4c (valid)
