
EDID (hex):
00ffffffffffff0004720604ffffffff
ff170104a53c227806ee91a3544c9926
0f505400000001010101010101010101
010101010101023a801871382d40582c
450056502100001e000000ff00234153
4e515275526f784d5064000000fd001e
961ea021010a202020202020000000fc
004163657220584232373048204101ed
02030a01654b040001018a4d80a07038
2c403020350056502100001afe5b80a0
703835403020350056502100001a866f
80a0703840403020350056502100001a
fc7e8088703812401820350056502100
001e0000000000000000000000000000
00000000000000000000000000000000
0000000000000000000000000000005c

Extracted contents:
header:          00 ff ff ff ff ff ff 00
serial number:   04 72 06 04 ff ff ff ff ff 17
version:         01 04
basic params:    a5 3c 22 78 06
chroma info:     ee 91 a3 54 4c 99 26 0f 50 54
established:     00 00 00
standard:        01 01 01 01 01 01 01 01 01 01 01 01 01 01 01 01
descriptor 1:    02 3a 80 18 71 38 2d 40 58 2c 45 00 56 50 21 00 00 1e
descriptor 2:    00 00 00 ff 00 23 41 53 4e 51 52 75 52 6f 78 4d 50 64
descriptor 3:    00 00 00 fd 00 1e 96 1e a0 21 01 0a 20 20 20 20 20 20
descriptor 4:    00 00 00 fc 00 41 63 65 72 20 58 42 32 37 30 48 20 41
extensions:      01
checksum:        ed

EDID version: 1.4
Manufacturer: ACR Model 406 Serial Number --
Model year 2013
Digital display
8 bits per primary color channel
DisplayPort interface
Maximum image size: 60 cm x 34 cm
Gamma: 2.20
Supported color formats: RGB 4:4:4
Default (sRGB) color space is primary color space
First detailed timing includes the native pixel format and preferred refresh rate
Display x,y Chromaticity:
  Red:   0.6396, 0.3300
  Green: 0.2998, 0.5996
  Blue:  0.1503, 0.0595
  White: 0.3125, 0.3291
Established timings supported:
Standard timings supported:
Detailed mode: Clock 148.500 MHz, 598 mm x 336 mm
               1920 2008 2052 2200 hborder 0
               1080 1084 1089 1125 vborder 0
               +hsync +vsync 
               VertFreq: 60 Hz, HorFreq: 67500 Hz
Serial number: --
Monitor ranges (bare limits): 30-150Hz V, 30-160kHz H, max dotclock 330MHz
Has 1 extension blocks
Checksum: 0xed (valid)

CTA extension block
Extension version: 3
6 bytes of CTA data
  Vendor-specific data block, OUI 00044b
1 native detailed modes
Detailed mode: Clock 198.500 MHz, 598 mm x 336 mm
               1920 1968 2000 2080 hborder 0
               1080 1083 1088 1124 vborder 0
               +hsync -vsync 
               VertFreq: 84 Hz, HorFreq: 95432 Hz
Detailed mode: Clock 235.500 MHz, 598 mm x 336 mm
               1920 1968 2000 2080 hborder 0
               1080 1083 1088 1133 vborder 0
               +hsync -vsync 
               VertFreq: 99 Hz, HorFreq: 113221 Hz
Detailed mode: Clock 285.500 MHz, 598 mm x 336 mm
               1920 1968 2000 2080 hborder 0
               1080 1083 1088 1144 vborder 0
               +hsync -vsync 
               VertFreq: 119 Hz, HorFreq: 137259 Hz
Detailed mode: Clock 325.080 MHz, 598 mm x 336 mm
               1920 1944 1976 2056 hborder 0
               1080 1083 1088 1098 vborder 0
               +hsync +vsync 
               VertFreq: 144 Hz, HorFreq: 158112 Hz
Checksum: 0x5c (valid)

EDID block does NOT conform to EDID 1.4!
	Required 640x480p60 timings are missing in the established timings
	and/or in the SVD list (VIC 1)
	Name descriptor not terminated with a newline
EDID block does not conform at all!
	Both the serial number and the serial string are set
