
EDID (hex):
00ffffffffffff0035f4c43d01000000
20140103801a0e780afe75925b569127
1f505400000001010101010101010101
010101010101201c5686500020300e38
130000901000001e000000ff00303030
3030310a0a0a0a0a0a0a000000fd0032
4b1e550f000a202020202020000000fc
004d6f746f4174746163680a20200102

Extracted contents:
header:          00 ff ff ff ff ff ff 00
serial number:   35 f4 c4 3d 01 00 00 00 20 14
version:         01 03
basic params:    80 1a 0e 78 0a
chroma info:     fe 75 92 5b 56 91 27 1f 50 54
established:     00 00 00
standard:        01 01 01 01 01 01 01 01 01 01 01 01 01 01 01 01
descriptor 1:    20 1c 56 86 50 00 20 30 0e 38 13 00 00 90 10 00 00 1e
descriptor 2:    00 00 00 ff 00 30 30 30 30 30 31 0a 0a 0a 0a 0a 0a 0a
descriptor 3:    00 00 00 fd 00 32 4b 1e 55 0f 00 0a 20 20 20 20 20 20
descriptor 4:    00 00 00 fc 00 4d 6f 74 6f 41 74 74 61 63 68 0a 20 20
extensions:      01
checksum:        02

EDID version: 1.3
Manufacturer: MOT Model 3dc4 Serial Number --
Made in week 32 of 2010
Digital display
Maximum image size: 26 cm x 14 cm
Gamma: 2.20
RGB color display
First detailed timing is preferred timing
Display x,y Chromaticity:
  Red:   0.5732, 0.3583
  Green: 0.3388, 0.5683
  Blue:  0.1533, 0.1240
  White: 0.3134, 0.3291
Established timings supported:
Standard timings supported:
Detailed mode: Clock 72.000 MHz, 256 mm x 144 mm
               1366 1380 1436 1500 hborder 0
                768  769  772  800 vborder 0
               +hsync +vsync 
               VertFreq: 60 Hz, HorFreq: 48000 Hz
Serial number: --
Monitor ranges (GTF): 50-75Hz V, 30-85kHz H, max dotclock 150MHz
Monitor name: MotoAttach
Has 1 extension blocks
Checksum: 0x2 (valid)
EDID block does NOT conform to EDID 1.3!
	Detailed block string not properly terminated
