
EDID (hex):
00ffffffffffff000dae381500000000
2b1e0104952213780328659759548e27
1e505400000001010101010101010101
010101010101363680a0703820403020
350058c11000001a242480a070382040
3020350058c11000001a000000000000
00000000000000000000000000000002
000c3dff0d3c7d1212267d00000000a8

Extracted contents:
header:          00 ff ff ff ff ff ff 00
serial number:   0d ae 38 15 00 00 00 00 2b 1e
version:         01 04
basic params:    95 22 13 78 03
chroma info:     28 65 97 59 54 8e 27 1e 50 54
established:     00 00 00
standard:        01 01 01 01 01 01 01 01 01 01 01 01 01 01 01 01
descriptor 1:    36 36 80 a0 70 38 20 40 30 20 35 00 58 c1 10 00 00 1a
descriptor 2:    24 24 80 a0 70 38 20 40 30 20 35 00 58 c1 10 00 00 1a
descriptor 3:    00 00 00 00 00 00 00 00 00 00 00 00 00 00 00 00 00 00
descriptor 4:    00 00 00 02 00 0c 3d ff 0d 3c 7d 12 12 26 7d 00 00 00
extensions:      00
checksum:        a8

EDID version: 1.4
Manufacturer: CMN Model 1538 Serial Number --
Made in week 43 of 2020
Digital display
6 bits per primary color channel
DisplayPort interface
Maximum image size: 34 cm x 19 cm
Gamma: 2.20
Supported color formats: RGB 4:4:4
First detailed timing includes the native pixel format and preferred refresh rate
Display is continuous frequency
Display x,y Chromaticity:
  Red:   0.5898, 0.3496
  Green: 0.3300, 0.5546
  Blue:  0.1533, 0.1191
  White: 0.3134, 0.3291
Established timings supported:
Standard timings supported:
Detailed mode: Clock 138.780 MHz, 344 mm x 193 mm
               1920 1968 2000 2080 hborder 0
               1080 1083 1088 1112 vborder 0
               +hsync -vsync 
               VertFreq: 60 Hz, HorFreq: 66721 Hz
Detailed mode: Clock 92.520 MHz, 344 mm x 193 mm
               1920 1968 2000 2080 hborder 0
               1080 1083 1088 1112 vborder 0
               +hsync -vsync 
               VertFreq: 40 Hz, HorFreq: 44480 Hz
Manufacturer-specified data, tag 0
Manufacturer-specified data, tag 2
Checksum: 0xa8 (valid)
EDID block does NOT conform to EDID 1.4!
	Missing name descriptor
	Missing monitor ranges
