
EDID (hex):
00ffffffffffff0022f04f2801010101
0e14010368291778ea75a59c54519627
185054adee0081c00101010101010101
010101010101662156aa51001e30468f
33009ae61000001e000000fd00324c1e
4009000a202020202020000000fc0043
6f6d7061712057313835710a000000ff
00434e54303134563147330a20200052

Extracted contents:
header:          00 ff ff ff ff ff ff 00
serial number:   22 f0 4f 28 01 01 01 01 0e 14
version:         01 03
basic params:    68 29 17 78 ea
chroma info:     75 a5 9c 54 51 96 27 18 50 54
established:     ad ee 00
standard:        81 c0 01 01 01 01 01 01 01 01 01 01 01 01 01 01
descriptor 1:    66 21 56 aa 51 00 1e 30 46 8f 33 00 9a e6 10 00 00 1e
descriptor 2:    00 00 00 fd 00 32 4c 1e 40 09 00 0a 20 20 20 20 20 20
descriptor 3:    00 00 00 fc 00 43 6f 6d 70 61 71 20 57 31 38 35 71 0a
descriptor 4:    00 00 00 ff 00 43 4e 54 30 31 34 56 31 47 33 0a 20 20
extensions:      00
checksum:        52

EDID version: 1.3
Manufacturer: HWP Model 284f Serial Number --
Made in week 14 of 2010
Analog display, Input voltage level: 0.7/0.7 V
Sync: Separate 
Maximum image size: 41 cm x 23 cm
Gamma: 2.20
DPMS levels: Standby Suspend Off
RGB color display
First detailed timing is preferred timing
Display x,y Chromaticity:
  Red:   0.6103, 0.3310
  Green: 0.3173, 0.5869
  Blue:  0.1542, 0.0957
  White: 0.3134, 0.3291
Established timings supported:
  720x400@70Hz 9:5 HorFreq: 31469 Hz Clock: 28.320 MHz
  640x480@60Hz 4:3 HorFreq: 31469 Hz Clock: 25.175 MHz
  640x480@72Hz 4:3 HorFreq: 37900 Hz Clock: 31.500 MHz
  640x480@75Hz 4:3 HorFreq: 37500 Hz Clock: 31.500 MHz
  800x600@60Hz 4:3 HorFreq: 37900 Hz Clock: 40.000 MHz
  800x600@72Hz 4:3 HorFreq: 48100 Hz Clock: 50.000 MHz
  800x600@75Hz 4:3 HorFreq: 46900 Hz Clock: 49.500 MHz
  832x624@75Hz 4:3 HorFreq: 49726 Hz Clock: 57.284 MHz
  1024x768@60Hz 4:3 HorFreq: 48400 Hz Clock: 65.000 MHz
  1024x768@70Hz 4:3 HorFreq: 56500 Hz Clock: 75.000 MHz
  1024x768@75Hz 4:3 HorFreq: 60000 Hz Clock: 78.750 MHz
Standard timings supported:
  1280x720@60Hz 16:9
Detailed mode: Clock 85.500 MHz, 410 mm x 230 mm
               1366 1436 1579 1792 hborder 0
                768  771  774  798 vborder 0
               +hsync +vsync 
               VertFreq: 59 Hz, HorFreq: 47712 Hz
Monitor ranges (GTF): 50-76Hz V, 30-64kHz H, max dotclock 90MHz
Monitor name: Compaq W185q
Serial number: --
Checksum: 0x52 (valid)
