
EDID (hex):
00ffffffffffff0041d0010800000000
01140103080000ff0a00000000000000
000000bfef80a94081808140714f6159
45593159311964190040410026301888
3600000000000018000000fd003c551e
4112000a202020202020000000fc004c
616e74726f6e697820534c5300000010
00002a4030701300520e1100001e0069

Extracted contents:
header:          00 ff ff ff ff ff ff 00
serial number:   41 d0 01 08 00 00 00 00 01 14
version:         01 03
basic params:    08 00 00 ff 0a
chroma info:     00 00 00 00 00 00 00 00 00 00
established:     bf ef 80
standard:        a9 40 81 80 81 40 71 4f 61 59 45 59 31 59 31 19
descriptor 1:    64 19 00 40 41 00 26 30 18 88 36 00 00 00 00 00 00 18
descriptor 2:    00 00 00 fd 00 3c 55 1e 41 12 00 0a 20 20 20 20 20 20
descriptor 3:    00 00 00 fc 00 4c 61 6e 74 72 6f 6e 69 78 20 53 4c 53
descriptor 4:    00 00 00 10 00 00 2a 40 30 70 13 00 52 0e 11 00 00 1e
extensions:      00
checksum:        69

EDID version: 1.3
Manufacturer: PNP Model 801 Serial Number --
Made in week 1 of 2010
Analog display, Input voltage level: 0.7/0.3 V
Sync: Separate 
Image size is variable
Gamma: 1.0
RGB color display
First detailed timing is preferred timing
Display x,y Chromaticity:
  Red:   0.0000, 0.0000
  Green: 0.0000, 0.0000
  Blue:  0.0000, 0.0000
  White: 0.0000, 0.0000
Established timings supported:
  720x400@70Hz 9:5 HorFreq: 31469 Hz Clock: 28.320 MHz
  640x480@60Hz 4:3 HorFreq: 31469 Hz Clock: 25.175 MHz
  640x480@67Hz 4:3 HorFreq: 35000 Hz Clock: 30.240 MHz
  640x480@72Hz 4:3 HorFreq: 37900 Hz Clock: 31.500 MHz
  640x480@75Hz 4:3 HorFreq: 37500 Hz Clock: 31.500 MHz
  800x600@56Hz 4:3 HorFreq: 35200 Hz Clock: 36.000 MHz
  800x600@60Hz 4:3 HorFreq: 37900 Hz Clock: 40.000 MHz
  800x600@72Hz 4:3 HorFreq: 48100 Hz Clock: 50.000 MHz
  800x600@75Hz 4:3 HorFreq: 46900 Hz Clock: 49.500 MHz
  832x624@75Hz 4:3 HorFreq: 49726 Hz Clock: 57.284 MHz
  1024x768@60Hz 4:3 HorFreq: 48400 Hz Clock: 65.000 MHz
  1024x768@70Hz 4:3 HorFreq: 56500 Hz Clock: 75.000 MHz
  1024x768@75Hz 4:3 HorFreq: 60000 Hz Clock: 78.750 MHz
  1280x1024@75Hz 5:4 HorFreq: 80000 Hz Clock: 135.000 MHz
  1152x870@75Hz 192:145 HorFreq: 67500 Hz Clock: 108.000 MHz
Standard timings supported:
  1600x1200@60Hz 4:3 HorFreq: 75000 Hz Clock: 162.000 MHz
  1280x1024@60Hz 5:4 HorFreq: 64000 Hz Clock: 108.000 MHz
  1280x960@60Hz 4:3 HorFreq: 60000 Hz Clock: 108.000 MHz
  1152x864@75Hz 4:3 HorFreq: 67500 Hz Clock: 108.000 MHz
  1024x768@85Hz 4:3 HorFreq: 68700 Hz Clock: 94.500 MHz
  800x600@85Hz 4:3 HorFreq: 53700 Hz Clock: 56.250 MHz
  640x480@85Hz 4:3 HorFreq: 43300 Hz Clock: 36.000 MHz
  640x400@85Hz 16:10 HorFreq: 37900 Hz Clock: 31.500 MHz
Detailed mode: Clock 65.000 MHz, 0 mm x 0 mm
               1024 1048 1184 1344 hborder 0
                768  771  777  806 vborder 0
               -hsync -vsync 
               VertFreq: 60 Hz, HorFreq: 48363 Hz
Monitor ranges (GTF): 60-85Hz V, 30-65kHz H, max dotclock 180MHz
Dummy block
Checksum: 0x69 (valid)
EDID block does NOT conform to EDID 1.3!
	Name descriptor not terminated with a newline
One or more of the timings is out of range of the Monitor Ranges:
  Vertical Freq: 56 - 85 Hz
  Horizontal Freq: 31469 - 80000 Hz
  Maximum Clock: 162.000 MHz
EDID block does not conform at all!
	Dummy block filled with garbage
