
EDID (hex):
00ffffffffffff00412fbe0000000000
00110103806e3e782ad7b3ae51509423
0c4a4721080081800101010101010101
010101010101023a801871382d40582c
45004e6c4200001e011d8018711c1620
582c25004e6c4200009e000000fd0017
3d0f450f000a202020202020000000fc
0050494f4e4545522d5044502e0a0131
020326f1490590030402070620012309
0707830100006c030c002000b82dc011
112222e200798c0ad08a20e02d10103e
96004e6c42000018011d007251d01e20
6e2855004e6c4200001e8c0aa01451f0
1600267c43004e6c4200009800000000
00000000000000000000000000000000
000000000000000000000000000000dd

Extracted contents:
header:          00 ff ff ff ff ff ff 00
serial number:   41 2f be 00 00 00 00 00 00 11
version:         01 03
basic params:    80 6e 3e 78 2a
chroma info:     d7 b3 ae 51 50 94 23 0c 4a 47
established:     21 08 00
standard:        81 80 01 01 01 01 01 01 01 01 01 01 01 01 01 01
descriptor 1:    02 3a 80 18 71 38 2d 40 58 2c 45 00 4e 6c 42 00 00 1e
descriptor 2:    01 1d 80 18 71 1c 16 20 58 2c 25 00 4e 6c 42 00 00 9e
descriptor 3:    00 00 00 fd 00 17 3d 0f 45 0f 00 0a 20 20 20 20 20 20
descriptor 4:    00 00 00 fc 00 50 49 4f 4e 45 45 52 2d 50 44 50 2e 0a
extensions:      01
checksum:        31

EDID version: 1.3
Manufacturer: PIO Model be Serial Number --
Made in year 2007
Digital display
Maximum image size: 110 cm x 62 cm
Gamma: 2.20
DPMS levels: Off
RGB color display
First detailed timing is preferred timing
Display x,y Chromaticity:
  Red:   0.6826, 0.3173
  Green: 0.3134, 0.5810
  Blue:  0.1386, 0.0498
  White: 0.2890, 0.2802
Established timings supported:
  640x480@60Hz 4:3 HorFreq: 31469 Hz Clock: 25.175 MHz
  800x600@60Hz 4:3 HorFreq: 37900 Hz Clock: 40.000 MHz
  1024x768@60Hz 4:3 HorFreq: 48400 Hz Clock: 65.000 MHz
Standard timings supported:
  1280x1024@60Hz 5:4 HorFreq: 64000 Hz Clock: 108.000 MHz
Detailed mode: Clock 148.500 MHz, 1102 mm x 620 mm
               1920 2008 2052 2200 hborder 0
               1080 1084 1089 1125 vborder 0
               +hsync +vsync 
               VertFreq: 60 Hz, HorFreq: 67500 Hz
Detailed mode: Clock 74.250 MHz, 1102 mm x 620 mm
               1920 2008 2052 2200 hborder 0
                540  542  547  562 vborder 0
               +hsync +vsync interlaced 
               VertFreq: 60 Hz, HorFreq: 33750 Hz
Monitor ranges (GTF): 23-61Hz V, 15-69kHz H, max dotclock 150MHz
Monitor name: PIONEER-PDP.
Has 1 extension blocks
Checksum: 0x31 (valid)

CTA extension block
Extension version: 3
34 bytes of CTA data
  Video data block
    VIC   5 1920x1080i@60Hz 16:9  HorFreq: 33750 Hz Clock: 74.250 MHz
    VIC  16 1920x1080@60Hz 16:9 (native) HorFreq: 67500 Hz Clock: 148.500 MHz
    VIC   3 720x480@60Hz 16:9  HorFreq: 31469 Hz Clock: 27.000 MHz
    VIC   4 1280x720@60Hz 16:9  HorFreq: 45000 Hz Clock: 74.250 MHz
    VIC   2 720x480@60Hz 4:3  HorFreq: 31469 Hz Clock: 27.000 MHz
    VIC   7 1440x480i@60Hz 16:9  HorFreq: 15734 Hz Clock: 27.000 MHz
    VIC   6 1440x480i@60Hz 4:3  HorFreq: 15734 Hz Clock: 27.000 MHz
    VIC  32 1920x1080@24Hz 16:9  HorFreq: 27000 Hz Clock: 74.250 MHz
    VIC   1 640x480@60Hz 4:3  HorFreq: 31469 Hz Clock: 25.175 MHz
  Audio data block
    Linear PCM, max channels 2
      Supported sample rates (kHz): 48 44.1 32
      Supported sample sizes (bits): 24 20 16
  Speaker allocation data block
    Speaker map:
      FL/FR - Front Left/Right
  Vendor-specific data block, OUI 000c03 (HDMI)
    Source physical address 2.0.0.0
    Supports_AI
    DC_36bit
    DC_30bit
    DC_Y444
    Maximum TMDS clock: 225MHz
    Video latency: 17
    Audio latency: 17
    Interlaced video latency: 34
    Interlaced audio latency: 34
  Extended tag: Video capability data block
    YCbCr quantization: No Data (0)
    RGB quantization: Selectable (via AVI Q) (1)
    PT scan behaviour: Support both over- and underscan (3)
    IT scan behaviour: Always Underscanned (2)
    CE scan behaviour: Always Overscannned (1)
Underscans PC formats by default
Basic audio support
Supports YCbCr 4:4:4
Supports YCbCr 4:2:2
1 native detailed modes
Detailed mode: Clock 27.000 MHz, 1102 mm x 620 mm
                720  736  798  858 hborder 0
                480  489  495  525 vborder 0
               -hsync -vsync 
               VertFreq: 59 Hz, HorFreq: 31468 Hz
Detailed mode: Clock 74.250 MHz, 1102 mm x 620 mm
               1280 1390 1430 1650 hborder 0
                720  725  730  750 vborder 0
               +hsync +vsync 
               VertFreq: 60 Hz, HorFreq: 45000 Hz
Detailed mode: Clock 27.000 MHz, 1102 mm x 620 mm
               1440 1478 1602 1716 hborder 0
                240  244  247  262 vborder 0
               -hsync -vsync interlaced 
               VertFreq: 60 Hz, HorFreq: 15734 Hz
Checksum: 0xdd (valid)
