
EDID (hex):
00ffffffffffff00320c791200000000
000f0102802115780abca59554528c27
23505400000001010101010101010101
010101010101a82f90e0601a10402040
13004bcf100000190000000000000000
00000000000000000000000000fe004c
475068696c6970734c43440a000000fe
004c503135345730322d42314b3500b2

Extracted contents:
header:          00 ff ff ff ff ff ff 00
serial number:   32 0c 79 12 00 00 00 00 00 0f
version:         01 02
basic params:    80 21 15 78 0a
chroma info:     bc a5 95 54 52 8c 27 23 50 54
established:     00 00 00
standard:        01 01 01 01 01 01 01 01 01 01 01 01 01 01 01 01
descriptor 1:    a8 2f 90 e0 60 1a 10 40 20 40 13 00 4b cf 10 00 00 19
descriptor 2:    00 00 00 00 00 00 00 00 00 00 00 00 00 00 00 00 00 00
descriptor 3:    00 00 00 fe 00 4c 47 50 68 69 6c 69 70 73 4c 43 44 0a
descriptor 4:    00 00 00 fe 00 4c 50 31 35 34 57 30 32 2d 42 31 4b 35
extensions:      00
checksum:        b2

EDID version: 1.2
Manufacturer: LPL Model 1279 Serial Number --
Digital display
Maximum image size: 33 cm x 21 cm
Gamma: 2.20
RGB color display
First detailed timing is preferred timing
Display x,y Chromaticity:
  Red:   0.5839, 0.3310
  Green: 0.3232, 0.5468
  Blue:  0.1542, 0.1386
  White: 0.3134, 0.3291
Established timings supported:
Standard timings supported:
Detailed mode: Clock 122.000 MHz, 331 mm x 207 mm
               1680 1712 1776 1904 hborder 0
               1050 1051 1054 1066 vborder 0
               -hsync -vsync 
               VertFreq: 60 Hz, HorFreq: 64075 Hz
Manufacturer-specified data, tag 0
ASCII string: LGPhilipsLCD
ASCII string: LP154W02-B1K5
Checksum: 0xb2 (valid)
EDID block does not conform at all!
	Bad year of manufacture
