
EDID (hex):
00ffffffffffff009636811000000000
0114010380301b78ea20e59255549228
25505400000001010101010101010101
010101010101023a801871382d40582c
4500dd0c1100001e0000001000006430
30203600159c1000001800000010008c
09328c092814090006af563000000010
00d01e204e285300dd0c1100001801dc
02031641411023090407830100006703
0c001000003c023a801871382d40582c
45006d552100001e0000000000000000
00000000000000000000000000000000
00000000000000000000000000000000
00000000000000000000000000000000
00000000000000000000000000000000
00000000000000000000000000000022

Extracted contents:
header:          00 ff ff ff ff ff ff 00
serial number:   96 36 81 10 00 00 00 00 01 14
version:         01 03
basic params:    80 30 1b 78 ea
chroma info:     20 e5 92 55 54 92 28 25 50 54
established:     00 00 00
standard:        01 01 01 01 01 01 01 01 01 01 01 01 01 01 01 01
descriptor 1:    02 3a 80 18 71 38 2d 40 58 2c 45 00 dd 0c 11 00 00 1e
descriptor 2:    00 00 00 10 00 00 64 30 30 20 36 00 15 9c 10 00 00 18
descriptor 3:    00 00 00 10 00 8c 09 32 8c 09 28 14 09 00 06 af 56 30
descriptor 4:    00 00 00 10 00 d0 1e 20 4e 28 53 00 dd 0c 11 00 00 18
extensions:      01
checksum:        dc

EDID version: 1.3
Manufacturer: EQV Model 1081 Serial Number --
Made in week 1 of 2010
Digital display
Maximum image size: 48 cm x 27 cm
Gamma: 2.20
DPMS levels: Standby Suspend Off
RGB color display
First detailed timing is preferred timing
Display x,y Chromaticity:
  Red:   0.5703, 0.3339
  Green: 0.3281, 0.5703
  Blue:  0.1591, 0.1464
  White: 0.3134, 0.3291
Established timings supported:
Standard timings supported:
Detailed mode: Clock 148.500 MHz, 477 mm x 268 mm
               1920 2008 2052 2200 hborder 0
               1080 1084 1089 1125 vborder 0
               +hsync +vsync 
               VertFreq: 60 Hz, HorFreq: 67500 Hz
Dummy block
Dummy block
Dummy block
Has 1 extension blocks
Checksum: 0xdc (valid)

CTA extension block
Extension version: 3
18 bytes of CTA data
  Video data block
    VIC  16 1920x1080@60Hz 16:9  HorFreq: 67500 Hz Clock: 148.500 MHz
  Audio data block
    Linear PCM, max channels 2
      Supported sample rates (kHz): 48
      Supported sample sizes (bits): 24 20 16
  Speaker allocation data block
    Speaker map:
      FL/FR - Front Left/Right
  Vendor-specific data block, OUI 000c03 (HDMI)
    Source physical address 1.0.0.0
    Maximum TMDS clock: 300MHz
Basic audio support
1 native detailed modes
Detailed mode: Clock 148.500 MHz, 621 mm x 341 mm
               1920 2008 2052 2200 hborder 0
               1080 1084 1089 1125 vborder 0
               +hsync +vsync 
               VertFreq: 60 Hz, HorFreq: 67500 Hz
Checksum: 0x22 (valid)

EDID block does NOT conform to EDID 1.3!
	Required 640x480p60 timings are missing in the established timings
	and/or in the SVD list (VIC 1)
	Missing name descriptor
	Missing monitor ranges
EDID block does not conform at all!
	Dummy block filled with garbage


