edid-decode (hex):

00 ff ff ff ff ff ff 00 22 f0 09 41 a1 86 01 00
1e 14 01 04 81 33 1d 78 ef de 51 a3 54 4c 99 26
0f 50 54 00 00 00 01 01 01 01 01 01 01 01 01 01
01 01 01 01 01 01 7c 2e 40 00 62 84 22 30 58 a8
35 00 bb f9 10 00 00 18 00 00 00 fd 00 32 55 0a
6e 10 01 0a 20 20 20 20 20 20 00 00 00 fc 00 48
50 20 41 49 4f 0a 20 20 20 20 20 20 00 00 00 ff
00 4c 54 4d 32 30 30 4b 54 0a 20 20 20 20 00 17

----------------

Block 0, Base EDID:
  EDID Structure Version & Revision: 1.4
  Vendor & Product Identification:
    Manufacturer: HWP
    Model: 16649
    Serial Number: ...
    Made in: week 30 of 2010
  Basic Display Parameters & Features:
    Digital display
    Color depth is undefined
    DVI interface
    Maximum image size: 51 cm x 29 cm
    Gamma: 2.20
    DPMS levels: Standby Suspend Off
    Supported color formats: RGB 4:4:4, YCrCb 4:4:4
    Default (sRGB) color space is primary color space
    First detailed timing includes the native pixel format and preferred refresh rate
    Display is continuous frequency
  Color Characteristics:
    Red  : 0.6396, 0.3291
    Green: 0.2998, 0.5996
    Blue : 0.1494, 0.0595
    White: 0.3125, 0.3291
  Established Timings I & II: none
  Standard Timings: none
  Detailed Timing Descriptors:
    DTD 1:  1600x900    60.326228 Hz  16:9     56.345 kHz    119.000000 MHz (443 mm x 249 mm)
                 Hfront   88 Hsync 168 Hback  256 Hpol N
                 Vfront    3 Vsync   5 Vback   26 Vpol N
    Display Range Limits:
      Monitor ranges (Bare Limits): 50-85 Hz V, 10-110 kHz H, max dotclock 160 MHz
    Display Product Name: 'HP AIO'
    Display Product Serial Number: ...
Checksum: 0x17

----------------

Failures:

Block 0, Base EDID:
  Basic Display Parameters & Features: sRGB is signaled, but the chromaticities do not match.
  Detailed Timing Descriptor #1: Mismatch of image size 443x249 mm vs display size 510x290 mm.

EDID conformity: FAIL
