
EDID (hex):
00ffffffffffff0022f0094101010000
1e130103802c19780ab815a6554b9b25
13505400000001010101010101010101
010101010101302a40c860846430b450
a300b8fa10000018000000fe0053414d
53554e470a2020202020000000fc0048
5020546f756368536d617274000000fe
004c544d3230304b5430330a202000ea

Extracted contents:
header:          00 ff ff ff ff ff ff 00
serial number:   22 f0 09 41 01 01 00 00 1e 13
version:         01 03
basic params:    80 2c 19 78 0a
chroma info:     b8 15 a6 55 4b 9b 25 13 50 54
established:     00 00 00
standard:        01 01 01 01 01 01 01 01 01 01 01 01 01 01 01 01
descriptor 1:    30 2a 40 c8 60 84 64 30 b4 50 a3 00 b8 fa 10 00 00 18
descriptor 2:    00 00 00 fe 00 53 41 4d 53 55 4e 47 0a 20 20 20 20 20
descriptor 3:    00 00 00 fc 00 48 50 20 54 6f 75 63 68 53 6d 61 72 74
descriptor 4:    00 00 00 fe 00 4c 54 4d 32 30 30 4b 54 30 33 0a 20 20
extensions:      00
checksum:        ea

EDID version: 1.3
Manufacturer: HWP Model 4109 Serial Number --
Made in week 30 of 2009
Digital display
Maximum image size: 44 cm x 25 cm
Gamma: 2.20
RGB color display
First detailed timing is preferred timing
Display x,y Chromaticity:
  Red:   0.6503, 0.3349
  Green: 0.2949, 0.6054
  Blue:  0.1445, 0.0751
  White: 0.3134, 0.3291
Established timings supported:
Standard timings supported:
Detailed mode: Clock 108.000 MHz, 440 mm x 250 mm
               1600 1780 1860 1800 hborder 0
                900  910  913 1000 vborder 0
               -hsync -vsync 
               VertFreq: 60 Hz, HorFreq: 60000 Hz
ASCII string: SAMSUNG
ASCII string: LTM200KT03
Checksum: 0xea (valid)
EDID block does NOT conform to EDID 1.3!
	Name descriptor not terminated with a newline
	Missing monitor ranges
