
EDID (hex):
00ffffffffffff001292117570030000
05180104a5311d78e28042ac5130b425
10505300000001010101010101010101
0101010101011a3680a070381f403020
350007442100001a0000000000000000
00000000000000000000000000fd0038
4c1e5311000a202020202020000000fc
004454525f50414e454c0a2020200001

Extracted contents:
header:          00 ff ff ff ff ff ff 00
serial number:   12 92 11 75 70 03 00 00 05 18
version:         01 04
basic params:    a5 31 1d 78 e2
chroma info:     80 42 ac 51 30 b4 25 10 50 53
established:     00 00 00
standard:        01 01 01 01 01 01 01 01 01 01 01 01 01 01 01 01
descriptor 1:    1a 36 80 a0 70 38 1f 40 30 20 35 00 07 44 21 00 00 1a
descriptor 2:    00 00 00 00 00 00 00 00 00 00 00 00 00 00 00 00 00 00
descriptor 3:    00 00 00 fd 00 38 4c 1e 53 11 00 0a 20 20 20 20 20 20
descriptor 4:    00 00 00 fc 00 44 54 52 5f 50 41 4e 45 4c 0a 20 20 20
extensions:      00
checksum:        01

EDID version: 1.4
Manufacturer: DTR Model 7511 Serial Number --
Made in week 5 of 2014
Digital display
8 bits per primary color channel
DisplayPort interface
Maximum image size: 49 cm x 29 cm
Gamma: 2.20
DPMS levels: Standby Suspend Off
Supported color formats: RGB 4:4:4
First detailed timing includes the native pixel format and preferred refresh rate
Display x,y Chromaticity:
  Red:   0.6738, 0.3164
  Green: 0.1875, 0.7031
  Blue:  0.1455, 0.0625
  White: 0.3125, 0.3261
Established timings supported:
Standard timings supported:
Detailed mode: Clock 138.500 MHz, 519 mm x 324 mm
               1920 1968 2000 2080 hborder 0
               1080 1083 1088 1111 vborder 0
               +hsync -vsync 
               VertFreq: 59 Hz, HorFreq: 66586 Hz
Manufacturer-specified data, tag 0
Monitor ranges (GTF): 56-76Hz V, 30-83kHz H, max dotclock 170MHz
Monitor name: DTR_PANEL
Checksum: 0x1 (valid)
