
EDID (hex):
00ffffffffffff000505444801000000
011701030fa05a780aee95a3544c9926
0f5054a7cf007140714a714f81800101
010101010101023a801871382d40582c
450040846300001e662150b051001b30
4070360040846300001e000000fc004c
45443137570a202020202020000000fd
00314c195110000a2020202020200087

Extracted contents:
header:          00 ff ff ff ff ff ff 00
serial number:   05 05 44 48 01 00 00 00 01 17
version:         01 03
basic params:    0f a0 5a 78 0a
chroma info:     ee 95 a3 54 4c 99 26 0f 50 54
established:     a7 cf 00
standard:        71 40 71 4a 71 4f 81 80 01 01 01 01 01 01 01 01
descriptor 1:    02 3a 80 18 71 38 2d 40 58 2c 45 00 40 84 63 00 00 1e
descriptor 2:    66 21 50 b0 51 00 1b 30 40 70 36 00 40 84 63 00 00 1e
descriptor 3:    00 00 00 fc 00 4c 45 44 31 37 57 0a 20 20 20 20 20 20
descriptor 4:    00 00 00 fd 00 31 4c 19 51 10 00 0a 20 20 20 20 20 20
extensions:      00
checksum:        87

EDID version: 1.3
Manufacturer: AHE Model 4844 Serial Number --
Made in week 1 of 2013
Analog display, Input voltage level: 0.7/0.3 V
Sync: Separate Composite SyncOnGreen Serration 
Maximum image size: 160 cm x 90 cm
Gamma: 2.20
RGB color display
First detailed timing is preferred timing
Display x,y Chromaticity:
  Red:   0.6396, 0.3300
  Green: 0.2998, 0.5996
  Blue:  0.1503, 0.0595
  White: 0.3134, 0.3291
Established timings supported:
  720x400@70Hz 9:5 HorFreq: 31469 Hz Clock: 28.320 MHz
  640x480@60Hz 4:3 HorFreq: 31469 Hz Clock: 25.175 MHz
  640x480@75Hz 4:3 HorFreq: 37500 Hz Clock: 31.500 MHz
  800x600@56Hz 4:3 HorFreq: 35200 Hz Clock: 36.000 MHz
  800x600@60Hz 4:3 HorFreq: 37900 Hz Clock: 40.000 MHz
  800x600@72Hz 4:3 HorFreq: 48100 Hz Clock: 50.000 MHz
  800x600@75Hz 4:3 HorFreq: 46900 Hz Clock: 49.500 MHz
  1024x768@60Hz 4:3 HorFreq: 48400 Hz Clock: 65.000 MHz
  1024x768@70Hz 4:3 HorFreq: 56500 Hz Clock: 75.000 MHz
  1024x768@75Hz 4:3 HorFreq: 60000 Hz Clock: 78.750 MHz
  1280x1024@75Hz 5:4 HorFreq: 80000 Hz Clock: 135.000 MHz
Standard timings supported:
  1152x864@60Hz 4:3
  1152x864@70Hz 4:3
  1152x864@75Hz 4:3 HorFreq: 67500 Hz Clock: 108.000 MHz
  1280x1024@60Hz 5:4 HorFreq: 64000 Hz Clock: 108.000 MHz
Detailed mode: Clock 148.500 MHz, 1600 mm x 900 mm
               1920 2008 2052 2200 hborder 0
               1080 1084 1089 1125 vborder 0
               +hsync +vsync 
               VertFreq: 60 Hz, HorFreq: 67500 Hz
Detailed mode: Clock 85.500 MHz, 1600 mm x 900 mm
               1360 1424 1536 1792 hborder 0
                768  771  777  795 vborder 0
               +hsync +vsync 
               VertFreq: 60 Hz, HorFreq: 47712 Hz
Monitor name: LED17W
Monitor ranges (GTF): 49-76Hz V, 25-81kHz H, max dotclock 160MHz
Checksum: 0x87 (valid)
