
EDID (hex):
00ffffffffffff0006af3d1800000000
00180104951f117802ea75a156539f28
0c505400000001010101010101010101
010101010101143780b8703824401010
3e0035ad100000180000000f00000000
00000000000000000020000000fe0041
554f0a202020202020202020000000fe
004231343048414e30312e38200a00a0

Extracted contents:
header:          00 ff ff ff ff ff ff 00
serial number:   06 af 3d 18 00 00 00 00 00 18
version:         01 04
basic params:    95 1f 11 78 02
chroma info:     ea 75 a1 56 53 9f 28 0c 50 54
established:     00 00 00
standard:        01 01 01 01 01 01 01 01 01 01 01 01 01 01 01 01
descriptor 1:    14 37 80 b8 70 38 24 40 10 10 3e 00 35 ad 10 00 00 18
descriptor 2:    00 00 00 0f 00 00 00 00 00 00 00 00 00 00 00 00 00 20
descriptor 3:    00 00 00 fe 00 41 55 4f 0a 20 20 20 20 20 20 20 20 20
descriptor 4:    00 00 00 fe 00 42 31 34 30 48 41 4e 30 31 2e 38 20 0a
extensions:      00
checksum:        a0

EDID version: 1.4
Manufacturer: AUO Model 183d Serial Number --
Made in year 2014
Digital display
6 bits per primary color channel
DisplayPort interface
Maximum image size: 31 cm x 17 cm
Gamma: 2.20
Supported color formats: RGB 4:4:4
First detailed timing includes the native pixel format and preferred refresh rate
Display x,y Chromaticity:
  Red:   0.6318, 0.3378
  Green: 0.3261, 0.6230
  Blue:  0.1572, 0.0498
  White: 0.3134, 0.3291
Established timings supported:
Standard timings supported:
Detailed mode: Clock 141.000 MHz, 309 mm x 173 mm
               1920 1936 1952 2104 hborder 0
               1080 1083 1097 1116 vborder 0
               -hsync -vsync 
               VertFreq: 60 Hz, HorFreq: 67015 Hz
Manufacturer-specified data, tag 15
ASCII string: AUO
ASCII string: B140HAN01.8 
Checksum: 0xa0 (valid)
EDID block does NOT conform to EDID 1.4!
	Missing name descriptor
	Missing monitor ranges
