edid-decode (hex):

00 ff ff ff ff ff ff 00 09 e5 b1 06 00 00 00 00
01 1a 01 04 a5 1f 11 78 02 24 10 97 59 54 8e 27
1e 50 54 00 00 00 01 01 01 01 01 01 01 01 01 01
01 01 01 01 01 01 6d 3a 80 e5 70 38 50 40 30 20
36 00 58 c1 10 00 00 1a f2 26 80 e5 70 38 50 40
64 64 44 05 58 c1 10 00 00 1a 00 00 00 00 00 00
00 00 00 00 00 00 00 00 00 00 00 00 00 00 00 02
00 0c 43 f4 0b 3c 6e 0f 14 1b 7f 00 00 00 00 26

----------------

Block 0, Base EDID:
  EDID Structure Version & Revision: 1.4
  Vendor & Product Identification:
    Manufacturer: BOE
    Model: 1713
    Made in: week 1 of 2016
  Basic Display Parameters & Features:
    Digital display
    Bits per primary color channel: 8
    DisplayPort interface
    Maximum image size: 31 cm x 17 cm
    Gamma: 2.20
    Supported color formats: RGB 4:4:4
    First detailed timing includes the native pixel format and preferred refresh rate
  Color Characteristics:
    Red  : 0.5898, 0.3496
    Green: 0.3291, 0.5546
    Blue : 0.1523, 0.1181
    White: 0.3125, 0.3281
  Established Timings I & II: none
  Standard Timings: none
  Detailed Timing Descriptors:
    DTD 1:  1920x1080   60.000 Hz  16:9    69.600 kHz 149.570 MHz (344 mm x 193 mm)
                 Hfront   48 Hsync  32 Hback 149 Hpol P
                 Vfront    3 Vsync   6 Vback  71 Vpol N
    DTD 2:  1920x1080   39.995 Hz  16:9    46.394 kHz  99.700 MHz (344 mm x 193 mm)
                 Hfront  100 Hsync 100 Hback  29 Hpol P
                 Vfront   20 Vsync  20 Vback  40 Vpol N
    Empty Descriptor
    Manufacturer-Specified Display Descriptor (0x02): 00 02 00 0c 43 f4 0b 3c 6e 0f 14 1b 7f 00 00 00 '....C..<n.......'
Checksum: 0x26

----------------

Failures:

Block 0, Base EDID:
  Detailed Timing Descriptor #1: Mismatch of image size 344x193 mm vs display size 310x170 mm.
  Detailed Timing Descriptor #2: Mismatch of image size 344x193 mm vs display size 310x170 mm.
  Empty Descriptor: Use Dummy Descriptor instead of all zeroes.
  Missing Display Product Name.

EDID conformity: FAIL
