
EDID (hex):
00ffffffffffff0009e5bf0900000000
141e0104a526157803ee95a3544c9926
0f505400000001010101010101010101
010101010101096400b0a0a078503020
36007ed710000000000000fd0c3ca502
0246010a202020202020000000000000
00000000000000000000000000000002
000d36ff0a3c96321a3d960000000127
701379000003011419130184ff09af00
2f001f009f0577000200050000000000
00000000000000000000000000000000
00000000000000000000000000000000
00000000000000000000000000000000
00000000000000000000000000000000
00000000000000000000000000000000
00000000000000000000000000008490

Extracted contents:
header:          00 ff ff ff ff ff ff 00
serial number:   09 e5 bf 09 00 00 00 00 14 1e
version:         01 04
basic params:    a5 26 15 78 03
chroma info:     ee 95 a3 54 4c 99 26 0f 50 54
established:     00 00 00
standard:        01 01 01 01 01 01 01 01 01 01 01 01 01 01 01 01
descriptor 1:    09 64 00 b0 a0 a0 78 50 30 20 36 00 7e d7 10 00 00 00
descriptor 2:    00 00 00 fd 0c 3c a5 02 02 46 01 0a 20 20 20 20 20 20
descriptor 3:    00 00 00 00 00 00 00 00 00 00 00 00 00 00 00 00 00 00
descriptor 4:    00 00 00 02 00 0d 36 ff 0a 3c 96 32 1a 3d 96 00 00 00
extensions:      01
checksum:        27

EDID version: 1.4
Manufacturer: BOE Model 9bf Serial Number --
Made in week 20 of 2020
Digital display
8 bits per primary color channel
DisplayPort interface
Maximum image size: 38 cm x 21 cm
Gamma: 2.20
Supported color formats: RGB 4:4:4
First detailed timing includes the native pixel format and preferred refresh rate
Display is continuous frequency
Display x,y Chromaticity:
  Red:   0.6396, 0.3300
  Green: 0.2998, 0.5996
  Blue:  0.1503, 0.0595
  White: 0.3134, 0.3291
Established timings supported:
Standard timings supported:
Detailed mode: Clock 256.090 MHz, 382 mm x 215 mm
               2560 2608 2640 2736 hborder 0
               1440 1443 1449 1560 vborder 0
               -hsync -vsync analog composite 
               VertFreq: 60 Hz, HorFreq: 93600 Hz
Monitor ranges (bare limits): 60-165Hz V, 2-257kHz H, max dotclock 700MHz
Manufacturer-specified data, tag 0
Manufacturer-specified data, tag 2
Has 1 extension blocks
Checksum: 0x27 (valid)

DisplayID extension block
Extension version: 19
Length 121, version 19, extension count 0
Checksum: 0x84 (valid)
Type 1 detailed timing: aspect: 16:9, Preferred  
Detailed mode: Clock 704.250 MHz, 0 mm x 0 mm
               2559 2606 2637 2734
               1439 1441 1446 1558
               -hsync -vsync

EDID block does NOT conform to EDID 1.4!
	Missing name descriptor
EDID block does not conform at all!
	Has -654311424 nonconformant extension block(s)
