
EDID (hex):
00ffffffffffff0006af9af900000000
141f0104a51e13780363f5a854489d24
0e505400000001010101010101010101
010101010101fa3c80b870b024401010
3e002dbc1000001ac83080b870b02440
10103e002dbc1000001a000000fe004a
38335646804231343055414e00000000
00024101b2001100000a410a20200068

Extracted contents:
header:          00 ff ff ff ff ff ff 00
serial number:   06 af 9a f9 00 00 00 00 14 1f
version:         01 04
basic params:    a5 1e 13 78 03
chroma info:     63 f5 a8 54 48 9d 24 0e 50 54
established:     00 00 00
standard:        01 01 01 01 01 01 01 01 01 01 01 01 01 01 01 01
descriptor 1:    fa 3c 80 b8 70 b0 24 40 10 10 3e 00 2d bc 10 00 00 1a
descriptor 2:    c8 30 80 b8 70 b0 24 40 10 10 3e 00 2d bc 10 00 00 1a
descriptor 3:    00 00 00 fe 00 4a 38 33 56 46 80 42 31 34 30 55 41 4e
descriptor 4:    00 00 00 00 00 02 41 01 b2 00 11 00 00 0a 41 0a 20 20
extensions:      00
checksum:        68

EDID version: 1.4
Manufacturer: AUO Model f99a Serial Number --
Made in week 20 of 2021
Digital display
8 bits per primary color channel
DisplayPort interface
Maximum image size: 30 cm x 19 cm
Gamma: 2.20
Supported color formats: RGB 4:4:4
First detailed timing includes the native pixel format and preferred refresh rate
Display is continuous frequency
Display x,y Chromaticity:
  Red:   0.6572, 0.3300
  Green: 0.2812, 0.6162
  Blue:  0.1435, 0.0576
  White: 0.3134, 0.3291
Established timings supported:
Standard timings supported:
Detailed mode: Clock 156.100 MHz, 301 mm x 188 mm
               1920 1936 1952 2104 hborder 0
               1200 1203 1217 1236 vborder 0
               +hsync -vsync 
               VertFreq: 60 Hz, HorFreq: 74192 Hz
Detailed mode: Clock 124.880 MHz, 301 mm x 188 mm
               1920 1936 1952 2104 hborder 0
               1200 1203 1217 1236 vborder 0
               +hsync -vsync 
               VertFreq: 48 Hz, HorFreq: 59353 Hz
ASCII string: J83VF
Manufacturer-specified data, tag 0
Checksum: 0x68 (valid)
EDID block does NOT conform to EDID 1.4!
	Missing name descriptor
	Missing monitor ranges
	Detailed block string not properly terminated
