
EDID (hex):
00ffffffffffff0006af8e9600000000
311d0104a51f117803ee95a3544c9926
0f505400000001010101010101010101
010101010101143780b8703824401010
3e0035ae10000018102c80b870382440
10103e0035ae10000018000000fd0030
3c43430e010a202020202020000000fe
004231343048414e30362e41200a00ee

Extracted contents:
header:          00 ff ff ff ff ff ff 00
serial number:   06 af 8e 96 00 00 00 00 31 1d
version:         01 04
basic params:    a5 1f 11 78 03
chroma info:     ee 95 a3 54 4c 99 26 0f 50 54
established:     00 00 00
standard:        01 01 01 01 01 01 01 01 01 01 01 01 01 01 01 01
descriptor 1:    14 37 80 b8 70 38 24 40 10 10 3e 00 35 ae 10 00 00 18
descriptor 2:    10 2c 80 b8 70 38 24 40 10 10 3e 00 35 ae 10 00 00 18
descriptor 3:    00 00 00 fd 00 30 3c 43 43 0e 01 0a 20 20 20 20 20 20
descriptor 4:    00 00 00 fe 00 42 31 34 30 48 41 4e 30 36 2e 41 20 0a
extensions:      00
checksum:        ee

EDID version: 1.4
Manufacturer: AUO Model 968e Serial Number --
Made in week 49 of 2019
Digital display
8 bits per primary color channel
DisplayPort interface
Maximum image size: 31 cm x 17 cm
Gamma: 2.20
Supported color formats: RGB 4:4:4
First detailed timing includes the native pixel format and preferred refresh rate
Display is continuous frequency
Display x,y Chromaticity:
  Red:   0.6396, 0.3300
  Green: 0.2998, 0.5996
  Blue:  0.1503, 0.0595
  White: 0.3134, 0.3291
Established timings supported:
Standard timings supported:
Detailed mode: Clock 141.000 MHz, 309 mm x 174 mm
               1920 1936 1952 2104 hborder 0
               1080 1083 1097 1116 vborder 0
               -hsync -vsync 
               VertFreq: 60 Hz, HorFreq: 67015 Hz
Detailed mode: Clock 112.800 MHz, 309 mm x 174 mm
               1920 1936 1952 2104 hborder 0
               1080 1083 1097 1116 vborder 0
               -hsync -vsync 
               VertFreq: 48 Hz, HorFreq: 53612 Hz
Monitor ranges (bare limits): 48-60Hz V, 67-67kHz H, max dotclock 140MHz
ASCII string: B140HAN06.A 
Checksum: 0xee (valid)
EDID block does NOT conform to EDID 1.4!
	Missing name descriptor
Warning: One or more of the timings is out of range of the Monitor Ranges:
  Vertical Freq: 48 - 60 Hz
  Horizontal Freq: 53612 - 67015 Hz
  Maximum Clock: 141.000 MHz
