
EDID (hex):
00ffffffffffff0006af9e1100000000
01120103802615780a45259c5b559c27
19505400000001010101010101010101
010101010101202b409061841430402a
33007ed6100000180000000f00000000
00000000000000000020000000fe0041
554f0a202020202020202020000000fe
004231373352573031205631200a00b9

Extracted contents:
header:          00 ff ff ff ff ff ff 00
serial number:   06 af 9e 11 00 00 00 00 01 12
version:         01 03
basic params:    80 26 15 78 0a
chroma info:     45 25 9c 5b 55 9c 27 19 50 54
established:     00 00 00
standard:        01 01 01 01 01 01 01 01 01 01 01 01 01 01 01 01
descriptor 1:    20 2b 40 90 61 84 14 30 40 2a 33 00 7e d6 10 00 00 18
descriptor 2:    00 00 00 0f 00 00 00 00 00 00 00 00 00 00 00 00 00 20
descriptor 3:    00 00 00 fe 00 41 55 4f 0a 20 20 20 20 20 20 20 20 20
descriptor 4:    00 00 00 fe 00 42 31 37 33 52 57 30 31 20 56 31 20 0a
extensions:      00
checksum:        b9

EDID version: 1.3
Manufacturer: AUO Model 119e Serial Number --
Made in week 1 of 2008
Digital display
Maximum image size: 38 cm x 21 cm
Gamma: 2.20
RGB color display
First detailed timing is preferred timing
Display x,y Chromaticity:
  Red:   0.6103, 0.3554
  Green: 0.3330, 0.6103
  Blue:  0.1523, 0.0996
  White: 0.3134, 0.3291
Established timings supported:
Standard timings supported:
Detailed mode: Clock 110.400 MHz, 382 mm x 214 mm
               1600 1664 1706 2000 hborder 0
                900  903  906  920 vborder 0
               -hsync -vsync 
               VertFreq: 60 Hz, HorFreq: 55200 Hz
Manufacturer-specified data, tag 15
ASCII string: AUO
ASCII string: B173RW01 V1 
Checksum: 0xb9 (valid)
EDID block does NOT conform to EDID 1.3!
	Missing name descriptor
	Missing monitor ranges
