
EDID (hex):
00ffffffffffff0006af9e1100000000
001701049526157802ee859e59509d26
1d505400000001010101010101010101
010101010101102740c660841a303020
36007ed61000001a401f40c660841a30
302036007ed61000001a000000fe0033
56365452144231373352544e00000000
0000412196010100000a010a20200051

Extracted contents:
header:          00 ff ff ff ff ff ff 00
serial number:   06 af 9e 11 00 00 00 00 00 17
version:         01 04
basic params:    95 26 15 78 02
chroma info:     ee 85 9e 59 50 9d 26 1d 50 54
established:     00 00 00
standard:        01 01 01 01 01 01 01 01 01 01 01 01 01 01 01 01
descriptor 1:    10 27 40 c6 60 84 1a 30 30 20 36 00 7e d6 10 00 00 1a
descriptor 2:    40 1f 40 c6 60 84 1a 30 30 20 36 00 7e d6 10 00 00 1a
descriptor 3:    00 00 00 fe 00 33 56 36 54 52 14 42 31 37 33 52 54 4e
descriptor 4:    00 00 00 00 00 00 41 21 96 01 01 00 00 0a 01 0a 20 20
extensions:      00
checksum:        51

EDID version: 1.4
Manufacturer: AUO Model 119e Serial Number --
Made in year 2013
Digital display
6 bits per primary color channel
DisplayPort interface
Maximum image size: 38 cm x 21 cm
Gamma: 2.20
Supported color formats: RGB 4:4:4
First detailed timing includes the native pixel format and preferred refresh rate
Display x,y Chromaticity:
  Red:   0.6201, 0.3496
  Green: 0.3154, 0.6152
  Blue:  0.1503, 0.1132
  White: 0.3134, 0.3291
Established timings supported:
Standard timings supported:
Detailed mode: Clock 100.000 MHz, 382 mm x 214 mm
               1600 1648 1680 1798 hborder 0
                900  903  909  926 vborder 0
               +hsync -vsync 
               VertFreq: 60 Hz, HorFreq: 55617 Hz
Detailed mode: Clock 80.000 MHz, 382 mm x 214 mm
               1600 1648 1680 1798 hborder 0
                900  903  909  926 vborder 0
               +hsync -vsync 
               VertFreq: 48 Hz, HorFreq: 44493 Hz
ASCII string: 3V6TR
Manufacturer-specified data, tag 0
Checksum: 0x51 (valid)
EDID block does NOT conform to EDID 1.4!
	Missing name descriptor
	Missing monitor ranges
	Detailed block string not properly terminated
