edid-decode (hex):

00 ff ff ff ff ff ff 00 3a 93 00 00 01 01 01 01
2a 11 01 03 08 25 15 78 2a 14 c6 a0 58 53 8e 27
25 4f 54 af ce 00 81 cf 01 01 01 01 01 01 01 01
01 01 01 01 01 01 01 1d 00 70 51 d0 1e 20 d8 28
f5 00 74 d1 10 00 00 1e 00 00 00 fc 00 0a 20 20
20 20 20 20 20 20 20 20 20 20 00 00 00 fd 00 32
4c 1e 39 0a 00 0a 20 20 20 20 20 20 00 00 00 fc
00 4d 41 37 50 32 0a 20 20 20 20 20 20 20 00 e7

00 ff ff ff ff ff ff 00 3a 93 00 00 01 01 01 01
2a 11 01 03 08 25 15 78 2a 14 c6 a0 58 53 8e 27
25 4f 54 af ce 00 81 cf 01 01 01 01 01 01 01 01
01 01 01 01 01 01 01 1d 00 70 51 d0 1e 20 d8 28
f5 00 74 d1 10 00 00 1e 00 00 00 fc 00 0a 20 20
20 20 20 20 20 20 20 20 20 20 00 00 00 fd 00 32
4c 1e 39 0a 00 0a 20 20 20 20 20 20 00 00 00 fc
00 4d 41 37 50 32 0a 20 20 20 20 20 20 20 00 e7

----------------

Block 0, Base EDID:
  EDID Structure Version & Revision: 1.3
  Vendor & Product Identification:
    Manufacturer: NTS
    Model: 0
    Serial Number: ...
    Made in: week 42 of 2007
  Basic Display Parameters & Features:
    Analog display
    Signal Level Standard: 0.700 : 0.300 : 1.000 V p-p
    Blank level equals black level
    Sync: Separate
    Maximum image size: 37 cm x 21 cm
    Gamma: 2.20
    DPMS levels: Off
    RGB color display
    First detailed timing is the preferred timing
  Color Characteristics:
    Red  : 0.6250, 0.3447
    Green: 0.3251, 0.5546
    Blue : 0.1552, 0.1445
    White: 0.3095, 0.3300
  Established Timings I & II:
    IBM     :   720x400    70.081663 Hz   9:5     31.467 kHz     28.320000 MHz
    DMT 0x04:   640x480    59.940476 Hz   4:3     31.469 kHz     25.175000 MHz
    DMT 0x05:   640x480    72.808802 Hz   4:3     37.861 kHz     31.500000 MHz
    DMT 0x06:   640x480    75.000000 Hz   4:3     37.500 kHz     31.500000 MHz
    DMT 0x08:   800x600    56.250000 Hz   4:3     35.156 kHz     36.000000 MHz
    DMT 0x09:   800x600    60.316541 Hz   4:3     37.879 kHz     40.000000 MHz
    DMT 0x0a:   800x600    72.187572 Hz   4:3     48.077 kHz     50.000000 MHz
    DMT 0x0b:   800x600    75.000000 Hz   4:3     46.875 kHz     49.500000 MHz
    DMT 0x10:  1024x768    60.003840 Hz   4:3     48.363 kHz     65.000000 MHz
    DMT 0x11:  1024x768    70.069359 Hz   4:3     56.476 kHz     75.000000 MHz
    DMT 0x12:  1024x768    75.028582 Hz   4:3     60.023 kHz     78.750000 MHz
  Standard Timings:
    GTF     :  1280x720    74.999686 Hz  16:9     56.400 kHz     95.654000 MHz
  Detailed Timing Descriptors:
    DTD 1:  1280x720    60.072816 Hz  16:9     45.055 kHz     74.250000 MHz (372 mm x 209 mm)
                 Hfront  216 Hsync  40 Hback  112 Hpol P
                 Vfront   15 Vsync   5 Vback   10 Vpol P
    Display Product Name: ''
    Display Range Limits:
      Monitor ranges (GTF): 50-76 Hz V, 30-57 kHz H, max dotclock 100 MHz
    Display Product Name: 'MA7P2'
Checksum: 0xe7

----------------

Block 1, Unknown EDID Extension Block 0x00:
  00 ff ff ff ff ff ff 00 3a 93 00 00 01 01 01 01 '........:.......'
  2a 11 01 03 08 25 15 78 2a 14 c6 a0 58 53 8e 27 '*....%.x*...XS.''
  25 4f 54 af ce 00 81 cf 01 01 01 01 01 01 01 01 '%OT.............'
  01 01 01 01 01 01 01 1d 00 70 51 d0 1e 20 d8 28 '.........pQ.. .('
  f5 00 74 d1 10 00 00 1e 00 00 00 fc 00 0a 20 20 '..t...........  '
  20 20 20 20 20 20 20 20 20 20 00 00 00 fd 00 32 '          .....2'
  4c 1e 39 0a 00 0a 20 20 20 20 20 20 00 00 00 fc 'L.9...      ....'
  00 4d 41 37 50 32 0a 20 20 20 20 20 20 20 00 e7 '.MA7P2.       ..'
Checksum: 0xe7

----------------

Failures:

Block 0, Base EDID:
  Display Product Name: Empty string.
Block 1, Base EDID:
  Unknown Extension Block.
EDID:
  Base EDID: Some timings are out of range of the Monitor Ranges:
    Horizontal Freq: 31.466 - 60.022 kHz (Monitor: 30.000 - 57.000 kHz)
  Base EDID: EDID specified 0 extension block(s), but found 1 extension block(s).

EDID conformity: FAIL
