
EDID (hex):
00ffffffffffff003a93000001000000
1e10010308291e780a9175a359489a24
115054a7cf008180818a010190400101
010101010101a82f78d0511a27405890
3400982e11000018000000fd00304b1e
5310000a202020202020000000fc0053
5847412b0a20202020202020000000ff
000a2020202020202020202020200090

Extracted contents:
header:          00 ff ff ff ff ff ff 00
serial number:   3a 93 00 00 01 00 00 00 1e 10
version:         01 03
basic params:    08 29 1e 78 0a
chroma info:     91 75 a3 59 48 9a 24 11 50 54
established:     a7 cf 00
standard:        81 80 81 8a 01 01 90 40 01 01 01 01 01 01 01 01
descriptor 1:    a8 2f 78 d0 51 1a 27 40 58 90 34 00 98 2e 11 00 00 18
descriptor 2:    00 00 00 fd 00 30 4b 1e 53 10 00 0a 20 20 20 20 20 20
descriptor 3:    00 00 00 fc 00 53 58 47 41 2b 0a 20 20 20 20 20 20 20
descriptor 4:    00 00 00 ff 00 0a 20 20 20 20 20 20 20 20 20 20 20 20
extensions:      00
checksum:        90

EDID version: 1.3
Manufacturer: NTS Model 0 Serial Number --
Made in week 30 of 2006
Analog display, Input voltage level: 0.7/0.3 V
Sync: Separate 
Maximum image size: 41 cm x 30 cm
Gamma: 2.20
RGB color display
First detailed timing is preferred timing
Display x,y Chromaticity:
  Red:   0.6386, 0.3486
  Green: 0.2812, 0.6025
  Blue:  0.1416, 0.0693
  White: 0.3134, 0.3291
Established timings supported:
  720x400@70Hz 9:5 HorFreq: 31469 Hz Clock: 28.320 MHz
  640x480@60Hz 4:3 HorFreq: 31469 Hz Clock: 25.175 MHz
  640x480@75Hz 4:3 HorFreq: 37500 Hz Clock: 31.500 MHz
  800x600@56Hz 4:3 HorFreq: 35200 Hz Clock: 36.000 MHz
  800x600@60Hz 4:3 HorFreq: 37900 Hz Clock: 40.000 MHz
  800x600@72Hz 4:3 HorFreq: 48100 Hz Clock: 50.000 MHz
  800x600@75Hz 4:3 HorFreq: 46900 Hz Clock: 49.500 MHz
  1024x768@60Hz 4:3 HorFreq: 48400 Hz Clock: 65.000 MHz
  1024x768@70Hz 4:3 HorFreq: 56500 Hz Clock: 75.000 MHz
  1024x768@75Hz 4:3 HorFreq: 60000 Hz Clock: 78.750 MHz
  1280x1024@75Hz 5:4 HorFreq: 80000 Hz Clock: 135.000 MHz
Standard timings supported:
  1280x1024@60Hz 5:4 HorFreq: 64000 Hz Clock: 108.000 MHz
  1280x1024@70Hz 5:4
  1400x1050@60Hz 4:3 HorFreq: 64700 Hz Clock: 101.000 MHz
Detailed mode: Clock 122.000 MHz, 408 mm x 302 mm
               1400 1488 1632 1864 hborder 0
               1050 1053 1057 1089 vborder 0
               -hsync -vsync 
               VertFreq: 60 Hz, HorFreq: 65450 Hz
Monitor ranges (GTF): 48-75Hz V, 30-83kHz H, max dotclock 160MHz
Monitor name: SXGA+
Serial number: 
-- 0x90 (valid)
