
EDID (hex):
00ffffffffffff001e6d667601010101
0116010482462778ead9b0a357499c25
11494b210800314045406140818081c0
8cc0d1c001011a3680a070381f403020
3500e8263200001a1b2150a051001e30
48883500bc862100001c000000fc0049
5445363630340a2020202020000000f7
000a0042c444020000000000000001d0
020322f04d0603151213041405201f10
2122230907078301000067030c001000
b82d011d008051d01c2040803500bc88
2100001e8c0ad08a20e02d10103e9600
138e21000018023a801871382d40582c
450006442100001e011d8018711c1620
582c2500c48e2100009e4e1f00805100
1e3040803700bc8821000018000000b4

Extracted contents:
header:          00 ff ff ff ff ff ff 00
serial number:   1e 6d 66 76 01 01 01 01 01 16
version:         01 04
basic params:    82 46 27 78 ea
chroma info:     d9 b0 a3 57 49 9c 25 11 49 4b
established:     21 08 00
standard:        31 40 45 40 61 40 81 80 81 c0 8c c0 d1 c0 01 01
descriptor 1:    1a 36 80 a0 70 38 1f 40 30 20 35 00 e8 26 32 00 00 1a
descriptor 2:    1b 21 50 a0 51 00 1e 30 48 88 35 00 bc 86 21 00 00 1c
descriptor 3:    00 00 00 fc 00 49 54 45 36 36 30 34 0a 20 20 20 20 20
descriptor 4:    00 00 00 f7 00 0a 00 42 c4 44 02 00 00 00 00 00 00 00
extensions:      01
checksum:        d0

EDID version: 1.4
Manufacturer: GSM Model 7666 Serial Number --
Made in week 1 of 2012
Digital display
Color depth is undefined
HDMI-a interface
Maximum image size: 70 cm x 39 cm
Gamma: 2.20
DPMS levels: Standby Suspend Off
Supported color formats: RGB 4:4:4, YCrCb 4:4:4
First detailed timing includes the native pixel format and preferred refresh rate
Display x,y Chromaticity:
  Red:   0.6396, 0.3408
  Green: 0.2871, 0.6103
  Blue:  0.1464, 0.0693
  White: 0.2851, 0.2929
Established timings supported:
  640x480@60Hz 4:3 HorFreq: 31469 Hz Clock: 25.175 MHz
  800x600@60Hz 4:3 HorFreq: 37900 Hz Clock: 40.000 MHz
  1024x768@60Hz 4:3 HorFreq: 48400 Hz Clock: 65.000 MHz
Standard timings supported:
  640x480@60Hz 4:3 HorFreq: 31469 Hz Clock: 25.175 MHz
  800x600@60Hz 4:3 HorFreq: 37900 Hz Clock: 40.000 MHz
  1024x768@60Hz 4:3 HorFreq: 48400 Hz Clock: 65.000 MHz
  1280x1024@60Hz 5:4 HorFreq: 64000 Hz Clock: 108.000 MHz
  1280x720@60Hz 16:9
  1368x769@60Hz 16:9
  1920x1080@60Hz 16:9
Detailed mode: Clock 138.500 MHz, 1000 mm x 550 mm
               1920 1968 2000 2080 hborder 0
               1080 1083 1088 1111 vborder 0
               +hsync -vsync 
               VertFreq: 59 Hz, HorFreq: 66586 Hz
Detailed mode: Clock 84.750 MHz, 700 mm x 390 mm
               1360 1432 1568 1776 hborder 0
                768  771  776  798 vborder 0
               -hsync +vsync 
               VertFreq: 59 Hz, HorFreq: 47719 Hz
Monitor name: ITE6604
Established timings III:
  1280x768@60Hz 5:3 HorFreq: 47800 Hz Clock: 79.500 MHz
  1280x1024@60Hz 5:4 HorFreq: 64000 Hz Clock: 108.000 MHz
  1360x768@60Hz 85:48 HorFreq: 47700 Hz Clock: 85.500 MHz
  1440x900@60Hz RB 16:10 HorFreq: 55500 Hz Clock: 88.750 MHz
  1400x1050@60Hz RB 4:3 HorFreq: 64700 Hz Clock: 101.000 MHz
  1680x1050@60Hz RB 16:10 HorFreq: 64700 Hz Clock: 119.000 MHz
  1600x1200@60Hz 4:3 HorFreq: 75000 Hz Clock: 162.000 MHz
  1920x1200@60Hz RB 16:10 HorFreq: 74000 Hz Clock: 154.000 MHz
Has 1 extension blocks
Checksum: 0xd0 (valid)

CTA extension block
Extension version: 3
30 bytes of CTA data
  Video data block
    VIC   6 1440x480i@60Hz 4:3  HorFreq: 15734 Hz Clock: 27.000 MHz
    VIC   3 720x480@60Hz 16:9  HorFreq: 31469 Hz Clock: 27.000 MHz
    VIC  21 1440x576i@50Hz 4:3  HorFreq: 15625 Hz Clock: 27.000 MHz
    VIC  18 720x576@50Hz 16:9  HorFreq: 31250 Hz Clock: 27.000 MHz
    VIC  19 1280x720@50Hz 16:9  HorFreq: 37500 Hz Clock: 74.250 MHz
    VIC   4 1280x720@60Hz 16:9  HorFreq: 45000 Hz Clock: 74.250 MHz
    VIC  20 1920x1080i@50Hz 16:9  HorFreq: 28125 Hz Clock: 74.250 MHz
    VIC   5 1920x1080i@60Hz 16:9  HorFreq: 33750 Hz Clock: 74.250 MHz
    VIC  32 1920x1080@24Hz 16:9  HorFreq: 27000 Hz Clock: 74.250 MHz
    VIC  31 1920x1080@50Hz 16:9  HorFreq: 56250 Hz Clock: 148.500 MHz
    VIC  16 1920x1080@60Hz 16:9  HorFreq: 67500 Hz Clock: 148.500 MHz
    VIC  33 1920x1080@25Hz 16:9  HorFreq: 28125 Hz Clock: 74.250 MHz
    VIC  34 1920x1080@30Hz 16:9  HorFreq: 33750 Hz Clock: 74.250 MHz
  Audio data block
    Linear PCM, max channels 2
      Supported sample rates (kHz): 48 44.1 32
      Supported sample sizes (bits): 24 20 16
  Speaker allocation data block
    Speaker map:
      FL/FR - Front Left/Right
  Vendor-specific data block, OUI 000c03 (HDMI)
    Source physical address 1.0.0.0
    Supports_AI
    DC_36bit
    DC_30bit
    DC_Y444
    Maximum TMDS clock: 225MHz
Underscans PC formats by default
Basic audio support
Supports YCbCr 4:4:4
Supports YCbCr 4:2:2
0 native detailed modes
Detailed mode: Clock 74.250 MHz, 700 mm x 392 mm
               1280 1344 1472 1664 hborder 0
                720  723  728  748 vborder 0
               +hsync +vsync 
               VertFreq: 59 Hz, HorFreq: 44621 Hz
Detailed mode: Clock 27.000 MHz, 531 mm x 398 mm
                720  736  798  858 hborder 0
                480  489  495  525 vborder 0
               -hsync -vsync 
               VertFreq: 59 Hz, HorFreq: 31468 Hz
Detailed mode: Clock 148.500 MHz, 518 mm x 324 mm
               1920 2008 2052 2200 hborder 0
               1080 1084 1089 1125 vborder 0
               +hsync +vsync 
               VertFreq: 60 Hz, HorFreq: 67500 Hz
Detailed mode: Clock 74.250 MHz, 708 mm x 398 mm
               1920 2008 2052 2200 hborder 0
                540  542  547  562 vborder 0
               +hsync +vsync interlaced 
               VertFreq: 60 Hz, HorFreq: 33750 Hz
Detailed mode: Clock 80.140 MHz, 700 mm x 392 mm
               1280 1344 1472 1664 hborder 0
                768  771  778  798 vborder 0
               -hsync -vsync 
               VertFreq: 60 Hz, HorFreq: 48161 Hz
Checksum: 0xb4 (valid)

	Missing monitor ranges
