
EDID (hex):
00ffffffffffff0006afed3800000000
00190104952213780251259358578f28
1f505400000001010101010101010101
010101010101783780b470382e406c30
aa0058c11000001a602c80b470382e40
6c30aa0058c11000001a000000fe0032
38483830804231353648544e00000000
0000410296001000000a010a20200009

Extracted contents:
header:          00 ff ff ff ff ff ff 00
serial number:   06 af ed 38 00 00 00 00 00 19
version:         01 04
basic params:    95 22 13 78 02
chroma info:     51 25 93 58 57 8f 28 1f 50 54
established:     00 00 00
standard:        01 01 01 01 01 01 01 01 01 01 01 01 01 01 01 01
descriptor 1:    78 37 80 b4 70 38 2e 40 6c 30 aa 00 58 c1 10 00 00 1a
descriptor 2:    60 2c 80 b4 70 38 2e 40 6c 30 aa 00 58 c1 10 00 00 1a
descriptor 3:    00 00 00 fe 00 32 38 48 38 30 80 42 31 35 36 48 54 4e
descriptor 4:    00 00 00 00 00 00 41 02 96 00 10 00 00 0a 01 0a 20 20
extensions:      00
checksum:        09

EDID version: 1.4
Manufacturer: AUO Model 38ed Serial Number --
Made in year 2015
Digital display
6 bits per primary color channel
DisplayPort interface
Maximum image size: 34 cm x 19 cm
Gamma: 2.20
Supported color formats: RGB 4:4:4
First detailed timing includes the native pixel format and preferred refresh rate
Display x,y Chromaticity:
  Red:   0.5751, 0.3447
  Green: 0.3398, 0.5595
  Blue:  0.1562, 0.1230
  White: 0.3134, 0.3291
Established timings supported:
Standard timings supported:
Detailed mode: Clock 142.000 MHz, 344 mm x 193 mm
               1920 2028 2076 2100 hborder 0
               1080 1090 1100 1126 vborder 0
               +hsync -vsync 
               VertFreq: 60 Hz, HorFreq: 67619 Hz
Detailed mode: Clock 113.600 MHz, 344 mm x 193 mm
               1920 2028 2076 2100 hborder 0
               1080 1090 1100 1126 vborder 0
               +hsync -vsync 
               VertFreq: 48 Hz, HorFreq: 54095 Hz
ASCII string: 28H80
Manufacturer-specified data, tag 0
Checksum: 0x9 (valid)
EDID block does NOT conform to EDID 1.4!
	Missing name descriptor
	Missing monitor ranges
	Detailed block string not properly terminated
