
EDID (hex):
00ffffffffffff0006afed3800000000
001901049522137802bbf59455549027
23505400000001010101010101010101
010101010101403880b4703836406c30
aa0058c110000018802580b470383640
6c30aa0058c110000018000000000000
00000000000000000000000000000002
001048ff0f3c6e1e14216e202020004d

Extracted contents:
header:          00 ff ff ff ff ff ff 00
serial number:   06 af ed 38 00 00 00 00 00 19
version:         01 04
basic params:    95 22 13 78 02
chroma info:     bb f5 94 55 54 90 27 23 50 54
established:     00 00 00
standard:        01 01 01 01 01 01 01 01 01 01 01 01 01 01 01 01
descriptor 1:    40 38 80 b4 70 38 36 40 6c 30 aa 00 58 c1 10 00 00 18
descriptor 2:    80 25 80 b4 70 38 36 40 6c 30 aa 00 58 c1 10 00 00 18
descriptor 3:    00 00 00 00 00 00 00 00 00 00 00 00 00 00 00 00 00 00
descriptor 4:    00 00 00 02 00 10 48 ff 0f 3c 6e 1e 14 21 6e 20 20 20
extensions:      00
checksum:        4d

EDID version: 1.4
Manufacturer: AUO Model 38ed Serial Number --
Made in year 2015
Digital display
6 bits per primary color channel
DisplayPort interface
Maximum image size: 34 cm x 19 cm
Gamma: 2.20
Supported color formats: RGB 4:4:4
First detailed timing includes the native pixel format and preferred refresh rate
Display x,y Chromaticity:
  Red:   0.5800, 0.3349
  Green: 0.3300, 0.5654
  Blue:  0.1552, 0.1396
  White: 0.3134, 0.3291
Established timings supported:
Standard timings supported:
Detailed mode: Clock 144.000 MHz, 344 mm x 193 mm
               1920 2028 2076 2100 hborder 0
               1080 1090 1100 1134 vborder 0
               -hsync -vsync 
               VertFreq: 60 Hz, HorFreq: 68571 Hz
Detailed mode: Clock 96.000 MHz, 344 mm x 193 mm
               1920 2028 2076 2100 hborder 0
               1080 1090 1100 1134 vborder 0
               -hsync -vsync 
               VertFreq: 40 Hz, HorFreq: 45714 Hz
Manufacturer-specified data, tag 0
Manufacturer-specified data, tag 2
Checksum: 0x4d (valid)
EDID block does NOT conform to EDID 1.4!
	Missing name descriptor
	Missing monitor ranges
