
EDID (hex):
00ffffffffffff0006af999f00000000
a71f0104a522167803f2d5a85449a225
0f505400000001010101010101010101
0101010101018c3c80a070b028403020
a50058d7100000185d2880a070b02840
3020a50058d710000018000000000000
00000000000000000000000000000002
000c2dff103cc80c1726c8202020006c

Extracted contents:
header:          00 ff ff ff ff ff ff 00
serial number:   06 af 99 9f 00 00 00 00 a7 1f
version:         01 04
basic params:    a5 22 16 78 03
chroma info:     f2 d5 a8 54 49 a2 25 0f 50 54
established:     00 00 00
standard:        01 01 01 01 01 01 01 01 01 01 01 01 01 01 01 01
descriptor 1:    8c 3c 80 a0 70 b0 28 40 30 20 a5 00 58 d7 10 00 00 18
descriptor 2:    5d 28 80 a0 70 b0 28 40 30 20 a5 00 58 d7 10 00 00 18
descriptor 3:    00 00 00 00 00 00 00 00 00 00 00 00 00 00 00 00 00 00
descriptor 4:    00 00 00 02 00 0c 2d ff 10 3c c8 0c 17 26 c8 20 20 20
extensions:      00
checksum:        6c

EDID version: 1.4
Manufacturer: AUO Model 9f99 Serial Number --
Digital display
8 bits per primary color channel
DisplayPort interface
Maximum image size: 34 cm x 22 cm
Gamma: 2.20
Supported color formats: RGB 4:4:4
First detailed timing includes the native pixel format and preferred refresh rate
Display is continuous frequency
Display x,y Chromaticity:
  Red:   0.6591, 0.3310
  Green: 0.2851, 0.6347
  Blue:  0.1474, 0.0595
  White: 0.3134, 0.3291
Established timings supported:
Standard timings supported:
Detailed mode: Clock 155.000 MHz, 344 mm x 215 mm
               1920 1968 2000 2080 hborder 0
               1200 1210 1215 1240 vborder 0
               -hsync -vsync 
               VertFreq: 60 Hz, HorFreq: 74519 Hz
Detailed mode: Clock 103.330 MHz, 344 mm x 215 mm
               1920 1968 2000 2080 hborder 0
               1200 1210 1215 1240 vborder 0
               -hsync -vsync 
               VertFreq: 40 Hz, HorFreq: 49677 Hz
Manufacturer-specified data, tag 0
Manufacturer-specified data, tag 2
Checksum: 0x6c (valid)
EDID block does NOT conform to EDID 1.4!
	Missing name descriptor
	Missing monitor ranges
EDID block does not conform at all!
	Bad year of manufacture
	Bad week of manufacture
