
EDID (hex):
00ffffffffffff00429331025e010000
2f0c0101081f1764e81726a061589a2e
275439adce0000000000000000000000
000000000000c31e0020410020301060
130030e410000000000000fc00464535
363100000000000a2000000000fd003c
4b1f3c0800001e1600000000000000fe
004659564a324230323030333530009f

Extracted contents:
header:          00 ff ff ff ff ff ff 00
serial number:   42 93 31 02 5e 01 00 00 2f 0c
version:         01 01
basic params:    08 1f 17 64 e8
chroma info:     17 26 a0 61 58 9a 2e 27 54 39
established:     ad ce 00
standard:        00 00 00 00 00 00 00 00 00 00 00 00 00 00 00 00
descriptor 1:    c3 1e 00 20 41 00 20 30 10 60 13 00 30 e4 10 00 00 00
descriptor 2:    00 00 00 fc 00 46 45 35 36 31 00 00 00 00 00 0a 20 00
descriptor 3:    00 00 00 fd 00 3c 4b 1f 3c 08 00 00 1e 16 00 00 00 00
descriptor 4:    00 00 00 fe 00 46 59 56 4a 32 42 30 32 30 30 33 35 30
extensions:      00
checksum:        9f

EDID version: 1.1
Manufacturer: PTS Model 231 Serial Number --
Analog display, Input voltage level: 0.7/0.3 V
Sync: Separate 
Maximum image size: 31 cm x 23 cm
Gamma: 2.00
DPMS levels: Standby Suspend Off
RGB color display
Display x,y Chromaticity:
  Red:   0.6250, 0.3798
  Green: 0.3447, 0.6044
  Blue:  0.1796, 0.1542
  White: 0.3291, 0.2246
Established timings supported:
  720x400@70Hz 9:5 HorFreq: 31469 Hz Clock: 28.320 MHz
  640x480@60Hz 4:3 HorFreq: 31469 Hz Clock: 25.175 MHz
  640x480@72Hz 4:3 HorFreq: 37900 Hz Clock: 31.500 MHz
  640x480@75Hz 4:3 HorFreq: 37500 Hz Clock: 31.500 MHz
  800x600@60Hz 4:3 HorFreq: 37900 Hz Clock: 40.000 MHz
  800x600@72Hz 4:3 HorFreq: 48100 Hz Clock: 50.000 MHz
  800x600@75Hz 4:3 HorFreq: 46900 Hz Clock: 49.500 MHz
  1024x768@60Hz 4:3 HorFreq: 48400 Hz Clock: 65.000 MHz
  1024x768@70Hz 4:3 HorFreq: 56500 Hz Clock: 75.000 MHz
  1024x768@75Hz 4:3 HorFreq: 60000 Hz Clock: 78.750 MHz
Standard timings supported:
non-conformant standard timing (0 horiz)
non-conformant standard timing (0 horiz)
non-conformant standard timing (0 horiz)
non-conformant standard timing (0 horiz)
non-conformant standard timing (0 horiz)
non-conformant standard timing (0 horiz)
non-conformant standard timing (0 horiz)
non-conformant standard timing (0 horiz)
Detailed mode: Clock 78.750 MHz, 304 mm x 228 mm
               1024 1040 1136 1312 hborder 0
                768  769  772  800 vborder 0
               -hsync -vsync analog composite 
               VertFreq: 75 Hz, HorFreq: 60022 Hz
Monitor ranges (GTF): 60-75Hz V, 31-60kHz H, max dotclock 80MHz
ASCII string: FYVJ2B0200350
Checksum: 0x9f (valid)
EDID block does NOT conform to EDID 1.0!
	Has descriptor blocks other than detailed timings
One or more of the timings is out of range of the Monitor Ranges:
  Vertical Freq: 60 - 75 Hz
  Horizontal Freq: 31469 - 60022 Hz
  Maximum Clock: 78.750 MHz
EDID block does not conform at all!
	Bad year of manufacture
