
EDID (hex):
00ffffffffffff004d10591500000000
171f0104a522137807de50a3544c9926
0f505400000001010101010101010101
010101010101edec80a0703887403020
350058c2100000183c3b80a070388740
3020350058c210000018000000fd0c3c
f024243d010a202020202020000000fc
004c513135364d314a5732360a20004d

Extracted contents:
header:          00 ff ff ff ff ff ff 00
serial number:   4d 10 59 15 00 00 00 00 17 1f
version:         01 04
basic params:    a5 22 13 78 07
chroma info:     de 50 a3 54 4c 99 26 0f 50 54
established:     00 00 00
standard:        01 01 01 01 01 01 01 01 01 01 01 01 01 01 01 01
descriptor 1:    ed ec 80 a0 70 38 87 40 30 20 35 00 58 c2 10 00 00 18
descriptor 2:    3c 3b 80 a0 70 38 87 40 30 20 35 00 58 c2 10 00 00 18
descriptor 3:    00 00 00 fd 0c 3c f0 24 24 3d 01 0a 20 20 20 20 20 20
descriptor 4:    00 00 00 fc 00 4c 51 31 35 36 4d 31 4a 57 32 36 0a 20
extensions:      00
checksum:        4d

EDID version: 1.4
Manufacturer: SHP Model 1559 Serial Number --
Made in week 23 of 2021
Digital display
8 bits per primary color channel
DisplayPort interface
Maximum image size: 34 cm x 19 cm
Gamma: 2.20
Supported color formats: RGB 4:4:4
Default (sRGB) color space is primary color space
First detailed timing includes the native pixel format and preferred refresh rate
Display is continuous frequency
Display x,y Chromaticity:
  Red:   0.6396, 0.3291
  Green: 0.2998, 0.5996
  Blue:  0.1494, 0.0595
  White: 0.3125, 0.3281
Established timings supported:
Standard timings supported:
Detailed mode: Clock 606.530 MHz, 344 mm x 194 mm
               1920 1968 2000 2080 hborder 0
               1080 1083 1088 1215 vborder 0
               -hsync -vsync 
               VertFreq: 240 Hz, HorFreq: 291600 Hz
Detailed mode: Clock 151.640 MHz, 344 mm x 194 mm
               1920 1968 2000 2080 hborder 0
               1080 1083 1088 1215 vborder 0
               -hsync -vsync 
               VertFreq: 60 Hz, HorFreq: 72903 Hz
Monitor ranges (bare limits): 60-240Hz V, 36-291kHz H, max dotclock 610MHz
Monitor name: LQ156M1JW26
Checksum: 0x4d (valid)
EDID block does NOT conform to EDID 1.4!
	sRGB is signaled, but the chromaticities do not match
Warning: One or more of the timings is out of range of the Monitor Ranges:
  Vertical Freq: 60 - 240 Hz
  Horizontal Freq: 72903 - 291600 Hz
  Maximum Clock: 606.530 MHz
