
EDID (hex):
00ffffffffffff000e14751700000000
08120103801e13780aad0f9653508a27
20505400000001010101010101010101
010101010101171e0018512017303020
360030be1000001a171e001851201730
3020360030be1000001a000000fe0050
59363736813134315742332000000000
002f3d4a526f8fc0ff01010a202000e9

Extracted contents:
header:          00 ff ff ff ff ff ff 00
serial number:   0e 14 75 17 00 00 00 00 08 12
version:         01 03
basic params:    80 1e 13 78 0a
chroma info:     ad 0f 96 53 50 8a 27 20 50 54
established:     00 00 00
standard:        01 01 01 01 01 01 01 01 01 01 01 01 01 01 01 01
descriptor 1:    17 1e 00 18 51 20 17 30 30 20 36 00 30 be 10 00 00 1a
descriptor 2:    17 1e 00 18 51 20 17 30 30 20 36 00 30 be 10 00 00 1a
descriptor 3:    00 00 00 fe 00 50 59 36 37 36 81 31 34 31 57 42 33 20
descriptor 4:    00 00 00 00 00 2f 3d 4a 52 6f 8f c0 ff 01 01 0a 20 20
extensions:      00
checksum:        e9

EDID version: 1.3
Manufacturer: CPT Model 1775 Serial Number --
Made in week 8 of 2008
Digital display
Maximum image size: 30 cm x 19 cm
Gamma: 2.20
RGB color display
First detailed timing is preferred timing
Display x,y Chromaticity:
  Red:   0.5878, 0.3261
  Green: 0.3154, 0.5400
  Blue:  0.1523, 0.1250
  White: 0.3154, 0.3310
Established timings supported:
Standard timings supported:
Detailed mode: Clock 77.030 MHz, 304 mm x 190 mm
               1280 1328 1360 1560 hborder 0
                800  803  809  823 vborder 0
               +hsync -vsync 
               VertFreq: 59 Hz, HorFreq: 49378 Hz
Detailed mode: Clock 77.030 MHz, 304 mm x 190 mm
               1280 1328 1360 1560 hborder 0
                800  803  809  823 vborder 0
               +hsync -vsync 
               VertFreq: 59 Hz, HorFreq: 49378 Hz
ASCII string: PY676
Manufacturer-specified data, tag 0
Checksum: 0xe9 (valid)
EDID block does NOT conform to EDID 1.3!
	Missing name descriptor
	Missing monitor ranges
	Detailed block string not properly terminated
