
EDID (hex):
00ffffffffffff0009e5ef0900000000
311f0104a5221378035ac5955c5a9129
21505400000001010101010101010101
010101010101043a803671381e403020
360058c21000001a6a2e803671381e40
3020360058c21000001a000000fe0042
4f452043510a202020202020000000fe
004e5431353646484d2d4e36310a0044

Extracted contents:
header:          00 ff ff ff ff ff ff 00
serial number:   09 e5 ef 09 00 00 00 00 31 1f
version:         01 04
basic params:    a5 22 13 78 03
chroma info:     5a c5 95 5c 5a 91 29 21 50 54
established:     00 00 00
standard:        01 01 01 01 01 01 01 01 01 01 01 01 01 01 01 01
descriptor 1:    04 3a 80 36 71 38 1e 40 30 20 36 00 58 c2 10 00 00 1a
descriptor 2:    6a 2e 80 36 71 38 1e 40 30 20 36 00 58 c2 10 00 00 1a
descriptor 3:    00 00 00 fe 00 42 4f 45 20 43 51 0a 20 20 20 20 20 20
descriptor 4:    00 00 00 fe 00 4e 54 31 35 36 46 48 4d 2d 4e 36 31 0a
extensions:      00
checksum:        44

EDID version: 1.4
Manufacturer: BOE Model 9ef Serial Number --
Made in week 49 of 2021
Digital display
8 bits per primary color channel
DisplayPort interface
Maximum image size: 34 cm x 19 cm
Gamma: 2.20
Supported color formats: RGB 4:4:4
First detailed timing includes the native pixel format and preferred refresh rate
Display is continuous frequency
Display x,y Chromaticity:
  Red:   0.5830, 0.3603
  Green: 0.3535, 0.5683
  Blue:  0.1630, 0.1289
  White: 0.3134, 0.3291
Established timings supported:
Standard timings supported:
Detailed mode: Clock 148.520 MHz, 344 mm x 194 mm
               1920 1968 2000 2230 hborder 0
               1080 1083 1089 1110 vborder 0
               +hsync -vsync 
               VertFreq: 60 Hz, HorFreq: 66600 Hz
Detailed mode: Clock 118.820 MHz, 344 mm x 194 mm
               1920 1968 2000 2230 hborder 0
               1080 1083 1089 1110 vborder 0
               +hsync -vsync 
               VertFreq: 48 Hz, HorFreq: 53282 Hz
ASCII string: BOE CQ
ASCII string: NT156FHM-N61
Checksum: 0x44 (valid)
EDID block does NOT conform to EDID 1.4!
	Missing name descriptor
	Missing monitor ranges
