edid-decode (hex):

00 ff ff ff ff ff ff 00 30 ae 33 40 00 00 00 00
00 11 01 03 80 1e 13 78 ea 24 e5 97 54 4f 92 27
22 50 54 00 00 00 01 01 01 01 01 01 01 01 01 01
01 01 01 01 01 01 d8 27 a0 8a 51 84 1a 30 30 20
36 00 30 be 10 00 00 18 03 20 a0 48 51 84 1a 30
30 20 36 00 30 be 10 00 00 18 00 00 00 0f 00 95
0a 32 95 0a 28 14 01 00 06 af 51 25 00 00 00 fe
00 41 55 4f 42 31 34 31 50 57 30 33 56 30 00 df

----------------

Block 0, Base EDID:
  EDID Structure Version & Revision: 1.3
  Vendor & Product Identification:
    Manufacturer: LEN
    Model: 16435
    Made in: 2007
  Basic Display Parameters & Features:
    Digital display
    Maximum image size: 30 cm x 19 cm
    Gamma: 2.20
    DPMS levels: Standby Suspend Off
    RGB color display
    First detailed timing is the preferred timing
  Color Characteristics:
    Red  : 0.5898, 0.3300
    Green: 0.3095, 0.5703
    Blue : 0.1552, 0.1347
    White: 0.3134, 0.3291
  Established Timings I & II: none
  Standard Timings: none
  Detailed Timing Descriptors:
    DTD 1:  1440x900    60.060626 Hz   8:5     55.616 kHz    102.000000 MHz (304 mm x 190 mm)
                 Hfront   48 Hsync  32 Hback  314 Hpol N
                 Vfront    3 Vsync   6 Vback   17 Vpol N
    DTD 2:  1440x900    50.055950 Hz   8:5     46.352 kHz     81.950000 MHz (304 mm x 190 mm)
                 Hfront   48 Hsync  32 Hback  248 Hpol N
                 Vfront    3 Vsync   6 Vback   17 Vpol N
    Manufacturer-Specified Display Descriptor (0x0f): 00 0f 00 95 0a 32 95 0a 28 14 01 00 06 af 51 25 '.....2..(.....Q%'
    Alphanumeric Data String: 'AUOB141PW03V0'
Checksum: 0xdf

----------------

Failures:

Block 0, Base EDID:
  Missing Display Product Name.
  Missing Display Range Limits Descriptor.

EDID conformity: FAIL
