edid-decode (hex):

00 ff ff ff ff ff ff 00 30 ae 33 40 00 00 00 00
28 11 01 03 80 1e 13 78 ea 0e 05 97 57 51 8a 27
20 50 54 00 00 00 01 01 01 01 01 01 01 01 01 01
01 01 01 01 01 01 b2 25 a0 0a 51 84 2b 30 52 36
59 00 2f be 10 00 00 18 6c 1f a0 0a 51 84 2b 30
52 36 59 00 2f be 10 00 00 18 00 00 00 0f 00 95
0a 32 95 0a 28 14 01 00 0d af 34 14 00 00 00 fe
00 4e 31 34 31 43 33 2d 4c 30 35 0a 20 20 00 4c

----------------

Block 0, Base EDID:
  EDID Structure Version & Revision: 1.3
  Vendor & Product Identification:
    Manufacturer: LEN
    Model: 16435
    Made in: week 40 of 2007
  Basic Display Parameters & Features:
    Digital display
    Maximum image size: 30 cm x 19 cm
    Gamma: 2.20
    DPMS levels: Standby Suspend Off
    RGB color display
    First detailed timing is the preferred timing
  Color Characteristics:
    Red  : 0.5898, 0.3398
    Green: 0.3193, 0.5410
    Blue : 0.1523, 0.1250
    White: 0.3134, 0.3291
  Established Timings I & II: none
  Standard Timings: none
  Detailed Timing Descriptors:
    DTD 1:  1440x900    59.984162 Hz   8:5     56.565 kHz     96.500000 MHz (303 mm x 190 mm)
                 Hfront   82 Hsync  54 Hback  130 Hpol N
                 Vfront    5 Vsync   9 Vback   29 Vpol N
    DTD 2:  1440x900    50.001305 Hz   8:5     47.151 kHz     80.440000 MHz (303 mm x 190 mm)
                 Hfront   82 Hsync  54 Hback  130 Hpol N
                 Vfront    5 Vsync   9 Vback   29 Vpol N
    Manufacturer-Specified Display Descriptor (0x0f): 00 0f 00 95 0a 32 95 0a 28 14 01 00 0d af 34 14 '.....2..(.....4.'
    Alphanumeric Data String: 'N141C3-L05'
Checksum: 0x4c

----------------

Failures:

Block 0, Base EDID:
  Missing Display Product Name.
  Missing Display Range Limits Descriptor.

EDID conformity: FAIL
