edid-decode (hex):

00 ff ff ff ff ff ff 00 30 ae 33 40 00 00 00 00
00 11 01 03 80 1e 13 78 ea cd 75 91 55 4f 8b 26
21 50 54 21 08 00 01 01 01 01 01 01 01 01 01 01
01 01 01 01 01 01 30 2a a0 40 51 84 7b 30 30 20
36 00 2f be 10 00 00 19 28 23 a0 40 51 84 7b 30
30 20 36 00 2f be 10 00 00 19 00 00 00 0f 00 95
0a 32 95 0a 28 14 01 00 4c a3 42 54 00 00 00 fe
00 4c 54 4e 31 34 31 42 54 30 35 30 30 31 00 7b

----------------

Block 0, Base EDID:
  EDID Structure Version & Revision: 1.3
  Vendor & Product Identification:
    Manufacturer: LEN
    Model: 16435
    Made in: 2007
  Basic Display Parameters & Features:
    Digital display
    Maximum image size: 30 cm x 19 cm
    Gamma: 2.20
    DPMS levels: Standby Suspend Off
    RGB color display
    First detailed timing is preferred timing
  Color Characteristics:
    Red  : 0.5693, 0.3320
    Green: 0.3115, 0.5439
    Blue : 0.1494, 0.1318
    White: 0.3134, 0.3291
  Established Timings I & II:
    DMT 0x04:   640x480    59.940 Hz   4:3    31.469 kHz  25.175 MHz
    DMT 0x09:   800x600    60.317 Hz   4:3    37.879 kHz  40.000 MHz
    DMT 0x10:  1024x768    60.004 Hz   4:3    48.363 kHz  65.000 MHz
  Standard Timings: none
  Detailed Timing Descriptors:
    DTD 1:  1440x900    59.984 Hz   8:5    61.364 kHz 108.000 MHz (303 mm x 190 mm)
                 Hfront   48 Hsync  32 Hback 240 Hpol N
                 Vfront    3 Vsync   6 Vback 114 Vpol N
    DTD 2:  1440x900    49.987 Hz   8:5    51.136 kHz  90.000 MHz (303 mm x 190 mm)
                 Hfront   48 Hsync  32 Hback 240 Hpol N
                 Vfront    3 Vsync   6 Vback 114 Vpol N
    Manufacturer-Specified Display Descriptor (0x0f): 00 0f 00 95 0a 32 95 0a 28 14 01 00 4c a3 42 54 '.....2..(...L.BT'
    Alphanumeric Data String: 'LTN141BT05001'
Checksum: 0x7b

----------------

Failures:

Block 0, Base EDID:
  Missing Display Product Name.
  Missing Display Range Limits Descriptor.

EDID conformity: FAIL
