
EDID (hex):
00ffffffffffff0030ae334000000000
14120103801e1378ea87f594574f8c27
27505400000001010101010101010101
010101010101e329a09a518442307b52
8f002fbe100000181220a02451843030
583a6b002fbe100000180000000f0095
0a32950a281401000daf3914000000fe
004e31343143332d4c30370a202000b2

Extracted contents:
header:          00 ff ff ff ff ff ff 00
serial number:   30 ae 33 40 00 00 00 00 14 12
version:         01 03
basic params:    80 1e 13 78 ea
chroma info:     87 f5 94 57 4f 8c 27 27 50 54
established:     00 00 00
standard:        01 01 01 01 01 01 01 01 01 01 01 01 01 01 01 01
descriptor 1:    e3 29 a0 9a 51 84 42 30 7b 52 8f 00 2f be 10 00 00 18
descriptor 2:    12 20 a0 24 51 84 30 30 58 3a 6b 00 2f be 10 00 00 18
descriptor 3:    00 00 00 0f 00 95 0a 32 95 0a 28 14 01 00 0d af 39 14
descriptor 4:    00 00 00 fe 00 4e 31 34 31 43 33 2d 4c 30 37 0a 20 20
extensions:      00
checksum:        b2

EDID version: 1.3
Manufacturer: LEN Model 4033 Serial Number --
Made in week 20 of 2008
Digital display
Maximum image size: 30 cm x 19 cm
Gamma: 2.20
DPMS levels: Standby Suspend Off
RGB color display
First detailed timing is preferred timing
Display x,y Chromaticity:
  Red:   0.5800, 0.3398
  Green: 0.3095, 0.5498
  Blue:  0.1552, 0.1552
  White: 0.3134, 0.3291
Established timings supported:
Standard timings supported:
Detailed mode: Clock 107.230 MHz, 303 mm x 190 mm
               1440 1563 1645 1850 hborder 0
                900  908  923  966 vborder 0
               -hsync -vsync 
               VertFreq: 60 Hz, HorFreq: 57962 Hz
Detailed mode: Clock 82.100 MHz, 303 mm x 190 mm
               1440 1528 1586 1732 hborder 0
                900  906  917  948 vborder 0
               -hsync -vsync 
               VertFreq: 50 Hz, HorFreq: 47401 Hz
Manufacturer-specified data, tag 15
ASCII string: N141C3-L07
Checksum: 0xb2 (valid)
EDID block does NOT conform to EDID 1.3!
	Missing name descriptor
	Missing monitor ranges
