
EDID (hex):
00ffffffffffff003674111101000000
1e15010380331d78ee9a80a358519e25
0e505400000001010101010101010101
0101010101014038800071381440582c
4500fe1e11000000000000fc004f7074
69506c65782039303130000000fc000a
202020202020202020202020000000fc
000a20202020202020202020202000cf

Extracted contents:
header:          00 ff ff ff ff ff ff 00
serial number:   36 74 11 11 01 00 00 00 1e 15
version:         01 03
basic params:    80 33 1d 78 ee
chroma info:     9a 80 a3 58 51 9e 25 0e 50 54
established:     00 00 00
standard:        01 01 01 01 01 01 01 01 01 01 01 01 01 01 01 01
descriptor 1:    40 38 80 00 71 38 14 40 58 2c 45 00 fe 1e 11 00 00 00
descriptor 2:    00 00 00 fc 00 4f 70 74 69 50 6c 65 78 20 39 30 31 30
descriptor 3:    00 00 00 fc 00 0a 20 20 20 20 20 20 20 20 20 20 20 20
descriptor 4:    00 00 00 fc 00 0a 20 20 20 20 20 20 20 20 20 20 20 20
extensions:      00
checksum:        cf

EDID version: 1.3
Manufacturer: MST Model 1111 Serial Number --
Made in week 30 of 2011
Digital display
Maximum image size: 51 cm x 29 cm
Gamma: 2.20
DPMS levels: Standby Suspend Off
RGB color display
Default (sRGB) color space is primary color space
First detailed timing is preferred timing
Display x,y Chromaticity:
  Red:   0.6386, 0.3447
  Green: 0.3183, 0.6191
  Blue:  0.1464, 0.0546
  White: 0.3125, 0.3281
Established timings supported:
Standard timings supported:
Detailed mode: Clock 144.000 MHz, 510 mm x 286 mm
               1920 2008 2052 2176 hborder 0
               1080 1084 1089 1100 vborder 0
               -hsync -vsync analog composite 
               VertFreq: 60 Hz, HorFreq: 66176 Hz
Monitor name: OptiPlex 9010
Checksum: 0xcf (valid)
EDID block does NOT conform to EDID 1.3!
	sRGB is signaled, but the chromaticities do not match
	Missing monitor ranges
