
EDID (hex):
00ffffffffffff00593a630001010101
02140103807944780a494ba6554e9826
0f474aa5ce0001010101010101010101
010101010101023a801871382d40582c
4500baa84200001e000000fd00324d1f
460f000a202020202020000000ff0053
504753414c30313030303031000000fc
004d3535304e560a20202020202001d9
02031b71460103040590202311073883
01000067030c003000282d023a801871
382d40582c5500baa84200001e011d00
7251d01e206e285500baa84200001e00
00000000000000000000000000000000
000001ffffffffffffffffffffffffff
ffffffffffffffffffffffffffffffff
ffffffffffffffffffffffffffffffff

Extracted contents:
header:          00 ff ff ff ff ff ff 00
serial number:   59 3a 63 00 01 01 01 01 02 14
version:         01 03
basic params:    80 79 44 78 0a
chroma info:     49 4b a6 55 4e 98 26 0f 47 4a
established:     a5 ce 00
standard:        01 01 01 01 01 01 01 01 01 01 01 01 01 01 01 01
descriptor 1:    02 3a 80 18 71 38 2d 40 58 2c 45 00 ba a8 42 00 00 1e
descriptor 2:    00 00 00 fd 00 32 4d 1f 46 0f 00 0a 20 20 20 20 20 20
descriptor 3:    00 00 00 ff 00 53 50 47 53 41 4c 30 31 30 30 30 30 31
descriptor 4:    00 00 00 fc 00 4d 35 35 30 4e 56 0a 20 20 20 20 20 20
extensions:      01
checksum:        d9

EDID version: 1.3
Manufacturer: VIZ Model 63 Serial Number --
Made in week 2 of 2010
Digital display
Maximum image size: 121 cm x 68 cm
Gamma: 2.20
RGB color display
First detailed timing is preferred timing
Display x,y Chromaticity:
  Red:   0.6494, 0.3320
  Green: 0.3066, 0.5947
  Blue:  0.1494, 0.0585
  White: 0.2792, 0.2919
Established timings supported:
  720x400@70Hz 9:5 HorFreq: 31469 Hz Clock: 28.320 MHz
  640x480@60Hz 4:3 HorFreq: 31469 Hz Clock: 25.175 MHz
  640x480@75Hz 4:3 HorFreq: 37500 Hz Clock: 31.500 MHz
  800x600@60Hz 4:3 HorFreq: 37900 Hz Clock: 40.000 MHz
  800x600@72Hz 4:3 HorFreq: 48100 Hz Clock: 50.000 MHz
  800x600@75Hz 4:3 HorFreq: 46900 Hz Clock: 49.500 MHz
  1024x768@60Hz 4:3 HorFreq: 48400 Hz Clock: 65.000 MHz
  1024x768@70Hz 4:3 HorFreq: 56500 Hz Clock: 75.000 MHz
  1024x768@75Hz 4:3 HorFreq: 60000 Hz Clock: 78.750 MHz
Standard timings supported:
Detailed mode: Clock 148.500 MHz, 1210 mm x 680 mm
               1920 2008 2052 2200 hborder 0
               1080 1084 1089 1125 vborder 0
               +hsync +vsync 
               VertFreq: 60 Hz, HorFreq: 67500 Hz
Monitor ranges (GTF): 50-77Hz V, 31-70kHz H, max dotclock 150MHz
Serial number: --
Monitor name: M550NV
Has 1 extension blocks
Checksum: 0xd9 (valid)

CTA extension block
Extension version: 3
23 bytes of CTA data
  Video data block
    VIC   1 640x480@60Hz 4:3  HorFreq: 31469 Hz Clock: 25.175 MHz
    VIC   3 720x480@60Hz 16:9  HorFreq: 31469 Hz Clock: 27.000 MHz
    VIC   4 1280x720@60Hz 16:9  HorFreq: 45000 Hz Clock: 74.250 MHz
    VIC   5 1920x1080i@60Hz 16:9  HorFreq: 33750 Hz Clock: 74.250 MHz
    VIC  16 1920x1080@60Hz 16:9 (native) HorFreq: 67500 Hz Clock: 148.500 MHz
    VIC  32 1920x1080@24Hz 16:9  HorFreq: 27000 Hz Clock: 74.250 MHz
  Audio data block
    AC-3, max channels 2
      Supported sample rates (kHz): 48 44.1 32
      Maximum bit rate: 448 kHz
  Speaker allocation data block
    Speaker map:
      FL/FR - Front Left/Right
  Vendor-specific data block, OUI 000c03 (HDMI)
    Source physical address 3.0.0.0
    DC_36bit
    DC_Y444
    Maximum TMDS clock: 225MHz
Basic audio support
Supports YCbCr 4:4:4
Supports YCbCr 4:2:2
1 native detailed modes
Detailed mode: Clock 148.500 MHz, 1210 mm x 680 mm
               1920 2008 2052 2200 hborder 0
               1080 1085 1090 1125 vborder 0
               +hsync +vsync 
               VertFreq: 60 Hz, HorFreq: 67500 Hz
Detailed mode: Clock 74.250 MHz, 1210 mm x 680 mm
               1280 1390 1430 1650 hborder 0
                720  725  730  750 vborder 0
               +hsync +vsync 
               VertFreq: 60 Hz, HorFreq: 45000 Hz
Detailed mode: Clock 655.350 MHz, 4095 mm x 4095 mm
               4095 5118 6141 8190 hborder 255
               4095 4158 4221 8190 vborder 255
               +hsync +vsync interlaced side by side interleaved
               VertFreq: 9 Hz, HorFreq: 80018 Hz
Checksum: 0xff (should be 0x84)

One or more of the timings is out of range of the Monitor Ranges:
  Vertical Freq: 9 - 75 Hz
  Horizontal Freq: 27000 - 80018 Hz
  Maximum Clock: 655.350 MHz
EDID block does not conform at all!
	Both the serial number and the serial string are set
CTA extension block does not conform
	Block has broken checksum


