edid-decode (hex):

00 ff ff ff ff ff ff 00 30 ae 81 90 00 00 00 00
00 1c 01 04 a5 26 16 78 03 89 15 a4 55 4e a0 28
0d 50 54 00 00 00 01 01 01 01 01 01 01 01 01 01
01 01 01 01 01 01 14 37 80 b4 70 38 26 40 10 10
3e 00 7e d7 10 00 00 18 00 00 00 0f 00 30 3c 00
00 00 00 00 00 00 00 00 00 20 00 00 00 fe 00 41
55 4f 0a 20 20 20 20 20 20 20 20 20 00 00 00 fe
00 42 31 37 33 48 41 4e 30 34 2e 33 20 0a 00 7b

00 ff ff ff ff ff ff 00 30 ae 81 90 00 00 00 00
00 1c 01 04 a5 26 16 78 03 89 15 a4 55 4e a0 28
0d 50 54 00 00 00 01 01 01 01 01 01 01 01 01 01
01 01 01 01 01 01 14 37 80 b4 70 38 26 40 10 10
3e 00 7e d7 10 00 00 18 00 00 00 0f 00 30 3c 00
00 00 00 00 00 00 00 00 00 20 00 00 00 fe 00 41
55 4f 0a 20 20 20 20 20 20 20 20 20 00 00 00 fe
00 42 31 37 33 48 41 4e 30 34 2e 33 20 0a 00 7b

----------------

Block 0, Base EDID:
  EDID Structure Version & Revision: 1.4
  Vendor & Product Identification:
    Manufacturer: LEN
    Model: 36993
    Made in: 2018
  Basic Display Parameters & Features:
    Digital display
    Bits per primary color channel: 8
    DisplayPort interface
    Maximum image size: 38 cm x 22 cm
    Gamma: 2.20
    Supported color formats: RGB 4:4:4
    First detailed timing includes the native pixel format and preferred refresh rate
    Display is continuous frequency
  Color Characteristics:
    Red  : 0.6425, 0.3320
    Green: 0.3066, 0.6259
    Blue : 0.1562, 0.0517
    White: 0.3134, 0.3291
  Established Timings I & II: none
  Standard Timings: none
  Detailed Timing Descriptors:
    DTD 1:  1920x1080   60.056223 Hz  16:9     67.143 kHz    141.000000 MHz (382 mm x 215 mm)
                 Hfront   16 Hsync  16 Hback  148 Hpol N
                 Vfront    3 Vsync  14 Vback   21 Vpol N
    Manufacturer-Specified Display Descriptor (0x0f): 00 0f 00 30 3c 00 00 00 00 00 00 00 00 00 00 20 '...0<.......... '
    Alphanumeric Data String: 'AUO'
    Alphanumeric Data String: 'B173HAN04.3 '
Checksum: 0x7b

----------------

Block 1, Unknown EDID Extension Block 0x00:
  00 ff ff ff ff ff ff 00 30 ae 81 90 00 00 00 00 '........0.......'
  00 1c 01 04 a5 26 16 78 03 89 15 a4 55 4e a0 28 '.....&.x....UN.('
  0d 50 54 00 00 00 01 01 01 01 01 01 01 01 01 01 '.PT.............'
  01 01 01 01 01 01 14 37 80 b4 70 38 26 40 10 10 '.......7..p8&@..'
  3e 00 7e d7 10 00 00 18 00 00 00 0f 00 30 3c 00 '>.~..........0<.'
  00 00 00 00 00 00 00 00 00 20 00 00 00 fe 00 41 '......... .....A'
  55 4f 0a 20 20 20 20 20 20 20 20 20 00 00 00 fe 'UO.         ....'
  00 42 31 37 33 48 41 4e 30 34 2e 33 20 0a 00 7b '.B173HAN04.3 ..{'
Checksum: 0x7b

----------------

Warnings:

Block 0, Base EDID:
  Missing Display Product Name.

Failures:

Block 0, Base EDID:
  Alphanumeric Data String: One or more trailing spaces.
  Missing Display Range Limits Descriptor.
Block 1, Base EDID:
  Unknown Extension Block.
EDID:
  Base EDID: EDID specified 0 extension block(s), but found 1 extension block(s).

EDID conformity: FAIL
