
EDID (hex):
00ffffffffffff0006af882000000000
01110103802517780a6beaa7564c9b25
12545400000001010101010101010101
010101010101543d80a070b017403020
36006fe5100000180000000f00000000
00000000000000000020000000fe0041
554f0a202020202020202020000000fe
004231373055573032205630200a0011

Extracted contents:
header:          00 ff ff ff ff ff ff 00
serial number:   06 af 88 20 00 00 00 00 01 11
version:         01 03
basic params:    80 25 17 78 0a
chroma info:     6b ea a7 56 4c 9b 25 12 54 54
established:     00 00 00
standard:        01 01 01 01 01 01 01 01 01 01 01 01 01 01 01 01
descriptor 1:    54 3d 80 a0 70 b0 17 40 30 20 36 00 6f e5 10 00 00 18
descriptor 2:    00 00 00 0f 00 00 00 00 00 00 00 00 00 00 00 00 00 20
descriptor 3:    00 00 00 fe 00 41 55 4f 0a 20 20 20 20 20 20 20 20 20
descriptor 4:    00 00 00 fe 00 42 31 37 30 55 57 30 32 20 56 30 20 0a
extensions:      00
checksum:        11

EDID version: 1.3
Manufacturer: AUO Model 2088 Serial Number --
Made in week 1 of 2007
Digital display
Maximum image size: 37 cm x 23 cm
Gamma: 2.20
RGB color display
First detailed timing is preferred timing
Display x,y Chromaticity:
  Red:   0.6533, 0.3378
  Green: 0.2988, 0.6083
  Blue:  0.1474, 0.0722
  White: 0.3300, 0.3300
Established timings supported:
Standard timings supported:
Detailed mode: Clock 157.000 MHz, 367 mm x 229 mm
               1920 1968 2000 2080 hborder 0
               1200 1203 1209 1223 vborder 0
               -hsync -vsync 
               VertFreq: 61 Hz, HorFreq: 75480 Hz
Manufacturer-specified data, tag 15
ASCII string: AUO
ASCII string: B170UW02 V0 
Checksum: 0x11 (valid)
EDID block does NOT conform to EDID 1.3!
	Missing name descriptor
	Missing monitor ranges
