
EDID (hex):
00ffffffffffff000696000000000000
0216010381522e780bd9b0a357499c25
11494ba10c009500b30081c081008140
818081c0d1c01b2150a051001e304888
35000000000000000e1f008051001e30
40803700000000000000000000000000
000000000000000000000000000000fc
004d5432370a20202020202020200129

Extracted contents:
header:          00 ff ff ff ff ff ff 00
serial number:   06 96 00 00 00 00 00 00 02 16
version:         01 03
basic params:    81 52 2e 78 0b
chroma info:     d9 b0 a3 57 49 9c 25 11 49 4b
established:     a1 0c 00
standard:        95 00 b3 00 81 c0 81 00 81 40 81 80 81 c0 d1 c0
descriptor 1:    1b 21 50 a0 51 00 1e 30 48 88 35 00 00 00 00 00 00 00
descriptor 2:    0e 1f 00 80 51 00 1e 30 40 80 37 00 00 00 00 00 00 00
descriptor 3:    00 00 00 00 00 00 00 00 00 00 00 00 00 00 00 00 00 00
descriptor 4:    00 00 00 fc 00 4d 54 32 37 0a 20 20 20 20 20 20 20 20
extensions:      01
checksum:        29

EDID version: 1.3
Manufacturer: ATV Model 0 Serial Number --
Made in week 2 of 2012
Digital display
DFP 1.x compatible TMDS
Maximum image size: 82 cm x 46 cm
Gamma: 2.20
RGB color display
First detailed timing is preferred timing
Supports GTF timings within operating range
Display x,y Chromaticity:
  Red:   0.6396, 0.3408
  Green: 0.2871, 0.6103
  Blue:  0.1464, 0.0693
  White: 0.2851, 0.2929
Established timings supported:
  720x400@70Hz 9:5 HorFreq: 31469 Hz Clock: 28.320 MHz
  640x480@60Hz 4:3 HorFreq: 31469 Hz Clock: 25.175 MHz
  800x600@60Hz 4:3 HorFreq: 37900 Hz Clock: 40.000 MHz
  1024x768@60Hz 4:3 HorFreq: 48400 Hz Clock: 65.000 MHz
  1024x768@70Hz 4:3 HorFreq: 56500 Hz Clock: 75.000 MHz
Standard timings supported:
  1440x900@60Hz 16:10 HorFreq: 55500 Hz Clock: 88.750 MHz
  1680x1050@60Hz 16:10 HorFreq: 64700 Hz Clock: 119.000 MHz
  1280x720@60Hz 16:9
  1280x800@60Hz 16:10
  1280x960@60Hz 4:3 HorFreq: 60000 Hz Clock: 108.000 MHz
  1280x1024@60Hz 5:4 HorFreq: 64000 Hz Clock: 108.000 MHz
  1280x720@60Hz 16:9
  1920x1080@60Hz 16:9
Detailed mode: Clock 84.750 MHz, 0 mm x 0 mm
               1360 1432 1568 1776 hborder 0
                768  771  776  798 vborder 0
               -hsync -vsync analog composite 
               VertFreq: 59 Hz, HorFreq: 47719 Hz
Detailed mode: Clock 79.500 MHz, 0 mm x 0 mm
               1280 1344 1472 1664 hborder 0
                768  771  778  798 vborder 0
               -hsync -vsync analog composite 
               VertFreq: 59 Hz, HorFreq: 47776 Hz
Manufacturer-specified data, tag 0
Monitor name: MT27
Has 1 extension blocks
Checksum: 0x29 (valid)
EDID block does NOT conform to EDID 1.3!
	Missing monitor ranges
