
EDID (hex):
00ffffffffffff0006afa86d00000000
00200104a51e137803e035ad5144b227
0c505400000001010101010101010101
0101010101013ed800a0a04060603020
35002dbc10000018206c00a0a0406060
302035002dbc10000018000000000000
00000000000000000000000000000002
000c24ff133cfa1e1046fa202020013f
70207902002200146b720884ff099f00
2f801f003f065f00020004002501096b
72086b7208307880810010721a000003
01307800006a496a4978000000000000
00000000000000000000000000000000
00000000000000000000000000000000
00000000000000000000000000000000
0000000000000000000000000000df90

edid-decode (hex):

00 ff ff ff ff ff ff 00 06 af a8 6d 00 00 00 00
00 20 01 04 a5 1e 13 78 03 e0 35 ad 51 44 b2 27
0c 50 54 00 00 00 01 01 01 01 01 01 01 01 01 01
01 01 01 01 01 01 3e d8 00 a0 a0 40 60 60 30 20
35 00 2d bc 10 00 00 18 20 6c 00 a0 a0 40 60 60
30 20 35 00 2d bc 10 00 00 18 00 00 00 00 00 00
00 00 00 00 00 00 00 00 00 00 00 00 00 00 00 02
00 0c 24 ff 13 3c fa 1e 10 46 fa 20 20 20 01 3f

70 20 79 02 00 22 00 14 6b 72 08 84 ff 09 9f 00
2f 80 1f 00 3f 06 5f 00 02 00 04 00 25 01 09 6b
72 08 6b 72 08 30 78 80 81 00 10 72 1a 00 00 03
01 30 78 00 00 6a 49 6a 49 78 00 00 00 00 00 00
00 00 00 00 00 00 00 00 00 00 00 00 00 00 00 00
00 00 00 00 00 00 00 00 00 00 00 00 00 00 00 00
00 00 00 00 00 00 00 00 00 00 00 00 00 00 00 00
00 00 00 00 00 00 00 00 00 00 00 00 00 00 df 90

----------------

Block 0, Base EDID:
  EDID Structure Version & Revision: 1.4
  Vendor & Product Identification:
    Manufacturer: AUO
    Model: 28072
    Made in: 2022
  Basic Display Parameters & Features:
    Digital display
    Bits per primary color channel: 8
    DisplayPort interface
    Maximum image size: 30 cm x 19 cm
    Gamma: 2.20
    Supported color formats: RGB 4:4:4
    First detailed timing includes the native pixel format and preferred refresh rate
    Display is continuous frequency
  Color Characteristics:
    Red  : 0.6787, 0.3183
    Green: 0.2656, 0.6953
    Blue : 0.1523, 0.0498
    White: 0.3134, 0.3291
  Established Timings I & II: none
  Standard Timings: none
  Detailed Timing Descriptors:
    DTD 1:  2560x1600  120.001214 Hz  16:10   203.522 kHz    553.580000 MHz (301 mm x 188 mm)
                 Hfront   48 Hsync  32 Hback   80 Hpol N
                 Vfront    3 Vsync   5 Vback   88 Vpol N
    DTD 2:  2560x1600   60.002775 Hz  16:10   101.765 kHz    276.800000 MHz (301 mm x 188 mm)
                 Hfront   48 Hsync  32 Hback   80 Hpol N
                 Vfront    3 Vsync   5 Vback   88 Vpol N
    Empty Descriptor
    Manufacturer-Specified Display Descriptor (0x02): 00 02 00 0c 24 ff 13 3c fa 1e 10 46 fa 20 20 20 '....$..<...F.   '
  Extension blocks: 1
Checksum: 0x3f

----------------

Block 1, DisplayID Extension Block:
  Version: 2.0
  Extension Count: 0
  Display Product Primary Use Case: None of the listed primary use cases; generic display
  Video Timing Modes Type 7 - Detailed Timings Data Block:
    DTD:  2560x1600  120.001214 Hz  16:9    203.522 kHz    553.580000 MHz (aspect 16:9, no 3D stereo, preferred)
               Hfront   48 Hsync  32 Hback   80 Hpol P
               Vfront    3 Vsync   5 Vback   88 Vpol N
  Dynamic Video Timing Range Limits Data Block:
    Minimum Pixel Clock: 553580 kHz
    Maximum Pixel Clock: 553580 kHz
    Minimum Vertical Refresh Rate: 48 Hz
    Maximum Vertical Refresh Rate: 120 Hz
    Seamless Dynamic Video Timing Support: Yes
  CTA-861 DisplayID Data Block:
  Vendor-Specific Data Block (AMD), OUI 00-00-1A:
    Version: 3.1
    Minimum Refresh Rate: 48 Hz
    Maximum Refresh Rate: 120 Hz
    Flags 1.x: 0x00
    Flags 2.x: 0x00
    Maximum luminance: 106 (496.743 cd/m^2)
    Minimum luminance: 73 (0.407 cd/m^2)
    Unknown: 0x6a 0x49
  Checksum: 0xdf
Checksum: 0x90
