
EDID (hex):
00ffffffffffff004a8b1a1b00000000
2b1e0103a20000783e6435a5544f9e27
125054210800d1c0a9c081c001010101
01010101010140d000a0f0703e803020
350061632100001a000000fc0052544b
20554844204844520a20000000ff0064
656d6f7365742d310a203020000000fd
00283d1e873c000a202020202020014f
020348f151044c5d5e5f606100000000
006768696a6be305c00023097f078301
0000e50f00000c0067030c0010003878
67d85dc401788801e606050169694f68
1a00000101283de6023a801871382d40
582c450061632100001e565e00a0a0a0
29503020350061632100001e00000000
00000000000000000000000000000096

Extracted contents:
header:          00 ff ff ff ff ff ff 00
serial number:   4a 8b 1a 1b 00 00 00 00 2b 1e
version:         01 03
basic params:    a2 00 00 78 3e
chroma info:     64 35 a5 54 4f 9e 27 12 50 54
established:     21 08 00
standard:        d1 c0 a9 c0 81 c0 01 01 01 01 01 01 01 01 01 01
descriptor 1:    40 d0 00 a0 f0 70 3e 80 30 20 35 00 61 63 21 00 00 1a
descriptor 2:    00 00 00 fc 00 52 54 4b 20 55 48 44 20 48 44 52 0a 20
descriptor 3:    00 00 00 ff 00 64 65 6d 6f 73 65 74 2d 31 0a 20 30 20
descriptor 4:    00 00 00 fd 00 28 3d 1e 87 3c 00 0a 20 20 20 20 20 20
extensions:      01
checksum:        4f

EDID version: 1.3
Manufacturer: RTK Model 1b1a Serial Number --
Made in week 43 of 2020
Digital display
Image size is variable
Gamma: 2.20
DPMS levels: Off
Undefined display color type
Default (sRGB) color space is primary color space
First detailed timing is preferred timing
Display x,y Chromaticity:
  Red:   0.6455, 0.3300
  Green: 0.3095, 0.6171
  Blue:  0.1523, 0.0732
  White: 0.3134, 0.3291
Established timings supported:
  640x480@60Hz 4:3 HorFreq: 31469 Hz Clock: 25.175 MHz
  800x600@60Hz 4:3 HorFreq: 37900 Hz Clock: 40.000 MHz
  1024x768@60Hz 4:3 HorFreq: 48400 Hz Clock: 65.000 MHz
Standard timings supported:
  1920x1080@60Hz 16:9
  1600x900@60Hz 16:9
  1280x720@60Hz 16:9
Detailed mode: Clock 533.120 MHz, 609 mm x 355 mm
               3840 3888 3920 4000 hborder 0
               2160 2163 2168 2222 vborder 0
               +hsync -vsync 
               VertFreq: 59 Hz, HorFreq: 133280 Hz
Monitor name: RTK UHD HDR
Serial number: --
Monitor ranges (GTF): 40-61Hz V, 30-135kHz H, max dotclock 600MHz
Has 1 extension blocks
Checksum: 0x4f (valid)

CTA extension block
Extension version: 3
68 bytes of CTA data
  Video data block
    VIC   4 1280x720@60Hz 16:9  HorFreq: 45000 Hz Clock: 74.250 MHz
    VIC  76 1920x1080@60Hz 64:27  HorFreq: 67500 Hz Clock: 148.500 MHz
    VIC  93 3840x2160@24Hz 16:9  HorFreq: 54000 Hz Clock: 297.000 MHz
    VIC  94 3840x2160@25Hz 16:9  HorFreq: 56250 Hz Clock: 297.000 MHz
    VIC  95 3840x2160@30Hz 16:9  HorFreq: 67500 Hz Clock: 297.000 MHz
    VIC  96 3840x2160@50Hz 16:9  HorFreq: 112500 Hz Clock: 594.000 MHz
    VIC  97 3840x2160@60Hz 16:9  HorFreq: 135000 Hz Clock: 594.000 MHz
    VIC 103 3840x2160@24Hz 64:27  HorFreq: 54000 Hz Clock: 297.000 MHz
    VIC 104 3840x2160@25Hz 64:27  HorFreq: 56250 Hz Clock: 297.000 MHz
    VIC 105 3840x2160@30Hz 64:27  HorFreq: 67500 Hz Clock: 297.000 MHz
    VIC 106 3840x2160@50Hz 64:27  HorFreq: 112500 Hz Clock: 594.000 MHz
    VIC 107 3840x2160@60Hz 64:27  HorFreq: 135000 Hz Clock: 594.000 MHz
  Extended tag: Colorimetry data block
    BT2020YCC
    BT2020RGB
  Audio data block
    Linear PCM, max channels 2
      Supported sample rates (kHz): 192 176.4 96 88.2 48 44.1 32
      Supported sample sizes (bits): 24 20 16
  Speaker allocation data block
    Speaker map:
      FL/FR - Front Left/Right
  Extended tag: YCbCr 4:2:0 capability map data block
    VSD Index 18
    VSD Index 19
  Vendor-specific data block, OUI 000c03 (HDMI)
    Source physical address 1.0.0.0
    DC_36bit
    DC_30bit
    DC_Y444
    Maximum TMDS clock: 600MHz
  Vendor-specific data block, OUI c45dd8 (HDMI Forum)
    Version: 1
    Maximum TMDS Character Rate: 600MHz
    SCDC Present
    Supports scrambling for <= 340 Mcsc
    Supports 10-bits/component Deep Color 4:2:0 Pixel Encoding
  Extended tag: HDR static metadata data block
    Electro optical transfer functions:
      Traditional gamma - SDR luminance range
      SMPTE ST2084
    Supported static metadata descriptors:
      Static metadata type 1
    Desired content max luminance: 105 (486.099 cd/m^2)
    Desired content max frame-average luminance: 105 (486.099 cd/m^2)
    Desired content min luminance: 79 (0.467 cd/m^2)
  Vendor-specific data block, OUI 00001a
Underscans PC formats by default
Basic audio support
Supports YCbCr 4:4:4
Supports YCbCr 4:2:2
1 native detailed modes
Detailed mode: Clock 148.500 MHz, 609 mm x 355 mm
               1920 2008 2052 2200 hborder 0
               1080 1084 1089 1125 vborder 0
               +hsync +vsync 
               VertFreq: 60 Hz, HorFreq: 67500 Hz
Detailed mode: Clock 241.500 MHz, 609 mm x 355 mm
               2560 2608 2640 2720 hborder 0
               1440 1443 1448 1481 vborder 0
               +hsync +vsync 
               VertFreq: 59 Hz, HorFreq: 88786 Hz
Checksum: 0x96 (valid)

EDID block does NOT conform to EDID 1.3!
	sRGB is signaled, but the chromaticities do not match
	Digital display field contains garbage: 22
	HDMI VSDB Max TMDS rate is > 340
One or more of the timings is out of range of the Monitor Ranges:
  Vertical Freq: 24 - 60 Hz
  Horizontal Freq: 31469 - 135000 Hz
  Maximum Clock: 594.000 MHz


