
EDID (hex):
00ffffffffffff0006afa3f400000000
17200104a52216780368b5a954489e24
0d505400000001010101010101010101
010101010101926800a0a04028603020
aa0058d7100000180000000f00000000
00000000000000000020000000fd0c3c
f08b8b6b010a202020202020000000fe
004231363051414e30322e32200a019a
701379000003011434a20184ff099f00
2f001f003f0627000900090000000000
00000000000000000000000000000000
00000000000000000000000000000000
00000000000000000000000000000000
00000000000000000000000000000000
00000000000000000000000000000000
00000000000000000000000000008e90

edid-decode (hex):

00 ff ff ff ff ff ff 00 06 af a3 f4 00 00 00 00
17 20 01 04 a5 22 16 78 03 68 b5 a9 54 48 9e 24
0d 50 54 00 00 00 01 01 01 01 01 01 01 01 01 01
01 01 01 01 01 01 92 68 00 a0 a0 40 28 60 30 20
aa 00 58 d7 10 00 00 18 00 00 00 0f 00 00 00 00
00 00 00 00 00 00 00 00 00 20 00 00 00 fd 0c 3c
f0 8b 8b 6b 01 0a 20 20 20 20 20 20 00 00 00 fe
00 42 31 36 30 51 41 4e 30 32 2e 32 20 0a 01 9a

70 13 79 00 00 03 01 14 34 a2 01 84 ff 09 9f 00
2f 00 1f 00 3f 06 27 00 09 00 09 00 00 00 00 00
00 00 00 00 00 00 00 00 00 00 00 00 00 00 00 00
00 00 00 00 00 00 00 00 00 00 00 00 00 00 00 00
00 00 00 00 00 00 00 00 00 00 00 00 00 00 00 00
00 00 00 00 00 00 00 00 00 00 00 00 00 00 00 00
00 00 00 00 00 00 00 00 00 00 00 00 00 00 00 00
00 00 00 00 00 00 00 00 00 00 00 00 00 00 8e 90

----------------

Block 0, Base EDID:
  EDID Structure Version & Revision: 1.4
  Vendor & Product Identification:
    Manufacturer: AUO
    Model: 62627
    Made in: week 23 of 2022
  Basic Display Parameters & Features:
    Digital display
    Bits per primary color channel: 8
    DisplayPort interface
    Maximum image size: 34 cm x 22 cm
    Gamma: 2.20
    Supported color formats: RGB 4:4:4
    First detailed timing includes the native pixel format and preferred refresh rate
    Display is continuous frequency
  Color Characteristics:
    Red  : 0.6611, 0.3300
    Green: 0.2832, 0.6171
    Blue : 0.1425, 0.0537
    White: 0.3134, 0.3291
  Established Timings I & II: none
  Standard Timings: none
  Detailed Timing Descriptors:
    DTD 1:  2560x1600   60.011657 Hz  16:10    98.419 kHz    267.700000 MHz (344 mm x 215 mm)
                 Hfront   48 Hsync  32 Hback   80 Hpol N
                 Vfront   10 Vsync  10 Vback   20 Vpol N
    Manufacturer-Specified Display Descriptor (0x0f): 00 0f 00 00 00 00 00 00 00 00 00 00 00 00 00 20 '............... '
    Display Range Limits:
      Monitor ranges (Bare Limits): 60-240 Hz V, 394-394 kHz H, max dotclock 1070 MHz
    Alphanumeric Data String: 'B160QAN02.2 '
  Extension blocks: 1
Checksum: 0x9a

----------------

Block 1, DisplayID Extension Block:
  Version: 1.3
  Extension Count: 0
  Display Product Type: Extension Section
  Video Timing Modes Type 1 - Detailed Timings Data Block:
    DTD:  2560x1600  240.004035 Hz  16:9    393.607 kHz   1070.610000 MHz (aspect 16:9, no 3D stereo, preferred)
               Hfront   48 Hsync  32 Hback   80 Hpol N
               Vfront   10 Vsync  10 Vback   20 Vpol N
  Checksum: 0x8e
Checksum: 0x90
