edid-decode (hex):

00 ff ff ff ff ff ff 00 0e d4 68 46 00 00 00 00
23 14 01 03 00 24 1d 78 ef 0d c2 a0 57 47 98 27
12 48 4f bf ce 00 01 01 01 01 01 01 01 01 b3 00
81 80 01 01 01 01 94 43 80 90 72 38 28 40 58 c8
45 00 13 29 21 00 00 1e d0 20 00 90 51 20 1f 30
10 90 17 00 4a 00 10 00 00 1c 0e 1f 00 80 51 00
1e 30 40 80 37 00 f8 c2 21 00 00 1c 66 21 50 b0
51 00 1b 30 40 70 36 00 f8 c2 21 00 00 1e 00 4f

00 ff ff ff ff ff ff 00 0e d4 68 46 00 00 00 00
23 14 01 03 00 24 1d 78 ef 0d c2 a0 57 47 98 27
12 48 4f bf ce 00 01 01 01 01 01 01 01 01 b3 00
81 80 01 01 01 01 94 43 80 90 72 38 28 40 58 c8
45 00 13 29 21 00 00 1e d0 20 00 90 51 20 1f 30
10 90 17 00 4a 00 10 00 00 1c 0e 1f 00 80 51 00
1e 30 40 80 37 00 f8 c2 21 00 00 1c 66 21 50 b0
51 00 1b 30 40 70 36 00 f8 c2 21 00 00 1e 00 4f

----------------

Block 0, Base EDID:
  EDID Structure Version & Revision: 1.3
  Vendor & Product Identification:
    Manufacturer: CVT
    Model: 18024
    Made in: week 35 of 2010
  Basic Display Parameters & Features:
    Analog display
    Signal Level Standard: 0.700 : 0.300 : 1.000 V p-p
    Blank level equals black level
    Maximum image size: 36 cm x 29 cm
    Gamma: 2.20
    DPMS levels: Standby Suspend Off
    RGB color display
    Default (sRGB) color space is primary color space
    First detailed timing is the preferred timing
    Supports GTF timings within operating range
  Color Characteristics:
    Red  : 0.6250, 0.3398
    Green: 0.2802, 0.5947
    Blue : 0.1552, 0.0703
    White: 0.2812, 0.3105
  Established Timings I & II:
    IBM     :   720x400    70.081663 Hz   9:5     31.467 kHz     28.320000 MHz
    DMT 0x04:   640x480    59.940476 Hz   4:3     31.469 kHz     25.175000 MHz
    Apple   :   640x480    66.666667 Hz   4:3     35.000 kHz     30.240000 MHz
    DMT 0x05:   640x480    72.808802 Hz   4:3     37.861 kHz     31.500000 MHz
    DMT 0x06:   640x480    75.000000 Hz   4:3     37.500 kHz     31.500000 MHz
    DMT 0x08:   800x600    56.250000 Hz   4:3     35.156 kHz     36.000000 MHz
    DMT 0x09:   800x600    60.316541 Hz   4:3     37.879 kHz     40.000000 MHz
    DMT 0x0a:   800x600    72.187572 Hz   4:3     48.077 kHz     50.000000 MHz
    DMT 0x0b:   800x600    75.000000 Hz   4:3     46.875 kHz     49.500000 MHz
    DMT 0x10:  1024x768    60.003840 Hz   4:3     48.363 kHz     65.000000 MHz
    DMT 0x11:  1024x768    70.069359 Hz   4:3     56.476 kHz     75.000000 MHz
    DMT 0x12:  1024x768    75.028582 Hz   4:3     60.023 kHz     78.750000 MHz
  Standard Timings:
    DMT 0x3a:  1680x1050   59.954250 Hz  16:10    65.290 kHz    146.250000 MHz
    DMT 0x23:  1280x1024   60.019740 Hz   5:4     63.981 kHz    108.000000 MHz
  Detailed Timing Descriptors:
    DTD 1:  1920x1080   59.962844 Hz  16:9     67.158 kHz    173.000000 MHz (531 mm x 297 mm)
                 Hfront   88 Hsync 200 Hback  368 Hpol P
                 Vfront    4 Vsync   5 Vback   31 Vpol P
    DTD 2:  1280x800    60.168472 Hz  16:10    50.000 kHz     84.000000 MHz (330 mm x 0 mm)
                 Hfront   16 Hsync 144 Hback  240 Hpol N
                 Vfront    1 Vsync   7 Vback   23 Vpol P
    DTD 3:  1280x768    59.870228 Hz   5:3     47.776 kHz     79.500000 MHz (760 mm x 450 mm)
                 Hfront   64 Hsync 128 Hback  192 Hpol N
                 Vfront    3 Vsync   7 Vback   20 Vpol P
    DTD 4:  1360x768    60.015162 Hz  85:48    47.712 kHz     85.500000 MHz (760 mm x 450 mm)
                 Hfront   64 Hsync 112 Hback  256 Hpol P
                 Vfront    3 Vsync   6 Vback   18 Vpol P
Checksum: 0x4f

----------------

Block 1, Unknown EDID Extension Block 0x00:
  00 ff ff ff ff ff ff 00 0e d4 68 46 00 00 00 00 '..........hF....'
  23 14 01 03 00 24 1d 78 ef 0d c2 a0 57 47 98 27 '#....$.x....WG.''
  12 48 4f bf ce 00 01 01 01 01 01 01 01 01 b3 00 '.HO.............'
  81 80 01 01 01 01 94 43 80 90 72 38 28 40 58 c8 '.......C..r8(@X.'
  45 00 13 29 21 00 00 1e d0 20 00 90 51 20 1f 30 'E..)!.... ..Q .0'
  10 90 17 00 4a 00 10 00 00 1c 0e 1f 00 80 51 00 '....J.........Q.'
  1e 30 40 80 37 00 f8 c2 21 00 00 1c 66 21 50 b0 '.0@.7...!...f!P.'
  51 00 1b 30 40 70 36 00 f8 c2 21 00 00 1e 00 4f 'Q..0@p6...!....O'
Checksum: 0x4f

----------------

Failures:

Block 0, Base EDID:
  Basic Display Parameters & Features: sRGB is signaled, but the chromaticities do not match.
  Detailed Timing Descriptor #1: Mismatch of image size 531x297 mm vs display size 360x290 mm.
  Detailed Timing Descriptor #2: Mismatch of image size 330x0 mm vs display size 360x290 mm.
  Detailed Timing Descriptor #2: Mismatch of image size vs display size: image size is not set, but display size is.
  Detailed Timing Descriptor #3: Mismatch of image size 760x450 mm vs display size 360x290 mm.
  Detailed Timing Descriptor #4: Mismatch of image size 760x450 mm vs display size 360x290 mm.
  Missing Display Product Name.
  Missing Display Range Limits Descriptor.
Block 1, Base EDID:
  Unknown Extension Block.
EDID:
  Base EDID: The DTD max image size is 760x450mm, which is larger than the display size 360.0x290.0mm.
  Base EDID: EDID specified 0 extension block(s), but found 1 extension block(s).

EDID conformity: FAIL
