
EDID (hex):
00ffffffffffff000ed4684600000000
230c010300241d78ef0dc2a057479827
12484fa1080081800101010101010101
0101010101010e1f008051001e304080
3700f8c22100001ccc29a0d051842230
0a98360068221100001e662150b05100
1b3040703600f8c22100001e94438090
72382840a320350013292100001c00ab

Extracted contents:
header:          00 ff ff ff ff ff ff 00
serial number:   0e d4 68 46 00 00 00 00 23 0c
version:         01 03
basic params:    00 24 1d 78 ef
chroma info:     0d c2 a0 57 47 98 27 12 48 4f
established:     a1 08 00
standard:        81 80 01 01 01 01 01 01 01 01 01 01 01 01 01 01
descriptor 1:    0e 1f 00 80 51 00 1e 30 40 80 37 00 f8 c2 21 00 00 1c
descriptor 2:    cc 29 a0 d0 51 84 22 30 0a 98 36 00 68 22 11 00 00 1e
descriptor 3:    66 21 50 b0 51 00 1b 30 40 70 36 00 f8 c2 21 00 00 1e
descriptor 4:    94 43 80 90 72 38 28 40 a3 20 35 00 13 29 21 00 00 1c
extensions:      00
checksum:        ab

EDID version: 1.3
Manufacturer: CVT Model 4668 Serial Number --
Analog display, Input voltage level: 0.7/0.3 V
Sync: 
Maximum image size: 36 cm x 29 cm
Gamma: 2.20
DPMS levels: Standby Suspend Off
RGB color display
Default (sRGB) color space is primary color space
First detailed timing is preferred timing
Supports GTF timings within operating range
Display x,y Chromaticity:
  Red:   0.6250, 0.3398
  Green: 0.2802, 0.5947
  Blue:  0.1552, 0.0703
  White: 0.2812, 0.3105
Established timings supported:
  720x400@70Hz 9:5 HorFreq: 31469 Hz Clock: 28.320 MHz
  640x480@60Hz 4:3 HorFreq: 31469 Hz Clock: 25.175 MHz
  800x600@60Hz 4:3 HorFreq: 37900 Hz Clock: 40.000 MHz
  1024x768@60Hz 4:3 HorFreq: 48400 Hz Clock: 65.000 MHz
Standard timings supported:
  1280x1024@60Hz 5:4 HorFreq: 64000 Hz Clock: 108.000 MHz
Detailed mode: Clock 79.500 MHz, 760 mm x 450 mm
               1280 1344 1472 1664 hborder 0
                768  771  778  798 vborder 0
               -hsync +vsync 
               VertFreq: 59 Hz, HorFreq: 47776 Hz
Detailed mode: Clock 107.000 MHz, 360 mm x 290 mm
               1440 1450 1602 1904 hborder 0
                900  903  909  934 vborder 0
               +hsync +vsync 
               VertFreq: 60 Hz, HorFreq: 56197 Hz
Detailed mode: Clock 85.500 MHz, 760 mm x 450 mm
               1360 1424 1536 1792 hborder 0
                768  771  777  795 vborder 0
               +hsync +vsync 
               VertFreq: 60 Hz, HorFreq: 47712 Hz
Detailed mode: Clock 173.000 MHz, 531 mm x 297 mm
               1920 2083 2115 2576 hborder 0
               1080 1083 1088 1120 vborder 0
               -hsync +vsync 
               VertFreq: 59 Hz, HorFreq: 67158 Hz
Checksum: 0xab (valid)
EDID block does NOT conform to EDID 1.3!
	sRGB is signaled, but the chromaticities do not match
	Missing name descriptor
	Missing monitor ranges
EDID block does not conform at all!
	Bad year of manufacture
