edid-decode (hex):

00 ff ff ff ff ff ff 00 0e d4 68 46 00 00 00 00
03 12 01 03 00 24 1d 78 ef 0d c2 a0 57 47 98 27
12 48 4f bf ec 00 81 80 01 01 61 40 01 01 01 01
81 80 01 01 01 01 cc 29 a0 d0 51 84 22 30 0a 98
36 00 68 22 11 00 00 1e 0e 1f 00 80 51 00 1e 30
40 80 37 00 68 22 11 00 00 1c 64 00 00 00 00 00
00 00 00 00 07 00 00 00 00 00 00 1c 64 00 00 00
00 00 00 00 00 00 00 00 00 00 00 00 00 1e 00 c8

00 ff ff ff ff ff ff 00 0e d4 68 46 00 00 00 00
03 12 01 03 00 24 1d 78 ef 0d c2 a0 57 47 98 27
12 48 4f bf ec 00 81 80 01 01 61 40 01 01 01 01
81 80 01 01 01 01 cc 29 a0 d0 51 84 22 30 0a 98
36 00 68 22 11 00 00 1e 0e 1f 00 80 51 00 1e 30
40 80 37 00 68 22 11 00 00 1c 64 00 00 00 00 00
00 00 00 00 07 00 00 00 00 00 00 1c 64 00 00 00
00 00 00 00 00 00 00 00 00 00 00 00 00 1e 00 c8

----------------

Block 0, Base EDID:
  EDID Structure Version & Revision: 1.3
  Vendor & Product Identification:
    Manufacturer: CVT
    Model: 18024
    Made in: week 3 of 2008
  Basic Display Parameters & Features:
    Analog display
    Signal Level Standard: 0.700 : 0.300 : 1.000 V p-p
    Blank level equals black level
    Maximum image size: 36 cm x 29 cm
    Gamma: 2.20
    DPMS levels: Standby Suspend Off
    RGB color display
    Default (sRGB) color space is primary color space
    First detailed timing is the preferred timing
    Supports GTF timings within operating range
  Color Characteristics:
    Red  : 0.6250, 0.3398
    Green: 0.2802, 0.5947
    Blue : 0.1552, 0.0703
    White: 0.2812, 0.3105
  Established Timings I & II:
    IBM     :   720x400    70.081663 Hz   9:5     31.467 kHz     28.320000 MHz
    DMT 0x04:   640x480    59.940476 Hz   4:3     31.469 kHz     25.175000 MHz
    Apple   :   640x480    66.666667 Hz   4:3     35.000 kHz     30.240000 MHz
    DMT 0x05:   640x480    72.808802 Hz   4:3     37.861 kHz     31.500000 MHz
    DMT 0x06:   640x480    75.000000 Hz   4:3     37.500 kHz     31.500000 MHz
    DMT 0x08:   800x600    56.250000 Hz   4:3     35.156 kHz     36.000000 MHz
    DMT 0x09:   800x600    60.316541 Hz   4:3     37.879 kHz     40.000000 MHz
    DMT 0x0a:   800x600    72.187572 Hz   4:3     48.077 kHz     50.000000 MHz
    DMT 0x0b:   800x600    75.000000 Hz   4:3     46.875 kHz     49.500000 MHz
    Apple   :   832x624    74.551266 Hz   4:3     49.726 kHz     57.284000 MHz
    DMT 0x10:  1024x768    60.003840 Hz   4:3     48.363 kHz     65.000000 MHz
    DMT 0x11:  1024x768    70.069359 Hz   4:3     56.476 kHz     75.000000 MHz
  Standard Timings:
    DMT 0x23:  1280x1024   60.019740 Hz   5:4     63.981 kHz    108.000000 MHz
    DMT 0x10:  1024x768    60.003840 Hz   4:3     48.363 kHz     65.000000 MHz
    DMT 0x23:  1280x1024   60.019740 Hz   5:4     63.981 kHz    108.000000 MHz
  Detailed Timing Descriptors:
    DTD 1:  1440x900    60.168607 Hz  16:10    56.197 kHz    107.000000 MHz (360 mm x 290 mm)
                 Hfront   10 Hsync 152 Hback  302 Hpol P
                 Vfront    3 Vsync   6 Vback   25 Vpol P
    DTD 2:  1280x768    59.870228 Hz   5:3     47.776 kHz     79.500000 MHz (360 mm x 290 mm)
                 Hfront   64 Hsync 128 Hback  192 Hpol N
                 Vfront    3 Vsync   7 Vback   20 Vpol P
    Detailed mode: 64 00 00 00 00 00 00 00 00 00 07 00 00 00 00 00 00 1c 'd.................'
    Detailed mode: 64 00 00 00 00 00 00 00 00 00 00 00 00 00 00 00 00 1e 'd.................'
Checksum: 0xc8

----------------

Block 1, Unknown EDID Extension Block 0x00:
  00 ff ff ff ff ff ff 00 0e d4 68 46 00 00 00 00 '..........hF....'
  03 12 01 03 00 24 1d 78 ef 0d c2 a0 57 47 98 27 '.....$.x....WG.''
  12 48 4f bf ec 00 81 80 01 01 61 40 01 01 01 01 '.HO.......a@....'
  81 80 01 01 01 01 cc 29 a0 d0 51 84 22 30 0a 98 '.......)..Q."0..'
  36 00 68 22 11 00 00 1e 0e 1f 00 80 51 00 1e 30 '6.h"........Q..0'
  40 80 37 00 68 22 11 00 00 1c 64 00 00 00 00 00 '@.7.h"....d.....'
  00 00 00 00 07 00 00 00 00 00 00 1c 64 00 00 00 '............d...'
  00 00 00 00 00 00 00 00 00 00 00 00 00 1e 00 c8 '................'
Checksum: 0xc8

----------------

Failures:

Block 0, Base EDID:
  Basic Display Parameters & Features: sRGB is signaled, but the chromaticities do not match.
  Detailed Timing Descriptor #3: Pixelclock < 10 MHz, assuming invalid data 0x64 0x00.
  Detailed Timing Descriptor #4: Pixelclock < 10 MHz, assuming invalid data 0x64 0x00.
  Missing Display Product Name.
  Missing Display Range Limits Descriptor.
Block 1, Base EDID:
  Unknown Extension Block.
EDID:
  Base EDID: EDID specified 0 extension block(s), but found 1 extension block(s).

EDID conformity: FAIL
