
EDID (hex):
00ffffffffffff0006af992b00000000
001f0104951d11780293059258599029
1d505400000001010101010101010101
010101010101003780a0703830401010
3e0025a51000001a002c80a070383040
10103e0025a51000001a000000fe0035
47544b30804231333348414e00000000
0001412399001000000a010a20200074

Extracted contents:
header:          00 ff ff ff ff ff ff 00
serial number:   06 af 99 2b 00 00 00 00 00 1f
version:         01 04
basic params:    95 1d 11 78 02
chroma info:     93 05 92 58 59 90 29 1d 50 54
established:     00 00 00
standard:        01 01 01 01 01 01 01 01 01 01 01 01 01 01 01 01
descriptor 1:    00 37 80 a0 70 38 30 40 10 10 3e 00 25 a5 10 00 00 1a
descriptor 2:    00 2c 80 a0 70 38 30 40 10 10 3e 00 25 a5 10 00 00 1a
descriptor 3:    00 00 00 fe 00 35 47 54 4b 30 80 42 31 33 33 48 41 4e
descriptor 4:    00 00 00 00 00 01 41 23 99 00 10 00 00 0a 01 0a 20 20
extensions:      00
checksum:        74

EDID version: 1.4
Manufacturer: AUO Model 2b99 Serial Number --
Made in year 2021
Digital display
6 bits per primary color channel
DisplayPort interface
Maximum image size: 29 cm x 17 cm
Gamma: 2.20
Supported color formats: RGB 4:4:4
First detailed timing includes the native pixel format and preferred refresh rate
Display x,y Chromaticity:
  Red:   0.5722, 0.3447
  Green: 0.3476, 0.5654
  Blue:  0.1601, 0.1132
  White: 0.3134, 0.3291
Established timings supported:
Standard timings supported:
Detailed mode: Clock 140.800 MHz, 293 mm x 165 mm
               1920 1936 1952 2080 hborder 0
               1080 1083 1097 1128 vborder 0
               +hsync -vsync 
               VertFreq: 60 Hz, HorFreq: 67692 Hz
Detailed mode: Clock 112.640 MHz, 293 mm x 165 mm
               1920 1936 1952 2080 hborder 0
               1080 1083 1097 1128 vborder 0
               +hsync -vsync 
               VertFreq: 48 Hz, HorFreq: 54153 Hz
ASCII string: 5GTK0
Manufacturer-specified data, tag 0
Checksum: 0x74 (valid)
EDID block does NOT conform to EDID 1.4!
	Missing name descriptor
	Missing monitor ranges
	Detailed block string not properly terminated
