
EDID (hex):
00ffffffffffff001e6d9a9ed7170000
04220104c5682c78f95da5ad523faf25
0e5054210900d1c06140454001010101
0101010101014ed470a0d0a046503020
3a0013b44100001a000000fd0c30f091
918c010a202020202020000000fc004c
4720554c545241474541522b000000ff
003430344e54565330363130330a02c0
02032f73230f5707834f0000e305c000
e6060501734f01e2006a741a00000303
30f000a073014f02f0000000000000e7
7c70a0d0a0295030203a0013b4410000
1a9d6770a0d0a0225030203a0013b441
00001a00000000000000000000000000
00000000000000000000000000000000
0000000000000000000000000000009b
701279030001000cbe280811700da005
9078ffbb0f000aa4140e0e0701230000
000301509a2202886f0d9f0007801f00
9f05b20051000700903801086f0d9f00
07801f009f0566002b0007006e010108
6f0d9f0007801f009f05540022000700
936f00087f079f0007801f0037043f00
1700070000000000000000000000cc90

edid-decode (hex):

00 ff ff ff ff ff ff 00 1e 6d 9a 9e d7 17 00 00
04 22 01 04 c5 68 2c 78 f9 5d a5 ad 52 3f af 25
0e 50 54 21 09 00 d1 c0 61 40 45 40 01 01 01 01
01 01 01 01 01 01 4e d4 70 a0 d0 a0 46 50 30 20
3a 00 13 b4 41 00 00 1a 00 00 00 fd 0c 30 f0 91
91 8c 01 0a 20 20 20 20 20 20 00 00 00 fc 00 4c
47 20 55 4c 54 52 41 47 45 41 52 2b 00 00 00 ff
00 34 30 34 4e 54 56 53 30 36 31 30 33 0a 02 c0

02 03 2f 73 23 0f 57 07 83 4f 00 00 e3 05 c0 00
e6 06 05 01 73 4f 01 e2 00 6a 74 1a 00 00 03 03
30 f0 00 a0 73 01 4f 02 f0 00 00 00 00 00 00 e7
7c 70 a0 d0 a0 29 50 30 20 3a 00 13 b4 41 00 00
1a 9d 67 70 a0 d0 a0 22 50 30 20 3a 00 13 b4 41
00 00 1a 00 00 00 00 00 00 00 00 00 00 00 00 00
00 00 00 00 00 00 00 00 00 00 00 00 00 00 00 00
00 00 00 00 00 00 00 00 00 00 00 00 00 00 00 9b

70 12 79 03 00 01 00 0c be 28 08 11 70 0d a0 05
90 78 ff bb 0f 00 0a a4 14 0e 0e 07 01 23 00 00
00 03 01 50 9a 22 02 88 6f 0d 9f 00 07 80 1f 00
9f 05 b2 00 51 00 07 00 90 38 01 08 6f 0d 9f 00
07 80 1f 00 9f 05 66 00 2b 00 07 00 6e 01 01 08
6f 0d 9f 00 07 80 1f 00 9f 05 54 00 22 00 07 00
93 6f 00 08 7f 07 9f 00 07 80 1f 00 37 04 3f 00
17 00 07 00 00 00 00 00 00 00 00 00 00 00 cc 90

----------------

Block 0, Base EDID:
  EDID Structure Version & Revision: 1.4
  Vendor & Product Identification:
    Manufacturer: GSM
    Model: 40602
    Serial Number: 6103
    Made in: week 4 of 2024
  Basic Display Parameters & Features:
    Digital display
    Bits per primary color channel: 12
    DisplayPort interface
    Maximum image size: 104 cm x 44 cm
    Gamma: 2.20
    DPMS levels: Standby Suspend Off
    Supported color formats: RGB 4:4:4, YCrCb 4:4:4, YCrCb 4:2:2
    First detailed timing does not include the native pixel format and preferred refresh rate
    Display is continuous frequency
  Color Characteristics:
    Red  : 0.6767, 0.3212
    Green: 0.2490, 0.6845
    Blue : 0.1464, 0.0566
    White: 0.3134, 0.3291
  Established Timings I & II:
    DMT 0x04:   640x480    59.940476 Hz   4:3     31.469 kHz     25.175000 MHz
    DMT 0x09:   800x600    60.316541 Hz   4:3     37.879 kHz     40.000000 MHz
    DMT 0x10:  1024x768    60.003840 Hz   4:3     48.363 kHz     65.000000 MHz
    DMT 0x24:  1280x1024   75.024675 Hz   5:4     79.976 kHz    135.000000 MHz
  Standard Timings:
    DMT 0x52:  1920x1080   60.000000 Hz  16:9     67.500 kHz    148.500000 MHz
    DMT 0x10:  1024x768    60.003840 Hz   4:3     48.363 kHz     65.000000 MHz
    DMT 0x09:   800x600    60.316541 Hz   4:3     37.879 kHz     40.000000 MHz
  Detailed Timing Descriptors:
    DTD 1:  3440x1440   99.981604 Hz  43:18   150.972 kHz    543.500000 MHz (1043 mm x 436 mm)
                 Hfront   48 Hsync  32 Hback   80 Hpol P
                 Vfront    3 Vsync  10 Vback   57 Vpol N
    Display Range Limits:
      Monitor ranges (Bare Limits): 48-240 Hz V, 400-400 kHz H, max dotclock 1400 MHz
    Display Product Name: 'LG ULTRAGEAR+'
    Display Product Serial Number: '404NTVS06103'
  Extension blocks: 2
Checksum: 0xc0

----------------

Block 1, CTA-861 Extension Block:
  Revision: 3
  Basic audio support
  Supports YCbCr 4:4:4
  Supports YCbCr 4:2:2
  Native detailed modes: 3
  Audio Data Block:
    Linear PCM:
      Max channels: 8
      Supported sample rates (kHz): 192 96 48 44.1 32
      Supported sample sizes (bits): 24 20 16
  Speaker Allocation Data Block:
    FL/FR - Front Left/Right
    LFE1 - Low Frequency Effects 1
    FC - Front Center
    BL/BR - Back Left/Right
    RLC/RRC - Rear Left/Right of Center (Deprecated)
  Colorimetry Data Block:
    BT2020YCC
    BT2020RGB
  HDR Static Metadata Data Block:
    Electro optical transfer functions:
      Traditional gamma - SDR luminance range
      SMPTE ST2084
    Supported static metadata descriptors:
      Static metadata type 1
    Desired content max luminance: 115 (603.666 cd/m^2)
    Desired content max frame-average luminance: 79 (276.782 cd/m^2)
    Desired content min luminance: 1 (0.000 cd/m^2)
  Video Capability Data Block:
    YCbCr quantization: No Data
    RGB quantization: Selectable (via AVI Q)
    PT scan behavior: Always Underscanned
    IT scan behavior: Always Underscanned
    CE scan behavior: Always Underscanned
  Vendor-Specific Data Block (AMD), OUI 00-00-1A:
    Version: 3.3
    Minimum Refresh Rate: 48 Hz
    Maximum Refresh Rate: 240 Hz
    Flags 1.x: 0x00
    Flags 2.x: 0xa0
    Maximum luminance: 115 (603.666 cd/m^2)
    Minimum luminance: 1 (0.000 cd/m^2)
    Unknown: 0x4f 0x02
  Detailed Timing Descriptors:
    DTD 2:  3440x1440   59.972616 Hz  43:18    88.819 kHz    319.750000 MHz (1043 mm x 436 mm)
                 Hfront   48 Hsync  32 Hback   80 Hpol P
                 Vfront    3 Vsync  10 Vback   28 Vpol N
    DTD 3:  3440x1440   49.986808 Hz  43:18    73.681 kHz    265.250000 MHz (1043 mm x 436 mm)
                 Hfront   48 Hsync  32 Hback   80 Hpol P
                 Vfront    3 Vsync  10 Vback   21 Vpol N
Checksum: 0x9b  Unused space in Extension Block: 44 bytes

----------------

Block 2, DisplayID Extension Block:
  Version: 1.2
  Extension Count: 0
  Display Product Type: Standalone display device
  Display Parameters Data Block (0x01):
    Image size: 1043.0 mm x 436.0 mm
    Display native pixel format: 3440x1440
    Feature support flags:
      Power management (DPM)
      Audio support on video interface
    Gamma: 2.20
    Aspect ratio: 3.55
    Dynamic bpc native: 12
    Dynamic bpc overall: 12
  Display Interface Data Block:
    Interface Type: DisplayPort
    Number of Links: 4
    Interface Standard Version: 1.4
    Supported bpc for RGB encoding: 8, 10, 12
    Supported bpc for YCbCr 4:4:4 encoding: 8, 10, 12
    Supported bpc for YCbCr 4:2:2 encoding: 8, 10, 12
    Supported Content Protection: HDCP 2.3
    Spread Spectrum: None
  Video Timing Modes Type 1 - Detailed Timings Data Block:
    DTD:  3440x1440  240.084757 Hz   0:0    388.697 kHz   1399.310000 MHz (aspect undefined, no 3D stereo, preferred)
               Hfront    8 Hsync  32 Hback  120 Hpol P
               Vfront   82 Vsync   8 Vback   89 Vpol N
    DTD:  3440x1440  144.050191 Hz   0:0    222.269 kHz    800.170000 MHz (aspect undefined, no 3D stereo)
               Hfront    8 Hsync  32 Hback  120 Hpol P
               Vfront   44 Vsync   8 Vback   51 Vpol N
    DTD:  3440x1440  120.041894 Hz   0:0    183.064 kHz    659.030000 MHz (aspect undefined, no 3D stereo)
               Hfront    8 Hsync  32 Hback  120 Hpol P
               Vfront   35 Vsync   8 Vback   42 Vpol N
    DTD:  1920x1080  120.041017 Hz   0:0    137.327 kHz    285.640000 MHz (aspect undefined, no 3D stereo)
               Hfront    8 Hsync  32 Hback  120 Hpol P
               Vfront   24 Vsync   8 Vback   32 Vpol N
  Checksum: 0xcc
Checksum: 0x90


