
EDID (hex):
00ffffffffffff0009e53b0600000000
01180104952213780a24109759548e27
1e505400000001010101010101010101
010101010101641b5677500013303020
440058c21000001a8417568051005c30
6464440558c21000001a000000000000
00000000000000000000000000000002
000c33ff0b3c6e19111e6e0000000069

Extracted contents:
header:          00 ff ff ff ff ff ff 00
serial number:   09 e5 3b 06 00 00 00 00 01 18
version:         01 04
basic params:    95 22 13 78 0a
chroma info:     24 10 97 59 54 8e 27 1e 50 54
established:     00 00 00
standard:        01 01 01 01 01 01 01 01 01 01 01 01 01 01 01 01
descriptor 1:    64 1b 56 77 50 00 13 30 30 20 44 00 58 c2 10 00 00 1a
descriptor 2:    84 17 56 80 51 00 5c 30 64 64 44 05 58 c2 10 00 00 1a
descriptor 3:    00 00 00 00 00 00 00 00 00 00 00 00 00 00 00 00 00 00
descriptor 4:    00 00 00 02 00 0c 33 ff 0b 3c 6e 19 11 1e 6e 00 00 00
extensions:      00
checksum:        69

EDID version: 1.4
Manufacturer: BOE Model 63b Serial Number --
Made in week 1 of 2014
Digital display
6 bits per primary color channel
DisplayPort interface
Maximum image size: 34 cm x 19 cm
Gamma: 2.20
Supported color formats: RGB 4:4:4, YCrCb 4:4:4
First detailed timing includes the native pixel format and preferred refresh rate
Display x,y Chromaticity:
  Red:   0.5898, 0.3496
  Green: 0.3291, 0.5546
  Blue:  0.1523, 0.1181
  White: 0.3125, 0.3281
Established timings supported:
Standard timings supported:
Detailed mode: Clock 70.120 MHz, 344 mm x 194 mm
               1366 1414 1446 1485 hborder 0
                768  772  776  787 vborder 0
               +hsync -vsync 
               VertFreq: 59 Hz, HorFreq: 47218 Hz
Detailed mode: Clock 60.200 MHz, 344 mm x 194 mm
               1366 1466 1566 1750 hborder 0
                768  788  808  860 vborder 0
               +hsync -vsync 
               VertFreq: 40 Hz, HorFreq: 34400 Hz
Manufacturer-specified data, tag 0
Manufacturer-specified data, tag 2
Checksum: 0x69 (valid)
EDID block does NOT conform to EDID 1.4!
	Missing name descriptor
	Missing monitor ranges
