edid-decode (hex):

00 ff ff ff ff ff ff 00 30 ae 57 40 00 00 00 00
00 13 01 03 80 21 15 78 ea ba 95 97 59 55 8e 27
21 50 54 00 00 00 01 01 01 01 01 01 01 01 01 01
01 01 01 01 01 01 26 1b 00 84 50 20 14 30 18 20
44 00 4b cf 10 00 00 19 94 16 00 80 50 20 14 30
18 20 44 00 4b cf 10 00 00 19 00 00 00 0f 00 81
0a 32 81 0a 28 15 09 00 30 e4 04 02 00 00 00 fe
00 4c 50 31 35 34 57 58 37 2d 54 4c 50 32 00 4f

----------------

Block 0, Base EDID:
  EDID Structure Version & Revision: 1.3
  Vendor & Product Identification:
    Manufacturer: LEN
    Model: 16471
    Made in: 2009
  Basic Display Parameters & Features:
    Digital display
    Maximum image size: 33 cm x 21 cm
    Gamma: 2.20
    DPMS levels: Standby Suspend Off
    RGB color display
    First detailed timing is the preferred timing
  Color Characteristics:
    Red  : 0.5917, 0.3505
    Green: 0.3339, 0.5566
    Blue : 0.1542, 0.1298
    White: 0.3134, 0.3291
  Established Timings I & II: none
  Standard Timings: none
  Detailed Timing Descriptors:
    DTD 1:  1280x800    60.026 Hz   8:5    49.221 kHz  69.500 MHz (331 mm x 207 mm)
                 Hfront   24 Hsync  32 Hback  76 Hpol N
                 Vfront    4 Vsync   4 Vback  12 Vpol N
    DTD 2:  1280x800    50.062 Hz   8:5    41.051 kHz  57.800 MHz (331 mm x 207 mm)
                 Hfront   24 Hsync  32 Hback  72 Hpol N
                 Vfront    4 Vsync   4 Vback  12 Vpol N
    Manufacturer-Specified Display Descriptor (0x0f): 00 0f 00 81 0a 32 81 0a 28 15 09 00 30 e4 04 02 '.....2..(...0...'
    Alphanumeric Data String: 'LP154WX7-TLP2'
Checksum: 0x4f

----------------

Failures:

Block 0, Base EDID:
  Missing Display Product Name.
  Missing Display Range Limits Descriptor.

EDID conformity: FAIL
