edid-decode (hex):

00 ff ff ff ff ff ff 00 5d d8 36 75 00 00 00 00
09 1b 01 03 81 16 0d 78 ea 05 26 a3 59 4a 9c 23
14 4f 54 a1 08 00 81 00 01 01 01 01 01 01 01 01
01 01 01 01 01 01 bc 1b 00 a0 50 20 17 30 30 20
36 00 d9 88 00 00 00 1a 00 00 00 fd 00 37 4b 1e
41 08 00 0a 20 20 20 20 20 20 00 00 00 fc 00 42
41 39 31 57 20 2f 70 63 74 0a 20 20 00 00 00 ff
00 38 35 47 59 37 32 34 39 36 34 0a 20 20 00 44

----------------

Block 0, Base EDID:
  EDID Structure Version & Revision: 1.3
  Vendor & Product Identification:
    Manufacturer: WNX
    Model: 30006
    Made in: week 9 of 2017
  Basic Display Parameters & Features:
    Digital display
    DFP 1.x compatible TMDS
    Maximum image size: 22 cm x 13 cm
    Gamma: 2.20
    DPMS levels: Standby Suspend Off
    RGB color display
    First detailed timing is the preferred timing
  Color Characteristics:
    Red  : 0.6367, 0.3476
    Green: 0.2900, 0.6103
    Blue : 0.1367, 0.0800
    White: 0.3095, 0.3300
  Established Timings I & II:
    IBM     :   720x400    70.081663 Hz   9:5     31.467 kHz     28.320000 MHz
    DMT 0x04:   640x480    59.940476 Hz   4:3     31.469 kHz     25.175000 MHz
    DMT 0x09:   800x600    60.316541 Hz   4:3     37.879 kHz     40.000000 MHz
    DMT 0x10:  1024x768    60.003840 Hz   4:3     48.363 kHz     65.000000 MHz
  Standard Timings:
    DMT 0x1c:  1280x800    59.810326 Hz  16:10    49.702 kHz     83.500000 MHz
  Detailed Timing Descriptors:
    DTD 1:  1280x800    59.909545 Hz   8:5     49.306 kHz     71.000000 MHz (217 mm x 136 mm)
                 Hfront   48 Hsync  32 Hback   80 Hpol P
                 Vfront    3 Vsync   6 Vback   14 Vpol N
    Display Range Limits:
      Monitor ranges (GTF): 55-75 Hz V, 30-65 kHz H, max dotclock 80 MHz
    Display Product Name: 'BA91W /pct'
    Display Product Serial Number: ...
Checksum: 0x44

----------------

Warnings:

EDID:
  Base EDID: Some timings are out of range of the Monitor Ranges:
    Maximum Clock: 83.500 MHz (Monitor: 80.000 MHz)
    Could be due to a Monitor Range off-by-one rounding issue

EDID conformity: PASS
