edid-decode (hex):

00 ff ff ff ff ff ff 00 25 cc 01 00 00 00 00 00
00 13 01 03 90 22 13 78 0a c8 85 9e 57 54 9b 26
12 50 54 00 00 00 01 01 01 01 01 01 01 01 01 01
01 01 01 01 01 01 74 1d 56 c2 50 00 26 30 30 20
36 00 58 c2 10 00 00 1a 74 1d 56 c2 50 00 26 30
30 20 36 00 58 c2 10 00 00 1a 00 00 00 fe 00 55
38 38 34 4d 80 31 35 36 47 57 30 31 00 00 00 00
00 00 00 00 00 00 00 00 00 01 01 0a 20 20 00 bc

----------------

Block 0, Base EDID:
  EDID Structure Version & Revision: 1.3
  Vendor & Product Identification:
    Manufacturer: INL
    Model: 1
    Made in: 2009
  Basic Display Parameters & Features:
    Digital display
    Maximum image size: 34 cm x 19 cm
    Gamma: 2.20
    RGB color display
    First detailed timing is the preferred timing
  Color Characteristics:
    Red  : 0.6201, 0.3398
    Green: 0.3300, 0.6054
    Blue : 0.1503, 0.0703
    White: 0.3134, 0.3291
  Established Timings I & II: none
  Standard Timings: none
  Detailed Timing Descriptors:
    DTD 1:  1366x768    59.967 Hz 683:384  48.333 kHz  75.400 MHz (344 mm x 194 mm)
                 Hfront   48 Hsync  32 Hback 114 Hpol P
                 Vfront    3 Vsync   6 Vback  29 Vpol N
    DTD 2:  1366x768    59.967 Hz 683:384  48.333 kHz  75.400 MHz (344 mm x 194 mm)
                 Hfront   48 Hsync  32 Hback 114 Hpol P
                 Vfront    3 Vsync   6 Vback  29 Vpol N
    Alphanumeric Data String: 'U884M'
    Manufacturer-Specified Display Descriptor (0x00): 00 00 00 00 00 00 00 00 00 00 00 01 01 0a 20 20 '..............  '
Checksum: 0xbc

----------------

Failures:

Block 0, Base EDID:
  Basic Display Parameters & Features: Digital Video Interface Standard set to reserved value 0x10.
  Alphanumeric Data String: Non-printable character.
  Missing Display Product Name.
  Missing Display Range Limits Descriptor.

EDID conformity: FAIL
