
EDID (hex):
00ffffffffffff0051b8851400000000
121f0104a51e137807ee91a3544c9926
0f505400000001010101010101010101
010101010101ef9680a070b05a402b20
75042dbc10000018e43e80a070b05a40
2b2075042dbc10000018000000fd0030
90bbbb27010a202020202020000000fc
00544c3134305644585031300a20006d

Extracted contents:
header:          00 ff ff ff ff ff ff 00
serial number:   51 b8 85 14 00 00 00 00 12 1f
version:         01 04
basic params:    a5 1e 13 78 07
chroma info:     ee 91 a3 54 4c 99 26 0f 50 54
established:     00 00 00
standard:        01 01 01 01 01 01 01 01 01 01 01 01 01 01 01 01
descriptor 1:    ef 96 80 a0 70 b0 5a 40 2b 20 75 04 2d bc 10 00 00 18
descriptor 2:    e4 3e 80 a0 70 b0 5a 40 2b 20 75 04 2d bc 10 00 00 18
descriptor 3:    00 00 00 fd 00 30 90 bb bb 27 01 0a 20 20 20 20 20 20
descriptor 4:    00 00 00 fc 00 54 4c 31 34 30 56 44 58 50 31 30 0a 20
extensions:      00
checksum:        6d

EDID version: 1.4
Manufacturer: TMX Model 1485 Serial Number --
Made in week 18 of 2021
Digital display
8 bits per primary color channel
DisplayPort interface
Maximum image size: 30 cm x 19 cm
Gamma: 2.20
Supported color formats: RGB 4:4:4
Default (sRGB) color space is primary color space
First detailed timing includes the native pixel format and preferred refresh rate
Display is continuous frequency
Display x,y Chromaticity:
  Red:   0.6396, 0.3300
  Green: 0.2998, 0.5996
  Blue:  0.1503, 0.0595
  White: 0.3125, 0.3291
Established timings supported:
Standard timings supported:
Detailed mode: Clock 386.390 MHz, 301 mm x 188 mm
               1920 1963 1995 2080 hborder 0
               1200 1223 1228 1290 vborder 0
               -hsync -vsync 
               VertFreq: 144 Hz, HorFreq: 185764 Hz
Detailed mode: Clock 161.000 MHz, 301 mm x 188 mm
               1920 1963 1995 2080 hborder 0
               1200 1223 1228 1290 vborder 0
               -hsync -vsync 
               VertFreq: 60 Hz, HorFreq: 77403 Hz
Monitor ranges (bare limits): 48-144Hz V, 187-187kHz H, max dotclock 390MHz
Monitor name: TL140VDXP10
Checksum: 0x6d (valid)
Warning: One or more of the timings is out of range of the Monitor Ranges:
  Vertical Freq: 60 - 144 Hz
  Horizontal Freq: 77403 - 185764 Hz
  Maximum Clock: 386.390 MHz
