
EDID (hex):
00ffffffffffff003064060901010101
25130103801d11780a859599574f8f26
21505400000001010101010101010101
010101010101bb1d56ea500019302370
5a0027a6100000180000000f0002d002
d0000501054cd4020e00000000fe0054
4d444953504c41590a202020000000fe
004c54313333454530393330300a00ab

Extracted contents:
header:          00 ff ff ff ff ff ff 00
serial number:   30 64 06 09 01 01 01 01 25 13
version:         01 03
basic params:    80 1d 11 78 0a
chroma info:     85 95 99 57 4f 8f 26 21 50 54
established:     00 00 00
standard:        01 01 01 01 01 01 01 01 01 01 01 01 01 01 01 01
descriptor 1:    bb 1d 56 ea 50 00 19 30 23 70 5a 00 27 a6 10 00 00 18
descriptor 2:    00 00 00 0f 00 02 d0 02 d0 00 05 01 05 4c d4 02 0e 00
descriptor 3:    00 00 00 fe 00 54 4d 44 49 53 50 4c 41 59 0a 20 20 20
descriptor 4:    00 00 00 fe 00 4c 54 31 33 33 45 45 30 39 33 30 30 0a
extensions:      00
checksum:        ab

EDID version: 1.3
Manufacturer: LCD Model 906 Serial Number --
Made in week 37 of 2009
Digital display
Maximum image size: 29 cm x 17 cm
Gamma: 2.20
RGB color display
First detailed timing is preferred timing
Display x,y Chromaticity:
  Red:   0.5996, 0.3398
  Green: 0.3095, 0.5595
  Blue:  0.1503, 0.1298
  White: 0.3134, 0.3291
Established timings supported:
Standard timings supported:
Detailed mode: Clock 76.110 MHz, 295 mm x 166 mm
               1366 1401 1513 1600 hborder 0
                768  773  783  793 vborder 0
               -hsync -vsync 
               VertFreq: 59 Hz, HorFreq: 47568 Hz
Manufacturer-specified data, tag 15
ASCII string: TMDISPLAY
ASCII string: LT133EE09300
Checksum: 0xab (valid)
EDID block does NOT conform to EDID 1.3!
	Missing name descriptor
	Missing monitor ranges
