
EDID (hex):
00ffffffffffff002889310001000000
16200104805932780a0dc9a057479827
12484c00000001010101010101010101
01010101010108700088a1401360c820
a300d9870000001ead4a0088a1401360
c820a30020c23100001e000000fd0016
480f5a1e000a202020202020000000fc
0047504431303031480a2020202000cf

Extracted contents:
header:          00 ff ff ff ff ff ff 00
serial number:   28 89 31 00 01 00 00 00 16 20
version:         01 04
basic params:    80 59 32 78 0a
chroma info:     0d c9 a0 57 47 98 27 12 48 4c
established:     00 00 00
standard:        01 01 01 01 01 01 01 01 01 01 01 01 01 01 01 01
descriptor 1:    08 70 00 88 a1 40 13 60 c8 20 a3 00 d9 87 00 00 00 1e
descriptor 2:    ad 4a 00 88 a1 40 13 60 c8 20 a3 00 20 c2 31 00 00 1e
descriptor 3:    00 00 00 fd 00 16 48 0f 5a 1e 00 0a 20 20 20 20 20 20
descriptor 4:    00 00 00 fc 00 47 50 44 31 30 30 31 48 0a 20 20 20 20
extensions:      00
checksum:        cf

EDID version: 1.4
Manufacturer: JDI Model 31 Serial Number --
Made in week 22 of 2022
Digital display
Color depth is undefined
Digital interface is not defined
Maximum image size: 89 cm x 50 cm
Gamma: 2.20
Supported color formats: RGB 4:4:4, YCrCb 4:4:4
First detailed timing includes the native pixel format and preferred refresh rate
Display x,y Chromaticity:
  Red:   0.6250, 0.3398
  Green: 0.2802, 0.5947
  Blue:  0.1552, 0.0703
  White: 0.2832, 0.2978
Established timings supported:
Standard timings supported:
Detailed mode: Clock 286.800 MHz, 217 mm x 135 mm
               2560 2760 2792 2952 hborder 0
               1600 1610 1613 1619 vborder 0
               +hsync +vsync 
               VertFreq: 60 Hz, HorFreq: 97154 Hz
Detailed mode: Clock 191.170 MHz, 800 mm x 450 mm
               2560 2760 2792 2952 hborder 0
               1600 1610 1613 1619 vborder 0
               +hsync +vsync 
               VertFreq: 39 Hz, HorFreq: 64759 Hz
Monitor ranges (GTF): 22-72Hz V, 15-90kHz H, max dotclock 300MHz
Monitor name: GPD1001H
Checksum: 0xcf (valid)
Warning: One or more of the timings is out of range of the Monitor Ranges:
  Vertical Freq: 39 - 60 Hz
  Horizontal Freq: 64759 - 97154 Hz
  Maximum Clock: 286.800 MHz
