
EDID (hex):
00ffffffffffff0009d1097b45540000
141401030e2917782ec865a157539723
105054a56a0081c081cf010101010101
010101010101662156aa51001e30468f
33009ae61000001e000000ff00503541
30333131383031390a20000000fd0032
4c1e3f0b000a202020202020000000fc
0042656e5120563932300a2020200071

Extracted contents:
header:          00 ff ff ff ff ff ff 00
serial number:   09 d1 09 7b 45 54 00 00 14 14
version:         01 03
basic params:    0e 29 17 78 2e
chroma info:     c8 65 a1 57 53 97 23 10 50 54
established:     a5 6a 00
standard:        81 c0 81 cf 01 01 01 01 01 01 01 01 01 01 01 01
descriptor 1:    66 21 56 aa 51 00 1e 30 46 8f 33 00 9a e6 10 00 00 1e
descriptor 2:    00 00 00 ff 00 50 35 41 30 33 31 31 38 30 31 39 0a 20
descriptor 3:    00 00 00 fd 00 32 4c 1e 3f 0b 00 0a 20 20 20 20 20 20
descriptor 4:    00 00 00 fc 00 42 65 6e 51 20 56 39 32 30 0a 20 20 20
extensions:      00
checksum:        71

EDID version: 1.3
Manufacturer: BNQ Model 7b09 Serial Number --
Made in week 20 of 2010
Analog display, Input voltage level: 0.7/0.3 V
Sync: Separate Composite SyncOnGreen 
Maximum image size: 41 cm x 23 cm
Gamma: 2.20
DPMS levels: Off
RGB color display
Default (sRGB) color space is primary color space
First detailed timing is preferred timing
Display x,y Chromaticity:
  Red:   0.6318, 0.3398
  Green: 0.3261, 0.5898
  Blue:  0.1376, 0.0644
  White: 0.3134, 0.3291
Established timings supported:
  720x400@70Hz 9:5 HorFreq: 31469 Hz Clock: 28.320 MHz
  640x480@60Hz 4:3 HorFreq: 31469 Hz Clock: 25.175 MHz
  640x480@75Hz 4:3 HorFreq: 37500 Hz Clock: 31.500 MHz
  800x600@60Hz 4:3 HorFreq: 37900 Hz Clock: 40.000 MHz
  800x600@75Hz 4:3 HorFreq: 46900 Hz Clock: 49.500 MHz
  832x624@75Hz 4:3 HorFreq: 49726 Hz Clock: 57.284 MHz
  1024x768@60Hz 4:3 HorFreq: 48400 Hz Clock: 65.000 MHz
  1024x768@75Hz 4:3 HorFreq: 60000 Hz Clock: 78.750 MHz
Standard timings supported:
  1280x720@60Hz 16:9
  1280x720@75Hz 16:9
Detailed mode: Clock 85.500 MHz, 410 mm x 230 mm
               1366 1436 1579 1792 hborder 0
                768  771  774  798 vborder 0
               +hsync +vsync 
               VertFreq: 59 Hz, HorFreq: 47712 Hz
Serial number: --
Monitor ranges (GTF): 50-76Hz V, 30-63kHz H, max dotclock 110MHz
Monitor name: BenQ V920
Checksum: 0x71 (valid)
EDID block does NOT conform to EDID 1.3!
	sRGB is signaled, but the chromaticities do not match
