edid-decode (hex):

00 ff ff ff ff ff ff 00 4d 10 7b 14 00 00 00 00
2d 1a 01 04 a5 1d 11 78 06 de 50 a3 54 4c 99 26
0f 50 54 00 00 00 01 01 01 01 01 01 01 01 01 01
01 01 01 01 01 01 2a 36 80 a0 70 38 1f 40 30 20
35 00 26 a5 10 00 00 18 55 2b 80 a0 70 38 1f 40
30 20 35 00 26 a5 10 00 00 00 18 00 00 10 00 00
00 00 00 00 00 00 00 00 00 00 00 00 00 00 00 fe
00 4c 51 31 33 33 4d 31 4a 58 31 35 0a 20 00 7a

00 ff ff ff ff ff ff 00 4d 10 7b 14 00 00 00 00
2d 1a 01 04 a5 1d 11 78 06 de 50 a3 54 4c 99 26
0f 50 54 00 00 00 01 01 01 01 01 01 01 01 01 01
01 01 01 01 01 01 2a 36 80 a0 70 38 1f 40 30 20
35 00 26 a5 10 00 00 18 55 2b 80 a0 70 38 1f 40
30 20 35 00 26 a5 10 00 00 00 18 00 00 10 00 00
00 00 00 00 00 00 00 00 00 00 00 00 00 00 00 fe
00 4c 51 31 33 33 4d 31 4a 58 31 35 0a 20 00 7a

----------------

Block 0, Base EDID:
  EDID Structure Version & Revision: 1.4
  Vendor & Product Identification:
    Manufacturer: SHP
    Model: 5243
    Made in: week 45 of 2016
  Basic Display Parameters & Features:
    Digital display
    Bits per primary color channel: 8
    DisplayPort interface
    Maximum image size: 29 cm x 17 cm
    Gamma: 2.20
    Supported color formats: RGB 4:4:4
    Default (sRGB) color space is primary color space
    First detailed timing includes the native pixel format and preferred refresh rate
  Color Characteristics:
    Red  : 0.6396, 0.3291
    Green: 0.2998, 0.5996
    Blue : 0.1494, 0.0595
    White: 0.3125, 0.3281
  Established Timings I & II: none
  Standard Timings: none
  Detailed Timing Descriptors:
    DTD 1:  1920x1080   60.003116 Hz  16:9     66.663 kHz    138.660000 MHz (294 mm x 165 mm)
                 Hfront   48 Hsync  32 Hback   80 Hpol N
                 Vfront    3 Vsync   5 Vback   23 Vpol N
    DTD 2:  1920x1080   48.003358 Hz  16:9     53.332 kHz    110.930000 MHz (analog composite, sync-on-green, 294 mm x 165 mm)
                 Hfront   48 Hsync  32 Hback   80 Hpol N
                 Vfront    3 Vsync   5 Vback   23 Vpol N
    Detailed mode: 18 00 00 10 00 00 00 00 00 00 00 00 00 00 00 00 00 00 '..................'
    Alphanumeric Data String: 'LQ133M1JX15'
Checksum: 0x7a

----------------

Block 1, Unknown EDID Extension Block 0x00:
  00 ff ff ff ff ff ff 00 4d 10 7b 14 00 00 00 00 '........M.{.....'
  2d 1a 01 04 a5 1d 11 78 06 de 50 a3 54 4c 99 26 '-......x..P.TL.&'
  0f 50 54 00 00 00 01 01 01 01 01 01 01 01 01 01 '.PT.............'
  01 01 01 01 01 01 2a 36 80 a0 70 38 1f 40 30 20 '......*6..p8.@0 '
  35 00 26 a5 10 00 00 18 55 2b 80 a0 70 38 1f 40 '5.&.....U+..p8.@'
  30 20 35 00 26 a5 10 00 00 00 18 00 00 10 00 00 '0 5.&...........'
  00 00 00 00 00 00 00 00 00 00 00 00 00 00 00 fe '................'
  00 4c 51 31 33 33 4d 31 4a 58 31 35 0a 20 00 7a '.LQ133M1JX15. .z'
Checksum: 0x7a

----------------

Warnings:

Block 0, Base EDID:
  Missing Display Product Name.

Failures:

Block 0, Base EDID:
  Basic Display Parameters & Features: sRGB is signaled, but the chromaticities do not match.
  Detailed Timing Descriptor #3: Pixelclock < 10 MHz, assuming invalid data 0x18 0x00.
Block 1, Base EDID:
  Unknown Extension Block.
EDID:
  Base EDID: EDID specified 0 extension block(s), but found 1 extension block(s).

EDID conformity: FAIL
