edid-decode (hex):

00 ff ff ff ff ff ff 00 09 e5 0f 09 00 00 00 00
02 1e 01 04 a5 22 13 78 03 95 b5 96 5d 5a 92 29
1e 50 54 00 00 00 01 01 01 01 01 01 01 01 01 01
01 01 01 01 01 01 3d 8c 80 c8 70 38 60 40 30 20
36 00 58 c2 10 00 00 1a 6f 3a 80 c8 70 38 60 40
30 20 36 00 58 c2 10 00 00 1a 00 00 00 fd 00 30
90 a9 a9 26 01 0a 20 20 20 20 20 20 00 00 00 fe
00 4e 56 31 35 36 46 48 4d 2d 4e 58 33 0a 00 13

----------------

Block 0, Base EDID:
  EDID Structure Version & Revision: 1.4
  Vendor & Product Identification:
    Manufacturer: BOE
    Model: 2319
    Made in: week 2 of 2020
  Basic Display Parameters & Features:
    Digital display
    Bits per primary color channel: 8
    DisplayPort interface
    Maximum image size: 34 cm x 19 cm
    Gamma: 2.20
    Supported color formats: RGB 4:4:4
    First detailed timing includes the native pixel format and preferred refresh rate
    Display is continuous frequency
  Color Characteristics:
    Red  : 0.5878, 0.3642
    Green: 0.3525, 0.5712
    Blue : 0.1621, 0.1201
    White: 0.3134, 0.3291
  Established Timings I & II: none
  Standard Timings: none
  Detailed Timing Descriptors:
    DTD 1:  1920x1080  144.000289 Hz  16:9    169.344 kHz    359.010000 MHz (344 mm x 194 mm)
                 Hfront   48 Hsync  32 Hback  120 Hpol P
                 Vfront    3 Vsync   6 Vback   87 Vpol N
    DTD 2:  1920x1080   60.001123 Hz  16:9     70.561 kHz    149.590000 MHz (344 mm x 194 mm)
                 Hfront   48 Hsync  32 Hback  120 Hpol P
                 Vfront    3 Vsync   6 Vback   87 Vpol N
    Display Range Limits:
      Monitor ranges (Bare Limits): 48-144 Hz V, 169-169 kHz H, max dotclock 380 MHz
    Alphanumeric Data String: 'NV156FHM-NX3'
Checksum: 0x13

----------------

Warnings:

EDID:
  Base EDID: Some timings are out of range of the Monitor Ranges:
    Horizontal Freq: 70.561 - 169.344 kHz (Monitor: 169.000 - 169.000 kHz)

Failures:

Block 0, Base EDID:
  Missing Display Product Name.

EDID conformity: FAIL
