edid-decode (hex):

00 ff ff ff ff ff ff 00 40 a2 09 03 c5 62 33 2a
19 12 01 03 08 20 18 c6 ea 5c 11 9e 59 47 9b 27
10 48 4f ad ce 00 31 59 45 59 45 68 61 59 81 80
01 01 01 01 01 01 30 2a 00 98 51 00 2c 40 30 70
13 00 40 f0 10 00 00 1e 00 00 00 fd 00 32 a0 1e
46 0b 00 0a 20 20 20 20 20 20 00 00 00 fc 00 37
37 37 4b 0a 20 20 20 20 20 20 20 20 00 00 00 ff
00 30 38 30 36 35 30 30 31 37 39 32 30 35 00 f8

00 ff ff ff ff ff ff 00 40 a2 09 03 c5 62 33 2a
19 12 01 03 08 20 18 c6 ea 5c 11 9e 59 47 9b 27
10 48 4f ad ce 00 31 59 45 59 45 68 61 59 81 80
01 01 01 01 01 01 30 2a 00 98 51 00 2c 40 30 70
13 00 40 f0 10 00 00 1e 00 00 00 fd 00 32 a0 1e
46 0b 00 0a 20 20 20 20 20 20 00 00 00 fc 00 37
37 37 4b 0a 20 20 20 20 20 20 20 20 00 00 00 ff
00 30 38 30 36 35 30 30 31 37 39 32 30 35 00 f8

----------------

Block 0, Base EDID:
  EDID Structure Version & Revision: 1.3
  Vendor & Product Identification:
    Manufacturer: PEB
    Model: 777
    Serial Number: ...
    Made in: week 25 of 2008
  Basic Display Parameters & Features:
    Analog display
    Signal Level Standard: 0.700 : 0.300 : 1.000 V p-p
    Blank level equals black level
    Sync: Separate
    Maximum image size: 32 cm x 24 cm
    Gamma: 2.98
    DPMS levels: Standby Suspend Off
    RGB color display
    First detailed timing is the preferred timing
  Color Characteristics:
    Red  : 0.6181, 0.3486
    Green: 0.2802, 0.6054
    Blue : 0.1523, 0.0634
    White: 0.2812, 0.3095
  Established Timings I & II:
    IBM     :   720x400    70.081663 Hz   9:5     31.467 kHz     28.320000 MHz
    DMT 0x04:   640x480    59.940476 Hz   4:3     31.469 kHz     25.175000 MHz
    DMT 0x05:   640x480    72.808802 Hz   4:3     37.861 kHz     31.500000 MHz
    DMT 0x06:   640x480    75.000000 Hz   4:3     37.500 kHz     31.500000 MHz
    DMT 0x09:   800x600    60.316541 Hz   4:3     37.879 kHz     40.000000 MHz
    DMT 0x0a:   800x600    72.187572 Hz   4:3     48.077 kHz     50.000000 MHz
    DMT 0x0b:   800x600    75.000000 Hz   4:3     46.875 kHz     49.500000 MHz
    DMT 0x10:  1024x768    60.003840 Hz   4:3     48.363 kHz     65.000000 MHz
    DMT 0x11:  1024x768    70.069359 Hz   4:3     56.476 kHz     75.000000 MHz
    DMT 0x12:  1024x768    75.028582 Hz   4:3     60.023 kHz     78.750000 MHz
  Standard Timings:
    DMT 0x07:   640x480    85.008312 Hz   4:3     43.269 kHz     36.000000 MHz
    DMT 0x0c:   800x600    85.061274 Hz   4:3     53.674 kHz     56.250000 MHz
    GTF     :   800x600    99.999707 Hz   4:3     63.600 kHz     68.179000 MHz
    DMT 0x13:  1024x768    84.996690 Hz   4:3     68.677 kHz     94.500000 MHz
    DMT 0x23:  1280x1024   60.019740 Hz   5:4     63.981 kHz    108.000000 MHz
  Detailed Timing Descriptors:
    DTD 1:  1280x1024   59.907343 Hz   5:4     63.981 kHz    108.000000 MHz (320 mm x 240 mm)
                 Hfront   48 Hsync 112 Hback  248 Hpol P
                 Vfront    1 Vsync   3 Vback   40 Vpol P
    Display Range Limits:
      Monitor ranges (GTF): 50-160 Hz V, 30-70 kHz H, max dotclock 110 MHz
    Display Product Name: '777K'
    Display Product Serial Number: ...
Checksum: 0xf8

----------------

Block 1, Unknown EDID Extension Block 0x00:
  00 ff ff ff ff ff ff 00 40 a2 09 03 c5 62 33 2a '........@....b3*'
  19 12 01 03 08 20 18 c6 ea 5c 11 9e 59 47 9b 27 '..... ...\..YG.''
  10 48 4f ad ce 00 31 59 45 59 45 68 61 59 81 80 '.HO...1YEYEhaY..'
  01 01 01 01 01 01 30 2a 00 98 51 00 2c 40 30 70 '......0*..Q.,@0p'
  13 00 40 f0 10 00 00 1e 00 00 00 fd 00 32 a0 1e '..@..........2..'
  46 0b 00 0a 20 20 20 20 20 20 00 00 00 fc 00 37 'F...      .....7'
  37 37 4b 0a 20 20 20 20 20 20 20 20 00 00 00 ff '77K.        ....'
  00 30 38 30 36 35 30 30 31 37 39 32 30 35 00 f8 '.0806500179205..'
Checksum: 0xf8

----------------

Failures:

Block 1, Base EDID:
  Unknown Extension Block.
EDID:
  Base EDID: EDID specified 0 extension block(s), but found 1 extension block(s).

EDID conformity: FAIL
