edid-decode (hex):

00 ff ff ff ff ff ff 00 0d ae 63 13 00 00 00 00
25 18 01 04 a5 1d 11 78 02 ac 95 a4 56 4f a3 29
0e 50 54 00 00 00 01 01 01 01 01 01 01 01 01 01
01 01 01 01 01 01 36 36 80 a0 70 38 20 40 2e 1e
24 00 25 a5 10 00 00 1a 5e 2b 80 a0 70 38 20 40
2e 1e 24 00 25 a5 10 00 00 1a 00 00 00 fe 00 43
59 57 58 58 80 31 33 33 48 53 45 0a 00 00 00 00
00 02 41 01 a3 00 10 00 00 0a 01 0a 20 20 00 33

----------------

Block 0, Base EDID:
  EDID Structure Version & Revision: 1.4
  Vendor & Product Identification:
    Manufacturer: CMN
    Model: 4963
    Made in: week 37 of 2014
  Basic Display Parameters & Features:
    Digital display
    Bits per primary color channel: 8
    DisplayPort interface
    Maximum image size: 29 cm x 17 cm
    Gamma: 2.20
    Supported color formats: RGB 4:4:4
    First detailed timing includes the native pixel format and preferred refresh rate
  Color Characteristics:
    Red  : 0.6425, 0.3378
    Green: 0.3115, 0.6367
    Blue : 0.1621, 0.0556
    White: 0.3134, 0.3291
  Established Timings I & II: none
  Standard Timings: none
  Detailed Timing Descriptors:
    DTD 1:  1920x1080   60.001038 Hz  16:9     66.721 kHz    138.780000 MHz (293 mm x 165 mm)
                 Hfront   46 Hsync  30 Hback   84 Hpol P
                 Vfront    2 Vsync   4 Vback   26 Vpol N
    DTD 2:  1920x1080   47.999101 Hz  16:9     53.375 kHz    111.020000 MHz (293 mm x 165 mm)
                 Hfront   46 Hsync  30 Hback   84 Hpol P
                 Vfront    2 Vsync   4 Vback   26 Vpol N
    Alphanumeric Data String: 'CYWXX'
    Manufacturer-Specified Display Descriptor (0x00): 00 00 00 02 41 01 a3 00 10 00 00 0a 01 0a 20 20 '....A.........  '
Checksum: 0x33

----------------

Failures:

Block 0, Base EDID:
  Alphanumeric Data String: Non-printable character.
  Missing Display Product Name.

EDID conformity: FAIL
