
EDID (hex):
00ffffffffffff0006af445300000000
01120103901e13780a26759658579328
1e505400000001010101010101010101
0101010101018a1b0092502017303020
36002fbd1000001a8a1b009250201730
302036002fbd1000001a000000fe0043
33383448804231343145573500000000
00000000000000000001010a20200042

Extracted contents:
header:          00 ff ff ff ff ff ff 00
serial number:   06 af 44 53 00 00 00 00 01 12
version:         01 03
basic params:    90 1e 13 78 0a
chroma info:     26 75 96 58 57 93 28 1e 50 54
established:     00 00 00
standard:        01 01 01 01 01 01 01 01 01 01 01 01 01 01 01 01
descriptor 1:    8a 1b 00 92 50 20 17 30 30 20 36 00 2f bd 10 00 00 1a
descriptor 2:    8a 1b 00 92 50 20 17 30 30 20 36 00 2f bd 10 00 00 1a
descriptor 3:    00 00 00 fe 00 43 33 38 34 48 80 42 31 34 31 45 57 35
descriptor 4:    00 00 00 00 00 00 00 00 00 00 00 00 00 01 01 0a 20 20
extensions:      00
checksum:        42

EDID version: 1.3
Manufacturer: AUO Model 5344 Serial Number --
Made in week 1 of 2008
Digital display
Maximum image size: 30 cm x 19 cm
Gamma: 2.20
RGB color display
First detailed timing is preferred timing
Display x,y Chromaticity:
  Red:   0.5859, 0.3457
  Green: 0.3408, 0.5761
  Blue:  0.1572, 0.1201
  White: 0.3134, 0.3291
Established timings supported:
Standard timings supported:
Detailed mode: Clock 70.500 MHz, 303 mm x 189 mm
               1280 1328 1360 1426 hborder 0
                800  803  809  823 vborder 0
               +hsync -vsync 
               VertFreq: 60 Hz, HorFreq: 49438 Hz
Detailed mode: Clock 70.500 MHz, 303 mm x 189 mm
               1280 1328 1360 1426 hborder 0
                800  803  809  823 vborder 0
               +hsync -vsync 
               VertFreq: 60 Hz, HorFreq: 49438 Hz
ASCII string: C384H
Manufacturer-specified data, tag 0
Checksum: 0x42 (valid)
EDID block does NOT conform to EDID 1.3!
	Digital display field contains garbage: 10
	Missing name descriptor
	Missing monitor ranges
	Detailed block string not properly terminated
