edid-decode (hex):

00 ff ff ff ff ff ff 00 30 ae 01 00 88 88 88 00
6c 21 01 04 a5 0c 13 78 08 0d c9 a0 57 47 98 27
12 48 4c 00 00 00 01 01 01 01 01 01 01 01 01 01
01 01 01 01 01 01 00 00 00 10 00 00 00 00 00 00
00 00 00 00 00 00 00 00 00 00 00 10 00 00 00 00
00 00 00 00 00 00 00 00 00 00 00 00 00 fd 08 32
96 14 2d 46 00 0a 20 20 20 20 20 20 00 00 00 fc
00 47 6f 20 44 69 73 70 6c 61 79 0a 20 20 01 ff

70 12 2b 00 00 03 01 28 ac 7d 00 84 37 04 0d 01
59 80 3b 00 7f 07 41 00 1d 80 05 00 b7 35 00 84
37 04 5f 00 47 80 07 00 7f 07 1c 00 0c 80 02 00
1c 00 00 00 00 00 00 00 00 00 00 00 00 00 00 00
00 00 00 00 00 00 00 00 00 00 00 00 00 00 00 00
00 00 00 00 00 00 00 00 00 00 00 00 00 00 00 00
00 00 00 00 00 00 00 00 00 00 00 00 00 00 00 00
00 00 00 00 00 00 00 00 00 00 00 00 00 00 00 90

00 ff ff ff ff ff ff 00 30 ae 01 00 88 88 88 00
6c 21 01 04 a5 0c 13 78 08 0d c9 a0 57 47 98 27
12 48 4c 00 00 00 01 01 01 01 01 01 01 01 01 01
01 01 01 01 01 01 00 00 00 10 00 00 00 00 00 00
00 00 00 00 00 00 00 00 00 00 00 10 00 00 00 00
00 00 00 00 00 00 00 00 00 00 00 00 00 fd 08 32
96 14 2d 46 00 0a 20 20 20 20 20 20 00 00 00 fc
00 47 6f 20 44 69 73 70 6c 61 79 0a 20 20 01 ff

70 12 2b 00 00 03 01 28 ac 7d 00 84 37 04 0d 01
59 80 3b 00 7f 07 41 00 1d 80 05 00 b7 35 00 84
37 04 5f 00 47 80 07 00 7f 07 1c 00 0c 80 02 00
1c 00 00 00 00 00 00 00 00 00 00 00 00 00 00 00
00 00 00 00 00 00 00 00 00 00 00 00 00 00 00 00
00 00 00 00 00 00 00 00 00 00 00 00 00 00 00 00
00 00 00 00 00 00 00 00 00 00 00 00 00 00 00 00
00 00 00 00 00 00 00 00 00 00 00 00 00 00 00 90

----------------

Block 0, Base EDID:
  EDID Structure Version & Revision: 1.4
  Vendor & Product Identification:
    Manufacturer: LEN
    Model: 1
    Serial Number: ...
    Made in: week 108 of 2023
  Basic Display Parameters & Features:
    Digital display
    Bits per primary color channel: 8
    DisplayPort interface
    Maximum image size: 12 cm x 19 cm
    Gamma: 2.20
    Supported color formats: RGB 4:4:4, YCrCb 4:4:4
    First detailed timing does not include the native pixel format and preferred refresh rate
  Color Characteristics:
    Red  : 0.6250, 0.3398
    Green: 0.2802, 0.5947
    Blue : 0.1552, 0.0703
    White: 0.2832, 0.2978
  Established Timings I & II: none
  Standard Timings: none
  Detailed Timing Descriptors:
    Dummy Descriptor:
    Dummy Descriptor:
    Display Range Limits:
      Monitor ranges (GTF): 50-150 Hz V, 20-300 kHz H, max dotclock 700 MHz
    Display Product Name: 'Go Display'
  Extension blocks: 1
Checksum: 0xff

----------------

Block 1, DisplayID Extension Block:
  Version: 1.2
  Extension Count: 0
  Display Product Type: Extension Section
  Video Timing Modes Type 1 - Detailed Timings Data Block:
    DTD:  1080x1920  119.999254 Hz  16:9    238.319 kHz    321.730000 MHz (aspect 16:9, no 3D stereo, preferred)
               Hfront   90 Hsync  60 Hback  120 Hpol P
               Vfront   30 Vsync   6 Vback   30 Vpol P
    DTD:  1080x1920   59.999372 Hz  16:9    116.939 kHz    137.520000 MHz (aspect 16:9, no 3D stereo, preferred)
               Hfront   72 Hsync   8 Hback   16 Hpol P
               Vfront   13 Vsync   3 Vback   13 Vpol P
  Checksum: 0x1c
Checksum: 0x90  Unused space in Extension Block: 78 bytes

----------------

Block 2, Unknown EDID Extension Block 0x00:
  00 ff ff ff ff ff ff 00 30 ae 01 00 88 88 88 00 '........0.......'
  6c 21 01 04 a5 0c 13 78 08 0d c9 a0 57 47 98 27 'l!.....x....WG.''
  12 48 4c 00 00 00 01 01 01 01 01 01 01 01 01 01 '.HL.............'
  01 01 01 01 01 01 00 00 00 10 00 00 00 00 00 00 '................'
  00 00 00 00 00 00 00 00 00 00 00 10 00 00 00 00 '................'
  00 00 00 00 00 00 00 00 00 00 00 00 00 fd 08 32 '...............2'
  96 14 2d 46 00 0a 20 20 20 20 20 20 00 00 00 fc '..-F..      ....'
  00 47 6f 20 44 69 73 70 6c 61 79 0a 20 20 01 ff '.Go Display.  ..'
Checksum: 0xff

----------------

Block 3, DisplayID Extension Block:
  Version: 1.2
  Extension Count: 0
  Video Timing Modes Type 1 - Detailed Timings Data Block:
    DTD:  1080x1920  119.999254 Hz  16:9    238.319 kHz    321.730000 MHz (aspect 16:9, no 3D stereo, preferred)
               Hfront   90 Hsync  60 Hback  120 Hpol P
               Vfront   30 Vsync   6 Vback   30 Vpol P
    DTD:  1080x1920   59.999372 Hz  16:9    116.939 kHz    137.520000 MHz (aspect 16:9, no 3D stereo, preferred)
               Hfront   72 Hsync   8 Hback   16 Hpol P
               Vfront   13 Vsync   3 Vback   13 Vpol P
  Checksum: 0x1c
Checksum: 0x90  Unused space in Extension Block: 78 bytes

----------------

Warnings:

Block 0, Base EDID:
  Display Range Limits: GTF support is deprecated in EDID 1.4.

Failures:

Block 0, Base EDID:
  Vendor & Product Identification: Invalid week 108 of manufacture.
  Standard Timings: Missing preferred timing.
  Display Range Limits: GTF can't be combined with non-continuous frequencies.
Block 1, DisplayID Extension Block:
  DisplayID Base Block has no product type.
  Expected 0 DisplayID Extension Block, but got 1.
Block 2, Base EDID:
  Unknown Extension Block.
EDID:
  Base EDID: EDID specified 1 extension block(s), but found 3 extension block(s).
  DisplayID: Missing DisplayID Product Identification Data Block.

EDID conformity: FAIL
