
EDID (hex):
00ffffffffffff001c54142701010101
24210104b53c2278fb91e5a85443b027
0b5054254a00d1c081c0010101010101
010101010101565e00a0a0a029503020
3500544f2100001a000000fd0c30f087
8767010a202020202020000000fc004d
32375120580a202020202020000000ff
003233333630423030303235320a026d
020330714a0203111213042f1f103f23
090707830100006d1a0000020330f000
04624c624ce305c301e6060d0162624c
b78c80c87038644018102500544f2100
001a6fc200a0a0a0555030203500544f
2100001a22e50050a0a067500820f80c
544f2100001a00000000000000000000
00000000000000000000000000000041
701279000003013c45090104ff094f00
2f001f009f057600020004005f380104
ff099f002f001f009f051d0002000400
86860104ff09a7002f001f009f055600
02000400000000000000000000000000
00000000000000000000000000000000
00000000000000000000000000000000
0000000000000000000000000000b790

edid-decode (hex):

00 ff ff ff ff ff ff 00 1c 54 14 27 01 01 01 01
24 21 01 04 b5 3c 22 78 fb 91 e5 a8 54 43 b0 27
0b 50 54 25 4a 00 d1 c0 81 c0 01 01 01 01 01 01
01 01 01 01 01 01 56 5e 00 a0 a0 a0 29 50 30 20
35 00 54 4f 21 00 00 1a 00 00 00 fd 0c 30 f0 87
87 67 01 0a 20 20 20 20 20 20 00 00 00 fc 00 4d
32 37 51 20 58 0a 20 20 20 20 20 20 00 00 00 ff
00 32 33 33 36 30 42 30 30 30 32 35 32 0a 02 6d

02 03 30 71 4a 02 03 11 12 13 04 2f 1f 10 3f 23
09 07 07 83 01 00 00 6d 1a 00 00 02 03 30 f0 00
04 62 4c 62 4c e3 05 c3 01 e6 06 0d 01 62 62 4c
b7 8c 80 c8 70 38 64 40 18 10 25 00 54 4f 21 00
00 1a 6f c2 00 a0 a0 a0 55 50 30 20 35 00 54 4f
21 00 00 1a 22 e5 00 50 a0 a0 67 50 08 20 f8 0c
54 4f 21 00 00 1a 00 00 00 00 00 00 00 00 00 00
00 00 00 00 00 00 00 00 00 00 00 00 00 00 00 41

70 12 79 00 00 03 01 3c 45 09 01 04 ff 09 4f 00
2f 00 1f 00 9f 05 76 00 02 00 04 00 5f 38 01 04
ff 09 9f 00 2f 00 1f 00 9f 05 1d 00 02 00 04 00
86 86 01 04 ff 09 a7 00 2f 00 1f 00 9f 05 56 00
02 00 04 00 00 00 00 00 00 00 00 00 00 00 00 00
00 00 00 00 00 00 00 00 00 00 00 00 00 00 00 00
00 00 00 00 00 00 00 00 00 00 00 00 00 00 00 00
00 00 00 00 00 00 00 00 00 00 00 00 00 00 b7 90

----------------

Block 0, Base EDID:
  EDID Structure Version & Revision: 1.4
  Vendor & Product Identification:
    Manufacturer: GBT
    Model: 10004
    Serial Number: 16843009
    Made in: week 36 of 2023
  Basic Display Parameters & Features:
    Digital display
    Bits per primary color channel: 10
    DisplayPort interface
    Maximum image size: 60 cm x 34 cm
    Gamma: 2.20
    DPMS levels: Standby Suspend Off
    Supported color formats: RGB 4:4:4, YCrCb 4:4:4, YCrCb 4:2:2
    First detailed timing includes the native pixel format and preferred refresh rate
    Display is continuous frequency
  Color Characteristics:
    Red  : 0.6582, 0.3291
    Green: 0.2617, 0.6884
    Blue : 0.1552, 0.0449
    White: 0.3134, 0.3291
  Established Timings I & II:
    DMT 0x04:   640x480    59.940476 Hz   4:3     31.469 kHz     25.175000 MHz
    DMT 0x06:   640x480    75.000000 Hz   4:3     37.500 kHz     31.500000 MHz
    DMT 0x09:   800x600    60.316541 Hz   4:3     37.879 kHz     40.000000 MHz
    DMT 0x0b:   800x600    75.000000 Hz   4:3     46.875 kHz     49.500000 MHz
    DMT 0x10:  1024x768    60.003840 Hz   4:3     48.363 kHz     65.000000 MHz
    DMT 0x12:  1024x768    75.028582 Hz   4:3     60.023 kHz     78.750000 MHz
  Standard Timings:
    DMT 0x52:  1920x1080   60.000000 Hz  16:9     67.500 kHz    148.500000 MHz
    DMT 0x55:  1280x720    60.000000 Hz  16:9     45.000 kHz     74.250000 MHz
  Detailed Timing Descriptors:
    DTD 1:  2560x1440   59.950550 Hz  16:9     88.787 kHz    241.500000 MHz (596 mm x 335 mm)
                 Hfront   48 Hsync  32 Hback   80 Hpol P
                 Vfront    3 Vsync   5 Vback   33 Vpol N
    Display Range Limits:
      Monitor ranges (Bare Limits): 48-240 Hz V, 390-390 kHz H, max dotclock 1030 MHz
    Display Product Name: 'M27Q X'
    Display Product Serial Number: '23360B000252'
  Extension blocks: 2
Checksum: 0x6d

----------------

Block 1, CTA-861 Extension Block:
  Revision: 3
  Basic audio support
  Supports YCbCr 4:4:4
  Supports YCbCr 4:2:2
  Native detailed modes: 1
  Video Data Block:
    VIC   2:   720x480    59.940060 Hz   4:3     31.469 kHz     27.000000 MHz
    VIC   3:   720x480    59.940060 Hz  16:9     31.469 kHz     27.000000 MHz
    VIC  17:   720x576    50.000000 Hz   4:3     31.250 kHz     27.000000 MHz
    VIC  18:   720x576    50.000000 Hz  16:9     31.250 kHz     27.000000 MHz
    VIC  19:  1280x720    50.000000 Hz  16:9     37.500 kHz     74.250000 MHz
    VIC   4:  1280x720    60.000000 Hz  16:9     45.000 kHz     74.250000 MHz
    VIC  47:  1280x720   120.000000 Hz  16:9     90.000 kHz    148.500000 MHz
    VIC  31:  1920x1080   50.000000 Hz  16:9     56.250 kHz    148.500000 MHz
    VIC  16:  1920x1080   60.000000 Hz  16:9     67.500 kHz    148.500000 MHz
    VIC  63:  1920x1080  120.000000 Hz  16:9    135.000 kHz    297.000000 MHz
  Audio Data Block:
    Linear PCM:
      Max channels: 2
      Supported sample rates (kHz): 48 44.1 32
      Supported sample sizes (bits): 24 20 16
  Speaker Allocation Data Block:
    FL/FR - Front Left/Right
  Vendor-Specific Data Block (AMD), OUI 00-00-1A:
    Version: 2.3
    Minimum Refresh Rate: 48 Hz
    Maximum Refresh Rate: 240 Hz
    Flags 1.x: 0x00
    Flags 2.x: 0x04
    Maximum luminance: 98 (417.710 cd/m^2)
    Minimum luminance: 76 (0.371 cd/m^2)
    Maximum luminance (without local dimming): 98 (417.710 cd/m^2)
    Minimum luminance (without local dimming): 76 (0.371 cd/m^2)
  Colorimetry Data Block:
    xvYCC601
    xvYCC709
    BT2020YCC
    BT2020RGB
    Gamut Boundary Description Metadata Profile P0
  HDR Static Metadata Data Block:
    Electro optical transfer functions:
      Traditional gamma - SDR luminance range
      SMPTE ST2084
      Hybrid Log-Gamma
    Supported static metadata descriptors:
      Static metadata type 1
    Desired content max luminance: 98 (417.710 cd/m^2)
    Desired content max frame-average luminance: 98 (417.710 cd/m^2)
    Desired content min luminance: 76 (0.371 cd/m^2)
  Detailed Timing Descriptors:
    DTD 2:  1920x1080  143.999840 Hz  16:9    169.920 kHz    360.230000 MHz (596 mm x 335 mm)
                 Hfront   24 Hsync  16 Hback  160 Hpol P
                 Vfront    2 Vsync   5 Vback   93 Vpol N
    DTD 3:  2560x1440  119.997589 Hz  16:9    182.996 kHz    497.750000 MHz (596 mm x 335 mm)
                 Hfront   48 Hsync  32 Hback   80 Hpol P
                 Vfront    3 Vsync   5 Vback   77 Vpol N
    DTD 4:  2560x1440  143.998311 Hz  16:9    222.189 kHz    586.580000 MHz (596 mm x 335 mm)
                 Hfront    8 Hsync  32 Hback   40 Hpol P
                 Vfront   63 Vsync   8 Vback   32 Vpol N
Checksum: 0x41  Unused space in Extension Block: 25 bytes

----------------

Block 2, DisplayID Extension Block:
  Version: 1.2
  Extension Count: 0
  Display Product Type: Extension Section
  Video Timing Modes Type 1 - Detailed Timings Data Block:
    DTD:  2560x1440  164.999903 Hz  16:9    257.235 kHz    679.100000 MHz (aspect 16:9, no 3D stereo)
               Hfront   48 Hsync  32 Hback    0 Hpol N
               Vfront    3 Vsync   5 Vback  111 Vpol N
    DTD:  2560x1440  200.000000 Hz  16:9    294.000 kHz    799.680000 MHz (aspect 16:9, no 3D stereo)
               Hfront   48 Hsync  32 Hback   80 Hpol N
               Vfront    3 Vsync   5 Vback   22 Vpol N
    DTD:  2560x1440  239.998214 Hz  16:9    366.477 kHz    999.750000 MHz (aspect 16:9, no 3D stereo)
               Hfront   48 Hsync  32 Hback   88 Hpol N
               Vfront    3 Vsync   5 Vback   79 Vpol N
  Checksum: 0xb7
Checksum: 0x90
