
EDID (hex):
00ffffffffffff000e14011400000000
22110103802115780a556a985b518e26
2f4f5900000001010101010101010101
010101010101ea1a0080502010302020
13004bcf100000190000000f00202020
2020202020206e050f00000000fe0043
50540a202020202020202020000000fe
00434c41413135345742303341200032

Extracted contents:
header:          00 ff ff ff ff ff ff 00
serial number:   0e 14 01 14 00 00 00 00 22 11
version:         01 03
basic params:    80 21 15 78 0a
chroma info:     55 6a 98 5b 51 8e 26 2f 4f 59
established:     00 00 00
standard:        01 01 01 01 01 01 01 01 01 01 01 01 01 01 01 01
descriptor 1:    ea 1a 00 80 50 20 10 30 20 20 13 00 4b cf 10 00 00 19
descriptor 2:    00 00 00 0f 00 20 20 20 20 20 20 20 20 20 6e 05 0f 00
descriptor 3:    00 00 00 fe 00 43 50 54 0a 20 20 20 20 20 20 20 20 20
descriptor 4:    00 00 00 fe 00 43 4c 41 41 31 35 34 57 42 30 33 41 20
extensions:      00
checksum:        32

EDID version: 1.3
Manufacturer: CPT Model 1401 Serial Number --
Made in week 34 of 2007
Digital display
Maximum image size: 33 cm x 21 cm
Gamma: 2.20
RGB color display
First detailed timing is preferred timing
Display x,y Chromaticity:
  Red:   0.5947, 0.3564
  Green: 0.3173, 0.5556
  Blue:  0.1494, 0.1855
  White: 0.3105, 0.3496
Established timings supported:
Standard timings supported:
Detailed mode: Clock 68.900 MHz, 331 mm x 207 mm
               1280 1312 1344 1408 hborder 0
                800  801  804  816 vborder 0
               -hsync -vsync 
               VertFreq: 59 Hz, HorFreq: 48934 Hz
Manufacturer-specified data, tag 15
ASCII string: CPT
ASCII string: CLAA154WB03A 
Checksum: 0x32 (valid)
EDID block does NOT conform to EDID 1.3!
	Missing name descriptor
	Missing monitor ranges
