
EDID (hex):
00ffffffffffff0006af241400000000
01110103801d12780a87f594574f8c27
27505400000001010101010101010101
010101010101ee1b00a8502017303020
360022b410000019ee1b00a850201730
3020360022b410000000000000fe0058
553239300042313333455731000000fe
0023323d466481a7e501010a2020004e

Extracted contents:
header:          00 ff ff ff ff ff ff 00
serial number:   06 af 24 14 00 00 00 00 01 11
version:         01 03
basic params:    80 1d 12 78 0a
chroma info:     87 f5 94 57 4f 8c 27 27 50 54
established:     00 00 00
standard:        01 01 01 01 01 01 01 01 01 01 01 01 01 01 01 01
descriptor 1:    ee 1b 00 a8 50 20 17 30 30 20 36 00 22 b4 10 00 00 19
descriptor 2:    ee 1b 00 a8 50 20 17 30 30 20 36 00 22 b4 10 00 00 00
descriptor 3:    00 00 00 fe 00 58 55 32 39 30 00 42 31 33 33 45 57 31
descriptor 4:    00 00 00 fe 00 23 32 3d 46 64 81 a7 e5 01 01 0a 20 20
extensions:      00
checksum:        4e

EDID version: 1.3
Manufacturer: AUO Model 1424 Serial Number --
Made in week 1 of 2007
Digital display
Maximum image size: 29 cm x 18 cm
Gamma: 2.20
RGB color display
First detailed timing is preferred timing
Display x,y Chromaticity:
  Red:   0.5800, 0.3398
  Green: 0.3095, 0.5498
  Blue:  0.1552, 0.1552
  White: 0.3134, 0.3291
Established timings supported:
Standard timings supported:
Detailed mode: Clock 71.500 MHz, 290 mm x 180 mm
               1280 1328 1360 1448 hborder 0
                800  803  809  823 vborder 0
               -hsync -vsync 
               VertFreq: 59 Hz, HorFreq: 49378 Hz
Detailed mode: Clock 71.500 MHz, 290 mm x 180 mm
               1280 1328 1360 1448 hborder 0
                800  803  809  823 vborder 0
               -hsync -vsync analog composite 
               VertFreq: 59 Hz, HorFreq: 49378 Hz
ASCII string: XU290
ASCII string: #2=Fd
Checksum: 0x4e (valid)
EDID block does NOT conform to EDID 1.3!
	Missing name descriptor
	Missing monitor ranges
	Detailed block string not properly terminated
