
EDID (hex):
00ffffffffffff0006af241400000000
01120103901d12780a87f594574f8c27
27505400000001010101010101010101
010101010101621b008b502017303020
360022b41000001a621b008b50201730
3020360022b41000001a000000fe004d
54363739804231333345573100000000
00000000000000000001010a2020003c

Extracted contents:
header:          00 ff ff ff ff ff ff 00
serial number:   06 af 24 14 00 00 00 00 01 12
version:         01 03
basic params:    90 1d 12 78 0a
chroma info:     87 f5 94 57 4f 8c 27 27 50 54
established:     00 00 00
standard:        01 01 01 01 01 01 01 01 01 01 01 01 01 01 01 01
descriptor 1:    62 1b 00 8b 50 20 17 30 30 20 36 00 22 b4 10 00 00 1a
descriptor 2:    62 1b 00 8b 50 20 17 30 30 20 36 00 22 b4 10 00 00 1a
descriptor 3:    00 00 00 fe 00 4d 54 36 37 39 80 42 31 33 33 45 57 31
descriptor 4:    00 00 00 00 00 00 00 00 00 00 00 00 00 01 01 0a 20 20
extensions:      00
checksum:        3c

EDID version: 1.3
Manufacturer: AUO Model 1424 Serial Number --
Made in week 1 of 2008
Digital display
Maximum image size: 29 cm x 18 cm
Gamma: 2.20
RGB color display
First detailed timing is preferred timing
Display x,y Chromaticity:
  Red:   0.5800, 0.3398
  Green: 0.3095, 0.5498
  Blue:  0.1552, 0.1552
  White: 0.3134, 0.3291
Established timings supported:
Standard timings supported:
Detailed mode: Clock 70.100 MHz, 290 mm x 180 mm
               1280 1328 1360 1419 hborder 0
                800  803  809  823 vborder 0
               +hsync -vsync 
               VertFreq: 60 Hz, HorFreq: 49400 Hz
Detailed mode: Clock 70.100 MHz, 290 mm x 180 mm
               1280 1328 1360 1419 hborder 0
                800  803  809  823 vborder 0
               +hsync -vsync 
               VertFreq: 60 Hz, HorFreq: 49400 Hz
ASCII string: MT679
Manufacturer-specified data, tag 0
Checksum: 0x3c (valid)
EDID block does NOT conform to EDID 1.3!
	Digital display field contains garbage: 10
	Missing name descriptor
	Missing monitor ranges
	Detailed block string not properly terminated
