
EDID (hex):
00ffffffffffff0010accd42838cc032
1520010380341d780a65f5a9554e9f24
0b5054210800d1c081c081809500b300
010101010101023a801871382d40942c
45080f282100001e000000fd00304b38
5412000a202020202020000000fc004f
707469506c65782041494f0a00000000
000000000000000000000100000000ca

edid-decode (hex):

00 ff ff ff ff ff ff 00 10 ac cd 42 83 8c c0 32
15 20 01 03 80 34 1d 78 0a 65 f5 a9 55 4e 9f 24
0b 50 54 21 08 00 d1 c0 81 c0 81 80 95 00 b3 00
01 01 01 01 01 01 02 3a 80 18 71 38 2d 40 94 2c
45 08 0f 28 21 00 00 1e 00 00 00 fd 00 30 4b 38
54 12 00 0a 20 20 20 20 20 20 00 00 00 fc 00 4f
70 74 69 50 6c 65 78 20 41 49 4f 0a 00 00 00 00
00 00 00 00 00 00 00 00 00 00 01 00 00 00 00 ca

----------------

Block 0, Base EDID:
  EDID Structure Version & Revision: 1.3
  Vendor & Product Identification:
    Manufacturer: DEL
    Model: 17101
    Serial Number: 851479683
    Made in: week 21 of 2022
  Basic Display Parameters & Features:
    Digital display
    Maximum image size: 52 cm x 29 cm
    Gamma: 2.20
    RGB color display
    First detailed timing is the preferred timing
  Color Characteristics:
    Red  : 0.6611, 0.3339
    Green: 0.3056, 0.6220
    Blue : 0.1435, 0.0458
    White: 0.3134, 0.3291
  Established Timings I & II:
    DMT 0x04:   640x480    59.940476 Hz   4:3     31.469 kHz     25.175000 MHz
    DMT 0x09:   800x600    60.316541 Hz   4:3     37.879 kHz     40.000000 MHz
    DMT 0x10:  1024x768    60.003840 Hz   4:3     48.363 kHz     65.000000 MHz
  Standard Timings:
    DMT 0x52:  1920x1080   60.000000 Hz  16:9     67.500 kHz    148.500000 MHz
    DMT 0x55:  1280x720    60.000000 Hz  16:9     45.000 kHz     74.250000 MHz
    DMT 0x23:  1280x1024   60.019740 Hz   5:4     63.981 kHz    108.000000 MHz
    DMT 0x2f:  1440x900    59.887445 Hz  16:10    55.935 kHz    106.500000 MHz
    DMT 0x3a:  1680x1050   59.954250 Hz  16:10    65.290 kHz    146.250000 MHz
  Detailed Timing Descriptors:
    DTD 1:  1920x1080   60.000000 Hz  16:9     67.500 kHz    148.500000 MHz (527 mm x 296 mm)
                 Hfront  148 Hsync  44 Hback   88 Hpol P
                 Vfront   36 Vsync   5 Vback    4 Vpol P
    Display Range Limits:
      Monitor ranges (GTF): 48-75 Hz V, 56-84 kHz H, max dotclock 180 MHz
    Display Product Name: 'OptiPlex AIO'
    Manufacturer-Specified Display Descriptor (0x00): 00 00 00 00 00 00 00 00 00 00 00 00 01 00 00 00 '................'
Checksum: 0xca
