
EDID (hex):
00ffffffffffff0009e5860500000000
01130103801f11780a22c095564e8e26
24505400000001010101010101010101
010101010101411c56a0500016303020
360035ad10000019000000fe000a2020
20202020202020202020000000fe0042
4f45204f540a202020202020000000fe
0048543134305758422d3130300a0051

Extracted contents:
header:          00 ff ff ff ff ff ff 00
serial number:   09 e5 86 05 00 00 00 00 01 13
version:         01 03
basic params:    80 1f 11 78 0a
chroma info:     22 c0 95 56 4e 8e 26 24 50 54
established:     00 00 00
standard:        01 01 01 01 01 01 01 01 01 01 01 01 01 01 01 01
descriptor 1:    41 1c 56 a0 50 00 16 30 30 20 36 00 35 ad 10 00 00 19
descriptor 2:    00 00 00 fe 00 0a 20 20 20 20 20 20 20 20 20 20 20 20
descriptor 3:    00 00 00 fe 00 42 4f 45 20 4f 54 0a 20 20 20 20 20 20
descriptor 4:    00 00 00 fe 00 48 54 31 34 30 57 58 42 2d 31 30 30 0a
extensions:      00
checksum:        51

EDID version: 1.3
Manufacturer: BOE Model 586 Serial Number --
Made in week 1 of 2009
Digital display
Maximum image size: 31 cm x 17 cm
Gamma: 2.20
RGB color display
First detailed timing is preferred timing
Display x,y Chromaticity:
  Red:   0.5820, 0.3378
  Green: 0.3046, 0.5566
  Blue:  0.1513, 0.1406
  White: 0.3125, 0.3281
Established timings supported:
Standard timings supported:
Detailed mode: Clock 72.330 MHz, 309 mm x 173 mm
               1366 1414 1446 1526 hborder 0
                768  771  777  790 vborder 0
               -hsync -vsync 
               VertFreq: 59 Hz, HorFreq: 47398 Hz
ASCII string: 
ASCII string: BOE OT
ASCII string: HT140WXB-100
Checksum: 0x51 (valid)
EDID block does NOT conform to EDID 1.3!
	Missing name descriptor
	Missing monitor ranges
