
EDID (hex):
00ffffffffffff0030aec16200000000
2c1f0104b55d27789a52f5b04f42ab25
0f5054a1080081c0810081809500a9c0
b300d1c0d1004dd000a0f0703e803020
3500a1883100001a000000fc00503430
772d32300a2020202020000000fd0032
4c1eaa64000a202020202020000000ff
0056393039303942500a2020202002bd
020326f34e0102030445104c5a616b66
7b7d7e23097f0783010000e305c301e6
060701544e31d9650050a0402e600820
0808a1883100001a565e00a0a0a02950
30203500a1883100001a000000000000
00000000000000000000000000000000
00000000000000000000000000000000
00000000000000000000000000000090
7012670300030164cd0e0186ff134f00
07801f006f083d002f800700ede30086
ff139f002f801f006f08320002800900
8b870086ff139f002f801f006f081e00
02800900701d0106ff13680118806000
6f083d002f800800175a0106ff139f00
2f801f006f084d000280090051000000
00000000000000000000000000000090

Extracted contents:
header:          00 ff ff ff ff ff ff 00
serial number:   30 ae c1 62 00 00 00 00 2c 1f
version:         01 04
basic params:    b5 5d 27 78 9a
chroma info:     52 f5 b0 4f 42 ab 25 0f 50 54
established:     a1 08 00
standard:        81 c0 81 00 81 80 95 00 a9 c0 b3 00 d1 c0 d1 00
descriptor 1:    4d d0 00 a0 f0 70 3e 80 30 20 35 00 a1 88 31 00 00 1a
descriptor 2:    00 00 00 fc 00 50 34 30 77 2d 32 30 0a 20 20 20 20 20
descriptor 3:    00 00 00 fd 00 32 4c 1e aa 64 00 0a 20 20 20 20 20 20
descriptor 4:    00 00 00 ff 00 56 39 30 39 30 39 42 50 0a 20 20 20 20
extensions:      02
checksum:        bd

EDID version: 1.4
Manufacturer: LEN Model 62c1 Serial Number --
Made in week 44 of 2021
Digital display
10 bits per primary color channel
DisplayPort interface
Maximum image size: 93 cm x 39 cm
Gamma: 2.20
DPMS levels: Standby
Supported color formats: RGB 4:4:4, YCrCb 4:4:4, YCrCb 4:2:2
First detailed timing includes the native pixel format and preferred refresh rate
Display x,y Chromaticity:
  Red:   0.6884, 0.3095
  Green: 0.2578, 0.6699
  Blue:  0.1474, 0.0615
  White: 0.3134, 0.3291
Established timings supported:
  720x400@70Hz 9:5 HorFreq: 31469 Hz Clock: 28.320 MHz
  640x480@60Hz 4:3 HorFreq: 31469 Hz Clock: 25.175 MHz
  800x600@60Hz 4:3 HorFreq: 37900 Hz Clock: 40.000 MHz
  1024x768@60Hz 4:3 HorFreq: 48400 Hz Clock: 65.000 MHz
Standard timings supported:
  1280x720@60Hz 16:9
  1280x800@60Hz 16:10
  1280x1024@60Hz 5:4 HorFreq: 64000 Hz Clock: 108.000 MHz
  1440x900@60Hz 16:10 HorFreq: 55500 Hz Clock: 88.750 MHz
  1600x900@60Hz 16:9
  1680x1050@60Hz 16:10 HorFreq: 64700 Hz Clock: 119.000 MHz
  1920x1080@60Hz 16:9
  1920x1200@60Hz 16:10 HorFreq: 74000 Hz Clock: 154.000 MHz
Detailed mode: Clock 533.250 MHz, 929 mm x 392 mm
               3840 3888 3920 4000 hborder 0
               2160 2163 2168 2222 vborder 0
               +hsync -vsync 
               VertFreq: 59 Hz, HorFreq: 133312 Hz
Monitor name: P40w-20
Monitor ranges (GTF): 50-76Hz V, 30-170kHz H, max dotclock 1000MHz
Serial number: --
Has 2 extension blocks
Checksum: 0xbd (valid)

CTA extension block
Extension version: 3
34 bytes of CTA data
  Video data block
    VIC   1 640x480@60Hz 4:3  HorFreq: 31469 Hz Clock: 25.175 MHz
    VIC   2 720x480@60Hz 4:3  HorFreq: 31469 Hz Clock: 27.000 MHz
    VIC   3 720x480@60Hz 16:9  HorFreq: 31469 Hz Clock: 27.000 MHz
    VIC   4 1280x720@60Hz 16:9  HorFreq: 45000 Hz Clock: 74.250 MHz
    VIC  69 1280x720@60Hz 64:27  HorFreq: 45000 Hz Clock: 74.250 MHz
    VIC  16 1920x1080@60Hz 16:9  HorFreq: 67500 Hz Clock: 148.500 MHz
    VIC  76 1920x1080@60Hz 64:27  HorFreq: 67500 Hz Clock: 148.500 MHz
    VIC  90 2560x1080@60Hz 64:27  HorFreq: 66000 Hz Clock: 198.000 MHz
    VIC  97 3840x2160@60Hz 16:9  HorFreq: 135000 Hz Clock: 594.000 MHz
    VIC 107 3840x2160@60Hz 64:27  HorFreq: 135000 Hz Clock: 594.000 MHz
    VIC 102 4096x2160@60Hz 256:135  HorFreq: 135000 Hz Clock: 594.000 MHz
    VIC 123 5120x2160@30Hz 64:27  HorFreq: 66000 Hz Clock: 396.000 MHz
    VIC 125 5120x2160@50Hz 64:27  HorFreq: 112500 Hz Clock: 742.500 MHz
    VIC 126 5120x2160@60Hz 64:27  HorFreq: 135000 Hz Clock: 742.500 MHz
  Audio data block
    Linear PCM, max channels 2
      Supported sample rates (kHz): 192 176.4 96 88.2 48 44.1 32
      Supported sample sizes (bits): 24 20 16
  Speaker allocation data block
    Speaker map:
      FL/FR - Front Left/Right
  Extended tag: Colorimetry data block
    xvYCC601
    xvYCC709
    BT2020YCC
    BT2020RGB
  Extended tag: HDR static metadata data block
    Electro optical transfer functions:
      Traditional gamma - SDR luminance range
      Traditional gamma - HDR luminance range
      SMPTE ST2084
    Supported static metadata descriptors:
      Static metadata type 1
    Desired content max luminance: 84 (308.442 cd/m^2)
    Desired content max frame-average luminance: 78 (270.851 cd/m^2)
    Desired content min luminance: 49 (0.114 cd/m^2)
Underscans PC formats by default
Basic audio support
Supports YCbCr 4:4:4
Supports YCbCr 4:2:2
3 native detailed modes
Detailed mode: Clock 260.730 MHz, 929 mm x 392 mm
               2560 2568 2600 2640 hborder 0
               1600 1632 1640 1646 vborder 0
               +hsync -vsync 
               VertFreq: 60 Hz, HorFreq: 98761 Hz
Detailed mode: Clock 241.500 MHz, 929 mm x 392 mm
               2560 2608 2640 2720 hborder 0
               1440 1443 1448 1481 vborder 0
               +hsync -vsync 
               VertFreq: 59 Hz, HorFreq: 88786 Hz
Checksum: 0x90 (valid)


DisplayID extension block
Extension version: 18
Length 103, version 18, extension count 0
Checksum: 0x51 (valid)
Type 1 detailed timing: aspect: 64:27, Preferred  
Detailed mode: Clock 693.250 MHz, 0 mm x 0 mm
               5119 5126 5157 5198
               2159 2206 2213 2220
               +hsync +vsync
Type 1 detailed timing: aspect: 64:27, Preferred  
Detailed mode: Clock 583.490 MHz, 0 mm x 0 mm
               5119 5166 5197 5278
               2159 2161 2170 2209
               +hsync +vsync
Type 1 detailed timing: aspect: 64:27, Preferred  
Detailed mode: Clock 346.990 MHz, 0 mm x 0 mm
               5119 5166 5197 5278
               2159 2161 2170 2189
               +hsync +vsync
Type 1 detailed timing: aspect: 64:27,  
Detailed mode: Clock 730.720 MHz, 0 mm x 0 mm
               5119 5143 5239 5479
               2159 2206 2214 2220
               +hsync +vsync
Type 1 detailed timing: aspect: 64:27,  
Detailed mode: Clock 885.990 MHz, 0 mm x 0 mm
               5119 5166 5197 5278
               2159 2161 2170 2236
               +hsync +vsync

Warning: One or more of the timings is out of range of the Monitor Ranges:
  Vertical Freq: 30 - 70 Hz
  Horizontal Freq: 31469 - 135000 Hz
  Maximum Clock: 742.500 MHz


