
EDID (hex):
00ffffffffffff0009e5f40600000000
011a0104a523137802a260a45750a025
14505400000001010101010101010101
0101010101014dd000a0f0703e803020
350059c21000001a0000000000000000
00000000000000000000000000fe0042
4f452048460a202020202020000000fe
004e5631353651554d2d4e35310a00c2

Extracted contents:
header:          00 ff ff ff ff ff ff 00
serial number:   09 e5 f4 06 00 00 00 00 01 1a
version:         01 04
basic params:    a5 23 13 78 02
chroma info:     a2 60 a4 57 50 a0 25 14 50 54
established:     00 00 00
standard:        01 01 01 01 01 01 01 01 01 01 01 01 01 01 01 01
descriptor 1:    4d d0 00 a0 f0 70 3e 80 30 20 35 00 59 c2 10 00 00 1a
descriptor 2:    00 00 00 00 00 00 00 00 00 00 00 00 00 00 00 00 00 00
descriptor 3:    00 00 00 fe 00 42 4f 45 20 48 46 0a 20 20 20 20 20 20
descriptor 4:    00 00 00 fe 00 4e 56 31 35 36 51 55 4d 2d 4e 35 31 0a
extensions:      00
checksum:        c2

EDID version: 1.4
Manufacturer: BOE Model 6f4 Serial Number --
Made in week 1 of 2016
Digital display
8 bits per primary color channel
DisplayPort interface
Maximum image size: 35 cm x 19 cm
Gamma: 2.20
Supported color formats: RGB 4:4:4
First detailed timing includes the native pixel format and preferred refresh rate
Display x,y Chromaticity:
  Red:   0.6425, 0.3417
  Green: 0.3125, 0.6269
  Blue:  0.1455, 0.0800
  White: 0.3125, 0.3281
Established timings supported:
Standard timings supported:
Detailed mode: Clock 533.250 MHz, 345 mm x 194 mm
               3840 3888 3920 4000 hborder 0
               2160 2163 2168 2222 vborder 0
               +hsync -vsync 
               VertFreq: 59 Hz, HorFreq: 133312 Hz
Manufacturer-specified data, tag 0
ASCII string: BOE HF
ASCII string: NV156QUM-N51
Checksum: 0xc2 (valid)
EDID block does NOT conform to EDID 1.4!
	Missing name descriptor
	Missing monitor ranges
