edid-decode (hex):

00 ff ff ff ff ff ff 00 06 af b0 1d 00 00 00 00
32 21 01 04 a5 1e 13 78 03 70 f5 9c 4c 45 92 1e
07 50 54 00 00 00 01 01 01 01 01 01 01 01 01 01
01 01 01 01 01 01 26 3d 80 b8 70 b0 28 40 10 10
35 00 2d bc 10 00 00 18 c4 28 80 b8 70 b0 28 40
10 10 35 00 2d bc 10 00 00 18 00 00 00 03 00 02
66 ff 04 64 7d 0c 09 13 7d 00 00 00 00 00 00 03
00 0d 38 ff 22 96 90 0d 0b 49 90 01 01 20 01 ac

70 20 79 02 00 22 00 14 7b 63 02 85 7f 07 b7 00
0f 80 0f 00 af 04 27 00 02 00 04 00 25 01 09 7b
63 02 7b 63 02 28 3c 80 81 00 15 74 1a 00 00 03
01 28 3c 00 00 80 12 80 12 3c 00 00 00 00 00 00
00 00 00 00 00 00 00 00 00 00 00 00 00 00 00 00
00 00 00 00 00 00 00 00 00 00 00 00 00 00 00 00
00 00 00 00 00 00 00 00 00 00 00 00 00 00 00 00
00 00 00 00 00 00 00 00 00 00 00 00 00 00 50 90

00 ff ff ff ff ff ff 00 06 af b0 1d 00 00 00 00
32 21 01 04 a5 1e 13 78 03 70 f5 9c 4c 45 92 1e
07 50 54 00 00 00 01 01 01 01 01 01 01 01 01 01
01 01 01 01 01 01 26 3d 80 b8 70 b0 28 40 10 10
35 00 2d bc 10 00 00 18 c4 28 80 b8 70 b0 28 40
10 10 35 00 2d bc 10 00 00 18 00 00 00 03 00 02
66 ff 04 64 7d 0c 09 13 7d 00 00 00 00 00 00 03
00 0d 38 ff 22 96 90 0d 0b 49 90 01 01 20 01 ac

70 20 79 02 00 22 00 14 7b 63 02 85 7f 07 b7 00
0f 80 0f 00 af 04 27 00 02 00 04 00 25 01 09 7b
63 02 7b 63 02 28 3c 80 81 00 15 74 1a 00 00 03
01 28 3c 00 00 80 12 80 12 3c 00 00 00 00 00 00
00 00 00 00 00 00 00 00 00 00 00 00 00 00 00 00
00 00 00 00 00 00 00 00 00 00 00 00 00 00 00 00
00 00 00 00 00 00 00 00 00 00 00 00 00 00 00 00
00 00 00 00 00 00 00 00 00 00 00 00 00 00 50 90

----------------

Block 0, Base EDID:
  EDID Structure Version & Revision: 1.4
  Vendor & Product Identification:
    Manufacturer: AUO
    Model: 7600
    Made in: week 50 of 2023
  Basic Display Parameters & Features:
    Digital display
    Bits per primary color channel: 8
    DisplayPort interface
    Maximum image size: 30 cm x 19 cm
    Gamma: 2.20
    Supported color formats: RGB 4:4:4
    First detailed timing includes the native pixel format and preferred refresh rate
    Display is continuous frequency
  Color Characteristics:
    Red  : 0.6103, 0.2998
    Green: 0.2695, 0.5703
    Blue : 0.1201, 0.0302
    White: 0.3134, 0.3291
  Established Timings I & II: none
  Standard Timings: none
  Detailed Timing Descriptors:
    DTD 1:  1920x1200   60.000920 Hz  16:10    74.401 kHz    156.540000 MHz (301 mm x 188 mm)
                 Hfront   16 Hsync  16 Hback  152 Hpol N
                 Vfront    3 Vsync   5 Vback   32 Vpol N
    DTD 2:  1920x1200   40.000613 Hz  16:10    49.601 kHz    104.360000 MHz (301 mm x 188 mm)
                 Hfront   16 Hsync  16 Hback  152 Hpol N
                 Vfront    3 Vsync   5 Vback   32 Vpol N
    Manufacturer-Specified Display Descriptor (0x03): 00 03 00 02 66 ff 04 64 7d 0c 09 13 7d 00 00 00 '....f..d}...}...'
    Manufacturer-Specified Display Descriptor (0x03): 00 03 00 0d 38 ff 22 96 90 0d 0b 49 90 01 01 20 '....8."....I... '
  Extension blocks: 1
Checksum: 0xac

----------------

Block 1, DisplayID Extension Block:
  Version: 2.0
  Extension Count: 0
  Display Product Primary Use Case: None of the listed primary use cases; generic display
  Video Timing Modes Type 7 - Detailed Timings Data Block:
    DTD:  1920x1200   60.000920 Hz  16:10    74.401 kHz    156.540000 MHz (aspect 16:10, no 3D stereo, preferred)
               Hfront   16 Hsync  16 Hback  152 Hpol P
               Vfront    3 Vsync   5 Vback   32 Vpol N
  Dynamic Video Timing Range Limits Data Block:
    Minimum Pixel Clock: 156540 kHz
    Maximum Pixel Clock: 156540 kHz
    Minimum Vertical Refresh Rate: 40 Hz
    Maximum Vertical Refresh Rate: 60 Hz
    Seamless Dynamic Video Timing Support: Yes
  CTA-861 DisplayID Data Block:
  Vendor-Specific Data Block (AMD), OUI 00-00-1A:
    Version: 3.1
    Minimum Refresh Rate: 40 Hz
    Maximum Refresh Rate: 60 Hz
    Flags 1.x: 0x00
    Flags 2.x: 0x00
    Maximum luminance: 128 (800.000 cd/m^2)
    Minimum luminance: 18 (0.040 cd/m^2)
    Unknown: 0x80 0x12
  Checksum: 0x50
Checksum: 0x90

----------------

Block 2, Unknown EDID Extension Block 0x00:
  00 ff ff ff ff ff ff 00 06 af b0 1d 00 00 00 00 '................'
  32 21 01 04 a5 1e 13 78 03 70 f5 9c 4c 45 92 1e '2!.....x.p..LE..'
  07 50 54 00 00 00 01 01 01 01 01 01 01 01 01 01 '.PT.............'
  01 01 01 01 01 01 26 3d 80 b8 70 b0 28 40 10 10 '......&=..p.(@..'
  35 00 2d bc 10 00 00 18 c4 28 80 b8 70 b0 28 40 '5.-......(..p.(@'
  10 10 35 00 2d bc 10 00 00 18 00 00 00 03 00 02 '..5.-...........'
  66 ff 04 64 7d 0c 09 13 7d 00 00 00 00 00 00 03 'f..d}...}.......'
  00 0d 38 ff 22 96 90 0d 0b 49 90 01 01 20 01 ac '..8."....I... ..'
Checksum: 0xac

----------------

Block 3, DisplayID Extension Block:
  Version: 2.0
  Extension Count: 0
  Video Timing Modes Type 7 - Detailed Timings Data Block:
    DTD:  1920x1200   60.000920 Hz  16:10    74.401 kHz    156.540000 MHz (aspect 16:10, no 3D stereo, preferred)
               Hfront   16 Hsync  16 Hback  152 Hpol P
               Vfront    3 Vsync   5 Vback   32 Vpol N
  Dynamic Video Timing Range Limits Data Block:
    Minimum Pixel Clock: 156540 kHz
    Maximum Pixel Clock: 156540 kHz
    Minimum Vertical Refresh Rate: 40 Hz
    Maximum Vertical Refresh Rate: 60 Hz
    Seamless Dynamic Video Timing Support: Yes
  CTA-861 DisplayID Data Block:
  Vendor-Specific Data Block (AMD), OUI 00-00-1A:
    Version: 3.1
    Minimum Refresh Rate: 40 Hz
    Maximum Refresh Rate: 60 Hz
    Flags 1.x: 0x00
    Flags 2.x: 0x00
    Maximum luminance: 128 (800.000 cd/m^2)
    Minimum luminance: 18 (0.040 cd/m^2)
    Unknown: 0x80 0x12
  Checksum: 0x50
Checksum: 0x90

----------------

Warnings:

Block 0, Base EDID:
  Missing Display Product Name.

Failures:

Block 0, Base EDID:
  Missing Display Range Limits Descriptor.
Block 1, DisplayID Extension Block:
  Expected 0 DisplayID Extension Block, but got 1.
Block 2, Base EDID:
  Unknown Extension Block.
Block 3, DisplayID Extension Block:
  Product Type should be 0 in extension block.
EDID:
  Base EDID: EDID specified 1 extension block(s), but found 3 extension block(s).
  DisplayID: Missing DisplayID Product Identification Data Block.
  DisplayID: Missing DisplayID Display Parameters Data Block.
  DisplayID: Missing DisplayID Display Interface Features Data Block.

EDID conformity: FAIL
