edid-decode (hex):

00 ff ff ff ff ff ff 00 41 2f 0e 00 01 01 01 01
1e 0d 01 03 80 6d 3e 78 2a 1b be a2 55 34 b3 26
14 4a 52 b1 0c 00 01 01 01 01 01 01 01 01 01 01
01 01 01 01 01 01 64 19 00 40 41 00 26 30 18 88
36 00 4a 6c 32 00 00 18 a4 1f 00 98 51 00 22 30
30 70 13 00 4a 6c 42 00 00 1a 00 00 00 fd 00 3a
47 1e 3a 09 00 0a 20 20 20 20 20 20 00 00 00 fc
00 50 44 50 2d 35 30 33 50 0a 20 20 20 20 00 19

----------------

Block 0, Base EDID:
  EDID Structure Version & Revision: 1.3
  Vendor & Product Identification:
    Manufacturer: PIO
    Model: 14
    Serial Number: ...
    Made in: week 30 of 2003
  Basic Display Parameters & Features:
    Digital display
    Maximum image size: 109 cm x 62 cm
    Gamma: 2.20
    DPMS levels: Off
    RGB color display
    First detailed timing is the preferred timing
  Color Characteristics:
    Red  : 0.6328, 0.3330
    Green: 0.2050, 0.7021
    Blue : 0.1503, 0.0810
    White: 0.2919, 0.3222
  Established Timings I & II:
    IBM     :   720x400    70.081663 Hz   9:5     31.467 kHz     28.320000 MHz
    DMT 0x04:   640x480    59.940476 Hz   4:3     31.469 kHz     25.175000 MHz
    Apple   :   640x480    66.666667 Hz   4:3     35.000 kHz     30.240000 MHz
    DMT 0x09:   800x600    60.316541 Hz   4:3     37.879 kHz     40.000000 MHz
    DMT 0x10:  1024x768    60.003840 Hz   4:3     48.363 kHz     65.000000 MHz
    DMT 0x11:  1024x768    70.069359 Hz   4:3     56.476 kHz     75.000000 MHz
  Standard Timings: none
  Detailed Timing Descriptors:
    DTD 1:  1024x768    60.003840 Hz   4:3     48.363 kHz     65.000000 MHz (842 mm x 620 mm)
                 Hfront   24 Hsync 136 Hback  160 Hpol N
                 Vfront    3 Vsync   6 Vback   29 Vpol N
    DTD 2:  1280x768    59.832646 Hz   5:3     47.986 kHz     81.000000 MHz (1098 mm x 620 mm)
                 Hfront   48 Hsync 112 Hback  248 Hpol P
                 Vfront    1 Vsync   3 Vback   30 Vpol N
    Display Range Limits:
      Monitor ranges (GTF): 58-71 Hz V, 30-58 kHz H, max dotclock 90 MHz
    Display Product Name: 'PDP-503P'
Checksum: 0x19

----------------

EDID conformity: PASS
