
EDID (hex):
00ffffffffffff00412f0e0001010101
1e0d0103806d3e782a1bbea25534b326
144a52b10c0001010101010101010101
01010101010164190040410026301888
36004a6c32000018a41f009851002230
307013004a6c4200001a000000fd003a
471e3a09000a202020202020000000fc
005044502d353033500a202020200019

Extracted contents:
header:          00 ff ff ff ff ff ff 00
serial number:   41 2f 0e 00 01 01 01 01 1e 0d
version:         01 03
basic params:    80 6d 3e 78 2a
chroma info:     1b be a2 55 34 b3 26 14 4a 52
established:     b1 0c 00
standard:        01 01 01 01 01 01 01 01 01 01 01 01 01 01 01 01
descriptor 1:    64 19 00 40 41 00 26 30 18 88 36 00 4a 6c 32 00 00 18
descriptor 2:    a4 1f 00 98 51 00 22 30 30 70 13 00 4a 6c 42 00 00 1a
descriptor 3:    00 00 00 fd 00 3a 47 1e 3a 09 00 0a 20 20 20 20 20 20
descriptor 4:    00 00 00 fc 00 50 44 50 2d 35 30 33 50 0a 20 20 20 20
extensions:      00
checksum:        19

EDID version: 1.3
Manufacturer: PIO Model e Serial Number --
Digital display
Maximum image size: 109 cm x 62 cm
Gamma: 2.20
DPMS levels: Off
RGB color display
First detailed timing is preferred timing
Display x,y Chromaticity:
  Red:   0.6328, 0.3330
  Green: 0.2050, 0.7021
  Blue:  0.1503, 0.0810
  White: 0.2919, 0.3222
Established timings supported:
  720x400@70Hz 9:5 HorFreq: 31469 Hz Clock: 28.320 MHz
  640x480@60Hz 4:3 HorFreq: 31469 Hz Clock: 25.175 MHz
  640x480@67Hz 4:3 HorFreq: 35000 Hz Clock: 30.240 MHz
  800x600@60Hz 4:3 HorFreq: 37900 Hz Clock: 40.000 MHz
  1024x768@60Hz 4:3 HorFreq: 48400 Hz Clock: 65.000 MHz
  1024x768@70Hz 4:3 HorFreq: 56500 Hz Clock: 75.000 MHz
Standard timings supported:
Detailed mode: Clock 65.000 MHz, 842 mm x 620 mm
               1024 1048 1184 1344 hborder 0
                768  771  777  806 vborder 0
               -hsync -vsync 
               VertFreq: 60 Hz, HorFreq: 48363 Hz
Detailed mode: Clock 81.000 MHz, 1098 mm x 620 mm
               1280 1328 1440 1688 hborder 0
                768  769  772  802 vborder 0
               +hsync -vsync 
               VertFreq: 59 Hz, HorFreq: 47985 Hz
Monitor ranges (GTF): 58-71Hz V, 30-58kHz H, max dotclock 90MHz
Monitor name: PDP-503P
Checksum: 0x19 (valid)
EDID block does not conform at all!
	Bad year of manufacture
