edid-decode (hex):

00 ff ff ff ff ff ff 00 4e 84 10 01 00 00 00 00
17 1f 01 03 08 2c 17 78 0a d7 a5 a2 59 4a 96 24
14 50 54 ad ce 00 a9 c0 01 01 81 00 81 40 81 c0
01 01 01 01 01 01 31 2e 40 00 62 84 22 30 58 a8
35 00 10 09 00 00 00 1c ca 39 40 00 62 84 22 30
58 a8 35 00 10 09 00 00 00 1c 00 00 00 fd 00 32
4c 1e 48 13 00 0a 20 20 20 20 20 20 00 00 00 fc
00 56 47 41 0a 20 20 20 20 20 20 20 20 20 00 92

00 ff ff ff ff ff ff 00 4e 84 10 01 00 00 00 00
17 1f 01 03 08 2c 17 78 0a d7 a5 a2 59 4a 96 24
14 50 54 ad ce 00 a9 c0 01 01 81 00 81 40 81 c0
01 01 01 01 01 01 31 2e 40 00 62 84 22 30 58 a8
35 00 10 09 00 00 00 1c ca 39 40 00 62 84 22 30
58 a8 35 00 10 09 00 00 00 1c 00 00 00 fd 00 32
4c 1e 48 13 00 0a 20 20 20 20 20 20 00 00 00 fc
00 56 47 41 0a 20 20 20 20 20 20 20 20 20 00 92

----------------

Block 0, Base EDID:
  EDID Structure Version & Revision: 1.3
  Vendor & Product Identification:
    Manufacturer: STD
    Model: 272
    Made in: week 23 of 2021
  Basic Display Parameters & Features:
    Analog display
    Signal Level Standard: 0.700 : 0.300 : 1.000 V p-p
    Blank level equals black level
    Sync: Separate
    Maximum image size: 44 cm x 23 cm
    Gamma: 2.20
    RGB color display
    First detailed timing is the preferred timing
  Color Characteristics:
    Red  : 0.6357, 0.3486
    Green: 0.2900, 0.5888
    Blue : 0.1425, 0.0800
    White: 0.3134, 0.3291
  Established Timings I & II:
    IBM     :   720x400    70.081663 Hz   9:5     31.467 kHz     28.320000 MHz
    DMT 0x04:   640x480    59.940476 Hz   4:3     31.469 kHz     25.175000 MHz
    DMT 0x05:   640x480    72.808802 Hz   4:3     37.861 kHz     31.500000 MHz
    DMT 0x06:   640x480    75.000000 Hz   4:3     37.500 kHz     31.500000 MHz
    DMT 0x09:   800x600    60.316541 Hz   4:3     37.879 kHz     40.000000 MHz
    DMT 0x0a:   800x600    72.187572 Hz   4:3     48.077 kHz     50.000000 MHz
    DMT 0x0b:   800x600    75.000000 Hz   4:3     46.875 kHz     49.500000 MHz
    DMT 0x10:  1024x768    60.003840 Hz   4:3     48.363 kHz     65.000000 MHz
    DMT 0x11:  1024x768    70.069359 Hz   4:3     56.476 kHz     75.000000 MHz
    DMT 0x12:  1024x768    75.028582 Hz   4:3     60.023 kHz     78.750000 MHz
  Standard Timings:
    DMT 0x53:  1600x900    60.000000 Hz  16:9     60.000 kHz    108.000000 MHz (RB)
    DMT 0x1c:  1280x800    59.810326 Hz  16:10    49.702 kHz     83.500000 MHz
    DMT 0x20:  1280x960    60.000000 Hz   4:3     60.000 kHz    108.000000 MHz
    DMT 0x55:  1280x720    60.000000 Hz  16:9     45.000 kHz     74.250000 MHz
  Detailed Timing Descriptors:
    DTD 1:  1600x900    59.946021 Hz  16:9     55.990 kHz    118.250000 MHz (16 mm x 9 mm)
                 Hfront   88 Hsync 168 Hback  256 Hpol N
                 Vfront    3 Vsync   5 Vback   26 Vpol P
    DTD 2:  1600x900    74.997161 Hz  16:9     70.047 kHz    147.940000 MHz (16 mm x 9 mm)
                 Hfront   88 Hsync 168 Hback  256 Hpol N
                 Vfront    3 Vsync   5 Vback   26 Vpol P
    Display Range Limits:
      Monitor ranges (GTF): 50-76 Hz V, 30-72 kHz H, max dotclock 190 MHz
    Display Product Name: 'VGA'
Checksum: 0x92

----------------

Block 1, Unknown EDID Extension Block 0x00:
  00 ff ff ff ff ff ff 00 4e 84 10 01 00 00 00 00 '........N.......'
  17 1f 01 03 08 2c 17 78 0a d7 a5 a2 59 4a 96 24 '.....,.x....YJ.$'
  14 50 54 ad ce 00 a9 c0 01 01 81 00 81 40 81 c0 '.PT..........@..'
  01 01 01 01 01 01 31 2e 40 00 62 84 22 30 58 a8 '......1.@.b."0X.'
  35 00 10 09 00 00 00 1c ca 39 40 00 62 84 22 30 '5........9@.b."0'
  58 a8 35 00 10 09 00 00 00 1c 00 00 00 fd 00 32 'X.5............2'
  4c 1e 48 13 00 0a 20 20 20 20 20 20 00 00 00 fc 'L.H...      ....'
  00 56 47 41 0a 20 20 20 20 20 20 20 20 20 00 92 '.VGA.         ..'
Checksum: 0x92

----------------

Failures:

Block 0, Base EDID:
  Detailed Timing Descriptor #1: Mismatch of image size 16x9 mm vs display size 440x230 mm.
  Detailed Timing Descriptor #2: Mismatch of image size 16x9 mm vs display size 440x230 mm.
Block 1, Base EDID:
  Unknown Extension Block.
EDID:
  Base EDID: EDID specified 0 extension block(s), but found 1 extension block(s).

EDID conformity: FAIL
