
EDID (hex):
00ffffffffffff0030e4680300000000
00160104901f11780269059759559028
20505400000001010101010101010101
0101010101012e1d56d2500016303020
350035ae10000019741356d250001630
3020350035ae10000019000000000000
00000000000000000000000000000002
000c4cff0a3c6412000064000000000a

Extracted contents:
header:          00 ff ff ff ff ff ff 00
serial number:   30 e4 68 03 00 00 00 00 00 16
version:         01 04
basic params:    90 1f 11 78 02
chroma info:     69 05 97 59 55 90 28 20 50 54
established:     00 00 00
standard:        01 01 01 01 01 01 01 01 01 01 01 01 01 01 01 01
descriptor 1:    2e 1d 56 d2 50 00 16 30 30 20 35 00 35 ae 10 00 00 19
descriptor 2:    74 13 56 d2 50 00 16 30 30 20 35 00 35 ae 10 00 00 19
descriptor 3:    00 00 00 00 00 00 00 00 00 00 00 00 00 00 00 00 00 00
descriptor 4:    00 00 00 02 00 0c 4c ff 0a 3c 64 12 00 00 64 00 00 00
extensions:      00
checksum:        0a

EDID version: 1.4
Manufacturer: LGD Model 368 Serial Number --
Made in year 2012
Digital display
6 bits per primary color channel
Digital interface is not defined
Maximum image size: 31 cm x 17 cm
Gamma: 2.20
Supported color formats: RGB 4:4:4
First detailed timing includes the native pixel format and preferred refresh rate
Display x,y Chromaticity:
  Red:   0.5908, 0.3496
  Green: 0.3339, 0.5634
  Blue:  0.1562, 0.1250
  White: 0.3134, 0.3291
Established timings supported:
Standard timings supported:
Detailed mode: Clock 74.700 MHz, 309 mm x 174 mm
               1366 1414 1446 1576 hborder 0
                768  771  776  790 vborder 0
               -hsync -vsync 
               VertFreq: 59 Hz, HorFreq: 47398 Hz
Detailed mode: Clock 49.800 MHz, 309 mm x 174 mm
               1366 1414 1446 1576 hborder 0
                768  771  776  790 vborder 0
               -hsync -vsync 
               VertFreq: 39 Hz, HorFreq: 31598 Hz
Manufacturer-specified data, tag 0
Manufacturer-specified data, tag 2
Checksum: 0xa (valid)
EDID block does NOT conform to EDID 1.4!
	Missing name descriptor
	Missing monitor ranges
