
EDID (hex):
00ffffffffffff0009e5a00700000000
031c0104a51d1178021820a658539e26
0f505400000001010101010101010101
010101010101b23980f070383c403020
360026a51000001a2c2e80f070383c40
3020360026a51000001a000000fe0052
46385944804e56313346484d00000000
000141219e001000000a010a20200059

Extracted contents:
header:          00 ff ff ff ff ff ff 00
serial number:   09 e5 a0 07 00 00 00 00 03 1c
version:         01 04
basic params:    a5 1d 11 78 02
chroma info:     18 20 a6 58 53 9e 26 0f 50 54
established:     00 00 00
standard:        01 01 01 01 01 01 01 01 01 01 01 01 01 01 01 01
descriptor 1:    b2 39 80 f0 70 38 3c 40 30 20 36 00 26 a5 10 00 00 1a
descriptor 2:    2c 2e 80 f0 70 38 3c 40 30 20 36 00 26 a5 10 00 00 1a
descriptor 3:    00 00 00 fe 00 52 46 38 59 44 80 4e 56 31 33 46 48 4d
descriptor 4:    00 00 00 00 00 01 41 21 9e 00 10 00 00 0a 01 0a 20 20
extensions:      00
checksum:        59

EDID version: 1.4
Manufacturer: BOE Model 7a0 Serial Number --
Made in week 3 of 2018
Digital display
8 bits per primary color channel
DisplayPort interface
Maximum image size: 29 cm x 17 cm
Gamma: 2.20
Supported color formats: RGB 4:4:4
First detailed timing includes the native pixel format and preferred refresh rate
Display x,y Chromaticity:
  Red:   0.6484, 0.3447
  Green: 0.3261, 0.6171
  Blue:  0.1484, 0.0605
  White: 0.3125, 0.3281
Established timings supported:
Standard timings supported:
Detailed mode: Clock 147.700 MHz, 294 mm x 165 mm
               1920 1968 2000 2160 hborder 0
               1080 1083 1089 1140 vborder 0
               +hsync -vsync 
               VertFreq: 59 Hz, HorFreq: 68379 Hz
Detailed mode: Clock 118.200 MHz, 294 mm x 165 mm
               1920 1968 2000 2160 hborder 0
               1080 1083 1089 1140 vborder 0
               +hsync -vsync 
               VertFreq: 48 Hz, HorFreq: 54722 Hz
ASCII string: RF8YD
Manufacturer-specified data, tag 0
Checksum: 0x59 (valid)
EDID block does NOT conform to EDID 1.4!
	Missing name descriptor
	Missing monitor ranges
	Detailed block string not properly terminated
