
EDID (hex):
00ffffffffffff0030aef36000000000
2b1a0104a5331d783adae5a15654a128
0a5054afef00714f8180818a9500a9c0
a9cfb30001011a3680a070381f403020
3500fe1f1100001a000000fd00324b1e
5115000a202020202020000000fc004c
454e20543233323464430a20000000ff
00564e2d4131434e56440a20202001ff

Extracted contents:
header:          00 ff ff ff ff ff ff 00
serial number:   30 ae f3 60 00 00 00 00 2b 1a
version:         01 04
basic params:    a5 33 1d 78 3a
chroma info:     da e5 a1 56 54 a1 28 0a 50 54
established:     af ef 00
standard:        71 4f 81 80 81 8a 95 00 a9 c0 a9 cf b3 00 01 01
descriptor 1:    1a 36 80 a0 70 38 1f 40 30 20 35 00 fe 1f 11 00 00 1a
descriptor 2:    00 00 00 fd 00 32 4b 1e 51 15 00 0a 20 20 20 20 20 20
descriptor 3:    00 00 00 fc 00 4c 45 4e 20 54 32 33 32 34 64 43 0a 20
descriptor 4:    00 00 00 ff 00 56 4e 2d 41 31 43 4e 56 44 0a 20 20 20
extensions:      01
checksum:        ff

EDID version: 1.4
Manufacturer: LEN Model 60f3 Serial Number --
Made in week 43 of 2016
Digital display
8 bits per primary color channel
DisplayPort interface
Maximum image size: 51 cm x 29 cm
Gamma: 2.20
DPMS levels: Off
Supported color formats: RGB 4:4:4, YCrCb 4:4:4, YCrCb 4:2:2
First detailed timing includes the native pixel format and preferred refresh rate
Display x,y Chromaticity:
  Red:   0.6318, 0.3369
  Green: 0.3300, 0.6308
  Blue:  0.1591, 0.0410
  White: 0.3134, 0.3291
Established timings supported:
  720x400@70Hz 9:5 HorFreq: 31469 Hz Clock: 28.320 MHz
  640x480@60Hz 4:3 HorFreq: 31469 Hz Clock: 25.175 MHz
  640x480@72Hz 4:3 HorFreq: 37900 Hz Clock: 31.500 MHz
  640x480@75Hz 4:3 HorFreq: 37500 Hz Clock: 31.500 MHz
  800x600@56Hz 4:3 HorFreq: 35200 Hz Clock: 36.000 MHz
  800x600@60Hz 4:3 HorFreq: 37900 Hz Clock: 40.000 MHz
  800x600@72Hz 4:3 HorFreq: 48100 Hz Clock: 50.000 MHz
  800x600@75Hz 4:3 HorFreq: 46900 Hz Clock: 49.500 MHz
  832x624@75Hz 4:3 HorFreq: 49726 Hz Clock: 57.284 MHz
  1024x768@60Hz 4:3 HorFreq: 48400 Hz Clock: 65.000 MHz
  1024x768@70Hz 4:3 HorFreq: 56500 Hz Clock: 75.000 MHz
  1024x768@75Hz 4:3 HorFreq: 60000 Hz Clock: 78.750 MHz
  1280x1024@75Hz 5:4 HorFreq: 80000 Hz Clock: 135.000 MHz
Standard timings supported:
  1152x864@75Hz 4:3 HorFreq: 67500 Hz Clock: 108.000 MHz
  1280x1024@60Hz 5:4 HorFreq: 64000 Hz Clock: 108.000 MHz
  1280x1024@70Hz 5:4
  1440x900@60Hz 16:10 HorFreq: 55500 Hz Clock: 88.750 MHz
  1600x900@60Hz 16:9
  1600x900@75Hz 16:9
  1680x1050@60Hz 16:10 HorFreq: 64700 Hz Clock: 119.000 MHz
Detailed mode: Clock 138.500 MHz, 510 mm x 287 mm
               1920 1968 2000 2080 hborder 0
               1080 1083 1088 1111 vborder 0
               +hsync -vsync 
               VertFreq: 59 Hz, HorFreq: 66586 Hz
Monitor ranges (GTF): 50-75Hz V, 30-81kHz H, max dotclock 210MHz
Monitor name: LEN T2324dC
Serial number: --
Has 1 extension blocks
Checksum: 0xff (valid)


