
EDID (hex):
00ffffffffffff004698301789903201
2a130103682615782ec4959e57539226
0f5054bfce0001010101010101010101
010101010101182e40006284223058a8
35007ed71000001c000000fd003c3c1e
520e000a202020202020000000fc0048
415345452d51424f580a2020000000ff
0051424f583030303030303030300035

edid-decode (hex):

00 ff ff ff ff ff ff 00 46 98 30 17 89 90 32 01
2a 13 01 03 68 26 15 78 2e c4 95 9e 57 53 92 26
0f 50 54 bf ce 00 01 01 01 01 01 01 01 01 01 01
01 01 01 01 01 01 18 2e 40 00 62 84 22 30 58 a8
35 00 7e d7 10 00 00 1c 00 00 00 fd 00 3c 3c 1e
52 0e 00 0a 20 20 20 20 20 20 00 00 00 fc 00 48
41 53 45 45 2d 51 42 4f 58 0a 20 20 00 00 00 ff
00 51 42 4f 58 30 30 30 30 30 30 30 30 30 00 35

----------------

Block 0, Base EDID:
  EDID Structure Version & Revision: 1.3
  Vendor & Product Identification:
    Manufacturer: QTX
    Model: 5936
    Serial Number: 20091017
    Made in: week 42 of 2009
  Basic Display Parameters & Features:
    Analog display
    Signal Level Standard: 0.700 : 0.000 : 0.700 V p-p
    Blank level equals black level
    Sync: Separate
    Maximum image size: 38 cm x 21 cm
    Gamma: 2.20
    DPMS levels: Off
    RGB color display
    Default (sRGB) color space is primary color space
    First detailed timing is the preferred timing
  Color Characteristics:
    Red  : 0.6201, 0.3398
    Green: 0.3251, 0.5703
    Blue : 0.1503, 0.0595
    White: 0.3134, 0.3291
  Established Timings I & II:
    IBM     :   720x400    70.081663 Hz   9:5     31.467 kHz     28.320000 MHz
    DMT 0x04:   640x480    59.940476 Hz   4:3     31.469 kHz     25.175000 MHz
    Apple   :   640x480    66.666667 Hz   4:3     35.000 kHz     30.240000 MHz
    DMT 0x05:   640x480    72.808802 Hz   4:3     37.861 kHz     31.500000 MHz
    DMT 0x06:   640x480    75.000000 Hz   4:3     37.500 kHz     31.500000 MHz
    DMT 0x08:   800x600    56.250000 Hz   4:3     35.156 kHz     36.000000 MHz
    DMT 0x09:   800x600    60.316541 Hz   4:3     37.879 kHz     40.000000 MHz
    DMT 0x0a:   800x600    72.187572 Hz   4:3     48.077 kHz     50.000000 MHz
    DMT 0x0b:   800x600    75.000000 Hz   4:3     46.875 kHz     49.500000 MHz
    DMT 0x10:  1024x768    60.003840 Hz   4:3     48.363 kHz     65.000000 MHz
    DMT 0x11:  1024x768    70.069359 Hz   4:3     56.476 kHz     75.000000 MHz
    DMT 0x12:  1024x768    75.028582 Hz   4:3     60.023 kHz     78.750000 MHz
  Standard Timings: none
  Detailed Timing Descriptors:
    DTD 1:  1600x900    59.819285 Hz  16:9     55.871 kHz    118.000000 MHz (382 mm x 215 mm)
                 Hfront   88 Hsync 168 Hback  256 Hpol N
                 Vfront    3 Vsync   5 Vback   26 Vpol P
    Display Range Limits:
      Monitor ranges (GTF): 60-60 Hz V, 30-82 kHz H, max dotclock 140 MHz
    Display Product Name: 'HASEE-QBOX'
    Display Product Serial Number: 'QBOX000000000'
Checksum: 0x35
