
EDID (hex):
00ffffffffffff000610c09c00000000
23130103801d12780a50c59858528e27
25505400000001010101010101010101
010101010101ee1a0080502010301030
130005a3100000190000000100061020
00000000000000000a20000000fe004c
544e31333341543039000a20000000fc
00436f6c6f72204c43440a2020200084

Extracted contents:
header:          00 ff ff ff ff ff ff 00
serial number:   06 10 c0 9c 00 00 00 00 23 13
version:         01 03
basic params:    80 1d 12 78 0a
chroma info:     50 c5 98 58 52 8e 27 25 50 54
established:     00 00 00
standard:        01 01 01 01 01 01 01 01 01 01 01 01 01 01 01 01
descriptor 1:    ee 1a 00 80 50 20 10 30 10 30 13 00 05 a3 10 00 00 19
descriptor 2:    00 00 00 01 00 06 10 20 00 00 00 00 00 00 00 00 0a 20
descriptor 3:    00 00 00 fe 00 4c 54 4e 31 33 33 41 54 30 39 00 0a 20
descriptor 4:    00 00 00 fc 00 43 6f 6c 6f 72 20 4c 43 44 0a 20 20 20
extensions:      00
checksum:        84

EDID version: 1.3
Manufacturer: APP Model 9cc0 Serial Number --
Made in week 35 of 2009
Digital display
Maximum image size: 29 cm x 18 cm
Gamma: 2.20
RGB color display
First detailed timing is preferred timing
Display x,y Chromaticity:
  Red:   0.5947, 0.3447
  Green: 0.3203, 0.5546
  Blue:  0.1552, 0.1445
  White: 0.3134, 0.3291
Established timings supported:
Standard timings supported:
Detailed mode: Clock 68.940 MHz, 261 mm x 163 mm
               1280 1296 1344 1408 hborder 0
                800  801  804  816 vborder 0
               -hsync -vsync 
               VertFreq: 60 Hz, HorFreq: 48963 Hz
Manufacturer-specified data, tag 1
ASCII string: LTN133AT09
Monitor name: Color LCD
Checksum: 0x84 (valid)
EDID block does NOT conform to EDID 1.3!
	Missing monitor ranges
	Detailed block string not properly terminated
