edid-decode (hex):

00 ff ff ff ff ff ff 00 0d ae 22 11 00 00 00 00
2d 15 01 03 80 1a 0e 78 0a 59 75 91 59 56 94 28
1e 50 54 00 00 00 01 01 01 01 01 01 01 01 01 01
01 01 01 01 01 01 9e 1b 56 80 50 00 14 30 27 1a
34 00 00 90 10 00 00 18 00 00 00 fe 00 4e 31 31
36 42 47 45 2d 4c 31 31 0a 20 00 00 00 fe 00 43
4d 4e 0a 20 20 20 20 20 20 20 20 20 00 00 00 fe
00 4e 31 31 36 42 47 45 2d 4c 31 31 0a 20 00 48

----------------

Block 0, Base EDID:
  EDID Structure Version & Revision: 1.3
  Vendor & Product Identification:
    Manufacturer: CMN
    Model: 4386
    Made in: week 45 of 2011
  Basic Display Parameters & Features:
    Digital display
    Maximum image size: 26 cm x 14 cm
    Gamma: 2.20
    RGB color display
    First detailed timing is preferred timing
  Color Characteristics:
    Red  : 0.5673, 0.3486
    Green: 0.3378, 0.5791
    Blue : 0.1572, 0.1201
    White: 0.3134, 0.3291
  Established Timings I & II: none
  Standard Timings: none
  Detailed Timing Descriptors:
    DTD 1:  1366x768    60.054 Hz 683:384  47.323 kHz  70.700 MHz (256 mm x 144 mm)
                 Hfront   39 Hsync  26 Hback  63 Hpol N
                 Vfront    3 Vsync   4 Vback  13 Vpol N
    Alphanumeric Data String: 'N116BGE-L11'
    Alphanumeric Data String: 'CMN'
    Alphanumeric Data String: 'N116BGE-L11'
Checksum: 0x48

----------------

Failures:

Block 0, Base EDID:
  Missing Display Product Name.
  Missing Display Range Limits Descriptor.

EDID conformity: FAIL
