
EDID (hex):
00ffffffffffff004dd9fa0500000000
0413010380221378f2ce50a3574c9926
0f505400000001010101010101010101
010101010101b81a566150000c301020
240054be100000009016566450001430
1021360054be10000000000000000000
00000000000000000000000000000000
000000000000000000000000000000b9

Extracted contents:
header:          00 ff ff ff ff ff ff 00
serial number:   4d d9 fa 05 00 00 00 00 04 13
version:         01 03
basic params:    80 22 13 78 f2
chroma info:     ce 50 a3 57 4c 99 26 0f 50 54
established:     00 00 00
standard:        01 01 01 01 01 01 01 01 01 01 01 01 01 01 01 01
descriptor 1:    b8 1a 56 61 50 00 0c 30 10 20 24 00 54 be 10 00 00 00
descriptor 2:    90 16 56 64 50 00 14 30 10 21 36 00 54 be 10 00 00 00
descriptor 3:    00 00 00 00 00 00 00 00 00 00 00 00 00 00 00 00 00 00
descriptor 4:    00 00 00 00 00 00 00 00 00 00 00 00 00 00 00 00 00 00
extensions:      00
checksum:        b9

EDID version: 1.3
Manufacturer: SNY Model 5fa Serial Number --
Made in week 4 of 2009
Digital display
Maximum image size: 34 cm x 19 cm
Gamma: 2.20
DPMS levels: Standby Suspend Off
Non-RGB color display
First detailed timing is preferred timing
Display x,y Chromaticity:
  Red:   0.6396, 0.3398
  Green: 0.2998, 0.5996
  Blue:  0.1494, 0.0595
  White: 0.3125, 0.3281
Established timings supported:
Standard timings supported:
Detailed mode: Clock 68.400 MHz, 340 mm x 190 mm
               1366 1382 1414 1463 hborder 0
                768  770  774  780 vborder 0
               -hsync -vsync analog composite 
               VertFreq: 59 Hz, HorFreq: 46753 Hz
Detailed mode: Clock 57.760 MHz, 340 mm x 190 mm
               1366 1382 1415 1466 hborder 0
                768  771  777  788 vborder 0
               -hsync -vsync analog composite 
               VertFreq: 49 Hz, HorFreq: 39399 Hz
Manufacturer-specified data, tag 0
Manufacturer-specified data, tag 0
Checksum: 0xb9 (valid)
EDID block does NOT conform to EDID 1.3!
	Missing name descriptor
	Missing monitor ranges
