
EDID (hex):
00ffffffffffff004dd9fa0500000000
0413010380221378f2ce50a3574c9926
0f505400000001010101010101010101
010101010101981a565a50000c300f1e
240054be100000008e1756a050001630
1a35370054be10000000000000000000
00000000000000000000000000000000
00000000000000000000000000000087

Extracted contents:
header:          00 ff ff ff ff ff ff 00
serial number:   4d d9 fa 05 00 00 00 00 04 13
version:         01 03
basic params:    80 22 13 78 f2
chroma info:     ce 50 a3 57 4c 99 26 0f 50 54
established:     00 00 00
standard:        01 01 01 01 01 01 01 01 01 01 01 01 01 01 01 01
descriptor 1:    98 1a 56 5a 50 00 0c 30 0f 1e 24 00 54 be 10 00 00 00
descriptor 2:    8e 17 56 a0 50 00 16 30 1a 35 37 00 54 be 10 00 00 00
descriptor 3:    00 00 00 00 00 00 00 00 00 00 00 00 00 00 00 00 00 00
descriptor 4:    00 00 00 00 00 00 00 00 00 00 00 00 00 00 00 00 00 00
extensions:      00
checksum:        87

EDID version: 1.3
Manufacturer: SNY Model 5fa Serial Number --
Made in week 4 of 2009
Digital display
Maximum image size: 34 cm x 19 cm
Gamma: 2.20
DPMS levels: Standby Suspend Off
Non-RGB color display
First detailed timing is preferred timing
Display x,y Chromaticity:
  Red:   0.6396, 0.3398
  Green: 0.2998, 0.5996
  Blue:  0.1494, 0.0595
  White: 0.3125, 0.3281
Established timings supported:
Standard timings supported:
Detailed mode: Clock 68.080 MHz, 340 mm x 190 mm
               1366 1381 1411 1456 hborder 0
                768  770  774  780 vborder 0
               -hsync -vsync analog composite 
               VertFreq: 59 Hz, HorFreq: 46758 Hz
Detailed mode: Clock 60.300 MHz, 340 mm x 190 mm
               1366 1392 1445 1526 hborder 0
                768  771  778  790 vborder 0
               -hsync -vsync analog composite 
               VertFreq: 50 Hz, HorFreq: 39515 Hz
Manufacturer-specified data, tag 0
Manufacturer-specified data, tag 0
Checksum: 0x87 (valid)
EDID block does NOT conform to EDID 1.3!
	Missing name descriptor
	Missing monitor ranges
