edid-decode (hex):

00 ff ff ff ff ff ff 00 09 e5 9e 05 00 00 00 00
01 14 01 04 80 1f 11 78 0a d2 40 95 5a 53 8c 26
1c 50 54 00 00 00 01 01 01 01 01 01 01 01 01 01
01 01 01 01 01 01 4c 1d 56 da 50 00 15 30 30 20
36 00 35 ad 10 00 00 1a 94 16 56 1b 51 00 6c 30
30 20 36 00 35 ad 10 00 00 1a 00 00 00 fe 00 31
57 33 43 57 80 48 54 31 34 35 30 31 00 00 00 00
00 00 41 01 94 01 00 00 00 01 01 0a 20 20 00 6c

----------------

Block 0, Base EDID:
  EDID Structure Version & Revision: 1.4
  Vendor & Product Identification:
    Manufacturer: BOE
    Model: 1438
    Made in: week 1 of 2010
  Basic Display Parameters & Features:
    Digital display
    Color depth is undefined
    Digital interface is not defined
    Maximum image size: 31 cm x 17 cm
    Gamma: 2.20
    Supported color formats: RGB 4:4:4, YCrCb 4:4:4
    First detailed timing includes the native pixel format and preferred refresh rate
  Color Characteristics:
    Red  : 0.5849, 0.3525
    Green: 0.3242, 0.5488
    Blue : 0.1494, 0.1093
    White: 0.3125, 0.3281
  Established Timings I & II: none
  Standard Timings: none
  Detailed Timing Descriptors:
    DTD 1:  1366x768    60.011 Hz 683:384  47.348 kHz  75.000 MHz (309 mm x 173 mm)
                 Hfront   48 Hsync  32 Hback 138 Hpol P
                 Vfront    3 Vsync   6 Vback  12 Vpol N
    DTD 2:  1366x768    40.013 Hz 683:384  35.052 kHz  57.800 MHz (309 mm x 173 mm)
                 Hfront   48 Hsync  32 Hback 203 Hpol P
                 Vfront    3 Vsync   6 Vback  99 Vpol N
    Alphanumeric Data String: '1W3CW'
    Manufacturer-Specified Display Descriptor (0x00): 00 00 00 00 41 01 94 01 00 00 00 01 01 0a 20 20 '....A.........  '
Checksum: 0x6c
