
EDID (hex):
00ffffffffffff0030e47f0100000000
0012010380130b780ad9959458579129
20505400000001010101010101010101
010101010101b0130040415819201888
0301c371100000180000000000000000
00000000000000000000000000fe004c
4720446973706c61790a2020000000fe
004c503038395753312d544c41320001

Extracted contents:
header:          00 ff ff ff ff ff ff 00
serial number:   30 e4 7f 01 00 00 00 00 00 12
version:         01 03
basic params:    80 13 0b 78 0a
chroma info:     d9 95 94 58 57 91 29 20 50 54
established:     00 00 00
standard:        01 01 01 01 01 01 01 01 01 01 01 01 01 01 01 01
descriptor 1:    b0 13 00 40 41 58 19 20 18 88 03 01 c3 71 10 00 00 18
descriptor 2:    00 00 00 00 00 00 00 00 00 00 00 00 00 00 00 00 00 00
descriptor 3:    00 00 00 fe 00 4c 47 20 44 69 73 70 6c 61 79 0a 20 20
descriptor 4:    00 00 00 fe 00 4c 50 30 38 39 57 53 31 2d 54 4c 41 32
extensions:      00
checksum:        01

EDID version: 1.3
Manufacturer: LGD Model 17f Serial Number --
Made in year 2008
Digital display
Maximum image size: 19 cm x 11 cm
Gamma: 2.20
RGB color display
First detailed timing is preferred timing
Display x,y Chromaticity:
  Red:   0.5810, 0.3447
  Green: 0.3417, 0.5673
  Blue:  0.1621, 0.1259
  White: 0.3134, 0.3291
Established timings supported:
Standard timings supported:
Detailed mode: Clock 50.400 MHz, 451 mm x 113 mm
               1024 1048 1184 1344 hborder 0
                600  600  619  625 vborder 0
               -hsync -vsync 
               VertFreq: 60 Hz, HorFreq: 37500 Hz
Manufacturer-specified data, tag 0
ASCII string: LG Display
ASCII string: LP089WS1-TLA2
Checksum: 0x1 (valid)
EDID block does NOT conform to EDID 1.3!
	Missing name descriptor
	Missing monitor ranges
