
EDID (hex):
00ffffffffffff004c83884100000000
00210104b5221678030cf1ae523cb923
0c4e5200000001010101010101010101
010101010101e9ff4064b00820702008
880058d71000001b000000fd003078db
db420100000000000000000000000000
000000000000000000000000000000fe
0041544e413630434c30372d30200197
02031e00e3058000e606050170600772
1a00000303307800a470070000780000
00000000000000000000000000000000
00000000000000000000000000000000
00000000000000000000000000000000
00000000000000000000000000000000
00000000000000000000000000000000
000000000000000000000000000000df

edid-decode (hex):

00 ff ff ff ff ff ff 00 4c 83 88 41 00 00 00 00
00 21 01 04 b5 22 16 78 03 0c f1 ae 52 3c b9 23
0c 4e 52 00 00 00 01 01 01 01 01 01 01 01 01 01
01 01 01 01 01 01 e9 ff 40 64 b0 08 20 70 20 08
88 00 58 d7 10 00 00 1b 00 00 00 fd 00 30 78 db
db 42 01 00 00 00 00 00 00 00 00 00 00 00 00 00
00 00 00 00 00 00 00 00 00 00 00 00 00 00 00 fe
00 41 54 4e 41 36 30 43 4c 30 37 2d 30 20 01 97

02 03 1e 00 e3 05 80 00 e6 06 05 01 70 60 07 72
1a 00 00 03 03 30 78 00 a4 70 07 00 00 78 00 00
00 00 00 00 00 00 00 00 00 00 00 00 00 00 00 00
00 00 00 00 00 00 00 00 00 00 00 00 00 00 00 00
00 00 00 00 00 00 00 00 00 00 00 00 00 00 00 00
00 00 00 00 00 00 00 00 00 00 00 00 00 00 00 00
00 00 00 00 00 00 00 00 00 00 00 00 00 00 00 00
00 00 00 00 00 00 00 00 00 00 00 00 00 00 00 df

----------------

Block 0, Base EDID:
  EDID Structure Version & Revision: 1.4
  Vendor & Product Identification:
    Manufacturer: SDC
    Model: 16776
    Made in: 2023
  Basic Display Parameters & Features:
    Digital display
    Bits per primary color channel: 10
    DisplayPort interface
    Maximum image size: 34 cm x 22 cm
    Gamma: 2.20
    Supported color formats: RGB 4:4:4
    First detailed timing includes the native pixel format and preferred refresh rate
    Display is continuous frequency
  Color Characteristics:
    Red  : 0.6796, 0.3203
    Green: 0.2373, 0.7226
    Blue : 0.1396, 0.0498
    White: 0.3046, 0.3212
  Established Timings I & II: none
  Standard Timings: none
  Detailed Timing Descriptors:
    DTD 1:  2880x1800  120.001246 Hz  16:10   219.842 kHz    655.130000 MHz (344 mm x 215 mm)
                 Hfront   32 Hsync   8 Hback   60 Hpol P
                 Vfront    8 Vsync   8 Vback   16 Vpol N
    Display Range Limits:
      Monitor ranges (Bare Limits): 48-120 Hz V, 219-219 kHz H, max dotclock 660 MHz
    Empty Descriptor
    Alphanumeric Data String: 'ATNA60CL07-0 '
  Extension blocks: 1
Checksum: 0x97

----------------

Block 1, CTA-861 Extension Block:
  Revision: 3
  Native detailed modes: 0
  Colorimetry Data Block:
    BT2020RGB
  HDR Static Metadata Data Block:
    Electro optical transfer functions:
      Traditional gamma - SDR luminance range
      SMPTE ST2084
    Supported static metadata descriptors:
      Static metadata type 1
    Desired content max luminance: 112 (565.685 cd/m^2)
    Desired content max frame-average luminance: 96 (400.000 cd/m^2)
    Desired content min luminance: 7 (0.004 cd/m^2)
  Vendor-Specific Data Block (AMD), OUI 00-00-1A:
    Version: 3.3
    Minimum Refresh Rate: 48 Hz
    Maximum Refresh Rate: 120 Hz
    Flags 1.x: 0x00
    Flags 2.x: 0xa4
    Maximum luminance: 112 (565.685 cd/m^2)
    Minimum luminance: 7 (0.004 cd/m^2)
    Maximum luminance (without local dimming): 0 (50.000 cd/m^2)
    Minimum luminance (without local dimming): 0 (0.000 cd/m^2)
Checksum: 0xdf  Unused space in Extension Block: 97 bytes
