
EDID (hex):
00ffffffffffff0022836c1c349d542a
1c0e0103802115781a2fd697544c8c23
214f5400000081000101010101010101
010101010101bc1b00a0502017303020
26004bcf100000190000000f00202020
2020202020a0ff023200000000fe0020
202020204869746163686900000000fe
00545833394438395643314641000099

Extracted contents:
header:          00 ff ff ff ff ff ff 00
serial number:   22 83 6c 1c 34 9d 54 2a 1c 0e
version:         01 03
basic params:    80 21 15 78 1a
chroma info:     2f d6 97 54 4c 8c 23 21 4f 54
established:     00 00 00
standard:        81 00 01 01 01 01 01 01 01 01 01 01 01 01 01 01
descriptor 1:    bc 1b 00 a0 50 20 17 30 30 20 26 00 4b cf 10 00 00 19
descriptor 2:    00 00 00 0f 00 20 20 20 20 20 20 20 20 a0 ff 02 32 00
descriptor 3:    00 00 00 fe 00 20 20 20 20 20 48 69 74 61 63 68 69 00
descriptor 4:    00 00 00 fe 00 54 58 33 39 44 38 39 56 43 31 46 41 00
extensions:      00
checksum:        99

EDID version: 1.3
Manufacturer: HTC Model 1c6c Serial Number --
Digital display
Maximum image size: 33 cm x 21 cm
Gamma: 2.20
Undefined display color type
First detailed timing is preferred timing
Display x,y Chromaticity:
  Red:   0.5898, 0.3300
  Green: 0.2998, 0.5498
  Blue:  0.1396, 0.1298
  White: 0.3095, 0.3300
Established timings supported:
Standard timings supported:
  1280x800@60Hz 16:10
Detailed mode: Clock 71.000 MHz, 331 mm x 207 mm
               1280 1328 1360 1440 hborder 0
                800  802  808  823 vborder 0
               -hsync -vsync 
               VertFreq: 59 Hz, HorFreq: 49305 Hz
Manufacturer-specified data, tag 15
ASCII string:      Hitachi
ASCII string: TX39D89VC1FA
Checksum: 0x99 (valid)
EDID block does NOT conform to EDID 1.3!
	Missing name descriptor
	Missing monitor ranges
	Detailed block string not properly terminated
EDID block does not conform at all!
	Bad year of manufacture
