
EDID (hex):
00ffffffffffff00084b752001000000
03120103802b1b78eade95a3544c9926
0f5054afcf00b300a940950081800101
01010101010121399030621a274068b0
36000e282100001c9a29a0d051842230
50983600c5ff1000001e302a00985100
2a4030701300680e1100001e000000fc
0042424b204c43440a20202020200067

Extracted contents:
header:          00 ff ff ff ff ff ff 00
serial number:   08 4b 75 20 01 00 00 00 03 12
version:         01 03
basic params:    80 2b 1b 78 ea
chroma info:     de 95 a3 54 4c 99 26 0f 50 54
established:     af cf 00
standard:        b3 00 a9 40 95 00 81 80 01 01 01 01 01 01 01 01
descriptor 1:    21 39 90 30 62 1a 27 40 68 b0 36 00 0e 28 21 00 00 1c
descriptor 2:    9a 29 a0 d0 51 84 22 30 50 98 36 00 c5 ff 10 00 00 1e
descriptor 3:    30 2a 00 98 51 00 2a 40 30 70 13 00 68 0e 11 00 00 1e
descriptor 4:    00 00 00 fc 00 42 42 4b 20 4c 43 44 0a 20 20 20 20 20
extensions:      00
checksum:        67

EDID version: 1.3
Manufacturer: BBK Model 2075 Serial Number --
Made in week 3 of 2008
Digital display
Maximum image size: 43 cm x 27 cm
Gamma: 2.20
DPMS levels: Standby Suspend Off
RGB color display
First detailed timing is preferred timing
Display x,y Chromaticity:
  Red:   0.6396, 0.3291
  Green: 0.2998, 0.5996
  Blue:  0.1503, 0.0595
  White: 0.3134, 0.3291
Established timings supported:
  720x400@70Hz 9:5 HorFreq: 31469 Hz Clock: 28.320 MHz
  640x480@60Hz 4:3 HorFreq: 31469 Hz Clock: 25.175 MHz
  640x480@72Hz 4:3 HorFreq: 37900 Hz Clock: 31.500 MHz
  640x480@75Hz 4:3 HorFreq: 37500 Hz Clock: 31.500 MHz
  800x600@56Hz 4:3 HorFreq: 35200 Hz Clock: 36.000 MHz
  800x600@60Hz 4:3 HorFreq: 37900 Hz Clock: 40.000 MHz
  800x600@72Hz 4:3 HorFreq: 48100 Hz Clock: 50.000 MHz
  800x600@75Hz 4:3 HorFreq: 46900 Hz Clock: 49.500 MHz
  1024x768@60Hz 4:3 HorFreq: 48400 Hz Clock: 65.000 MHz
  1024x768@70Hz 4:3 HorFreq: 56500 Hz Clock: 75.000 MHz
  1024x768@75Hz 4:3 HorFreq: 60000 Hz Clock: 78.750 MHz
  1280x1024@75Hz 5:4 HorFreq: 80000 Hz Clock: 135.000 MHz
Standard timings supported:
  1680x1050@60Hz 16:10 HorFreq: 64700 Hz Clock: 119.000 MHz
  1600x1200@60Hz 4:3 HorFreq: 75000 Hz Clock: 162.000 MHz
  1440x900@60Hz 16:10 HorFreq: 55500 Hz Clock: 88.750 MHz
  1280x1024@60Hz 5:4 HorFreq: 64000 Hz Clock: 108.000 MHz
Detailed mode: Clock 146.250 MHz, 526 mm x 296 mm
               1680 1784 1960 2240 hborder 0
               1050 1053 1059 1089 vborder 0
               -hsync +vsync 
               VertFreq: 59 Hz, HorFreq: 65290 Hz
Detailed mode: Clock 106.500 MHz, 453 mm x 255 mm
               1440 1520 1672 1904 hborder 0
                900  903  909  934 vborder 0
               +hsync +vsync 
               VertFreq: 59 Hz, HorFreq: 55934 Hz
Detailed mode: Clock 108.000 MHz, 360 mm x 270 mm
               1280 1328 1440 1688 hborder 0
               1024 1025 1028 1066 vborder 0
               +hsync +vsync 
               VertFreq: 60 Hz, HorFreq: 63981 Hz
Monitor name: BBK LCD
Checksum: 0x67 (valid)
EDID block does NOT conform to EDID 1.3!
	Missing monitor ranges
