
EDID (hex):
00ffffffffffff0010ac00d034473130
220c0103681c15c8eabdc89e584e9724
0f484ca4480031594559010101010101
010101010101f91520f830581f202040
13000eca1000001e000000ff00363431
383032384a303147340a000000fc0044
454c4c2045353531630a2020000000fd
0032781e3607000a2020202020200042

Extracted contents:
header:          00 ff ff ff ff ff ff 00
serial number:   10 ac 00 d0 34 47 31 30 22 0c
version:         01 03
basic params:    68 1c 15 c8 ea
chroma info:     bd c8 9e 58 4e 97 24 0f 48 4c
established:     a4 48 00
standard:        31 59 45 59 01 01 01 01 01 01 01 01 01 01 01 01
descriptor 1:    f9 15 20 f8 30 58 1f 20 20 40 13 00 0e ca 10 00 00 1e
descriptor 2:    00 00 00 ff 00 36 34 31 38 30 32 38 4a 30 31 47 34 0a
descriptor 3:    00 00 00 fc 00 44 45 4c 4c 20 45 35 35 31 63 0a 20 20
descriptor 4:    00 00 00 fd 00 32 78 1e 36 07 00 0a 20 20 20 20 20 20
extensions:      00
checksum:        42

EDID version: 1.3
Manufacturer: DEL Model d000 Serial Number --
Analog display, Input voltage level: 0.7/0.7 V
Sync: Separate 
Maximum image size: 28 cm x 21 cm
Gamma: 3.00
DPMS levels: Standby Suspend Off
RGB color display
First detailed timing is preferred timing
Display x,y Chromaticity:
  Red:   0.6191, 0.3466
  Green: 0.3076, 0.5908
  Blue:  0.1435, 0.0585
  White: 0.2832, 0.2968
Established timings supported:
  720x400@70Hz 9:5 HorFreq: 31469 Hz Clock: 28.320 MHz
  640x480@60Hz 4:3 HorFreq: 31469 Hz Clock: 25.175 MHz
  640x480@75Hz 4:3 HorFreq: 37500 Hz Clock: 31.500 MHz
  800x600@75Hz 4:3 HorFreq: 46900 Hz Clock: 49.500 MHz
  1024x768@60Hz 4:3 HorFreq: 48400 Hz Clock: 65.000 MHz
Standard timings supported:
  640x480@85Hz 4:3 HorFreq: 43300 Hz Clock: 36.000 MHz
  800x600@85Hz 4:3 HorFreq: 53700 Hz Clock: 56.250 MHz
Detailed mode: Clock 56.250 MHz, 270 mm x 202 mm
                800  832  896 1048 hborder 0
                600  601  604  631 vborder 0
               +hsync +vsync 
               VertFreq: 85 Hz, HorFreq: 53673 Hz
Serial number: --
Monitor name: DELL E551c
Monitor ranges (GTF): 50-120Hz V, 30-54kHz H, max dotclock 70MHz
Checksum: 0x42 (valid)
EDID block does not conform at all!
	Bad year of manufacture
