edid-decode (hex):

00 ff ff ff ff ff ff 00 06 10 38 9c 00 00 00 00
00 0d 01 03 80 25 17 78 28 7e 70 9f 56 4d 93 25
1b 50 54 00 00 00 01 01 01 01 01 01 01 01 01 01
01 01 01 01 01 01 95 25 a0 40 51 84 0c 30 40 20
33 00 6f e5 10 00 00 18 00 00 fe 00 00 06 10 21
00 00 00 00 00 00 00 00 0a 20 00 00 00 fe 00 51
44 31 37 54 54 30 32 0a 20 20 20 20 00 00 00 fc
00 43 6f 6c 6f 72 20 4c 43 44 0a 20 20 20 00 f8

----------------

Block 0, Base EDID:
  EDID Structure Version & Revision: 1.3
  Vendor & Product Identification:
    Manufacturer: APP
    Model: 39992
    Made in: 2003
  Basic Display Parameters & Features:
    Digital display
    Maximum image size: 37 cm x 23 cm
    Gamma: 2.20
    DPMS levels: Off
    RGB color display
  Color Characteristics:
    Red  : 0.6220, 0.3388
    Green: 0.3037, 0.5761
    Blue : 0.1455, 0.1083
    White: 0.3125, 0.3281
  Established Timings I & II: none
  Standard Timings: none
  Detailed Timing Descriptors:
    DTD 1:  1440x900    59.939 Hz   8:5    54.665 kHz  96.210 MHz (367 mm x 229 mm)
                 Hfront   64 Hsync  32 Hback 224 Hpol N
                 Vfront    3 Vsync   3 Vback   6 Vpol N
    Manufacturer-Specified Display Descriptor (0x00): fe 00 00 06 10 21 00 00 00 00 00 00 00 00 0a 20 '.....!......... '
    Alphanumeric Data String: 'QD17TT02'
    Display Product Name: 'Color LCD'
Checksum: 0xf8

----------------

Failures:

Block 0, Base EDID:
  Basic Display Parameters & Features: EDID 1.3 requires that the first detailed timing is the preferred timing
  Display Descriptor #2: Monitor descriptor block has byte 2 nonzero (0xfe).
  Missing Display Range Limits Descriptor.

EDID conformity: FAIL
