
EDID (hex):
00ffffffffffff002a59602301000000
231e01030e341e782a8af5a55952a127
0f5054a7ef80714f81c0810081809500
a9c0b3000101023a801871382d40582c
45000f282100001e314480a070382740
302855000f282100001e000000fd0030
4b0f5813000a202020202020000000fc
0056495a54410a202020202020200002

Extracted contents:
header:          00 ff ff ff ff ff ff 00
serial number:   2a 59 60 23 01 00 00 00 23 1e
version:         01 03
basic params:    0e 34 1e 78 2a
chroma info:     8a f5 a5 59 52 a1 27 0f 50 54
established:     a7 ef 80
standard:        71 4f 81 c0 81 00 81 80 95 00 a9 c0 b3 00 01 01
descriptor 1:    02 3a 80 18 71 38 2d 40 58 2c 45 00 0f 28 21 00 00 1e
descriptor 2:    31 44 80 a0 70 38 27 40 30 28 55 00 0f 28 21 00 00 1e
descriptor 3:    00 00 00 fd 00 30 4b 0f 58 13 00 0a 20 20 20 20 20 20
descriptor 4:    00 00 00 fc 00 56 49 5a 54 41 0a 20 20 20 20 20 20 20
extensions:      00
checksum:        02

EDID version: 1.3
Manufacturer: JRY Model 2360 Serial Number --
Made in week 35 of 2020
Analog display, Input voltage level: 0.7/0.3 V
Sync: Separate Composite SyncOnGreen 
Maximum image size: 52 cm x 30 cm
Gamma: 2.20
DPMS levels: Off
RGB color display
First detailed timing is preferred timing
Display x,y Chromaticity:
  Red:   0.6464, 0.3476
  Green: 0.3222, 0.6308
  Blue:  0.1552, 0.0615
  White: 0.3134, 0.3291
Established timings supported:
  720x400@70Hz 9:5 HorFreq: 31469 Hz Clock: 28.320 MHz
  640x480@60Hz 4:3 HorFreq: 31469 Hz Clock: 25.175 MHz
  640x480@75Hz 4:3 HorFreq: 37500 Hz Clock: 31.500 MHz
  800x600@56Hz 4:3 HorFreq: 35200 Hz Clock: 36.000 MHz
  800x600@60Hz 4:3 HorFreq: 37900 Hz Clock: 40.000 MHz
  800x600@72Hz 4:3 HorFreq: 48100 Hz Clock: 50.000 MHz
  800x600@75Hz 4:3 HorFreq: 46900 Hz Clock: 49.500 MHz
  832x624@75Hz 4:3 HorFreq: 49726 Hz Clock: 57.284 MHz
  1024x768@60Hz 4:3 HorFreq: 48400 Hz Clock: 65.000 MHz
  1024x768@70Hz 4:3 HorFreq: 56500 Hz Clock: 75.000 MHz
  1024x768@75Hz 4:3 HorFreq: 60000 Hz Clock: 78.750 MHz
  1280x1024@75Hz 5:4 HorFreq: 80000 Hz Clock: 135.000 MHz
  1152x870@75Hz 192:145 HorFreq: 67500 Hz Clock: 108.000 MHz
Standard timings supported:
  1152x864@75Hz 4:3 HorFreq: 67500 Hz Clock: 108.000 MHz
  1280x720@60Hz 16:9
  1280x800@60Hz 16:10
  1280x1024@60Hz 5:4 HorFreq: 64000 Hz Clock: 108.000 MHz
  1440x900@60Hz 16:10 HorFreq: 55500 Hz Clock: 88.750 MHz
  1600x900@60Hz 16:9
  1680x1050@60Hz 16:10 HorFreq: 64700 Hz Clock: 119.000 MHz
Detailed mode: Clock 148.500 MHz, 527 mm x 296 mm
               1920 2008 2052 2200 hborder 0
               1080 1084 1089 1125 vborder 0
               +hsync +vsync 
               VertFreq: 60 Hz, HorFreq: 67500 Hz
Detailed mode: Clock 174.570 MHz, 527 mm x 296 mm
               1920 1968 2008 2080 hborder 0
               1080 1085 1090 1119 vborder 0
               +hsync +vsync 
               VertFreq: 75 Hz, HorFreq: 83927 Hz
Monitor ranges (GTF): 48-75Hz V, 15-88kHz H, max dotclock 190MHz
Monitor name: VIZTA
Checksum: 0x2 (valid)
