edid-decode (hex):

00 ff ff ff ff ff ff 00 24 4d 01 1a 01 01 01 01
19 0c 01 03 0e 22 1b 8c ea 6f 8b a2 5a 4d 94 24
1a 51 56 ad cf 80 31 40 45 4f 61 4f 81 80 01 01
01 01 01 01 01 01 30 2a 00 98 51 00 2a 40 30 70
13 00 52 0e 11 00 00 1e 00 00 00 fd 00 3a 55 1f
50 0d 00 0a 20 20 20 20 20 20 00 00 00 ff 00 35
35 2d 46 33 37 36 35 0a 20 20 20 20 00 00 00 fc
00 49 42 4d 20 54 37 35 30 0a 20 20 20 20 00 ac

00 ff ff ff ff ff ff 00 24 4d 01 1a 01 01 01 01
19 0c 01 03 0e 22 1b 8c ea 6f 8b a2 5a 4d 94 24
1a 51 56 ad cf 80 31 40 45 4f 61 4f 81 80 01 01
01 01 01 01 01 01 30 2a 00 98 51 00 2a 40 30 70
13 00 52 0e 11 00 00 1e 00 00 00 fd 00 3a 55 1f
50 0d 00 0a 20 20 20 20 20 20 00 00 00 ff 00 35
35 2d 46 33 37 36 35 0a 20 20 20 20 00 00 00 fc
00 49 42 4d 20 54 37 35 30 0a 20 20 20 20 00 ac

----------------

Block 0, Base EDID:
  EDID Structure Version & Revision: 1.3
  Vendor & Product Identification:
    Manufacturer: IBM
    Model: 6657
    Serial Number: ...
    Made in: week 25 of 2002
  Basic Display Parameters & Features:
    Analog display
    Signal Level Standard: 0.700 : 0.300 : 1.000 V p-p
    Blank level equals black level
    Sync: Separate Composite SyncOnGreen
    Maximum image size: 34 cm x 27 cm
    Gamma: 2.40
    DPMS levels: Standby Suspend Off
    RGB color display
    First detailed timing is the preferred timing
  Color Characteristics:
    Red  : 0.6337, 0.3535
    Green: 0.3037, 0.5810
    Blue : 0.1425, 0.1015
    White: 0.3183, 0.3388
  Established Timings I & II:
    IBM     :   720x400    70.081663 Hz   9:5     31.467 kHz     28.320000 MHz
    DMT 0x04:   640x480    59.940476 Hz   4:3     31.469 kHz     25.175000 MHz
    DMT 0x05:   640x480    72.808802 Hz   4:3     37.861 kHz     31.500000 MHz
    DMT 0x06:   640x480    75.000000 Hz   4:3     37.500 kHz     31.500000 MHz
    DMT 0x09:   800x600    60.316541 Hz   4:3     37.879 kHz     40.000000 MHz
    DMT 0x0a:   800x600    72.187572 Hz   4:3     48.077 kHz     50.000000 MHz
    DMT 0x0b:   800x600    75.000000 Hz   4:3     46.875 kHz     49.500000 MHz
    DMT 0x10:  1024x768    60.003840 Hz   4:3     48.363 kHz     65.000000 MHz
    DMT 0x11:  1024x768    70.069359 Hz   4:3     56.476 kHz     75.000000 MHz
    DMT 0x12:  1024x768    75.028582 Hz   4:3     60.023 kHz     78.750000 MHz
    DMT 0x24:  1280x1024   75.024675 Hz   5:4     79.976 kHz    135.000000 MHz
    Apple   :  1152x870    75.061550 Hz 192:145   68.681 kHz    100.000000 MHz
  Standard Timings:
    DMT 0x04:   640x480    59.940476 Hz   4:3     31.469 kHz     25.175000 MHz
    DMT 0x0b:   800x600    75.000000 Hz   4:3     46.875 kHz     49.500000 MHz
    DMT 0x12:  1024x768    75.028582 Hz   4:3     60.023 kHz     78.750000 MHz
    DMT 0x23:  1280x1024   60.019740 Hz   5:4     63.981 kHz    108.000000 MHz
  Detailed Timing Descriptors:
    DTD 1:  1280x1024   60.019740 Hz   5:4     63.981 kHz    108.000000 MHz (338 mm x 270 mm)
                 Hfront   48 Hsync 112 Hback  248 Hpol P
                 Vfront    1 Vsync   3 Vback   38 Vpol P
    Display Range Limits:
      Monitor ranges (GTF): 58-85 Hz V, 31-80 kHz H, max dotclock 130 MHz
    Display Product Serial Number: ...
    Display Product Name: 'IBM T750'
Checksum: 0xac

----------------

Block 1, Unknown EDID Extension Block 0x00:
  00 ff ff ff ff ff ff 00 24 4d 01 1a 01 01 01 01 '........$M......'
  19 0c 01 03 0e 22 1b 8c ea 6f 8b a2 5a 4d 94 24 '....."...o..ZM.$'
  1a 51 56 ad cf 80 31 40 45 4f 61 4f 81 80 01 01 '.QV...1@EOaO....'
  01 01 01 01 01 01 30 2a 00 98 51 00 2a 40 30 70 '......0*..Q.*@0p'
  13 00 52 0e 11 00 00 1e 00 00 00 fd 00 3a 55 1f '..R..........:U.'
  50 0d 00 0a 20 20 20 20 20 20 00 00 00 ff 00 35 'P...      .....5'
  35 2d 46 33 37 36 35 0a 20 20 20 20 00 00 00 fc '5-F3765.    ....'
  00 49 42 4d 20 54 37 35 30 0a 20 20 20 20 00 ac '.IBM T750.    ..'
Checksum: 0xac

----------------

Warnings:

EDID:
  Base EDID: Some timings are out of range of the Monitor Ranges:
    Maximum Clock: 135.000 MHz (Monitor: 130.000 MHz)
    Could be due to a Monitor Range off-by-one rounding issue

Failures:

Block 1, Base EDID:
  Unknown Extension Block.
EDID:
  Base EDID: EDID specified 0 extension block(s), but found 1 extension block(s).

EDID conformity: FAIL
