
EDID (hex):
00ffffffffffff004172b21e01010101
0d120103682515782a1e95a7534c9824
145054bfe00081c081cf010101010101
0101010101011a1d008051d01c204080
350074d21000001c000000ff00434149
30303134310a20202020000000fd0032
4b1e530a000a202020202020000000fc
004d4c313731350a20202020202000bc

Extracted contents:
header:          00 ff ff ff ff ff ff 00
serial number:   41 72 b2 1e 01 01 01 01 0d 12
version:         01 03
basic params:    68 25 15 78 2a
chroma info:     1e 95 a7 53 4c 98 24 14 50 54
established:     bf e0 00
standard:        81 c0 81 cf 01 01 01 01 01 01 01 01 01 01 01 01
descriptor 1:    1a 1d 00 80 51 d0 1c 20 40 80 35 00 74 d2 10 00 00 1c
descriptor 2:    00 00 00 ff 00 43 41 49 30 30 31 34 31 0a 20 20 20 20
descriptor 3:    00 00 00 fd 00 32 4b 1e 53 0a 00 0a 20 20 20 20 20 20
descriptor 4:    00 00 00 fc 00 4d 4c 31 37 31 35 0a 20 20 20 20 20 20
extensions:      00
checksum:        bc

EDID version: 1.3
Manufacturer: PKR Model 1eb2 Serial Number --
Made in week 13 of 2008
Analog display, Input voltage level: 0.7/0.7 V
Sync: Separate 
Maximum image size: 37 cm x 21 cm
Gamma: 2.20
DPMS levels: Off
RGB color display
First detailed timing is preferred timing
Display x,y Chromaticity:
  Red:   0.6523, 0.3251
  Green: 0.2998, 0.5957
  Blue:  0.1425, 0.0791
  White: 0.3134, 0.3291
Established timings supported:
  720x400@70Hz 9:5 HorFreq: 31469 Hz Clock: 28.320 MHz
  640x480@60Hz 4:3 HorFreq: 31469 Hz Clock: 25.175 MHz
  640x480@67Hz 4:3 HorFreq: 35000 Hz Clock: 30.240 MHz
  640x480@72Hz 4:3 HorFreq: 37900 Hz Clock: 31.500 MHz
  640x480@75Hz 4:3 HorFreq: 37500 Hz Clock: 31.500 MHz
  800x600@56Hz 4:3 HorFreq: 35200 Hz Clock: 36.000 MHz
  800x600@60Hz 4:3 HorFreq: 37900 Hz Clock: 40.000 MHz
  800x600@72Hz 4:3 HorFreq: 48100 Hz Clock: 50.000 MHz
  800x600@75Hz 4:3 HorFreq: 46900 Hz Clock: 49.500 MHz
  832x624@75Hz 4:3 HorFreq: 49726 Hz Clock: 57.284 MHz
Standard timings supported:
  1280x720@60Hz 16:9
  1280x720@75Hz 16:9
Detailed mode: Clock 74.500 MHz, 372 mm x 210 mm
               1280 1344 1472 1664 hborder 0
                720  723  728  748 vborder 0
               -hsync +vsync 
               VertFreq: 59 Hz, HorFreq: 44771 Hz
Serial number: --
Monitor ranges (GTF): 50-75Hz V, 30-83kHz H, max dotclock 100MHz
Monitor name: ML1715
Checksum: 0xbc (valid)
