
EDID (hex):
00ffffffffffff003749480201010101
220c01036c241db7ea6c82a454459c24
11484fafce00714f8180010101010101
01010101010164190040410026301888
360030d41000001e000000fc00445631
353132410a2020202020000000fd0032
4b1e400b000a202020202020000000ff
0044544342323737303035310a2000dc

Extracted contents:
header:          00 ff ff ff ff ff ff 00
serial number:   37 49 48 02 01 01 01 01 22 0c
version:         01 03
basic params:    6c 24 1d b7 ea
chroma info:     6c 82 a4 54 45 9c 24 11 48 4f
established:     af ce 00
standard:        71 4f 81 80 01 01 01 01 01 01 01 01 01 01 01 01
descriptor 1:    64 19 00 40 41 00 26 30 18 88 36 00 30 d4 10 00 00 1e
descriptor 2:    00 00 00 fc 00 44 56 31 35 31 32 41 0a 20 20 20 20 20
descriptor 3:    00 00 00 fd 00 32 4b 1e 40 0b 00 0a 20 20 20 20 20 20
descriptor 4:    00 00 00 ff 00 44 54 43 42 32 37 37 30 30 35 31 0a 20
extensions:      00
checksum:        dc

EDID version: 1.3
Manufacturer: MZI Model 248 Serial Number --
Analog display, Input voltage level: 0.7/0.7 V
Sync: Separate Composite 
Maximum image size: 36 cm x 29 cm
Gamma: 2.83
DPMS levels: Standby Suspend Off
RGB color display
First detailed timing is preferred timing
Display x,y Chromaticity:
  Red:   0.6416, 0.3300
  Green: 0.2724, 0.6093
  Blue:  0.1425, 0.0664
  White: 0.2812, 0.3105
Established timings supported:
  720x400@70Hz 9:5 HorFreq: 31469 Hz Clock: 28.320 MHz
  640x480@60Hz 4:3 HorFreq: 31469 Hz Clock: 25.175 MHz
  640x480@72Hz 4:3 HorFreq: 37900 Hz Clock: 31.500 MHz
  640x480@75Hz 4:3 HorFreq: 37500 Hz Clock: 31.500 MHz
  800x600@56Hz 4:3 HorFreq: 35200 Hz Clock: 36.000 MHz
  800x600@60Hz 4:3 HorFreq: 37900 Hz Clock: 40.000 MHz
  800x600@72Hz 4:3 HorFreq: 48100 Hz Clock: 50.000 MHz
  800x600@75Hz 4:3 HorFreq: 46900 Hz Clock: 49.500 MHz
  1024x768@60Hz 4:3 HorFreq: 48400 Hz Clock: 65.000 MHz
  1024x768@70Hz 4:3 HorFreq: 56500 Hz Clock: 75.000 MHz
  1024x768@75Hz 4:3 HorFreq: 60000 Hz Clock: 78.750 MHz
Standard timings supported:
  1152x864@75Hz 4:3 HorFreq: 67500 Hz Clock: 108.000 MHz
  1280x1024@60Hz 5:4 HorFreq: 64000 Hz Clock: 108.000 MHz
Detailed mode: Clock 65.000 MHz, 304 mm x 212 mm
               1024 1048 1184 1344 hborder 0
                768  771  777  806 vborder 0
               +hsync +vsync 
               VertFreq: 60 Hz, HorFreq: 48363 Hz
Monitor name: DV1512A
Monitor ranges (GTF): 50-75Hz V, 30-64kHz H, max dotclock 110MHz
Serial number: --
Checksum: 0xdc (valid)
One or more of the timings is out of range of the Monitor Ranges:
  Vertical Freq: 56 - 75 Hz
  Horizontal Freq: 31469 - 67500 Hz
  Maximum Clock: 108.000 MHz
EDID block does not conform at all!
	Bad year of manufacture
