
EDID (hex):
00ffffffffffff0006af5d5000000000
1a180103801a0e780aa4159e554e9b26
0f505400000001010101010101010101
0101010101013d3780bc703826403a2a
8e000090100000180000000f00000000
00000000000000000020000000fe0041
554f0a202020202020202020000000fe
004231313648414e30352e30200a0086

edid-decode (hex):

00 ff ff ff ff ff ff 00 06 af 5d 50 00 00 00 00
1a 18 01 03 80 1a 0e 78 0a a4 15 9e 55 4e 9b 26
0f 50 54 00 00 00 01 01 01 01 01 01 01 01 01 01
01 01 01 01 01 01 3d 37 80 bc 70 38 26 40 3a 2a
8e 00 00 90 10 00 00 18 00 00 00 0f 00 00 00 00
00 00 00 00 00 00 00 00 00 20 00 00 00 fe 00 41
55 4f 0a 20 20 20 20 20 20 20 20 20 00 00 00 fe
00 42 31 31 36 48 41 4e 30 35 2e 30 20 0a 00 86

----------------

Block 0, Base EDID:
  EDID Structure Version & Revision: 1.3
  Vendor & Product Identification:
    Manufacturer: AUO
    Model: 20573
    Made in: week 26 of 2014
  Basic Display Parameters & Features:
    Digital display
    Maximum image size: 26 cm x 14 cm
    Gamma: 2.20
    RGB color display
    First detailed timing is the preferred timing
  Color Characteristics:
    Red  : 0.6191, 0.3339
    Green: 0.3056, 0.6054
    Blue : 0.1484, 0.0595
    White: 0.3134, 0.3291
  Established Timings I & II: none
  Standard Timings: none
  Detailed Timing Descriptors:
    DTD 1:  1920x1080   60.002274 Hz  16:9     67.083 kHz    141.410000 MHz (256 mm x 144 mm)
                 Hfront   58 Hsync  42 Hback   88 Hpol N
                 Vfront    8 Vsync  14 Vback   16 Vpol N
    Manufacturer-Specified Display Descriptor (0x0f): 00 0f 00 00 00 00 00 00 00 00 00 00 00 00 00 20 '............... '
    Alphanumeric Data String: 'AUO'
    Alphanumeric Data String: 'B116HAN05.0 '
Checksum: 0x86
