
EDID (hex):
00ffffffffffff0030e4e10200000000
00140104902615780288a59d5f579c26
1c505400000001010101010101010101
0101010101012f2640b860840c303030
23007ed710000019751940b860840c30
303023007ed710000019000000fe0044
58445759803137335744310a00000000
00004131960100000002010a202000b5

Extracted contents:
header:          00 ff ff ff ff ff ff 00
serial number:   30 e4 e1 02 00 00 00 00 00 14
version:         01 04
basic params:    90 26 15 78 02
chroma info:     88 a5 9d 5f 57 9c 26 1c 50 54
established:     00 00 00
standard:        01 01 01 01 01 01 01 01 01 01 01 01 01 01 01 01
descriptor 1:    2f 26 40 b8 60 84 0c 30 30 30 23 00 7e d7 10 00 00 19
descriptor 2:    75 19 40 b8 60 84 0c 30 30 30 23 00 7e d7 10 00 00 19
descriptor 3:    00 00 00 fe 00 44 58 44 57 59 80 31 37 33 57 44 31 0a
descriptor 4:    00 00 00 00 00 00 41 31 96 01 00 00 00 02 01 0a 20 20
extensions:      00
checksum:        b5

EDID version: 1.4
Manufacturer: LGD Model 2e1 Serial Number --
Made in year 2010
Digital display
6 bits per primary color channel
Digital interface is not defined
Maximum image size: 38 cm x 21 cm
Gamma: 2.20
Supported color formats: RGB 4:4:4
First detailed timing includes the native pixel format and preferred refresh rate
Display x,y Chromaticity:
  Red:   0.6152, 0.3710
  Green: 0.3417, 0.6093
  Blue:  0.1503, 0.1113
  White: 0.3134, 0.3291
Established timings supported:
Standard timings supported:
Detailed mode: Clock 97.750 MHz, 382 mm x 215 mm
               1600 1648 1696 1784 hborder 0
                900  902  905  912 vborder 0
               -hsync -vsync 
               VertFreq: 60 Hz, HorFreq: 54792 Hz
Detailed mode: Clock 65.170 MHz, 382 mm x 215 mm
               1600 1648 1696 1784 hborder 0
                900  902  905  912 vborder 0
               -hsync -vsync 
               VertFreq: 40 Hz, HorFreq: 36530 Hz
ASCII string: DXDWY
Manufacturer-specified data, tag 0
Checksum: 0xb5 (valid)
EDID block does NOT conform to EDID 1.4!
	Missing name descriptor
	Missing monitor ranges
	Detailed block string not properly terminated
