edid-decode (hex):

00 ff ff ff ff ff ff 00 4c a3 4b 31 00 00 00 00
00 15 01 03 80 22 13 78 ea cc 95 9e 57 53 94 27
0f 50 54 00 00 00 01 01 01 01 01 01 01 01 01 01
01 01 01 01 01 01 9f 25 40 7e 60 84 1e 30 30 20
25 00 58 c2 10 00 00 19 00 00 00 0f 00 00 00 00
00 00 00 00 00 32 4b 0c 11 00 00 00 00 fe 00 53
41 4d 53 55 4e 47 0a 20 20 20 20 20 00 00 00 fe
00 31 35 36 4b 54 30 32 2d 32 30 31 0a 20 00 e4

----------------

Block 0, Base EDID:
  EDID Structure Version & Revision: 1.3
  Vendor & Product Identification:
    Manufacturer: SEC
    Model: 12619
    Made in: 2011
  Basic Display Parameters & Features:
    Digital display
    Maximum image size: 34 cm x 19 cm
    Gamma: 2.20
    DPMS levels: Standby Suspend Off
    RGB color display
    First detailed timing is the preferred timing
  Color Characteristics:
    Red  : 0.6201, 0.3398
    Green: 0.3271, 0.5781
    Blue : 0.1542, 0.0595
    White: 0.3134, 0.3291
  Established Timings I & II: none
  Standard Timings: none
  Detailed Timing Descriptors:
    DTD 1:  1600x900    59.999502 Hz  16:9     55.800 kHz     96.310000 MHz (344 mm x 194 mm)
                 Hfront   48 Hsync  32 Hback   46 Hpol N
                 Vfront    2 Vsync   5 Vback   23 Vpol N
    Manufacturer-Specified Display Descriptor (0x0f): 00 0f 00 00 00 00 00 00 00 00 00 32 4b 0c 11 00 '...........2K...'
    Alphanumeric Data String: 'SAMSUNG'
    Alphanumeric Data String: '156KT02-201'
Checksum: 0xe4

----------------

Failures:

Block 0, Base EDID:
  Missing Display Product Name.
  Missing Display Range Limits Descriptor.

EDID conformity: FAIL
