
EDID (hex):
00ffffffffffff004ca34b3100000000
0015010380221378eacc959e57539427
0f505400000001010101010101010101
0101010101019f25407e60841e303020
250058c2100000190000000f00000000
0000000000324b0c1100000000fe0053
414d53554e470a2020202020000000fe
003135364b5430322d3230310a2000e4

Extracted contents:
header:          00 ff ff ff ff ff ff 00
serial number:   4c a3 4b 31 00 00 00 00 00 15
version:         01 03
basic params:    80 22 13 78 ea
chroma info:     cc 95 9e 57 53 94 27 0f 50 54
established:     00 00 00
standard:        01 01 01 01 01 01 01 01 01 01 01 01 01 01 01 01
descriptor 1:    9f 25 40 7e 60 84 1e 30 30 20 25 00 58 c2 10 00 00 19
descriptor 2:    00 00 00 0f 00 00 00 00 00 00 00 00 00 32 4b 0c 11 00
descriptor 3:    00 00 00 fe 00 53 41 4d 53 55 4e 47 0a 20 20 20 20 20
descriptor 4:    00 00 00 fe 00 31 35 36 4b 54 30 32 2d 32 30 31 0a 20
extensions:      00
checksum:        e4

EDID version: 1.3
Manufacturer: SEC Model 314b Serial Number --
Made in year 2011
Digital display
Maximum image size: 34 cm x 19 cm
Gamma: 2.20
DPMS levels: Standby Suspend Off
RGB color display
First detailed timing is preferred timing
Display x,y Chromaticity:
  Red:   0.6201, 0.3398
  Green: 0.3271, 0.5781
  Blue:  0.1542, 0.0595
  White: 0.3134, 0.3291
Established timings supported:
Standard timings supported:
Detailed mode: Clock 96.310 MHz, 344 mm x 194 mm
               1600 1648 1680 1726 hborder 0
                900  902  907  930 vborder 0
               -hsync -vsync 
               VertFreq: 59 Hz, HorFreq: 55799 Hz
Manufacturer-specified data, tag 15
ASCII string: SAMSUNG
ASCII string: 156KT02-201
Checksum: 0xe4 (valid)
EDID block does NOT conform to EDID 1.3!
	Missing name descriptor
	Missing monitor ranges
