
EDID (hex):
00ffffffffffff004ca34b3100000000
00150103802213780acc959f57539427
0f505400000001010101010101010101
010101010101382740c0608420303020
250058c2100000190000000f00000000
00000000004080091600000000fe0053
414d53554e470a2020202020000000fe
004c544e3135364b543036380a200035

Extracted contents:
header:          00 ff ff ff ff ff ff 00
serial number:   4c a3 4b 31 00 00 00 00 00 15
version:         01 03
basic params:    80 22 13 78 0a
chroma info:     cc 95 9f 57 53 94 27 0f 50 54
established:     00 00 00
standard:        01 01 01 01 01 01 01 01 01 01 01 01 01 01 01 01
descriptor 1:    38 27 40 c0 60 84 20 30 30 20 25 00 58 c2 10 00 00 19
descriptor 2:    00 00 00 0f 00 00 00 00 00 00 00 00 00 40 80 09 16 00
descriptor 3:    00 00 00 fe 00 53 41 4d 53 55 4e 47 0a 20 20 20 20 20
descriptor 4:    00 00 00 fe 00 4c 54 4e 31 35 36 4b 54 30 36 38 0a 20
extensions:      00
checksum:        35

EDID version: 1.3
Manufacturer: SEC Model 314b Serial Number --
Made in year 2011
Digital display
Maximum image size: 34 cm x 19 cm
Gamma: 2.20
RGB color display
First detailed timing is preferred timing
Display x,y Chromaticity:
  Red:   0.6240, 0.3398
  Green: 0.3271, 0.5781
  Blue:  0.1542, 0.0595
  White: 0.3134, 0.3291
Established timings supported:
Standard timings supported:
Detailed mode: Clock 100.400 MHz, 344 mm x 194 mm
               1600 1648 1680 1792 hborder 0
                900  902  907  932 vborder 0
               -hsync -vsync 
               VertFreq: 60 Hz, HorFreq: 56026 Hz
Manufacturer-specified data, tag 15
ASCII string: SAMSUNG
ASCII string: LTN156KT068
Checksum: 0x35 (valid)
EDID block does NOT conform to EDID 1.3!
	Missing name descriptor
	Missing monitor ranges
