
EDID (hex):
00ffffffffffff000e6f241400000000
0e210104a51e137803ee95a3544c9926
0f505400000001010101010101010101
010101010101ea3d80c870b02e403020
36002ebd1000001a0d2e805070b01c40
0820e8002ebd1000001a000000fe0043
534f542054390a2020202020000000fe
004d4e453030375153312d310a2000e0

edid-decode (hex):

00 ff ff ff ff ff ff 00 0e 6f 24 14 00 00 00 00
0e 21 01 04 a5 1e 13 78 03 ee 95 a3 54 4c 99 26
0f 50 54 00 00 00 01 01 01 01 01 01 01 01 01 01
01 01 01 01 01 01 ea 3d 80 c8 70 b0 2e 40 30 20
36 00 2e bd 10 00 00 1a 0d 2e 80 50 70 b0 1c 40
08 20 e8 00 2e bd 10 00 00 1a 00 00 00 fe 00 43
53 4f 54 20 54 39 0a 20 20 20 20 20 00 00 00 fe
00 4d 4e 45 30 30 37 51 53 31 2d 31 0a 20 00 e0

----------------

Block 0, Base EDID:
  EDID Structure Version & Revision: 1.4
  Vendor & Product Identification:
    Manufacturer: CSO
    Model: 5156
    Made in: week 14 of 2023
  Basic Display Parameters & Features:
    Digital display
    Bits per primary color channel: 8
    DisplayPort interface
    Maximum image size: 30 cm x 19 cm
    Gamma: 2.20
    Supported color formats: RGB 4:4:4
    First detailed timing includes the native pixel format and preferred refresh rate
    Display is continuous frequency
  Color Characteristics:
    Red  : 0.6396, 0.3300
    Green: 0.2998, 0.5996
    Blue : 0.1503, 0.0595
    White: 0.3134, 0.3291
  Established Timings I & II: none
  Standard Timings: none
  Detailed Timing Descriptors:
    DTD 1:  1920x1200   60.003331 Hz  16:10    74.764 kHz    158.500000 MHz (302 mm x 189 mm)
                 Hfront   48 Hsync  32 Hback  120 Hpol P
                 Vfront    3 Vsync   6 Vback   37 Vpol N
    DTD 2:  1920x1200   48.000814 Hz  16:10    58.945 kHz    117.890000 MHz (302 mm x 189 mm)
                 Hfront    8 Hsync  32 Hback   40 Hpol P
                 Vfront   14 Vsync   8 Vback    6 Vpol N
    Alphanumeric Data String: 'CSOT T9'
    Alphanumeric Data String: 'MNE007QS1-1'
Checksum: 0xe0
