edid-decode (hex):

00 ff ff ff ff ff ff 00 06 af ec 23 00 00 00 00
00 14 01 04 90 22 13 78 02 c8 95 9e 57 54 92 26
0f 50 54 00 00 00 01 01 01 01 01 01 01 01 01 01
01 01 01 01 01 01 26 1b 56 46 50 00 26 30 20 18
34 00 58 c1 10 00 00 1a 26 1b 56 fe 51 00 9e 30
20 18 34 00 58 c1 10 00 00 1a 00 00 00 fe 00 33
58 4a 44 47 80 42 31 35 36 58 57 32 00 00 00 00
00 00 41 22 96 01 11 00 00 01 01 0a 20 20 00 40

----------------

Block 0, Base EDID:
  EDID Structure Version & Revision: 1.4
  Vendor & Product Identification:
    Manufacturer: AUO
    Model: 9196
    Made in: 2010
  Basic Display Parameters & Features:
    Digital display
    Bits per primary color channel: 6
    Digital interface is not defined
    Maximum image size: 34 cm x 19 cm
    Gamma: 2.20
    Supported color formats: RGB 4:4:4
    First detailed timing includes the native pixel format and preferred refresh rate
  Color Characteristics:
    Red  : 0.6201, 0.3398
    Green: 0.3300, 0.5703
    Blue : 0.1503, 0.0595
    White: 0.3134, 0.3291
  Established Timings I & II: none
  Standard Timings: none
  Detailed Timing Descriptors:
    DTD 1:  1366x768    60.047554 Hz 683:384   48.398 kHz     69.500000 MHz (344 mm x 193 mm)
                 Hfront   32 Hsync  24 Hback   14 Hpol P
                 Vfront    3 Vsync   4 Vback   31 Vpol N
    DTD 2:  1366x768    40.007460 Hz 683:384   37.047 kHz     69.500000 MHz (344 mm x 193 mm)
                 Hfront   32 Hsync  24 Hback  454 Hpol P
                 Vfront    3 Vsync   4 Vback  151 Vpol N
    Alphanumeric Data String: '3XJDG'
    Manufacturer-Specified Display Descriptor (0x00): 00 00 00 00 41 22 96 01 11 00 00 01 01 0a 20 20 '....A"........  '
Checksum: 0x40

----------------

Warnings:

Block 0, Base EDID:
  Missing Display Product Name.

Failures:

Block 0, Base EDID:
  Alphanumeric Data String: Non-printable character.

EDID conformity: FAIL
