edid-decode (hex):

00 ff ff ff ff ff ff 00 06 af 3d 1e 00 00 00 00
00 1a 01 04 95 1f 11 78 02 67 75 93 57 58 8e 29
21 50 54 00 00 00 01 01 01 01 01 01 01 01 01 01
01 01 01 01 01 01 14 37 80 bc 70 38 22 40 30 64
31 00 35 ad 10 00 00 18 7c 24 80 ae 70 38 22 40
30 64 31 00 35 ad 10 00 00 18 00 00 00 00 00 00
00 00 00 00 00 00 00 00 00 00 00 00 00 00 00 02
00 10 48 ff 0f 3c 6e 11 10 1d 6e 20 20 20 00 c9

----------------

Block 0, Base EDID:
  EDID Structure Version & Revision: 1.4
  Vendor & Product Identification:
    Manufacturer: AUO
    Model: 7741
    Made in: 2016
  Basic Display Parameters & Features:
    Digital display
    Bits per primary color channel: 6
    DisplayPort interface
    Maximum image size: 31 cm x 17 cm
    Gamma: 2.20
    Supported color formats: RGB 4:4:4
    First detailed timing includes the native pixel format and preferred refresh rate
  Color Characteristics:
    Red  : 0.5751, 0.3417
    Green: 0.3447, 0.5576
    Blue : 0.1611, 0.1318
    White: 0.3134, 0.3291
  Established Timings I & II: none
  Standard Timings: none
  Detailed Timing Descriptors:
    DTD 1:  1920x1080   60.043 Hz  16:9    66.888 kHz 141.000 MHz (309 mm x 173 mm)
                 Hfront   48 Hsync 100 Hback  40 Hpol N
                 Vfront    3 Vsync   1 Vback  30 Vpol N
    DTD 2:  1920x1080   40.039 Hz  16:9    44.604 kHz  93.400 MHz (309 mm x 173 mm)
                 Hfront   48 Hsync 100 Hback  26 Hpol N
                 Vfront    3 Vsync   1 Vback  30 Vpol N
    Empty Descriptor
    Manufacturer-Specified Display Descriptor (0x02): 00 02 00 10 48 ff 0f 3c 6e 11 10 1d 6e 20 20 20 '....H..<n...n   '
Checksum: 0xc9
