
EDID (hex):
00ffffffffffff0006af3d1e00000000
001a0104951f11780267759357588e29
21505400000001010101010101010101
010101010101143780bc703822403064
310035ad100000187c2480ae70382240
3064310035ad10000018000000000000
00000000000000000000000000000002
001048ff0f3c6e11101d6e20202000c9

Extracted contents:
header:          00 ff ff ff ff ff ff 00
serial number:   06 af 3d 1e 00 00 00 00 00 1a
version:         01 04
basic params:    95 1f 11 78 02
chroma info:     67 75 93 57 58 8e 29 21 50 54
established:     00 00 00
standard:        01 01 01 01 01 01 01 01 01 01 01 01 01 01 01 01
descriptor 1:    14 37 80 bc 70 38 22 40 30 64 31 00 35 ad 10 00 00 18
descriptor 2:    7c 24 80 ae 70 38 22 40 30 64 31 00 35 ad 10 00 00 18
descriptor 3:    00 00 00 00 00 00 00 00 00 00 00 00 00 00 00 00 00 00
descriptor 4:    00 00 00 02 00 10 48 ff 0f 3c 6e 11 10 1d 6e 20 20 20
extensions:      00
checksum:        c9

EDID version: 1.4
Manufacturer: AUO Model 1e3d Serial Number --
Made in year 2016
Digital display
6 bits per primary color channel
DisplayPort interface
Maximum image size: 31 cm x 17 cm
Gamma: 2.20
Supported color formats: RGB 4:4:4
First detailed timing includes the native pixel format and preferred refresh rate
Display x,y Chromaticity:
  Red:   0.5751, 0.3417
  Green: 0.3447, 0.5576
  Blue:  0.1611, 0.1318
  White: 0.3134, 0.3291
Established timings supported:
Standard timings supported:
Detailed mode: Clock 141.000 MHz, 309 mm x 173 mm
               1920 1968 2068 2108 hborder 0
               1080 1083 1084 1114 vborder 0
               -hsync -vsync 
               VertFreq: 60 Hz, HorFreq: 66888 Hz
Detailed mode: Clock 93.400 MHz, 309 mm x 173 mm
               1920 1968 2068 2094 hborder 0
               1080 1083 1084 1114 vborder 0
               -hsync -vsync 
               VertFreq: 40 Hz, HorFreq: 44603 Hz
Manufacturer-specified data, tag 0
Manufacturer-specified data, tag 2
Checksum: 0xc9 (valid)
EDID block does NOT conform to EDID 1.4!
	Missing name descriptor
	Missing monitor ranges
