edid-decode (hex):

00 ff ff ff ff ff ff 00 06 af 3d 1e 00 00 00 00
00 1a 01 04 95 1f 11 78 02 67 75 93 57 58 8e 29
21 50 54 00 00 00 01 01 01 01 01 01 01 01 01 01
01 01 01 01 01 01 b0 36 80 ae 70 38 22 40 30 64
31 00 35 ad 10 00 00 1a c0 2b 80 ae 70 38 22 40
30 64 31 00 35 ad 10 00 00 1a 00 00 00 fe 00 52
37 38 4d 34 80 42 31 34 30 48 54 4e 00 00 00 00
00 00 81 02 a8 00 11 00 00 0b 01 0a 20 20 00 f8

00 ff ff ff ff ff ff 00 06 af 3d 1e 00 00 00 00
00 1a 01 04 95 1f 11 78 02 67 75 93 57 58 8e 29
21 50 54 00 00 00 01 01 01 01 01 01 01 01 01 01
01 01 01 01 01 01 b0 36 80 ae 70 38 22 40 30 64
31 00 35 ad 10 00 00 1a c0 2b 80 ae 70 38 22 40
30 64 31 00 35 ad 10 00 00 1a 00 00 00 fe 00 52
37 38 4d 34 80 42 31 34 30 48 54 4e 00 00 00 00
00 00 81 02 a8 00 11 00 00 0b 01 0a 20 20 00 f8

----------------

Block 0, Base EDID:
  EDID Structure Version & Revision: 1.4
  Vendor & Product Identification:
    Manufacturer: AUO
    Model: 7741
    Made in: 2016
  Basic Display Parameters & Features:
    Digital display
    Bits per primary color channel: 6
    DisplayPort interface
    Maximum image size: 31 cm x 17 cm
    Gamma: 2.20
    Supported color formats: RGB 4:4:4
    First detailed timing includes the native pixel format and preferred refresh rate
  Color Characteristics:
    Red  : 0.5751, 0.3417
    Green: 0.3447, 0.5576
    Blue : 0.1611, 0.1318
    White: 0.3134, 0.3291
  Established Timings I & II: none
  Standard Timings: none
  Detailed Timing Descriptors:
    DTD 1:  1920x1080   60.015878 Hz  16:9     66.858 kHz    140.000000 MHz (309 mm x 173 mm)
                 Hfront   48 Hsync 100 Hback   26 Hpol P
                 Vfront    3 Vsync   1 Vback   30 Vpol N
    DTD 2:  1920x1080   48.012703 Hz  16:9     53.486 kHz    112.000000 MHz (309 mm x 173 mm)
                 Hfront   48 Hsync 100 Hback   26 Hpol P
                 Vfront    3 Vsync   1 Vback   30 Vpol N
    Alphanumeric Data String: 'R78M4'
    Manufacturer-Specified Display Descriptor (0x00): 00 00 00 00 81 02 a8 00 11 00 00 0b 01 0a 20 20 '..............  '
Checksum: 0xf8

----------------

Block 1, Unknown EDID Extension Block 0x00:
  00 ff ff ff ff ff ff 00 06 af 3d 1e 00 00 00 00 '..........=.....'
  00 1a 01 04 95 1f 11 78 02 67 75 93 57 58 8e 29 '.......x.gu.WX.)'
  21 50 54 00 00 00 01 01 01 01 01 01 01 01 01 01 '!PT.............'
  01 01 01 01 01 01 b0 36 80 ae 70 38 22 40 30 64 '.......6..p8"@0d'
  31 00 35 ad 10 00 00 1a c0 2b 80 ae 70 38 22 40 '1.5......+..p8"@'
  30 64 31 00 35 ad 10 00 00 1a 00 00 00 fe 00 52 '0d1.5..........R'
  37 38 4d 34 80 42 31 34 30 48 54 4e 00 00 00 00 '78M4.B140HTN....'
  00 00 81 02 a8 00 11 00 00 0b 01 0a 20 20 00 f8 '............  ..'
Checksum: 0xf8

----------------

Warnings:

Block 0, Base EDID:
  Missing Display Product Name.

Failures:

Block 0, Base EDID:
  Alphanumeric Data String: Non-printable character.
Block 1, Base EDID:
  Unknown Extension Block.
EDID:
  Base EDID: EDID specified 0 extension block(s), but found 1 extension block(s).

EDID conformity: FAIL
