edid-decode (hex):

00 ff ff ff ff ff ff 00 0d af 07 10 00 00 00 00
03 13 01 03 80 16 0c 78 0a cf 45 90 59 57 95 29
1f 50 54 00 00 00 01 01 01 01 01 01 01 01 01 01
01 01 01 01 01 01 f8 17 00 f4 41 58 47 20 88 5b
9b 00 de 7d 00 00 00 18 00 00 00 fe 00 4e 31 30
31 4c 36 2d 4c 30 31 0a 20 20 00 00 00 fe 00 43
4d 4f 0a 20 20 20 20 20 20 20 20 20 00 00 00 fe
00 4e 31 30 31 4c 36 2d 4c 30 31 0a 20 20 00 0d

----------------

Block 0, Base EDID:
  EDID Structure Version & Revision: 1.3
  Vendor & Product Identification:
    Manufacturer: CMO
    Model: 4103
    Made in: week 3 of 2009
  Basic Display Parameters & Features:
    Digital display
    Maximum image size: 22 cm x 12 cm
    Gamma: 2.20
    RGB color display
    First detailed timing is the preferred timing
  Color Characteristics:
    Red  : 0.5654, 0.3476
    Green: 0.3427, 0.5849
    Blue : 0.1611, 0.1210
    White: 0.3134, 0.3291
  Established Timings I & II: none
  Standard Timings: none
  Detailed Timing Descriptors:
    DTD 1:  1024x600    60.004 Hz 128:75   40.262 kHz  61.360 MHz (222 mm x 125 mm)
                 Hfront  136 Hsync  91 Hback 273 Hpol N
                 Vfront    9 Vsync  11 Vback  51 Vpol N
    Alphanumeric Data String: 'N101L6-L01'
    Alphanumeric Data String: 'CMO'
    Alphanumeric Data String: 'N101L6-L01'
Checksum: 0x0d

----------------

Failures:

Block 0, Base EDID:
  Missing Display Product Name.
  Missing Display Range Limits Descriptor.

EDID conformity: FAIL
