
EDID (hex):
00ffffffffffff000e8f7b3700000000
011e0104a51f117803ee95a3544c9926
0f505400000001010101010101010101
0101010101019a3680a0703828403020
350035ad1000001aae2b80a070382840
3020350035ad1000001a000000fe0043
544f20574a0a202020202020000000fe
004c454231343230334e2d574a0a0070

Extracted contents:
header:          00 ff ff ff ff ff ff 00
serial number:   0e 8f 7b 37 00 00 00 00 01 1e
version:         01 04
basic params:    a5 1f 11 78 03
chroma info:     ee 95 a3 54 4c 99 26 0f 50 54
established:     00 00 00
standard:        01 01 01 01 01 01 01 01 01 01 01 01 01 01 01 01
descriptor 1:    9a 36 80 a0 70 38 28 40 30 20 35 00 35 ad 10 00 00 1a
descriptor 2:    ae 2b 80 a0 70 38 28 40 30 20 35 00 35 ad 10 00 00 1a
descriptor 3:    00 00 00 fe 00 43 54 4f 20 57 4a 0a 20 20 20 20 20 20
descriptor 4:    00 00 00 fe 00 4c 45 42 31 34 32 30 33 4e 2d 57 4a 0a
extensions:      00
checksum:        70

EDID version: 1.4
Manufacturer: CTO Model 377b Serial Number --
Made in week 1 of 2020
Digital display
8 bits per primary color channel
DisplayPort interface
Maximum image size: 31 cm x 17 cm
Gamma: 2.20
Supported color formats: RGB 4:4:4
First detailed timing includes the native pixel format and preferred refresh rate
Display is continuous frequency
Display x,y Chromaticity:
  Red:   0.6396, 0.3300
  Green: 0.2998, 0.5996
  Blue:  0.1503, 0.0595
  White: 0.3134, 0.3291
Established timings supported:
Standard timings supported:
Detailed mode: Clock 139.780 MHz, 309 mm x 173 mm
               1920 1968 2000 2080 hborder 0
               1080 1083 1088 1120 vborder 0
               +hsync -vsync 
               VertFreq: 60 Hz, HorFreq: 67201 Hz
Detailed mode: Clock 111.820 MHz, 309 mm x 173 mm
               1920 1968 2000 2080 hborder 0
               1080 1083 1088 1120 vborder 0
               +hsync -vsync 
               VertFreq: 47 Hz, HorFreq: 53759 Hz
ASCII string: CTO WJ
ASCII string: LEB14203N-WJ
Checksum: 0x70 (valid)
EDID block does NOT conform to EDID 1.4!
	Missing name descriptor
	Missing monitor ranges
