
EDID (hex):
00ffffffffffff00167480b7bf000000
2c14010380663978ea41c79c574c9126
234f54bfef0031404540614081c08180
a94001010101273680a070381f405020
8504fc3d3200001a8a2156b051001b30
48bc1300ba882100001c000000fd0037
4c1e5011000a000000000000000000fc
0045535445434f4d0a202020202000e5

Extracted contents:
header:          00 ff ff ff ff ff ff 00
serial number:   16 74 80 b7 bf 00 00 00 2c 14
version:         01 03
basic params:    80 66 39 78 ea
chroma info:     41 c7 9c 57 4c 91 26 23 4f 54
established:     bf ef 00
standard:        31 40 45 40 61 40 81 c0 81 80 a9 40 01 01 01 01
descriptor 1:    27 36 80 a0 70 38 1f 40 50 20 85 04 fc 3d 32 00 00 1a
descriptor 2:    8a 21 56 b0 51 00 1b 30 48 bc 13 00 ba 88 21 00 00 1c
descriptor 3:    00 00 00 fd 00 37 4c 1e 50 11 00 0a 00 00 00 00 00 00
descriptor 4:    00 00 00 fc 00 45 53 54 45 43 4f 4d 0a 20 20 20 20 20
extensions:      00
checksum:        e5

EDID version: 1.3
Manufacturer: EST Model b780 Serial Number --
Made in week 44 of 2010
Digital display
Maximum image size: 102 cm x 57 cm
Gamma: 2.20
DPMS levels: Standby Suspend Off
RGB color display
First detailed timing is preferred timing
Display x,y Chromaticity:
  Red:   0.6103, 0.3398
  Green: 0.2968, 0.5673
  Blue:  0.1513, 0.1367
  White: 0.3095, 0.3310
Established timings supported:
  720x400@70Hz 9:5 HorFreq: 31469 Hz Clock: 28.320 MHz
  640x480@60Hz 4:3 HorFreq: 31469 Hz Clock: 25.175 MHz
  640x480@67Hz 4:3 HorFreq: 35000 Hz Clock: 30.240 MHz
  640x480@72Hz 4:3 HorFreq: 37900 Hz Clock: 31.500 MHz
  640x480@75Hz 4:3 HorFreq: 37500 Hz Clock: 31.500 MHz
  800x600@56Hz 4:3 HorFreq: 35200 Hz Clock: 36.000 MHz
  800x600@60Hz 4:3 HorFreq: 37900 Hz Clock: 40.000 MHz
  800x600@72Hz 4:3 HorFreq: 48100 Hz Clock: 50.000 MHz
  800x600@75Hz 4:3 HorFreq: 46900 Hz Clock: 49.500 MHz
  832x624@75Hz 4:3 HorFreq: 49726 Hz Clock: 57.284 MHz
  1024x768@60Hz 4:3 HorFreq: 48400 Hz Clock: 65.000 MHz
  1024x768@70Hz 4:3 HorFreq: 56500 Hz Clock: 75.000 MHz
  1024x768@75Hz 4:3 HorFreq: 60000 Hz Clock: 78.750 MHz
  1280x1024@75Hz 5:4 HorFreq: 80000 Hz Clock: 135.000 MHz
Standard timings supported:
  640x480@60Hz 4:3 HorFreq: 31469 Hz Clock: 25.175 MHz
  800x600@60Hz 4:3 HorFreq: 37900 Hz Clock: 40.000 MHz
  1024x768@60Hz 4:3 HorFreq: 48400 Hz Clock: 65.000 MHz
  1280x720@60Hz 16:9
  1280x1024@60Hz 5:4 HorFreq: 64000 Hz Clock: 108.000 MHz
  1600x1200@60Hz 4:3 HorFreq: 75000 Hz Clock: 162.000 MHz
Detailed mode: Clock 138.630 MHz, 1020 mm x 573 mm
               1920 2000 2032 2080 hborder 0
               1080 1104 1109 1111 vborder 0
               +hsync -vsync 
               VertFreq: 59 Hz, HorFreq: 66649 Hz
Detailed mode: Clock 85.860 MHz, 698 mm x 392 mm
               1366 1438 1626 1798 hborder 0
                768  769  772  795 vborder 0
               -hsync +vsync 
               VertFreq: 60 Hz, HorFreq: 47753 Hz
Monitor ranges (GTF): 55-76Hz V, 30-80kHz H, max dotclock 170MHz
Monitor name: ESTECOM
Checksum: 0xe5 (valid)
