
EDID (hex):
00ffffffffffff0030e49f0400000000
00180104951c107802e1d59859579327
1f505400000001010101010101010101
0101010101012e3680a070381f403020
3500149c1000001a5c2b80a070381f40
30203500149c1000001a000000fe0033
39444357803132355746310a00000000
00004121a4010000000a010a202000e1

Extracted contents:
header:          00 ff ff ff ff ff ff 00
serial number:   30 e4 9f 04 00 00 00 00 00 18
version:         01 04
basic params:    95 1c 10 78 02
chroma info:     e1 d5 98 59 57 93 27 1f 50 54
established:     00 00 00
standard:        01 01 01 01 01 01 01 01 01 01 01 01 01 01 01 01
descriptor 1:    2e 36 80 a0 70 38 1f 40 30 20 35 00 14 9c 10 00 00 1a
descriptor 2:    5c 2b 80 a0 70 38 1f 40 30 20 35 00 14 9c 10 00 00 1a
descriptor 3:    00 00 00 fe 00 33 39 44 43 57 80 31 32 35 57 46 31 0a
descriptor 4:    00 00 00 00 00 00 41 21 a4 01 00 00 00 0a 01 0a 20 20
extensions:      00
checksum:        e1

EDID version: 1.4
Manufacturer: LGD Model 49f Serial Number --
Made in year 2014
Digital display
6 bits per primary color channel
DisplayPort interface
Maximum image size: 28 cm x 16 cm
Gamma: 2.20
Supported color formats: RGB 4:4:4
First detailed timing includes the native pixel format and preferred refresh rate
Display x,y Chromaticity:
  Red:   0.5966, 0.3496
  Green: 0.3398, 0.5751
  Blue:  0.1552, 0.1220
  White: 0.3134, 0.3291
Established timings supported:
Standard timings supported:
Detailed mode: Clock 138.700 MHz, 276 mm x 156 mm
               1920 1968 2000 2080 hborder 0
               1080 1083 1088 1111 vborder 0
               +hsync -vsync 
               VertFreq: 60 Hz, HorFreq: 66682 Hz
Detailed mode: Clock 111.000 MHz, 276 mm x 156 mm
               1920 1968 2000 2080 hborder 0
               1080 1083 1088 1111 vborder 0
               +hsync -vsync 
               VertFreq: 48 Hz, HorFreq: 53365 Hz
ASCII string: 39DCW
Manufacturer-specified data, tag 0
Checksum: 0xe1 (valid)
EDID block does NOT conform to EDID 1.4!
	Missing name descriptor
	Missing monitor ranges
	Detailed block string not properly terminated
