edid-decode (hex):

00 ff ff ff ff ff ff 00 06 af ed 21 00 00 00 00
04 15 01 04 90 22 13 78 02 e2 b5 9e 59 52 99 26
1e 50 54 00 00 00 01 01 01 01 01 01 01 01 01 01
01 01 01 01 01 01 b0 36 80 a2 70 38 28 40 30 64
aa 00 58 c2 10 00 00 1a b0 36 80 58 72 38 34 41
30 64 aa 00 58 c2 10 00 00 1a 00 00 00 fe 00 46
32 4a 35 58 80 42 31 35 36 48 57 32 00 00 00 00
00 00 41 21 9e 00 00 00 00 02 01 0a 20 20 00 b3

----------------

Block 0, Base EDID:
  EDID Structure Version & Revision: 1.4
  Vendor & Product Identification:
    Manufacturer: AUO
    Model: 8685
    Made in: week 4 of 2011
  Basic Display Parameters & Features:
    Digital display
    Bits per primary color channel: 6
    Digital interface is not defined
    Maximum image size: 34 cm x 19 cm
    Gamma: 2.20
    Supported color formats: RGB 4:4:4
    First detailed timing includes the native pixel format and preferred refresh rate
  Color Characteristics:
    Red  : 0.6201, 0.3496
    Green: 0.3203, 0.5996
    Blue : 0.1503, 0.1201
    White: 0.3134, 0.3291
  Established Timings I & II: none
  Standard Timings: none
  Detailed Timing Descriptors:
    DTD 1:  1920x1080   60.038425 Hz  16:9     67.243 kHz    140.000000 MHz (344 mm x 194 mm)
                 Hfront   48 Hsync 100 Hback   14 Hpol P
                 Vfront   10 Vsync  10 Vback   20 Vpol N
    DTD 2:  1920x1080   40.025616 Hz  16:9     55.556 kHz    140.000000 MHz (344 mm x 194 mm)
                 Hfront   48 Hsync 100 Hback  452 Hpol P
                 Vfront   10 Vsync  10 Vback  288 Vpol N
    Alphanumeric Data String: 'F2J5X'
    Manufacturer-Specified Display Descriptor (0x00): 00 00 00 00 41 21 9e 00 00 00 00 02 01 0a 20 20 '....A!........  '
Checksum: 0xb3

----------------

Warnings:

Block 0, Base EDID:
  Missing Display Product Name.

Failures:

Block 0, Base EDID:
  Alphanumeric Data String: Non-printable character.

EDID conformity: FAIL
