edid-decode (hex):

00 ff ff ff ff ff ff 00 30 e4 00 f2 00 00 00 00
00 12 01 03 80 21 15 78 ea be 85 98 59 52 8c 28
26 50 54 00 00 00 01 01 01 01 01 01 01 01 01 01
01 01 01 01 01 01 90 40 80 b4 70 b0 70 40 1e 1e
36 00 4b cf 10 00 00 19 00 00 00 00 00 00 00 00
00 00 00 00 00 00 00 00 00 00 00 00 00 fe 00 4c
47 20 44 69 73 70 6c 61 79 0a 20 20 00 00 00 fe
00 4c 50 31 35 34 57 55 31 2d 54 4c 43 32 00 11

----------------

Block 0, Base EDID:
  EDID Structure Version & Revision: 1.3
  Vendor & Product Identification:
    Manufacturer: LGD
    Model: 61952
    Made in: 2008
  Basic Display Parameters & Features:
    Digital display
    Maximum image size: 33 cm x 21 cm
    Gamma: 2.20
    DPMS levels: Standby Suspend Off
    RGB color display
    First detailed timing is preferred timing
  Color Characteristics:
    Red  : 0.5957, 0.3505
    Green: 0.3232, 0.5488
    Blue : 0.1582, 0.1484
    White: 0.3134, 0.3291
  Established Timings I & II: none
  Standard Timings: none
  Detailed Timing Descriptors:
    DTD 1:  1920x1200   59.988 Hz   8:5    78.705 kHz 165.280 MHz (331 mm x 207 mm)
                 Hfront   30 Hsync  30 Hback 120 Hpol N
                 Vfront    3 Vsync   6 Vback 103 Vpol N
    Empty Descriptor
    Alphanumeric Data String: 'LG Display'
    Alphanumeric Data String: 'LP154WU1-TLC2'
Checksum: 0x11

----------------

Failures:

Block 0, Base EDID:
  Empty Descriptor: Use Dummy Descriptor instead of all zeroes.
  Missing Display Product Name.
  Missing Display Range Limits Descriptor.

EDID conformity: FAIL
