
EDID (hex):
00ffffffffffff0010ac1ad04c4e3430
16120104802b1b78efbd23a753469e25
14505ba54b00714f8180010101010101
01010101010121399030621a274068b0
3600ae0e1100001c000000ff00503434
344438355130344e4c0a000000fd0038
4b1e530f04113cd2f858f000000000fc
0044454c4c20535032303039570a0011

Extracted contents:
header:          00 ff ff ff ff ff ff 00
serial number:   10 ac 1a d0 4c 4e 34 30 16 12
version:         01 04
basic params:    80 2b 1b 78 ef
chroma info:     bd 23 a7 53 46 9e 25 14 50 5b
established:     a5 4b 00
standard:        71 4f 81 80 01 01 01 01 01 01 01 01 01 01 01 01
descriptor 1:    21 39 90 30 62 1a 27 40 68 b0 36 00 ae 0e 11 00 00 1c
descriptor 2:    00 00 00 ff 00 50 34 34 34 44 38 35 51 30 34 4e 4c 0a
descriptor 3:    00 00 00 fd 00 38 4b 1e 53 0f 04 11 3c d2 f8 58 f0 00
descriptor 4:    00 00 00 fc 00 44 45 4c 4c 20 53 50 32 30 30 39 57 0a
extensions:      00
checksum:        11

EDID version: 1.4
Manufacturer: DEL Model d01a Serial Number --
Made in week 22 of 2008
Digital display
Color depth is undefined
Digital interface is not defined
Maximum image size: 43 cm x 27 cm
Gamma: 2.20
DPMS levels: Standby Suspend Off
Supported color formats: RGB 4:4:4, YCrCb 4:4:4
Default (sRGB) color space is primary color space
First detailed timing includes the native pixel format and preferred refresh rate
Display is continuous frequency
Display x,y Chromaticity:
  Red:   0.6542, 0.3271
  Green: 0.2763, 0.6181
  Blue:  0.1445, 0.0800
  White: 0.3125, 0.3583
Established timings supported:
  720x400@70Hz 9:5 HorFreq: 31469 Hz Clock: 28.320 MHz
  640x480@60Hz 4:3 HorFreq: 31469 Hz Clock: 25.175 MHz
  640x480@75Hz 4:3 HorFreq: 37500 Hz Clock: 31.500 MHz
  800x600@60Hz 4:3 HorFreq: 37900 Hz Clock: 40.000 MHz
  800x600@75Hz 4:3 HorFreq: 46900 Hz Clock: 49.500 MHz
  1024x768@60Hz 4:3 HorFreq: 48400 Hz Clock: 65.000 MHz
  1024x768@75Hz 4:3 HorFreq: 60000 Hz Clock: 78.750 MHz
  1280x1024@75Hz 5:4 HorFreq: 80000 Hz Clock: 135.000 MHz
Standard timings supported:
  1152x864@75Hz 4:3 HorFreq: 67500 Hz Clock: 108.000 MHz
  1280x1024@60Hz 5:4 HorFreq: 64000 Hz Clock: 108.000 MHz
Detailed mode: Clock 146.250 MHz, 430 mm x 270 mm
               1680 1784 1960 2240 hborder 0
               1050 1053 1059 1089 vborder 0
               -hsync +vsync 
               VertFreq: 59 Hz, HorFreq: 65290 Hz
Serial number: --
Monitor ranges (CVT): 56-75Hz V, 30-83kHz H, max dotclock 150MHz
CVT version 1.1
Real max dotclock: 146.25MHz
Max active pixels per line: 1680
Supported aspect ratios: 4:3 16:9 16:10 5:4 15:9
Preferred aspect ratio: 16:10
Supports CVT standard blanking
Supports CVT reduced blanking
Supported display scaling:
    Horizontal shrink
    Horizontal stretch
    Vertical shrink
    Vertical stretch
Monitor name: DELL SP2009W
Checksum: 0x11 (valid)
EDID block does NOT conform to EDID 1.4!
	sRGB is signaled, but the chromaticities do not match
Warning: CVT block does not set preferred refresh rate
