
EDID (hex):
00ffffffffffff0006afec2500000000
001301049522137802c8959e57549226
0f505400000001010101010101010101
010101010101f41a563c500026302018
340058c11000001af811563c50002630
2018340058c11000001a000000fe0054
35434452804231353658573200000000
00004121190000000009010a20200070

Extracted contents:
header:          00 ff ff ff ff ff ff 00
serial number:   06 af ec 25 00 00 00 00 00 13
version:         01 04
basic params:    95 22 13 78 02
chroma info:     c8 95 9e 57 54 92 26 0f 50 54
established:     00 00 00
standard:        01 01 01 01 01 01 01 01 01 01 01 01 01 01 01 01
descriptor 1:    f4 1a 56 3c 50 00 26 30 20 18 34 00 58 c1 10 00 00 1a
descriptor 2:    f8 11 56 3c 50 00 26 30 20 18 34 00 58 c1 10 00 00 1a
descriptor 3:    00 00 00 fe 00 54 35 43 44 52 80 42 31 35 36 58 57 32
descriptor 4:    00 00 00 00 00 00 41 21 19 00 00 00 00 09 01 0a 20 20
extensions:      00
checksum:        70

EDID version: 1.4
Manufacturer: AUO Model 25ec Serial Number --
Made in year 2009
Digital display
6 bits per primary color channel
DisplayPort interface
Maximum image size: 34 cm x 19 cm
Gamma: 2.20
Supported color formats: RGB 4:4:4
First detailed timing includes the native pixel format and preferred refresh rate
Display x,y Chromaticity:
  Red:   0.6201, 0.3398
  Green: 0.3300, 0.5703
  Blue:  0.1503, 0.0595
  White: 0.3134, 0.3291
Established timings supported:
Standard timings supported:
Detailed mode: Clock 69.000 MHz, 344 mm x 193 mm
               1366 1398 1422 1426 hborder 0
                768  771  775  806 vborder 0
               +hsync -vsync 
               VertFreq: 60 Hz, HorFreq: 48387 Hz
Detailed mode: Clock 46.000 MHz, 344 mm x 193 mm
               1366 1398 1422 1426 hborder 0
                768  771  775  806 vborder 0
               +hsync -vsync 
               VertFreq: 40 Hz, HorFreq: 32258 Hz
ASCII string: T5CDR
Manufacturer-specified data, tag 0
Checksum: 0x70 (valid)
EDID block does NOT conform to EDID 1.4!
	Missing name descriptor
	Missing monitor ranges
	Detailed block string not properly terminated


