
EDID (hex):
00ffffffffffff004c2d5e0200000000
291001038010098c0ae2bda15b4a9824
15474a20000001010101010101010101
010101010101011d007251d01e206e28
5500a05a0000001e011d00bc52d01e20
b8285540a05a0000001e000000fd0032
3d0f2e08000a202020202020000000fc
0053414d53554e470a20202020200151
02031971468413051403122309070783
01000065030c001000011d8018711c16
20582c2500a05a0000009e011d80d072
1c1620102c2580a05a0000009e8c0ad0
8a20e02d10103e9600a05a000000188c
0ad090204031200c405500a05a000000
18000000000000000000000000000000
00000000000000000000000000000042

Extracted contents:
header:          00 ff ff ff ff ff ff 00
serial number:   4c 2d 5e 02 00 00 00 00 29 10
version:         01 03
basic params:    80 10 09 8c 0a
chroma info:     e2 bd a1 5b 4a 98 24 15 47 4a
established:     20 00 00
standard:        01 01 01 01 01 01 01 01 01 01 01 01 01 01 01 01
descriptor 1:    01 1d 00 72 51 d0 1e 20 6e 28 55 00 a0 5a 00 00 00 1e
descriptor 2:    01 1d 00 bc 52 d0 1e 20 b8 28 55 40 a0 5a 00 00 00 1e
descriptor 3:    00 00 00 fd 00 32 3d 0f 2e 08 00 0a 20 20 20 20 20 20
descriptor 4:    00 00 00 fc 00 53 41 4d 53 55 4e 47 0a 20 20 20 20 20
extensions:      01
checksum:        51

EDID version: 1.3
Manufacturer: SAM Model 25e Serial Number --
Made in week 41 of 2006
Digital display
Maximum image size: 16 cm x 9 cm
Gamma: 2.40
RGB color display
First detailed timing is preferred timing
Display x,y Chromaticity:
  Red:   0.6318, 0.3574
  Green: 0.2890, 0.5957
  Blue:  0.1425, 0.0849
  White: 0.2802, 0.2900
Established timings supported:
  640x480@60Hz 4:3 HorFreq: 31469 Hz Clock: 25.175 MHz
Standard timings supported:
Detailed mode: Clock 74.250 MHz, 160 mm x 90 mm
               1280 1390 1430 1650 hborder 0
                720  725  730  750 vborder 0
               +hsync +vsync 
               VertFreq: 60 Hz, HorFreq: 45000 Hz
Detailed mode: Clock 74.250 MHz, 160 mm x 90 mm
               1280 1720 1760 1980 hborder 0
                720  725  730  750 vborder 0
               +hsync +vsync 
               VertFreq: 50 Hz, HorFreq: 37500 Hz
Monitor ranges (GTF): 50-61Hz V, 15-46kHz H, max dotclock 80MHz
Monitor name: SAMSUNG
Has 1 extension blocks
Checksum: 0x51 (valid)

CTA extension block
Extension version: 3
21 bytes of CTA data
  Video data block
    VIC   4 1280x720@60Hz 16:9 (native) HorFreq: 45000 Hz Clock: 74.250 MHz
    VIC  19 1280x720@50Hz 16:9  HorFreq: 37500 Hz Clock: 74.250 MHz
    VIC   5 1920x1080i@60Hz 16:9  HorFreq: 33750 Hz Clock: 74.250 MHz
    VIC  20 1920x1080i@50Hz 16:9  HorFreq: 28125 Hz Clock: 74.250 MHz
    VIC   3 720x480@60Hz 16:9  HorFreq: 31469 Hz Clock: 27.000 MHz
    VIC  18 720x576@50Hz 16:9  HorFreq: 31250 Hz Clock: 27.000 MHz
  Audio data block
    Linear PCM, max channels 2
      Supported sample rates (kHz): 48 44.1 32
      Supported sample sizes (bits): 24 20 16
  Speaker allocation data block
    Speaker map:
      FL/FR - Front Left/Right
  Vendor-specific data block, OUI 000c03 (HDMI)
    Source physical address 1.0.0.0
Basic audio support
Supports YCbCr 4:4:4
Supports YCbCr 4:2:2
1 native detailed modes
Detailed mode: Clock 74.250 MHz, 160 mm x 90 mm
               1920 2008 2052 2200 hborder 0
                540  542  547  562 vborder 0
               +hsync +vsync interlaced 
               VertFreq: 60 Hz, HorFreq: 33750 Hz
Detailed mode: Clock 74.250 MHz, 160 mm x 90 mm
               1920 2448 2492 2640 hborder 0
                540  542  547  562 vborder 0
               +hsync +vsync interlaced 
               VertFreq: 50 Hz, HorFreq: 28125 Hz
Detailed mode: Clock 27.000 MHz, 160 mm x 90 mm
                720  736  798  858 hborder 0
                480  489  495  525 vborder 0
               -hsync -vsync 
               VertFreq: 59 Hz, HorFreq: 31468 Hz
Detailed mode: Clock 27.000 MHz, 160 mm x 90 mm
                720  732  796  864 hborder 0
                576  581  586  625 vborder 0
               -hsync -vsync 
               VertFreq: 50 Hz, HorFreq: 31250 Hz
Checksum: 0x42 (valid)
