edid-decode (hex):

00 ff ff ff ff ff ff 00 4c a3 58 4a 00 00 00 00
00 0d 01 03 80 19 12 78 0a 87 f5 94 57 4f 8c 27
27 50 54 00 08 00 01 01 01 01 01 01 01 01 01 01
01 01 01 01 01 01 64 19 00 40 41 00 26 30 18 88
36 00 f6 b8 00 00 00 19 00 00 00 0f 00 00 00 00
00 00 00 00 00 18 ee 02 74 00 00 00 00 fe 00 37
54 38 31 36 05 31 32 31 58 4a 0a 20 00 00 00 fe
00 c9 bc a5 9a 82 60 40 00 01 00 0a 20 20 00 b3

----------------

Block 0, Base EDID:
  EDID Structure Version & Revision: 1.3
  Vendor & Product Identification:
    Manufacturer: SEC
    Model: 19032
    Made in: 2003
  Basic Display Parameters & Features:
    Digital display
    Maximum image size: 25 cm x 18 cm
    Gamma: 2.20
    RGB color display
    First detailed timing is preferred timing
  Color Characteristics:
    Red  : 0.5800, 0.3398
    Green: 0.3095, 0.5498
    Blue : 0.1552, 0.1552
    White: 0.3134, 0.3291
  Established Timings I & II:
    DMT 0x10:  1024x768    60.004 Hz   4:3    48.363 kHz  65.000 MHz
  Standard Timings: none
  Detailed Timing Descriptors:
    DTD 1:  1024x768    60.004 Hz   4:3    48.363 kHz  65.000 MHz (246 mm x 184 mm)
                 Hfront   24 Hsync 136 Hback 160 Hpol N
                 Vfront    3 Vsync   6 Vback  29 Vpol N
    Manufacturer-Specified Display Descriptor (0x0f): 00 0f 00 00 00 00 00 00 00 00 00 18 ee 02 74 00 '..............t.'
    Alphanumeric Data String: '7T816'
    Alphanumeric Data String: ''
Checksum: 0xb3
