
EDID (hex):
00ffffffffffff0009e5290a00000000
0e1f0104a524147803ee95a3544c9926
0f505400000001010101010101010101
0101010101019c8b8018713830406c30
aa0063c81000001a9c8b801871385b46
6c30aa0063c81000001a000000fe0042
4f452048460a202020202020000000fe
004e5631363146484d2d4e48300a009e

Extracted contents:
header:          00 ff ff ff ff ff ff 00
serial number:   09 e5 29 0a 00 00 00 00 0e 1f
version:         01 04
basic params:    a5 24 14 78 03
chroma info:     ee 95 a3 54 4c 99 26 0f 50 54
established:     00 00 00
standard:        01 01 01 01 01 01 01 01 01 01 01 01 01 01 01 01
descriptor 1:    9c 8b 80 18 71 38 30 40 6c 30 aa 00 63 c8 10 00 00 1a
descriptor 2:    9c 8b 80 18 71 38 5b 46 6c 30 aa 00 63 c8 10 00 00 1a
descriptor 3:    00 00 00 fe 00 42 4f 45 20 48 46 0a 20 20 20 20 20 20
descriptor 4:    00 00 00 fe 00 4e 56 31 36 31 46 48 4d 2d 4e 48 30 0a
extensions:      00
checksum:        9e

EDID version: 1.4
Manufacturer: BOE Model a29 Serial Number --
Made in week 14 of 2021
Digital display
8 bits per primary color channel
DisplayPort interface
Maximum image size: 36 cm x 20 cm
Gamma: 2.20
Supported color formats: RGB 4:4:4
First detailed timing includes the native pixel format and preferred refresh rate
Display is continuous frequency
Display x,y Chromaticity:
  Red:   0.6396, 0.3300
  Green: 0.2998, 0.5996
  Blue:  0.1503, 0.0595
  White: 0.3134, 0.3291
Established timings supported:
Standard timings supported:
Detailed mode: Clock 357.400 MHz, 355 mm x 200 mm
               1920 2028 2076 2200 hborder 0
               1080 1090 1100 1128 vborder 0
               +hsync -vsync 
               VertFreq: 144 Hz, HorFreq: 162454 Hz
Detailed mode: Clock 357.400 MHz, 355 mm x 200 mm
               1920 2028 2076 2200 hborder 0
               1080 1090 1100 2707 vborder 0
               +hsync -vsync 
               VertFreq: 60 Hz, HorFreq: 162454 Hz
ASCII string: BOE HF
ASCII string: NV161FHM-NH0
Checksum: 0x9e (valid)
EDID block does NOT conform to EDID 1.4!
	Missing name descriptor
	Missing monitor ranges
