edid-decode (hex):

00 ff ff ff ff ff ff 00 38 70 55 00 00 00 00 00
12 1e 01 04 95 1d 11 78 02 67 35 95 5c 56 90 28
1c 50 54 00 00 00 01 01 01 01 01 01 01 01 01 01
01 01 01 01 01 01 2a 36 80 a0 70 38 1f 40 30 20
35 00 26 a5 10 00 00 1a 52 2b 80 a0 70 38 1f 40
30 20 35 00 26 a5 10 00 00 1a 00 00 00 fe 00 33
46 37 44 30 80 31 33 33 37 4c 30 32 00 00 00 00
00 00 41 21 99 00 11 00 00 0a 01 0a 20 20 00 8e

00 ff ff ff ff ff ff 00 38 70 55 00 00 00 00 00
12 1e 01 04 95 1d 11 78 02 67 35 95 5c 56 90 28
1c 50 54 00 00 00 01 01 01 01 01 01 01 01 01 01
01 01 01 01 01 01 2a 36 80 a0 70 38 1f 40 30 20
35 00 26 a5 10 00 00 1a 52 2b 80 a0 70 38 1f 40
30 20 35 00 26 a5 10 00 00 1a 00 00 00 fe 00 33
46 37 44 30 80 31 33 33 37 4c 30 32 00 00 00 00
00 00 41 21 99 00 11 00 00 0a 01 0a 20 20 00 8e

----------------

Block 0, Base EDID:
  EDID Structure Version & Revision: 1.4
  Vendor & Product Identification:
    Manufacturer: NCP
    Model: 85
    Made in: week 18 of 2020
  Basic Display Parameters & Features:
    Digital display
    Bits per primary color channel: 6
    DisplayPort interface
    Maximum image size: 29 cm x 17 cm
    Gamma: 2.20
    Supported color formats: RGB 4:4:4
    First detailed timing includes the native pixel format and preferred refresh rate
  Color Characteristics:
    Red  : 0.5830, 0.3613
    Green: 0.3369, 0.5654
    Blue : 0.1562, 0.1123
    White: 0.3134, 0.3291
  Established Timings I & II: none
  Standard Timings: none
  Detailed Timing Descriptors:
    DTD 1:  1920x1080   60.003116 Hz  16:9     66.663 kHz    138.660000 MHz (294 mm x 165 mm)
                 Hfront   48 Hsync  32 Hback   80 Hpol P
                 Vfront    3 Vsync   5 Vback   23 Vpol N
    DTD 2:  1920x1080   47.990376 Hz  16:9     53.317 kHz    110.900000 MHz (294 mm x 165 mm)
                 Hfront   48 Hsync  32 Hback   80 Hpol P
                 Vfront    3 Vsync   5 Vback   23 Vpol N
    Alphanumeric Data String: '3F7D0'
    Manufacturer-Specified Display Descriptor (0x00): 00 00 00 00 41 21 99 00 11 00 00 0a 01 0a 20 20 '....A!........  '
Checksum: 0x8e

----------------

Block 1, Unknown EDID Extension Block 0x00:
  00 ff ff ff ff ff ff 00 38 70 55 00 00 00 00 00 '........8pU.....'
  12 1e 01 04 95 1d 11 78 02 67 35 95 5c 56 90 28 '.......x.g5.\V.('
  1c 50 54 00 00 00 01 01 01 01 01 01 01 01 01 01 '.PT.............'
  01 01 01 01 01 01 2a 36 80 a0 70 38 1f 40 30 20 '......*6..p8.@0 '
  35 00 26 a5 10 00 00 1a 52 2b 80 a0 70 38 1f 40 '5.&.....R+..p8.@'
  30 20 35 00 26 a5 10 00 00 1a 00 00 00 fe 00 33 '0 5.&..........3'
  46 37 44 30 80 31 33 33 37 4c 30 32 00 00 00 00 'F7D0.1337L02....'
  00 00 41 21 99 00 11 00 00 0a 01 0a 20 20 00 8e '..A!........  ..'
Checksum: 0x8e

----------------

Warnings:

Block 0, Base EDID:
  Missing Display Product Name.

Failures:

Block 0, Base EDID:
  Alphanumeric Data String: Non-printable character.
Block 1, Base EDID:
  Unknown Extension Block.
EDID:
  Base EDID: EDID specified 0 extension block(s), but found 1 extension block(s).

EDID conformity: FAIL
