
EDID (hex):
00ffffffffffff004d10b22101010101
001401030e683a78ea893aa255489b25
0f494bbfef808bc0904081c081008187
a9408140b300023a801871382d40582c
450010494200001e283c80a070b02340
3020360010494200001a000000fd0037
4d185411000a202020202020000000fc
00504e2d453437310a2020202020000b

Extracted contents:
header:          00 ff ff ff ff ff ff 00
serial number:   4d 10 b2 21 01 01 01 01 00 14
version:         01 03
basic params:    0e 68 3a 78 ea
chroma info:     89 3a a2 55 48 9b 25 0f 49 4b
established:     bf ef 80
standard:        8b c0 90 40 81 c0 81 00 81 87 a9 40 81 40 b3 00
descriptor 1:    02 3a 80 18 71 38 2d 40 58 2c 45 00 10 49 42 00 00 1e
descriptor 2:    28 3c 80 a0 70 b0 23 40 30 20 36 00 10 49 42 00 00 1a
descriptor 3:    00 00 00 fd 00 37 4d 18 54 11 00 0a 20 20 20 20 20 20
descriptor 4:    00 00 00 fc 00 50 4e 2d 45 34 37 31 0a 20 20 20 20 20
extensions:      00
checksum:        0b

EDID version: 1.3
Manufacturer: SHP Model 21b2 Serial Number --
Made in year 2010
Analog display, Input voltage level: 0.7/0.3 V
Sync: Separate Composite SyncOnGreen 
Maximum image size: 104 cm x 58 cm
Gamma: 2.20
DPMS levels: Standby Suspend Off
RGB color display
First detailed timing is preferred timing
Display x,y Chromaticity:
  Red:   0.6347, 0.3320
  Green: 0.2832, 0.6064
  Blue:  0.1445, 0.0615
  White: 0.2871, 0.2949
Established timings supported:
  720x400@70Hz 9:5 HorFreq: 31469 Hz Clock: 28.320 MHz
  640x480@60Hz 4:3 HorFreq: 31469 Hz Clock: 25.175 MHz
  640x480@67Hz 4:3 HorFreq: 35000 Hz Clock: 30.240 MHz
  640x480@72Hz 4:3 HorFreq: 37900 Hz Clock: 31.500 MHz
  640x480@75Hz 4:3 HorFreq: 37500 Hz Clock: 31.500 MHz
  800x600@56Hz 4:3 HorFreq: 35200 Hz Clock: 36.000 MHz
  800x600@60Hz 4:3 HorFreq: 37900 Hz Clock: 40.000 MHz
  800x600@72Hz 4:3 HorFreq: 48100 Hz Clock: 50.000 MHz
  800x600@75Hz 4:3 HorFreq: 46900 Hz Clock: 49.500 MHz
  832x624@75Hz 4:3 HorFreq: 49726 Hz Clock: 57.284 MHz
  1024x768@60Hz 4:3 HorFreq: 48400 Hz Clock: 65.000 MHz
  1024x768@70Hz 4:3 HorFreq: 56500 Hz Clock: 75.000 MHz
  1024x768@75Hz 4:3 HorFreq: 60000 Hz Clock: 78.750 MHz
  1280x1024@75Hz 5:4 HorFreq: 80000 Hz Clock: 135.000 MHz
  1152x870@75Hz 192:145 HorFreq: 67500 Hz Clock: 108.000 MHz
Standard timings supported:
  1360x765@60Hz 16:9
  1400x1050@60Hz 4:3 HorFreq: 64700 Hz Clock: 101.000 MHz
  1280x720@60Hz 16:9
  1280x800@60Hz 16:10
  1280x1024@67Hz 5:4
  1600x1200@60Hz 4:3 HorFreq: 75000 Hz Clock: 162.000 MHz
  1280x960@60Hz 4:3 HorFreq: 60000 Hz Clock: 108.000 MHz
  1680x1050@60Hz 16:10 HorFreq: 64700 Hz Clock: 119.000 MHz
Detailed mode: Clock 148.500 MHz, 1040 mm x 585 mm
               1920 2008 2052 2200 hborder 0
               1080 1084 1089 1125 vborder 0
               +hsync +vsync 
               VertFreq: 60 Hz, HorFreq: 67500 Hz
Detailed mode: Clock 154.000 MHz, 1040 mm x 585 mm
               1920 1968 2000 2080 hborder 0
               1200 1203 1209 1235 vborder 0
               +hsync -vsync 
               VertFreq: 59 Hz, HorFreq: 74038 Hz
Monitor ranges (GTF): 55-77Hz V, 24-84kHz H, max dotclock 170MHz
Monitor name: PN-E471
Checksum: 0xb (valid)
