
EDID (hex):
00ffffffffffff004c2e0622cd332206
05130103682b1b78eaf0659857519127
215054bfef80714a714f814081809500
a940b300010108399030621a274068b0
3600b10e1100001c000000fd00384c1f
6015000a202020202020000000fc004c
4344204d4f4e49544f520a20000000fe
000a202020202020202020202020009a

Extracted contents:
header:          00 ff ff ff ff ff ff 00
serial number:   4c 2e 06 22 cd 33 22 06 05 13
version:         01 03
basic params:    68 2b 1b 78 ea
chroma info:     f0 65 98 57 51 91 27 21 50 54
established:     bf ef 80
standard:        71 4a 71 4f 81 40 81 80 95 00 a9 40 b3 00 01 01
descriptor 1:    08 39 90 30 62 1a 27 40 68 b0 36 00 b1 0e 11 00 00 1c
descriptor 2:    00 00 00 fd 00 38 4c 1f 60 15 00 0a 20 20 20 20 20 20
descriptor 3:    00 00 00 fc 00 4c 43 44 20 4d 4f 4e 49 54 4f 52 0a 20
descriptor 4:    00 00 00 fe 00 0a 20 20 20 20 20 20 20 20 20 20 20 20
extensions:      00
checksum:        9a

EDID version: 1.3
Manufacturer: SAN Model 2206 Serial Number --
Made in week 5 of 2009
Analog display, Input voltage level: 0.7/0.7 V
Sync: Separate 
Maximum image size: 43 cm x 27 cm
Gamma: 2.20
DPMS levels: Standby Suspend Off
RGB color display
First detailed timing is preferred timing
Display x,y Chromaticity:
  Red:   0.5966, 0.3427
  Green: 0.3164, 0.5664
  Blue:  0.1533, 0.1308
  White: 0.3134, 0.3291
Established timings supported:
  720x400@70Hz 9:5 HorFreq: 31469 Hz Clock: 28.320 MHz
  640x480@60Hz 4:3 HorFreq: 31469 Hz Clock: 25.175 MHz
  640x480@67Hz 4:3 HorFreq: 35000 Hz Clock: 30.240 MHz
  640x480@72Hz 4:3 HorFreq: 37900 Hz Clock: 31.500 MHz
  640x480@75Hz 4:3 HorFreq: 37500 Hz Clock: 31.500 MHz
  800x600@56Hz 4:3 HorFreq: 35200 Hz Clock: 36.000 MHz
  800x600@60Hz 4:3 HorFreq: 37900 Hz Clock: 40.000 MHz
  800x600@72Hz 4:3 HorFreq: 48100 Hz Clock: 50.000 MHz
  800x600@75Hz 4:3 HorFreq: 46900 Hz Clock: 49.500 MHz
  832x624@75Hz 4:3 HorFreq: 49726 Hz Clock: 57.284 MHz
  1024x768@60Hz 4:3 HorFreq: 48400 Hz Clock: 65.000 MHz
  1024x768@70Hz 4:3 HorFreq: 56500 Hz Clock: 75.000 MHz
  1024x768@75Hz 4:3 HorFreq: 60000 Hz Clock: 78.750 MHz
  1280x1024@75Hz 5:4 HorFreq: 80000 Hz Clock: 135.000 MHz
  1152x870@75Hz 192:145 HorFreq: 67500 Hz Clock: 108.000 MHz
Standard timings supported:
  1152x864@70Hz 4:3
  1152x864@75Hz 4:3 HorFreq: 67500 Hz Clock: 108.000 MHz
  1280x960@60Hz 4:3 HorFreq: 60000 Hz Clock: 108.000 MHz
  1280x1024@60Hz 5:4 HorFreq: 64000 Hz Clock: 108.000 MHz
  1440x900@60Hz 16:10 HorFreq: 55500 Hz Clock: 88.750 MHz
  1600x1200@60Hz 4:3 HorFreq: 75000 Hz Clock: 162.000 MHz
  1680x1050@60Hz 16:10 HorFreq: 64700 Hz Clock: 119.000 MHz
Detailed mode: Clock 146.000 MHz, 433 mm x 270 mm
               1680 1784 1960 2240 hborder 0
               1050 1053 1059 1089 vborder 0
               -hsync +vsync 
               VertFreq: 59 Hz, HorFreq: 65178 Hz
Monitor ranges (GTF): 56-76Hz V, 31-96kHz H, max dotclock 210MHz
Monitor name: LCD MONITOR
ASCII string: 
Checksum: 0x9a (valid)
