
EDID (hex):
00ffffffffffff0015c3141701010101
2a0e010280221c78eac5c6a3574a9c23
124f54a1080081800101010101010101
010101010101302a009851002a403070
1300520f1100001e000000ff00310a20
20202020202020202020000000fd003b
3d1f400b000a202020202020000000fc
004c3535300a2020202020202020008a

Extracted contents:
header:          00 ff ff ff ff ff ff 00
serial number:   15 c3 14 17 01 01 01 01 2a 0e
version:         01 02
basic params:    80 22 1c 78 ea
chroma info:     c5 c6 a3 57 4a 9c 23 12 4f 54
established:     a1 08 00
standard:        81 80 01 01 01 01 01 01 01 01 01 01 01 01 01 01
descriptor 1:    30 2a 00 98 51 00 2a 40 30 70 13 00 52 0f 11 00 00 1e
descriptor 2:    00 00 00 ff 00 31 0a 20 20 20 20 20 20 20 20 20 20 20
descriptor 3:    00 00 00 fd 00 3b 3d 1f 40 0b 00 0a 20 20 20 20 20 20
descriptor 4:    00 00 00 fc 00 4c 35 35 30 0a 20 20 20 20 20 20 20 20
extensions:      00
checksum:        8a

EDID version: 1.2
Manufacturer: ENC Model 1714 Serial Number --
Digital display
Maximum image size: 34 cm x 28 cm
Gamma: 2.20
DPMS levels: Standby Suspend Off
RGB color display
First detailed timing is preferred timing
Display x,y Chromaticity:
  Red:   0.6396, 0.3398
  Green: 0.2900, 0.6103
  Blue:  0.1396, 0.0703
  White: 0.3095, 0.3300
Established timings supported:
  720x400@70Hz 9:5 HorFreq: 31469 Hz Clock: 28.320 MHz
  640x480@60Hz 4:3 HorFreq: 31469 Hz Clock: 25.175 MHz
  800x600@60Hz 4:3 HorFreq: 37900 Hz Clock: 40.000 MHz
  1024x768@60Hz 4:3 HorFreq: 48400 Hz Clock: 65.000 MHz
Standard timings supported:
  1280x1024@60Hz 5:4 HorFreq: 64000 Hz Clock: 108.000 MHz
Detailed mode: Clock 108.000 MHz, 338 mm x 271 mm
               1280 1328 1440 1688 hborder 0
               1024 1025 1028 1066 vborder 0
               +hsync +vsync 
               VertFreq: 60 Hz, HorFreq: 63981 Hz
Serial number: --
Monitor ranges (GTF): 59-61Hz V, 31-64kHz H, max dotclock 110MHz
Monitor name: L550
Checksum: 0x8a (valid)
One or more of the timings is out of range of the Monitor Ranges:
  Vertical Freq: 60 - 70 Hz
  Horizontal Freq: 31469 - 64000 Hz
  Maximum Clock: 108.000 MHz
EDID block does not conform at all!
	Bad year of manufacture
