
EDID (hex):
00ffffffffffff00047221006f0f0083
1e120103803925782acbd0a35a49a024
135054bfef80714f614c95008180a940
b30081000101283c80a070b023403020
360046772100001a000000ff004c4257
3038303031343231300a000000fd0038
4b1f5315000a202020202020000000fc
00416365722042323433570a202000f7

Extracted contents:
header:          00 ff ff ff ff ff ff 00
serial number:   04 72 21 00 6f 0f 00 83 1e 12
version:         01 03
basic params:    80 39 25 78 2a
chroma info:     cb d0 a3 5a 49 a0 24 13 50 54
established:     bf ef 80
standard:        71 4f 61 4c 95 00 81 80 a9 40 b3 00 81 00 01 01
descriptor 1:    28 3c 80 a0 70 b0 23 40 30 20 36 00 46 77 21 00 00 1a
descriptor 2:    00 00 00 ff 00 4c 42 57 30 38 30 30 31 34 32 31 30 0a
descriptor 3:    00 00 00 fd 00 38 4b 1f 53 15 00 0a 20 20 20 20 20 20
descriptor 4:    00 00 00 fc 00 41 63 65 72 20 42 32 34 33 57 0a 20 20
extensions:      00
checksum:        f7

EDID version: 1.3
Manufacturer: ACR Model 21 Serial Number --
Made in week 30 of 2008
Digital display
Maximum image size: 57 cm x 37 cm
Gamma: 2.20
DPMS levels: Off
RGB color display
First detailed timing is preferred timing
Display x,y Chromaticity:
  Red:   0.6396, 0.3515
  Green: 0.2871, 0.6279
  Blue:  0.1435, 0.0751
  White: 0.3125, 0.3281
Established timings supported:
  720x400@70Hz 9:5 HorFreq: 31469 Hz Clock: 28.320 MHz
  640x480@60Hz 4:3 HorFreq: 31469 Hz Clock: 25.175 MHz
  640x480@67Hz 4:3 HorFreq: 35000 Hz Clock: 30.240 MHz
  640x480@72Hz 4:3 HorFreq: 37900 Hz Clock: 31.500 MHz
  640x480@75Hz 4:3 HorFreq: 37500 Hz Clock: 31.500 MHz
  800x600@56Hz 4:3 HorFreq: 35200 Hz Clock: 36.000 MHz
  800x600@60Hz 4:3 HorFreq: 37900 Hz Clock: 40.000 MHz
  800x600@72Hz 4:3 HorFreq: 48100 Hz Clock: 50.000 MHz
  800x600@75Hz 4:3 HorFreq: 46900 Hz Clock: 49.500 MHz
  832x624@75Hz 4:3 HorFreq: 49726 Hz Clock: 57.284 MHz
  1024x768@60Hz 4:3 HorFreq: 48400 Hz Clock: 65.000 MHz
  1024x768@70Hz 4:3 HorFreq: 56500 Hz Clock: 75.000 MHz
  1024x768@75Hz 4:3 HorFreq: 60000 Hz Clock: 78.750 MHz
  1280x1024@75Hz 5:4 HorFreq: 80000 Hz Clock: 135.000 MHz
  1152x870@75Hz 192:145 HorFreq: 67500 Hz Clock: 108.000 MHz
Standard timings supported:
  1152x864@75Hz 4:3 HorFreq: 67500 Hz Clock: 108.000 MHz
  1024x768@72Hz 4:3
  1440x900@60Hz 16:10 HorFreq: 55500 Hz Clock: 88.750 MHz
  1280x1024@60Hz 5:4 HorFreq: 64000 Hz Clock: 108.000 MHz
  1600x1200@60Hz 4:3 HorFreq: 75000 Hz Clock: 162.000 MHz
  1680x1050@60Hz 16:10 HorFreq: 64700 Hz Clock: 119.000 MHz
  1280x800@60Hz 16:10
Detailed mode: Clock 154.000 MHz, 582 mm x 375 mm
               1920 1968 2000 2080 hborder 0
               1200 1203 1209 1235 vborder 0
               +hsync -vsync 
               VertFreq: 59 Hz, HorFreq: 74038 Hz
Serial number: --
Monitor ranges (GTF): 56-75Hz V, 31-83kHz H, max dotclock 210MHz
Monitor name: Acer B243W
Checksum: 0xf7 (valid)


