edid-decode (hex):

00 ff ff ff ff ff ff 00 15 8f 00 00 00 00 00 00
28 16 01 04 a5 28 20 78 fa ee a6 9e 54 4c 99 26
19 4f 54 21 08 00 01 01 01 01 01 01 01 01 01 01
01 01 01 01 01 01 64 19 00 40 41 00 26 30 18 88
36 00 30 e4 10 00 00 1e 00 00 00 fc 00 45 6c 6f
31 35 0a 20 20 20 20 20 20 20 00 00 00 fd 00 3c
3c 1e 51 0e 00 0a 20 20 20 20 20 20 00 00 00 ff
00 30 30 30 30 30 30 30 30 0a 20 20 20 20 00 9d

00 ff ff ff ff ff ff 00 15 8f 00 00 00 00 00 00
28 16 01 04 a5 28 20 78 fa ee a6 9e 54 4c 99 26
19 4f 54 21 08 00 01 01 01 01 01 01 01 01 01 01
01 01 01 01 01 01 64 19 00 40 41 00 26 30 18 88
36 00 30 e4 10 00 00 1e 00 00 00 fc 00 45 6c 6f
31 35 0a 20 20 20 20 20 20 20 00 00 00 fd 00 3c
3c 1e 51 0e 00 0a 20 20 20 20 20 20 00 00 00 ff
00 30 30 30 30 30 30 30 30 0a 20 20 20 20 00 9d

----------------

Block 0, Base EDID:
  EDID Structure Version & Revision: 1.4
  Vendor & Product Identification:
    Manufacturer: ELO
    Model: 0
    Made in: week 40 of 2012
  Basic Display Parameters & Features:
    Digital display
    Bits per primary color channel: 8
    DisplayPort interface
    Maximum image size: 40 cm x 32 cm
    Gamma: 2.20
    DPMS levels: Standby Suspend Off
    Supported color formats: RGB 4:4:4, YCrCb 4:4:4, YCrCb 4:2:2
    First detailed timing includes the native pixel format and preferred refresh rate
  Color Characteristics:
    Red  : 0.6201, 0.3300
    Green: 0.2998, 0.5996
    Blue : 0.1503, 0.0996
    White: 0.3095, 0.3300
  Established Timings I & II:
    DMT 0x04:   640x480    59.940476 Hz   4:3     31.469 kHz     25.175000 MHz
    DMT 0x09:   800x600    60.316541 Hz   4:3     37.879 kHz     40.000000 MHz
    DMT 0x10:  1024x768    60.003840 Hz   4:3     48.363 kHz     65.000000 MHz
  Standard Timings: none
  Detailed Timing Descriptors:
    DTD 1:  1024x768    60.003840 Hz   4:3     48.363 kHz     65.000000 MHz (304 mm x 228 mm)
                 Hfront   24 Hsync 136 Hback  160 Hpol P
                 Vfront    3 Vsync   6 Vback   29 Vpol P
    Display Product Name: 'Elo15'
    Display Range Limits:
      Monitor ranges (GTF): 60-60 Hz V, 30-81 kHz H, max dotclock 140 MHz
    Display Product Serial Number: ...
Checksum: 0x9d

----------------

Block 1, Unknown EDID Extension Block 0x00:
  00 ff ff ff ff ff ff 00 15 8f 00 00 00 00 00 00 '................'
  28 16 01 04 a5 28 20 78 fa ee a6 9e 54 4c 99 26 '(....( x....TL.&'
  19 4f 54 21 08 00 01 01 01 01 01 01 01 01 01 01 '.OT!............'
  01 01 01 01 01 01 64 19 00 40 41 00 26 30 18 88 '......d..@A.&0..'
  36 00 30 e4 10 00 00 1e 00 00 00 fc 00 45 6c 6f '6.0..........Elo'
  31 35 0a 20 20 20 20 20 20 20 00 00 00 fd 00 3c '15.       .....<'
  3c 1e 51 0e 00 0a 20 20 20 20 20 20 00 00 00 ff '<.Q...      ....'
  00 30 30 30 30 30 30 30 30 0a 20 20 20 20 00 9d '.00000000.    ..'
Checksum: 0x9d

----------------

Warnings:

Block 0, Base EDID:
  Detailed Timing Descriptor #1: DTD is similar but not identical to DMT 0x10.
  Display Range Limits: GTF support is deprecated in EDID 1.4.

Failures:

Block 0, Base EDID:
  Detailed Timing Descriptor #1: Mismatch of image size 304x228 mm vs display size 400x320 mm.
  Display Range Limits: GTF can't be combined with non-continuous frequencies.
Block 1, Base EDID:
  Unknown Extension Block.
EDID:
  Base EDID: EDID specified 0 extension block(s), but found 1 extension block(s).

EDID conformity: FAIL
