edid-decode (hex):

00 ff ff ff ff ff ff 00 4d d9 50 01 58 30 61 00
14 07 01 01 2e 1c 15 a0 e8 0d c9 a0 57 47 98 27
12 48 4c ff fe 80 45 59 81 80 61 59 01 01 01 01
01 01 01 01 01 01 d6 09 80 a0 20 e0 2d 10 10 60
0a 02 0e ca 10 00 00 18 d6 09 80 a0 20 e0 2d 10
10 60 0a 02 0e ca 10 00 00 18 d6 09 80 a0 20 e0
2d 10 10 60 0a 02 0e ca 10 00 00 18 d6 09 80 a0
20 e0 2d 10 10 60 0a 02 0e ca 10 00 00 18 00 69

----------------

Block 0, Base EDID:
  EDID Structure Version & Revision: 1.1
  Vendor & Product Identification:
    Manufacturer: SNY
    Model: 336
    Serial Number: ...
    Made in: week 20 of 1997
  Basic Display Parameters & Features:
    Analog display
    Input voltage level: 0.714/0.286 V
    Blank level equals black level
    Sync: Separate Composite SyncOnGreen
    Maximum image size: 28 cm x 21 cm
    Gamma: 2.60
    DPMS levels: Standby Suspend Off
    RGB color display
  Color Characteristics:
    Red  : 0.6250, 0.3398
    Green: 0.2802, 0.5947
    Blue : 0.1552, 0.0703
    White: 0.2832, 0.2978
  Established Timings I & II:
    IBM     :   720x400    70.082 Hz   9:5    31.467 kHz  28.320 MHz
    IBM     :   720x400    87.850 Hz   9:5    39.444 kHz  35.500 MHz
    DMT 0x04:   640x480    59.940 Hz   4:3    31.469 kHz  25.175 MHz
    Apple   :   640x480    66.667 Hz   4:3    35.000 kHz  30.240 MHz
    DMT 0x05:   640x480    72.809 Hz   4:3    37.861 kHz  31.500 MHz
    DMT 0x06:   640x480    75.000 Hz   4:3    37.500 kHz  31.500 MHz
    DMT 0x08:   800x600    56.250 Hz   4:3    35.156 kHz  36.000 MHz
    DMT 0x09:   800x600    60.317 Hz   4:3    37.879 kHz  40.000 MHz
    DMT 0x0a:   800x600    72.188 Hz   4:3    48.077 kHz  50.000 MHz
    DMT 0x0b:   800x600    75.000 Hz   4:3    46.875 kHz  49.500 MHz
    Apple   :   832x624    74.551 Hz   4:3    49.726 kHz  57.284 MHz
    DMT 0x0f:  1024x768i   86.958 Hz   4:3    35.522 kHz  44.900 MHz
    DMT 0x10:  1024x768    60.004 Hz   4:3    48.363 kHz  65.000 MHz
    DMT 0x11:  1024x768    70.069 Hz   4:3    56.476 kHz  75.000 MHz
    DMT 0x12:  1024x768    75.029 Hz   4:3    60.023 kHz  78.750 MHz
    Apple   :  1152x870    75.062 Hz 192:145  68.681 kHz 100.000 MHz
  Standard Timings:
    DMT 0x0c:   800x600    85.061 Hz   4:3    53.674 kHz  56.250 MHz
    DMT 0x23:  1280x1024   60.020 Hz   5:4    63.981 kHz 108.000 MHz
    DMT 0x13:  1024x768    84.997 Hz   4:3    68.677 kHz  94.500 MHz
  Detailed Timing Descriptors:
    DTD 1:   640x480    59.952 Hz   4:3    31.475 kHz  25.180 MHz (270 mm x 202 mm)
                 Hfront   16 Hsync  96 Hback  48 Hpol N
                 Vfront    0 Vsync  42 Vback   3 Vpol N
                   d6 09 80 a0 20 e0 2d 10 10 60 0a 02 0e ca 10 00 00 18 '.... .-..`........'
    DTD 2:   640x480    59.952 Hz   4:3    31.475 kHz  25.180 MHz (270 mm x 202 mm)
                 Hfront   16 Hsync  96 Hback  48 Hpol N
                 Vfront    0 Vsync  42 Vback   3 Vpol N
                   d6 09 80 a0 20 e0 2d 10 10 60 0a 02 0e ca 10 00 00 18 '.... .-..`........'
    DTD 3:   640x480    59.952 Hz   4:3    31.475 kHz  25.180 MHz (270 mm x 202 mm)
                 Hfront   16 Hsync  96 Hback  48 Hpol N
                 Vfront    0 Vsync  42 Vback   3 Vpol N
                   d6 09 80 a0 20 e0 2d 10 10 60 0a 02 0e ca 10 00 00 18 '.... .-..`........'
    DTD 4:   640x480    59.952 Hz   4:3    31.475 kHz  25.180 MHz (270 mm x 202 mm)
                 Hfront   16 Hsync  96 Hback  48 Hpol N
                 Vfront    0 Vsync  42 Vback   3 Vpol N
                   d6 09 80 a0 20 e0 2d 10 10 60 0a 02 0e ca 10 00 00 18 '.... .-..`........'
Checksum: 0x69

----------------

Warnings:

Block 0, Base EDID:
  EDID Structure Version & Revision: EDID 1.1 is deprecated, do not use.

Failures:

Block 0, Base EDID:
  Detailed Timing Descriptor #1: 0 values in the video timing:
    Horizontal Active/Blanking 640/160
    Horizontal Frontporch/Sync Width 16/96
    Vertical Active/Blanking 480/45
    Vertical Frontporch/Sync Width 0/42
  Detailed Timing Descriptor #2: 0 values in the video timing:
    Horizontal Active/Blanking 640/160
    Horizontal Frontporch/Sync Width 16/96
    Vertical Active/Blanking 480/45
    Vertical Frontporch/Sync Width 0/42
  Detailed Timing Descriptor #3: 0 values in the video timing:
    Horizontal Active/Blanking 640/160
    Horizontal Frontporch/Sync Width 16/96
    Vertical Active/Blanking 480/45
    Vertical Frontporch/Sync Width 0/42
  Detailed Timing Descriptor #4: 0 values in the video timing:
    Horizontal Active/Blanking 640/160
    Horizontal Frontporch/Sync Width 16/96
    Vertical Active/Blanking 480/45
    Vertical Frontporch/Sync Width 0/42

EDID conformity: FAIL
