edid-decode (hex):

00 ff ff ff ff ff ff 00 2c f3 ec 00 00 00 00 00
01 1e 01 04 a5 1d 11 78 0e f8 45 96 57 54 92 28
23 50 54 00 00 00 01 01 01 01 01 01 01 01 01 01
01 01 01 01 01 01 c6 1d 56 e2 50 00 1e 30 30 20
36 00 26 a5 10 00 00 19 0a 1b 56 e2 50 00 1e 30
30 20 36 00 26 a5 10 00 00 19 00 00 00 fe 00 20
20 20 20 20 20 20 20 20 20 20 20 20 00 00 00 fe
00 20 20 20 20 20 20 20 20 20 20 20 20 20 00 8b

00 ff ff ff ff ff ff 00 2c f3 ec 00 00 00 00 00
01 1e 01 04 a5 1d 11 78 0e f8 45 96 57 54 92 28
23 50 54 00 00 00 01 01 01 01 01 01 01 01 01 01
01 01 01 01 01 01 c6 1d 56 e2 50 00 1e 30 30 20
36 00 26 a5 10 00 00 19 0a 1b 56 e2 50 00 1e 30
30 20 36 00 26 a5 10 00 00 19 00 00 00 fe 00 20
20 20 20 20 20 20 20 20 20 20 20 20 00 00 00 fe
00 20 20 20 20 20 20 20 20 20 20 20 20 20 00 8b

----------------

Block 0, Base EDID:
  EDID Structure Version & Revision: 1.4
  Vendor & Product Identification:
    Manufacturer: KGS
    Model: 236
    Made in: week 1 of 2020
  Basic Display Parameters & Features:
    Digital display
    Bits per primary color channel: 8
    DisplayPort interface
    Maximum image size: 29 cm x 17 cm
    Gamma: 2.20
    Supported color formats: RGB 4:4:4, YCrCb 4:4:4
    Default (sRGB) color space is primary color space
    First detailed timing includes the native pixel format and preferred refresh rate
  Color Characteristics:
    Red  : 0.5888, 0.3427
    Green: 0.3300, 0.5703
    Blue : 0.1572, 0.1367
    White: 0.3134, 0.3291
  Established Timings I & II: none
  Standard Timings: none
  Detailed Timing Descriptors:
    DTD 1:  1366x768    59.996096 Hz 683:384   47.877 kHz     76.220000 MHz (294 mm x 165 mm)
                 Hfront   48 Hsync  32 Hback  146 Hpol N
                 Vfront    3 Vsync   6 Vback   21 Vpol N
    DTD 2:  1366x768    54.486090 Hz 683:384   43.480 kHz     69.220000 MHz (294 mm x 165 mm)
                 Hfront   48 Hsync  32 Hback  146 Hpol N
                 Vfront    3 Vsync   6 Vback   21 Vpol N
    Alphanumeric Data String: '             '
    Alphanumeric Data String: '             '
Checksum: 0x8b

----------------

Block 1, Unknown EDID Extension Block 0x00:
  00 ff ff ff ff ff ff 00 2c f3 ec 00 00 00 00 00 '........,.......'
  01 1e 01 04 a5 1d 11 78 0e f8 45 96 57 54 92 28 '.......x..E.WT.('
  23 50 54 00 00 00 01 01 01 01 01 01 01 01 01 01 '#PT.............'
  01 01 01 01 01 01 c6 1d 56 e2 50 00 1e 30 30 20 '........V.P..00 '
  36 00 26 a5 10 00 00 19 0a 1b 56 e2 50 00 1e 30 '6.&.......V.P..0'
  30 20 36 00 26 a5 10 00 00 19 00 00 00 fe 00 20 '0 6.&.......... '
  20 20 20 20 20 20 20 20 20 20 20 20 00 00 00 fe '            ....'
  00 20 20 20 20 20 20 20 20 20 20 20 20 20 00 8b '.             ..'
Checksum: 0x8b

----------------

Warnings:

Block 0, Base EDID:
  Missing Display Product Name.

Failures:

Block 0, Base EDID:
  Basic Display Parameters & Features: sRGB is signaled, but the chromaticities do not match.
  Alphanumeric Data String: One or more trailing spaces.
  Alphanumeric Data String: One or more trailing spaces.
Block 1, Base EDID:
  Unknown Extension Block.
EDID:
  Base EDID: EDID specified 0 extension block(s), but found 1 extension block(s).

EDID conformity: FAIL
