edid-decode (hex):

00 ff ff ff ff ff ff 00 0d af 23 14 00 00 00 00
00 00 01 03 80 1e 13 78 0a 9f 05 96 56 50 88 27
20 50 54 00 00 00 01 01 01 01 01 01 01 01 01 01
01 01 01 01 01 01 bc 1b 00 a0 50 20 17 30 30 20
36 00 2f be 10 00 00 18 f3 16 00 a0 50 20 13 30
30 20 36 00 2f be 10 00 00 00 00 00 00 fe 00 48
39 34 38 32 34 4e 31 34 31 49 31 0a 00 00 00 fe
00 21 30 3c 46 64 8a a8 c0 01 01 0a 20 20 00 a5

----------------

Block 0, Base EDID:
  EDID Structure Version & Revision: 1.3
  Vendor & Product Identification:
    Manufacturer: CMO
    Model: 5155
    Made in: 1990
  Basic Display Parameters & Features:
    Digital display
    Maximum image size: 30 cm x 19 cm
    Gamma: 2.20
    RGB color display
    First detailed timing is the preferred timing
  Color Characteristics:
    Red  : 0.5878, 0.3369
    Green: 0.3154, 0.5341
    Blue : 0.1523, 0.1250
    White: 0.3134, 0.3291
  Established Timings I & II: none
  Standard Timings: none
  Detailed Timing Descriptors:
    DTD 1:  1280x800    59.909545 Hz   8:5     49.306 kHz     71.000000 MHz (303 mm x 190 mm)
                 Hfront   48 Hsync  32 Hback   80 Hpol N
                 Vfront    3 Vsync   6 Vback   14 Vpol N
    DTD 2:  1280x800    49.815154 Hz   8:5     40.799 kHz     58.750000 MHz (303 mm x 190 mm)
                 Hfront   48 Hsync  32 Hback   80 Hpol N
                 Vfront    3 Vsync   6 Vback   10 Vpol N
    SPWG Module Revision: 0
    SPWG Descriptor #3:
      SPWG PC Maker P/N: 'H9482'
      SPWG LCD Supplier EEDID Revision: 52
      SPWG Manufacturer P/N: 'N141I1'
    SPWG Descriptor #4:
      SMBUS Values: 0x21 0x30 0x3c 0x46 0x64 0x8a 0xa8 0xc0
      LVDS Channels: 1
      Panel Self Test Present
Checksum: 0xa5

----------------

Warnings:

Block 0, Base EDID:
  Detailed Timing Descriptor #1: DTD is similar but not identical to DMT 0x1b.

Failures:

Block 0, Base EDID:
  Missing Display Product Name.
  Missing Display Range Limits Descriptor.

EDID conformity: FAIL
