
EDID (hex):
00ffffffffffff006509544c00000000
0010010380522e7808d9b0a357499c25
11494b2108008cc04540818081c06140
454031400101602256a0500016300020
050034cd3100001e000000fd00393f2d
32090000000000000000000000ff004e
2f410a202020202020202020000000fc
0033374d41482d4c36410a202020017f
02031a714685040201062123097f0783
01000066030c00100080011d8018711c
1620582c2500c48e2100009e011d0072
51d01e206e285500c48e2100001e8c0a
d08a20e02d10103e9600138e21000018
d60980a020e02d1008602200128e2108
08188c0aa01451f01600267c4300138e
21000098000000000000000000000024

Extracted contents:
header:          00 ff ff ff ff ff ff 00
serial number:   65 09 54 4c 00 00 00 00 00 10
version:         01 03
basic params:    80 52 2e 78 08
chroma info:     d9 b0 a3 57 49 9c 25 11 49 4b
established:     21 08 00
standard:        8c c0 45 40 81 80 81 c0 61 40 45 40 31 40 01 01
descriptor 1:    60 22 56 a0 50 00 16 30 00 20 05 00 34 cd 31 00 00 1e
descriptor 2:    00 00 00 fd 00 39 3f 2d 32 09 00 00 00 00 00 00 00 00
descriptor 3:    00 00 00 ff 00 4e 2f 41 0a 20 20 20 20 20 20 20 20 20
descriptor 4:    00 00 00 fc 00 33 37 4d 41 48 2d 4c 36 41 0a 20 20 20
extensions:      01
checksum:        7f

EDID version: 1.3
Manufacturer: YHI Model 4c54 Serial Number --
Made in year 2006
Digital display
Maximum image size: 82 cm x 46 cm
Gamma: 2.20
RGB color display
Display x,y Chromaticity:
  Red:   0.6396, 0.3408
  Green: 0.2871, 0.6103
  Blue:  0.1464, 0.0693
  White: 0.2851, 0.2929
Established timings supported:
  640x480@60Hz 4:3 HorFreq: 31469 Hz Clock: 25.175 MHz
  800x600@60Hz 4:3 HorFreq: 37900 Hz Clock: 40.000 MHz
  1024x768@60Hz 4:3 HorFreq: 48400 Hz Clock: 65.000 MHz
Standard timings supported:
  1368x769@60Hz 16:9
  800x600@60Hz 4:3 HorFreq: 37900 Hz Clock: 40.000 MHz
  1280x1024@60Hz 5:4 HorFreq: 64000 Hz Clock: 108.000 MHz
  1280x720@60Hz 16:9
  1024x768@60Hz 4:3 HorFreq: 48400 Hz Clock: 65.000 MHz
  800x600@60Hz 4:3 HorFreq: 37900 Hz Clock: 40.000 MHz
  640x480@60Hz 4:3 HorFreq: 31469 Hz Clock: 25.175 MHz
Detailed mode: Clock 88.000 MHz, 820 mm x 461 mm
               1366 1366 1398 1526 hborder 0
                768  768  773  790 vborder 0
               +hsync +vsync 
               VertFreq: 72 Hz, HorFreq: 57667 Hz
Monitor ranges (GTF): 57-63Hz V, 45-50kHz H, max dotclock 90MHz
Serial number: --
Monitor name: 37MAH-L6A
Has 1 extension blocks
Checksum: 0x7f (valid)

CTA extension block
Extension version: 3
22 bytes of CTA data
  Video data block
    VIC   5 1920x1080i@60Hz 16:9 (native) HorFreq: 33750 Hz Clock: 74.250 MHz
    VIC   4 1280x720@60Hz 16:9  HorFreq: 45000 Hz Clock: 74.250 MHz
    VIC   2 720x480@60Hz 4:3  HorFreq: 31469 Hz Clock: 27.000 MHz
    VIC   1 640x480@60Hz 4:3  HorFreq: 31469 Hz Clock: 25.175 MHz
    VIC   6 1440x480i@60Hz 4:3  HorFreq: 15734 Hz Clock: 27.000 MHz
    VIC  33 1920x1080@25Hz 16:9  HorFreq: 28125 Hz Clock: 74.250 MHz
  Audio data block
    Linear PCM, max channels 2
      Supported sample rates (kHz): 192 176.4 96 88.2 48 44.1 32
      Supported sample sizes (bits): 24 20 16
  Speaker allocation data block
    Speaker map:
      FL/FR - Front Left/Right
  Vendor-specific data block, OUI 000c03 (HDMI)
    Source physical address 1.0.0.0
    Supports_AI
Basic audio support
Supports YCbCr 4:4:4
Supports YCbCr 4:2:2
1 native detailed modes
Detailed mode: Clock 74.250 MHz, 708 mm x 398 mm
               1920 2008 2052 2200 hborder 0
                540  542  547  562 vborder 0
               +hsync +vsync interlaced 
               VertFreq: 60 Hz, HorFreq: 33750 Hz
Detailed mode: Clock 74.250 MHz, 708 mm x 398 mm
               1280 1390 1430 1650 hborder 0
                720  725  730  750 vborder 0
               +hsync +vsync 
               VertFreq: 60 Hz, HorFreq: 45000 Hz
Detailed mode: Clock 27.000 MHz, 531 mm x 398 mm
                720  736  798  858 hborder 0
                480  489  495  525 vborder 0
               -hsync -vsync 
               VertFreq: 59 Hz, HorFreq: 31468 Hz
Detailed mode: Clock 25.180 MHz, 530 mm x 398 mm
                640  648  744  800 hborder 8
                480  482  484  525 vborder 8
               -hsync -vsync 
               VertFreq: 59 Hz, HorFreq: 31475 Hz
Detailed mode: Clock 27.000 MHz, 531 mm x 398 mm
               1440 1478 1602 1716 hborder 0
                240  244  247  262 vborder 0
               -hsync -vsync interlaced 
               VertFreq: 60 Hz, HorFreq: 15734 Hz
Checksum: 0x24 (valid)

EDID block does NOT conform to EDID 1.3!
	Missing preferred timing
One or more of the timings is out of range of the Monitor Ranges:
  Vertical Freq: 25 - 72 Hz
  Horizontal Freq: 15734 - 64000 Hz
  Maximum Clock: 108.000 MHz


