
EDID (hex):
00ffffffffffff002283080100000000
00180103081009780a2cc1a45650a128
0f5054afcf809500b300a9c001010101
010101010101023a801871382d40582c
450010090000001e662150b051001b30
4070360010090000001e000000fc004c
4532344b333138410a202020000000fd
00384b1e5010000a20202020202000b6

Extracted contents:
header:          00 ff ff ff ff ff ff 00
serial number:   22 83 08 01 00 00 00 00 00 18
version:         01 03
basic params:    08 10 09 78 0a
chroma info:     2c c1 a4 56 50 a1 28 0f 50 54
established:     af cf 80
standard:        95 00 b3 00 a9 c0 01 01 01 01 01 01 01 01 01 01
descriptor 1:    02 3a 80 18 71 38 2d 40 58 2c 45 00 10 09 00 00 00 1e
descriptor 2:    66 21 50 b0 51 00 1b 30 40 70 36 00 10 09 00 00 00 1e
descriptor 3:    00 00 00 fc 00 4c 45 32 34 4b 33 31 38 41 0a 20 20 20
descriptor 4:    00 00 00 fd 00 38 4b 1e 50 10 00 0a 20 20 20 20 20 20
extensions:      00
checksum:        b6

EDID version: 1.3
Manufacturer: HTC Model 108 Serial Number --
Made in year 2014
Analog display, Input voltage level: 0.7/0.3 V
Sync: Separate 
Maximum image size: 16 cm x 9 cm
Gamma: 2.20
RGB color display
First detailed timing is preferred timing
Display x,y Chromaticity:
  Red:   0.6406, 0.3378
  Green: 0.3154, 0.6289
  Blue:  0.1591, 0.0585
  White: 0.3125, 0.3291
Established timings supported:
  720x400@70Hz 9:5 HorFreq: 31469 Hz Clock: 28.320 MHz
  640x480@60Hz 4:3 HorFreq: 31469 Hz Clock: 25.175 MHz
  640x480@72Hz 4:3 HorFreq: 37900 Hz Clock: 31.500 MHz
  640x480@75Hz 4:3 HorFreq: 37500 Hz Clock: 31.500 MHz
  800x600@56Hz 4:3 HorFreq: 35200 Hz Clock: 36.000 MHz
  800x600@60Hz 4:3 HorFreq: 37900 Hz Clock: 40.000 MHz
  800x600@72Hz 4:3 HorFreq: 48100 Hz Clock: 50.000 MHz
  800x600@75Hz 4:3 HorFreq: 46900 Hz Clock: 49.500 MHz
  1024x768@60Hz 4:3 HorFreq: 48400 Hz Clock: 65.000 MHz
  1024x768@70Hz 4:3 HorFreq: 56500 Hz Clock: 75.000 MHz
  1024x768@75Hz 4:3 HorFreq: 60000 Hz Clock: 78.750 MHz
  1280x1024@75Hz 5:4 HorFreq: 80000 Hz Clock: 135.000 MHz
  1152x870@75Hz 192:145 HorFreq: 67500 Hz Clock: 108.000 MHz
Standard timings supported:
  1440x900@60Hz 16:10 HorFreq: 55500 Hz Clock: 88.750 MHz
  1680x1050@60Hz 16:10 HorFreq: 64700 Hz Clock: 119.000 MHz
  1600x900@60Hz 16:9
Detailed mode: Clock 148.500 MHz, 16 mm x 9 mm
               1920 2008 2052 2200 hborder 0
               1080 1084 1089 1125 vborder 0
               +hsync +vsync 
               VertFreq: 60 Hz, HorFreq: 67500 Hz
Detailed mode: Clock 85.500 MHz, 16 mm x 9 mm
               1360 1424 1536 1792 hborder 0
                768  771  777  795 vborder 0
               +hsync +vsync 
               VertFreq: 60 Hz, HorFreq: 47712 Hz
Monitor name: LE24K318A
Monitor ranges (GTF): 56-75Hz V, 30-80kHz H, max dotclock 160MHz
Checksum: 0xb6 (valid)
