
EDID (hex):
00ffffffffffff0022646605502d3101
121b010308301b782a4ec0a655509c26
1150542f4f0081008180814081c0b300
d1c071400140023a801871382d40582c
4500dd0c1100001e8c0ad08a20e02d10
103e9600dd0c1100001c662156aa5100
1e30468f3300dd0c1100001c000000fc
004845323235414e420a202020200085

Extracted contents:
header:          00 ff ff ff ff ff ff 00
serial number:   22 64 66 05 50 2d 31 01 12 1b
version:         01 03
basic params:    08 30 1b 78 2a
chroma info:     4e c0 a6 55 50 9c 26 11 50 54
established:     2f 4f 00
standard:        81 00 81 80 81 40 81 c0 b3 00 d1 c0 71 40 01 40
descriptor 1:    02 3a 80 18 71 38 2d 40 58 2c 45 00 dd 0c 11 00 00 1e
descriptor 2:    8c 0a d0 8a 20 e0 2d 10 10 3e 96 00 dd 0c 11 00 00 1c
descriptor 3:    66 21 56 aa 51 00 1e 30 46 8f 33 00 dd 0c 11 00 00 1c
descriptor 4:    00 00 00 fc 00 48 45 32 32 35 41 4e 42 0a 20 20 20 20
extensions:      00
checksum:        85

EDID version: 1.3
Manufacturer: HSD Model 566 Serial Number --
Made in week 18 of 2017
Analog display, Input voltage level: 0.7/0.3 V
Sync: Separate 
Maximum image size: 48 cm x 27 cm
Gamma: 2.20
DPMS levels: Off
RGB color display
First detailed timing is preferred timing
Display x,y Chromaticity:
  Red:   0.6494, 0.3320
  Green: 0.3154, 0.6113
  Blue:  0.1513, 0.0664
  White: 0.3125, 0.3281
Established timings supported:
  640x480@60Hz 4:3 HorFreq: 31469 Hz Clock: 25.175 MHz
  640x480@72Hz 4:3 HorFreq: 37900 Hz Clock: 31.500 MHz
  640x480@75Hz 4:3 HorFreq: 37500 Hz Clock: 31.500 MHz
  800x600@56Hz 4:3 HorFreq: 35200 Hz Clock: 36.000 MHz
  800x600@60Hz 4:3 HorFreq: 37900 Hz Clock: 40.000 MHz
  800x600@75Hz 4:3 HorFreq: 46900 Hz Clock: 49.500 MHz
  1024x768@60Hz 4:3 HorFreq: 48400 Hz Clock: 65.000 MHz
  1024x768@70Hz 4:3 HorFreq: 56500 Hz Clock: 75.000 MHz
  1024x768@75Hz 4:3 HorFreq: 60000 Hz Clock: 78.750 MHz
  1280x1024@75Hz 5:4 HorFreq: 80000 Hz Clock: 135.000 MHz
Standard timings supported:
  1280x800@60Hz 16:10
  1280x1024@60Hz 5:4 HorFreq: 64000 Hz Clock: 108.000 MHz
  1280x960@60Hz 4:3 HorFreq: 60000 Hz Clock: 108.000 MHz
  1280x720@60Hz 16:9
  1680x1050@60Hz 16:10 HorFreq: 64700 Hz Clock: 119.000 MHz
  1920x1080@60Hz 16:9
  1152x864@60Hz 4:3
  256x192@60Hz 4:3
Detailed mode: Clock 148.500 MHz, 477 mm x 268 mm
               1920 2008 2052 2200 hborder 0
               1080 1084 1089 1125 vborder 0
               +hsync +vsync 
               VertFreq: 60 Hz, HorFreq: 67500 Hz
Detailed mode: Clock 27.000 MHz, 477 mm x 268 mm
                720  736  798  858 hborder 0
                480  489  495  525 vborder 0
               -hsync +vsync 
               VertFreq: 59 Hz, HorFreq: 31468 Hz
Detailed mode: Clock 85.500 MHz, 477 mm x 268 mm
               1366 1436 1579 1792 hborder 0
                768  771  774  798 vborder 0
               -hsync +vsync 
               VertFreq: 59 Hz, HorFreq: 47712 Hz
Monitor name: HE225ANB
Checksum: 0x85 (valid)
EDID block does NOT conform to EDID 1.3!
	Missing monitor ranges


