edid-decode (hex):

00 ff ff ff ff ff ff 00 06 af 6c 20 00 00 00 00
00 17 01 04 95 1c 10 78 02 bb f5 94 55 54 90 27
23 50 54 00 00 00 01 01 01 01 01 01 01 01 01 01
01 01 01 01 01 01 ec 1d 56 e8 50 00 1e 30 26 16
36 00 15 9c 10 00 00 1a f3 13 56 e8 50 00 1e 30
26 16 36 00 15 9c 10 00 00 1a 00 00 00 fe 00 4d
36 46 39 44 80 42 31 32 35 58 54 4e 00 00 00 00
00 01 41 21 94 00 01 00 00 09 01 0a 20 20 00 ae

----------------

Block 0, Base EDID:
  EDID Structure Version & Revision: 1.4
  Vendor & Product Identification:
    Manufacturer: AUO
    Model: 8300
    Made in: 2013
  Basic Display Parameters & Features:
    Digital display
    Bits per primary color channel: 6
    DisplayPort interface
    Maximum image size: 28 cm x 16 cm
    Gamma: 2.20
    Supported color formats: RGB 4:4:4
    First detailed timing includes the native pixel format and preferred refresh rate
  Color Characteristics:
    Red  : 0.5800, 0.3349
    Green: 0.3300, 0.5654
    Blue : 0.1552, 0.1396
    White: 0.3134, 0.3291
  Established Timings I & II: none
  Standard Timings: none
  Detailed Timing Descriptors:
    DTD 1:  1366x768    60.069 Hz 683:384  47.935 kHz  76.600 MHz (277 mm x 156 mm)
                 Hfront   38 Hsync  22 Hback 172 Hpol P
                 Vfront    3 Vsync   6 Vback  21 Vpol N
    DTD 2:  1366x768    40.048 Hz 683:384  31.959 kHz  51.070 MHz (277 mm x 156 mm)
                 Hfront   38 Hsync  22 Hback 172 Hpol P
                 Vfront    3 Vsync   6 Vback  21 Vpol N
    Alphanumeric Data String: 'M6F9D'
    Manufacturer-Specified Display Descriptor (0x00): 00 00 00 01 41 21 94 00 01 00 00 09 01 0a 20 20 '....A!........  '
Checksum: 0xae

----------------

Failures:

Block 0, Base EDID:
  Alphanumeric Data String: Non-printable character.
  Missing Display Product Name.

EDID conformity: FAIL
