
EDID (hex):
00ffffffffffff000daf011700000000
00000103802517780afa1da558489c24
12515500000001010101010101010101
0101010101019525a04051840c304020
33006fe610000018000000fe004e3137
3043312d4c30320a2020000000fe0043
4d4f0a202020202020202020000000fe
004e31373043312d4c30320a20200050

Extracted contents:
header:          00 ff ff ff ff ff ff 00
serial number:   0d af 01 17 00 00 00 00 00 00
version:         01 03
basic params:    80 25 17 78 0a
chroma info:     fa 1d a5 58 48 9c 24 12 51 55
established:     00 00 00
standard:        01 01 01 01 01 01 01 01 01 01 01 01 01 01 01 01
descriptor 1:    95 25 a0 40 51 84 0c 30 40 20 33 00 6f e6 10 00 00 18
descriptor 2:    00 00 00 fe 00 4e 31 37 30 43 31 2d 4c 30 32 0a 20 20
descriptor 3:    00 00 00 fe 00 43 4d 4f 0a 20 20 20 20 20 20 20 20 20
descriptor 4:    00 00 00 fe 00 4e 31 37 30 43 31 2d 4c 30 32 0a 20 20
extensions:      00
checksum:        50

EDID version: 1.3
Manufacturer: CMO Model 1701 Serial Number --
Digital display
Maximum image size: 37 cm x 23 cm
Gamma: 2.20
RGB color display
First detailed timing is preferred timing
Display x,y Chromaticity:
  Red:   0.6474, 0.3466
  Green: 0.2832, 0.6113
  Blue:  0.1406, 0.0712
  White: 0.3193, 0.3330
Established timings supported:
Standard timings supported:
Detailed mode: Clock 96.210 MHz, 367 mm x 230 mm
               1440 1504 1536 1760 hborder 0
                900  903  906  912 vborder 0
               -hsync -vsync 
               VertFreq: 59 Hz, HorFreq: 54664 Hz
ASCII string: N170C1-L02
ASCII string: CMO
ASCII string: N170C1-L02
Checksum: 0x50 (valid)
EDID block does NOT conform to EDID 1.3!
	Missing name descriptor
	Missing monitor ranges
EDID block does not conform at all!
	Bad year of manufacture
