
EDID (hex):
00ffffffffffff0009e5ef0700000000
011c0104951f11780324109759548e27
1e505400000001010101010101010101
010101010101c83a801871383c400920
360035ae1000001a3027801871383c40
0920360035ae1000001a000000000000
00000000000000000000000000000002
000d49ff0a3c6e1612206e0000000055

Extracted contents:
header:          00 ff ff ff ff ff ff 00
serial number:   09 e5 ef 07 00 00 00 00 01 1c
version:         01 04
basic params:    95 1f 11 78 03
chroma info:     24 10 97 59 54 8e 27 1e 50 54
established:     00 00 00
standard:        01 01 01 01 01 01 01 01 01 01 01 01 01 01 01 01
descriptor 1:    c8 3a 80 18 71 38 3c 40 09 20 36 00 35 ae 10 00 00 1a
descriptor 2:    30 27 80 18 71 38 3c 40 09 20 36 00 35 ae 10 00 00 1a
descriptor 3:    00 00 00 00 00 00 00 00 00 00 00 00 00 00 00 00 00 00
descriptor 4:    00 00 00 02 00 0d 49 ff 0a 3c 6e 16 12 20 6e 00 00 00
extensions:      00
checksum:        55

EDID version: 1.4
Manufacturer: BOE Model 7ef Serial Number --
Made in week 1 of 2018
Digital display
6 bits per primary color channel
DisplayPort interface
Maximum image size: 31 cm x 17 cm
Gamma: 2.20
Supported color formats: RGB 4:4:4
First detailed timing includes the native pixel format and preferred refresh rate
Display is continuous frequency
Display x,y Chromaticity:
  Red:   0.5898, 0.3496
  Green: 0.3291, 0.5546
  Blue:  0.1523, 0.1181
  White: 0.3125, 0.3281
Established timings supported:
Standard timings supported:
Detailed mode: Clock 150.480 MHz, 309 mm x 174 mm
               1920 1929 1961 2200 hborder 0
               1080 1083 1089 1140 vborder 0
               +hsync -vsync 
               VertFreq: 60 Hz, HorFreq: 68400 Hz
Detailed mode: Clock 100.320 MHz, 309 mm x 174 mm
               1920 1929 1961 2200 hborder 0
               1080 1083 1089 1140 vborder 0
               +hsync -vsync 
               VertFreq: 40 Hz, HorFreq: 45600 Hz
Manufacturer-specified data, tag 0
Manufacturer-specified data, tag 2
Checksum: 0x55 (valid)
EDID block does NOT conform to EDID 1.4!
	Missing name descriptor
	Missing monitor ranges
