
EDID (hex):
00ffffffffffff004ca3485400000000
00150104902213780ac8959e57549226
0f505400000001010101010101010101
010101010101293680a070381f401810
250058c21000001a963280e871380841
1810250058c21000001a000000fe0047
4a4859328031353648540a2000000000
000041219e0000000002010a2020009e

Extracted contents:
header:          00 ff ff ff ff ff ff 00
serial number:   4c a3 48 54 00 00 00 00 00 15
version:         01 04
basic params:    90 22 13 78 0a
chroma info:     c8 95 9e 57 54 92 26 0f 50 54
established:     00 00 00
standard:        01 01 01 01 01 01 01 01 01 01 01 01 01 01 01 01
descriptor 1:    29 36 80 a0 70 38 1f 40 18 10 25 00 58 c2 10 00 00 1a
descriptor 2:    96 32 80 e8 71 38 08 41 18 10 25 00 58 c2 10 00 00 1a
descriptor 3:    00 00 00 fe 00 47 4a 48 59 32 80 31 35 36 48 54 0a 20
descriptor 4:    00 00 00 00 00 00 41 21 9e 00 00 00 00 02 01 0a 20 20
extensions:      00
checksum:        9e

EDID version: 1.4
Manufacturer: SEC Model 5448 Serial Number --
Made in year 2011
Digital display
6 bits per primary color channel
Digital interface is not defined
Maximum image size: 34 cm x 19 cm
Gamma: 2.20
Supported color formats: RGB 4:4:4, YCrCb 4:4:4
First detailed timing includes the native pixel format and preferred refresh rate
Display x,y Chromaticity:
  Red:   0.6201, 0.3398
  Green: 0.3300, 0.5703
  Blue:  0.1503, 0.0595
  White: 0.3134, 0.3291
Established timings supported:
Standard timings supported:
Detailed mode: Clock 138.650 MHz, 344 mm x 194 mm
               1920 1944 1960 2080 hborder 0
               1080 1082 1087 1111 vborder 0
               +hsync -vsync 
               VertFreq: 59 Hz, HorFreq: 66658 Hz
Detailed mode: Clock 129.500 MHz, 344 mm x 194 mm
               1920 1944 1960 2408 hborder 0
               1080 1082 1087 1344 vborder 0
               +hsync -vsync 
               VertFreq: 40 Hz, HorFreq: 53779 Hz
ASCII string: GJHY2
Manufacturer-specified data, tag 0
Checksum: 0x9e (valid)
EDID block does NOT conform to EDID 1.4!
	Missing name descriptor
	Missing monitor ranges
	Detailed block string not properly terminated
