edid-decode (hex):

00 ff ff ff ff ff ff 00 68 78 50 21 00 00 00 00
01 18 01 03 00 30 1a 78 ea 00 10 a0 57 49 9b 26
10 48 4c ad cf 00 31 4a 45 4a 61 4c 81 c0 81 80
81 8a 81 8c a9 c0 02 3a 80 18 71 38 2d 40 58 2c
45 00 b4 f5 10 00 00 1e 7c 2e 90 a0 60 1a 1e 40
30 20 36 00 b4 f5 10 00 00 18 00 00 00 10 00 b4
b4 cf eb bc af cd c5 0a 20 20 20 20 00 00 00 fc
00 b4 b4 cf eb bc af cd c5 0a 20 20 20 20 00 50

00 ff ff ff ff ff ff 00 68 78 50 21 00 00 00 00
01 18 01 03 00 30 1a 78 ea 00 10 a0 57 49 9b 26
10 48 4c ad cf 00 31 4a 45 4a 61 4c 81 c0 81 80
81 8a 81 8c a9 c0 02 3a 80 18 71 38 2d 40 58 2c
45 00 b4 f5 10 00 00 1e 7c 2e 90 a0 60 1a 1e 40
30 20 36 00 b4 f5 10 00 00 18 00 00 00 10 00 b4
b4 cf eb bc af cd c5 0a 20 20 20 20 00 00 00 fc
00 b4 b4 cf eb bc af cd c5 0a 20 20 20 20 00 50

----------------

Block 0, Base EDID:
  EDID Structure Version & Revision: 1.3
  Vendor & Product Identification:
    Manufacturer: ZCX
    Model: 8528
    Made in: week 1 of 2014
  Basic Display Parameters & Features:
    Analog display
    Signal Level Standard: 0.700 : 0.300 : 1.000 V p-p
    Blank level equals black level
    Maximum image size: 48 cm x 26 cm
    Gamma: 2.20
    DPMS levels: Standby Suspend Off
    RGB color display
    First detailed timing is the preferred timing
  Color Characteristics:
    Red  : 0.6250, 0.3398
    Green: 0.2851, 0.6054
    Blue : 0.1484, 0.0634
    White: 0.2812, 0.2968
  Established Timings I & II:
    IBM     :   720x400    70.081663 Hz   9:5     31.467 kHz     28.320000 MHz
    DMT 0x04:   640x480    59.940476 Hz   4:3     31.469 kHz     25.175000 MHz
    DMT 0x05:   640x480    72.808802 Hz   4:3     37.861 kHz     31.500000 MHz
    DMT 0x06:   640x480    75.000000 Hz   4:3     37.500 kHz     31.500000 MHz
    DMT 0x09:   800x600    60.316541 Hz   4:3     37.879 kHz     40.000000 MHz
    DMT 0x0a:   800x600    72.187572 Hz   4:3     48.077 kHz     50.000000 MHz
    DMT 0x0b:   800x600    75.000000 Hz   4:3     46.875 kHz     49.500000 MHz
    DMT 0x10:  1024x768    60.003840 Hz   4:3     48.363 kHz     65.000000 MHz
    DMT 0x11:  1024x768    70.069359 Hz   4:3     56.476 kHz     75.000000 MHz
    DMT 0x12:  1024x768    75.028582 Hz   4:3     60.023 kHz     78.750000 MHz
    DMT 0x24:  1280x1024   75.024675 Hz   5:4     79.976 kHz    135.000000 MHz
  Standard Timings:
    GTF     :   640x480    70.000000 Hz   4:3     35.000 kHz     28.560000 MHz
    GTF     :   800x600    70.000000 Hz   4:3     43.750 kHz     45.500000 MHz
    DMT 0x11:  1024x768    70.069359 Hz   4:3     56.476 kHz     75.000000 MHz
    DMT 0x55:  1280x720    60.000000 Hz  16:9     45.000 kHz     74.250000 MHz
    DMT 0x23:  1280x1024   60.019740 Hz   5:4     63.981 kHz    108.000000 MHz
    GTF     :  1280x1024   69.999805 Hz   5:4     74.620 kHz    128.943000 MHz
    GTF     :  1280x1024   72.000069 Hz   5:4     76.824 kHz    132.752000 MHz
    DMT 0x53:  1600x900    60.000000 Hz  16:9     60.000 kHz    108.000000 MHz (RB)
  Detailed Timing Descriptors:
    DTD 1:  1920x1080   60.000000 Hz  16:9     67.500 kHz    148.500000 MHz (436 mm x 245 mm)
                 Hfront   88 Hsync  44 Hback  148 Hpol P
                 Vfront    4 Vsync   5 Vback   36 Vpol P
    DTD 2:  1680x1050   59.883253 Hz  16:10    64.674 kHz    119.000000 MHz (436 mm x 245 mm)
                 Hfront   48 Hsync  32 Hback   80 Hpol N
                 Vfront    3 Vsync   6 Vback   21 Vpol N
    Dummy Descriptor:
    Display Product Name: ''
Checksum: 0x50

----------------

Block 1, Unknown EDID Extension Block 0x00:
  00 ff ff ff ff ff ff 00 68 78 50 21 00 00 00 00 '........hxP!....'
  01 18 01 03 00 30 1a 78 ea 00 10 a0 57 49 9b 26 '.....0.x....WI.&'
  10 48 4c ad cf 00 31 4a 45 4a 61 4c 81 c0 81 80 '.HL...1JEJaL....'
  81 8a 81 8c a9 c0 02 3a 80 18 71 38 2d 40 58 2c '.......:..q8-@X,'
  45 00 b4 f5 10 00 00 1e 7c 2e 90 a0 60 1a 1e 40 'E.......|...`..@'
  30 20 36 00 b4 f5 10 00 00 18 00 00 00 10 00 b4 '0 6.............'
  b4 cf eb bc af cd c5 0a 20 20 20 20 00 00 00 fc '........    ....'
  00 b4 b4 cf eb bc af cd c5 0a 20 20 20 20 00 50 '..........    .P'
Checksum: 0x50

----------------

Warnings:

Block 0, Base EDID:
  Detailed Timing Descriptor #2: DTD is similar but not identical to DMT 0x39.

Failures:

Block 0, Base EDID:
  Detailed Timing Descriptor #1: Mismatch of image size 436x245 mm vs display size 480x260 mm.
  Detailed Timing Descriptor #2: Mismatch of image size 436x245 mm vs display size 480x260 mm.
  Dummy Descriptor: Dummy block filled with garbage.
  Display Product Name: Non-printable character.
  Missing Display Range Limits Descriptor.
Block 1, Base EDID:
  Unknown Extension Block.
EDID:
  Base EDID: EDID specified 0 extension block(s), but found 1 extension block(s).

EDID conformity: FAIL
