
EDID (hex):
00ffffffffffff0005b7d173fa0c0000
040f01031f251e96e9d1e0a05a4a9824
165054bfef808140714f818001010101
010101010101000000fc000a20202020
2020202020202020000000fd00324b1e
500e0a20202020202020000000fc000a
202020202020202020202020000000fc
004d313736410a2020202020202000e5

Extracted contents:
header:          00 ff ff ff ff ff ff 00
serial number:   05 b7 d1 73 fa 0c 00 00 04 0f
version:         01 03
basic params:    1f 25 1e 96 e9
chroma info:     d1 e0 a0 5a 4a 98 24 16 50 54
established:     bf ef 80
standard:        81 40 71 4f 81 80 01 01 01 01 01 01 01 01 01 01
descriptor 1:    00 00 00 fc 00 0a 20 20 20 20 20 20 20 20 20 20 20 20
descriptor 2:    00 00 00 fd 00 32 4b 1e 50 0e 0a 20 20 20 20 20 20 20
descriptor 3:    00 00 00 fc 00 0a 20 20 20 20 20 20 20 20 20 20 20 20
descriptor 4:    00 00 00 fc 00 4d 31 37 36 41 0a 20 20 20 20 20 20 20
extensions:      00
checksum:        e5

EDID version: 1.3
Manufacturer: AMW Model 73d1 Serial Number --
Analog display, Input voltage level: 0.7/0.3 V
Configurable signal levels
Sync: Separate Composite SyncOnGreen Serration 
Maximum image size: 37 cm x 30 cm
Gamma: 2.50
DPMS levels: Standby Suspend Off
RGB color display
Supports GTF timings within operating range
Display x,y Chromaticity:
  Red:   0.6279, 0.3525
  Green: 0.2890, 0.5947
  Blue:  0.1435, 0.0878
  White: 0.3125, 0.3281
Established timings supported:
  720x400@70Hz 9:5 HorFreq: 31469 Hz Clock: 28.320 MHz
  640x480@60Hz 4:3 HorFreq: 31469 Hz Clock: 25.175 MHz
  640x480@67Hz 4:3 HorFreq: 35000 Hz Clock: 30.240 MHz
  640x480@72Hz 4:3 HorFreq: 37900 Hz Clock: 31.500 MHz
  640x480@75Hz 4:3 HorFreq: 37500 Hz Clock: 31.500 MHz
  800x600@56Hz 4:3 HorFreq: 35200 Hz Clock: 36.000 MHz
  800x600@60Hz 4:3 HorFreq: 37900 Hz Clock: 40.000 MHz
  800x600@72Hz 4:3 HorFreq: 48100 Hz Clock: 50.000 MHz
  800x600@75Hz 4:3 HorFreq: 46900 Hz Clock: 49.500 MHz
  832x624@75Hz 4:3 HorFreq: 49726 Hz Clock: 57.284 MHz
  1024x768@60Hz 4:3 HorFreq: 48400 Hz Clock: 65.000 MHz
  1024x768@70Hz 4:3 HorFreq: 56500 Hz Clock: 75.000 MHz
  1024x768@75Hz 4:3 HorFreq: 60000 Hz Clock: 78.750 MHz
  1280x1024@75Hz 5:4 HorFreq: 80000 Hz Clock: 135.000 MHz
  1152x870@75Hz 192:145 HorFreq: 67500 Hz Clock: 108.000 MHz
Standard timings supported:
  1280x960@60Hz 4:3 HorFreq: 60000 Hz Clock: 108.000 MHz
  1152x864@75Hz 4:3 HorFreq: 67500 Hz Clock: 108.000 MHz
  1280x1024@60Hz 5:4 HorFreq: 64000 Hz Clock: 108.000 MHz
Monitor name: 
Monitor ranges (invalid): 50-75Hz V, 30-80kHz H, max dotclock 140MHz
Checksum: 0xe5 (valid)
EDID block does NOT conform to EDID 1.3!
	Missing preferred timing
EDID block does not conform at all!
	Bad year of manufacture
	Detailed blocks filled with garbage
	Range descriptor contains garbage
