
EDID (hex):
00ffffffffffff0005e31822f21b0000
2b12010368351e782abd20a753469e25
145054bfef00614c8180818a818c9500
8140714f01017c2e90a0601a1e403020
36000e282100001a000000fd00384b18
5011000a202020202020000000fc0032
3231380a2020202020202020000000ff
004d343438414a4130303731353400ed

Extracted contents:
header:          00 ff ff ff ff ff ff 00
serial number:   05 e3 18 22 f2 1b 00 00 2b 12
version:         01 03
basic params:    68 35 1e 78 2a
chroma info:     bd 20 a7 53 46 9e 25 14 50 54
established:     bf ef 00
standard:        61 4c 81 80 81 8a 81 8c 95 00 81 40 71 4f 01 01
descriptor 1:    7c 2e 90 a0 60 1a 1e 40 30 20 36 00 0e 28 21 00 00 1a
descriptor 2:    00 00 00 fd 00 38 4b 18 50 11 00 0a 20 20 20 20 20 20
descriptor 3:    00 00 00 fc 00 32 32 31 38 0a 20 20 20 20 20 20 20 20
descriptor 4:    00 00 00 ff 00 4d 34 34 38 41 4a 41 30 30 37 31 35 34
extensions:      00
checksum:        ed

EDID version: 1.3
Manufacturer: AOC Model 2218 Serial Number --
Made in week 43 of 2008
Analog display, Input voltage level: 0.7/0.7 V
Sync: Separate 
Maximum image size: 53 cm x 30 cm
Gamma: 2.20
DPMS levels: Off
RGB color display
First detailed timing is preferred timing
Display x,y Chromaticity:
  Red:   0.6542, 0.3271
  Green: 0.2763, 0.6181
  Blue:  0.1445, 0.0800
  White: 0.3125, 0.3281
Established timings supported:
  720x400@70Hz 9:5 HorFreq: 31469 Hz Clock: 28.320 MHz
  640x480@60Hz 4:3 HorFreq: 31469 Hz Clock: 25.175 MHz
  640x480@67Hz 4:3 HorFreq: 35000 Hz Clock: 30.240 MHz
  640x480@72Hz 4:3 HorFreq: 37900 Hz Clock: 31.500 MHz
  640x480@75Hz 4:3 HorFreq: 37500 Hz Clock: 31.500 MHz
  800x600@56Hz 4:3 HorFreq: 35200 Hz Clock: 36.000 MHz
  800x600@60Hz 4:3 HorFreq: 37900 Hz Clock: 40.000 MHz
  800x600@72Hz 4:3 HorFreq: 48100 Hz Clock: 50.000 MHz
  800x600@75Hz 4:3 HorFreq: 46900 Hz Clock: 49.500 MHz
  832x624@75Hz 4:3 HorFreq: 49726 Hz Clock: 57.284 MHz
  1024x768@60Hz 4:3 HorFreq: 48400 Hz Clock: 65.000 MHz
  1024x768@70Hz 4:3 HorFreq: 56500 Hz Clock: 75.000 MHz
  1024x768@75Hz 4:3 HorFreq: 60000 Hz Clock: 78.750 MHz
  1280x1024@75Hz 5:4 HorFreq: 80000 Hz Clock: 135.000 MHz
Standard timings supported:
  1024x768@72Hz 4:3
  1280x1024@60Hz 5:4 HorFreq: 64000 Hz Clock: 108.000 MHz
  1280x1024@70Hz 5:4
  1280x1024@72Hz 5:4
  1440x900@60Hz 16:10 HorFreq: 55500 Hz Clock: 88.750 MHz
  1280x960@60Hz 4:3 HorFreq: 60000 Hz Clock: 108.000 MHz
  1152x864@75Hz 4:3 HorFreq: 67500 Hz Clock: 108.000 MHz
Detailed mode: Clock 119.000 MHz, 526 mm x 296 mm
               1680 1728 1760 1840 hborder 0
               1050 1053 1059 1080 vborder 0
               +hsync -vsync 
               VertFreq: 59 Hz, HorFreq: 64673 Hz
Monitor ranges (GTF): 56-75Hz V, 24-80kHz H, max dotclock 170MHz
Monitor name: 2218
Serial number: --
Checksum: 0xed (valid)
