
EDID (hex):
00ffffffffffff004ca3584300000000
000d0103801e17780a87f594574f8c27
27505400000001010101010101010101
01010101010164190040410026301888
360030e4100000190000000f00000000
000000000018ee027400000000fe0044
313138350431353058430a20000000fe
00d0c8bfaf9f805f00010a20202000a1

Extracted contents:
header:          00 ff ff ff ff ff ff 00
serial number:   4c a3 58 43 00 00 00 00 00 0d
version:         01 03
basic params:    80 1e 17 78 0a
chroma info:     87 f5 94 57 4f 8c 27 27 50 54
established:     00 00 00
standard:        01 01 01 01 01 01 01 01 01 01 01 01 01 01 01 01
descriptor 1:    64 19 00 40 41 00 26 30 18 88 36 00 30 e4 10 00 00 19
descriptor 2:    00 00 00 0f 00 00 00 00 00 00 00 00 00 18 ee 02 74 00
descriptor 3:    00 00 00 fe 00 44 31 31 38 35 04 31 35 30 58 43 0a 20
descriptor 4:    00 00 00 fe 00 d0 c8 bf af 9f 80 5f 00 01 0a 20 20 20
extensions:      00
checksum:        a1

EDID version: 1.3
Manufacturer: SEC Model 4358 Serial Number --
Digital display
Maximum image size: 30 cm x 23 cm
Gamma: 2.20
RGB color display
First detailed timing is preferred timing
Display x,y Chromaticity:
  Red:   0.5800, 0.3398
  Green: 0.3095, 0.5498
  Blue:  0.1552, 0.1552
  White: 0.3134, 0.3291
Established timings supported:
Standard timings supported:
Detailed mode: Clock 65.000 MHz, 304 mm x 228 mm
               1024 1048 1184 1344 hborder 0
                768  771  777  806 vborder 0
               -hsync -vsync 
               VertFreq: 60 Hz, HorFreq: 48363 Hz
Manufacturer-specified data, tag 15
ASCII string: D1185
ASCII string: 
Checksum: 0xa1 (valid)
EDID block does NOT conform to EDID 1.3!
	Missing name descriptor
	Missing monitor ranges
	Detailed block string not properly terminated
EDID block does not conform at all!
	Bad year of manufacture
