
EDID (hex):
00ffffffffffff0026cd985301010101
02120103802b1b78eac5c6a3574a9c23
124f54b56bf07100814081809500a900
a940b30001017c2e90a0601a1e403020
3600b20e1100001a000000fd00374c1f
5311000a202020202020000000fc0050
4c453230303357530a0a0a0a000000ff
ff303539333538303235313636390075

Extracted contents:
header:          00 ff ff ff ff ff ff 00
serial number:   26 cd 98 53 01 01 01 01 02 12
version:         01 03
basic params:    80 2b 1b 78 ea
chroma info:     c5 c6 a3 57 4a 9c 23 12 4f 54
established:     b5 6b f0
standard:        71 00 81 40 81 80 95 00 a9 00 a9 40 b3 00 01 01
descriptor 1:    7c 2e 90 a0 60 1a 1e 40 30 20 36 00 b2 0e 11 00 00 1a
descriptor 2:    00 00 00 fd 00 37 4c 1f 53 11 00 0a 20 20 20 20 20 20
descriptor 3:    00 00 00 fc 00 50 4c 45 32 30 30 33 57 53 0a 0a 0a 0a
descriptor 4:    00 00 00 ff ff 30 35 39 33 35 38 30 32 35 31 36 36 39
extensions:      00
checksum:        75

EDID version: 1.3
Manufacturer: IVM Model 5398 Serial Number --
Made in week 2 of 2008
Digital display
Maximum image size: 43 cm x 27 cm
Gamma: 2.20
DPMS levels: Standby Suspend Off
RGB color display
First detailed timing is preferred timing
Display x,y Chromaticity:
  Red:   0.6396, 0.3398
  Green: 0.2900, 0.6103
  Blue:  0.1396, 0.0703
  White: 0.3095, 0.3300
Established timings supported:
  720x400@70Hz 9:5 HorFreq: 31469 Hz Clock: 28.320 MHz
  640x480@60Hz 4:3 HorFreq: 31469 Hz Clock: 25.175 MHz
  640x480@67Hz 4:3 HorFreq: 35000 Hz Clock: 30.240 MHz
  640x480@75Hz 4:3 HorFreq: 37500 Hz Clock: 31.500 MHz
  800x600@60Hz 4:3 HorFreq: 37900 Hz Clock: 40.000 MHz
  800x600@75Hz 4:3 HorFreq: 46900 Hz Clock: 49.500 MHz
  832x624@75Hz 4:3 HorFreq: 49726 Hz Clock: 57.284 MHz
  1024x768@60Hz 4:3 HorFreq: 48400 Hz Clock: 65.000 MHz
  1024x768@75Hz 4:3 HorFreq: 60000 Hz Clock: 78.750 MHz
  1280x1024@75Hz 5:4 HorFreq: 80000 Hz Clock: 135.000 MHz
  1152x870@75Hz 192:145 HorFreq: 67500 Hz Clock: 108.000 MHz
Standard timings supported:
  1152x720@60Hz 16:10
  1280x960@60Hz 4:3 HorFreq: 60000 Hz Clock: 108.000 MHz
  1280x1024@60Hz 5:4 HorFreq: 64000 Hz Clock: 108.000 MHz
  1440x900@60Hz 16:10 HorFreq: 55500 Hz Clock: 88.750 MHz
  1600x1000@60Hz 16:10
  1600x1200@60Hz 4:3 HorFreq: 75000 Hz Clock: 162.000 MHz
  1680x1050@60Hz 16:10 HorFreq: 64700 Hz Clock: 119.000 MHz
Detailed mode: Clock 119.000 MHz, 434 mm x 270 mm
               1680 1728 1760 1840 hborder 0
               1050 1053 1059 1080 vborder 0
               +hsync -vsync 
               VertFreq: 59 Hz, HorFreq: 64673 Hz
Monitor ranges (GTF): 55-76Hz V, 31-83kHz H, max dotclock 170MHz
Monitor name: PLE2003WS
Monitor descriptor block has byte 4 nonzero (0xff)
Serial number: --
Checksum: 0x75 (valid)
EDID block does NOT conform to EDID 1.3!
	Invalid descriptor block padding
	Detailed block string not properly terminated
