
EDID (hex):
00ffffffffffff0006afa71800000000
1a200104a522167802f225915758952a
1f505400000001010101010101010101
010101010101863d80c870b026406c30
aa0058d71000001a383180c870b02640
6c30aa0058d71000001a000000fe0056
59565030804231363055414e00000000
0001410299001000000a010a2020000b

edid-decode (hex):

00 ff ff ff ff ff ff 00 06 af a7 18 00 00 00 00
1a 20 01 04 a5 22 16 78 02 f2 25 91 57 58 95 2a
1f 50 54 00 00 00 01 01 01 01 01 01 01 01 01 01
01 01 01 01 01 01 86 3d 80 c8 70 b0 26 40 6c 30
aa 00 58 d7 10 00 00 1a 38 31 80 c8 70 b0 26 40
6c 30 aa 00 58 d7 10 00 00 1a 00 00 00 fe 00 56
59 56 50 30 80 42 31 36 30 55 41 4e 00 00 00 00
00 01 41 02 99 00 10 00 00 0a 01 0a 20 20 00 0b

----------------

Block 0, Base EDID:
  EDID Structure Version & Revision: 1.4
  Vendor & Product Identification:
    Manufacturer: AUO
    Model: 6311
    Made in: week 26 of 2022
  Basic Display Parameters & Features:
    Digital display
    Bits per primary color channel: 8
    DisplayPort interface
    Maximum image size: 34 cm x 22 cm
    Gamma: 2.20
    Supported color formats: RGB 4:4:4
    First detailed timing includes the native pixel format and preferred refresh rate
  Color Characteristics:
    Red  : 0.5693, 0.3427
    Green: 0.3437, 0.5839
    Blue : 0.1640, 0.1230
    White: 0.3134, 0.3291
  Established Timings I & II: none
  Standard Timings: none
  Detailed Timing Descriptors:
    DTD 1:  1920x1200   60.010059 Hz  16:10    74.292 kHz    157.500000 MHz (344 mm x 215 mm)
                 Hfront  108 Hsync  48 Hback   44 Hpol P
                 Vfront   10 Vsync  10 Vback   18 Vpol N
    DTD 2:  1920x1200   48.008047 Hz  16:10    59.434 kHz    126.000000 MHz (344 mm x 215 mm)
                 Hfront  108 Hsync  48 Hback   44 Hpol P
                 Vfront   10 Vsync  10 Vback   18 Vpol N
    Alphanumeric Data String: 'VYVP0'
    Manufacturer-Specified Display Descriptor (0x00): 00 00 00 01 41 02 99 00 10 00 00 0a 01 0a 20 20 '....A.........  '
Checksum: 0x0b
