
EDID (hex):
00ffffffffffff0006af2d3000000000
00160104951e117802c8959e57549226
0f505400000001010101010101010101
010101010101c43680b870381e401010
3e0028a6100000180000000f00000000
00000000000000000020000000fe0041
554f0a202020202020202020000000fe
004231333348414e30332e30200a0019

Extracted contents:
header:          00 ff ff ff ff ff ff 00
serial number:   06 af 2d 30 00 00 00 00 00 16
version:         01 04
basic params:    95 1e 11 78 02
chroma info:     c8 95 9e 57 54 92 26 0f 50 54
established:     00 00 00
standard:        01 01 01 01 01 01 01 01 01 01 01 01 01 01 01 01
descriptor 1:    c4 36 80 b8 70 38 1e 40 10 10 3e 00 28 a6 10 00 00 18
descriptor 2:    00 00 00 0f 00 00 00 00 00 00 00 00 00 00 00 00 00 20
descriptor 3:    00 00 00 fe 00 41 55 4f 0a 20 20 20 20 20 20 20 20 20
descriptor 4:    00 00 00 fe 00 42 31 33 33 48 41 4e 30 33 2e 30 20 0a
extensions:      00
checksum:        19

EDID version: 1.4
Manufacturer: AUO Model 302d Serial Number --
Made in year 2012
Digital display
6 bits per primary color channel
DisplayPort interface
Maximum image size: 30 cm x 17 cm
Gamma: 2.20
Supported color formats: RGB 4:4:4
First detailed timing includes the native pixel format and preferred refresh rate
Display x,y Chromaticity:
  Red:   0.6201, 0.3398
  Green: 0.3300, 0.5703
  Blue:  0.1503, 0.0595
  White: 0.3134, 0.3291
Established timings supported:
Standard timings supported:
Detailed mode: Clock 140.200 MHz, 296 mm x 166 mm
               1920 1936 1952 2104 hborder 0
               1080 1083 1097 1110 vborder 0
               -hsync -vsync 
               VertFreq: 60 Hz, HorFreq: 66634 Hz
Manufacturer-specified data, tag 15
ASCII string: AUO
ASCII string: B133HAN03.0 
Checksum: 0x19 (valid)
EDID block does NOT conform to EDID 1.4!
	Missing name descriptor
	Missing monitor ranges
