
EDID (hex):
00ffffffffffff0006af2d3000000000
001c0104a51d117803ee95a3544c9926
0f505400000001010101010101010101
010101010101b43780a070383e403a2a
350025a510000018902c80a070383e40
3a2a350025a510000018000000fe0041
554f0a202020202020202020000000fe
004231333348415430332e30200a0048

Extracted contents:
header:          00 ff ff ff ff ff ff 00
serial number:   06 af 2d 30 00 00 00 00 00 1c
version:         01 04
basic params:    a5 1d 11 78 03
chroma info:     ee 95 a3 54 4c 99 26 0f 50 54
established:     00 00 00
standard:        01 01 01 01 01 01 01 01 01 01 01 01 01 01 01 01
descriptor 1:    b4 37 80 a0 70 38 3e 40 3a 2a 35 00 25 a5 10 00 00 18
descriptor 2:    90 2c 80 a0 70 38 3e 40 3a 2a 35 00 25 a5 10 00 00 18
descriptor 3:    00 00 00 fe 00 41 55 4f 0a 20 20 20 20 20 20 20 20 20
descriptor 4:    00 00 00 fe 00 42 31 33 33 48 41 54 30 33 2e 30 20 0a
extensions:      00
checksum:        48

EDID version: 1.4
Manufacturer: AUO Model 302d Serial Number --
Made in year 2018
Digital display
8 bits per primary color channel
DisplayPort interface
Maximum image size: 29 cm x 17 cm
Gamma: 2.20
Supported color formats: RGB 4:4:4
First detailed timing includes the native pixel format and preferred refresh rate
Display is continuous frequency
Display x,y Chromaticity:
  Red:   0.6396, 0.3300
  Green: 0.2998, 0.5996
  Blue:  0.1503, 0.0595
  White: 0.3134, 0.3291
Established timings supported:
Standard timings supported:
Detailed mode: Clock 142.600 MHz, 293 mm x 165 mm
               1920 1978 2020 2080 hborder 0
               1080 1083 1088 1142 vborder 0
               -hsync -vsync 
               VertFreq: 60 Hz, HorFreq: 68557 Hz
Detailed mode: Clock 114.080 MHz, 293 mm x 165 mm
               1920 1978 2020 2080 hborder 0
               1080 1083 1088 1142 vborder 0
               -hsync -vsync 
               VertFreq: 48 Hz, HorFreq: 54846 Hz
ASCII string: AUO
ASCII string: B133HAT03.0 
Checksum: 0x48 (valid)
EDID block does NOT conform to EDID 1.4!
	Missing name descriptor
	Missing monitor ranges
