
EDID (hex):
00ffffffffffff005a632fd001010101
33180103803e22782e12d5a3574fa127
0b5054210800b300a940a9c095009040
818081408100023a801871382d40582c
45006d552100001e000000ff00553252
3134353130303234350a000000fd0039
3d185211000a202020202020000000fc
005658323835380a2020202020200095

Extracted contents:
header:          00 ff ff ff ff ff ff 00
serial number:   5a 63 2f d0 01 01 01 01 33 18
version:         01 03
basic params:    80 3e 22 78 2e
chroma info:     12 d5 a3 57 4f a1 27 0b 50 54
established:     21 08 00
standard:        b3 00 a9 40 a9 c0 95 00 90 40 81 80 81 40 81 00
descriptor 1:    02 3a 80 18 71 38 2d 40 58 2c 45 00 6d 55 21 00 00 1e
descriptor 2:    00 00 00 ff 00 55 32 52 31 34 35 31 30 30 32 34 35 0a
descriptor 3:    00 00 00 fd 00 39 3d 18 52 11 00 0a 20 20 20 20 20 20
descriptor 4:    00 00 00 fc 00 56 58 32 38 35 38 0a 20 20 20 20 20 20
extensions:      00
checksum:        95

EDID version: 1.3
Manufacturer: VSC Model d02f Serial Number --
Made in week 51 of 2014
Digital display
Maximum image size: 62 cm x 34 cm
Gamma: 2.20
DPMS levels: Off
RGB color display
Default (sRGB) color space is primary color space
First detailed timing is preferred timing
Display x,y Chromaticity:
  Red:   0.6367, 0.3408
  Green: 0.3085, 0.6308
  Blue:  0.1552, 0.0439
  White: 0.3134, 0.3291
Established timings supported:
  640x480@60Hz 4:3 HorFreq: 31469 Hz Clock: 25.175 MHz
  800x600@60Hz 4:3 HorFreq: 37900 Hz Clock: 40.000 MHz
  1024x768@60Hz 4:3 HorFreq: 48400 Hz Clock: 65.000 MHz
Standard timings supported:
  1680x1050@60Hz 16:10 HorFreq: 64700 Hz Clock: 119.000 MHz
  1600x1200@60Hz 4:3 HorFreq: 75000 Hz Clock: 162.000 MHz
  1600x900@60Hz 16:9
  1440x900@60Hz 16:10 HorFreq: 55500 Hz Clock: 88.750 MHz
  1400x1050@60Hz 4:3 HorFreq: 64700 Hz Clock: 101.000 MHz
  1280x1024@60Hz 5:4 HorFreq: 64000 Hz Clock: 108.000 MHz
  1280x960@60Hz 4:3 HorFreq: 60000 Hz Clock: 108.000 MHz
  1280x800@60Hz 16:10
Detailed mode: Clock 148.500 MHz, 621 mm x 341 mm
               1920 2008 2052 2200 hborder 0
               1080 1084 1089 1125 vborder 0
               +hsync +vsync 
               VertFreq: 60 Hz, HorFreq: 67500 Hz
Serial number: --
Monitor ranges (GTF): 57-61Hz V, 24-82kHz H, max dotclock 170MHz
Monitor name: VX2858
Checksum: 0x95 (valid)
EDID block does NOT conform to EDID 1.3!
	sRGB is signaled, but the chromaticities do not match
