
EDID (hex):
00ffffffffffff001e6d2077a8c30600
041d0104b5502178f809c1ae5044af26
0e5054210800d1c06140010101010101
010101010101e77c70a0d0a029503020
3a00204a3100001a000000fd00303d1e
874c000a202020202020000000fc004c
472048445220354b0a202020000000ff
003930344e54504344313330340a027d
02031f70230907078301000044100403
01e305c000e6060501736621e2006a9d
6770a0d0a0225030203a00204a310000
1a4dd000a0f0703e8030203500204a31
00001aa36600a0f0701f803020350020
4a3100001a0000000000000000000000
00000000000000000000000000000000
00000000000000000000000000000046
70127903000300284c1b0186ff133f01
2f801f006f083d00020009008b870006
ff139f002f801f006f081e0002000900
00000000000000000000000000000000
00000000000000000000000000000000
00000000000000000000000000000000
00000000000000000000000000000000
00000000000000000000000000004390

Extracted contents:
header:          00 ff ff ff ff ff ff 00
serial number:   1e 6d 20 77 a8 c3 06 00 04 1d
version:         01 04
basic params:    b5 50 21 78 f8
chroma info:     09 c1 ae 50 44 af 26 0e 50 54
established:     21 08 00
standard:        d1 c0 61 40 01 01 01 01 01 01 01 01 01 01 01 01
descriptor 1:    e7 7c 70 a0 d0 a0 29 50 30 20 3a 00 20 4a 31 00 00 1a
descriptor 2:    00 00 00 fd 00 30 3d 1e 87 4c 00 0a 20 20 20 20 20 20
descriptor 3:    00 00 00 fc 00 4c 47 20 48 44 52 20 35 4b 0a 20 20 20
descriptor 4:    00 00 00 ff 00 39 30 34 4e 54 50 43 44 31 33 30 34 0a
extensions:      02
checksum:        7d

EDID version: 1.4
Manufacturer: GSM Model 7720 Serial Number --
Made in week 4 of 2019
Digital display
10 bits per primary color channel
DisplayPort interface
Maximum image size: 80 cm x 33 cm
Gamma: 2.20
DPMS levels: Standby Suspend Off
Supported color formats: RGB 4:4:4, YCrCb 4:4:4, YCrCb 4:2:2
Display x,y Chromaticity:
  Red:   0.6796, 0.3125
  Green: 0.2675, 0.6845
  Blue:  0.1513, 0.0546
  White: 0.3125, 0.3291
Established timings supported:
  640x480@60Hz 4:3 HorFreq: 31469 Hz Clock: 25.175 MHz
  800x600@60Hz 4:3 HorFreq: 37900 Hz Clock: 40.000 MHz
  1024x768@60Hz 4:3 HorFreq: 48400 Hz Clock: 65.000 MHz
Standard timings supported:
  1920x1080@60Hz 16:9
  1024x768@60Hz 4:3 HorFreq: 48400 Hz Clock: 65.000 MHz
Detailed mode: Clock 319.750 MHz, 800 mm x 330 mm
               3440 3488 3520 3600 hborder 0
               1440 1443 1453 1481 vborder 0
               +hsync -vsync 
               VertFreq: 59 Hz, HorFreq: 88819 Hz
Monitor ranges (GTF): 48-61Hz V, 30-135kHz H, max dotclock 760MHz
Monitor name: LG HDR 5K
Serial number: --
Has 2 extension blocks
Checksum: 0x7d (valid)

CTA extension block
Extension version: 3
27 bytes of CTA data
  Audio data block
    Linear PCM, max channels 2
      Supported sample rates (kHz): 48 44.1 32
      Supported sample sizes (bits): 24 20 16
  Speaker allocation data block
    Speaker map:
      FL/FR - Front Left/Right
  Video data block
    VIC  16 1920x1080@60Hz 16:9  HorFreq: 67500 Hz Clock: 148.500 MHz
    VIC   4 1280x720@60Hz 16:9  HorFreq: 45000 Hz Clock: 74.250 MHz
    VIC   3 720x480@60Hz 16:9  HorFreq: 31469 Hz Clock: 27.000 MHz
    VIC   1 640x480@60Hz 4:3  HorFreq: 31469 Hz Clock: 25.175 MHz
  Extended tag: Colorimetry data block
    BT2020YCC
    BT2020RGB
  Extended tag: HDR static metadata data block
    Electro optical transfer functions:
      Traditional gamma - SDR luminance range
      SMPTE ST2084
    Supported static metadata descriptors:
      Static metadata type 1
    Desired content max luminance: 115 (603.666 cd/m^2)
    Desired content max frame-average luminance: 102 (455.515 cd/m^2)
    Desired content min luminance: 33 (0.101 cd/m^2)
  Extended tag: Video capability data block
    YCbCr quantization: No Data (0)
    RGB quantization: Selectable (via AVI Q) (1)
    PT scan behaviour: Always Underscanned (2)
    IT scan behaviour: Always Underscanned (2)
    CE scan behaviour: Always Underscanned (2)
Basic audio support
Supports YCbCr 4:4:4
Supports YCbCr 4:2:2
0 native detailed modes
Detailed mode: Clock 265.250 MHz, 800 mm x 330 mm
               3440 3488 3520 3600 hborder 0
               1440 1443 1453 1474 vborder 0
               +hsync -vsync 
               VertFreq: 49 Hz, HorFreq: 73680 Hz
Detailed mode: Clock 533.250 MHz, 800 mm x 330 mm
               3840 3888 3920 4000 hborder 0
               2160 2163 2168 2222 vborder 0
               +hsync -vsync 
               VertFreq: 59 Hz, HorFreq: 133312 Hz
Detailed mode: Clock 262.750 MHz, 800 mm x 330 mm
               3840 3888 3920 4000 hborder 0
               2160 2163 2168 2191 vborder 0
               +hsync -vsync 
               VertFreq: 29 Hz, HorFreq: 65687 Hz
Checksum: 0x46 (valid)


DisplayID extension block
Extension version: 18
Length 121, version 18, extension count 0
Checksum: 0x43 (valid)
Type 1 detailed timing: aspect: 64:27, Preferred  
Detailed mode: Clock 725.240 MHz, 0 mm x 0 mm
               5119 5166 5197 5438
               2159 2161 2170 2220
               +hsync -vsync
Type 1 detailed timing: aspect: 64:27,  
Detailed mode: Clock 346.990 MHz, 0 mm x 0 mm
               5119 5166 5197 5278
               2159 2161 2170 2189
               +hsync -vsync

Warning: One or more of the timings is out of range of the Monitor Ranges:
  Vertical Freq: 29 - 60 Hz
  Horizontal Freq: 31469 - 133312 Hz
  Maximum Clock: 533.250 MHz
EDID block does not conform at all!
	Both the serial number and the serial string are set
