
EDID (hex):
00ffffffffffff000ed4010001000000
1a100104080000008e00000000000000
000000adce0000000000000000000000
00000000000064190040410026301888
3600205600000018000000fc00437279
7374616c20566965770a000000100000
00000000000000000000000000000010
00000000000000000000000000000067

Extracted contents:
header:          00 ff ff ff ff ff ff 00
serial number:   0e d4 01 00 01 00 00 00 1a 10
version:         01 04
basic params:    08 00 00 00 8e
chroma info:     00 00 00 00 00 00 00 00 00 00
established:     ad ce 00
standard:        00 00 00 00 00 00 00 00 00 00 00 00 00 00 00 00
descriptor 1:    64 19 00 40 41 00 26 30 18 88 36 00 20 56 00 00 00 18
descriptor 2:    00 00 00 fc 00 43 72 79 73 74 61 6c 20 56 69 65 77 0a
descriptor 3:    00 00 00 10 00 00 00 00 00 00 00 00 00 00 00 00 00 00
descriptor 4:    00 00 00 10 00 00 00 00 00 00 00 00 00 00 00 00 00 00
extensions:      00
checksum:        67

EDID version: 1.4
Manufacturer: CVT Model 1 Serial Number --
Made in week 26 of 2006
Analog display, Input voltage level: 0.7/0.3 V
Blank level equals black level
Sync: Separate 
Image size is variable
Gamma: 1.00
DPMS levels: Standby
RGB color display
Default (sRGB) color space is primary color space
First detailed timing includes the native pixel format and preferred refresh rate
Display x,y Chromaticity:
  Red:   0.0000, 0.0000
  Green: 0.0000, 0.0000
  Blue:  0.0000, 0.0000
  White: 0.0000, 0.0000
Established timings supported:
  720x400@70Hz 9:5 HorFreq: 31469 Hz Clock: 28.320 MHz
  640x480@60Hz 4:3 HorFreq: 31469 Hz Clock: 25.175 MHz
  640x480@72Hz 4:3 HorFreq: 37900 Hz Clock: 31.500 MHz
  640x480@75Hz 4:3 HorFreq: 37500 Hz Clock: 31.500 MHz
  800x600@60Hz 4:3 HorFreq: 37900 Hz Clock: 40.000 MHz
  800x600@72Hz 4:3 HorFreq: 48100 Hz Clock: 50.000 MHz
  800x600@75Hz 4:3 HorFreq: 46900 Hz Clock: 49.500 MHz
  1024x768@60Hz 4:3 HorFreq: 48400 Hz Clock: 65.000 MHz
  1024x768@70Hz 4:3 HorFreq: 56500 Hz Clock: 75.000 MHz
  1024x768@75Hz 4:3 HorFreq: 60000 Hz Clock: 78.750 MHz
Standard timings supported:
non-conformant standard timing (0 horiz)
non-conformant standard timing (0 horiz)
non-conformant standard timing (0 horiz)
non-conformant standard timing (0 horiz)
non-conformant standard timing (0 horiz)
non-conformant standard timing (0 horiz)
non-conformant standard timing (0 horiz)
non-conformant standard timing (0 horiz)
Detailed mode: Clock 65.000 MHz, 32 mm x 86 mm
               1024 1048 1184 1344 hborder 0
                768  771  777  806 vborder 0
               -hsync -vsync 
               VertFreq: 60 Hz, HorFreq: 48363 Hz
Monitor name: Crystal View
Dummy block
Dummy block
Checksum: 0x67 (valid)
EDID block does NOT conform to EDID 1.4!
	sRGB is signaled, but the chromaticities do not match
	Missing monitor ranges
