
EDID (hex):
00ffffffffffff000ed4010001000000
1a100103080000008e00000000000000
000000adcf0000000000000000000000
000000000000302a009851002a403070
130020560000001e0e1f008051001e30
4080370040ce1000001ef12700a05100
2530508037007c2c1100001e000000fc
00343a330a0a0a0a0a0a0a0a0a0a0032

Extracted contents:
header:          00 ff ff ff ff ff ff 00
serial number:   0e d4 01 00 01 00 00 00 1a 10
version:         01 03
basic params:    08 00 00 00 8e
chroma info:     00 00 00 00 00 00 00 00 00 00
established:     ad cf 00
standard:        00 00 00 00 00 00 00 00 00 00 00 00 00 00 00 00
descriptor 1:    30 2a 00 98 51 00 2a 40 30 70 13 00 20 56 00 00 00 1e
descriptor 2:    0e 1f 00 80 51 00 1e 30 40 80 37 00 40 ce 10 00 00 1e
descriptor 3:    f1 27 00 a0 51 00 25 30 50 80 37 00 7c 2c 11 00 00 1e
descriptor 4:    00 00 00 fc 00 34 3a 33 0a 0a 0a 0a 0a 0a 0a 0a 0a 0a
extensions:      00
checksum:        32

EDID version: 1.3
Manufacturer: CVT Model 1 Serial Number --
Made in week 26 of 2006
Analog display, Input voltage level: 0.7/0.3 V
Sync: Separate 
Image size is variable
Gamma: 1.00
DPMS levels: Standby
RGB color display
Default (sRGB) color space is primary color space
First detailed timing is preferred timing
Display x,y Chromaticity:
  Red:   0.0000, 0.0000
  Green: 0.0000, 0.0000
  Blue:  0.0000, 0.0000
  White: 0.0000, 0.0000
Established timings supported:
  720x400@70Hz 9:5 HorFreq: 31469 Hz Clock: 28.320 MHz
  640x480@60Hz 4:3 HorFreq: 31469 Hz Clock: 25.175 MHz
  640x480@72Hz 4:3 HorFreq: 37900 Hz Clock: 31.500 MHz
  640x480@75Hz 4:3 HorFreq: 37500 Hz Clock: 31.500 MHz
  800x600@60Hz 4:3 HorFreq: 37900 Hz Clock: 40.000 MHz
  800x600@72Hz 4:3 HorFreq: 48100 Hz Clock: 50.000 MHz
  800x600@75Hz 4:3 HorFreq: 46900 Hz Clock: 49.500 MHz
  1024x768@60Hz 4:3 HorFreq: 48400 Hz Clock: 65.000 MHz
  1024x768@70Hz 4:3 HorFreq: 56500 Hz Clock: 75.000 MHz
  1024x768@75Hz 4:3 HorFreq: 60000 Hz Clock: 78.750 MHz
  1280x1024@75Hz 5:4 HorFreq: 80000 Hz Clock: 135.000 MHz
Standard timings supported:
non-conformant standard timing (0 horiz)
non-conformant standard timing (0 horiz)
non-conformant standard timing (0 horiz)
non-conformant standard timing (0 horiz)
non-conformant standard timing (0 horiz)
non-conformant standard timing (0 horiz)
non-conformant standard timing (0 horiz)
non-conformant standard timing (0 horiz)
Detailed mode: Clock 108.000 MHz, 32 mm x 86 mm
               1280 1328 1440 1688 hborder 0
               1024 1025 1028 1066 vborder 0
               +hsync +vsync 
               VertFreq: 60 Hz, HorFreq: 63981 Hz
Detailed mode: Clock 79.500 MHz, 320 mm x 206 mm
               1280 1344 1472 1664 hborder 0
                768  771  778  798 vborder 0
               +hsync +vsync 
               VertFreq: 59 Hz, HorFreq: 47776 Hz
Detailed mode: Clock 102.250 MHz, 380 mm x 300 mm
               1280 1360 1488 1696 hborder 0
                768  771  778  805 vborder 0
               +hsync +vsync 
               VertFreq: 74 Hz, HorFreq: 60288 Hz
Monitor name: 4:3
Checksum: 0x32 (valid)
EDID block does NOT conform to EDID 1.3!
	sRGB is signaled, but the chromaticities do not match
	Missing monitor ranges
	Detailed block string not properly terminated
