
EDID (hex):
00ffffffffffff0006af95eb00000000
21200104a527187803d645ad5144b026
0c505400000001010101010101010101
010101010101a26c00a0a04068603020
350083f2100000180000000f00000000
00000000000000000020000000fd0c3c
a51b1b4c010a202020202020000000fe
004231383051414e30312e31200a01b7
702079020022001457ab0b84ff099f00
2f801f003f0667000200040025010957
ab0b57ab0b3ca580810010721a000003
013ca5000053505350a5000000000000
00000000000000000000000000000000
00000000000000000000000000000000
00000000000000000000000000000000
0000000000000000000000000000e090

edid-decode (hex):

00 ff ff ff ff ff ff 00 06 af 95 eb 00 00 00 00
21 20 01 04 a5 27 18 78 03 d6 45 ad 51 44 b0 26
0c 50 54 00 00 00 01 01 01 01 01 01 01 01 01 01
01 01 01 01 01 01 a2 6c 00 a0 a0 40 68 60 30 20
35 00 83 f2 10 00 00 18 00 00 00 0f 00 00 00 00
00 00 00 00 00 00 00 00 00 20 00 00 00 fd 0c 3c
a5 1b 1b 4c 01 0a 20 20 20 20 20 20 00 00 00 fe
00 42 31 38 30 51 41 4e 30 31 2e 31 20 0a 01 b7

70 20 79 02 00 22 00 14 57 ab 0b 84 ff 09 9f 00
2f 80 1f 00 3f 06 67 00 02 00 04 00 25 01 09 57
ab 0b 57 ab 0b 3c a5 80 81 00 10 72 1a 00 00 03
01 3c a5 00 00 53 50 53 50 a5 00 00 00 00 00 00
00 00 00 00 00 00 00 00 00 00 00 00 00 00 00 00
00 00 00 00 00 00 00 00 00 00 00 00 00 00 00 00
00 00 00 00 00 00 00 00 00 00 00 00 00 00 00 00
00 00 00 00 00 00 00 00 00 00 00 00 00 00 e0 90

----------------

Block 0, Base EDID:
  EDID Structure Version & Revision: 1.4
  Vendor & Product Identification:
    Manufacturer: AUO
    Model: 60309
    Made in: week 33 of 2022
  Basic Display Parameters & Features:
    Digital display
    Bits per primary color channel: 8
    DisplayPort interface
    Maximum image size: 39 cm x 24 cm
    Gamma: 2.20
    Supported color formats: RGB 4:4:4
    First detailed timing includes the native pixel format and preferred refresh rate
    Display is continuous frequency
  Color Characteristics:
    Red  : 0.6787, 0.3173
    Green: 0.2666, 0.6894
    Blue : 0.1494, 0.0468
    White: 0.3134, 0.3291
  Established Timings I & II: none
  Standard Timings: none
  Detailed Timing Descriptors:
    DTD 1:  2560x1600   60.001553 Hz  16:10   102.243 kHz    278.100000 MHz (387 mm x 242 mm)
                 Hfront   48 Hsync  32 Hback   80 Hpol N
                 Vfront    3 Vsync   5 Vback   96 Vpol N
    Manufacturer-Specified Display Descriptor (0x0f): 00 0f 00 00 00 00 00 00 00 00 00 00 00 00 00 20 '............... '
    Display Range Limits:
      Monitor ranges (Bare Limits): 60-165 Hz V, 282-282 kHz H, max dotclock 760 MHz
    Alphanumeric Data String: 'B180QAN01.1 '
  Extension blocks: 1
Checksum: 0xb7

----------------

Block 1, DisplayID Extension Block:
  Version: 2.0
  Extension Count: 0
  Display Product Primary Use Case: None of the listed primary use cases; generic display
  Video Timing Modes Type 7 - Detailed Timings Data Block:
    DTD:  2560x1600  165.001036 Hz  16:9    281.162 kHz    764.760000 MHz (aspect 16:9, no 3D stereo, preferred)
               Hfront   48 Hsync  32 Hback   80 Hpol P
               Vfront    3 Vsync   5 Vback   96 Vpol N
  Dynamic Video Timing Range Limits Data Block:
    Minimum Pixel Clock: 764760 kHz
    Maximum Pixel Clock: 764760 kHz
    Minimum Vertical Refresh Rate: 60 Hz
    Maximum Vertical Refresh Rate: 165 Hz
    Seamless Dynamic Video Timing Support: Yes
  CTA-861 DisplayID Data Block:
  Vendor-Specific Data Block (AMD), OUI 00-00-1A:
    Version: 3.1
    Minimum Refresh Rate: 60 Hz
    Maximum Refresh Rate: 165 Hz
    Flags 1.x: 0x00
    Flags 2.x: 0x00
    Maximum luminance: 83 (301.833 cd/m^2)
    Minimum luminance: 80 (0.297 cd/m^2)
    Unknown: 0x53 0x50
  Checksum: 0xe0
Checksum: 0x90
