
EDID (hex):
00ffffffffffff0030e40a0600000000
001c0104a51d117806b2f5a5534e9b27
0c505400000001010101010101010101
0101010101012e3680a070381f403020
350026a510000019582b80a070381f40
3020350026a510000019000000fe004c
4720446973706c61790a2020000000fe
004c503133335746372d5350423100c1

Extracted contents:
header:          00 ff ff ff ff ff ff 00
serial number:   30 e4 0a 06 00 00 00 00 00 1c
version:         01 04
basic params:    a5 1d 11 78 06
chroma info:     b2 f5 a5 53 4e 9b 27 0c 50 54
established:     00 00 00
standard:        01 01 01 01 01 01 01 01 01 01 01 01 01 01 01 01
descriptor 1:    2e 36 80 a0 70 38 1f 40 30 20 35 00 26 a5 10 00 00 19
descriptor 2:    58 2b 80 a0 70 38 1f 40 30 20 35 00 26 a5 10 00 00 19
descriptor 3:    00 00 00 fe 00 4c 47 20 44 69 73 70 6c 61 79 0a 20 20
descriptor 4:    00 00 00 fe 00 4c 50 31 33 33 57 46 37 2d 53 50 42 31
extensions:      00
checksum:        c1

EDID version: 1.4
Manufacturer: LGD Model 60a Serial Number --
Made in year 2018
Digital display
8 bits per primary color channel
DisplayPort interface
Maximum image size: 29 cm x 17 cm
Gamma: 2.20
Supported color formats: RGB 4:4:4
Default (sRGB) color space is primary color space
First detailed timing includes the native pixel format and preferred refresh rate
Display x,y Chromaticity:
  Red:   0.6464, 0.3271
  Green: 0.3046, 0.6074
  Blue:  0.1552, 0.0498
  White: 0.3134, 0.3291
Established timings supported:
Standard timings supported:
Detailed mode: Clock 138.700 MHz, 294 mm x 165 mm
               1920 1968 2000 2080 hborder 0
               1080 1083 1088 1111 vborder 0
               -hsync -vsync 
               VertFreq: 60 Hz, HorFreq: 66682 Hz
Detailed mode: Clock 110.960 MHz, 294 mm x 165 mm
               1920 1968 2000 2080 hborder 0
               1080 1083 1088 1111 vborder 0
               -hsync -vsync 
               VertFreq: 48 Hz, HorFreq: 53346 Hz
ASCII string: LG Display
ASCII string: LP133WF7-SPB1
Checksum: 0xc1 (valid)
EDID block does NOT conform to EDID 1.4!
	sRGB is signaled, but the chromaticities do not match
	Missing name descriptor
	Missing monitor ranges
