
EDID (hex):
00ffffffffffff0015a90903896e0100
2c0d0103082018c6ea5c119e59479b27
10484fa14a0031594559456861598180
010101010101ea240060410028303060
130040f01000001e000000fc00655669
657720313766320a2020000000fd0032
a01e460b000a202020202020000000ff
004d5046334135303039333833330017

Extracted contents:
header:          00 ff ff ff ff ff ff 00
serial number:   15 a9 09 03 89 6e 01 00 2c 0d
version:         01 03
basic params:    08 20 18 c6 ea
chroma info:     5c 11 9e 59 47 9b 27 10 48 4f
established:     a1 4a 00
standard:        31 59 45 59 45 68 61 59 81 80 01 01 01 01 01 01
descriptor 1:    ea 24 00 60 41 00 28 30 30 60 13 00 40 f0 10 00 00 1e
descriptor 2:    00 00 00 fc 00 65 56 69 65 77 20 31 37 66 32 0a 20 20
descriptor 3:    00 00 00 fd 00 32 a0 1e 46 0b 00 0a 20 20 20 20 20 20
descriptor 4:    00 00 00 ff 00 4d 50 46 33 41 35 30 30 39 33 38 33 33
extensions:      00
checksum:        17

EDID version: 1.3
Manufacturer: EMI Model 309 Serial Number --
Analog display, Input voltage level: 0.7/0.3 V
Sync: Separate 
Maximum image size: 32 cm x 24 cm
Gamma: 2.98
DPMS levels: Standby Suspend Off
RGB color display
First detailed timing is preferred timing
Display x,y Chromaticity:
  Red:   0.6181, 0.3486
  Green: 0.2802, 0.6054
  Blue:  0.1523, 0.0634
  White: 0.2812, 0.3095
Established timings supported:
  720x400@70Hz 9:5 HorFreq: 31469 Hz Clock: 28.320 MHz
  640x480@60Hz 4:3 HorFreq: 31469 Hz Clock: 25.175 MHz
  800x600@60Hz 4:3 HorFreq: 37900 Hz Clock: 40.000 MHz
  800x600@75Hz 4:3 HorFreq: 46900 Hz Clock: 49.500 MHz
  1024x768@60Hz 4:3 HorFreq: 48400 Hz Clock: 65.000 MHz
  1024x768@75Hz 4:3 HorFreq: 60000 Hz Clock: 78.750 MHz
Standard timings supported:
  640x480@85Hz 4:3 HorFreq: 43300 Hz Clock: 36.000 MHz
  800x600@85Hz 4:3 HorFreq: 53700 Hz Clock: 56.250 MHz
  800x600@100Hz 4:3
  1024x768@85Hz 4:3 HorFreq: 68700 Hz Clock: 94.500 MHz
  1280x1024@60Hz 5:4 HorFreq: 64000 Hz Clock: 108.000 MHz
Detailed mode: Clock 94.500 MHz, 320 mm x 240 mm
               1024 1072 1168 1376 hborder 0
                768  769  772  808 vborder 0
               +hsync +vsync 
               VertFreq: 84 Hz, HorFreq: 68677 Hz
Monitor name: eView 17f2
Monitor ranges (GTF): 50-160Hz V, 30-70kHz H, max dotclock 110MHz
Serial number: --
Checksum: 0x17 (valid)
EDID block does not conform at all!
	Bad year of manufacture
