
EDID (hex):
00ffffffffffff004493250000000000
000f0103801e17780a58209753509023
1e505400000001010101010101010101
01010101010164190040410026301888
360030e4100000190000000f0004c02e
c00211111176c0126301000000fe0051
55414e5441444953504c4159000000fe
0051443135584c3036330a2020200002

Extracted contents:
header:          00 ff ff ff ff ff ff 00
serial number:   44 93 25 00 00 00 00 00 00 0f
version:         01 03
basic params:    80 1e 17 78 0a
chroma info:     58 20 97 53 50 90 23 1e 50 54
established:     00 00 00
standard:        01 01 01 01 01 01 01 01 01 01 01 01 01 01 01 01
descriptor 1:    64 19 00 40 41 00 26 30 18 88 36 00 30 e4 10 00 00 19
descriptor 2:    00 00 00 0f 00 04 c0 2e c0 02 11 11 11 76 c0 12 63 01
descriptor 3:    00 00 00 fe 00 51 55 41 4e 54 41 44 49 53 50 4c 41 59
descriptor 4:    00 00 00 fe 00 51 44 31 35 58 4c 30 36 33 0a 20 20 20
extensions:      00
checksum:        02

EDID version: 1.3
Manufacturer: QDS Model 25 Serial Number --
Digital display
Maximum image size: 30 cm x 23 cm
Gamma: 2.20
RGB color display
First detailed timing is preferred timing
Display x,y Chromaticity:
  Red:   0.5908, 0.3251
  Green: 0.3144, 0.5625
  Blue:  0.1367, 0.1191
  White: 0.3125, 0.3281
Established timings supported:
Standard timings supported:
Detailed mode: Clock 65.000 MHz, 304 mm x 228 mm
               1024 1048 1184 1344 hborder 0
                768  771  777  806 vborder 0
               -hsync -vsync 
               VertFreq: 60 Hz, HorFreq: 48363 Hz
Manufacturer-specified data, tag 15
ASCII string: QUANTADISPLAY
ASCII string: QD15XL063
Checksum: 0x2 (valid)
EDID block does NOT conform to EDID 1.3!
	Missing name descriptor
	Missing monitor ranges
EDID block does not conform at all!
	Bad year of manufacture
