edid-decode (hex):

00 ff ff ff ff ff ff 00 38 69 11 50 2f 63 00 00
26 0c 01 03 0c 20 18 64 e8 13 28 a7 52 48 9d 24
0e 48 4c a5 42 00 31 59 45 59 61 59 81 80 01 01
01 01 01 01 01 01 5e 1a 20 00 31 58 27 20 28 50
34 00 40 f0 10 00 00 1e 00 00 00 fd 00 32 96 1e
46 ff 00 0a 20 20 20 20 20 20 00 00 00 ff 00 30
30 30 32 35 33 39 31 33 30 33 34 0a 00 00 00 fc
00 4e 45 43 20 43 49 20 41 37 32 37 0a 20 00 87

00 ff ff ff ff ff ff 00 38 69 11 50 2f 63 00 00
26 0c 01 03 0c 20 18 64 e8 13 28 a7 52 48 9d 24
0e 48 4c a5 42 00 31 59 45 59 61 59 81 80 01 01
01 01 01 01 01 01 5e 1a 20 00 31 58 27 20 28 50
34 00 40 f0 10 00 00 1e 00 00 00 fd 00 32 96 1e
46 ff 00 0a 20 20 20 20 20 20 00 00 00 ff 00 30
30 30 32 35 33 39 31 33 30 33 34 0a 00 00 00 fc
00 4e 45 43 20 43 49 20 41 37 32 37 0a 20 00 87

----------------

Block 0, Base EDID:
  EDID Structure Version & Revision: 1.3
  Vendor & Product Identification:
    Manufacturer: NCI
    Model: 20497
    Serial Number: ...
    Made in: week 38 of 2002
  Basic Display Parameters & Features:
    Analog display
    Signal Level Standard: 0.700 : 0.300 : 1.000 V p-p
    Blank level equals black level
    Sync: Separate Composite
    Maximum image size: 32 cm x 24 cm
    Gamma: 2.00
    DPMS levels: Standby Suspend Off
    RGB color display
  Color Characteristics:
    Red  : 0.6523, 0.3212
    Green: 0.2812, 0.6162
    Blue : 0.1406, 0.0566
    White: 0.2832, 0.2968
  Established Timings I & II:
    IBM     :   720x400    70.081663 Hz   9:5     31.467 kHz     28.320000 MHz
    DMT 0x04:   640x480    59.940476 Hz   4:3     31.469 kHz     25.175000 MHz
    DMT 0x06:   640x480    75.000000 Hz   4:3     37.500 kHz     31.500000 MHz
    DMT 0x09:   800x600    60.316541 Hz   4:3     37.879 kHz     40.000000 MHz
    DMT 0x0b:   800x600    75.000000 Hz   4:3     46.875 kHz     49.500000 MHz
    DMT 0x12:  1024x768    75.028582 Hz   4:3     60.023 kHz     78.750000 MHz
  Standard Timings:
    DMT 0x07:   640x480    85.008312 Hz   4:3     43.269 kHz     36.000000 MHz
    DMT 0x0c:   800x600    85.061274 Hz   4:3     53.674 kHz     56.250000 MHz
    DMT 0x13:  1024x768    84.996690 Hz   4:3     68.677 kHz     94.500000 MHz
    DMT 0x23:  1280x1024   60.019740 Hz   5:4     63.981 kHz    108.000000 MHz
  Detailed Timing Descriptors:
    DTD 1:   800x600   100.032010 Hz   4:3     63.920 kHz     67.500000 MHz (320 mm x 240 mm)
                 Hfront   40 Hsync  80 Hback  136 Hpol P
                 Vfront    3 Vsync   4 Vback   32 Vpol P
    Display Range Limits:
      Monitor ranges (GTF): 50-150 Hz V, 30-70 kHz H, max dotclock 2550 MHz
    Display Product Serial Number: ...
    Display Product Name: 'NEC CI A727'
Checksum: 0x87

----------------

Block 1, Unknown EDID Extension Block 0x00:
  00 ff ff ff ff ff ff 00 38 69 11 50 2f 63 00 00 '........8i.P/c..'
  26 0c 01 03 0c 20 18 64 e8 13 28 a7 52 48 9d 24 '&.... .d..(.RH.$'
  0e 48 4c a5 42 00 31 59 45 59 61 59 81 80 01 01 '.HL.B.1YEYaY....'
  01 01 01 01 01 01 5e 1a 20 00 31 58 27 20 28 50 '......^. .1X' (P'
  34 00 40 f0 10 00 00 1e 00 00 00 fd 00 32 96 1e '4.@..........2..'
  46 ff 00 0a 20 20 20 20 20 20 00 00 00 ff 00 30 'F...      .....0'
  30 30 32 35 33 39 31 33 30 33 34 0a 00 00 00 fc '00253913034.....'
  00 4e 45 43 20 43 49 20 41 37 32 37 0a 20 00 87 '.NEC CI A727. ..'
Checksum: 0x87

----------------

Failures:

Block 0, Base EDID:
  Basic Display Parameters & Features: EDID 1.3 requires that the first detailed timing is the preferred timing.
Block 1, Base EDID:
  Unknown Extension Block.
EDID:
  Base EDID: EDID specified 0 extension block(s), but found 1 extension block(s).

EDID conformity: FAIL
