
EDID (hex):
00ffffffffffff000e14b61400000000
07140103802213780a4e4d9e57549126
0f5054000000fe00434c414131353657
413037410000aa375668500028301414
360058c1100000180433566850002830
1414360058c110000018682e56685000
28301414360058c110000018641b5654
500026303b275a0058c1100000180002

Extracted contents:
header:          00 ff ff ff ff ff ff 00
serial number:   0e 14 b6 14 00 00 00 00 07 14
version:         01 03
basic params:    80 22 13 78 0a
chroma info:     4e 4d 9e 57 54 91 26 0f 50 54
established:     00 00 00
standard:        fe 00 43 4c 41 41 31 35 36 57 41 30 37 41 00 00
descriptor 1:    aa 37 56 68 50 00 28 30 14 14 36 00 58 c1 10 00 00 18
descriptor 2:    04 33 56 68 50 00 28 30 14 14 36 00 58 c1 10 00 00 18
descriptor 3:    68 2e 56 68 50 00 28 30 14 14 36 00 58 c1 10 00 00 18
descriptor 4:    64 1b 56 54 50 00 26 30 3b 27 5a 00 58 c1 10 00 00 18
extensions:      00
checksum:        02

EDID version: 1.3
Manufacturer: CPT Model 14b6 Serial Number --
Made in week 7 of 2010
Digital display
Maximum image size: 34 cm x 19 cm
Gamma: 2.20
RGB color display
First detailed timing is preferred timing
Display x,y Chromaticity:
  Red:   0.6181, 0.3398
  Green: 0.3310, 0.5683
  Blue:  0.1494, 0.0585
  White: 0.3154, 0.3291
Established timings supported:
Standard timings supported:
  2280x1425@60Hz 16:10
  784x588@72Hz 4:3
  768x576@61Hz 4:3
  640x400@113Hz 16:10
  680x510@83Hz 4:3
  768x480@108Hz 16:10
  688x516@61Hz 4:3
non-conformant standard timing (0 horiz)
Detailed mode: Clock 142.500 MHz, 344 mm x 193 mm
               1366 1386 1406 1470 hborder 0
                768  771  777  808 vborder 0
               -hsync -vsync 
               VertFreq: 119 Hz, HorFreq: 96938 Hz
Detailed mode: Clock 130.600 MHz, 344 mm x 193 mm
               1366 1386 1406 1470 hborder 0
                768  771  777  808 vborder 0
               -hsync -vsync 
               VertFreq: 109 Hz, HorFreq: 88843 Hz
Detailed mode: Clock 118.800 MHz, 344 mm x 193 mm
               1366 1386 1406 1470 hborder 0
                768  771  777  808 vborder 0
               -hsync -vsync 
               VertFreq: 100 Hz, HorFreq: 80816 Hz
Detailed mode: Clock 70.120 MHz, 344 mm x 193 mm
               1366 1425 1464 1450 hborder 0
                768  773  783  806 vborder 0
               -hsync -vsync 
               VertFreq: 59 Hz, HorFreq: 48358 Hz
Checksum: 0x2 (valid)
EDID block does NOT conform to EDID 1.3!
	Missing name descriptor
	Missing monitor ranges
