
EDID (hex):
00ffffffffffff0006b32e3401010101
1f200104b55022783b0db5ae5142ae24
0c5054afef00714f81c0810081409500
a940b3003b80e77c70a0d0a029503020
3a00204f3100001a000000fd003078b9
b93c010a202020202020000000fc0050
413334384347560a20202020000000ff
004e374c4d51533135383332300a0223
020331f1484c10450444134b1f230907
0783010000e305e000e6060701626200
6d1a0000020b3078000767096708e200
6a333600c05100304058883700204f31
00001a8a9d70a4d0a0345030243a0020
4f3100001a4ed470a0d0a04650304088
0c204f3100001a565e00a0a0a0295030
203500204f3100001a0000000000000b
701279030003013c520101066f0d9f00
2f801f009f055400020009003b410001
b7069f004f801f009f0528001b000900
9c6700066f0d9f004f801f009f052100
14000900000000000000000000000000
00000000000000000000000000000000
00000000000000000000000000000000
00000000000000000000000000004190

edid-decode (hex):

00 ff ff ff ff ff ff 00 06 b3 2e 34 01 01 01 01
1f 20 01 04 b5 50 22 78 3b 0d b5 ae 51 42 ae 24
0c 50 54 af ef 00 71 4f 81 c0 81 00 81 40 95 00
a9 40 b3 00 3b 80 e7 7c 70 a0 d0 a0 29 50 30 20
3a 00 20 4f 31 00 00 1a 00 00 00 fd 00 30 78 b9
b9 3c 01 0a 20 20 20 20 20 20 00 00 00 fc 00 50
41 33 34 38 43 47 56 0a 20 20 20 20 00 00 00 ff
00 4e 37 4c 4d 51 53 31 35 38 33 32 30 0a 02 23

02 03 31 f1 48 4c 10 45 04 44 13 4b 1f 23 09 07
07 83 01 00 00 e3 05 e0 00 e6 06 07 01 62 62 00
6d 1a 00 00 02 0b 30 78 00 07 67 09 67 08 e2 00
6a 33 36 00 c0 51 00 30 40 58 88 37 00 20 4f 31
00 00 1a 8a 9d 70 a4 d0 a0 34 50 30 24 3a 00 20
4f 31 00 00 1a 4e d4 70 a0 d0 a0 46 50 30 40 88
0c 20 4f 31 00 00 1a 56 5e 00 a0 a0 a0 29 50 30
20 35 00 20 4f 31 00 00 1a 00 00 00 00 00 00 0b

70 12 79 03 00 03 01 3c 52 01 01 06 6f 0d 9f 00
2f 80 1f 00 9f 05 54 00 02 00 09 00 3b 41 00 01
b7 06 9f 00 4f 80 1f 00 9f 05 28 00 1b 00 09 00
9c 67 00 06 6f 0d 9f 00 4f 80 1f 00 9f 05 21 00
14 00 09 00 00 00 00 00 00 00 00 00 00 00 00 00
00 00 00 00 00 00 00 00 00 00 00 00 00 00 00 00
00 00 00 00 00 00 00 00 00 00 00 00 00 00 00 00
00 00 00 00 00 00 00 00 00 00 00 00 00 00 41 90

----------------

Block 0, Base EDID:
  EDID Structure Version & Revision: 1.4
  Vendor & Product Identification:
    Manufacturer: AUS
    Model: 13358
    Serial Number: 16843009
    Made in: week 31 of 2022
  Basic Display Parameters & Features:
    Digital display
    Bits per primary color channel: 10
    DisplayPort interface
    Maximum image size: 80 cm x 34 cm
    Gamma: 2.20
    DPMS levels: Off
    Supported color formats: RGB 4:4:4, YCrCb 4:4:4, YCrCb 4:2:2
    First detailed timing includes the native pixel format and preferred refresh rate
    Display is continuous frequency
  Color Characteristics:
    Red  : 0.6796, 0.3164
    Green: 0.2607, 0.6806
    Blue : 0.1425, 0.0498
    White: 0.3134, 0.3291
  Established Timings I & II:
    IBM     :   720x400    70.081663 Hz   9:5     31.467 kHz     28.320000 MHz
    DMT 0x04:   640x480    59.940476 Hz   4:3     31.469 kHz     25.175000 MHz
    DMT 0x05:   640x480    72.808802 Hz   4:3     37.861 kHz     31.500000 MHz
    DMT 0x06:   640x480    75.000000 Hz   4:3     37.500 kHz     31.500000 MHz
    DMT 0x08:   800x600    56.250000 Hz   4:3     35.156 kHz     36.000000 MHz
    DMT 0x09:   800x600    60.316541 Hz   4:3     37.879 kHz     40.000000 MHz
    DMT 0x0a:   800x600    72.187572 Hz   4:3     48.077 kHz     50.000000 MHz
    DMT 0x0b:   800x600    75.000000 Hz   4:3     46.875 kHz     49.500000 MHz
    Apple   :   832x624    74.551266 Hz   4:3     49.726 kHz     57.284000 MHz
    DMT 0x10:  1024x768    60.003840 Hz   4:3     48.363 kHz     65.000000 MHz
    DMT 0x11:  1024x768    70.069359 Hz   4:3     56.476 kHz     75.000000 MHz
    DMT 0x12:  1024x768    75.028582 Hz   4:3     60.023 kHz     78.750000 MHz
    DMT 0x24:  1280x1024   75.024675 Hz   5:4     79.976 kHz    135.000000 MHz
  Standard Timings:
    DMT 0x15:  1152x864    75.000000 Hz   4:3     67.500 kHz    108.000000 MHz
    DMT 0x55:  1280x720    60.000000 Hz  16:9     45.000 kHz     74.250000 MHz
    DMT 0x1c:  1280x800    59.810326 Hz  16:10    49.702 kHz     83.500000 MHz
    DMT 0x20:  1280x960    60.000000 Hz   4:3     60.000 kHz    108.000000 MHz
    DMT 0x2f:  1440x900    59.887445 Hz  16:10    55.935 kHz    106.500000 MHz
    DMT 0x33:  1600x1200   60.000000 Hz   4:3     75.000 kHz    162.000000 MHz
    DMT 0x3a:  1680x1050   59.954250 Hz  16:10    65.290 kHz    146.250000 MHz
    GTF     :   720x576    60.000294 Hz   5:4     35.820 kHz     32.668000 MHz
  Detailed Timing Descriptors:
    DTD 1:  3440x1440   59.972616 Hz  43:18    88.819 kHz    319.750000 MHz (800 mm x 335 mm)
                 Hfront   48 Hsync  32 Hback   80 Hpol P
                 Vfront    3 Vsync  10 Vback   28 Vpol N
    Display Range Limits:
      Monitor ranges (Bare Limits): 48-120 Hz V, 185-185 kHz H, max dotclock 600 MHz
    Display Product Name: 'PA348CGV'
    Display Product Serial Number: 'N7LMQS158320'
  Extension blocks: 2
Checksum: 0x23

----------------

Block 1, CTA-861 Extension Block:
  Revision: 3
  Underscans IT Video Formats by default
  Basic audio support
  Supports YCbCr 4:4:4
  Supports YCbCr 4:2:2
  Native detailed modes: 1
  Video Data Block:
    VIC  76:  1920x1080   60.000000 Hz  64:27    67.500 kHz    148.500000 MHz
    VIC  16:  1920x1080   60.000000 Hz  16:9     67.500 kHz    148.500000 MHz
    VIC  69:  1280x720    60.000000 Hz  64:27    45.000 kHz     74.250000 MHz
    VIC   4:  1280x720    60.000000 Hz  16:9     45.000 kHz     74.250000 MHz
    VIC  68:  1280x720    50.000000 Hz  64:27    37.500 kHz     74.250000 MHz
    VIC  19:  1280x720    50.000000 Hz  16:9     37.500 kHz     74.250000 MHz
    VIC  75:  1920x1080   50.000000 Hz  64:27    56.250 kHz    148.500000 MHz
    VIC  31:  1920x1080   50.000000 Hz  16:9     56.250 kHz    148.500000 MHz
  Audio Data Block:
    Linear PCM:
      Max channels: 2
      Supported sample rates (kHz): 48 44.1 32
      Supported sample sizes (bits): 24 20 16
  Speaker Allocation Data Block:
    FL/FR - Front Left/Right
  Colorimetry Data Block:
    BT2020cYCC
    BT2020YCC
    BT2020RGB
  HDR Static Metadata Data Block:
    Electro optical transfer functions:
      Traditional gamma - SDR luminance range
      Traditional gamma - HDR luminance range
      SMPTE ST2084
    Supported static metadata descriptors:
      Static metadata type 1
    Desired content max luminance: 98 (417.710 cd/m^2)
    Desired content max frame-average luminance: 98 (417.710 cd/m^2)
    Desired content min luminance: 0 (0.000 cd/m^2)
  Vendor-Specific Data Block (AMD), OUI 00-00-1A:
    Version: 2.11
    Minimum Refresh Rate: 48 Hz
    Maximum Refresh Rate: 120 Hz
    Flags 1.x: 0x00
    Flags 2.x: 0x07
    Maximum luminance: 103 (465.490 cd/m^2)
    Minimum luminance: 9 (0.006 cd/m^2)
    Maximum luminance (without local dimming): 103 (465.490 cd/m^2)
    Minimum luminance (without local dimming): 8 (0.005 cd/m^2)
  Video Capability Data Block:
    YCbCr quantization: No Data
    RGB quantization: Selectable (via AVI Q)
    PT scan behavior: Always Underscanned
    IT scan behavior: Always Underscanned
    CE scan behavior: Always Underscanned
  Detailed Timing Descriptors:
    DTD 2:  1280x1024   74.902182 Hz   5:4     80.295 kHz    138.750000 MHz (800 mm x 335 mm)
                 Hfront   88 Hsync 136 Hback  224 Hpol P
                 Vfront    3 Vsync   7 Vback   38 Vpol N
    DTD 3:  3440x1440   75.002306 Hz  43:18   111.903 kHz    403.300000 MHz (800 mm x 335 mm)
                 Hfront   48 Hsync  36 Hback   80 Hpol P
                 Vfront    3 Vsync  10 Vback   39 Vpol N
    DTD 4:  3440x1440   99.981604 Hz  43:18   150.972 kHz    543.500000 MHz (800 mm x 335 mm)
                 Hfront   48 Hsync  64 Hback   48 Hpol P
                 Vfront   56 Vsync   8 Vback    6 Vpol N
    DTD 5:  2560x1440   59.950550 Hz  16:9     88.787 kHz    241.500000 MHz (800 mm x 335 mm)
                 Hfront   48 Hsync  32 Hback   80 Hpol P
                 Vfront    3 Vsync   5 Vback   33 Vpol N
Checksum: 0x0b  Unused space in Extension Block: 6 bytes

----------------

Block 2, DisplayID Extension Block:
  Version: 1.2
  Extension Count: 0
  Display Product Type: Standalone display device
  Video Timing Modes Type 1 - Detailed Timings Data Block:
    DTD:  3440x1440  119.990893 Hz  64:27   182.986 kHz    658.750000 MHz (aspect 64:27, no 3D stereo)
               Hfront   48 Hsync  32 Hback   80 Hpol P
               Vfront    3 Vsync  10 Vback   72 Vpol N
    DTD:  1720x1440   59.979600 Hz   5:4     88.830 kHz    167.000000 MHz (aspect 5:4, no 3D stereo)
               Hfront   80 Hsync  32 Hback   48 Hpol P
               Vfront   28 Vsync  10 Vback    3 Vpol N
    DTD:  3440x1440   49.986808 Hz  64:27    73.681 kHz    265.250000 MHz (aspect 64:27, no 3D stereo)
               Hfront   80 Hsync  32 Hback   48 Hpol P
               Vfront   21 Vsync  10 Vback    3 Vpol N
  Checksum: 0x41
Checksum: 0x90
