
EDID (hex):
00ffffffffffff0026cd0356f9f80000
30110103683120782a9510a65444a125
145054bfef80714f81808140814f810f
95009040b30021399030621a274068b0
3600ea401100001c000000ff00303538
38344337423633373337000000fd0037
4b1e5011000a202020202020000000fc
00504c32323032570a20202020200009

Extracted contents:
header:          00 ff ff ff ff ff ff 00
serial number:   26 cd 03 56 f9 f8 00 00 30 11
version:         01 03
basic params:    68 31 20 78 2a
chroma info:     95 10 a6 54 44 a1 25 14 50 54
established:     bf ef 80
standard:        71 4f 81 80 81 40 81 4f 81 0f 95 00 90 40 b3 00
descriptor 1:    21 39 90 30 62 1a 27 40 68 b0 36 00 ea 40 11 00 00 1c
descriptor 2:    00 00 00 ff 00 30 35 38 38 34 43 37 42 36 33 37 33 37
descriptor 3:    00 00 00 fd 00 37 4b 1e 50 11 00 0a 20 20 20 20 20 20
descriptor 4:    00 00 00 fc 00 50 4c 32 32 30 32 57 0a 20 20 20 20 20
extensions:      00
checksum:        09

EDID version: 1.3
Manufacturer: IVM Model 5603 Serial Number --
Made in week 48 of 2007
Analog display, Input voltage level: 0.7/0.7 V
Sync: Separate 
Maximum image size: 49 cm x 32 cm
Gamma: 2.20
DPMS levels: Off
RGB color display
First detailed timing is preferred timing
Display x,y Chromaticity:
  Red:   0.6503, 0.3291
  Green: 0.2666, 0.6298
  Blue:  0.1445, 0.0791
  White: 0.3125, 0.3281
Established timings supported:
  720x400@70Hz 9:5 HorFreq: 31469 Hz Clock: 28.320 MHz
  640x480@60Hz 4:3 HorFreq: 31469 Hz Clock: 25.175 MHz
  640x480@67Hz 4:3 HorFreq: 35000 Hz Clock: 30.240 MHz
  640x480@72Hz 4:3 HorFreq: 37900 Hz Clock: 31.500 MHz
  640x480@75Hz 4:3 HorFreq: 37500 Hz Clock: 31.500 MHz
  800x600@56Hz 4:3 HorFreq: 35200 Hz Clock: 36.000 MHz
  800x600@60Hz 4:3 HorFreq: 37900 Hz Clock: 40.000 MHz
  800x600@72Hz 4:3 HorFreq: 48100 Hz Clock: 50.000 MHz
  800x600@75Hz 4:3 HorFreq: 46900 Hz Clock: 49.500 MHz
  832x624@75Hz 4:3 HorFreq: 49726 Hz Clock: 57.284 MHz
  1024x768@60Hz 4:3 HorFreq: 48400 Hz Clock: 65.000 MHz
  1024x768@70Hz 4:3 HorFreq: 56500 Hz Clock: 75.000 MHz
  1024x768@75Hz 4:3 HorFreq: 60000 Hz Clock: 78.750 MHz
  1280x1024@75Hz 5:4 HorFreq: 80000 Hz Clock: 135.000 MHz
  1152x870@75Hz 192:145 HorFreq: 67500 Hz Clock: 108.000 MHz
Standard timings supported:
  1152x864@75Hz 4:3 HorFreq: 67500 Hz Clock: 108.000 MHz
  1280x1024@60Hz 5:4 HorFreq: 64000 Hz Clock: 108.000 MHz
  1280x960@60Hz 4:3 HorFreq: 60000 Hz Clock: 108.000 MHz
  1280x960@75Hz 4:3
  1280x800@75Hz 16:10
  1440x900@60Hz 16:10 HorFreq: 55500 Hz Clock: 88.750 MHz
  1400x1050@60Hz 4:3 HorFreq: 64700 Hz Clock: 101.000 MHz
  1680x1050@60Hz 16:10 HorFreq: 64700 Hz Clock: 119.000 MHz
Detailed mode: Clock 146.250 MHz, 490 mm x 320 mm
               1680 1784 1960 2240 hborder 0
               1050 1053 1059 1089 vborder 0
               -hsync +vsync 
               VertFreq: 59 Hz, HorFreq: 65290 Hz
Serial number: --
Monitor ranges (GTF): 55-75Hz V, 30-80kHz H, max dotclock 170MHz
Monitor name: PL2202W
Checksum: 0x9 (valid)
