
EDID (hex):
00ffffffffffff0009d1497845540000
32130104a5291778263d85a6564a9a24
125054a56b90710081c081cf810f0101
0101010101019a29a0d0518422305098
630098ff1000001e000000ff00424339
30303732363032360a20000000fd0032
4b183f10000a202020202020000000fc
0042656e51204739323057410a200096

Extracted contents:
header:          00 ff ff ff ff ff ff 00
serial number:   09 d1 49 78 45 54 00 00 32 13
version:         01 04
basic params:    a5 29 17 78 26
chroma info:     3d 85 a6 56 4a 9a 24 12 50 54
established:     a5 6b 90
standard:        71 00 81 c0 81 cf 81 0f 01 01 01 01 01 01 01 01
descriptor 1:    9a 29 a0 d0 51 84 22 30 50 98 63 00 98 ff 10 00 00 1e
descriptor 2:    00 00 00 ff 00 42 43 39 30 30 37 32 36 30 32 36 0a 20
descriptor 3:    00 00 00 fd 00 32 4b 18 3f 10 00 0a 20 20 20 20 20 20
descriptor 4:    00 00 00 fc 00 42 65 6e 51 20 47 39 32 30 57 41 0a 20
extensions:      00
checksum:        96

EDID version: 1.4
Manufacturer: BNQ Model 7849 Serial Number --
Made in week 50 of 2009
Digital display
8 bits per primary color channel
DisplayPort interface
Maximum image size: 41 cm x 23 cm
Gamma: 2.20
DPMS levels: Off
Supported color formats: RGB 4:4:4
Default (sRGB) color space is primary color space
First detailed timing includes the native pixel format and preferred refresh rate
Display x,y Chromaticity:
  Red:   0.6484, 0.3388
  Green: 0.2919, 0.6025
  Blue:  0.1425, 0.0703
  White: 0.3134, 0.3291
Established timings supported:
  720x400@70Hz 9:5 HorFreq: 31469 Hz Clock: 28.320 MHz
  640x480@60Hz 4:3 HorFreq: 31469 Hz Clock: 25.175 MHz
  640x480@75Hz 4:3 HorFreq: 37500 Hz Clock: 31.500 MHz
  800x600@60Hz 4:3 HorFreq: 37900 Hz Clock: 40.000 MHz
  800x600@75Hz 4:3 HorFreq: 46900 Hz Clock: 49.500 MHz
  832x624@75Hz 4:3 HorFreq: 49726 Hz Clock: 57.284 MHz
  1024x768@60Hz 4:3 HorFreq: 48400 Hz Clock: 65.000 MHz
  1024x768@75Hz 4:3 HorFreq: 60000 Hz Clock: 78.750 MHz
  1280x1024@75Hz 5:4 HorFreq: 80000 Hz Clock: 135.000 MHz
  1152x870@75Hz 192:145 HorFreq: 67500 Hz Clock: 108.000 MHz
Standard timings supported:
  1152x720@60Hz 16:10
  1280x720@60Hz 16:9
  1280x720@75Hz 16:9
  1280x800@75Hz 16:10
Detailed mode: Clock 106.500 MHz, 408 mm x 255 mm
               1440 1520 1672 1904 hborder 0
                900  906  909  934 vborder 0
               +hsync +vsync 
               VertFreq: 59 Hz, HorFreq: 55934 Hz
Serial number: --
Monitor ranges (GTF): 50-75Hz V, 24-63kHz H, max dotclock 160MHz
Monitor name: BenQ G920WA
Checksum: 0x96 (valid)
EDID block does NOT conform to EDID 1.4!
	sRGB is signaled, but the chromaticities do not match
Warning: One or more of the timings is out of range of the Monitor Ranges:
  Vertical Freq: 59 - 75 Hz
  Horizontal Freq: 31469 - 80000 Hz
  Maximum Clock: 135.000 MHz
