
EDID (hex):
00ffffffffffff000469a42201010101
0d1201030c2f1d78efee91a3544c9926
0f5054af4f0081808140950f9500714f
8bc0b300010121399030621a274068b0
3600b10e1100001c000000fd00374b1e
50100200205058028028000000ff0038
334c4d4d533033313339310a000000fc
0041535553204d4b3232310a202000ab

Extracted contents:
header:          00 ff ff ff ff ff ff 00
serial number:   04 69 a4 22 01 01 01 01 0d 12
version:         01 03
basic params:    0c 2f 1d 78 ef
chroma info:     ee 91 a3 54 4c 99 26 0f 50 54
established:     af 4f 00
standard:        81 80 81 40 95 0f 95 00 71 4f 8b c0 b3 00 01 01
descriptor 1:    21 39 90 30 62 1a 27 40 68 b0 36 00 b1 0e 11 00 00 1c
descriptor 2:    00 00 00 fd 00 37 4b 1e 50 10 02 00 20 50 58 02 80 28
descriptor 3:    00 00 00 ff 00 38 33 4c 4d 4d 53 30 33 31 33 39 31 0a
descriptor 4:    00 00 00 fc 00 41 53 55 53 20 4d 4b 32 32 31 0a 20 20
extensions:      00
checksum:        ab

EDID version: 1.3
Manufacturer: ACI Model 22a4 Serial Number --
Made in week 13 of 2008
Analog display, Input voltage level: 0.7/0.3 V
Sync: Separate Composite 
Maximum image size: 47 cm x 29 cm
Gamma: 2.20
DPMS levels: Standby Suspend Off
RGB color display
Default (sRGB) color space is primary color space
First detailed timing is preferred timing
Supports GTF timings within operating range
Display x,y Chromaticity:
  Red:   0.6396, 0.3300
  Green: 0.2998, 0.5996
  Blue:  0.1503, 0.0595
  White: 0.3125, 0.3291
Established timings supported:
  720x400@70Hz 9:5 HorFreq: 31469 Hz Clock: 28.320 MHz
  640x480@60Hz 4:3 HorFreq: 31469 Hz Clock: 25.175 MHz
  640x480@72Hz 4:3 HorFreq: 37900 Hz Clock: 31.500 MHz
  640x480@75Hz 4:3 HorFreq: 37500 Hz Clock: 31.500 MHz
  800x600@56Hz 4:3 HorFreq: 35200 Hz Clock: 36.000 MHz
  800x600@60Hz 4:3 HorFreq: 37900 Hz Clock: 40.000 MHz
  800x600@75Hz 4:3 HorFreq: 46900 Hz Clock: 49.500 MHz
  1024x768@60Hz 4:3 HorFreq: 48400 Hz Clock: 65.000 MHz
  1024x768@70Hz 4:3 HorFreq: 56500 Hz Clock: 75.000 MHz
  1024x768@75Hz 4:3 HorFreq: 60000 Hz Clock: 78.750 MHz
  1280x1024@75Hz 5:4 HorFreq: 80000 Hz Clock: 135.000 MHz
Standard timings supported:
  1280x1024@60Hz 5:4 HorFreq: 64000 Hz Clock: 108.000 MHz
  1280x960@60Hz 4:3 HorFreq: 60000 Hz Clock: 108.000 MHz
  1440x900@75Hz 16:10 HorFreq: 82300 Hz Clock: 156.000 MHz
  1440x900@60Hz 16:10 HorFreq: 55500 Hz Clock: 88.750 MHz
  1152x864@75Hz 4:3 HorFreq: 67500 Hz Clock: 108.000 MHz
  1360x765@60Hz 16:9
  1680x1050@60Hz 16:10 HorFreq: 64700 Hz Clock: 119.000 MHz
Detailed mode: Clock 146.250 MHz, 433 mm x 270 mm
               1680 1784 1960 2240 hborder 0
               1050 1053 1059 1089 vborder 0
               -hsync +vsync 
               VertFreq: 59 Hz, HorFreq: 65290 Hz
Monitor ranges (GTF with icing): 55-75Hz V, 30-80kHz H, max dotclock 160MHz
Serial number: --
Monitor name: ASUS MK221
Checksum: 0xab (valid)
One or more of the timings is out of range of the Monitor Ranges:
  Vertical Freq: 56 - 75 Hz
  Horizontal Freq: 31469 - 82300 Hz
  Maximum Clock: 156.000 MHz
