
EDID (hex):
00ffffffffffff0009e5b90500000000
0116010380160d780aabd09357569b29
21505400000001010101010101010101
01010101010100140040415823203070
cc00df7d0000001a0014004041582320
3070cc00df7d0000001a000000fe0042
4f452048460a202020202020000000fe
0042413130315753312d3130300a00a0

Extracted contents:
header:          00 ff ff ff ff ff ff 00
serial number:   09 e5 b9 05 00 00 00 00 01 16
version:         01 03
basic params:    80 16 0d 78 0a
chroma info:     ab d0 93 57 56 9b 29 21 50 54
established:     00 00 00
standard:        01 01 01 01 01 01 01 01 01 01 01 01 01 01 01 01
descriptor 1:    00 14 00 40 41 58 23 20 30 70 cc 00 df 7d 00 00 00 1a
descriptor 2:    00 14 00 40 41 58 23 20 30 70 cc 00 df 7d 00 00 00 1a
descriptor 3:    00 00 00 fe 00 42 4f 45 20 48 46 0a 20 20 20 20 20 20
descriptor 4:    00 00 00 fe 00 42 41 31 30 31 57 53 31 2d 31 30 30 0a
extensions:      00
checksum:        a0

EDID version: 1.3
Manufacturer: BOE Model 5b9 Serial Number --
Made in week 1 of 2012
Digital display
Maximum image size: 22 cm x 13 cm
Gamma: 2.20
RGB color display
First detailed timing is preferred timing
Display x,y Chromaticity:
  Red:   0.5761, 0.3417
  Green: 0.3378, 0.6083
  Blue:  0.1630, 0.1298
  White: 0.3125, 0.3281
Established timings supported:
Standard timings supported:
Detailed mode: Clock 51.200 MHz, 223 mm x 125 mm
               1024 1072 1184 1344 hborder 0
                600  612  624  635 vborder 0
               +hsync -vsync 
               VertFreq: 59 Hz, HorFreq: 38095 Hz
Detailed mode: Clock 51.200 MHz, 223 mm x 125 mm
               1024 1072 1184 1344 hborder 0
                600  612  624  635 vborder 0
               +hsync -vsync 
               VertFreq: 59 Hz, HorFreq: 38095 Hz
ASCII string: BOE HF
ASCII string: BA101WS1-100
Checksum: 0xa0 (valid)
EDID block does NOT conform to EDID 1.3!
	Missing name descriptor
	Missing monitor ranges
