
EDID (hex):
00ffffffffffff001c88219000000001
2f150103814627782ad46ca357499c25
11484ba10800d1c03140454061408180
010101010101632156b051001b304070
3600de0c1100001e000000fc00434848
574a540a202020202020000000fd0016
500e5b10000a20202020202000000000
000000000000000000000000001801a6
02031df24a0384050710121314161f23
0907078301000065030c0010008c0ad0
3020e02d10103e9600138e2100001801
1d00bc52d01e20b8285540c48e210000
1e011d80d0721c1620102c2580c48e21
00009e8c0ad08a20e02d10103e9600c4
8e210000188c0ad090204031200c4055
00c48e210000180000000000000000eb

Extracted contents:
header:          00 ff ff ff ff ff ff 00
serial number:   1c 88 21 90 00 00 00 01 2f 15
version:         01 03
basic params:    81 46 27 78 2a
chroma info:     d4 6c a3 57 49 9c 25 11 48 4b
established:     a1 08 00
standard:        d1 c0 31 40 45 40 61 40 81 80 01 01 01 01 01 01
descriptor 1:    63 21 56 b0 51 00 1b 30 40 70 36 00 de 0c 11 00 00 1e
descriptor 2:    00 00 00 fc 00 43 48 48 57 4a 54 0a 20 20 20 20 20 20
descriptor 3:    00 00 00 fd 00 16 50 0e 5b 10 00 0a 20 20 20 20 20 20
descriptor 4:    00 00 00 00 00 00 00 00 00 00 00 00 00 00 00 00 00 18
extensions:      01
checksum:        a6

EDID version: 1.3
Manufacturer: GDH Model 9021 Serial Number --
Made in week 47 of 2011
Digital display
DFP 1.x compatible TMDS
Maximum image size: 70 cm x 39 cm
Gamma: 2.20
DPMS levels: Off
RGB color display
First detailed timing is preferred timing
Display x,y Chromaticity:
  Red:   0.6396, 0.3408
  Green: 0.2861, 0.6093
  Blue:  0.1455, 0.0683
  White: 0.2841, 0.2929
Established timings supported:
  720x400@70Hz 9:5 HorFreq: 31469 Hz Clock: 28.320 MHz
  640x480@60Hz 4:3 HorFreq: 31469 Hz Clock: 25.175 MHz
  800x600@60Hz 4:3 HorFreq: 37900 Hz Clock: 40.000 MHz
  1024x768@60Hz 4:3 HorFreq: 48400 Hz Clock: 65.000 MHz
Standard timings supported:
  1920x1080@60Hz 16:9
  640x480@60Hz 4:3 HorFreq: 31469 Hz Clock: 25.175 MHz
  800x600@60Hz 4:3 HorFreq: 37900 Hz Clock: 40.000 MHz
  1024x768@60Hz 4:3 HorFreq: 48400 Hz Clock: 65.000 MHz
  1280x1024@60Hz 5:4 HorFreq: 64000 Hz Clock: 108.000 MHz
Detailed mode: Clock 85.470 MHz, 478 mm x 268 mm
               1366 1430 1542 1798 hborder 0
                768  771  777  795 vborder 0
               +hsync +vsync 
               VertFreq: 59 Hz, HorFreq: 47536 Hz
Monitor name: CHHWJT
Monitor ranges (GTF): 22-80Hz V, 14-91kHz H, max dotclock 160MHz
Manufacturer-specified data, tag 0
Has 1 extension blocks
Checksum: 0xa6 (valid)

CTA extension block
Extension version: 3
25 bytes of CTA data
  Video data block
    VIC   3 720x480@60Hz 16:9  HorFreq: 31469 Hz Clock: 27.000 MHz
    VIC   4 1280x720@60Hz 16:9 (native) HorFreq: 45000 Hz Clock: 74.250 MHz
    VIC   5 1920x1080i@60Hz 16:9  HorFreq: 33750 Hz Clock: 74.250 MHz
    VIC   7 1440x480i@60Hz 16:9  HorFreq: 15734 Hz Clock: 27.000 MHz
    VIC  16 1920x1080@60Hz 16:9  HorFreq: 67500 Hz Clock: 148.500 MHz
    VIC  18 720x576@50Hz 16:9  HorFreq: 31250 Hz Clock: 27.000 MHz
    VIC  19 1280x720@50Hz 16:9  HorFreq: 37500 Hz Clock: 74.250 MHz
    VIC  20 1920x1080i@50Hz 16:9  HorFreq: 28125 Hz Clock: 74.250 MHz
    VIC  22 1440x576i@50Hz 16:9  HorFreq: 15625 Hz Clock: 27.000 MHz
    VIC  31 1920x1080@50Hz 16:9  HorFreq: 56250 Hz Clock: 148.500 MHz
  Audio data block
    Linear PCM, max channels 2
      Supported sample rates (kHz): 48 44.1 32
      Supported sample sizes (bits): 24 20 16
  Speaker allocation data block
    Speaker map:
      FL/FR - Front Left/Right
  Vendor-specific data block, OUI 000c03 (HDMI)
    Source physical address 1.0.0.0
Underscans PC formats by default
Basic audio support
Supports YCbCr 4:4:4
Supports YCbCr 4:2:2
2 native detailed modes
Detailed mode: Clock 27.000 MHz, 531 mm x 398 mm
                720  736  798  768 hborder 0
                480  489  495  525 vborder 0
               -hsync -vsync 
               VertFreq: 66 Hz, HorFreq: 35156 Hz
Detailed mode: Clock 74.250 MHz, 708 mm x 398 mm
               1280 1720 1760 1980 hborder 0
                720  725  730  750 vborder 0
               +hsync +vsync 
               VertFreq: 50 Hz, HorFreq: 37500 Hz
Detailed mode: Clock 74.250 MHz, 708 mm x 398 mm
               1920 2448 2492 2640 hborder 0
                540  542  547  562 vborder 0
               +hsync +vsync interlaced 
               VertFreq: 50 Hz, HorFreq: 28125 Hz
Detailed mode: Clock 27.000 MHz, 708 mm x 398 mm
                720  736  798  858 hborder 0
                480  489  495  525 vborder 0
               -hsync -vsync 
               VertFreq: 59 Hz, HorFreq: 31468 Hz
Detailed mode: Clock 27.000 MHz, 708 mm x 398 mm
                720  732  796  864 hborder 0
                576  581  586  625 vborder 0
               -hsync -vsync 
               VertFreq: 50 Hz, HorFreq: 31250 Hz
Checksum: 0xeb (valid)
