
EDID (hex):
00ffffffffffff00085932cd7a420000
2d110103684627782a90a8a850499b24
14484c2fce0001010101010101010101
010101010101662150b051001b304070
3600c58f2100001e000000ff00483132
37424a41303137303138000000fd0032
4b1f3c09000a202020202020000000fc
0044582d4c434433320a20202020009a

Extracted contents:
header:          00 ff ff ff ff ff ff 00
serial number:   08 59 32 cd 7a 42 00 00 2d 11
version:         01 03
basic params:    68 46 27 78 2a
chroma info:     90 a8 a8 50 49 9b 24 14 48 4c
established:     2f ce 00
standard:        01 01 01 01 01 01 01 01 01 01 01 01 01 01 01 01
descriptor 1:    66 21 50 b0 51 00 1b 30 40 70 36 00 c5 8f 21 00 00 1e
descriptor 2:    00 00 00 ff 00 48 31 32 37 42 4a 41 30 31 37 30 31 38
descriptor 3:    00 00 00 fd 00 32 4b 1f 3c 09 00 0a 20 20 20 20 20 20
descriptor 4:    00 00 00 fc 00 44 58 2d 4c 43 44 33 32 0a 20 20 20 20
extensions:      00
checksum:        9a

EDID version: 1.3
Manufacturer: BBY Model cd32 Serial Number --
Made in week 45 of 2007
Analog display, Input voltage level: 0.7/0.7 V
Sync: Separate 
Maximum image size: 70 cm x 39 cm
Gamma: 2.20
DPMS levels: Off
RGB color display
First detailed timing is preferred timing
Display x,y Chromaticity:
  Red:   0.6582, 0.3134
  Green: 0.2851, 0.6054
  Blue:  0.1425, 0.0800
  White: 0.2832, 0.2968
Established timings supported:
  640x480@60Hz 4:3 HorFreq: 31469 Hz Clock: 25.175 MHz
  640x480@72Hz 4:3 HorFreq: 37900 Hz Clock: 31.500 MHz
  640x480@75Hz 4:3 HorFreq: 37500 Hz Clock: 31.500 MHz
  800x600@56Hz 4:3 HorFreq: 35200 Hz Clock: 36.000 MHz
  800x600@60Hz 4:3 HorFreq: 37900 Hz Clock: 40.000 MHz
  800x600@72Hz 4:3 HorFreq: 48100 Hz Clock: 50.000 MHz
  800x600@75Hz 4:3 HorFreq: 46900 Hz Clock: 49.500 MHz
  1024x768@60Hz 4:3 HorFreq: 48400 Hz Clock: 65.000 MHz
  1024x768@70Hz 4:3 HorFreq: 56500 Hz Clock: 75.000 MHz
  1024x768@75Hz 4:3 HorFreq: 60000 Hz Clock: 78.750 MHz
Standard timings supported:
Detailed mode: Clock 85.500 MHz, 709 mm x 399 mm
               1360 1424 1536 1792 hborder 0
                768  771  777  795 vborder 0
               +hsync +vsync 
               VertFreq: 60 Hz, HorFreq: 47712 Hz
Serial number: --
Monitor ranges (GTF): 50-75Hz V, 31-60kHz H, max dotclock 90MHz
Monitor name: DX-LCD32
Checksum: 0x9a (valid)
