
EDID (hex):
00ffffffffffff005262000200000000
1014010308351eff2aba45a159559d28
0d5054210800818081009500b300d1c0
010101010101023a801871382d40582c
4500122c2100003e662150b051001b30
40703600122c2100001e000000fc0054
4f53484942412d54560a2020000000fd
003c4b1f440f000a2020202020200099

Extracted contents:
header:          00 ff ff ff ff ff ff 00
serial number:   52 62 00 02 00 00 00 00 10 14
version:         01 03
basic params:    08 35 1e ff 2a
chroma info:     ba 45 a1 59 55 9d 28 0d 50 54
established:     21 08 00
standard:        81 80 81 00 95 00 b3 00 d1 c0 01 01 01 01 01 01
descriptor 1:    02 3a 80 18 71 38 2d 40 58 2c 45 00 12 2c 21 00 00 3e
descriptor 2:    66 21 50 b0 51 00 1b 30 40 70 36 00 12 2c 21 00 00 1e
descriptor 3:    00 00 00 fc 00 54 4f 53 48 49 42 41 2d 54 56 0a 20 20
descriptor 4:    00 00 00 fd 00 3c 4b 1f 44 0f 00 0a 20 20 20 20 20 20
extensions:      00
checksum:        99

EDID version: 1.3
Manufacturer: TSB Model 200 Serial Number --
Made in week 16 of 2010
Analog display, Input voltage level: 0.7/0.3 V
Sync: Separate 
Maximum image size: 53 cm x 30 cm
Gamma: 1.0
DPMS levels: Off
RGB color display
First detailed timing is preferred timing
Display x,y Chromaticity:
  Red:   0.6308, 0.3505
  Green: 0.3339, 0.6152
  Blue:  0.1572, 0.0507
  White: 0.3134, 0.3291
Established timings supported:
  640x480@60Hz 4:3 HorFreq: 31469 Hz Clock: 25.175 MHz
  800x600@60Hz 4:3 HorFreq: 37900 Hz Clock: 40.000 MHz
  1024x768@60Hz 4:3 HorFreq: 48400 Hz Clock: 65.000 MHz
Standard timings supported:
  1280x1024@60Hz 5:4 HorFreq: 64000 Hz Clock: 108.000 MHz
  1280x800@60Hz 16:10
  1440x900@60Hz 16:10 HorFreq: 55500 Hz Clock: 88.750 MHz
  1680x1050@60Hz 16:10 HorFreq: 64700 Hz Clock: 119.000 MHz
  1920x1080@60Hz 16:9
Detailed mode: Clock 148.500 MHz, 530 mm x 300 mm
               1920 2008 2052 2200 hborder 0
               1080 1084 1089 1125 vborder 0
               +hsync +vsync field sequential L/R
               VertFreq: 60 Hz, HorFreq: 67500 Hz
Detailed mode: Clock 85.500 MHz, 530 mm x 300 mm
               1360 1424 1536 1792 hborder 0
                768  771  777  795 vborder 0
               +hsync +vsync 
               VertFreq: 60 Hz, HorFreq: 47712 Hz
Monitor name: TOSHIBA-TV
Monitor ranges (GTF): 60-75Hz V, 31-68kHz H, max dotclock 150MHz
Checksum: 0x99 (valid)
