edid-decode (hex):

00 ff ff ff ff ff ff 00 44 93 2d 00 00 00 00 00
00 0f 01 03 80 1c 15 78 0a 0d 79 97 55 4f 93 26
20 50 54 00 00 00 01 01 01 01 01 01 01 01 01 01
01 01 01 01 01 01 30 2a 78 20 51 1a 10 40 2c 70
03 00 1d d6 10 00 00 18 00 00 00 0f 00 05 78 15
48 01 08 08 08 a2 08 2a 2a 02 00 00 00 fe 00 51
55 41 4e 54 41 44 49 53 50 4c 41 59 00 00 00 fe
00 51 44 31 34 46 4c 30 37 33 0a 20 20 20 00 99

----------------

Block 0, Base EDID:
  EDID Structure Version & Revision: 1.3
  Vendor & Product Identification:
    Manufacturer: QDS
    Model: 45
    Made in: 2005
  Basic Display Parameters & Features:
    Digital display
    Maximum image size: 28 cm x 21 cm
    Gamma: 2.20
    RGB color display
    First detailed timing is the preferred timing
  Color Characteristics:
    Red  : 0.5898, 0.3320
    Green: 0.3115, 0.5751
    Blue : 0.1494, 0.1279
    White: 0.3144, 0.3291
  Established Timings I & II: none
  Standard Timings: none
  Detailed Timing Descriptors:
    DTD 1:  1400x1050   60.020 Hz   4:3    63.981 kHz 108.000 MHz (285 mm x 214 mm)
                 Hfront   44 Hsync 112 Hback 132 Hpol N
                 Vfront    0 Vsync   3 Vback  13 Vpol N
                   30 2a 78 20 51 1a 10 40 2c 70 03 00 1d d6 10 00 00 18 '0*x Q..@,p........'
    Manufacturer-Specified Display Descriptor (0x0f): 00 0f 00 05 78 15 48 01 08 08 08 a2 08 2a 2a 02 '....x.H......**.'
    Alphanumeric Data String: 'QUANTADISPLAY'
    Alphanumeric Data String: 'QD14FL073'
Checksum: 0x99

----------------

Failures:

Block 0, Base EDID:
  Detailed Timing Descriptor #1: 0 values in the video timing:
    Horizontal Active/Blanking 1400/288
    Horizontal Frontporch/Sync Width 44/112
    Vertical Active/Blanking 1050/16
    Vertical Frontporch/Sync Width 0/3
  Missing Display Product Name.
  Missing Display Range Limits Descriptor.

EDID conformity: FAIL
