edid-decode (hex):

00 ff ff ff ff ff ff 00 31 e5 09 f4 01 01 01 01
00 ff 01 02 0a 07 04 78 0a 0d c9 a0 57 47 98 27
12 48 4c 01 08 00 01 01 01 01 01 01 01 01 01 01
01 01 01 01 01 01 25 1c 50 a0 50 00 16 30 30 20
35 00 bc 8a 21 00 00 18 01 1d 00 72 51 d0 1e 20
68 28 65 00 bc 8a 21 00 00 18 00 00 00 fc 00 4c
4f 45 57 45 20 54 56 0a 20 20 20 20 00 00 00 fd
00 30 3e 1c 30 08 00 0a 20 20 20 20 20 20 00 41

----------------

Block 0, Base EDID:
  EDID Structure Version & Revision: 1.2
  Vendor & Product Identification:
    Manufacturer: LOE
    Model: 62473
    Serial Number: ...
    Made in: 2245
  Basic Display Parameters & Features:
    Analog display
    Input voltage level: 0.7/0.3 V
    Blank level equals black level
    Sync: Separate SyncOnGreen
    Maximum image size: 7 cm x 4 cm
    Gamma: 2.20
    RGB color display
    First detailed timing is the preferred timing
  Color Characteristics:
    Red  : 0.6250, 0.3398
    Green: 0.2802, 0.5947
    Blue : 0.1552, 0.0703
    White: 0.2832, 0.2978
  Established Timings I & II:
    DMT 0x09:   800x600    60.317 Hz   4:3    37.879 kHz  40.000 MHz
    DMT 0x10:  1024x768    60.004 Hz   4:3    48.363 kHz  65.000 MHz
  Standard Timings: none
  Detailed Timing Descriptors:
    DTD 1:  1360x768    60.002 Hz  85:48   47.401 kHz  72.050 MHz (700 mm x 394 mm)
                 Hfront   48 Hsync  32 Hback  80 Hpol N
                 Vfront    3 Vsync   5 Vback  14 Vpol N
    DTD 2:  1280x720    60.000 Hz  16:9    45.000 kHz  74.250 MHz (700 mm x 394 mm)
                 Hfront  104 Hsync  40 Hback 226 Hpol N
                 Vfront    6 Vsync   5 Vback  19 Vpol N
    Display Product Name: 'LOEWE TV'
  Display Range Limits:
    Monitor ranges (GTF): 48-62 Hz V, 28-48 kHz H, max dotclock 80 MHz
Checksum: 0x41

----------------

Warnings:

Block 0, Base EDID:
  EDID Structure Version & Revision: EDID 1.2 is deprecated, do not use.
  Basic Display Parameters & Features: Dubious maximum image size (7x4 is smaller than 10x10 cm).

Failures:

Block 0, Base EDID:
  Vendor & Product Identification: The year 2245 is more than one year in the future.
  Detailed Timing Descriptor #1: Mismatch of image size 700x394 mm vs display size 70x40 mm.
  Detailed Timing Descriptor #2: Mismatch of image size 700x394 mm vs display size 70x40 mm.

EDID conformity: FAIL
