
EDID (hex):
00ffffffffffff000daed21500000000
1219010495221378024205ac4f44ac28
0c505400000001010101010101010101
010101010101b43b804a713834406442
6a0058c110000018000000fe004e3135
364847452d45414c0a20000000fe0043
4d4e0a202020202020202020000000fe
004e3135364847452d45414c0a2000df

Extracted contents:
header:          00 ff ff ff ff ff ff 00
serial number:   0d ae d2 15 00 00 00 00 12 19
version:         01 04
basic params:    95 22 13 78 02
chroma info:     42 05 ac 4f 44 ac 28 0c 50 54
established:     00 00 00
standard:        01 01 01 01 01 01 01 01 01 01 01 01 01 01 01 01
descriptor 1:    b4 3b 80 4a 71 38 34 40 64 42 6a 00 58 c1 10 00 00 18
descriptor 2:    00 00 00 fe 00 4e 31 35 36 48 47 45 2d 45 41 4c 0a 20
descriptor 3:    00 00 00 fe 00 43 4d 4e 0a 20 20 20 20 20 20 20 20 20
descriptor 4:    00 00 00 fe 00 4e 31 35 36 48 47 45 2d 45 41 4c 0a 20
extensions:      00
checksum:        df

EDID version: 1.4
Manufacturer: CMN Model 15d2 Serial Number --
Made in week 18 of 2015
Digital display
6 bits per primary color channel
DisplayPort interface
Maximum image size: 34 cm x 19 cm
Gamma: 2.20
Supported color formats: RGB 4:4:4
First detailed timing includes the native pixel format and preferred refresh rate
Display x,y Chromaticity:
  Red:   0.6728, 0.3085
  Green: 0.2656, 0.6738
  Blue:  0.1562, 0.0468
  White: 0.3134, 0.3291
Established timings supported:
Standard timings supported:
Detailed mode: Clock 152.840 MHz, 344 mm x 193 mm
               1920 2020 2086 2250 hborder 0
               1080 1086 1096 1132 vborder 0
               -hsync -vsync 
               VertFreq: 60 Hz, HorFreq: 67928 Hz
ASCII string: N156HGE-EAL
ASCII string: CMN
ASCII string: N156HGE-EAL
Checksum: 0xdf (valid)
EDID block does NOT conform to EDID 1.4!
	Missing name descriptor
	Missing monitor ranges
