
EDID (hex):
00ffffffffffff000d12117570030000
05180104a52b1d78e28042ac5130b425
10505300000001000100010001000100
010001000100662156aa51001e30468f
3300064d2100001a0000000000000000
00000000000000000000000000fd0038
4c1e5311000a202020202020000000fc
00434837353131420a20202020200038

Extracted contents:
header:          00 ff ff ff ff ff ff 00
serial number:   0d 12 11 75 70 03 00 00 05 18
version:         01 04
basic params:    a5 2b 1d 78 e2
chroma info:     80 42 ac 51 30 b4 25 10 50 53
established:     00 00 00
standard:        01 00 01 00 01 00 01 00 01 00 01 00 01 00 01 00
descriptor 1:    66 21 56 aa 51 00 1e 30 46 8f 33 00 06 4d 21 00 00 1a
descriptor 2:    00 00 00 00 00 00 00 00 00 00 00 00 00 00 00 00 00 00
descriptor 3:    00 00 00 fd 00 38 4c 1e 53 11 00 0a 20 20 20 20 20 20
descriptor 4:    00 00 00 fc 00 43 48 37 35 31 31 42 0a 20 20 20 20 20
extensions:      00
checksum:        38

EDID version: 1.4
Manufacturer: CHR Model 7511 Serial Number --
Made in week 5 of 2014
Digital display
8 bits per primary color channel
DisplayPort interface
Maximum image size: 43 cm x 29 cm
Gamma: 2.20
DPMS levels: Standby Suspend Off
Supported color formats: RGB 4:4:4
First detailed timing includes the native pixel format and preferred refresh rate
Display x,y Chromaticity:
  Red:   0.6738, 0.3164
  Green: 0.1875, 0.7031
  Blue:  0.1455, 0.0625
  White: 0.3125, 0.3261
Established timings supported:
Standard timings supported:
  256x160@60Hz 16:10
  256x160@60Hz 16:10
  256x160@60Hz 16:10
  256x160@60Hz 16:10
  256x160@60Hz 16:10
  256x160@60Hz 16:10
  256x160@60Hz 16:10
  256x160@60Hz 16:10
Detailed mode: Clock 85.500 MHz, 518 mm x 333 mm
               1366 1436 1579 1792 hborder 0
                768  771  774  798 vborder 0
               +hsync -vsync 
               VertFreq: 59 Hz, HorFreq: 47712 Hz
Manufacturer-specified data, tag 0
Monitor ranges (GTF): 56-76Hz V, 30-83kHz H, max dotclock 170MHz
Monitor name: CH7511B
Checksum: 0x38 (valid)
