
EDID (hex):
00ffffffffffff000dae1c1600000000
10200104a5221678030f95ae5243b026
0f505400000001010101010101010101
0101010101019a74805670b028403020
a60058d71000001a0000001000000000
00000000000000000000000000fe0033
58523444803136304a4d450a00000000
0002410f9e000000000f410a20200166
7020790200220028f33712857f075500
2f001f00af04270009000500f3371205
7f0755002f001f00af04ff0409000500
250109f33712f3371278e08181001372
1a0000030178f0000053515351e00100
00000000000000000000000000000000
00000000000000000000000000000000
0000000000000000000000000000e690

edid-decode (hex):

00 ff ff ff ff ff ff 00 0d ae 1c 16 00 00 00 00
10 20 01 04 a5 22 16 78 03 0f 95 ae 52 43 b0 26
0f 50 54 00 00 00 01 01 01 01 01 01 01 01 01 01
01 01 01 01 01 01 9a 74 80 56 70 b0 28 40 30 20
a6 00 58 d7 10 00 00 1a 00 00 00 10 00 00 00 00
00 00 00 00 00 00 00 00 00 00 00 00 00 fe 00 33
58 52 34 44 80 31 36 30 4a 4d 45 0a 00 00 00 00
00 02 41 0f 9e 00 00 00 00 0f 41 0a 20 20 01 66

70 20 79 02 00 22 00 28 f3 37 12 85 7f 07 55 00
2f 00 1f 00 af 04 27 00 09 00 05 00 f3 37 12 05
7f 07 55 00 2f 00 1f 00 af 04 ff 04 09 00 05 00
25 01 09 f3 37 12 f3 37 12 78 e0 81 81 00 13 72
1a 00 00 03 01 78 f0 00 00 53 51 53 51 e0 01 00
00 00 00 00 00 00 00 00 00 00 00 00 00 00 00 00
00 00 00 00 00 00 00 00 00 00 00 00 00 00 00 00
00 00 00 00 00 00 00 00 00 00 00 00 00 00 e6 90

----------------

Block 0, Base EDID:
  EDID Structure Version & Revision: 1.4
  Vendor & Product Identification:
    Manufacturer: CMN
    Model: 5660
    Made in: week 16 of 2022
  Basic Display Parameters & Features:
    Digital display
    Bits per primary color channel: 8
    DisplayPort interface
    Maximum image size: 34 cm x 22 cm
    Gamma: 2.20
    Supported color formats: RGB 4:4:4
    First detailed timing includes the native pixel format and preferred refresh rate
    Display is continuous frequency
  Color Characteristics:
    Red  : 0.6796, 0.3203
    Green: 0.2646, 0.6904
    Blue : 0.1503, 0.0595
    White: 0.3134, 0.3291
  Established Timings I & II: none
  Standard Timings: none
  Detailed Timing Descriptors:
    DTD 1:  1920x1200  120.002895 Hz  16:10   148.804 kHz    298.500000 MHz (344 mm x 215 mm)
                 Hfront   48 Hsync  32 Hback    6 Hpol P
                 Vfront   10 Vsync   6 Vback   24 Vpol N
    Dummy Descriptor:
    Alphanumeric Data String: '3XR4D'
    Manufacturer-Specified Display Descriptor (0x00): 00 00 00 02 41 0f 9e 00 00 00 00 0f 41 0a 20 20 '....A.......A.  '
  Extension blocks: 1
Checksum: 0x66

----------------

Block 1, DisplayID Extension Block:
  Version: 2.0
  Extension Count: 0
  Display Product Primary Use Case: None of the listed primary use cases; generic display
  Video Timing Modes Type 7 - Detailed Timings Data Block:
    DTD:  1920x1200  480.000322 Hz  16:10   595.200 kHz   1193.972000 MHz (aspect 16:10, no 3D stereo, preferred)
               Hfront   48 Hsync  32 Hback    6 Hpol N
               Vfront   10 Vsync   6 Vback   24 Vpol N
    DTD:  1920x1200  240.000161 Hz  16:10   595.200 kHz   1193.972000 MHz (aspect 16:10, no 3D stereo)
               Hfront   48 Hsync  32 Hback    6 Hpol N
               Vfront   10 Vsync   6 Vback 1264 Vpol N
  Dynamic Video Timing Range Limits Data Block:
    Minimum Pixel Clock: 1193972 kHz
    Maximum Pixel Clock: 1193972 kHz
    Minimum Vertical Refresh Rate: 120 Hz
    Maximum Vertical Refresh Rate: 480 Hz
    Seamless Dynamic Video Timing Support: Yes
  CTA-861 DisplayID Data Block:
  Vendor-Specific Data Block (AMD), OUI 00-00-1A:
    Version: 3.1
    Minimum Refresh Rate: 120 Hz
    Maximum Refresh Rate: 240 Hz
    Flags 1.x: 0x00
    Flags 2.x: 0x00
    Maximum luminance: 83 (301.833 cd/m^2)
    Minimum luminance: 81 (0.305 cd/m^2)
    Unknown: 0x53 0x51
  Checksum: 0xe6
Checksum: 0x90
