
EDID (hex):
00ffffffffffff00232f9b0400000000
30140103803c22782a2e2da7554d9e26
0c4e5300000000440004004400840004
000400c400c4565e00a0a0a029503020
350055502100001a000000fd00383d1e
5b19000a202020202020000000fc0053
796e634d61737465720a2020000000ff
00484d42533230303933350a20200063

Extracted contents:
header:          00 ff ff ff ff ff ff 00
serial number:   23 2f 9b 04 00 00 00 00 30 14
version:         01 03
basic params:    80 3c 22 78 2a
chroma info:     2e 2d a7 55 4d 9e 26 0c 4e 53
established:     00 00 00
standard:        00 44 00 04 00 44 00 84 00 04 00 04 00 c4 00 c4
descriptor 1:    56 5e 00 a0 a0 a0 29 50 30 20 35 00 55 50 21 00 00 1a
descriptor 2:    00 00 00 fd 00 38 3d 1e 5b 19 00 0a 20 20 20 20 20 20
descriptor 3:    00 00 00 fc 00 53 79 6e 63 4d 61 73 74 65 72 0a 20 20
descriptor 4:    00 00 00 ff 00 48 4d 42 53 32 30 30 39 33 35 0a 20 20
extensions:      00
checksum:        63

EDID version: 1.3
Manufacturer: HYO Model 49b Serial Number --
Made in week 48 of 2010
Digital display
Maximum image size: 60 cm x 34 cm
Gamma: 2.20
DPMS levels: Off
RGB color display
First detailed timing is preferred timing
Display x,y Chromaticity:
  Red:   0.6523, 0.3339
  Green: 0.3037, 0.6191
  Blue:  0.1484, 0.0488
  White: 0.3076, 0.3251
Established timings supported:
Standard timings supported:
non-conformant standard timing (0 horiz)
non-conformant standard timing (0 horiz)
non-conformant standard timing (0 horiz)
non-conformant standard timing (0 horiz)
non-conformant standard timing (0 horiz)
non-conformant standard timing (0 horiz)
non-conformant standard timing (0 horiz)
non-conformant standard timing (0 horiz)
Detailed mode: Clock 241.500 MHz, 597 mm x 336 mm
               2560 2608 2640 2720 hborder 0
               1440 1443 1448 1481 vborder 0
               +hsync -vsync 
               VertFreq: 59 Hz, HorFreq: 88786 Hz
Monitor ranges (GTF): 56-61Hz V, 30-91kHz H, max dotclock 250MHz
Monitor name: SyncMaster
Serial number: --
Checksum: 0x63 (valid)
