
EDID (hex):
00ffffffffffff003427802300000000
141d0104a5341f78e20010a057499b26
10484cafcf008100814095007140b300
81c08180a9c0023a801871382d40582c
4500b4f51000001e023a801871382d40
582c4500e00e1100001e662150b05100
1b3040703400c4fe10000018000000fc
004d41470a2020202020202020200021

Extracted contents:
header:          00 ff ff ff ff ff ff 00
serial number:   34 27 80 23 00 00 00 00 14 1d
version:         01 04
basic params:    a5 34 1f 78 e2
chroma info:     00 10 a0 57 49 9b 26 10 48 4c
established:     af cf 00
standard:        81 00 81 40 95 00 71 40 b3 00 81 c0 81 80 a9 c0
descriptor 1:    02 3a 80 18 71 38 2d 40 58 2c 45 00 b4 f5 10 00 00 1e
descriptor 2:    02 3a 80 18 71 38 2d 40 58 2c 45 00 e0 0e 11 00 00 1e
descriptor 3:    66 21 50 b0 51 00 1b 30 40 70 34 00 c4 fe 10 00 00 18
descriptor 4:    00 00 00 fc 00 4d 41 47 0a 20 20 20 20 20 20 20 20 20
extensions:      00
checksum:        21

EDID version: 1.4
Manufacturer: MAG Model 2380 Serial Number --
Made in week 20 of 2019
Digital display
8 bits per primary color channel
DisplayPort interface
Maximum image size: 52 cm x 31 cm
Gamma: 2.20
DPMS levels: Standby Suspend Off
Supported color formats: RGB 4:4:4
First detailed timing includes the native pixel format and preferred refresh rate
Display x,y Chromaticity:
  Red:   0.6250, 0.3398
  Green: 0.2851, 0.6054
  Blue:  0.1484, 0.0634
  White: 0.2812, 0.2968
Established timings supported:
  720x400@70Hz 9:5 HorFreq: 31469 Hz Clock: 28.320 MHz
  640x480@60Hz 4:3 HorFreq: 31469 Hz Clock: 25.175 MHz
  640x480@72Hz 4:3 HorFreq: 37900 Hz Clock: 31.500 MHz
  640x480@75Hz 4:3 HorFreq: 37500 Hz Clock: 31.500 MHz
  800x600@56Hz 4:3 HorFreq: 35200 Hz Clock: 36.000 MHz
  800x600@60Hz 4:3 HorFreq: 37900 Hz Clock: 40.000 MHz
  800x600@72Hz 4:3 HorFreq: 48100 Hz Clock: 50.000 MHz
  800x600@75Hz 4:3 HorFreq: 46900 Hz Clock: 49.500 MHz
  1024x768@60Hz 4:3 HorFreq: 48400 Hz Clock: 65.000 MHz
  1024x768@70Hz 4:3 HorFreq: 56500 Hz Clock: 75.000 MHz
  1024x768@75Hz 4:3 HorFreq: 60000 Hz Clock: 78.750 MHz
  1280x1024@75Hz 5:4 HorFreq: 80000 Hz Clock: 135.000 MHz
Standard timings supported:
  1280x800@60Hz 16:10
  1280x960@60Hz 4:3 HorFreq: 60000 Hz Clock: 108.000 MHz
  1440x900@60Hz 16:10 HorFreq: 55500 Hz Clock: 88.750 MHz
  1152x864@60Hz 4:3
  1680x1050@60Hz 16:10 HorFreq: 64700 Hz Clock: 119.000 MHz
  1280x720@60Hz 16:9
  1280x1024@60Hz 5:4 HorFreq: 64000 Hz Clock: 108.000 MHz
  1600x900@60Hz 16:9
Detailed mode: Clock 148.500 MHz, 436 mm x 245 mm
               1920 2008 2052 2200 hborder 0
               1080 1084 1089 1125 vborder 0
               +hsync +vsync 
               VertFreq: 60 Hz, HorFreq: 67500 Hz
Detailed mode: Clock 148.500 MHz, 480 mm x 270 mm
               1920 2008 2052 2200 hborder 0
               1080 1084 1089 1125 vborder 0
               +hsync +vsync 
               VertFreq: 60 Hz, HorFreq: 67500 Hz
Detailed mode: Clock 85.500 MHz, 452 mm x 254 mm
               1360 1424 1536 1792 hborder 0
                768  771  775  795 vborder 0
               -hsync -vsync 
               VertFreq: 60 Hz, HorFreq: 47712 Hz
Monitor name: MAG
Checksum: 0x21 (valid)
	Missing monitor ranges
