
EDID (hex):
00ffffffffffff00226c2ee000000000
060e010128221b00e8e73a9b57499024
164a50bfef8031404540614081800101
01010101010130ea009851002a403070
1300520e1100001e000000fd00384d1e
510e000a202020202020000000fc0048
3735300a2020202020202020000000ff
003030303030303030303030300a00ce

Extracted contents:
header:          00 ff ff ff ff ff ff 00
serial number:   22 6c 2e e0 00 00 00 00 06 0e
version:         01 01
basic params:    28 22 1b 00 e8
chroma info:     e7 3a 9b 57 49 90 24 16 4a 50
established:     bf ef 80
standard:        31 40 45 40 61 40 81 80 01 01 01 01 01 01 01 01
descriptor 1:    30 ea 00 98 51 00 2a 40 30 70 13 00 52 0e 11 00 00 1e
descriptor 2:    00 00 00 fd 00 38 4d 1e 51 0e 00 0a 20 20 20 20 20 20
descriptor 3:    00 00 00 fc 00 48 37 35 30 0a 20 20 20 20 20 20 20 20
descriptor 4:    00 00 00 ff 00 30 30 30 30 30 30 30 30 30 30 30 30 0a
extensions:      00
checksum:        ce

EDID version: 1.1
Manufacturer: HSL Model e02e Serial Number --
Analog display, Input voltage level: 0.714/0.286 V
Sync: Separate 
Maximum image size: 34 cm x 27 cm
Gamma: 1.00
DPMS levels: Standby Suspend Off
RGB color display
Display x,y Chromaticity:
  Red:   0.6083, 0.3417
  Green: 0.2861, 0.5654
  Blue:  0.1406, 0.0888
  White: 0.2910, 0.3144
Established timings supported:
  720x400@70Hz 9:5 HorFreq: 31469 Hz Clock: 28.320 MHz
  640x480@60Hz 4:3 HorFreq: 31469 Hz Clock: 25.175 MHz
  640x480@67Hz 4:3 HorFreq: 35000 Hz Clock: 30.240 MHz
  640x480@72Hz 4:3 HorFreq: 37900 Hz Clock: 31.500 MHz
  640x480@75Hz 4:3 HorFreq: 37500 Hz Clock: 31.500 MHz
  800x600@56Hz 4:3 HorFreq: 35200 Hz Clock: 36.000 MHz
  800x600@60Hz 4:3 HorFreq: 37900 Hz Clock: 40.000 MHz
  800x600@72Hz 4:3 HorFreq: 48100 Hz Clock: 50.000 MHz
  800x600@75Hz 4:3 HorFreq: 46900 Hz Clock: 49.500 MHz
  832x624@75Hz 4:3 HorFreq: 49726 Hz Clock: 57.284 MHz
  1024x768@60Hz 4:3 HorFreq: 48400 Hz Clock: 65.000 MHz
  1024x768@70Hz 4:3 HorFreq: 56500 Hz Clock: 75.000 MHz
  1024x768@75Hz 4:3 HorFreq: 60000 Hz Clock: 78.750 MHz
  1280x1024@75Hz 5:4 HorFreq: 80000 Hz Clock: 135.000 MHz
  1152x870@75Hz 192:145 HorFreq: 67500 Hz Clock: 108.000 MHz
Standard timings supported:
  640x480@60Hz 4:3 HorFreq: 31469 Hz Clock: 25.175 MHz
  800x600@60Hz 4:3 HorFreq: 37900 Hz Clock: 40.000 MHz
  1024x768@60Hz 4:3 HorFreq: 48400 Hz Clock: 65.000 MHz
  1280x1024@60Hz 5:4 HorFreq: 64000 Hz Clock: 108.000 MHz
Detailed mode: Clock 599.520 MHz, 338 mm x 270 mm
               1280 1328 1440 1688 hborder 0
               1024 1025 1028 1066 vborder 0
               +hsync +vsync 
               VertFreq: 333 Hz, HorFreq: 355165 Hz
Monitor ranges (GTF): 56-77Hz V, 30-81kHz H, max dotclock 140MHz
Monitor name: H750
Serial number: --
Checksum: 0xce (valid)
EDID block does NOT conform to EDID 1.0!
	Has descriptor blocks other than detailed timings
One or more of the timings is out of range of the Monitor Ranges:
  Vertical Freq: 56 - 333 Hz
  Horizontal Freq: 31469 - 355165 Hz
  Maximum Clock: 599.520 MHz
EDID block does not conform at all!
	Bad year of manufacture
