
EDID (hex):
00ffffffffffff004a8b3d3b01010101
2b1e0103a32214782eee91a3544c9926
0f5054210800d1c0a9c081c001010101
010101010101023a801871382d40582c
450058c31000001e000000fc0041525a
4f50410a202020202020000000ff0064
656d6f7365742d310a203020000000fd
002e411e5411000a2020202020200136
020334f248010313040f1f4c10e200d5
e305c00023097f078301000067030c00
1000182de606050152524f681a000001
012e3de6302a40c86084643018501300
58c31000001e662156aa51001e30468f
330058c31000001e011d007251d01e20
6e28550058c31000001e000000000000
00000000000000000000000000000096

Extracted contents:
header:          00 ff ff ff ff ff ff 00
serial number:   4a 8b 3d 3b 01 01 01 01 2b 1e
version:         01 03
basic params:    a3 22 14 78 2e
chroma info:     ee 91 a3 54 4c 99 26 0f 50 54
established:     21 08 00
standard:        d1 c0 a9 c0 81 c0 01 01 01 01 01 01 01 01 01 01
descriptor 1:    02 3a 80 18 71 38 2d 40 58 2c 45 00 58 c3 10 00 00 1e
descriptor 2:    00 00 00 fc 00 41 52 5a 4f 50 41 0a 20 20 20 20 20 20
descriptor 3:    00 00 00 ff 00 64 65 6d 6f 73 65 74 2d 31 0a 20 30 20
descriptor 4:    00 00 00 fd 00 2e 41 1e 54 11 00 0a 20 20 20 20 20 20
extensions:      01
checksum:        36

EDID version: 1.3
Manufacturer: RTK Model 3b3d Serial Number --
Made in week 43 of 2020
Digital display
DFP 1.x compatible TMDS
Maximum image size: 34 cm x 20 cm
Gamma: 2.20
DPMS levels: Off
RGB color display
Default (sRGB) color space is primary color space
First detailed timing is preferred timing
Display x,y Chromaticity:
  Red:   0.6396, 0.3300
  Green: 0.2998, 0.5996
  Blue:  0.1503, 0.0595
  White: 0.3125, 0.3291
Established timings supported:
  640x480@60Hz 4:3 HorFreq: 31469 Hz Clock: 25.175 MHz
  800x600@60Hz 4:3 HorFreq: 37900 Hz Clock: 40.000 MHz
  1024x768@60Hz 4:3 HorFreq: 48400 Hz Clock: 65.000 MHz
Standard timings supported:
  1920x1080@60Hz 16:9
  1600x900@60Hz 16:9
  1280x720@60Hz 16:9
Detailed mode: Clock 148.500 MHz, 344 mm x 195 mm
               1920 2008 2052 2200 hborder 0
               1080 1084 1089 1125 vborder 0
               +hsync +vsync 
               VertFreq: 60 Hz, HorFreq: 67500 Hz
Monitor name: ARZOPA
Serial number: --
Monitor ranges (GTF): 46-65Hz V, 30-84kHz H, max dotclock 170MHz
Has 1 extension blocks
Checksum: 0x36 (valid)

CTA extension block
Extension version: 3
48 bytes of CTA data
  Video data block
    VIC   1 640x480@60Hz 4:3  HorFreq: 31469 Hz Clock: 25.175 MHz
    VIC   3 720x480@60Hz 16:9  HorFreq: 31469 Hz Clock: 27.000 MHz
    VIC  19 1280x720@50Hz 16:9  HorFreq: 37500 Hz Clock: 74.250 MHz
    VIC   4 1280x720@60Hz 16:9  HorFreq: 45000 Hz Clock: 74.250 MHz
    VIC  15 1440x480@60Hz 16:9  HorFreq: 31469 Hz Clock: 54.000 MHz
    VIC  31 1920x1080@50Hz 16:9  HorFreq: 56250 Hz Clock: 148.500 MHz
    VIC  76 1920x1080@60Hz 64:27  HorFreq: 67500 Hz Clock: 148.500 MHz
    VIC  16 1920x1080@60Hz 16:9  HorFreq: 67500 Hz Clock: 148.500 MHz
  Extended tag: Video capability data block
    YCbCr quantization: Selectable (via AVI YQ) (1)
    RGB quantization: Selectable (via AVI Q) (1)
    PT scan behaviour: Always Overscannned (1)
    IT scan behaviour: Always Overscannned (1)
    CE scan behaviour: Always Overscannned (1)
  Extended tag: Colorimetry data block
    BT2020YCC
    BT2020RGB
  Audio data block
    Linear PCM, max channels 2
      Supported sample rates (kHz): 192 176.4 96 88.2 48 44.1 32
      Supported sample sizes (bits): 24 20 16
  Speaker allocation data block
    Speaker map:
      FL/FR - Front Left/Right
  Vendor-specific data block, OUI 000c03 (HDMI)
    Source physical address 1.0.0.0
    DC_30bit
    DC_Y444
    Maximum TMDS clock: 225MHz
  Extended tag: HDR static metadata data block
    Electro optical transfer functions:
      Traditional gamma - SDR luminance range
      SMPTE ST2084
    Supported static metadata descriptors:
      Static metadata type 1
    Desired content max luminance: 82 (295.365 cd/m^2)
    Desired content max frame-average luminance: 82 (295.365 cd/m^2)
    Desired content min luminance: 79 (0.283 cd/m^2)
  Vendor-specific data block, OUI 00001a
Underscans PC formats by default
Basic audio support
Supports YCbCr 4:4:4
Supports YCbCr 4:2:2
2 native detailed modes
Detailed mode: Clock 108.000 MHz, 344 mm x 195 mm
               1600 1624 1704 1800 hborder 0
                900  901  904 1000 vborder 0
               +hsync +vsync 
               VertFreq: 60 Hz, HorFreq: 60000 Hz
Detailed mode: Clock 85.500 MHz, 344 mm x 195 mm
               1366 1436 1579 1792 hborder 0
                768  771  774  798 vborder 0
               +hsync +vsync 
               VertFreq: 59 Hz, HorFreq: 47712 Hz
Detailed mode: Clock 74.250 MHz, 344 mm x 195 mm
               1280 1390 1430 1650 hborder 0
                720  725  730  750 vborder 0
               +hsync +vsync 
               VertFreq: 60 Hz, HorFreq: 45000 Hz
Checksum: 0x96 (valid)

EDID block does NOT conform to EDID 1.3!
	Digital display field contains garbage: 22
EDID block does not conform at all!
	Both the serial number and the serial string are set
