edid-decode (hex):

00 ff ff ff ff ff ff 00 04 92 57 02 01 01 01 01
1e 16 01 03 80 00 00 96 ef ee 91 a3 54 4c 99 26
0f 50 54 bf ef 80 d1 c0 d1 00 45 59 61 59 71 4f
81 40 81 99 a9 40 30 2a 00 98 51 00 2a 40 30 70
13 00 00 00 00 00 00 1e 00 00 00 fd 00 1f 78 10
96 11 00 0a 20 20 20 20 20 20 00 00 00 fa 00 71
40 81 87 31 59 01 01 01 01 01 01 01 00 00 00 fc
00 4b 56 4d 2d 76 69 61 2d 49 50 0a 20 20 01 f7

02 01 04 00 28 3c 80 a0 70 b0 23 40 30 20 36 00
00 00 00 00 00 1e 00 00 00 00 00 00 00 00 00 00
00 00 00 00 00 00 00 00 00 00 00 00 00 00 00 00
00 00 00 00 00 00 00 00 00 00 00 00 00 00 00 00
00 00 00 00 00 00 00 00 00 00 00 00 00 00 00 00
00 00 00 00 00 00 00 00 00 00 00 00 00 00 00 00
00 00 00 00 00 00 00 00 00 00 00 00 00 00 00 00
00 00 00 00 00 00 00 00 00 00 00 00 00 00 00 4e

00 ff ff ff ff ff ff 00 04 92 57 02 01 01 01 01
1e 16 01 03 80 00 00 96 ef ee 91 a3 54 4c 99 26
0f 50 54 bf ef 80 d1 c0 d1 00 45 59 61 59 71 4f
81 40 81 99 a9 40 30 2a 00 98 51 00 2a 40 30 70
13 00 00 00 00 00 00 1e 00 00 00 fd 00 1f 78 10
96 11 00 0a 20 20 20 20 20 20 00 00 00 fa 00 71
40 81 87 31 59 01 01 01 01 01 01 01 00 00 00 fc
00 4b 56 4d 2d 76 69 61 2d 49 50 0a 20 20 01 f7

02 01 04 00 28 3c 80 a0 70 b0 23 40 30 20 36 00
00 00 00 00 00 1e 00 00 00 00 00 00 00 00 00 00
00 00 00 00 00 00 00 00 00 00 00 00 00 00 00 00
00 00 00 00 00 00 00 00 00 00 00 00 00 00 00 00
00 00 00 00 00 00 00 00 00 00 00 00 00 00 00 00
00 00 00 00 00 00 00 00 00 00 00 00 00 00 00 00
00 00 00 00 00 00 00 00 00 00 00 00 00 00 00 00
00 00 00 00 00 00 00 00 00 00 00 00 00 00 00 4e

----------------

Block 0, Base EDID:
  EDID Structure Version & Revision: 1.3
  Vendor & Product Identification:
    Manufacturer: ADR
    Model: 599
    Serial Number: ...
    Made in: week 30 of 2012
  Basic Display Parameters & Features:
    Digital display
    Image size is variable
    Gamma: 2.50
    DPMS levels: Standby Suspend Off
    RGB color display
    Default (sRGB) color space is primary color space
    First detailed timing is the preferred timing
    Supports GTF timings within operating range
  Color Characteristics:
    Red  : 0.6396, 0.3300
    Green: 0.2998, 0.5996
    Blue : 0.1503, 0.0595
    White: 0.3125, 0.3291
  Established Timings I & II:
    IBM     :   720x400    70.081663 Hz   9:5     31.467 kHz     28.320000 MHz
    DMT 0x04:   640x480    59.940476 Hz   4:3     31.469 kHz     25.175000 MHz
    Apple   :   640x480    66.666667 Hz   4:3     35.000 kHz     30.240000 MHz
    DMT 0x05:   640x480    72.808802 Hz   4:3     37.861 kHz     31.500000 MHz
    DMT 0x06:   640x480    75.000000 Hz   4:3     37.500 kHz     31.500000 MHz
    DMT 0x08:   800x600    56.250000 Hz   4:3     35.156 kHz     36.000000 MHz
    DMT 0x09:   800x600    60.316541 Hz   4:3     37.879 kHz     40.000000 MHz
    DMT 0x0a:   800x600    72.187572 Hz   4:3     48.077 kHz     50.000000 MHz
    DMT 0x0b:   800x600    75.000000 Hz   4:3     46.875 kHz     49.500000 MHz
    Apple   :   832x624    74.551266 Hz   4:3     49.726 kHz     57.284000 MHz
    DMT 0x10:  1024x768    60.003840 Hz   4:3     48.363 kHz     65.000000 MHz
    DMT 0x11:  1024x768    70.069359 Hz   4:3     56.476 kHz     75.000000 MHz
    DMT 0x12:  1024x768    75.028582 Hz   4:3     60.023 kHz     78.750000 MHz
    DMT 0x24:  1280x1024   75.024675 Hz   5:4     79.976 kHz    135.000000 MHz
    Apple   :  1152x870    75.061550 Hz 192:145   68.681 kHz    100.000000 MHz
  Standard Timings:
    DMT 0x52:  1920x1080   60.000000 Hz  16:9     67.500 kHz    148.500000 MHz
    DMT 0x45:  1920x1200   59.884600 Hz  16:10    74.556 kHz    193.250000 MHz
    DMT 0x0c:   800x600    85.061274 Hz   4:3     53.674 kHz     56.250000 MHz
    DMT 0x13:  1024x768    84.996690 Hz   4:3     68.677 kHz     94.500000 MHz
    DMT 0x15:  1152x864    75.000000 Hz   4:3     67.500 kHz    108.000000 MHz
    DMT 0x20:  1280x960    60.000000 Hz   4:3     60.000 kHz    108.000000 MHz
    DMT 0x25:  1280x1024   85.024098 Hz   5:4     91.146 kHz    157.500000 MHz
    DMT 0x33:  1600x1200   60.000000 Hz   4:3     75.000 kHz    162.000000 MHz
  Detailed Timing Descriptors:
    DTD 1:  1280x1024   60.019740 Hz   5:4     63.981 kHz    108.000000 MHz
                 Hfront   48 Hsync 112 Hback  248 Hpol P
                 Vfront    1 Vsync   3 Vback   38 Vpol P
    Display Range Limits:
      Monitor ranges (GTF): 31-120 Hz V, 16-150 kHz H, max dotclock 170 MHz
    Standard Timing Identifications:
      GTF     :  1152x864    60.000000 Hz   4:3     53.700 kHz     81.624000 MHz
      GTF     :  1280x1024   67.000183 Hz   5:4     71.288 kHz    123.186000 MHz
      DMT 0x07:   640x480    85.008312 Hz   4:3     43.269 kHz     36.000000 MHz
    Display Product Name: 'KVM-via-IP'
  Extension blocks: 1
Checksum: 0xf7

----------------

Block 1, CTA-861 Extension Block:
  Revision: 1
  Detailed Timing Descriptors:
    DTD 2:  1920x1200   59.950171 Hz  16:10    74.038 kHz    154.000000 MHz
                 Hfront   48 Hsync  32 Hback   80 Hpol P
                 Vfront    3 Vsync   6 Vback   26 Vpol P
Checksum: 0x4e  Unused space in Extension Block: 105 bytes

----------------

Block 2, Unknown EDID Extension Block 0x00:
  00 ff ff ff ff ff ff 00 04 92 57 02 01 01 01 01 '..........W.....'
  1e 16 01 03 80 00 00 96 ef ee 91 a3 54 4c 99 26 '............TL.&'
  0f 50 54 bf ef 80 d1 c0 d1 00 45 59 61 59 71 4f '.PT.......EYaYqO'
  81 40 81 99 a9 40 30 2a 00 98 51 00 2a 40 30 70 '.@...@0*..Q.*@0p'
  13 00 00 00 00 00 00 1e 00 00 00 fd 00 1f 78 10 '..............x.'
  96 11 00 0a 20 20 20 20 20 20 00 00 00 fa 00 71 '....      .....q'
  40 81 87 31 59 01 01 01 01 01 01 01 00 00 00 fc '@..1Y...........'
  00 4b 56 4d 2d 76 69 61 2d 49 50 0a 20 20 01 f7 '.KVM-via-IP.  ..'
Checksum: 0xf7

----------------

Block 3, CTA-861 Extension Block:
  Revision: 1
  Detailed Timing Descriptors:
    DTD 3:  1920x1200   59.950171 Hz  16:10    74.038 kHz    154.000000 MHz
                 Hfront   48 Hsync  32 Hback   80 Hpol P
                 Vfront    3 Vsync   6 Vback   26 Vpol P
Checksum: 0x4e  Unused space in Extension Block: 105 bytes

----------------

Warnings:

Block 0, Base EDID:
  Basic Display Parameters & Features: sRGB is signaled, but the gamma != 2.2.
Block 1, CTA-861 Extension Block:
  Detailed Timing Descriptor #2: DTD is similar but not identical to DMT 0x44.
Block 3, CTA-861 Extension Block:
  Detailed Timing Descriptor #3: DTD is similar but not identical to DMT 0x44.

Failures:

Block 1, CTA-861 Extension Block:
  Missing VCDB, needed for Set Selectable RGB Quantization to avoid interop issues.
Block 2, Base EDID:
  Unknown Extension Block.
Block 3, CTA-861 Extension Block:
  Missing VCDB, needed for Set Selectable RGB Quantization to avoid interop issues.
EDID:
  Base EDID: Some timings are out of range of the Monitor Ranges:
    Maximum Clock: 193.250 MHz (Monitor: 170.000 MHz)
  Base EDID: EDID specified 1 extension block(s), but found 3 extension block(s).
  Base EDID: EDID 1.3 requires a Block Map Extension in Block 1 if there are more than 2 blocks in the EDID.

EDID conformity: FAIL
