
EDID (hex):
00ffffffffffff0006af1400b83f0000
2e0e0103802114780a055097574f8f26
21505400000001010101010101010101
010101010101c61b00a0500037301070
130031b710000018000000fe00423134
304557303156300a2020000000fe0042
3134304557303156300a2020000000fc
00423134304557303156300a202000f4

edid-decode (hex):

00 ff ff ff ff ff ff 00 06 af 14 00 b8 3f 00 00
2e 0e 01 03 80 21 14 78 0a 05 50 97 57 4f 8f 26
21 50 54 00 00 00 01 01 01 01 01 01 01 01 01 01
01 01 01 01 01 01 c6 1b 00 a0 50 00 37 30 10 70
13 00 31 b7 10 00 00 18 00 00 00 fe 00 42 31 34
30 45 57 30 31 56 30 0a 20 20 00 00 00 fe 00 42
31 34 30 45 57 30 31 56 30 0a 20 20 00 00 00 fc
00 42 31 34 30 45 57 30 31 56 30 0a 20 20 00 f4

----------------

Block 0, Base EDID:
  EDID Structure Version & Revision: 1.3
  Vendor & Product Identification:
    Manufacturer: AUO
    Model: 20
    Serial Number: 16312
    Made in: week 46 of 2004
  Basic Display Parameters & Features:
    Digital display
    Maximum image size: 33 cm x 20 cm
    Gamma: 2.20
    RGB color display
    First detailed timing is the preferred timing
  Color Characteristics:
    Red  : 0.5898, 0.3398
    Green: 0.3095, 0.5595
    Blue : 0.1494, 0.1298
    White: 0.3125, 0.3281
  Established Timings I & II: none
  Standard Timings: none
  Detailed Timing Descriptors:
    DTD 1:  1280x768    59.993925 Hz   5:3     49.375 kHz     71.100000 MHz (305 mm x 183 mm)
                 Hfront   16 Hsync 112 Hback   32 Hpol N
                 Vfront    1 Vsync   3 Vback   51 Vpol N
    Alphanumeric Data String: 'B140EW01V0'
    Alphanumeric Data String: 'B140EW01V0'
    Display Product Name: 'B140EW01V0'
Checksum: 0xf4
