
EDID (hex):
00ffffffffffff004dd9800601010101
090d01030e241d78ea0929a2574b9a24
18484ca1080081800101010101010101
010101010101302a009851002a403070
1300671f1100001e000000fd00393f1c
410b000a202020202020000000fc0053
444d2d5838320a2020202020000000ff
00343830363635370a202020202000a1

Extracted contents:
header:          00 ff ff ff ff ff ff 00
serial number:   4d d9 80 06 01 01 01 01 09 0d
version:         01 03
basic params:    0e 24 1d 78 ea
chroma info:     09 29 a2 57 4b 9a 24 18 48 4c
established:     a1 08 00
standard:        81 80 01 01 01 01 01 01 01 01 01 01 01 01 01 01
descriptor 1:    30 2a 00 98 51 00 2a 40 30 70 13 00 67 1f 11 00 00 1e
descriptor 2:    00 00 00 fd 00 39 3f 1c 41 0b 00 0a 20 20 20 20 20 20
descriptor 3:    00 00 00 fc 00 53 44 4d 2d 58 38 32 0a 20 20 20 20 20
descriptor 4:    00 00 00 ff 00 34 38 30 36 36 35 37 0a 20 20 20 20 20
extensions:      00
checksum:        a1

EDID version: 1.3
Manufacturer: SNY Model 680 Serial Number --
Analog display, Input voltage level: 0.7/0.3 V
Sync: Separate Composite SyncOnGreen 
Maximum image size: 36 cm x 29 cm
Gamma: 2.20
DPMS levels: Standby Suspend Off
RGB color display
First detailed timing is preferred timing
Display x,y Chromaticity:
  Red:   0.6328, 0.3398
  Green: 0.2949, 0.6025
  Blue:  0.1406, 0.0957
  White: 0.2832, 0.2978
Established timings supported:
  720x400@70Hz 9:5 HorFreq: 31469 Hz Clock: 28.320 MHz
  640x480@60Hz 4:3 HorFreq: 31469 Hz Clock: 25.175 MHz
  800x600@60Hz 4:3 HorFreq: 37900 Hz Clock: 40.000 MHz
  1024x768@60Hz 4:3 HorFreq: 48400 Hz Clock: 65.000 MHz
Standard timings supported:
  1280x1024@60Hz 5:4 HorFreq: 64000 Hz Clock: 108.000 MHz
Detailed mode: Clock 108.000 MHz, 359 mm x 287 mm
               1280 1328 1440 1688 hborder 0
               1024 1025 1028 1066 vborder 0
               +hsync +vsync 
               VertFreq: 60 Hz, HorFreq: 63981 Hz
Monitor ranges (GTF): 57-63Hz V, 28-65kHz H, max dotclock 110MHz
Monitor name: SDM-X82
Serial number: --
Checksum: 0xa1 (valid)
One or more of the timings is out of range of the Monitor Ranges:
  Vertical Freq: 60 - 70 Hz
  Horizontal Freq: 31469 - 64000 Hz
  Maximum Clock: 108.000 MHz
EDID block does not conform at all!
	Bad year of manufacture
