edid-decode (hex):

00 ff ff ff ff ff ff 00 30 e4 27 03 00 00 00 00
28 15 01 04 90 1f 11 78 0a 37 45 96 58 57 8e 28
1e 50 54 00 00 00 01 01 01 01 01 01 01 01 01 01
01 01 01 01 01 01 58 1b 56 7e 50 00 0e 30 24 30
35 00 35 ae 10 00 00 19 de 12 56 9a 50 00 1a 30
24 30 35 00 35 ae 10 00 00 19 00 00 00 fe 00 44
37 30 50 56 80 31 34 30 57 48 36 0a 00 00 00 00
00 00 41 31 94 01 00 00 00 01 01 0a 20 20 00 ec

----------------

Block 0, Base EDID:
  EDID Structure Version & Revision: 1.4
  Vendor & Product Identification:
    Manufacturer: LGD
    Model: 807
    Made in: week 40 of 2011
  Basic Display Parameters & Features:
    Digital display
    Bits per primary color channel: 6
    Digital interface is not defined
    Maximum image size: 31 cm x 17 cm
    Gamma: 2.20
    Supported color formats: RGB 4:4:4, YCrCb 4:4:4
    First detailed timing includes the native pixel format and preferred refresh rate
  Color Characteristics:
    Red  : 0.5859, 0.3466
    Green: 0.3408, 0.5576
    Blue : 0.1572, 0.1171
    White: 0.3134, 0.3291
  Established Timings I & II: none
  Standard Timings: none
  Detailed Timing Descriptors:
    DTD 1:  1366x768    59.996 Hz 683:384  46.917 kHz  70.000 MHz (309 mm x 174 mm)
                 Hfront   36 Hsync  48 Hback  42 Hpol N
                 Vfront    3 Vsync   5 Vback   6 Vpol N
    DTD 2:  1366x768    40.021 Hz 683:384  31.776 kHz  48.300 MHz (309 mm x 174 mm)
                 Hfront   36 Hsync  48 Hback  70 Hpol N
                 Vfront    3 Vsync   5 Vback  18 Vpol N
    Alphanumeric Data String: 'D70PV'
    Manufacturer-Specified Display Descriptor (0x00): 00 00 00 00 41 31 94 01 00 00 00 01 01 0a 20 20 '....A1........  '
Checksum: 0xec

----------------

Failures:

Block 0, Base EDID:
  Alphanumeric Data String: Non-printable character.
  Missing Display Product Name.

EDID conformity: FAIL
