
EDID (hex):
00ffffffffffff004c2e401001000000
1015010381522e780ade58a3544c9926
0f4547afcf008140818fd1c08180714f
010101010101023a801871382d40582c
450033cc3100001e662150b051001b30
4070360033cc3100001e000000fc0053
414e594f2054560a20202020000000fd
00304c0f5011000a202020202020012f

Extracted contents:
header:          00 ff ff ff ff ff ff 00
serial number:   4c 2e 40 10 01 00 00 00 10 15
version:         01 03
basic params:    81 52 2e 78 0a
chroma info:     de 58 a3 54 4c 99 26 0f 45 47
established:     af cf 00
standard:        81 40 81 8f d1 c0 81 80 71 4f 01 01 01 01 01 01
descriptor 1:    02 3a 80 18 71 38 2d 40 58 2c 45 00 33 cc 31 00 00 1e
descriptor 2:    66 21 50 b0 51 00 1b 30 40 70 36 00 33 cc 31 00 00 1e
descriptor 3:    00 00 00 fc 00 53 41 4e 59 4f 20 54 56 0a 20 20 20 20
descriptor 4:    00 00 00 fd 00 30 4c 0f 50 11 00 0a 20 20 20 20 20 20
extensions:      01
checksum:        2f

EDID version: 1.3
Manufacturer: SAN Model 1040 Serial Number --
Made in week 16 of 2011
Digital display
DFP 1.x compatible TMDS
Maximum image size: 82 cm x 46 cm
Gamma: 2.20
RGB color display
First detailed timing is preferred timing
Display x,y Chromaticity:
  Red:   0.6396, 0.3291
  Green: 0.2998, 0.5996
  Blue:  0.1494, 0.0595
  White: 0.2714, 0.2773
Established timings supported:
  720x400@70Hz 9:5 HorFreq: 31469 Hz Clock: 28.320 MHz
  640x480@60Hz 4:3 HorFreq: 31469 Hz Clock: 25.175 MHz
  640x480@72Hz 4:3 HorFreq: 37900 Hz Clock: 31.500 MHz
  640x480@75Hz 4:3 HorFreq: 37500 Hz Clock: 31.500 MHz
  800x600@56Hz 4:3 HorFreq: 35200 Hz Clock: 36.000 MHz
  800x600@60Hz 4:3 HorFreq: 37900 Hz Clock: 40.000 MHz
  800x600@72Hz 4:3 HorFreq: 48100 Hz Clock: 50.000 MHz
  800x600@75Hz 4:3 HorFreq: 46900 Hz Clock: 49.500 MHz
  1024x768@60Hz 4:3 HorFreq: 48400 Hz Clock: 65.000 MHz
  1024x768@70Hz 4:3 HorFreq: 56500 Hz Clock: 75.000 MHz
  1024x768@75Hz 4:3 HorFreq: 60000 Hz Clock: 78.750 MHz
  1280x1024@75Hz 5:4 HorFreq: 80000 Hz Clock: 135.000 MHz
Standard timings supported:
  1280x960@60Hz 4:3 HorFreq: 60000 Hz Clock: 108.000 MHz
  1280x1024@75Hz 5:4 HorFreq: 80000 Hz Clock: 135.000 MHz
  1920x1080@60Hz 16:9
  1280x1024@60Hz 5:4 HorFreq: 64000 Hz Clock: 108.000 MHz
  1152x864@75Hz 4:3 HorFreq: 67500 Hz Clock: 108.000 MHz
Detailed mode: Clock 148.500 MHz, 819 mm x 460 mm
               1920 2008 2052 2200 hborder 0
               1080 1084 1089 1125 vborder 0
               +hsync +vsync 
               VertFreq: 60 Hz, HorFreq: 67500 Hz
Detailed mode: Clock 85.500 MHz, 819 mm x 460 mm
               1360 1424 1536 1792 hborder 0
                768  771  777  795 vborder 0
               +hsync +vsync 
               VertFreq: 60 Hz, HorFreq: 47712 Hz
Monitor name: SANYO TV
Monitor ranges (GTF): 48-76Hz V, 15-80kHz H, max dotclock 170MHz
Has 1 extension blocks
Checksum: 0x2f (valid)
