
EDID (hex):
00ffffffffffff0030e44b0200000000
00140104952213780262259f5d579b25
19505400000001010101010101010101
010101010101201c569a500016303020
350058c21000001ac012569a50001630
3020350058c21000001a000000fe0052
38363952803135365748320a00000000
00004101160000000009010a20200049

Extracted contents:
header:          00 ff ff ff ff ff ff 00
serial number:   30 e4 4b 02 00 00 00 00 00 14
version:         01 04
basic params:    95 22 13 78 02
chroma info:     62 25 9f 5d 57 9b 25 19 50 54
established:     00 00 00
standard:        01 01 01 01 01 01 01 01 01 01 01 01 01 01 01 01
descriptor 1:    20 1c 56 9a 50 00 16 30 30 20 35 00 58 c2 10 00 00 1a
descriptor 2:    c0 12 56 9a 50 00 16 30 30 20 35 00 58 c2 10 00 00 1a
descriptor 3:    00 00 00 fe 00 52 38 36 39 52 80 31 35 36 57 48 32 0a
descriptor 4:    00 00 00 00 00 00 41 01 16 00 00 00 00 09 01 0a 20 20
extensions:      00
checksum:        49

EDID version: 1.4
Manufacturer: LGD Model 24b Serial Number --
Made in year 2010
Digital display
6 bits per primary color channel
DisplayPort interface
Maximum image size: 34 cm x 19 cm
Gamma: 2.20
Supported color formats: RGB 4:4:4
First detailed timing includes the native pixel format and preferred refresh rate
Display x,y Chromaticity:
  Red:   0.6220, 0.3652
  Green: 0.3398, 0.6074
  Blue:  0.1445, 0.0996
  White: 0.3134, 0.3291
Established timings supported:
Standard timings supported:
Detailed mode: Clock 72.000 MHz, 344 mm x 194 mm
               1366 1414 1446 1520 hborder 0
                768  771  776  790 vborder 0
               +hsync -vsync 
               VertFreq: 59 Hz, HorFreq: 47368 Hz
Detailed mode: Clock 48.000 MHz, 344 mm x 194 mm
               1366 1414 1446 1520 hborder 0
                768  771  776  790 vborder 0
               +hsync -vsync 
               VertFreq: 39 Hz, HorFreq: 31578 Hz
ASCII string: R869R
Manufacturer-specified data, tag 0
Checksum: 0x49 (valid)
EDID block does NOT conform to EDID 1.4!
	Missing name descriptor
	Missing monitor ranges
	Detailed block string not properly terminated
