
EDID (hex):
00ffffffffffff004c2dd30300000000
3311010368291a8c2ae5b1a355499983
135054adce0001010101010101010101
010101010101662150b051001b304070
36009a001100001e6419004041002630
188836009a0011000018000000fd003c
4b1e3d09000a202020202020000000fc
0053414d53554e470a202020202000a4

Extracted contents:
header:          00 ff ff ff ff ff ff 00
serial number:   4c 2d d3 03 00 00 00 00 33 11
version:         01 03
basic params:    68 29 1a 8c 2a
chroma info:     e5 b1 a3 55 49 99 83 13 50 54
established:     ad ce 00
standard:        01 01 01 01 01 01 01 01 01 01 01 01 01 01 01 01
descriptor 1:    66 21 50 b0 51 00 1b 30 40 70 36 00 9a 00 11 00 00 1e
descriptor 2:    64 19 00 40 41 00 26 30 18 88 36 00 9a 00 11 00 00 18
descriptor 3:    00 00 00 fd 00 3c 4b 1e 3d 09 00 0a 20 20 20 20 20 20
descriptor 4:    00 00 00 fc 00 53 41 4d 53 55 4e 47 0a 20 20 20 20 20
extensions:      00
checksum:        a4

EDID version: 1.3
Manufacturer: SAM Model 3d3 Serial Number --
Made in week 51 of 2007
Analog display, Input voltage level: 0.7/0.7 V
Sync: Separate 
Maximum image size: 41 cm x 26 cm
Gamma: 2.40
DPMS levels: Off
RGB color display
First detailed timing is preferred timing
Display x,y Chromaticity:
  Red:   0.6396, 0.3339
  Green: 0.2861, 0.5986
  Blue:  0.5136, 0.0771
  White: 0.3125, 0.3291
Established timings supported:
  720x400@70Hz 9:5 HorFreq: 31469 Hz Clock: 28.320 MHz
  640x480@60Hz 4:3 HorFreq: 31469 Hz Clock: 25.175 MHz
  640x480@72Hz 4:3 HorFreq: 37900 Hz Clock: 31.500 MHz
  640x480@75Hz 4:3 HorFreq: 37500 Hz Clock: 31.500 MHz
  800x600@60Hz 4:3 HorFreq: 37900 Hz Clock: 40.000 MHz
  800x600@72Hz 4:3 HorFreq: 48100 Hz Clock: 50.000 MHz
  800x600@75Hz 4:3 HorFreq: 46900 Hz Clock: 49.500 MHz
  1024x768@60Hz 4:3 HorFreq: 48400 Hz Clock: 65.000 MHz
  1024x768@70Hz 4:3 HorFreq: 56500 Hz Clock: 75.000 MHz
  1024x768@75Hz 4:3 HorFreq: 60000 Hz Clock: 78.750 MHz
Standard timings supported:
Detailed mode: Clock 85.500 MHz, 410 mm x 256 mm
               1360 1424 1536 1792 hborder 0
                768  771  777  795 vborder 0
               +hsync +vsync 
               VertFreq: 60 Hz, HorFreq: 47712 Hz
Detailed mode: Clock 65.000 MHz, 410 mm x 256 mm
               1024 1048 1184 1344 hborder 0
                768  771  777  806 vborder 0
               -hsync -vsync 
               VertFreq: 60 Hz, HorFreq: 48363 Hz
Monitor ranges (GTF): 60-75Hz V, 30-61kHz H, max dotclock 90MHz
Monitor name: SAMSUNG
Checksum: 0xa4 (valid)
