
EDID (hex):
00ffffffffffff005925802301010101
0f2001040e351d782a1ec5ae4f34b126
0e50542108008180a940d1c071400101
010101010101023a801871382d40582c
450012222100001e0000001000000000
00000000000000000000000000fc0048
3233380a2020202020202020000000fd
00303c1e6411000a20202020202000ca

Extracted contents:
header:          00 ff ff ff ff ff ff 00
serial number:   59 25 80 23 01 01 01 01 0f 20
version:         01 04
basic params:    0e 35 1d 78 2a
chroma info:     1e c5 ae 4f 34 b1 26 0e 50 54
established:     21 08 00
standard:        81 80 a9 40 d1 c0 71 40 01 01 01 01 01 01 01 01
descriptor 1:    02 3a 80 18 71 38 2d 40 58 2c 45 00 12 22 21 00 00 1e
descriptor 2:    00 00 00 10 00 00 00 00 00 00 00 00 00 00 00 00 00 00
descriptor 3:    00 00 00 fc 00 48 32 33 38 0a 20 20 20 20 20 20 20 20
descriptor 4:    00 00 00 fd 00 30 3c 1e 64 11 00 0a 20 20 20 20 20 20
extensions:      00
checksum:        ca

EDID version: 1.4
Manufacturer: VIE Model 2380 Serial Number --
Made in week 15 of 2022
Analog display, Input voltage level: 0.7/0.3 V
Blank level equals black level
Sync: Separate Composite SyncOnGreen 
Maximum image size: 53 cm x 29 cm
Gamma: 2.20
DPMS levels: Off
RGB color display
First detailed timing includes the native pixel format and preferred refresh rate
Display x,y Chromaticity:
  Red:   0.6796, 0.3095
  Green: 0.2060, 0.6933
  Blue:  0.1513, 0.0546
  White: 0.3134, 0.3291
Established timings supported:
  640x480@60Hz 4:3 HorFreq: 31469 Hz Clock: 25.175 MHz
  800x600@60Hz 4:3 HorFreq: 37900 Hz Clock: 40.000 MHz
  1024x768@60Hz 4:3 HorFreq: 48400 Hz Clock: 65.000 MHz
Standard timings supported:
  1280x1024@60Hz 5:4 HorFreq: 64000 Hz Clock: 108.000 MHz
  1600x1200@60Hz 4:3 HorFreq: 75000 Hz Clock: 162.000 MHz
  1920x1080@60Hz 16:9
  1152x864@60Hz 4:3
Detailed mode: Clock 148.500 MHz, 530 mm x 290 mm
               1920 2008 2052 2200 hborder 0
               1080 1084 1089 1125 vborder 0
               +hsync +vsync 
               VertFreq: 60 Hz, HorFreq: 67500 Hz
Dummy block
Monitor name: H238
Monitor ranges (GTF): 48-60Hz V, 30-100kHz H, max dotclock 170MHz
Checksum: 0xca (valid)
