
EDID (hex):
00ffffffffffff0006afed1300000000
001201049022137802c8959e57549226
0f505400000001010101010101010101
010101010101143780b2703828401810
240058c110000018b82480b270382840
1810240058c110000018000000000000
00000000000000000000000000000002
000c35f90f3c8c1a183c9320202000a1

Extracted contents:
header:          00 ff ff ff ff ff ff 00
serial number:   06 af ed 13 00 00 00 00 00 12
version:         01 04
basic params:    90 22 13 78 02
chroma info:     c8 95 9e 57 54 92 26 0f 50 54
established:     00 00 00
standard:        01 01 01 01 01 01 01 01 01 01 01 01 01 01 01 01
descriptor 1:    14 37 80 b2 70 38 28 40 18 10 24 00 58 c1 10 00 00 18
descriptor 2:    b8 24 80 b2 70 38 28 40 18 10 24 00 58 c1 10 00 00 18
descriptor 3:    00 00 00 00 00 00 00 00 00 00 00 00 00 00 00 00 00 00
descriptor 4:    00 00 00 02 00 0c 35 f9 0f 3c 8c 1a 18 3c 93 20 20 20
extensions:      00
checksum:        a1

EDID version: 1.4
Manufacturer: AUO Model 13ed Serial Number --
Made in year 2008
Digital display
6 bits per primary color channel
Digital interface is not defined
Maximum image size: 34 cm x 19 cm
Gamma: 2.20
Supported color formats: RGB 4:4:4
First detailed timing includes the native pixel format and preferred refresh rate
Display x,y Chromaticity:
  Red:   0.6201, 0.3398
  Green: 0.3300, 0.5703
  Blue:  0.1503, 0.0595
  White: 0.3134, 0.3291
Established timings supported:
Standard timings supported:
Detailed mode: Clock 141.000 MHz, 344 mm x 193 mm
               1920 1944 1960 2098 hborder 0
               1080 1082 1086 1120 vborder 0
               -hsync -vsync 
               VertFreq: 60 Hz, HorFreq: 67206 Hz
Detailed mode: Clock 94.000 MHz, 344 mm x 193 mm
               1920 1944 1960 2098 hborder 0
               1080 1082 1086 1120 vborder 0
               -hsync -vsync 
               VertFreq: 40 Hz, HorFreq: 44804 Hz
Manufacturer-specified data, tag 0
Manufacturer-specified data, tag 2
Checksum: 0xa1 (valid)
EDID block does NOT conform to EDID 1.4!
	Missing name descriptor
	Missing monitor ranges
