
EDID (hex):
00ffffffffffff0006afed1300000000
001201049022137802c8959e57549226
0f505400000001010101010101010101
010101010101843a807870388f403c30
cc0058c1100000180000000f00000000
00000000000000000020000000fe0041
554f0a202020202020202020000000fe
004231353648573031205633200a0049

Extracted contents:
header:          00 ff ff ff ff ff ff 00
serial number:   06 af ed 13 00 00 00 00 00 12
version:         01 04
basic params:    90 22 13 78 02
chroma info:     c8 95 9e 57 54 92 26 0f 50 54
established:     00 00 00
standard:        01 01 01 01 01 01 01 01 01 01 01 01 01 01 01 01
descriptor 1:    84 3a 80 78 70 38 8f 40 3c 30 cc 00 58 c1 10 00 00 18
descriptor 2:    00 00 00 0f 00 00 00 00 00 00 00 00 00 00 00 00 00 20
descriptor 3:    00 00 00 fe 00 41 55 4f 0a 20 20 20 20 20 20 20 20 20
descriptor 4:    00 00 00 fe 00 42 31 35 36 48 57 30 31 20 56 33 20 0a
extensions:      00
checksum:        49

EDID version: 1.4
Manufacturer: AUO Model 13ed Serial Number --
Made in year 2008
Digital display
6 bits per primary color channel
Digital interface is not defined
Maximum image size: 34 cm x 19 cm
Gamma: 2.20
Supported color formats: RGB 4:4:4
First detailed timing includes the native pixel format and preferred refresh rate
Display x,y Chromaticity:
  Red:   0.6201, 0.3398
  Green: 0.3300, 0.5703
  Blue:  0.1503, 0.0595
  White: 0.3134, 0.3291
Established timings supported:
Standard timings supported:
Detailed mode: Clock 149.800 MHz, 344 mm x 193 mm
               1920 1980 2028 2040 hborder 0
               1080 1092 1104 1223 vborder 0
               -hsync -vsync 
               VertFreq: 60 Hz, HorFreq: 73431 Hz
Manufacturer-specified data, tag 15
ASCII string: AUO
ASCII string: B156HW01 V3 
Checksum: 0x49 (valid)
EDID block does NOT conform to EDID 1.4!
	Missing name descriptor
	Missing monitor ranges
