
EDID (hex):
00ffffffffffff0022f0014100000000
0014010380301b782e3585a656489a24
125054010a00d1c0b300a940a9c09500
8bc0810081c0023a801871382d40582c
4500dd0c1100001e000000fe004d3231
35485730312056360a0a000000fe0054
6f6e67612d650a0a0a0a0a0a000000fc
00363030302050726f2041694f0a000b

Extracted contents:
header:          00 ff ff ff ff ff ff 00
serial number:   22 f0 01 41 00 00 00 00 00 14
version:         01 03
basic params:    80 30 1b 78 2e
chroma info:     35 85 a6 56 48 9a 24 12 50 54
established:     01 0a 00
standard:        d1 c0 b3 00 a9 40 a9 c0 95 00 8b c0 81 00 81 c0
descriptor 1:    02 3a 80 18 71 38 2d 40 58 2c 45 00 dd 0c 11 00 00 1e
descriptor 2:    00 00 00 fe 00 4d 32 31 35 48 57 30 31 20 56 36 0a 0a
descriptor 3:    00 00 00 fe 00 54 6f 6e 67 61 2d 65 0a 0a 0a 0a 0a 0a
descriptor 4:    00 00 00 fc 00 36 30 30 30 20 50 72 6f 20 41 69 4f 0a
extensions:      00
checksum:        0b

EDID version: 1.3
Manufacturer: HWP Model 4101 Serial Number --
Made in year 2010
Digital display
Maximum image size: 48 cm x 27 cm
Gamma: 2.20
DPMS levels: Off
RGB color display
Default (sRGB) color space is primary color space
First detailed timing is preferred timing
Display x,y Chromaticity:
  Red:   0.6484, 0.3388
  Green: 0.2822, 0.6025
  Blue:  0.1425, 0.0703
  White: 0.3134, 0.3291
Established timings supported:
  800x600@60Hz 4:3 HorFreq: 37900 Hz Clock: 40.000 MHz
  1024x768@60Hz 4:3 HorFreq: 48400 Hz Clock: 65.000 MHz
  1024x768@75Hz 4:3 HorFreq: 60000 Hz Clock: 78.750 MHz
Standard timings supported:
  1920x1080@60Hz 16:9
  1680x1050@60Hz 16:10 HorFreq: 64700 Hz Clock: 119.000 MHz
  1600x1200@60Hz 4:3 HorFreq: 75000 Hz Clock: 162.000 MHz
  1600x900@60Hz 16:9
  1440x900@60Hz 16:10 HorFreq: 55500 Hz Clock: 88.750 MHz
  1360x765@60Hz 16:9
  1280x800@60Hz 16:10
  1280x720@60Hz 16:9
Detailed mode: Clock 148.500 MHz, 477 mm x 268 mm
               1920 2008 2052 2200 hborder 0
               1080 1084 1089 1125 vborder 0
               +hsync +vsync 
               VertFreq: 60 Hz, HorFreq: 67500 Hz
ASCII string: M215HW01 V6
ASCII string: Tonga-e
Monitor name: 6000 Pro AiO
Checksum: 0xb (valid)
EDID block does NOT conform to EDID 1.3!
	sRGB is signaled, but the chromaticities do not match
	Missing monitor ranges
	Detailed block string not properly terminated
