
EDID (hex):
00ffffffffffff0050b5cb025f050000
160d01037a1e17782e1605a35a4d9624
184f54bfee0001010101010101010101
010101010101c31e0020410020301060
130030e41000001e000000fd00284c1e
3d08000a202020202020000000ff0020
202020202020202020202020000000fc
00544c3533350a202020202020200006

Extracted contents:
header:          00 ff ff ff ff ff ff 00
serial number:   50 b5 cb 02 5f 05 00 00 16 0d
version:         01 03
basic params:    7a 1e 17 78 2e
chroma info:     16 05 a3 5a 4d 96 24 18 4f 54
established:     bf ee 00
standard:        01 01 01 01 01 01 01 01 01 01 01 01 01 01 01 01
descriptor 1:    c3 1e 00 20 41 00 20 30 10 60 13 00 30 e4 10 00 00 1e
descriptor 2:    00 00 00 fd 00 28 4c 1e 3d 08 00 0a 20 20 20 20 20 20
descriptor 3:    00 00 00 ff 00 20 20 20 20 20 20 20 20 20 20 20 20 20
descriptor 4:    00 00 00 fc 00 54 4c 35 33 35 0a 20 20 20 20 20 20 20
extensions:      00
checksum:        06

EDID version: 1.3
Manufacturer: TEU Model 2cb Serial Number --
Analog display, Input voltage level: 0.7/0.7 V
Configurable signal levels
Sync: Separate SyncOnGreen 
Maximum image size: 30 cm x 23 cm
Gamma: 2.20
DPMS levels: Off
RGB color display
Default (sRGB) color space is primary color space
First detailed timing is preferred timing
Display x,y Chromaticity:
  Red:   0.6367, 0.3525
  Green: 0.3017, 0.5878
  Blue:  0.1406, 0.0937
  White: 0.3095, 0.3291
Established timings supported:
  720x400@70Hz 9:5 HorFreq: 31469 Hz Clock: 28.320 MHz
  640x480@60Hz 4:3 HorFreq: 31469 Hz Clock: 25.175 MHz
  640x480@67Hz 4:3 HorFreq: 35000 Hz Clock: 30.240 MHz
  640x480@72Hz 4:3 HorFreq: 37900 Hz Clock: 31.500 MHz
  640x480@75Hz 4:3 HorFreq: 37500 Hz Clock: 31.500 MHz
  800x600@56Hz 4:3 HorFreq: 35200 Hz Clock: 36.000 MHz
  800x600@60Hz 4:3 HorFreq: 37900 Hz Clock: 40.000 MHz
  800x600@72Hz 4:3 HorFreq: 48100 Hz Clock: 50.000 MHz
  800x600@75Hz 4:3 HorFreq: 46900 Hz Clock: 49.500 MHz
  832x624@75Hz 4:3 HorFreq: 49726 Hz Clock: 57.284 MHz
  1024x768@60Hz 4:3 HorFreq: 48400 Hz Clock: 65.000 MHz
  1024x768@70Hz 4:3 HorFreq: 56500 Hz Clock: 75.000 MHz
  1024x768@75Hz 4:3 HorFreq: 60000 Hz Clock: 78.750 MHz
Standard timings supported:
Detailed mode: Clock 78.750 MHz, 304 mm x 228 mm
               1024 1040 1136 1312 hborder 0
                768  769  772  800 vborder 0
               +hsync +vsync 
               VertFreq: 75 Hz, HorFreq: 60022 Hz
Monitor ranges (GTF): 40-76Hz V, 30-61kHz H, max dotclock 80MHz
Serial number:              
-- name: TL535
Checksum: 0x6 (valid)
EDID block does NOT conform to EDID 1.3!
	sRGB is signaled, but the chromaticities do not match
EDID block does not conform at all!
	Bad year of manufacture
