edid-decode (hex):

00 ff ff ff ff ff ff 00 30 ae e4 40 00 00 00 00
00 17 01 04 95 1c 10 78 ea bf 05 9a 59 55 8e 26
1d 50 54 00 00 00 01 01 01 01 01 01 01 01 01 01
01 01 01 01 01 01 f4 35 80 ba 70 38 0f 40 30 20
35 00 14 9c 10 00 00 1a f4 35 80 ba 70 38 0f 40
30 20 35 00 14 9c 10 00 00 1a 00 00 00 0f 00 d1
09 3c d1 09 3c 28 0a 00 30 e4 37 04 00 00 00 fe
00 4c 50 31 32 35 57 46 32 2d 53 50 42 32 00 c1

----------------

Block 0, Base EDID:
  EDID Structure Version & Revision: 1.4
  Vendor & Product Identification:
    Manufacturer: LEN
    Model: 16612
    Made in: 2013
  Basic Display Parameters & Features:
    Digital display
    Bits per primary color channel: 6
    DisplayPort interface
    Maximum image size: 28 cm x 16 cm
    Gamma: 2.20
    DPMS levels: Standby Suspend Off
    Supported color formats: RGB 4:4:4, YCrCb 4:4:4
    First detailed timing includes the native pixel format and preferred refresh rate
  Color Characteristics:
    Red  : 0.6035, 0.3505
    Green: 0.3349, 0.5576
    Blue : 0.1484, 0.1132
    White: 0.3134, 0.3291
  Established Timings I & II: none
  Standard Timings: none
  Detailed Timing Descriptors:
    DTD 1:  1920x1080   59.894106 Hz  16:9     65.584 kHz    138.120000 MHz (276 mm x 156 mm)
                 Hfront   48 Hsync  32 Hback  106 Hpol P
                 Vfront    3 Vsync   5 Vback    7 Vpol N
    DTD 2:  1920x1080   59.894106 Hz  16:9     65.584 kHz    138.120000 MHz (276 mm x 156 mm)
                 Hfront   48 Hsync  32 Hback  106 Hpol P
                 Vfront    3 Vsync   5 Vback    7 Vpol N
    Manufacturer-Specified Display Descriptor (0x0f): 00 0f 00 d1 09 3c d1 09 3c 28 0a 00 30 e4 37 04 '.....<..<(..0.7.'
    Alphanumeric Data String: 'LP125WF2-SPB2'
Checksum: 0xc1

----------------

Warnings:

Block 0, Base EDID:
  Missing Display Product Name.

EDID conformity: PASS
