
EDID (hex):
00ffffffffffff0022f0582900000000
0c170104813c2278222e25a7554d9e26
0c505400000001010101010101010101
0101010101011a1d008051d01c204080
750055502100001e1a1d008051d01c20
4080750055502100001e000000fc0048
50205a5232373430770a2020000000ff
00434e5433313259314b360a2020009b

Extracted contents:
header:          00 ff ff ff ff ff ff 00
serial number:   22 f0 58 29 00 00 00 00 0c 17
version:         01 04
basic params:    81 3c 22 78 22
chroma info:     2e 25 a7 55 4d 9e 26 0c 50 54
established:     00 00 00
standard:        01 01 01 01 01 01 01 01 01 01 01 01 01 01 01 01
descriptor 1:    1a 1d 00 80 51 d0 1c 20 40 80 75 00 55 50 21 00 00 1e
descriptor 2:    1a 1d 00 80 51 d0 1c 20 40 80 75 00 55 50 21 00 00 1e
descriptor 3:    00 00 00 fc 00 48 50 20 5a 52 32 37 34 30 77 0a 20 20
descriptor 4:    00 00 00 ff 00 43 4e 54 33 31 32 59 31 4b 36 0a 20 20
extensions:      00
checksum:        9b

EDID version: 1.4
Manufacturer: HWP Model 2958 Serial Number --
Made in week 12 of 2013
Digital display
Color depth is undefined
DVI interface
Maximum image size: 60 cm x 34 cm
Gamma: 2.20
DPMS levels: Off
Supported color formats: RGB 4:4:4
First detailed timing includes the native pixel format and preferred refresh rate
Display x,y Chromaticity:
  Red:   0.6523, 0.3339
  Green: 0.3037, 0.6191
  Blue:  0.1484, 0.0488
  White: 0.3134, 0.3291
Established timings supported:
Standard timings supported:
Detailed mode: Clock 74.500 MHz, 597 mm x 336 mm
               1280 1344 1472 1664 hborder 0
                720  727  732  748 vborder 0
               +hsync +vsync 
               VertFreq: 59 Hz, HorFreq: 44771 Hz
Detailed mode: Clock 74.500 MHz, 597 mm x 336 mm
               1280 1344 1472 1664 hborder 0
                720  727  732  748 vborder 0
               +hsync +vsync 
               VertFreq: 59 Hz, HorFreq: 44771 Hz
Monitor name: HP ZR2740w
Serial number: --
Checksum: 0x9b (valid)
	Missing monitor ranges


