
EDID (hex):
00ffffffffffff004c23700200000000
2f1d0104a53c21783b8e05ad4f33b026
0d5054a74b0081c081809500a9c0b300
d1c001010101565e00a0a0a029503020
350055502100001a000000ff00303030
30303030303030303030000000fd001e
92dfdf3c010a202020202020000000fc
0044500a20202020202020202020012e
02031a754d909f859404130312010211
4d4e2309070783010000f5bd00a0a0a0
32502040450055502100001a9ee00078
a0a032503040350055502100001af47e
8088703812401820350055502100007f
00000000000000000000000000000000
00000000000000000000000000000000
00000000000000000000000000000042

Extracted contents:
header:          00 ff ff ff ff ff ff 00
serial number:   4c 23 70 02 00 00 00 00 2f 1d
version:         01 04
basic params:    a5 3c 21 78 3b
chroma info:     8e 05 ad 4f 33 b0 26 0d 50 54
established:     a7 4b 00
standard:        81 c0 81 80 95 00 a9 c0 b3 00 d1 c0 01 01 01 01
descriptor 1:    56 5e 00 a0 a0 a0 29 50 30 20 35 00 55 50 21 00 00 1a
descriptor 2:    00 00 00 ff 00 30 30 30 30 30 30 30 30 30 30 30 30 30
descriptor 3:    00 00 00 fd 00 1e 92 df df 3c 01 0a 20 20 20 20 20 20
descriptor 4:    00 00 00 fc 00 44 50 0a 20 20 20 20 20 20 20 20 20 20
extensions:      01
checksum:        2e

EDID version: 1.4
Manufacturer: SAC Model 270 Serial Number --
Made in week 47 of 2019
Digital display
8 bits per primary color channel
DisplayPort interface
Maximum image size: 60 cm x 33 cm
Gamma: 2.20
DPMS levels: Off
Supported color formats: RGB 4:4:4, YCrCb 4:4:4, YCrCb 4:2:2
First detailed timing includes the native pixel format and preferred refresh rate
Display is continuous frequency
Display x,y Chromaticity:
  Red:   0.6777, 0.3085
  Green: 0.2021, 0.6894
  Blue:  0.1484, 0.0507
  White: 0.3134, 0.3291
Established timings supported:
  720x400@70Hz 9:5 HorFreq: 31469 Hz Clock: 28.320 MHz
  640x480@60Hz 4:3 HorFreq: 31469 Hz Clock: 25.175 MHz
  640x480@75Hz 4:3 HorFreq: 37500 Hz Clock: 31.500 MHz
  800x600@56Hz 4:3 HorFreq: 35200 Hz Clock: 36.000 MHz
  800x600@60Hz 4:3 HorFreq: 37900 Hz Clock: 40.000 MHz
  800x600@75Hz 4:3 HorFreq: 46900 Hz Clock: 49.500 MHz
  1024x768@60Hz 4:3 HorFreq: 48400 Hz Clock: 65.000 MHz
  1024x768@75Hz 4:3 HorFreq: 60000 Hz Clock: 78.750 MHz
  1280x1024@75Hz 5:4 HorFreq: 80000 Hz Clock: 135.000 MHz
Standard timings supported:
  1280x720@60Hz 16:9
  1280x1024@60Hz 5:4 HorFreq: 64000 Hz Clock: 108.000 MHz
  1440x900@60Hz 16:10 HorFreq: 55500 Hz Clock: 88.750 MHz
  1600x900@60Hz 16:9
  1680x1050@60Hz 16:10 HorFreq: 64700 Hz Clock: 119.000 MHz
  1920x1080@60Hz 16:9
Detailed mode: Clock 241.500 MHz, 597 mm x 336 mm
               2560 2608 2640 2720 hborder 0
               1440 1443 1448 1481 vborder 0
               +hsync -vsync 
               VertFreq: 59 Hz, HorFreq: 88786 Hz
Serial number: --
Monitor ranges (bare limits): 30-146Hz V, 223-223kHz H, max dotclock 600MHz
Monitor name: DP
Has 1 extension blocks
Checksum: 0x2e (valid)

CTA extension block
Extension version: 3
22 bytes of CTA data
  Video data block
    VIC  16 1920x1080@60Hz 16:9 (native) HorFreq: 67500 Hz Clock: 148.500 MHz
    VIC  31 1920x1080@50Hz 16:9 (native) HorFreq: 56250 Hz Clock: 148.500 MHz
    VIC   5 1920x1080i@60Hz 16:9 (native) HorFreq: 33750 Hz Clock: 74.250 MHz
    VIC  20 1920x1080i@50Hz 16:9 (native) HorFreq: 28125 Hz Clock: 74.250 MHz
    VIC   4 1280x720@60Hz 16:9  HorFreq: 45000 Hz Clock: 74.250 MHz
    VIC  19 1280x720@50Hz 16:9  HorFreq: 37500 Hz Clock: 74.250 MHz
    VIC   3 720x480@60Hz 16:9  HorFreq: 31469 Hz Clock: 27.000 MHz
    VIC  18 720x576@50Hz 16:9  HorFreq: 31250 Hz Clock: 27.000 MHz
    VIC   1 640x480@60Hz 4:3  HorFreq: 31469 Hz Clock: 25.175 MHz
    VIC   2 720x480@60Hz 4:3  HorFreq: 31469 Hz Clock: 27.000 MHz
    VIC  17 720x576@50Hz 4:3  HorFreq: 31250 Hz Clock: 27.000 MHz
    VIC  77 1920x1080@100Hz 64:27  HorFreq: 112500 Hz Clock: 297.000 MHz
    VIC  78 1920x1080@120Hz 64:27  HorFreq: 135000 Hz Clock: 297.000 MHz
  Audio data block
    Linear PCM, max channels 2
      Supported sample rates (kHz): 48 44.1 32
      Supported sample sizes (bits): 24 20 16
  Speaker allocation data block
    Speaker map:
      FL/FR - Front Left/Right
Basic audio support
Supports YCbCr 4:4:4
Supports YCbCr 4:2:2
5 native detailed modes
Detailed mode: Clock 486.290 MHz, 597 mm x 336 mm
               2560 2592 2656 2720 hborder 0
               1440 1444 1449 1490 vborder 0
               +hsync -vsync 
               VertFreq: 119 Hz, HorFreq: 178783 Hz
Detailed mode: Clock 575.020 MHz, 597 mm x 336 mm
               2560 2608 2672 2680 hborder 0
               1440 1443 1448 1490 vborder 0
               +hsync -vsync 
               VertFreq: 143 Hz, HorFreq: 214559 Hz
Detailed mode: Clock 325.000 MHz, 597 mm x 336 mm
               1920 1944 1976 2056 hborder 0
               1080 1083 1088 1098 vborder 0
               +hsync +vsync side by side interleaved
               VertFreq: 143 Hz, HorFreq: 158073 Hz
Checksum: 0x42 (valid)

Warning: One or more of the timings is out of range of the Monitor Ranges:
  Vertical Freq: 50 - 143 Hz
  Horizontal Freq: 28125 - 214559 Hz
  Maximum Clock: 575.020 MHz


