
EDID (hex):
00ffffffffffff004e14cd0a01000000
181f0104b53c21783bca75a954459822
1f505421080001010101010101010101
010101010101023a801871382d40582c
3500584a2100001e139580a070382040
30203500584a2100001e000000fd0030
a5bebe3c010a202020202020000000fc
0053636570747265204d32370a2001b2
02031ef24390013f00e200c0e305c000
23097f0783010000e50f00000c00d985
80a070384040302035000a252100001e
8a6f80a070384040302035000a252100
001e0e5c80a070383540302035000a25
2100001e000000000000000000000000
00000000000000000000000000000000
000000000000000000000000000000f1

Extracted contents:
header:          00 ff ff ff ff ff ff 00
serial number:   4e 14 cd 0a 01 00 00 00 18 1f
version:         01 04
basic params:    b5 3c 21 78 3b
chroma info:     ca 75 a9 54 45 98 22 1f 50 54
established:     21 08 00
standard:        01 01 01 01 01 01 01 01 01 01 01 01 01 01 01 01
descriptor 1:    02 3a 80 18 71 38 2d 40 58 2c 35 00 58 4a 21 00 00 1e
descriptor 2:    13 95 80 a0 70 38 20 40 30 20 35 00 58 4a 21 00 00 1e
descriptor 3:    00 00 00 fd 00 30 a5 be be 3c 01 0a 20 20 20 20 20 20
descriptor 4:    00 00 00 fc 00 53 63 65 70 74 72 65 20 4d 32 37 0a 20
extensions:      01
checksum:        b2

EDID version: 1.4
Manufacturer: SPT Model acd Serial Number --
Made in week 24 of 2021
Digital display
10 bits per primary color channel
DisplayPort interface
Maximum image size: 60 cm x 33 cm
Gamma: 2.20
DPMS levels: Off
Supported color formats: RGB 4:4:4, YCrCb 4:4:4, YCrCb 4:2:2
First detailed timing includes the native pixel format and preferred refresh rate
Display is continuous frequency
Display x,y Chromaticity:
  Red:   0.6630, 0.3281
  Green: 0.2714, 0.5957
  Blue:  0.1337, 0.1240
  White: 0.3134, 0.3291
Established timings supported:
  640x480@60Hz 4:3 HorFreq: 31469 Hz Clock: 25.175 MHz
  800x600@60Hz 4:3 HorFreq: 37900 Hz Clock: 40.000 MHz
  1024x768@60Hz 4:3 HorFreq: 48400 Hz Clock: 65.000 MHz
Standard timings supported:
Detailed mode: Clock 148.500 MHz, 600 mm x 330 mm
               1920 2008 2052 2200 hborder 0
               1080 1083 1088 1125 vborder 0
               +hsync +vsync 
               VertFreq: 60 Hz, HorFreq: 67500 Hz
Detailed mode: Clock 381.630 MHz, 600 mm x 330 mm
               1920 1968 2000 2080 hborder 0
               1080 1083 1088 1112 vborder 0
               +hsync +vsync 
               VertFreq: 164 Hz, HorFreq: 183475 Hz
Monitor ranges (bare limits): 48-165Hz V, 190-190kHz H, max dotclock 600MHz
Monitor name: Sceptre M27
Has 1 extension blocks
Checksum: 0xb2 (valid)

CTA extension block
Extension version: 3
26 bytes of CTA data
  Video data block
    VIC  16 1920x1080@60Hz 16:9 (native) HorFreq: 67500 Hz Clock: 148.500 MHz
    VIC   1 640x480@60Hz 4:3  HorFreq: 31469 Hz Clock: 25.175 MHz
    VIC  63 1920x1080@120Hz 16:9  HorFreq: 135000 Hz Clock: 297.000 MHz
  Unknown tag 0, length 0 (raw 00)
  Extended tag: Video capability data block
    YCbCr quantization: Selectable (via AVI YQ) (1)
    RGB quantization: Selectable (via AVI Q) (1)
    PT scan behaviour: No Data (0)
    IT scan behaviour: IT video formats not supported (0)
    CE scan behaviour: CE video formats not supported (0)
  Extended tag: Colorimetry data block
    BT2020YCC
    BT2020RGB
  Audio data block
    Linear PCM, max channels 2
      Supported sample rates (kHz): 192 176.4 96 88.2 48 44.1 32
      Supported sample sizes (bits): 24 20 16
  Speaker allocation data block
    Speaker map:
      FL/FR - Front Left/Right
  Extended tag: YCbCr 4:2:0 capability map data block
    VSD Index 18
    VSD Index 19
Underscans PC formats by default
Basic audio support
Supports YCbCr 4:4:4
Supports YCbCr 4:2:2
2 native detailed modes
Detailed mode: Clock 342.650 MHz, 522 mm x 293 mm
               1920 1968 2000 2080 hborder 0
               1080 1083 1088 1144 vborder 0
               +hsync +vsync 
               VertFreq: 143 Hz, HorFreq: 164735 Hz
Detailed mode: Clock 285.540 MHz, 522 mm x 293 mm
               1920 1968 2000 2080 hborder 0
               1080 1083 1088 1144 vborder 0
               +hsync +vsync 
               VertFreq: 119 Hz, HorFreq: 137278 Hz
Detailed mode: Clock 235.660 MHz, 522 mm x 293 mm
               1920 1968 2000 2080 hborder 0
               1080 1083 1088 1133 vborder 0
               +hsync +vsync 
               VertFreq: 99 Hz, HorFreq: 113298 Hz
Checksum: 0xf1 (valid)

Warning: One or more of the timings is out of range of the Monitor Ranges:
  Vertical Freq: 60 - 164 Hz
  Horizontal Freq: 31469 - 183475 Hz
  Maximum Clock: 381.630 MHz


