
EDID (hex):
00ffffffffffff000e6f181400000000
00200104b51f1478033ba1ac5044af26
0f505400000001010101010101010101
010101010101699d00a0c0809e703020
360038c310000018000000fd0c30a558
586f010a202020202020000000fe0043
534f542054330a2020202020000000fe
004d4e45353037485a322d310a20025c
02031d00e3058000e60605019393116d
1a0000020b30a5000493119311000000
00000000000000000000000000000000
00000000000000000000000000000000
00000000000000000000000000000000
00000000000000000000000000000000
00000000000000000000000000000000
00000000000000000000000000009afe
7012790000030114e0b00105ff0b9f00
2f001f007f079d000200050000000000
00000000000000000000000000000000
00000000000000000000000000000000
00000000000000000000000000000000
00000000000000000000000000000000
00000000000000000000000000000000
0000000000000000000000000000a690

edid-decode (hex):

00 ff ff ff ff ff ff 00 0e 6f 18 14 00 00 00 00
00 20 01 04 b5 1f 14 78 03 3b a1 ac 50 44 af 26
0f 50 54 00 00 00 01 01 01 01 01 01 01 01 01 01
01 01 01 01 01 01 69 9d 00 a0 c0 80 9e 70 30 20
36 00 38 c3 10 00 00 18 00 00 00 fd 0c 30 a5 58
58 6f 01 0a 20 20 20 20 20 20 00 00 00 fe 00 43
53 4f 54 20 54 33 0a 20 20 20 20 20 00 00 00 fe
00 4d 4e 45 35 30 37 48 5a 32 2d 31 0a 20 02 5c

02 03 1d 00 e3 05 80 00 e6 06 05 01 93 93 11 6d
1a 00 00 02 0b 30 a5 00 04 93 11 93 11 00 00 00
00 00 00 00 00 00 00 00 00 00 00 00 00 00 00 00
00 00 00 00 00 00 00 00 00 00 00 00 00 00 00 00
00 00 00 00 00 00 00 00 00 00 00 00 00 00 00 00
00 00 00 00 00 00 00 00 00 00 00 00 00 00 00 00
00 00 00 00 00 00 00 00 00 00 00 00 00 00 00 00
00 00 00 00 00 00 00 00 00 00 00 00 00 00 9a fe

70 12 79 00 00 03 01 14 e0 b0 01 05 ff 0b 9f 00
2f 00 1f 00 7f 07 9d 00 02 00 05 00 00 00 00 00
00 00 00 00 00 00 00 00 00 00 00 00 00 00 00 00
00 00 00 00 00 00 00 00 00 00 00 00 00 00 00 00
00 00 00 00 00 00 00 00 00 00 00 00 00 00 00 00
00 00 00 00 00 00 00 00 00 00 00 00 00 00 00 00
00 00 00 00 00 00 00 00 00 00 00 00 00 00 00 00
00 00 00 00 00 00 00 00 00 00 00 00 00 00 a6 90

----------------

Block 0, Base EDID:
  EDID Structure Version & Revision: 1.4
  Vendor & Product Identification:
    Manufacturer: CSO
    Model: 5144
    Made in: 2022
  Basic Display Parameters & Features:
    Digital display
    Bits per primary color channel: 10
    DisplayPort interface
    Maximum image size: 31 cm x 20 cm
    Gamma: 2.20
    Supported color formats: RGB 4:4:4
    First detailed timing includes the native pixel format and preferred refresh rate
    Display is continuous frequency
  Color Characteristics:
    Red  : 0.6718, 0.3154
    Green: 0.2675, 0.6865
    Blue : 0.1503, 0.0605
    White: 0.3125, 0.3291
  Established Timings I & II: none
  Standard Timings: none
  Detailed Timing Descriptors:
    DTD 1:  3072x1920   60.000631 Hz  16:10   124.681 kHz    402.970000 MHz (312 mm x 195 mm)
                 Hfront   48 Hsync  32 Hback   80 Hpol N
                 Vfront    3 Vsync   6 Vback  149 Vpol N
    Display Range Limits:
      Monitor ranges (Bare Limits): 48-165 Hz V, 343-343 kHz H, max dotclock 1110 MHz
    Alphanumeric Data String: 'CSOT T3'
    Alphanumeric Data String: 'MNE507HZ2-1'
  Extension blocks: 2
Checksum: 0x5c

----------------

Block 1, CTA-861 Extension Block:
  Revision: 3
  Native detailed modes: 0
  Colorimetry Data Block:
    BT2020RGB
  HDR Static Metadata Data Block:
    Electro optical transfer functions:
      Traditional gamma - SDR luminance range
      SMPTE ST2084
    Supported static metadata descriptors:
      Static metadata type 1
    Desired content max luminance: 147 (1207.332 cd/m^2)
    Desired content max frame-average luminance: 147 (1207.332 cd/m^2)
    Desired content min luminance: 17 (0.054 cd/m^2)
  Vendor-Specific Data Block (AMD), OUI 00-00-1A:
    Version: 2.11
    Minimum Refresh Rate: 48 Hz
    Maximum Refresh Rate: 165 Hz
    Flags 1.x: 0x00
    Flags 2.x: 0x04
    Maximum luminance: 147 (1207.332 cd/m^2)
    Minimum luminance: 17 (0.054 cd/m^2)
    Maximum luminance (without local dimming): 147 (1207.332 cd/m^2)
    Minimum luminance (without local dimming): 17 (0.054 cd/m^2)
Checksum: 0xfe  Unused space in Extension Block: 98 bytes

----------------

Block 2, DisplayID Extension Block:
  Version: 1.2
  Extension Count: 0
  Display Product Type: Extension Section
  Video Timing Modes Type 1 - Detailed Timings Data Block:
    DTD:  3072x1920  165.002108 Hz  16:10   342.874 kHz   1108.170000 MHz (aspect 16:10, no 3D stereo)
               Hfront   48 Hsync  32 Hback   80 Hpol N
               Vfront    3 Vsync   6 Vback  149 Vpol N
  Checksum: 0xa6
Checksum: 0x90


