
EDID (hex):
00ffffffffffff004d102c1400000000
30180104a51c107806de50a3544c9926
0f505400000001010101010101010101
010101010101565e00a0a0a028503020
2500159b100000187a4b00a0a0a02850
30202500159b10000018000000100000
000000000000000000000000000000fc
004c5131323554314a5830330a200022

Extracted contents:
header:          00 ff ff ff ff ff ff 00
serial number:   4d 10 2c 14 00 00 00 00 30 18
version:         01 04
basic params:    a5 1c 10 78 06
chroma info:     de 50 a3 54 4c 99 26 0f 50 54
established:     00 00 00
standard:        01 01 01 01 01 01 01 01 01 01 01 01 01 01 01 01
descriptor 1:    56 5e 00 a0 a0 a0 28 50 30 20 25 00 15 9b 10 00 00 18
descriptor 2:    7a 4b 00 a0 a0 a0 28 50 30 20 25 00 15 9b 10 00 00 18
descriptor 3:    00 00 00 10 00 00 00 00 00 00 00 00 00 00 00 00 00 00
descriptor 4:    00 00 00 fc 00 4c 51 31 32 35 54 31 4a 58 30 33 0a 20
extensions:      00
checksum:        22

EDID version: 1.4
Manufacturer: SHP Model 142c Serial Number --
Made in week 48 of 2014
Digital display
8 bits per primary color channel
DisplayPort interface
Maximum image size: 28 cm x 16 cm
Gamma: 2.20
Supported color formats: RGB 4:4:4
Default (sRGB) color space is primary color space
First detailed timing includes the native pixel format and preferred refresh rate
Display x,y Chromaticity:
  Red:   0.6396, 0.3291
  Green: 0.2998, 0.5996
  Blue:  0.1494, 0.0595
  White: 0.3125, 0.3281
Established timings supported:
Standard timings supported:
Detailed mode: Clock 241.500 MHz, 277 mm x 155 mm
               2560 2608 2640 2720 hborder 0
               1440 1442 1447 1480 vborder 0
               -hsync -vsync 
               VertFreq: 59 Hz, HorFreq: 88786 Hz
Detailed mode: Clock 193.220 MHz, 277 mm x 155 mm
               2560 2608 2640 2720 hborder 0
               1440 1442 1447 1480 vborder 0
               -hsync -vsync 
               VertFreq: 47 Hz, HorFreq: 71036 Hz
Dummy block
Monitor name: LQ125T1JX03
Checksum: 0x22 (valid)
EDID block does NOT conform to EDID 1.4!
	sRGB is signaled, but the chromaticities do not match
	Missing monitor ranges
