
EDID (hex):
00ffffffffffff0009e5070a00000000
0a1f0104a5221378030f95ae5243b026
0f505400000001010101010101010101
010101010101096400b0a0a078503020
360058c210000018000000fd0c30a502
0246010a202020202020000000fe0042
4f452043510a202020202020000000fe
004e4531353651484d2d4e59310a01af
701379000003011419130184ff09af00
2f001f009f0577000200050000000000
00000000000000000000000000000000
00000000000000000000000000000000
00000000000000000000000000000000
00000000000000000000000000000000
00000000000000000000000000000000
00000000000000000000000000008490

Extracted contents:
header:          00 ff ff ff ff ff ff 00
serial number:   09 e5 07 0a 00 00 00 00 0a 1f
version:         01 04
basic params:    a5 22 13 78 03
chroma info:     0f 95 ae 52 43 b0 26 0f 50 54
established:     00 00 00
standard:        01 01 01 01 01 01 01 01 01 01 01 01 01 01 01 01
descriptor 1:    09 64 00 b0 a0 a0 78 50 30 20 36 00 58 c2 10 00 00 18
descriptor 2:    00 00 00 fd 0c 30 a5 02 02 46 01 0a 20 20 20 20 20 20
descriptor 3:    00 00 00 fe 00 42 4f 45 20 43 51 0a 20 20 20 20 20 20
descriptor 4:    00 00 00 fe 00 4e 45 31 35 36 51 48 4d 2d 4e 59 31 0a
extensions:      01
checksum:        af

EDID version: 1.4
Manufacturer: BOE Model a07 Serial Number --
Made in week 10 of 2021
Digital display
8 bits per primary color channel
DisplayPort interface
Maximum image size: 34 cm x 19 cm
Gamma: 2.20
Supported color formats: RGB 4:4:4
First detailed timing includes the native pixel format and preferred refresh rate
Display is continuous frequency
Display x,y Chromaticity:
  Red:   0.6796, 0.3203
  Green: 0.2646, 0.6904
  Blue:  0.1503, 0.0595
  White: 0.3134, 0.3291
Established timings supported:
Standard timings supported:
Detailed mode: Clock 256.090 MHz, 344 mm x 194 mm
               2560 2608 2640 2736 hborder 0
               1440 1443 1449 1560 vborder 0
               -hsync -vsync 
               VertFreq: 60 Hz, HorFreq: 93600 Hz
Monitor ranges (bare limits): 48-165Hz V, 2-257kHz H, max dotclock 700MHz
ASCII string: BOE CQ
ASCII string: NE156QHM-NY1
Has 1 extension blocks
Checksum: 0xaf (valid)

DisplayID extension block
Extension version: 19
Length 121, version 19, extension count 0
Checksum: 0x84 (valid)
Type 1 detailed timing: aspect: 16:9, Preferred  
Detailed mode: Clock 704.250 MHz, 0 mm x 0 mm
               2559 2606 2637 2734
               1439 1441 1446 1558
               -hsync -vsync

EDID block does NOT conform to EDID 1.4!
	Missing name descriptor
EDID block does not conform at all!
	Has 1358954496 nonconformant extension block(s)
