
EDID (hex):
00ffffffffffff0015c3491701010101
0e100103802c2178eae696a3544a9926
0f4f54a10800a9408180814001010101
010101010101483f403062b0324040c0
1300b0441100001e000000ff00353031
32353033360a20202020000000fd003b
3d1f6411000a202020202020000000fc
004c3939370a2020202020202020004f

Extracted contents:
header:          00 ff ff ff ff ff ff 00
serial number:   15 c3 49 17 01 01 01 01 0e 10
version:         01 03
basic params:    80 2c 21 78 ea
chroma info:     e6 96 a3 54 4a 99 26 0f 4f 54
established:     a1 08 00
standard:        a9 40 81 80 81 40 01 01 01 01 01 01 01 01 01 01
descriptor 1:    48 3f 40 30 62 b0 32 40 40 c0 13 00 b0 44 11 00 00 1e
descriptor 2:    00 00 00 ff 00 35 30 31 32 35 30 33 36 0a 20 20 20 20
descriptor 3:    00 00 00 fd 00 3b 3d 1f 64 11 00 0a 20 20 20 20 20 20
descriptor 4:    00 00 00 fc 00 4c 39 39 37 0a 20 20 20 20 20 20 20 20
extensions:      00
checksum:        4f

EDID version: 1.3
Manufacturer: ENC Model 1749 Serial Number --
Made in week 14 of 2006
Digital display
Maximum image size: 44 cm x 33 cm
Gamma: 2.20
DPMS levels: Standby Suspend Off
RGB color display
First detailed timing is preferred timing
Display x,y Chromaticity:
  Red:   0.6396, 0.3300
  Green: 0.2900, 0.5996
  Blue:  0.1503, 0.0595
  White: 0.3095, 0.3300
Established timings supported:
  720x400@70Hz 9:5 HorFreq: 31469 Hz Clock: 28.320 MHz
  640x480@60Hz 4:3 HorFreq: 31469 Hz Clock: 25.175 MHz
  800x600@60Hz 4:3 HorFreq: 37900 Hz Clock: 40.000 MHz
  1024x768@60Hz 4:3 HorFreq: 48400 Hz Clock: 65.000 MHz
Standard timings supported:
  1600x1200@60Hz 4:3 HorFreq: 75000 Hz Clock: 162.000 MHz
  1280x1024@60Hz 5:4 HorFreq: 64000 Hz Clock: 108.000 MHz
  1280x960@60Hz 4:3 HorFreq: 60000 Hz Clock: 108.000 MHz
Detailed mode: Clock 162.000 MHz, 432 mm x 324 mm
               1600 1664 1856 2160 hborder 0
               1200 1201 1204 1250 vborder 0
               +hsync +vsync 
               VertFreq: 60 Hz, HorFreq: 75000 Hz
Serial number: --
Monitor ranges (GTF): 59-61Hz V, 31-100kHz H, max dotclock 170MHz
Monitor name: L997
Checksum: 0x4f (valid)
One or more of the timings is out of range of the Monitor Ranges:
  Vertical Freq: 60 - 70 Hz
  Horizontal Freq: 31469 - 75000 Hz
  Maximum Clock: 162.000 MHz
