
EDID (hex):
00ffffffffffff0006af92d700000000
121e0104952616780392659f56599828
0d505400000001010101010101010101
0101010101011c2a405261841a303020
36007ed710000018131c405261841a30
302036007ed710000018000000000000
00000000000000000000000000000002
001048ff0f3c7d1214317d202020004f

Extracted contents:
header:          00 ff ff ff ff ff ff 00
serial number:   06 af 92 d7 00 00 00 00 12 1e
version:         01 04
basic params:    95 26 16 78 03
chroma info:     92 65 9f 56 59 98 28 0d 50 54
established:     00 00 00
standard:        01 01 01 01 01 01 01 01 01 01 01 01 01 01 01 01
descriptor 1:    1c 2a 40 52 61 84 1a 30 30 20 36 00 7e d7 10 00 00 18
descriptor 2:    13 1c 40 52 61 84 1a 30 30 20 36 00 7e d7 10 00 00 18
descriptor 3:    00 00 00 00 00 00 00 00 00 00 00 00 00 00 00 00 00 00
descriptor 4:    00 00 00 02 00 10 48 ff 0f 3c 7d 12 14 31 7d 20 20 20
extensions:      00
checksum:        4f

EDID version: 1.4
Manufacturer: AUO Model d792 Serial Number --
Made in week 18 of 2020
Digital display
6 bits per primary color channel
DisplayPort interface
Maximum image size: 38 cm x 22 cm
Gamma: 2.20
Supported color formats: RGB 4:4:4
First detailed timing includes the native pixel format and preferred refresh rate
Display is continuous frequency
Display x,y Chromaticity:
  Red:   0.6230, 0.3369
  Green: 0.3476, 0.5957
  Blue:  0.1572, 0.0527
  White: 0.3134, 0.3291
Established timings supported:
Standard timings supported:
Detailed mode: Clock 107.800 MHz, 382 mm x 215 mm
               1600 1648 1680 1938 hborder 0
                900  903  909  926 vborder 0
               -hsync -vsync 
               VertFreq: 60 Hz, HorFreq: 55624 Hz
Detailed mode: Clock 71.870 MHz, 382 mm x 215 mm
               1600 1648 1680 1938 hborder 0
                900  903  909  926 vborder 0
               -hsync -vsync 
               VertFreq: 40 Hz, HorFreq: 37084 Hz
Manufacturer-specified data, tag 0
Manufacturer-specified data, tag 2
Checksum: 0x4f (valid)
EDID block does NOT conform to EDID 1.4!
	Missing name descriptor
	Missing monitor ranges
