
EDID (hex):
00ffffffffffff004ca3364100000000
00130103801a0e780a35259356558e29
1d505400000001010101010101010101
010101010101ab1b5680500016303020
25000090100000190000000f00000000
00000000001eb4027400000000fe0053
414d53554e470a2020202020000000fe
00313136415430312d5430310a20002a

Extracted contents:
header:          00 ff ff ff ff ff ff 00
serial number:   4c a3 36 41 00 00 00 00 00 13
version:         01 03
basic params:    80 1a 0e 78 0a
chroma info:     35 25 93 56 55 8e 29 1d 50 54
established:     00 00 00
standard:        01 01 01 01 01 01 01 01 01 01 01 01 01 01 01 01
descriptor 1:    ab 1b 56 80 50 00 16 30 30 20 25 00 00 90 10 00 00 19
descriptor 2:    00 00 00 0f 00 00 00 00 00 00 00 00 00 1e b4 02 74 00
descriptor 3:    00 00 00 fe 00 53 41 4d 53 55 4e 47 0a 20 20 20 20 20
descriptor 4:    00 00 00 fe 00 31 31 36 41 54 30 31 2d 54 30 31 0a 20
extensions:      00
checksum:        2a

EDID version: 1.3
Manufacturer: SEC Model 4136 Serial Number --
Made in year 2009
Digital display
Maximum image size: 26 cm x 14 cm
Gamma: 2.20
RGB color display
First detailed timing is preferred timing
Display x,y Chromaticity:
  Red:   0.5742, 0.3388
  Green: 0.3330, 0.5556
  Blue:  0.1601, 0.1152
  White: 0.3134, 0.3291
Established timings supported:
Standard timings supported:
Detailed mode: Clock 70.830 MHz, 256 mm x 144 mm
               1366 1414 1446 1494 hborder 0
                768  770  775  790 vborder 0
               -hsync -vsync 
               VertFreq: 60 Hz, HorFreq: 47409 Hz
Manufacturer-specified data, tag 15
ASCII string: SAMSUNG
ASCII string: 116AT01-T01
Checksum: 0x2a (valid)
EDID block does NOT conform to EDID 1.3!
	Missing name descriptor
	Missing monitor ranges
