edid-decode (hex):

00 ff ff ff ff ff ff 00 09 e5 60 08 00 00 00 00
01 1d 01 04 a5 22 13 78 02 b0 15 a7 56 51 a3 28
0f 50 54 00 00 00 01 01 01 01 01 01 01 01 01 01
01 01 01 01 01 01 5b 37 80 cc 70 38 20 40 30 20
36 00 58 c2 10 00 00 1a 49 2c 80 cc 70 38 20 40
30 20 36 00 58 c2 10 00 00 1a 00 00 00 fe 00 37
4e 56 44 37 80 4e 56 31 35 4e 34 51 00 00 00 00
00 01 41 21 9e 00 10 00 00 0a 01 0a 20 20 00 3e

----------------

Block 0, Base EDID:
  EDID Structure Version & Revision: 1.4
  Vendor & Product Identification:
    Manufacturer: BOE
    Model: 2144
    Made in: week 1 of 2019
  Basic Display Parameters & Features:
    Digital display
    Bits per primary color channel: 8
    DisplayPort interface
    Maximum image size: 34 cm x 19 cm
    Gamma: 2.20
    Supported color formats: RGB 4:4:4
    First detailed timing includes the native pixel format and preferred refresh rate
  Color Characteristics:
    Red  : 0.6542, 0.3388
    Green: 0.3164, 0.6367
    Blue : 0.1562, 0.0595
    White: 0.3134, 0.3291
  Established Timings I & II: none
  Standard Timings: none
  Detailed Timing Descriptors:
    DTD 1:  1920x1080   59.998611 Hz  16:9     66.718 kHz    141.710000 MHz (344 mm x 194 mm)
                 Hfront   48 Hsync  32 Hback  124 Hpol P
                 Vfront    3 Vsync   6 Vback   23 Vpol N
    DTD 2:  1920x1080   47.999736 Hz  16:9     53.376 kHz    113.370000 MHz (344 mm x 194 mm)
                 Hfront   48 Hsync  32 Hback  124 Hpol P
                 Vfront    3 Vsync   6 Vback   23 Vpol N
    Alphanumeric Data String: '7NVD7'
    Manufacturer-Specified Display Descriptor (0x00): 00 00 00 01 41 21 9e 00 10 00 00 0a 01 0a 20 20 '....A!........  '
Checksum: 0x3e

----------------

Warnings:

Block 0, Base EDID:
  Missing Display Product Name.

Failures:

Block 0, Base EDID:
  Alphanumeric Data String: Non-printable character.

EDID conformity: FAIL
