
EDID (hex):
00ffffffffffff0030e4f60100000000
00130103802115780a56759a59538d28
24505400000001010101010101010101
010101010101bc1b00a0502017303020
36004bcf100000190000000000000000
00000000000000000000000000fe004c
4720446973706c61790a2020000000fe
004c503135345758342d544c423500eb

Extracted contents:
header:          00 ff ff ff ff ff ff 00
serial number:   30 e4 f6 01 00 00 00 00 00 13
version:         01 03
basic params:    80 21 15 78 0a
chroma info:     56 75 9a 59 53 8d 28 24 50 54
established:     00 00 00
standard:        01 01 01 01 01 01 01 01 01 01 01 01 01 01 01 01
descriptor 1:    bc 1b 00 a0 50 20 17 30 30 20 36 00 4b cf 10 00 00 19
descriptor 2:    00 00 00 00 00 00 00 00 00 00 00 00 00 00 00 00 00 00
descriptor 3:    00 00 00 fe 00 4c 47 20 44 69 73 70 6c 61 79 0a 20 20
descriptor 4:    00 00 00 fe 00 4c 50 31 35 34 57 58 34 2d 54 4c 42 35
extensions:      00
checksum:        eb

EDID version: 1.3
Manufacturer: LGD Model 1f6 Serial Number --
Made in year 2009
Digital display
Maximum image size: 33 cm x 21 cm
Gamma: 2.20
RGB color display
First detailed timing is preferred timing
Display x,y Chromaticity:
  Red:   0.6025, 0.3486
  Green: 0.3251, 0.5527
  Blue:  0.1572, 0.1435
  White: 0.3134, 0.3291
Established timings supported:
Standard timings supported:
Detailed mode: Clock 71.000 MHz, 331 mm x 207 mm
               1280 1328 1360 1440 hborder 0
                800  803  809  823 vborder 0
               -hsync -vsync 
               VertFreq: 59 Hz, HorFreq: 49305 Hz
Manufacturer-specified data, tag 0
ASCII string: LG Display
ASCII string: LP154WX4-TLB5
Checksum: 0xeb (valid)
EDID block does NOT conform to EDID 1.3!
	Missing name descriptor
	Missing monitor ranges
