
EDID (hex):
00ffffffffffff000dafa41500000000
1b140103902213780a00259e57529929
15505400000001010101010101010101
010101010101001e56d650002a301a38
4d0058c21000001a001e56d650002a30
1a384d0058c21000001a000000fe0058
4d355847024e31353642360a00000000
00000000000000000001010a20200041

Extracted contents:
header:          00 ff ff ff ff ff ff 00
serial number:   0d af a4 15 00 00 00 00 1b 14
version:         01 03
basic params:    90 22 13 78 0a
chroma info:     00 25 9e 57 52 99 29 15 50 54
established:     00 00 00
standard:        01 01 01 01 01 01 01 01 01 01 01 01 01 01 01 01
descriptor 1:    00 1e 56 d6 50 00 2a 30 1a 38 4d 00 58 c2 10 00 00 1a
descriptor 2:    00 1e 56 d6 50 00 2a 30 1a 38 4d 00 58 c2 10 00 00 1a
descriptor 3:    00 00 00 fe 00 58 4d 35 58 47 02 4e 31 35 36 42 36 0a
descriptor 4:    00 00 00 00 00 00 00 00 00 00 00 00 00 01 01 0a 20 20
extensions:      00
checksum:        41

EDID version: 1.3
Manufacturer: CMO Model 15a4 Serial Number --
Made in week 27 of 2010
Digital display
Maximum image size: 34 cm x 19 cm
Gamma: 2.20
RGB color display
First detailed timing is preferred timing
Display x,y Chromaticity:
  Red:   0.6171, 0.3398
  Green: 0.3203, 0.5976
  Blue:  0.1601, 0.0839
  White: 0.3134, 0.3291
Established timings supported:
Standard timings supported:
Detailed mode: Clock 76.800 MHz, 344 mm x 194 mm
               1366 1392 1448 1580 hborder 0
                768  772  785  810 vborder 0
               +hsync -vsync 
               VertFreq: 60 Hz, HorFreq: 48607 Hz
Detailed mode: Clock 76.800 MHz, 344 mm x 194 mm
               1366 1392 1448 1580 hborder 0
                768  772  785  810 vborder 0
               +hsync -vsync 
               VertFreq: 60 Hz, HorFreq: 48607 Hz
ASCII string: XM5XG
Manufacturer-specified data, tag 0
Checksum: 0x41 (valid)
EDID block does NOT conform to EDID 1.3!
	Digital display field contains garbage: 10
	Missing name descriptor
	Missing monitor ranges
	Detailed block string not properly terminated
