edid-decode (hex):

00 ff ff ff ff ff ff 00 32 0c e5 00 00 00 00 00
00 12 01 03 80 1e 13 78 0a ae 10 96 58 53 8c 28
24 50 54 00 00 00 01 01 01 01 01 01 01 01 01 01
01 01 01 01 01 01 d8 27 a0 88 51 84 1a 30 30 20
36 00 30 be 10 00 00 18 d8 27 a0 88 51 84 1a 30
30 20 36 00 30 be 10 00 00 00 00 00 00 fe 00 52
37 37 38 47 05 31 34 31 57 50 31 0a 00 00 00 fe
00 2b 3d 4c 53 79 9d c9 ff 02 01 0a 20 20 00 79

----------------

Block 0, Base EDID:
  EDID Structure Version & Revision: 1.3
  Vendor & Product Identification:
    Manufacturer: LPL
    Model: 229
    Made in: 2008
  Basic Display Parameters & Features:
    Digital display
    Maximum image size: 30 cm x 19 cm
    Gamma: 2.20
    RGB color display
    First detailed timing is the preferred timing
  Color Characteristics:
    Red  : 0.5878, 0.3457
    Green: 0.3271, 0.5488
    Blue : 0.1562, 0.1416
    White: 0.3125, 0.3281
  Established Timings I & II: none
  Standard Timings: none
  Detailed Timing Descriptors:
    DTD 1:  1440x900    60.126194 Hz   8:5     55.677 kHz    102.000000 MHz (304 mm x 190 mm)
                 Hfront   48 Hsync  32 Hback  312 Hpol N
                 Vfront    3 Vsync   6 Vback   17 Vpol N
    DTD 2:  1440x900    60.126194 Hz   8:5     55.677 kHz    102.000000 MHz (304 mm x 190 mm)
                 Hfront   48 Hsync  32 Hback  312 Hpol N
                 Vfront    3 Vsync   6 Vback   17 Vpol N
    SPWG Module Revision: 0
    SPWG Descriptor #3:
      SPWG PC Maker P/N: 'R778G'
      SPWG LCD Supplier EEDID Revision: 5
      SPWG Manufacturer P/N: '141WP1'
    SPWG Descriptor #4:
      SMBUS Values: 0x2b 0x3d 0x4c 0x53 0x79 0x9d 0xc9 0xff
      LVDS Channels: 2
      Panel Self Test Present
Checksum: 0x79

----------------

Failures:

Block 0, Base EDID:
  Missing Display Product Name.
  Missing Display Range Limits Descriptor.

EDID conformity: FAIL
