
EDID (hex):
00ffffffffffff00320ce50000000000
00120103801e13780aae109658538c28
24505400000001010101010101010101
010101010101d827a08851841a303020
360030be10000018d827a08851841a30
3020360030be10000000000000fe0052
37373847053134315750310a000000fe
002b3d4c53799dc9ff02010a20200079

Extracted contents:
header:          00 ff ff ff ff ff ff 00
serial number:   32 0c e5 00 00 00 00 00 00 12
version:         01 03
basic params:    80 1e 13 78 0a
chroma info:     ae 10 96 58 53 8c 28 24 50 54
established:     00 00 00
standard:        01 01 01 01 01 01 01 01 01 01 01 01 01 01 01 01
descriptor 1:    d8 27 a0 88 51 84 1a 30 30 20 36 00 30 be 10 00 00 18
descriptor 2:    d8 27 a0 88 51 84 1a 30 30 20 36 00 30 be 10 00 00 00
descriptor 3:    00 00 00 fe 00 52 37 37 38 47 05 31 34 31 57 50 31 0a
descriptor 4:    00 00 00 fe 00 2b 3d 4c 53 79 9d c9 ff 02 01 0a 20 20
extensions:      00
checksum:        79

EDID version: 1.3
Manufacturer: LPL Model e5 Serial Number --
Made in year 2008
Digital display
Maximum image size: 30 cm x 19 cm
Gamma: 2.20
RGB color display
First detailed timing is preferred timing
Display x,y Chromaticity:
  Red:   0.5878, 0.3457
  Green: 0.3271, 0.5488
  Blue:  0.1562, 0.1416
  White: 0.3125, 0.3281
Established timings supported:
Standard timings supported:
Detailed mode: Clock 102.000 MHz, 304 mm x 190 mm
               1440 1488 1520 1832 hborder 0
                900  903  909  926 vborder 0
               -hsync -vsync 
               VertFreq: 60 Hz, HorFreq: 55676 Hz
Detailed mode: Clock 102.000 MHz, 304 mm x 190 mm
               1440 1488 1520 1832 hborder 0
                900  903  909  926 vborder 0
               -hsync -vsync analog composite 
               VertFreq: 60 Hz, HorFreq: 55676 Hz
ASCII string: R778G
ASCII string: +=LSy
Checksum: 0x79 (valid)
EDID block does NOT conform to EDID 1.3!
	Missing name descriptor
	Missing monitor ranges
	Detailed block string not properly terminated
