
EDID (hex):
00ffffffffffff00320ce50000000000
00100103801e13780aae109658538c28
24505400000001010101010101010101
010101010101622aa00052841a305050
360030be10000018622aa00052841a30
5050360030be10000000000000fe0054
4d323436033134315750310a000000fe
001f2f3d48719cbfff02010a2020001a

Extracted contents:
header:          00 ff ff ff ff ff ff 00
serial number:   32 0c e5 00 00 00 00 00 00 10
version:         01 03
basic params:    80 1e 13 78 0a
chroma info:     ae 10 96 58 53 8c 28 24 50 54
established:     00 00 00
standard:        01 01 01 01 01 01 01 01 01 01 01 01 01 01 01 01
descriptor 1:    62 2a a0 00 52 84 1a 30 50 50 36 00 30 be 10 00 00 18
descriptor 2:    62 2a a0 00 52 84 1a 30 50 50 36 00 30 be 10 00 00 00
descriptor 3:    00 00 00 fe 00 54 4d 32 34 36 03 31 34 31 57 50 31 0a
descriptor 4:    00 00 00 fe 00 1f 2f 3d 48 71 9c bf ff 02 01 0a 20 20
extensions:      00
checksum:        1a

EDID version: 1.3
Manufacturer: LPL Model e5 Serial Number --
Made in year 2006
Digital display
Maximum image size: 30 cm x 19 cm
Gamma: 2.20
RGB color display
First detailed timing is preferred timing
Display x,y Chromaticity:
  Red:   0.5878, 0.3457
  Green: 0.3271, 0.5488
  Blue:  0.1562, 0.1416
  White: 0.3125, 0.3281
Established timings supported:
Standard timings supported:
Detailed mode: Clock 108.500 MHz, 304 mm x 190 mm
               1440 1520 1600 1952 hborder 0
                900  903  909  926 vborder 0
               -hsync -vsync 
               VertFreq: 60 Hz, HorFreq: 55584 Hz
Detailed mode: Clock 108.500 MHz, 304 mm x 190 mm
               1440 1520 1600 1952 hborder 0
                900  903  909  926 vborder 0
               -hsync -vsync analog composite 
               VertFreq: 60 Hz, HorFreq: 55584 Hz
ASCII string: TM246
ASCII string: 
Checksum: 0x1a (valid)
EDID block does NOT conform to EDID 1.3!
	Missing name descriptor
	Missing monitor ranges
	Detailed block string not properly terminated
