edid-decode (hex):

00 ff ff ff ff ff ff 00 30 ae a6 40 00 00 00 00
04 1c 01 04 a5 1f 11 78 e2 08 65 97 5b 54 8e 27
1e 50 54 00 00 00 01 01 01 01 01 01 01 01 01 01
01 01 01 01 01 01 36 36 80 a0 70 38 20 40 30 20
35 00 35 ad 10 00 00 18 36 36 80 a0 70 38 20 40
30 20 35 00 35 ad 10 00 00 18 00 00 00 0f 00 d1
09 3c d1 09 30 19 09 00 0d ae e5 14 00 00 00 fe
00 4e 31 34 30 48 47 41 2d 45 41 31 0a 20 00 aa

00 ff ff ff ff ff ff 00 30 ae a6 40 00 00 00 00
04 1c 01 04 a5 1f 11 78 e2 08 65 97 5b 54 8e 27
1e 50 54 00 00 00 01 01 01 01 01 01 01 01 01 01
01 01 01 01 01 01 36 36 80 a0 70 38 20 40 30 20
35 00 35 ad 10 00 00 18 36 36 80 a0 70 38 20 40
30 20 35 00 35 ad 10 00 00 18 00 00 00 0f 00 d1
09 3c d1 09 30 19 09 00 0d ae e5 14 00 00 00 fe
00 4e 31 34 30 48 47 41 2d 45 41 31 0a 20 00 aa

----------------

Block 0, Base EDID:
  EDID Structure Version & Revision: 1.4
  Vendor & Product Identification:
    Manufacturer: LEN
    Model: 16550
    Made in: week 4 of 2018
  Basic Display Parameters & Features:
    Digital display
    Bits per primary color channel: 8
    DisplayPort interface
    Maximum image size: 31 cm x 17 cm
    Gamma: 2.20
    DPMS levels: Standby Suspend Off
    Supported color formats: RGB 4:4:4
    First detailed timing includes the native pixel format and preferred refresh rate
  Color Characteristics:
    Red  : 0.5898, 0.3554
    Green: 0.3300, 0.5546
    Blue : 0.1533, 0.1191
    White: 0.3134, 0.3291
  Established Timings I & II: none
  Standard Timings: none
  Detailed Timing Descriptors:
    DTD 1:  1920x1080   60.001038 Hz  16:9     66.721 kHz    138.780000 MHz (309 mm x 173 mm)
                 Hfront   48 Hsync  32 Hback   80 Hpol N
                 Vfront    3 Vsync   5 Vback   24 Vpol N
    DTD 2:  1920x1080   60.001038 Hz  16:9     66.721 kHz    138.780000 MHz (309 mm x 173 mm)
                 Hfront   48 Hsync  32 Hback   80 Hpol N
                 Vfront    3 Vsync   5 Vback   24 Vpol N
    Manufacturer-Specified Display Descriptor (0x0f): 00 0f 00 d1 09 3c d1 09 30 19 09 00 0d ae e5 14 '.....<..0.......'
    Alphanumeric Data String: 'N140HGA-EA1'
Checksum: 0xaa

----------------

Block 1, Unknown EDID Extension Block 0x00:
  00 ff ff ff ff ff ff 00 30 ae a6 40 00 00 00 00 '........0..@....'
  04 1c 01 04 a5 1f 11 78 e2 08 65 97 5b 54 8e 27 '.......x..e.[T.''
  1e 50 54 00 00 00 01 01 01 01 01 01 01 01 01 01 '.PT.............'
  01 01 01 01 01 01 36 36 80 a0 70 38 20 40 30 20 '......66..p8 @0 '
  35 00 35 ad 10 00 00 18 36 36 80 a0 70 38 20 40 '5.5.....66..p8 @'
  30 20 35 00 35 ad 10 00 00 18 00 00 00 0f 00 d1 '0 5.5...........'
  09 3c d1 09 30 19 09 00 0d ae e5 14 00 00 00 fe '.<..0...........'
  00 4e 31 34 30 48 47 41 2d 45 41 31 0a 20 00 aa '.N140HGA-EA1. ..'
Checksum: 0xaa

----------------

Warnings:

Block 0, Base EDID:
  Missing Display Product Name.

Failures:

Block 1, Base EDID:
  Unknown Extension Block.
EDID:
  Base EDID: EDID specified 0 extension block(s), but found 1 extension block(s).

EDID conformity: FAIL
