edid-decode (hex):

00 ff ff ff ff ff ff 00 22 64 5b 02 07 06 00 00
30 0c 01 02 80 1e 17 78 29 a1 db 9f 59 4b 94 24
17 4c 52 bf ee 00 61 40 61 4a 61 4f 45 40 45 4a
45 4f 31 40 61 59 64 19 00 40 41 00 26 30 18 88
36 00 30 e4 10 00 00 18 00 00 00 fc 00 48 61 6e
6e 53 74 61 72 20 58 35 30 30 00 00 00 ff 00 32
34 38 41 46 30 34 4b 42 31 35 34 33 00 00 00 fd
00 38 55 1e 46 0b 00 0a 20 20 20 20 20 20 00 a6

00 ff ff ff ff ff ff 00 22 64 5b 02 07 06 00 00
30 0c 01 02 80 1e 17 78 29 a1 db 9f 59 4b 94 24
17 4c 52 bf ee 00 61 40 61 4a 61 4f 45 40 45 4a
45 4f 31 40 61 59 64 19 00 40 41 00 26 30 18 88
36 00 30 e4 10 00 00 18 00 00 00 fc 00 48 61 6e
6e 53 74 61 72 20 58 35 30 30 00 00 00 ff 00 32
34 38 41 46 30 34 4b 42 31 35 34 33 00 00 00 fd
00 38 55 1e 46 0b 00 0a 20 20 20 20 20 20 00 a6

----------------

Block 0, Base EDID:
  EDID Structure Version & Revision: 1.2
  Vendor & Product Identification:
    Manufacturer: HSD
    Model: 603
    Serial Number: ...
    Made in: week 48 of 2002
  Basic Display Parameters & Features:
    Digital display
    Maximum image size: 30 cm x 23 cm
    Gamma: 2.20
    DPMS levels: Off
    RGB color display
    Supports GTF timings within operating range
  Color Characteristics:
    Red  : 0.6230, 0.3496
    Green: 0.2929, 0.5791
    Blue : 0.1435, 0.0908
    White: 0.2988, 0.3232
  Established Timings I & II:
    IBM     :   720x400    70.081663 Hz   9:5     31.467 kHz     28.320000 MHz
    DMT 0x04:   640x480    59.940476 Hz   4:3     31.469 kHz     25.175000 MHz
    Apple   :   640x480    66.666667 Hz   4:3     35.000 kHz     30.240000 MHz
    DMT 0x05:   640x480    72.808802 Hz   4:3     37.861 kHz     31.500000 MHz
    DMT 0x06:   640x480    75.000000 Hz   4:3     37.500 kHz     31.500000 MHz
    DMT 0x08:   800x600    56.250000 Hz   4:3     35.156 kHz     36.000000 MHz
    DMT 0x09:   800x600    60.316541 Hz   4:3     37.879 kHz     40.000000 MHz
    DMT 0x0a:   800x600    72.187572 Hz   4:3     48.077 kHz     50.000000 MHz
    DMT 0x0b:   800x600    75.000000 Hz   4:3     46.875 kHz     49.500000 MHz
    Apple   :   832x624    74.551266 Hz   4:3     49.726 kHz     57.284000 MHz
    DMT 0x10:  1024x768    60.003840 Hz   4:3     48.363 kHz     65.000000 MHz
    DMT 0x11:  1024x768    70.069359 Hz   4:3     56.476 kHz     75.000000 MHz
    DMT 0x12:  1024x768    75.028582 Hz   4:3     60.023 kHz     78.750000 MHz
  Standard Timings:
    DMT 0x10:  1024x768    60.003840 Hz   4:3     48.363 kHz     65.000000 MHz
    GTF     :  1024x768    70.000000 Hz   4:3     56.000 kHz     76.160000 MHz
    DMT 0x12:  1024x768    75.028582 Hz   4:3     60.023 kHz     78.750000 MHz
    DMT 0x09:   800x600    60.316541 Hz   4:3     37.879 kHz     40.000000 MHz
    GTF     :   800x600    70.000000 Hz   4:3     43.750 kHz     45.500000 MHz
    DMT 0x0b:   800x600    75.000000 Hz   4:3     46.875 kHz     49.500000 MHz
    DMT 0x04:   640x480    59.940476 Hz   4:3     31.469 kHz     25.175000 MHz
    DMT 0x13:  1024x768    84.996690 Hz   4:3     68.677 kHz     94.500000 MHz
  Detailed Timing Descriptors:
    DTD 1:  1024x768    60.003840 Hz   4:3     48.363 kHz     65.000000 MHz (304 mm x 228 mm)
                 Hfront   24 Hsync 136 Hback  160 Hpol N
                 Vfront    3 Vsync   6 Vback   29 Vpol N
    Display Product Name: 'HannStar X500'
    Display Product Serial Number: ...
    Display Range Limits:
      Monitor ranges (GTF): 56-85 Hz V, 30-70 kHz H, max dotclock 110 MHz
Checksum: 0xa6

----------------

Block 1, Unknown EDID Extension Block 0x00:
  00 ff ff ff ff ff ff 00 22 64 5b 02 07 06 00 00 '........"d[.....'
  30 0c 01 02 80 1e 17 78 29 a1 db 9f 59 4b 94 24 '0......x)...YK.$'
  17 4c 52 bf ee 00 61 40 61 4a 61 4f 45 40 45 4a '.LR...a@aJaOE@EJ'
  45 4f 31 40 61 59 64 19 00 40 41 00 26 30 18 88 'EO1@aYd..@A.&0..'
  36 00 30 e4 10 00 00 18 00 00 00 fc 00 48 61 6e '6.0..........Han'
  6e 53 74 61 72 20 58 35 30 30 00 00 00 ff 00 32 'nStar X500.....2'
  34 38 41 46 30 34 4b 42 31 35 34 33 00 00 00 fd '48AF04KB1543....'
  00 38 55 1e 46 0b 00 0a 20 20 20 20 20 20 00 a6 '.8U.F...      ..'
Checksum: 0xa6

----------------

Warnings:

Block 0, Base EDID:
  EDID Structure Version & Revision: EDID 1.2 is deprecated, do not use.

Failures:

Block 1, Base EDID:
  Unknown Extension Block.
EDID:
  Base EDID: EDID specified 0 extension block(s), but found 1 extension block(s).

EDID conformity: FAIL
