edid-decode (hex):

00 ff ff ff ff ff ff 00 09 e5 2d 00 00 00 00 00
01 1d 01 02 a5 1d 11 78 0e 40 71 96 57 5a 97 24
1c 4d 58 00 00 00 01 01 01 01 01 01 01 01 01 01
01 01 01 01 01 01 e6 2d 80 b8 70 38 24 40 10 10
3e 00 26 a5 10 00 00 19 00 00 00 fe 00 4e 56 31
33 33 46 48 4d 2d 4e 36 31 20 00 00 00 fe 00 4e
56 31 33 33 46 48 4d 2d 4e 36 31 20 00 00 00 fe
00 4e 56 31 33 33 46 48 4d 2d 4e 36 31 20 00 02

----------------

Block 0, Base EDID:
  EDID Structure Version & Revision: 1.2
  Vendor & Product Identification:
    Manufacturer: BOE
    Model: 45
    Made in: week 1 of 2019
  Basic Display Parameters & Features:
    Digital display
    DFP 1.x compatible TMDS
    Maximum image size: 29 cm x 17 cm
    Gamma: 2.20
    RGB color display
    Default (sRGB) color space is primary color space
    First detailed timing is the preferred timing
  Color Characteristics:
    Red  : 0.5869, 0.3398
    Green: 0.3515, 0.5898
    Blue : 0.1416, 0.1123
    White: 0.3007, 0.3447
  Established Timings I & II: none
  Standard Timings: none
  Detailed Timing Descriptors:
    DTD 1:  1920x1080   50.041225 Hz  16:9     55.846 kHz    117.500000 MHz (294 mm x 165 mm)
                 Hfront   16 Hsync  16 Hback  152 Hpol N
                 Vfront    3 Vsync  14 Vback   19 Vpol N
    Alphanumeric Data String: 'NV133FHM-N61 '
    Alphanumeric Data String: 'NV133FHM-N61 '
    Alphanumeric Data String: 'NV133FHM-N61 '
Checksum: 0x02

----------------

Warnings:

Block 0, Base EDID:
  EDID Structure Version & Revision: EDID 1.2 is deprecated, do not use.

Failures:

Block 0, Base EDID:
  Basic Display Parameters & Features: Digital Video Interface Standard set to reserved value 0x24.
  Basic Display Parameters & Features: sRGB is signaled, but the chromaticities do not match.
  Alphanumeric Data String: One or more trailing spaces.
  Alphanumeric Data String: One or more trailing spaces.
  Alphanumeric Data String: One or more trailing spaces.

EDID conformity: FAIL
