edid-decode (hex):

00 ff ff ff ff ff ff 00 15 c3 66 18 74 ff 35 01
07 14 01 03 80 41 29 78 ea 80 85 ab 52 32 b2 26
12 50 54 a1 08 00 a9 40 81 80 01 01 01 01 01 01
01 01 01 01 01 01 b0 36 00 f0 a2 40 1b 60 70 08
36 10 82 91 21 00 00 1c f7 3f 00 a0 a0 40 1c 60
30 20 36 00 82 91 21 00 00 1a 00 00 00 fd 00 19
3d 1f 4c 11 00 0a 20 20 20 20 20 20 00 00 00 fc
00 4d 58 33 30 30 57 0a 20 20 20 20 20 20 00 06

00 ff ff ff ff ff ff 00 15 c3 66 18 74 ff 35 01
07 14 01 03 80 41 29 78 ea 80 85 ab 52 32 b2 26
12 50 54 a1 08 00 a9 40 81 80 01 01 01 01 01 01
01 01 01 01 01 01 b0 36 00 f0 a2 40 1b 60 70 08
36 10 82 91 21 00 00 1c f7 3f 00 a0 a0 40 1c 60
30 20 36 00 82 91 21 00 00 1a 00 00 00 fd 00 19
3d 1f 4c 11 00 0a 20 20 20 20 20 20 00 00 00 fc
00 4d 58 33 30 30 57 0a 20 20 20 20 20 20 00 06

----------------

Block 0, Base EDID:
  EDID Structure Version & Revision: 1.3
  Vendor & Product Identification:
    Manufacturer: ENC
    Model: 6246
    Serial Number: ...
    Made in: week 7 of 2010
  Basic Display Parameters & Features:
    Digital display
    Maximum image size: 65 cm x 41 cm
    Gamma: 2.20
    DPMS levels: Standby Suspend Off
    RGB color display
    First detailed timing is the preferred timing
  Color Characteristics:
    Red  : 0.6699, 0.3203
    Green: 0.1953, 0.6953
    Blue : 0.1503, 0.0703
    White: 0.3134, 0.3291
  Established Timings I & II:
    IBM     :   720x400    70.081663 Hz   9:5     31.467 kHz     28.320000 MHz
    DMT 0x04:   640x480    59.940476 Hz   4:3     31.469 kHz     25.175000 MHz
    DMT 0x09:   800x600    60.316541 Hz   4:3     37.879 kHz     40.000000 MHz
    DMT 0x10:  1024x768    60.003840 Hz   4:3     48.363 kHz     65.000000 MHz
  Standard Timings:
    DMT 0x33:  1600x1200   60.000000 Hz   4:3     75.000 kHz    162.000000 MHz
    DMT 0x23:  1280x1024   60.019740 Hz   5:4     63.981 kHz    108.000000 MHz
  Detailed Timing Descriptors:
    DTD 1:  2560x1600   25.980659 Hz  16:10    42.271 kHz    140.000000 MHz (642 mm x 401 mm)
                 Hfront  112 Hsync 264 Hback  376 Hpol N
                 Vfront    3 Vsync   6 Vback   18 Vpol P
    DTD 2:  2560x1600   36.979242 Hz  16:10    60.202 kHz    163.750000 MHz (642 mm x 401 mm)
                 Hfront   48 Hsync  32 Hback   80 Hpol P
                 Vfront    3 Vsync   6 Vback   19 Vpol N
    Display Range Limits:
      Monitor ranges (GTF): 25-61 Hz V, 31-76 kHz H, max dotclock 170 MHz
    Display Product Name: 'MX300W'
Checksum: 0x06

----------------

Block 1, Unknown EDID Extension Block 0x00:
  00 ff ff ff ff ff ff 00 15 c3 66 18 74 ff 35 01 '..........f.t.5.'
  07 14 01 03 80 41 29 78 ea 80 85 ab 52 32 b2 26 '.....A)x....R2.&'
  12 50 54 a1 08 00 a9 40 81 80 01 01 01 01 01 01 '.PT....@........'
  01 01 01 01 01 01 b0 36 00 f0 a2 40 1b 60 70 08 '.......6...@.`p.'
  36 10 82 91 21 00 00 1c f7 3f 00 a0 a0 40 1c 60 '6...!....?...@.`'
  30 20 36 00 82 91 21 00 00 1a 00 00 00 fd 00 19 '0 6...!.........'
  3d 1f 4c 11 00 0a 20 20 20 20 20 20 00 00 00 fc '=.L...      ....'
  00 4d 58 33 30 30 57 0a 20 20 20 20 20 20 00 06 '.MX300W.      ..'
Checksum: 0x06

----------------

Failures:

Block 1, Base EDID:
  Unknown Extension Block.
EDID:
  Base EDID: Some timings are out of range of the Monitor Ranges:
    Vertical Freq: 25.981 - 70.082 Hz (Monitor: 25.000 - 61.000 Hz)
  Base EDID: EDID specified 0 extension block(s), but found 1 extension block(s).

EDID conformity: FAIL
