edid-decode (hex):

00 ff ff ff ff ff ff 00 30 64 07 04 01 01 01 01
08 12 01 03 80 1a 10 78 0a 72 65 9b 5c 58 90 27
23 50 54 00 00 00 01 01 01 01 01 01 01 01 01 01
01 01 01 01 01 01 9e 20 00 90 51 20 1f 30 48 80
36 00 05 a3 10 00 00 1e 00 00 00 fd 00 3b 3d 31
33 08 00 0a 20 20 20 20 20 20 00 00 00 fc 00 4c
54 44 31 32 31 45 57 4a 4e 0a 20 20 00 00 00 ff
00 41 41 4d 43 38 42 30 30 38 38 33 34 0a 00 1a

----------------

Block 0, Base EDID:
  EDID Structure Version & Revision: 1.3
  Vendor & Product Identification:
    Manufacturer: LCD
    Model: 1031
    Serial Number: ...
    Made in: week 8 of 2008
  Basic Display Parameters & Features:
    Digital display
    Maximum image size: 26 cm x 16 cm
    Gamma: 2.20
    RGB color display
    First detailed timing is the preferred timing
  Color Characteristics:
    Red  : 0.6064, 0.3623
    Green: 0.3437, 0.5644
    Blue : 0.1533, 0.1386
    White: 0.3134, 0.3291
  Established Timings I & II: none
  Standard Timings: none
  Detailed Timing Descriptors:
    DTD 1:  1280x800    59.810326 Hz   8:5     49.702 kHz     83.500000 MHz (261 mm x 163 mm)
                 Hfront   72 Hsync 128 Hback  200 Hpol P
                 Vfront    3 Vsync   6 Vback   22 Vpol P
    Display Range Limits:
      Monitor ranges (GTF): 59-61 Hz V, 49-51 kHz H, max dotclock 80 MHz
    Display Product Name: 'LTD121EWJN'
    Display Product Serial Number: ...
Checksum: 0x1a

----------------

Warnings:

Block 0, Base EDID:
  Detailed Timing Descriptor #1: DTD is similar but not identical to DMT 0x1c.
EDID:
  Base EDID: Some timings are out of range of the Monitor Ranges:
    Maximum Clock: 83.500 MHz (Monitor: 80.000 MHz)
    Could be due to a Monitor Range off-by-one rounding issue

EDID conformity: PASS
