
EDID (hex):
00ffffffffffff003064070401010101
08120103801a10780a72659b5c589027
23505400000001010101010101010101
0101010101019e20009051201f304880
360005a31000001e000000fd003b3d31
3308000a202020202020000000fc004c
544431323145574a4e0a2020000000ff
0041414d4338423030383833340a001a

Extracted contents:
header:          00 ff ff ff ff ff ff 00
serial number:   30 64 07 04 01 01 01 01 08 12
version:         01 03
basic params:    80 1a 10 78 0a
chroma info:     72 65 9b 5c 58 90 27 23 50 54
established:     00 00 00
standard:        01 01 01 01 01 01 01 01 01 01 01 01 01 01 01 01
descriptor 1:    9e 20 00 90 51 20 1f 30 48 80 36 00 05 a3 10 00 00 1e
descriptor 2:    00 00 00 fd 00 3b 3d 31 33 08 00 0a 20 20 20 20 20 20
descriptor 3:    00 00 00 fc 00 4c 54 44 31 32 31 45 57 4a 4e 0a 20 20
descriptor 4:    00 00 00 ff 00 41 41 4d 43 38 42 30 30 38 38 33 34 0a
extensions:      00
checksum:        1a

EDID version: 1.3
Manufacturer: LCD Model 407 Serial Number --
Made in week 8 of 2008
Digital display
Maximum image size: 26 cm x 16 cm
Gamma: 2.20
RGB color display
First detailed timing is preferred timing
Display x,y Chromaticity:
  Red:   0.6064, 0.3623
  Green: 0.3437, 0.5644
  Blue:  0.1533, 0.1386
  White: 0.3134, 0.3291
Established timings supported:
Standard timings supported:
Detailed mode: Clock 83.500 MHz, 261 mm x 163 mm
               1280 1352 1480 1680 hborder 0
                800  803  809  831 vborder 0
               +hsync +vsync 
               VertFreq: 59 Hz, HorFreq: 49702 Hz
Monitor ranges (GTF): 59-61Hz V, 49-51kHz H, max dotclock 80MHz
Monitor name: LTD121EWJN
Serial number: --
Checksum: 0x1a (valid)
One or more of the timings is out of range of the Monitor Ranges:
  Vertical Freq: 59 - 59 Hz
  Horizontal Freq: 49702 - 49702 Hz
  Maximum Clock: 83.500 MHz


