edid-decode (hex):

00 ff ff ff ff ff ff 00 30 ae fd 63 00 00 00 00
32 22 01 04 a5 1e 13 78 3a a7 e5 a3 54 4a 9e 25
0e 50 54 a5 4b 16 d1 00 d1 c0 b3 00 a9 40 95 00
81 00 81 80 b3 0f f5 50 c0 a0 80 78 28 50 30 20
36 00 2e bd 10 00 00 1c 00 00 00 fc 00 4d 31 34
74 20 47 65 6e 32 0a 20 20 20 00 00 00 fd 00 32
4b 1e 5f 15 01 0a 20 20 20 20 20 20 00 00 00 ff
00 56 39 30 45 44 39 42 38 0a 20 20 20 20 01 c2

02 03 0e b0 49 10 1f 04 13 12 11 03 02 01 66 21
56 aa 51 00 1e 30 46 8f 33 00 2e bd 10 00 00 1e
0e 1f 00 80 51 00 1e 30 40 80 37 00 2e bd 10 00
00 1c 2a 44 80 a0 70 38 27 40 30 20 35 00 2e bd
10 00 00 1a 1a 4f 40 30 62 b0 32 40 40 c0 13 00
2e bd 10 00 00 1e 6b 35 a0 f0 51 84 2a 30 60 98
36 00 2e bd 10 00 00 1e 00 00 00 00 00 00 00 00
00 00 00 00 00 00 00 00 00 00 00 00 00 00 00 7e

00 ff ff ff ff ff ff 00 30 ae fd 63 00 00 00 00
32 22 01 04 a5 1e 13 78 3a a7 e5 a3 54 4a 9e 25
0e 50 54 a5 4b 16 d1 00 d1 c0 b3 00 a9 40 95 00
81 00 81 80 b3 0f f5 50 c0 a0 80 78 28 50 30 20
36 00 2e bd 10 00 00 1c 00 00 00 fc 00 4d 31 34
74 20 47 65 6e 32 0a 20 20 20 00 00 00 fd 00 32
4b 1e 5f 15 01 0a 20 20 20 20 20 20 00 00 00 ff
00 56 39 30 45 44 39 42 38 0a 20 20 20 20 01 c2

02 03 0e b0 49 10 1f 04 13 12 11 03 02 01 66 21
56 aa 51 00 1e 30 46 8f 33 00 2e bd 10 00 00 1e
0e 1f 00 80 51 00 1e 30 40 80 37 00 2e bd 10 00
00 1c 2a 44 80 a0 70 38 27 40 30 20 35 00 2e bd
10 00 00 1a 1a 4f 40 30 62 b0 32 40 40 c0 13 00
2e bd 10 00 00 1e 6b 35 a0 f0 51 84 2a 30 60 98
36 00 2e bd 10 00 00 1e 00 00 00 00 00 00 00 00
00 00 00 00 00 00 00 00 00 00 00 00 00 00 00 7e

----------------

Block 0, Base EDID:
  EDID Structure Version & Revision: 1.4
  Vendor & Product Identification:
    Manufacturer: LEN
    Model: 25597
    Made in: week 50 of 2024
  Basic Display Parameters & Features:
    Digital display
    Bits per primary color channel: 8
    DisplayPort interface
    Maximum image size: 30 cm x 19 cm
    Gamma: 2.20
    DPMS levels: Off
    Supported color formats: RGB 4:4:4, YCrCb 4:4:4, YCrCb 4:2:2
    First detailed timing includes the native pixel format and preferred refresh rate
  Color Characteristics:
    Red  : 0.6386, 0.3300
    Green: 0.2900, 0.6201
    Blue : 0.1474, 0.0566
    White: 0.3134, 0.3291
  Established Timings I & II:
    IBM     :   720x400    70.081663 Hz   9:5     31.467 kHz     28.320000 MHz
    DMT 0x04:   640x480    59.940476 Hz   4:3     31.469 kHz     25.175000 MHz
    DMT 0x06:   640x480    75.000000 Hz   4:3     37.500 kHz     31.500000 MHz
    DMT 0x09:   800x600    60.316541 Hz   4:3     37.879 kHz     40.000000 MHz
    DMT 0x0b:   800x600    75.000000 Hz   4:3     46.875 kHz     49.500000 MHz
    DMT 0x10:  1024x768    60.003840 Hz   4:3     48.363 kHz     65.000000 MHz
    DMT 0x12:  1024x768    75.028582 Hz   4:3     60.023 kHz     78.750000 MHz
    DMT 0x24:  1280x1024   75.024675 Hz   5:4     79.976 kHz    135.000000 MHz
  Standard Timings:
    DMT 0x45:  1920x1200   59.884600 Hz  16:10    74.556 kHz    193.250000 MHz
    DMT 0x52:  1920x1080   60.000000 Hz  16:9     67.500 kHz    148.500000 MHz
    DMT 0x3a:  1680x1050   59.954250 Hz  16:10    65.290 kHz    146.250000 MHz
    DMT 0x33:  1600x1200   60.000000 Hz   4:3     75.000 kHz    162.000000 MHz
    DMT 0x2f:  1440x900    59.887445 Hz  16:10    55.935 kHz    106.500000 MHz
    DMT 0x1c:  1280x800    59.810326 Hz  16:10    49.702 kHz     83.500000 MHz
    DMT 0x23:  1280x1024   60.019740 Hz   5:4     63.981 kHz    108.000000 MHz
    DMT 0x3b:  1680x1050   74.892027 Hz  16:10    82.306 kHz    187.000000 MHz
  Detailed Timing Descriptors:
    DTD  1:  2240x1400   59.968171 Hz  16:10    86.354 kHz    207.250000 MHz (302 mm x 189 mm)
                  Hfront   48 Hsync  32 Hback   80 Hpol N
                  Vfront    3 Vsync   6 Vback   31 Vpol P
    Display Product Name: 'M14t Gen2'
    Display Range Limits:
      Monitor ranges (Bare Limits): 50-75 Hz V, 30-95 kHz H, max dotclock 210 MHz
    Display Product Serial Number: ...
  Extension blocks: 1
Checksum: 0xc2

----------------

Block 1, CTA-861 Extension Block:
  Revision: 3
  Underscans IT Video Formats by default
  Supports YCbCr 4:4:4
  Supports YCbCr 4:2:2
  Native detailed modes: 0
  Video Data Block:
    VIC  16:  1920x1080   60.000000 Hz  16:9     67.500 kHz    148.500000 MHz
    VIC  31:  1920x1080   50.000000 Hz  16:9     56.250 kHz    148.500000 MHz
    VIC   4:  1280x720    60.000000 Hz  16:9     45.000 kHz     74.250000 MHz
    VIC  19:  1280x720    50.000000 Hz  16:9     37.500 kHz     74.250000 MHz
    VIC  18:   720x576    50.000000 Hz  16:9     31.250 kHz     27.000000 MHz
    VIC  17:   720x576    50.000000 Hz   4:3     31.250 kHz     27.000000 MHz
    VIC   3:   720x480    59.940060 Hz  16:9     31.469 kHz     27.000000 MHz
    VIC   2:   720x480    59.940060 Hz   4:3     31.469 kHz     27.000000 MHz
    VIC   1:   640x480    59.940476 Hz   4:3     31.469 kHz     25.175000 MHz
  Detailed Timing Descriptors:
    DTD  2:  1366x768    59.789541 Hz 683:384   47.712 kHz     85.500000 MHz (302 mm x 189 mm)
                  Hfront   70 Hsync 143 Hback  213 Hpol P
                  Vfront    3 Vsync   3 Vback   24 Vpol P
    DTD  3:  1280x768    59.870228 Hz   5:3     47.776 kHz     79.500000 MHz (302 mm x 189 mm)
                  Hfront   64 Hsync 128 Hback  192 Hpol N
                  Vfront    3 Vsync   7 Vback   20 Vpol P
    DTD  4:  1920x1080   74.972503 Hz  16:9     83.894 kHz    174.500000 MHz (302 mm x 189 mm)
                  Hfront   48 Hsync  32 Hback   80 Hpol P
                  Vfront    3 Vsync   5 Vback   31 Vpol N
    DTD  5:  1600x1200   75.000000 Hz   4:3     93.750 kHz    202.500000 MHz (302 mm x 189 mm)
                  Hfront   64 Hsync 192 Hback  304 Hpol P
                  Vfront    1 Vsync   3 Vback   46 Vpol P
    DTD  6:  1440x900    74.984427 Hz  16:10    70.635 kHz    136.750000 MHz (302 mm x 189 mm)
                  Hfront   96 Hsync 152 Hback  248 Hpol P
                  Vfront    3 Vsync   6 Vback   33 Vpol P
Checksum: 0x7e  Unused space in Extension Block: 23 bytes

----------------

Block 2, Unknown EDID Extension Block 0x00:
  00 ff ff ff ff ff ff 00 30 ae fd 63 00 00 00 00 '........0..c....'
  32 22 01 04 a5 1e 13 78 3a a7 e5 a3 54 4a 9e 25 '2".....x:...TJ.%'
  0e 50 54 a5 4b 16 d1 00 d1 c0 b3 00 a9 40 95 00 '.PT.K........@..'
  81 00 81 80 b3 0f f5 50 c0 a0 80 78 28 50 30 20 '.......P...x(P0 '
  36 00 2e bd 10 00 00 1c 00 00 00 fc 00 4d 31 34 '6............M14'
  74 20 47 65 6e 32 0a 20 20 20 00 00 00 fd 00 32 't Gen2.   .....2'
  4b 1e 5f 15 01 0a 20 20 20 20 20 20 00 00 00 ff 'K._...      ....'
  00 56 39 30 45 44 39 42 38 0a 20 20 20 20 01 c2 '.V90ED9B8.    ..'
Checksum: 0xc2

----------------

Block 3, CTA-861 Extension Block:
  Revision: 3
  Underscans IT Video Formats by default
  Supports YCbCr 4:4:4
  Supports YCbCr 4:2:2
  Native detailed modes: 0
  Video Data Block:
    VIC  16:  1920x1080   60.000000 Hz  16:9     67.500 kHz    148.500000 MHz
    VIC  31:  1920x1080   50.000000 Hz  16:9     56.250 kHz    148.500000 MHz
    VIC   4:  1280x720    60.000000 Hz  16:9     45.000 kHz     74.250000 MHz
    VIC  19:  1280x720    50.000000 Hz  16:9     37.500 kHz     74.250000 MHz
    VIC  18:   720x576    50.000000 Hz  16:9     31.250 kHz     27.000000 MHz
    VIC  17:   720x576    50.000000 Hz   4:3     31.250 kHz     27.000000 MHz
    VIC   3:   720x480    59.940060 Hz  16:9     31.469 kHz     27.000000 MHz
    VIC   2:   720x480    59.940060 Hz   4:3     31.469 kHz     27.000000 MHz
    VIC   1:   640x480    59.940476 Hz   4:3     31.469 kHz     25.175000 MHz
  Detailed Timing Descriptors:
    DTD  7:  1366x768    59.789541 Hz 683:384   47.712 kHz     85.500000 MHz (302 mm x 189 mm)
                  Hfront   70 Hsync 143 Hback  213 Hpol P
                  Vfront    3 Vsync   3 Vback   24 Vpol P
    DTD  8:  1280x768    59.870228 Hz   5:3     47.776 kHz     79.500000 MHz (302 mm x 189 mm)
                  Hfront   64 Hsync 128 Hback  192 Hpol N
                  Vfront    3 Vsync   7 Vback   20 Vpol P
    DTD  9:  1920x1080   74.972503 Hz  16:9     83.894 kHz    174.500000 MHz (302 mm x 189 mm)
                  Hfront   48 Hsync  32 Hback   80 Hpol P
                  Vfront    3 Vsync   5 Vback   31 Vpol N
    DTD 10:  1600x1200   75.000000 Hz   4:3     93.750 kHz    202.500000 MHz (302 mm x 189 mm)
                  Hfront   64 Hsync 192 Hback  304 Hpol P
                  Vfront    1 Vsync   3 Vback   46 Vpol P
    DTD 11:  1440x900    74.984427 Hz  16:10    70.635 kHz    136.750000 MHz (302 mm x 189 mm)
                  Hfront   96 Hsync 152 Hback  248 Hpol P
                  Vfront    3 Vsync   6 Vback   33 Vpol P
Checksum: 0x7e  Unused space in Extension Block: 23 bytes

----------------

Warnings:

Block 1, CTA-861 Extension Block:
  Video Data Block: VIC 16 is the preferred timing, overriding the first detailed timings. Is this intended?
  Detailed Timing Descriptor #6: DTD is similar but not identical to DMT 0x30.
  Add a Colorimetry Data Block with the sRGB colorimetry bit set to avoid interop issues.
Block 3, CTA-861 Extension Block:
  Detailed Timing Descriptor #11: DTD is similar but not identical to DMT 0x30.
  Add a Colorimetry Data Block with the sRGB colorimetry bit set to avoid interop issues.

Failures:

Block 1, CTA-861 Extension Block:
  Missing VCDB, needed for Set Selectable RGB Quantization to avoid interop issues.
Block 2, Base EDID:
  Unknown Extension Block.
Block 3, CTA-861 Extension Block:
  Video Data Block: Duplicate VIC 16.
  Video Data Block: Duplicate VIC 31.
  Video Data Block: Duplicate VIC 4.
  Video Data Block: Duplicate VIC 19.
  Video Data Block: Duplicate VIC 18.
  Video Data Block: Duplicate VIC 17.
  Video Data Block: Duplicate VIC 3.
  Video Data Block: Duplicate VIC 2.
  Video Data Block: Duplicate VIC 1.
  Missing VCDB, needed for Set Selectable RGB Quantization to avoid interop issues.
EDID:
  Base EDID: EDID specified 1 extension block(s), but found 3 extension block(s).

EDID conformity: FAIL
