
EDID (hex):
00ffffffffffff0006af9b3c00000000
141f0104a52517780308b5ae5242b226
0c505400000001010101010101010101
010101010101e8fd00a0a0404c693020
aa006ee4100000180000000f00000000
00000000000000000020000000fd0c3c
a520204e010a202020202020000000fe
004231373051414e30312e30200a01ad
70137900000301141a300184ff099f00
2f001f003f0685000900040000000000
00000000000000000000000000000000
00000000000000000000000000000000
00000000000000000000000000000000
00000000000000000000000000000000
00000000000000000000000000000000
0000000000000000000000000000c190

Extracted contents:
header:          00 ff ff ff ff ff ff 00
serial number:   06 af 9b 3c 00 00 00 00 14 1f
version:         01 04
basic params:    a5 25 17 78 03
chroma info:     08 b5 ae 52 42 b2 26 0c 50 54
established:     00 00 00
standard:        01 01 01 01 01 01 01 01 01 01 01 01 01 01 01 01
descriptor 1:    e8 fd 00 a0 a0 40 4c 69 30 20 aa 00 6e e4 10 00 00 18
descriptor 2:    00 00 00 0f 00 00 00 00 00 00 00 00 00 00 00 00 00 20
descriptor 3:    00 00 00 fd 0c 3c a5 20 20 4e 01 0a 20 20 20 20 20 20
descriptor 4:    00 00 00 fe 00 42 31 37 30 51 41 4e 30 31 2e 30 20 0a
extensions:      01
checksum:        ad

EDID version: 1.4
Manufacturer: AUO Model 3c9b Serial Number --
Made in week 20 of 2021
Digital display
8 bits per primary color channel
DisplayPort interface
Maximum image size: 37 cm x 23 cm
Gamma: 2.20
Supported color formats: RGB 4:4:4
First detailed timing includes the native pixel format and preferred refresh rate
Display is continuous frequency
Display x,y Chromaticity:
  Red:   0.6796, 0.3203
  Green: 0.2597, 0.6953
  Blue:  0.1503, 0.0498
  White: 0.3134, 0.3291
Established timings supported:
Standard timings supported:
Detailed mode: Clock 650.000 MHz, 366 mm x 228 mm
               2560 2608 2640 2720 hborder 0
               1600 1610 1620 3980 vborder 0
               -hsync -vsync 
               VertFreq: 60 Hz, HorFreq: 238970 Hz
Manufacturer-specified data, tag 15
Monitor ranges (bare limits): 60-165Hz V, 32-287kHz H, max dotclock 780MHz
ASCII string: B170QAN01.0 
Has 1 extension blocks
Checksum: 0xad (valid)

DisplayID extension block
Extension version: 19
Length 121, version 19, extension count 0
Checksum: 0xc1 (valid)
Type 1 detailed timing: aspect: 16:9, Preferred  
Detailed mode: Clock 778.500 MHz, 0 mm x 0 mm
               2559 2606 2637 2718
               1599 1608 1612 1732
               -hsync -vsync

EDID block does NOT conform to EDID 1.4!
	Missing name descriptor
EDID block does not conform at all!
	Has 1392508928 nonconformant extension block(s)
