
EDID (hex):
00ffffffffffff004d101c1500000000
041f0104a52213780fde50a3544c9926
0f505400000001010101010101010101
0101010101014c3680a070381f403020
350058c210000018000000fd003ca5c1
c128010a202020202020000000fe0030
4b4a3359804c513135364d3100000000
0002410d1e000200000b010a202001ec
7013790000030114f19400847f079f00
2f001f0037041e000200040000000000
00000000000000000000000000000000
00000000000000000000000000000000
00000000000000000000000000000000
00000000000000000000000000000000
00000000000000000000000000000000
00000000000000000000000000008190

Extracted contents:
header:          00 ff ff ff ff ff ff 00
serial number:   4d 10 1c 15 00 00 00 00 04 1f
version:         01 04
basic params:    a5 22 13 78 0f
chroma info:     de 50 a3 54 4c 99 26 0f 50 54
established:     00 00 00
standard:        01 01 01 01 01 01 01 01 01 01 01 01 01 01 01 01
descriptor 1:    4c 36 80 a0 70 38 1f 40 30 20 35 00 58 c2 10 00 00 18
descriptor 2:    00 00 00 fd 00 3c a5 c1 c1 28 01 0a 20 20 20 20 20 20
descriptor 3:    00 00 00 fe 00 30 4b 4a 33 59 80 4c 51 31 35 36 4d 31
descriptor 4:    00 00 00 00 00 02 41 0d 1e 00 02 00 00 0b 01 0a 20 20
extensions:      01
checksum:        ec

EDID version: 1.4
Manufacturer: SHP Model 151c Serial Number --
Made in week 4 of 2021
Digital display
8 bits per primary color channel
DisplayPort interface
Maximum image size: 34 cm x 19 cm
Gamma: 2.20
Supported color formats: RGB 4:4:4, YCrCb 4:4:4
Default (sRGB) color space is primary color space
First detailed timing includes the native pixel format and preferred refresh rate
Display is continuous frequency
Display x,y Chromaticity:
  Red:   0.6396, 0.3291
  Green: 0.2998, 0.5996
  Blue:  0.1494, 0.0595
  White: 0.3125, 0.3281
Established timings supported:
Standard timings supported:
Detailed mode: Clock 139.000 MHz, 344 mm x 194 mm
               1920 1968 2000 2080 hborder 0
               1080 1083 1088 1111 vborder 0
               -hsync -vsync 
               VertFreq: 60 Hz, HorFreq: 66826 Hz
Monitor ranges (bare limits): 60-165Hz V, 193-193kHz H, max dotclock 400MHz
ASCII string: 0KJ3Y
Manufacturer-specified data, tag 0
Has 1 extension blocks
Checksum: 0xec (valid)

DisplayID extension block
Extension version: 19
Length 121, version 19, extension count 0
Checksum: 0x81 (valid)
Type 1 detailed timing: aspect: 16:9, Preferred  
Detailed mode: Clock 381.290 MHz, 0 mm x 0 mm
               1919 1966 1997 2078
               1079 1081 1085 1109
               -hsync -vsync

EDID block does NOT conform to EDID 1.4!
	sRGB is signaled, but the chromaticities do not match
	Missing name descriptor
	Detailed block string not properly terminated
Warning: One or more of the timings is out of range of the Monitor Ranges:
  Vertical Freq: 60 - 60 Hz
  Horizontal Freq: 66826 - 66826 Hz
  Maximum Clock: 139.000 MHz
EDID block does not conform at all!
	Has 335544320 nonconformant extension block(s)


