
EDID (hex):
00ffffffffffff0026cdb44615340000
2a0d010368221b782a2d90a4574a9c25
115054bfef008180714f010101010101
010101010101302a009851002a403070
1300540e1100001e000000ff00303532
30364733413133333333000000fd0037
4c18530e000a202020202020000000fc
00504c453433300a20202020202000b5

Extracted contents:
header:          00 ff ff ff ff ff ff 00
serial number:   26 cd b4 46 15 34 00 00 2a 0d
version:         01 03
basic params:    68 22 1b 78 2a
chroma info:     2d 90 a4 57 4a 9c 25 11 50 54
established:     bf ef 00
standard:        81 80 71 4f 01 01 01 01 01 01 01 01 01 01 01 01
descriptor 1:    30 2a 00 98 51 00 2a 40 30 70 13 00 54 0e 11 00 00 1e
descriptor 2:    00 00 00 ff 00 30 35 32 30 36 47 33 41 31 33 33 33 33
descriptor 3:    00 00 00 fd 00 37 4c 18 53 0e 00 0a 20 20 20 20 20 20
descriptor 4:    00 00 00 fc 00 50 4c 45 34 33 30 0a 20 20 20 20 20 20
extensions:      00
checksum:        b5

EDID version: 1.3
Manufacturer: IVM Model 46b4 Serial Number --
Analog display, Input voltage level: 0.7/0.7 V
Sync: Separate 
Maximum image size: 34 cm x 27 cm
Gamma: 2.20
DPMS levels: Off
RGB color display
First detailed timing is preferred timing
Display x,y Chromaticity:
  Red:   0.6406, 0.3417
  Green: 0.2919, 0.6103
  Blue:  0.1464, 0.0673
  White: 0.3125, 0.3281
Established timings supported:
  720x400@70Hz 9:5 HorFreq: 31469 Hz Clock: 28.320 MHz
  640x480@60Hz 4:3 HorFreq: 31469 Hz Clock: 25.175 MHz
  640x480@67Hz 4:3 HorFreq: 35000 Hz Clock: 30.240 MHz
  640x480@72Hz 4:3 HorFreq: 37900 Hz Clock: 31.500 MHz
  640x480@75Hz 4:3 HorFreq: 37500 Hz Clock: 31.500 MHz
  800x600@56Hz 4:3 HorFreq: 35200 Hz Clock: 36.000 MHz
  800x600@60Hz 4:3 HorFreq: 37900 Hz Clock: 40.000 MHz
  800x600@72Hz 4:3 HorFreq: 48100 Hz Clock: 50.000 MHz
  800x600@75Hz 4:3 HorFreq: 46900 Hz Clock: 49.500 MHz
  832x624@75Hz 4:3 HorFreq: 49726 Hz Clock: 57.284 MHz
  1024x768@60Hz 4:3 HorFreq: 48400 Hz Clock: 65.000 MHz
  1024x768@70Hz 4:3 HorFreq: 56500 Hz Clock: 75.000 MHz
  1024x768@75Hz 4:3 HorFreq: 60000 Hz Clock: 78.750 MHz
  1280x1024@75Hz 5:4 HorFreq: 80000 Hz Clock: 135.000 MHz
Standard timings supported:
  1280x1024@60Hz 5:4 HorFreq: 64000 Hz Clock: 108.000 MHz
  1152x864@75Hz 4:3 HorFreq: 67500 Hz Clock: 108.000 MHz
Detailed mode: Clock 108.000 MHz, 340 mm x 270 mm
               1280 1328 1440 1688 hborder 0
               1024 1025 1028 1066 vborder 0
               +hsync +vsync 
               VertFreq: 60 Hz, HorFreq: 63981 Hz
Serial number: --
Monitor ranges (GTF): 55-76Hz V, 24-83kHz H, max dotclock 140MHz
Monitor name: PLE430
Checksum: 0xb5 (valid)
EDID block does not conform at all!
	Bad year of manufacture
