
EDID (hex):
00ffffffffffff0005f007082b120013
1e1f010380342078eab9e5a55852a127
0f5054bfef80714f8140818081c0b300
81009500d1cf023a801871382d40582c
4500132b2100001e000000ff00313133
30303132324233573031000000fc0032
34434c31590a202020202020000000fd
002f4c1e5111000a202020202020018b
02032df14f90050403020716011f1213
ffffffffffffffffffffffffffffffff
ffffffffffffffffffffffffffffffff
ffffffffffffffffffffffffffffffff
ffffffffffffffffffffffffffffffff
ffffffffffffffffffffffffffffffff
ffffffffffffffffffffffffffffffff
ffffffffffffffffffffffffffffffff

Extracted contents:
header:          00 ff ff ff ff ff ff 00
serial number:   05 f0 07 08 2b 12 00 13 1e 1f
version:         01 03
basic params:    80 34 20 78 ea
chroma info:     b9 e5 a5 58 52 a1 27 0f 50 54
established:     bf ef 80
standard:        71 4f 81 40 81 80 81 c0 b3 00 81 00 95 00 d1 cf
descriptor 1:    02 3a 80 18 71 38 2d 40 58 2c 45 00 13 2b 21 00 00 1e
descriptor 2:    00 00 00 ff 00 31 31 33 30 30 31 32 32 42 33 57 30 31
descriptor 3:    00 00 00 fc 00 32 34 43 4c 31 59 0a 20 20 20 20 20 20
descriptor 4:    00 00 00 fd 00 2f 4c 1e 51 11 00 0a 20 20 20 20 20 20
extensions:      01
checksum:        8b

EDID version: 1.3
Manufacturer: AOP Model 807 Serial Number --
Made in week 30 of 2021
Digital display
Maximum image size: 52 cm x 32 cm
Gamma: 2.20
DPMS levels: Standby Suspend Off
RGB color display
First detailed timing is preferred timing
Display x,y Chromaticity:
  Red:   0.6464, 0.3466
  Green: 0.3222, 0.6298
  Blue:  0.1552, 0.0605
  White: 0.3134, 0.3291
Established timings supported:
  720x400@70Hz 9:5 HorFreq: 31469 Hz Clock: 28.320 MHz
  640x480@60Hz 4:3 HorFreq: 31469 Hz Clock: 25.175 MHz
  640x480@67Hz 4:3 HorFreq: 35000 Hz Clock: 30.240 MHz
  640x480@72Hz 4:3 HorFreq: 37900 Hz Clock: 31.500 MHz
  640x480@75Hz 4:3 HorFreq: 37500 Hz Clock: 31.500 MHz
  800x600@56Hz 4:3 HorFreq: 35200 Hz Clock: 36.000 MHz
  800x600@60Hz 4:3 HorFreq: 37900 Hz Clock: 40.000 MHz
  800x600@72Hz 4:3 HorFreq: 48100 Hz Clock: 50.000 MHz
  800x600@75Hz 4:3 HorFreq: 46900 Hz Clock: 49.500 MHz
  832x624@75Hz 4:3 HorFreq: 49726 Hz Clock: 57.284 MHz
  1024x768@60Hz 4:3 HorFreq: 48400 Hz Clock: 65.000 MHz
  1024x768@70Hz 4:3 HorFreq: 56500 Hz Clock: 75.000 MHz
  1024x768@75Hz 4:3 HorFreq: 60000 Hz Clock: 78.750 MHz
  1280x1024@75Hz 5:4 HorFreq: 80000 Hz Clock: 135.000 MHz
  1152x870@75Hz 192:145 HorFreq: 67500 Hz Clock: 108.000 MHz
Standard timings supported:
  1152x864@75Hz 4:3 HorFreq: 67500 Hz Clock: 108.000 MHz
  1280x960@60Hz 4:3 HorFreq: 60000 Hz Clock: 108.000 MHz
  1280x1024@60Hz 5:4 HorFreq: 64000 Hz Clock: 108.000 MHz
  1280x720@60Hz 16:9
  1680x1050@60Hz 16:10 HorFreq: 64700 Hz Clock: 119.000 MHz
  1280x800@60Hz 16:10
  1440x900@60Hz 16:10 HorFreq: 55500 Hz Clock: 88.750 MHz
  1920x1080@75Hz 16:9
Detailed mode: Clock 148.500 MHz, 531 mm x 299 mm
               1920 2008 2052 2200 hborder 0
               1080 1084 1089 1125 vborder 0
               +hsync +vsync 
               VertFreq: 60 Hz, HorFreq: 67500 Hz
Serial number: --
Monitor name: 24CL1Y
Monitor ranges (GTF): 47-76Hz V, 30-81kHz H, max dotclock 170MHz
Has 1 extension blocks
Checksum: 0x8b (valid)

CTA extension block
Extension version: 3
41 bytes of CTA data
  Video data block
    VIC  16 1920x1080@60Hz 16:9 (native) HorFreq: 67500 Hz Clock: 148.500 MHz
    VIC   5 1920x1080i@60Hz 16:9  HorFreq: 33750 Hz Clock: 74.250 MHz
    VIC   4 1280x720@60Hz 16:9  HorFreq: 45000 Hz Clock: 74.250 MHz
    VIC   3 720x480@60Hz 16:9  HorFreq: 31469 Hz Clock: 27.000 MHz
    VIC   2 720x480@60Hz 4:3  HorFreq: 31469 Hz Clock: 27.000 MHz
    VIC   7 1440x480i@60Hz 16:9  HorFreq: 15734 Hz Clock: 27.000 MHz
    VIC  22 1440x576i@50Hz 16:9  HorFreq: 15625 Hz Clock: 27.000 MHz
    VIC   1 640x480@60Hz 4:3  HorFreq: 31469 Hz Clock: 25.175 MHz
    VIC  31 1920x1080@50Hz 16:9  HorFreq: 56250 Hz Clock: 148.500 MHz
    VIC  18 720x576@50Hz 16:9  HorFreq: 31250 Hz Clock: 27.000 MHz
    VIC  19 1280x720@50Hz 16:9  HorFreq: 37500 Hz Clock: 74.250 MHz
    VIC 255 Unknown mode  HorFreq: 0 Hz Clock: 0.000 MHz
    VIC 255 Unknown mode  HorFreq: 0 Hz Clock: 0.000 MHz
    VIC 255 Unknown mode  HorFreq: 0 Hz Clock: 0.000 MHz
    VIC 255 Unknown mode  HorFreq: 0 Hz Clock: 0.000 MHz
  Extended tag: Reserved (ff)
Underscans PC formats by default
Basic audio support
Supports YCbCr 4:4:4
Supports YCbCr 4:2:2
1 native detailed modes
Detailed mode: Clock 655.350 MHz, 4095 mm x 4095 mm
               4095 5118 6141 8190 hborder 255
               4095 4158 4221 8190 vborder 255
               +hsync +vsync interlaced side by side interleaved
               VertFreq: 9 Hz, HorFreq: 80018 Hz
Detailed mode: Clock 655.350 MHz, 4095 mm x 4095 mm
               4095 5118 6141 8190 hborder 255
               4095 4158 4221 8190 vborder 255
               +hsync +vsync interlaced side by side interleaved
               VertFreq: 9 Hz, HorFreq: 80018 Hz
Detailed mode: Clock 655.350 MHz, 4095 mm x 4095 mm
               4095 5118 6141 8190 hborder 255
               4095 4158 4221 8190 vborder 255
               +hsync +vsync interlaced side by side interleaved
               VertFreq: 9 Hz, HorFreq: 80018 Hz
Detailed mode: Clock 655.350 MHz, 4095 mm x 4095 mm
               4095 5118 6141 8190 hborder 255
               4095 4158 4221 8190 vborder 255
               +hsync +vsync interlaced side by side interleaved
               VertFreq: 9 Hz, HorFreq: 80018 Hz
Checksum: 0xff (should be 0xfd)

One or more of the timings is out of range of the Monitor Ranges:
  Vertical Freq: 9 - 75 Hz
  Horizontal Freq: 15625 - 80018 Hz
  Maximum Clock: 655.350 MHz
EDID block does not conform at all!
	Both the serial number and the serial string are set
CTA extension block does not conform
	Block has broken checksum
