
EDID (hex):
00ffffffffffff0006af9e1300000000
341601049526157802ee859e59509d26
1d505400000001010101010101010101
010101010101102740c660841a303020
36007ed6100000180000000f00000000
00000000000000000020000000fe0041
554f0a202020202020202020000000fe
004231373352544e30312e33200a0055

Extracted contents:
header:          00 ff ff ff ff ff ff 00
serial number:   06 af 9e 13 00 00 00 00 34 16
version:         01 04
basic params:    95 26 15 78 02
chroma info:     ee 85 9e 59 50 9d 26 1d 50 54
established:     00 00 00
standard:        01 01 01 01 01 01 01 01 01 01 01 01 01 01 01 01
descriptor 1:    10 27 40 c6 60 84 1a 30 30 20 36 00 7e d6 10 00 00 18
descriptor 2:    00 00 00 0f 00 00 00 00 00 00 00 00 00 00 00 00 00 20
descriptor 3:    00 00 00 fe 00 41 55 4f 0a 20 20 20 20 20 20 20 20 20
descriptor 4:    00 00 00 fe 00 42 31 37 33 52 54 4e 30 31 2e 33 20 0a
extensions:      00
checksum:        55

EDID version: 1.4
Manufacturer: AUO Model 139e Serial Number --
Made in week 52 of 2012
Digital display
6 bits per primary color channel
DisplayPort interface
Maximum image size: 38 cm x 21 cm
Gamma: 2.20
Supported color formats: RGB 4:4:4
First detailed timing includes the native pixel format and preferred refresh rate
Display x,y Chromaticity:
  Red:   0.6201, 0.3496
  Green: 0.3154, 0.6152
  Blue:  0.1503, 0.1132
  White: 0.3134, 0.3291
Established timings supported:
Standard timings supported:
Detailed mode: Clock 100.000 MHz, 382 mm x 214 mm
               1600 1648 1680 1798 hborder 0
                900  903  909  926 vborder 0
               -hsync -vsync 
               VertFreq: 60 Hz, HorFreq: 55617 Hz
Manufacturer-specified data, tag 15
ASCII string: AUO
ASCII string: B173RTN01.3 
Checksum: 0x55 (valid)
EDID block does NOT conform to EDID 1.4!
	Missing name descriptor
	Missing monitor ranges
