
EDID (hex):
00ffffffffffff0006af9e1300000000
001501049026157802c4959e57539226
0f505400000001010101010101010101
0101010101011c2a405061841c303020
36007ed610000018131c405061841c30
302036007ed610000018000000000000
00000000000000000000000000000002
000c40ff0c3c6b171f3a6b20202000ef

Extracted contents:
header:          00 ff ff ff ff ff ff 00
serial number:   06 af 9e 13 00 00 00 00 00 15
version:         01 04
basic params:    90 26 15 78 02
chroma info:     c4 95 9e 57 53 92 26 0f 50 54
established:     00 00 00
standard:        01 01 01 01 01 01 01 01 01 01 01 01 01 01 01 01
descriptor 1:    1c 2a 40 50 61 84 1c 30 30 20 36 00 7e d6 10 00 00 18
descriptor 2:    13 1c 40 50 61 84 1c 30 30 20 36 00 7e d6 10 00 00 18
descriptor 3:    00 00 00 00 00 00 00 00 00 00 00 00 00 00 00 00 00 00
descriptor 4:    00 00 00 02 00 0c 40 ff 0c 3c 6b 17 1f 3a 6b 20 20 20
extensions:      00
checksum:        ef

EDID version: 1.4
Manufacturer: AUO Model 139e Serial Number --
Made in year 2011
Digital display
6 bits per primary color channel
Digital interface is not defined
Maximum image size: 38 cm x 21 cm
Gamma: 2.20
Supported color formats: RGB 4:4:4
First detailed timing includes the native pixel format and preferred refresh rate
Display x,y Chromaticity:
  Red:   0.6201, 0.3398
  Green: 0.3251, 0.5703
  Blue:  0.1503, 0.0595
  White: 0.3134, 0.3291
Established timings supported:
Standard timings supported:
Detailed mode: Clock 107.800 MHz, 382 mm x 214 mm
               1600 1648 1680 1936 hborder 0
                900  903  909  928 vborder 0
               -hsync -vsync 
               VertFreq: 60 Hz, HorFreq: 55681 Hz
Detailed mode: Clock 71.870 MHz, 382 mm x 214 mm
               1600 1648 1680 1936 hborder 0
                900  903  909  928 vborder 0
               -hsync -vsync 
               VertFreq: 40 Hz, HorFreq: 37122 Hz
Manufacturer-specified data, tag 0
Manufacturer-specified data, tag 2
Checksum: 0xef (valid)
EDID block does NOT conform to EDID 1.4!
	Missing name descriptor
	Missing monitor ranges
