edid-decode (hex):

00 ff ff ff ff ff ff 00 0d ae 44 12 00 00 00 00
15 1a 01 04 95 1c 10 78 02 5d 45 96 58 52 98 27
26 50 54 00 00 00 01 01 01 01 01 01 01 01 01 01
01 01 01 01 01 01 b4 3b 80 4a 71 38 34 40 2e 1e
24 00 14 9b 10 00 00 1a b4 3b 80 4a 71 38 34 40
2e 1e 24 00 14 9b 10 00 00 1a 00 00 00 fe 00 35
30 57 37 58 80 31 32 35 48 43 45 0a 00 00 00 00
00 00 41 01 9e 01 10 00 00 0a 01 0a 20 20 00 4c

00 ff ff ff ff ff ff 00 0d ae 44 12 00 00 00 00
15 1a 01 04 95 1c 10 78 02 5d 45 96 58 52 98 27
26 50 54 00 00 00 01 01 01 01 01 01 01 01 01 01
01 01 01 01 01 01 b4 3b 80 4a 71 38 34 40 2e 1e
24 00 14 9b 10 00 00 1a b4 3b 80 4a 71 38 34 40
2e 1e 24 00 14 9b 10 00 00 1a 00 00 00 fe 00 35
30 57 37 58 80 31 32 35 48 43 45 0a 00 00 00 00
00 00 41 01 9e 01 10 00 00 0a 01 0a 20 20 00 4c

----------------

Block 0, Base EDID:
  EDID Structure Version & Revision: 1.4
  Vendor & Product Identification:
    Manufacturer: CMN
    Model: 4676
    Made in: week 21 of 2016
  Basic Display Parameters & Features:
    Digital display
    Bits per primary color channel: 6
    DisplayPort interface
    Maximum image size: 28 cm x 16 cm
    Gamma: 2.20
    Supported color formats: RGB 4:4:4
    First detailed timing includes the native pixel format and preferred refresh rate
  Color Characteristics:
    Red  : 0.5869, 0.3447
    Green: 0.3232, 0.5947
    Blue : 0.1533, 0.1484
    White: 0.3134, 0.3291
  Established Timings I & II: none
  Standard Timings: none
  Detailed Timing Descriptors:
    DTD 1:  1920x1080   60.007852 Hz  16:9     67.929 kHz    152.840000 MHz (276 mm x 155 mm)
                 Hfront   46 Hsync  30 Hback  254 Hpol P
                 Vfront    2 Vsync   4 Vback   46 Vpol N
    DTD 2:  1920x1080   60.007852 Hz  16:9     67.929 kHz    152.840000 MHz (276 mm x 155 mm)
                 Hfront   46 Hsync  30 Hback  254 Hpol P
                 Vfront    2 Vsync   4 Vback   46 Vpol N
    Alphanumeric Data String: '50W7X'
    Manufacturer-Specified Display Descriptor (0x00): 00 00 00 00 41 01 9e 01 10 00 00 0a 01 0a 20 20 '....A.........  '
Checksum: 0x4c

----------------

Block 1, Unknown EDID Extension Block 0x00:
  00 ff ff ff ff ff ff 00 0d ae 44 12 00 00 00 00 '..........D.....'
  15 1a 01 04 95 1c 10 78 02 5d 45 96 58 52 98 27 '.......x.]E.XR.''
  26 50 54 00 00 00 01 01 01 01 01 01 01 01 01 01 '&PT.............'
  01 01 01 01 01 01 b4 3b 80 4a 71 38 34 40 2e 1e '.......;.Jq84@..'
  24 00 14 9b 10 00 00 1a b4 3b 80 4a 71 38 34 40 '$........;.Jq84@'
  2e 1e 24 00 14 9b 10 00 00 1a 00 00 00 fe 00 35 '..$............5'
  30 57 37 58 80 31 32 35 48 43 45 0a 00 00 00 00 '0W7X.125HCE.....'
  00 00 41 01 9e 01 10 00 00 0a 01 0a 20 20 00 4c '..A.........  .L'
Checksum: 0x4c

----------------

Warnings:

Block 0, Base EDID:
  Missing Display Product Name.

Failures:

Block 0, Base EDID:
  Alphanumeric Data String: Non-printable character.
Block 1, Base EDID:
  Unknown Extension Block.
EDID:
  Base EDID: EDID specified 0 extension block(s), but found 1 extension block(s).

EDID conformity: FAIL
