edid-decode (hex):

00 ff ff ff ff ff ff 00 0e 77 3d 14 00 00 00 00
00 22 01 04 a5 1e 13 78 03 2c e5 94 5c 59 95 29
20 50 54 00 00 00 01 01 01 01 01 01 01 01 01 01
01 01 01 01 01 01 35 3c 80 a0 70 b0 23 40 30 20
36 00 2d bc 10 00 00 1a 2a 30 80 a0 70 b0 23 40
30 20 36 00 2d bc 10 00 00 1a 00 00 00 fe 00 4d
50 50 33 36 80 43 53 4f 54 20 54 39 00 00 00 00
00 01 41 31 9e 00 00 00 00 0a 01 0a 20 20 00 69

00 ff ff ff ff ff ff 00 0e 77 3d 14 00 00 00 00
00 22 01 04 a5 1e 13 78 03 2c e5 94 5c 59 95 29
20 50 54 00 00 00 01 01 01 01 01 01 01 01 01 01
01 01 01 01 01 01 35 3c 80 a0 70 b0 23 40 30 20
36 00 2d bc 10 00 00 1a 2a 30 80 a0 70 b0 23 40
30 20 36 00 2d bc 10 00 00 1a 00 00 00 fe 00 4d
50 50 33 36 80 43 53 4f 54 20 54 39 00 00 00 00
00 01 41 31 9e 00 00 00 00 0a 01 0a 20 20 00 69

----------------

Block 0, Base EDID:
  EDID Structure Version & Revision: 1.4
  Vendor & Product Identification:
    Manufacturer: CSW
    Model: 5181
    Made in: 2024
  Basic Display Parameters & Features:
    Digital display
    Bits per primary color channel: 8
    DisplayPort interface
    Maximum image size: 30 cm x 19 cm
    Gamma: 2.20
    Supported color formats: RGB 4:4:4
    First detailed timing includes the native pixel format and preferred refresh rate
    Display is continuous frequency
  Color Characteristics:
    Red  : 0.5781, 0.3613
    Green: 0.3505, 0.5820
    Blue : 0.1630, 0.1269
    White: 0.3134, 0.3291
  Established Timings I & II: none
  Standard Timings: none
  Detailed Timing Descriptors:
    DTD 1:  1920x1200   60.000779 Hz  16:10    74.101 kHz    154.130000 MHz (301 mm x 188 mm)
                 Hfront   48 Hsync  32 Hback   80 Hpol P
                 Vfront    3 Vsync   6 Vback   26 Vpol N
    DTD 2:  1920x1200   47.999066 Hz  16:10    59.279 kHz    123.300000 MHz (301 mm x 188 mm)
                 Hfront   48 Hsync  32 Hback   80 Hpol P
                 Vfront    3 Vsync   6 Vback   26 Vpol N
    Alphanumeric Data String: 'MPP36'
    Manufacturer-Specified Display Descriptor (0x00): 00 00 00 01 41 31 9e 00 00 00 00 0a 01 0a 20 20 '....A1........  '
Checksum: 0x69

----------------

Block 1, Unknown EDID Extension Block 0x00:
  00 ff ff ff ff ff ff 00 0e 77 3d 14 00 00 00 00 '.........w=.....'
  00 22 01 04 a5 1e 13 78 03 2c e5 94 5c 59 95 29 '.".....x.,..\Y.)'
  20 50 54 00 00 00 01 01 01 01 01 01 01 01 01 01 ' PT.............'
  01 01 01 01 01 01 35 3c 80 a0 70 b0 23 40 30 20 '......5<..p.#@0 '
  36 00 2d bc 10 00 00 1a 2a 30 80 a0 70 b0 23 40 '6.-.....*0..p.#@'
  30 20 36 00 2d bc 10 00 00 1a 00 00 00 fe 00 4d '0 6.-..........M'
  50 50 33 36 80 43 53 4f 54 20 54 39 00 00 00 00 'PP36.CSOT T9....'
  00 01 41 31 9e 00 00 00 00 0a 01 0a 20 20 00 69 '..A1........  .i'
Checksum: 0x69

----------------

Warnings:

Block 0, Base EDID:
  Missing Display Product Name.

Failures:

Block 0, Base EDID:
  Alphanumeric Data String: Non-printable character.
  Missing Display Range Limits Descriptor.
Block 1, Base EDID:
  Unknown Extension Block.
EDID:
  Base EDID: EDID specified 0 extension block(s), but found 1 extension block(s).

EDID conformity: FAIL
