
EDID (hex):
00ffffffffffff0006101992db14fe02
090d0103802b1b782ee691a3544a9926
0f505400000001010101010101010101
010101010101c12d90a0601a0c404020
3300b10e1100001e000000fc00417070
6c652043696e656d6120000000fc0044
6973706c61790a000000000000000000
00061003001c000300000000000001a1
400102000000007600a500a50102031a
1aa80100000000004000000000000000
00000000000000000000000000000000
00000000000000000000000000000000
00000000000000000000000000000000
00000000000000000000000000000000
00000000000000000000000000000000
000000000000000000000000000000da

Extracted contents:
header:          00 ff ff ff ff ff ff 00
serial number:   06 10 19 92 db 14 fe 02 09 0d
version:         01 03
basic params:    80 2b 1b 78 2e
chroma info:     e6 91 a3 54 4a 99 26 0f 50 54
established:     00 00 00
standard:        01 01 01 01 01 01 01 01 01 01 01 01 01 01 01 01
descriptor 1:    c1 2d 90 a0 60 1a 0c 40 40 20 33 00 b1 0e 11 00 00 1e
descriptor 2:    00 00 00 fc 00 41 70 70 6c 65 20 43 69 6e 65 6d 61 20
descriptor 3:    00 00 00 fc 00 44 69 73 70 6c 61 79 0a 00 00 00 00 00
descriptor 4:    00 00 00 00 00 06 10 03 00 1c 00 03 00 00 00 00 00 00
extensions:      01
checksum:        a1

EDID version: 1.3
Manufacturer: APP Model 9219 Serial Number --
Digital display
Maximum image size: 43 cm x 27 cm
Gamma: 2.20
DPMS levels: Off
RGB color display
Default (sRGB) color space is primary color space
First detailed timing is preferred timing
Display x,y Chromaticity:
  Red:   0.6396, 0.3300
  Green: 0.2900, 0.5996
  Blue:  0.1503, 0.0595
  White: 0.3125, 0.3291
Established timings supported:
Standard timings supported:
Detailed mode: Clock 117.130 MHz, 433 mm x 270 mm
               1680 1744 1776 1840 hborder 0
               1050 1053 1056 1062 vborder 0
               +hsync +vsync 
               VertFreq: 59 Hz, HorFreq: 63657 Hz
Monitor name: Apple Cinema Display
Manufacturer-specified data, tag 0
Has 1 extension blocks
Checksum: 0xa1 (valid)

DI extension block

EDID block does NOT conform to EDID 1.3!
	sRGB is signaled, but the chromaticities do not match
	Missing monitor ranges
EDID block does not conform at all!
	Has 1593835520 nonconformant extension block(s)
	Bad year of manufacture
