
EDID (hex):
00ffffffffffff004c2d2d0039315141
1a0c010368241b2f2bbbb9a352469824
0f484cffff803140315945596159818f
c14001010101bc34009851002a401090
130060081100001e000000fd0032a01e
5513000a202020202020000000fc0053
796e634d61737465720a2020000000ff
00484a45543630303735390a2020009b

Extracted contents:
header:          00 ff ff ff ff ff ff 00
serial number:   4c 2d 2d 00 39 31 51 41 1a 0c
version:         01 03
basic params:    68 24 1b 2f 2b
chroma info:     bb b9 a3 52 46 98 24 0f 48 4c
established:     ff ff 80
standard:        31 40 31 59 45 59 61 59 81 8f c1 40 01 01 01 01
descriptor 1:    bc 34 00 98 51 00 2a 40 10 90 13 00 60 08 11 00 00 1e
descriptor 2:    00 00 00 fd 00 32 a0 1e 55 13 00 0a 20 20 20 20 20 20
descriptor 3:    00 00 00 fc 00 53 79 6e 63 4d 61 73 74 65 72 0a 20 20
descriptor 4:    00 00 00 ff 00 48 4a 45 54 36 30 30 37 35 39 0a 20 20
extensions:      00
checksum:        9b

EDID version: 1.3
Manufacturer: SAM Model 2d Serial Number --
Analog display, Input voltage level: 0.7/0.7 V
Sync: Separate 
Maximum image size: 36 cm x 27 cm
Gamma: 1.47
DPMS levels: Off
RGB color display
First detailed timing is preferred timing
Supports GTF timings within operating range
Display x,y Chromaticity:
  Red:   0.6386, 0.3232
  Green: 0.2753, 0.5966
  Blue:  0.1425, 0.0615
  White: 0.2832, 0.2978
Established timings supported:
  720x400@70Hz 9:5 HorFreq: 31469 Hz Clock: 28.320 MHz
  720x400@88Hz 9:5 HorFreq: 39500 Hz Clock: 35.500 MHz
  640x480@60Hz 4:3 HorFreq: 31469 Hz Clock: 25.175 MHz
  640x480@67Hz 4:3 HorFreq: 35000 Hz Clock: 30.240 MHz
  640x480@72Hz 4:3 HorFreq: 37900 Hz Clock: 31.500 MHz
  640x480@75Hz 4:3 HorFreq: 37500 Hz Clock: 31.500 MHz
  800x600@56Hz 4:3 HorFreq: 35200 Hz Clock: 36.000 MHz
  800x600@60Hz 4:3 HorFreq: 37900 Hz Clock: 40.000 MHz
  800x600@72Hz 4:3 HorFreq: 48100 Hz Clock: 50.000 MHz
  800x600@75Hz 4:3 HorFreq: 46900 Hz Clock: 49.500 MHz
  832x624@75Hz 4:3 HorFreq: 49726 Hz Clock: 57.284 MHz
  1280x768i@87Hz 5:3 HorFreq: 35522 Hz Clock: 44.900 MHz
  1024x768@60Hz 4:3 HorFreq: 48400 Hz Clock: 65.000 MHz
  1024x768@70Hz 4:3 HorFreq: 56500 Hz Clock: 75.000 MHz
  1024x768@75Hz 4:3 HorFreq: 60000 Hz Clock: 78.750 MHz
  1280x1024@75Hz 5:4 HorFreq: 80000 Hz Clock: 135.000 MHz
  1152x870@75Hz 192:145 HorFreq: 67500 Hz Clock: 108.000 MHz
Standard timings supported:
  640x480@60Hz 4:3 HorFreq: 31469 Hz Clock: 25.175 MHz
  640x480@85Hz 4:3 HorFreq: 43300 Hz Clock: 36.000 MHz
  800x600@85Hz 4:3 HorFreq: 53700 Hz Clock: 56.250 MHz
  1024x768@85Hz 4:3 HorFreq: 68700 Hz Clock: 94.500 MHz
  1280x1024@75Hz 5:4 HorFreq: 80000 Hz Clock: 135.000 MHz
  1792x1344@60Hz 4:3 HorFreq: 83600 Hz Clock: 204.750 MHz
Detailed mode: Clock 135.000 MHz, 352 mm x 264 mm
               1280 1296 1440 1688 hborder 0
               1024 1025 1028 1066 vborder 0
               +hsync +vsync 
               VertFreq: 75 Hz, HorFreq: 79976 Hz
Monitor ranges (GTF): 50-160Hz V, 30-85kHz H, max dotclock 190MHz
Monitor name: SyncMaster
Serial number: --
Checksum: 0x9b (valid)
One or more of the timings is out of range of the Monitor Ranges:
  Vertical Freq: 56 - 88 Hz
  Horizontal Freq: 31469 - 83600 Hz
  Maximum Clock: 204.750 MHz
EDID block does not conform at all!
	Bad year of manufacture
