
EDID (hex):
00ffffffffffff000469a61901010101
2a1101030e2b1b782ee5e5a365499924
135054bfef808180714f9500950f0101
0101010101016829a021518422305098
00009a001100001c000000ff00374121
4d56443033313532360a000000fd0032
4b1e5215000a202020202020000000fc
004153555320565731393253ffff0041

Extracted contents:
header:          00 ff ff ff ff ff ff 00
serial number:   04 69 a6 19 01 01 01 01 2a 11
version:         01 03
basic params:    0e 2b 1b 78 2e
chroma info:     e5 e5 a3 65 49 99 24 13 50 54
established:     bf ef 80
standard:        81 80 71 4f 95 00 95 0f 01 01 01 01 01 01 01 01
descriptor 1:    68 29 a0 21 51 84 22 30 50 98 00 00 9a 00 11 00 00 1c
descriptor 2:    00 00 00 ff 00 37 41 21 4d 56 44 30 33 31 35 32 36 0a
descriptor 3:    00 00 00 fd 00 32 4b 1e 52 15 00 0a 20 20 20 20 20 20
descriptor 4:    00 00 00 fc 00 41 53 55 53 20 56 57 31 39 32 53 ff ff
extensions:      00
checksum:        41

EDID version: 1.3
Manufacturer: ACI Model 19a6 Serial Number --
Made in week 42 of 2007
Analog display, Input voltage level: 0.7/0.3 V
Sync: Separate Composite SyncOnGreen 
Maximum image size: 43 cm x 27 cm
Gamma: 2.20
DPMS levels: Off
RGB color display
Default (sRGB) color space is primary color space
First detailed timing is preferred timing
Display x,y Chromaticity:
  Red:   0.6396, 0.3964
  Green: 0.2861, 0.5986
  Blue:  0.1435, 0.0761
  White: 0.3134, 0.3291
Established timings supported:
  720x400@70Hz 9:5 HorFreq: 31469 Hz Clock: 28.320 MHz
  640x480@60Hz 4:3 HorFreq: 31469 Hz Clock: 25.175 MHz
  640x480@67Hz 4:3 HorFreq: 35000 Hz Clock: 30.240 MHz
  640x480@72Hz 4:3 HorFreq: 37900 Hz Clock: 31.500 MHz
  640x480@75Hz 4:3 HorFreq: 37500 Hz Clock: 31.500 MHz
  800x600@56Hz 4:3 HorFreq: 35200 Hz Clock: 36.000 MHz
  800x600@60Hz 4:3 HorFreq: 37900 Hz Clock: 40.000 MHz
  800x600@72Hz 4:3 HorFreq: 48100 Hz Clock: 50.000 MHz
  800x600@75Hz 4:3 HorFreq: 46900 Hz Clock: 49.500 MHz
  832x624@75Hz 4:3 HorFreq: 49726 Hz Clock: 57.284 MHz
  1024x768@60Hz 4:3 HorFreq: 48400 Hz Clock: 65.000 MHz
  1024x768@70Hz 4:3 HorFreq: 56500 Hz Clock: 75.000 MHz
  1024x768@75Hz 4:3 HorFreq: 60000 Hz Clock: 78.750 MHz
  1280x1024@75Hz 5:4 HorFreq: 80000 Hz Clock: 135.000 MHz
  1152x870@75Hz 192:145 HorFreq: 67500 Hz Clock: 108.000 MHz
Standard timings supported:
  1280x1024@60Hz 5:4 HorFreq: 64000 Hz Clock: 108.000 MHz
  1152x864@75Hz 4:3 HorFreq: 67500 Hz Clock: 108.000 MHz
  1440x900@60Hz 16:10 HorFreq: 55500 Hz Clock: 88.750 MHz
  1440x900@75Hz 16:10 HorFreq: 82300 Hz Clock: 156.000 MHz
Detailed mode: Clock 106.000 MHz, 410 mm x 256 mm
               1440 1520 1672 1729 hborder 0
                900  900  900  934 vborder 0
               -hsync +vsync 
               VertFreq: 65 Hz, HorFreq: 61307 Hz
Serial number: --
Monitor ranges (GTF): 50-75Hz V, 30-82kHz H, max dotclock 210MHz
Checksum: 0x41 (valid)
EDID block does NOT conform to EDID 1.3!
	sRGB is signaled, but the chromaticities do not match
	Name descriptor not terminated with a newline
One or more of the timings is out of range of the Monitor Ranges:
  Vertical Freq: 56 - 75 Hz
  Horizontal Freq: 31469 - 82300 Hz
  Maximum Clock: 156.000 MHz
