
EDID (hex):
00ffffffffffff00307300a7ec430100
300e0103682018782a4f29a057499b26
10484ca4420031594559615981800101
010101010101ea240060410028303060
13002ce61000001ec31e002041002030
106013002ce61000001e000000fc004c
58422d4846373639410a2020000000fd
0032821e450b000a2020202020200024

Extracted contents:
header:          00 ff ff ff ff ff ff 00
serial number:   30 73 00 a7 ec 43 01 00 30 0e
version:         01 03
basic params:    68 20 18 78 2a
chroma info:     4f 29 a0 57 49 9b 26 10 48 4c
established:     a4 42 00
standard:        31 59 45 59 61 59 81 80 01 01 01 01 01 01 01 01
descriptor 1:    ea 24 00 60 41 00 28 30 30 60 13 00 2c e6 10 00 00 1e
descriptor 2:    c3 1e 00 20 41 00 20 30 10 60 13 00 2c e6 10 00 00 1e
descriptor 3:    00 00 00 fc 00 4c 58 42 2d 48 46 37 36 39 41 0a 20 20
descriptor 4:    00 00 00 fd 00 32 82 1e 45 0b 00 0a 20 20 20 20 20 20
extensions:      00
checksum:        24

EDID version: 1.3
Manufacturer: LCS Model a700 Serial Number --
Analog display, Input voltage level: 0.7/0.7 V
Sync: Separate 
Maximum image size: 32 cm x 24 cm
Gamma: 2.20
DPMS levels: Off
RGB color display
First detailed timing is preferred timing
Display x,y Chromaticity:
  Red:   0.6259, 0.3398
  Green: 0.2880, 0.6083
  Blue:  0.1484, 0.0644
  White: 0.2832, 0.2978
Established timings supported:
  720x400@70Hz 9:5 HorFreq: 31469 Hz Clock: 28.320 MHz
  640x480@60Hz 4:3 HorFreq: 31469 Hz Clock: 25.175 MHz
  640x480@75Hz 4:3 HorFreq: 37500 Hz Clock: 31.500 MHz
  800x600@75Hz 4:3 HorFreq: 46900 Hz Clock: 49.500 MHz
  1024x768@75Hz 4:3 HorFreq: 60000 Hz Clock: 78.750 MHz
Standard timings supported:
  640x480@85Hz 4:3 HorFreq: 43300 Hz Clock: 36.000 MHz
  800x600@85Hz 4:3 HorFreq: 53700 Hz Clock: 56.250 MHz
  1024x768@85Hz 4:3 HorFreq: 68700 Hz Clock: 94.500 MHz
  1280x1024@60Hz 5:4 HorFreq: 64000 Hz Clock: 108.000 MHz
Detailed mode: Clock 94.500 MHz, 300 mm x 230 mm
               1024 1072 1168 1376 hborder 0
                768  769  772  808 vborder 0
               +hsync +vsync 
               VertFreq: 84 Hz, HorFreq: 68677 Hz
Detailed mode: Clock 78.750 MHz, 300 mm x 230 mm
               1024 1040 1136 1312 hborder 0
                768  769  772  800 vborder 0
               +hsync +vsync 
               VertFreq: 75 Hz, HorFreq: 60022 Hz
Monitor name: LXB-HF769A
Monitor ranges (GTF): 50-130Hz V, 30-69kHz H, max dotclock 110MHz
Checksum: 0x24 (valid)
EDID block does not conform at all!
	Bad year of manufacture
