edid-decode (hex):

00 ff ff ff ff ff ff 00 09 e5 32 0d 6e 00 00 00
1b 22 01 04 b5 1f 14 78 03 8e ab ad 52 44 af 26
0f 50 54 00 00 00 01 01 01 01 01 01 01 01 01 01
01 01 01 01 01 01 e8 9b 00 c8 c0 80 71 70 30 20
36 00 38 c3 10 00 00 1a 00 00 00 fd 00 1e 78 f4
f4 50 01 0a 20 20 20 20 20 20 00 00 00 fe 00 42
4f 45 20 43 51 0a 20 20 20 20 20 20 00 00 00 fc
00 4e 53 31 34 35 46 38 4d 2d 4e 36 32 0a 01 c3

70 20 79 02 00 22 00 14 1c 2e 0c 05 ff 0b c7 00
2f 00 1f 00 7f 07 70 00 02 00 05 00 25 01 09 1d
2e 0c 1d 2e 0c 1e 78 80 81 00 15 74 1a 00 00 03
01 1e 78 00 00 6a 48 6a 48 78 00 00 00 00 00 00
00 00 00 00 00 00 00 00 00 00 00 00 00 00 00 00
00 00 00 00 00 00 00 00 00 00 00 00 00 00 00 00
00 00 00 00 00 00 00 00 00 00 00 00 00 00 00 00
00 00 00 00 00 00 00 00 00 00 00 00 00 00 2b 90

00 ff ff ff ff ff ff 00 09 e5 32 0d 6e 00 00 00
1b 22 01 04 b5 1f 14 78 03 8e ab ad 52 44 af 26
0f 50 54 00 00 00 01 01 01 01 01 01 01 01 01 01
01 01 01 01 01 01 e8 9b 00 c8 c0 80 71 70 30 20
36 00 38 c3 10 00 00 1a 00 00 00 fd 00 1e 78 f4
f4 50 01 0a 20 20 20 20 20 20 00 00 00 fe 00 42
4f 45 20 43 51 0a 20 20 20 20 20 20 00 00 00 fc
00 4e 53 31 34 35 46 38 4d 2d 4e 36 32 0a 01 c3

70 20 79 02 00 22 00 14 1c 2e 0c 05 ff 0b c7 00
2f 00 1f 00 7f 07 70 00 02 00 05 00 25 01 09 1d
2e 0c 1d 2e 0c 1e 78 80 81 00 15 74 1a 00 00 03
01 1e 78 00 00 6a 48 6a 48 78 00 00 00 00 00 00
00 00 00 00 00 00 00 00 00 00 00 00 00 00 00 00
00 00 00 00 00 00 00 00 00 00 00 00 00 00 00 00
00 00 00 00 00 00 00 00 00 00 00 00 00 00 00 00
00 00 00 00 00 00 00 00 00 00 00 00 00 00 2b 90

----------------

Block 0, Base EDID:
  EDID Structure Version & Revision: 1.4
  Vendor & Product Identification:
    Manufacturer: BOE
    Model: 3378
    Serial Number: ...
    Made in: week 27 of 2024
  Basic Display Parameters & Features:
    Digital display
    Bits per primary color channel: 10
    DisplayPort interface
    Maximum image size: 31 cm x 20 cm
    Gamma: 2.20
    Supported color formats: RGB 4:4:4
    First detailed timing includes the native pixel format and preferred refresh rate
    Display is continuous frequency
  Color Characteristics:
    Red  : 0.6777, 0.3203
    Green: 0.2685, 0.6855
    Blue : 0.1503, 0.0605
    White: 0.3144, 0.3310
  Established Timings I & II: none
  Standard Timings: none
  Detailed Timing Descriptors:
    DTD 1:  3072x1920   60.000216 Hz  16:10   121.980 kHz    399.120000 MHz (312 mm x 195 mm)
                 Hfront   48 Hsync  32 Hback  120 Hpol P
                 Vfront    3 Vsync   6 Vback  104 Vpol N
    Display Range Limits:
      Monitor ranges (Bare Limits): 30-120 Hz V, 244-244 kHz H, max dotclock 800 MHz
    Alphanumeric Data String: 'BOE CQ'
    Display Product Name: 'NS145F8M-N62'
  Extension blocks: 1
Checksum: 0xc3

----------------

Block 1, DisplayID Extension Block:
  Version: 2.0
  Extension Count: 0
  Display Product Primary Use Case: None of the listed primary use cases; generic display
  Video Timing Modes Type 7 - Detailed Timings Data Block:
    DTD:  3072x1920  119.999982 Hz  16:10   243.960 kHz    798.237000 MHz (aspect 16:10, no 3D stereo)
               Hfront   48 Hsync  32 Hback  120 Hpol N
               Vfront    3 Vsync   6 Vback  104 Vpol N
  Dynamic Video Timing Range Limits Data Block:
    Minimum Pixel Clock: 798238 kHz
    Maximum Pixel Clock: 798238 kHz
    Minimum Vertical Refresh Rate: 30 Hz
    Maximum Vertical Refresh Rate: 120 Hz
    Seamless Dynamic Video Timing Support: Yes
  CTA-861 DisplayID Data Block:
  Vendor-Specific Data Block (AMD), OUI 00-00-1A:
    Version: 3.1
    Minimum Refresh Rate: 30 Hz
    Maximum Refresh Rate: 120 Hz
    Flags 1.x: 0x00
    Flags 2.x: 0x00
    Maximum luminance: 106 (496.743 cd/m^2)
    Minimum luminance: 72 (0.396 cd/m^2)
    Unknown: 0x6a 0x48
  Checksum: 0x2b
Checksum: 0x90

----------------

Block 2, Unknown EDID Extension Block 0x00:
  00 ff ff ff ff ff ff 00 09 e5 32 0d 6e 00 00 00 '..........2.n...'
  1b 22 01 04 b5 1f 14 78 03 8e ab ad 52 44 af 26 '.".....x....RD.&'
  0f 50 54 00 00 00 01 01 01 01 01 01 01 01 01 01 '.PT.............'
  01 01 01 01 01 01 e8 9b 00 c8 c0 80 71 70 30 20 '............qp0 '
  36 00 38 c3 10 00 00 1a 00 00 00 fd 00 1e 78 f4 '6.8...........x.'
  f4 50 01 0a 20 20 20 20 20 20 00 00 00 fe 00 42 '.P..      .....B'
  4f 45 20 43 51 0a 20 20 20 20 20 20 00 00 00 fc 'OE CQ.      ....'
  00 4e 53 31 34 35 46 38 4d 2d 4e 36 32 0a 01 c3 '.NS145F8M-N62...'
Checksum: 0xc3

----------------

Block 3, DisplayID Extension Block:
  Version: 2.0
  Extension Count: 0
  Video Timing Modes Type 7 - Detailed Timings Data Block:
    DTD:  3072x1920  119.999982 Hz  16:10   243.960 kHz    798.237000 MHz (aspect 16:10, no 3D stereo)
               Hfront   48 Hsync  32 Hback  120 Hpol N
               Vfront    3 Vsync   6 Vback  104 Vpol N
  Dynamic Video Timing Range Limits Data Block:
    Minimum Pixel Clock: 798238 kHz
    Maximum Pixel Clock: 798238 kHz
    Minimum Vertical Refresh Rate: 30 Hz
    Maximum Vertical Refresh Rate: 120 Hz
    Seamless Dynamic Video Timing Support: Yes
  CTA-861 DisplayID Data Block:
  Vendor-Specific Data Block (AMD), OUI 00-00-1A:
    Version: 3.1
    Minimum Refresh Rate: 30 Hz
    Maximum Refresh Rate: 120 Hz
    Flags 1.x: 0x00
    Flags 2.x: 0x00
    Maximum luminance: 106 (496.743 cd/m^2)
    Minimum luminance: 72 (0.396 cd/m^2)
    Unknown: 0x6a 0x48
  Checksum: 0x2b
Checksum: 0x90

----------------

Warnings:

EDID:
  Base EDID: Some timings are out of range of the Monitor Ranges:
    Horizontal Freq: 121.980 - 243.959 kHz (Monitor: 244.000 - 244.000 kHz)

Failures:

Block 1, DisplayID Extension Block:
  Expected 0 DisplayID Extension Block, but got 1.
Block 2, Base EDID:
  Unknown Extension Block.
Block 3, DisplayID Extension Block:
  Product Type should be 0 in extension block.
EDID:
  Base EDID: EDID specified 1 extension block(s), but found 3 extension block(s).
  DisplayID: Missing DisplayID Product Identification Data Block.
  DisplayID: Missing DisplayID Display Parameters Data Block.
  DisplayID: Missing DisplayID Display Interface Features Data Block.
  DisplayID: DisplayID expects at least one preferred timing.

EDID conformity: FAIL
