
EDID (hex):
00ffffffffffff0030e4e20200000000
00140103801f11780a43459759578e28
21505400000001010101010101010101
0101010101018025408060841a303020
350036ae100000190000000000000000
00000000000000000000000000fe004c
4720446973706c61790a2020000000fe
004c503134305744322d544c42310038

Extracted contents:
header:          00 ff ff ff ff ff ff 00
serial number:   30 e4 e2 02 00 00 00 00 00 14
version:         01 03
basic params:    80 1f 11 78 0a
chroma info:     43 45 97 59 57 8e 28 21 50 54
established:     00 00 00
standard:        01 01 01 01 01 01 01 01 01 01 01 01 01 01 01 01
descriptor 1:    80 25 40 80 60 84 1a 30 30 20 35 00 36 ae 10 00 00 19
descriptor 2:    00 00 00 00 00 00 00 00 00 00 00 00 00 00 00 00 00 00
descriptor 3:    00 00 00 fe 00 4c 47 20 44 69 73 70 6c 61 79 0a 20 20
descriptor 4:    00 00 00 fe 00 4c 50 31 34 30 57 44 32 2d 54 4c 42 31
extensions:      00
checksum:        38

EDID version: 1.3
Manufacturer: LGD Model 2e2 Serial Number --
Made in year 2010
Digital display
Maximum image size: 31 cm x 17 cm
Gamma: 2.20
RGB color display
First detailed timing is preferred timing
Display x,y Chromaticity:
  Red:   0.5908, 0.3476
  Green: 0.3398, 0.5576
  Blue:  0.1572, 0.1289
  White: 0.3134, 0.3291
Established timings supported:
Standard timings supported:
Detailed mode: Clock 96.000 MHz, 310 mm x 174 mm
               1600 1648 1680 1728 hborder 0
                900  903  908  926 vborder 0
               -hsync -vsync 
               VertFreq: 59 Hz, HorFreq: 55555 Hz
Manufacturer-specified data, tag 0
ASCII string: LG Display
ASCII string: LP140WD2-TLB1
Checksum: 0x38 (valid)
EDID block does NOT conform to EDID 1.3!
	Missing name descriptor
	Missing monitor ranges
