
EDID (hex):
00ffffffffffff00366963d000000000
10170104a5301b780a84d5a25a52a226
0d505400000001c101c101c101c101c1
01c101c101c11a3680a070381f403020
3500dc0c110000180000001000061030
11010000000000000a20000000fe0041
494f2050430a202020202020000000fc
0041494f2050430a2020202020200021

Extracted contents:
header:          00 ff ff ff ff ff ff 00
serial number:   36 69 63 d0 00 00 00 00 10 17
version:         01 04
basic params:    a5 30 1b 78 0a
chroma info:     84 d5 a2 5a 52 a2 26 0d 50 54
established:     00 00 00
standard:        01 c1 01 c1 01 c1 01 c1 01 c1 01 c1 01 c1 01 c1
descriptor 1:    1a 36 80 a0 70 38 1f 40 30 20 35 00 dc 0c 11 00 00 18
descriptor 2:    00 00 00 10 00 06 10 30 11 01 00 00 00 00 00 00 0a 20
descriptor 3:    00 00 00 fe 00 41 49 4f 20 50 43 0a 20 20 20 20 20 20
descriptor 4:    00 00 00 fc 00 41 49 4f 20 50 43 0a 20 20 20 20 20 20
extensions:      00
checksum:        21

EDID version: 1.4
Manufacturer: MSI Model d063 Serial Number --
Made in week 16 of 2013
Digital display
8 bits per primary color channel
DisplayPort interface
Maximum image size: 48 cm x 27 cm
Gamma: 2.20
Supported color formats: RGB 4:4:4, YCrCb 4:4:4
First detailed timing includes the native pixel format and preferred refresh rate
Display x,y Chromaticity:
  Red:   0.6347, 0.3515
  Green: 0.3212, 0.6328
  Blue:  0.1513, 0.0517
  White: 0.3134, 0.3291
Established timings supported:
Standard timings supported:
  256x144@61Hz 16:9
  256x144@61Hz 16:9
  256x144@61Hz 16:9
  256x144@61Hz 16:9
  256x144@61Hz 16:9
  256x144@61Hz 16:9
  256x144@61Hz 16:9
  256x144@61Hz 16:9
Detailed mode: Clock 138.500 MHz, 476 mm x 268 mm
               1920 1968 2000 2080 hborder 0
               1080 1083 1088 1111 vborder 0
               -hsync -vsync 
               VertFreq: 59 Hz, HorFreq: 66586 Hz
Dummy block
ASCII string: AIO PC
Monitor name: AIO PC
Checksum: 0x21 (valid)
	Missing monitor ranges
EDID block does not conform at all!
	Dummy block filled with garbage
