
EDID (hex):
00ffffffffffff0022f0063300000000
0d1c0104a5351e7822a195a755529f27
145054210800d1c081c0a9c09500b300
810081800101023a801871382d40582c
45000f282100001e000000fd00323c18
5011000a202020202020000000fc0048
50205032343076610a202020000000ff
00434e4b383133303339470a20200073

Extracted contents:
header:          00 ff ff ff ff ff ff 00
serial number:   22 f0 06 33 00 00 00 00 0d 1c
version:         01 04
basic params:    a5 35 1e 78 22
chroma info:     a1 95 a7 55 52 9f 27 14 50 54
established:     21 08 00
standard:        d1 c0 81 c0 a9 c0 95 00 b3 00 81 00 81 80 01 01
descriptor 1:    02 3a 80 18 71 38 2d 40 58 2c 45 00 0f 28 21 00 00 1e
descriptor 2:    00 00 00 fd 00 32 3c 18 50 11 00 0a 20 20 20 20 20 20
descriptor 3:    00 00 00 fc 00 48 50 20 50 32 34 30 76 61 0a 20 20 20
descriptor 4:    00 00 00 ff 00 43 4e 4b 38 31 33 30 33 39 47 0a 20 20
extensions:      00
checksum:        73

EDID version: 1.4
Manufacturer: HWP Model 3306 Serial Number --
Made in week 13 of 2018
Digital display
8 bits per primary color channel
DisplayPort interface
Maximum image size: 53 cm x 30 cm
Gamma: 2.20
DPMS levels: Off
Supported color formats: RGB 4:4:4
First detailed timing includes the native pixel format and preferred refresh rate
Display x,y Chromaticity:
  Red:   0.6542, 0.3339
  Green: 0.3203, 0.6220
  Blue:  0.1542, 0.0791
  White: 0.3134, 0.3291
Established timings supported:
  640x480@60Hz 4:3 HorFreq: 31469 Hz Clock: 25.175 MHz
  800x600@60Hz 4:3 HorFreq: 37900 Hz Clock: 40.000 MHz
  1024x768@60Hz 4:3 HorFreq: 48400 Hz Clock: 65.000 MHz
Standard timings supported:
  1920x1080@60Hz 16:9
  1280x720@60Hz 16:9
  1600x900@60Hz 16:9
  1440x900@60Hz 16:10 HorFreq: 55500 Hz Clock: 88.750 MHz
  1680x1050@60Hz 16:10 HorFreq: 64700 Hz Clock: 119.000 MHz
  1280x800@60Hz 16:10
  1280x1024@60Hz 5:4 HorFreq: 64000 Hz Clock: 108.000 MHz
Detailed mode: Clock 148.500 MHz, 527 mm x 296 mm
               1920 2008 2052 2200 hborder 0
               1080 1084 1089 1125 vborder 0
               +hsync +vsync 
               VertFreq: 60 Hz, HorFreq: 67500 Hz
Monitor ranges (GTF): 50-60Hz V, 24-80kHz H, max dotclock 170MHz
Monitor name: HP P240va
Serial number: --
Checksum: 0x73 (valid)
