
EDID (hex):
00ffffffffffff00061044a000000000
241d0104b5221678020fa1ae5243b026
0d505400000001010101010101010101
010101010101e7910050c08037700820
980859d71000001a000000fc00436f6c
6f72204c43440a202020000000100000
00000000000000000000000000000010
0000000000000000000000000000018b
70127903007f813ffa10000301180f28
17000000000000000000000000000000
4c503136305754312d534a42320a2000
46305931303336303032533037335841
570a20202020207f8129fa1000020100
11000002900336041d0558070609520c
7710c916c01f032a7f3a8450ef706b9c
c4db6e00000000000000000000002090

edid-decode (hex):

00 ff ff ff ff ff ff 00 06 10 44 a0 00 00 00 00
24 1d 01 04 b5 22 16 78 02 0f a1 ae 52 43 b0 26
0d 50 54 00 00 00 01 01 01 01 01 01 01 01 01 01
01 01 01 01 01 01 e7 91 00 50 c0 80 37 70 08 20
98 08 59 d7 10 00 00 1a 00 00 00 fc 00 43 6f 6c
6f 72 20 4c 43 44 0a 20 20 20 00 00 00 10 00 00
00 00 00 00 00 00 00 00 00 00 00 00 00 00 00 10
00 00 00 00 00 00 00 00 00 00 00 00 00 00 01 8b

70 12 79 03 00 7f 81 3f fa 10 00 03 01 18 0f 28
17 00 00 00 00 00 00 00 00 00 00 00 00 00 00 00
4c 50 31 36 30 57 54 31 2d 53 4a 42 32 0a 20 00
46 30 59 31 30 33 36 30 30 32 53 30 37 33 58 41
57 0a 20 20 20 20 20 7f 81 29 fa 10 00 02 01 00
11 00 00 02 90 03 36 04 1d 05 58 07 06 09 52 0c
77 10 c9 16 c0 1f 03 2a 7f 3a 84 50 ef 70 6b 9c
c4 db 6e 00 00 00 00 00 00 00 00 00 00 00 20 90

----------------

Block 0, Base EDID:
  EDID Structure Version & Revision: 1.4
  Vendor & Product Identification:
    Manufacturer: APP
    Model: 41028
    Made in: week 36 of 2019
  Basic Display Parameters & Features:
    Digital display
    Bits per primary color channel: 10
    DisplayPort interface
    Maximum image size: 34 cm x 22 cm
    Gamma: 2.20
    Supported color formats: RGB 4:4:4
    First detailed timing includes the native pixel format and preferred refresh rate
  Color Characteristics:
    Red  : 0.6796, 0.3203
    Green: 0.2646, 0.6904
    Blue : 0.1503, 0.0527
    White: 0.3125, 0.3291
  Established Timings I & II: none
  Standard Timings: none
  Detailed Timing Descriptors:
    DTD 1:  3072x1920   59.999679 Hz  16:10   118.499 kHz    373.510000 MHz (345 mm x 215 mm)
                 Hfront    8 Hsync  32 Hback   40 Hpol P
                 Vfront   41 Vsync   8 Vback    6 Vpol N
    Display Product Name: 'Color LCD'
    Dummy Descriptor:
    Dummy Descriptor:
  Extension blocks: 1
Checksum: 0x8b

----------------

Block 1, DisplayID Extension Block:
  Version: 1.2
  Extension Count: 0
  Display Product Type: Standalone display device
  Vendor-Specific Data Block (0x7f) (Apple), OUI 00-10-FA:
    Type: 3, Version: 1
    18 0f 28 17 00 00 00 00 00 00 00 00 00 00 00 00 '..(.............'
    00 00 00 4c 50 31 36 30 57 54 31 2d 53 4a 42 32 '...LP160WT1-SJB2'
    0a 20 00 46 30 59 31 30 33 36 30 30 32 53 30 37 '. .F0Y1036002S07'
    33 58 41 57 0a 20 20 20 20 20                   '3XAW.     '
  Vendor-Specific Data Block (0x7f) (Apple), OUI 00-10-FA:
    Type: 2, Version: 1
    00 11 00 00 02 90 03 36 04 1d 05 58 07 06 09 52 '.......6...X...R'
    0c 77 10 c9 16 c0 1f 03 2a 7f 3a 84 50 ef 70 6b '.w......*.:.P.pk'
    9c c4 db 6e                                     '...n'
  Checksum: 0x20
Checksum: 0x90
