edid-decode (hex):

00 ff ff ff ff ff ff 00 06 10 44 a0 00 00 00 00
24 1d 01 04 b5 22 16 78 02 0f a1 ae 52 43 b0 26
0d 50 54 00 00 00 01 01 01 01 01 01 01 01 01 01
01 01 01 01 01 01 e7 91 00 50 c0 80 37 70 08 20
98 08 59 d7 10 00 00 1a 00 00 00 fc 00 43 6f 6c
6f 72 20 4c 43 44 0a 20 20 20 00 00 00 10 00 00
00 00 00 00 00 00 00 00 00 00 00 00 00 00 00 10
00 00 00 00 00 00 00 00 00 00 00 00 00 00 01 8b

70 12 79 03 00 7f 81 3f fa 10 00 03 01 18 0f 28
17 00 00 00 00 00 00 00 00 00 00 00 00 00 00 00
4c 50 31 36 30 57 54 31 2d 53 4a 41 31 0a 20 00
44 43 4e 39 34 33 36 30 31 57 54 4c 50 30 4b 38
44 0a 20 20 20 20 20 7f 81 29 fa 10 00 02 01 00
11 00 00 02 90 03 4b 04 4f 05 b2 07 99 0a 36 0d
cd 12 c0 19 98 23 16 30 49 42 ae 5c 62 80 63 b2
ef fa 0b 00 00 00 00 00 00 00 00 00 00 00 ff 90

----------------

Block 0, Base EDID:
  EDID Structure Version & Revision: 1.4
  Vendor & Product Identification:
    Manufacturer: APP
    Model: 41028
    Made in: week 36 of 2019
  Basic Display Parameters & Features:
    Digital display
    Bits per primary color channel: 10
    DisplayPort interface
    Maximum image size: 34 cm x 22 cm
    Gamma: 2.20
    Supported color formats: RGB 4:4:4
    First detailed timing includes the native pixel format and preferred refresh rate
  Color Characteristics:
    Red  : 0.6796, 0.3203
    Green: 0.2646, 0.6904
    Blue : 0.1503, 0.0527
    White: 0.3125, 0.3291
  Established Timings I & II: none
  Standard Timings: none
  Detailed Timing Descriptors:
    DTD 1:  3072x1920   60.000 Hz   8:5   118.499 kHz 373.510 MHz (345 mm x 215 mm)
                 Hfront    8 Hsync  32 Hback  40 Hpol P
                 Vfront   41 Vsync   8 Vback   6 Vpol N
    Display Product Name: 'Color LCD'
    Dummy Descriptor:
    Dummy Descriptor:
  Extension blocks: 1
Checksum: 0x8b

----------------

Block 1, DisplayID Extension Block:
  Version: 1.2
  Extension Count: 0
  Display Product Type: Standalone display device
  Vendor-Specific Data Block (Apple):
    fa 10 00 03 01 18 0f 28 17 00 00 00 00 00 00 00 '.......(........'
    00 00 00 00 00 00 00 00 4c 50 31 36 30 57 54 31 '........LP160WT1'
    2d 53 4a 41 31 0a 20 00 44 43 4e 39 34 33 36 30 '-SJA1. .DCN94360'
    31 57 54 4c 50 30 4b 38 44 0a 20 20 20 20 20    '1WTLP0K8D.     '
  Vendor-Specific Data Block (Apple):
    fa 10 00 02 01 00 11 00 00 02 90 03 4b 04 4f 05 '............K.O.'
    b2 07 99 0a 36 0d cd 12 c0 19 98 23 16 30 49 42 '....6......#.0IB'
    ae 5c 62 80 63 b2 ef fa 0b                      '.\b.c....'
  Checksum: 0xff
Checksum: 0x90

----------------

Failures:

Block 1, DisplayID Extension Block:
  Vendor-Specific Data Block (Apple): OUI FA-10-00 is in the wrong byte order.
  Vendor-Specific Data Block (Apple): OUI FA-10-00 is in the wrong byte order.
EDID:
  DisplayID: Missing DisplayID Product Identification Data Block.
  DisplayID: Missing DisplayID Display Parameters Data Block.
  DisplayID: Missing DisplayID Display Interface Features Data Block.
  DisplayID: Missing DisplayID Type I Detailed Timing Data Block.
  DisplayID: DisplayID expects at least one preferred timing.

EDID conformity: FAIL
