
EDID (hex):
00ffffffffffff0030e4949c00000000
07180103802b1b780aaff4a755509a26
0f505400000001010101010101010101
01010101010140388000713814406040
8400d62c1100001e0000000000000000
00000000000000000000000000000000
00000000000000000000000000000000
0000000000000000000000000000009b

Extracted contents:
header:          00 ff ff ff ff ff ff 00
serial number:   30 e4 94 9c 00 00 00 00 07 18
version:         01 03
basic params:    80 2b 1b 78 0a
chroma info:     af f4 a7 55 50 9a 26 0f 50 54
established:     00 00 00
standard:        01 01 01 01 01 01 01 01 01 01 01 01 01 01 01 01
descriptor 1:    40 38 80 00 71 38 14 40 60 40 84 00 d6 2c 11 00 00 1e
descriptor 2:    00 00 00 00 00 00 00 00 00 00 00 00 00 00 00 00 00 00
descriptor 3:    00 00 00 00 00 00 00 00 00 00 00 00 00 00 00 00 00 00
descriptor 4:    00 00 00 00 00 00 00 00 00 00 00 00 00 00 00 00 00 00
extensions:      00
checksum:        9b

EDID version: 1.3
Manufacturer: LGD Model 9c94 Serial Number --
Made in week 7 of 2014
Digital display
Maximum image size: 43 cm x 27 cm
Gamma: 2.20
RGB color display
First detailed timing is preferred timing
Display x,y Chromaticity:
  Red:   0.6542, 0.3339
  Green: 0.3154, 0.6044
  Blue:  0.1513, 0.0615
  White: 0.3134, 0.3281
Established timings supported:
Standard timings supported:
Detailed mode: Clock 144.000 MHz, 470 mm x 300 mm
               1920 2016 2080 2176 hborder 0
               1080 1088 1092 1100 vborder 0
               +hsync +vsync 
               VertFreq: 60 Hz, HorFreq: 66176 Hz
Manufacturer-specified data, tag 0
Manufacturer-specified data, tag 0
Manufacturer-specified data, tag 0
Checksum: 0x9b (valid)
EDID block does NOT conform to EDID 1.3!
	Missing name descriptor
	Missing monitor ranges
