
EDID (hex):
00ffffffffffff002e83931901000000
2211010380291a78eaf0659857519127
215054a1080095008180814001010101
0101010101019a29a0d0518422305098
36009a001100001c000000fd00383f1f
410b000a202020202020000000fc0048
2d5739303036532d440a2020000000fe
000a202020202020202020202020001b

Extracted contents:
header:          00 ff ff ff ff ff ff 00
serial number:   2e 83 93 19 01 00 00 00 22 11
version:         01 03
basic params:    80 29 1a 78 ea
chroma info:     f0 65 98 57 51 91 27 21 50 54
established:     a1 08 00
standard:        95 00 81 80 81 40 01 01 01 01 01 01 01 01 01 01
descriptor 1:    9a 29 a0 d0 51 84 22 30 50 98 36 00 9a 00 11 00 00 1c
descriptor 2:    00 00 00 fd 00 38 3f 1f 41 0b 00 0a 20 20 20 20 20 20
descriptor 3:    00 00 00 fc 00 48 2d 57 39 30 30 36 53 2d 44 0a 20 20
descriptor 4:    00 00 00 fe 00 0a 20 20 20 20 20 20 20 20 20 20 20 20
extensions:      00
checksum:        1b

EDID version: 1.3
Manufacturer: KTC Model 1993 Serial Number --
Made in week 34 of 2007
Digital display
Maximum image size: 41 cm x 26 cm
Gamma: 2.20
DPMS levels: Standby Suspend Off
RGB color display
First detailed timing is preferred timing
Display x,y Chromaticity:
  Red:   0.5966, 0.3427
  Green: 0.3164, 0.5664
  Blue:  0.1533, 0.1308
  White: 0.3134, 0.3291
Established timings supported:
  720x400@70Hz 9:5 HorFreq: 31469 Hz Clock: 28.320 MHz
  640x480@60Hz 4:3 HorFreq: 31469 Hz Clock: 25.175 MHz
  800x600@60Hz 4:3 HorFreq: 37900 Hz Clock: 40.000 MHz
  1024x768@60Hz 4:3 HorFreq: 48400 Hz Clock: 65.000 MHz
Standard timings supported:
  1440x900@60Hz 16:10 HorFreq: 55500 Hz Clock: 88.750 MHz
  1280x1024@60Hz 5:4 HorFreq: 64000 Hz Clock: 108.000 MHz
  1280x960@60Hz 4:3 HorFreq: 60000 Hz Clock: 108.000 MHz
Detailed mode: Clock 106.500 MHz, 410 mm x 256 mm
               1440 1520 1672 1904 hborder 0
                900  903  909  934 vborder 0
               -hsync +vsync 
               VertFreq: 59 Hz, HorFreq: 55934 Hz
Monitor ranges (GTF): 56-63Hz V, 31-65kHz H, max dotclock 110MHz
Monitor name: H-W9006S-D
ASCII string: 
Checksum: 0x1b (valid)
One or more of the timings is out of range of the Monitor Ranges:
  Vertical Freq: 59 - 70 Hz
  Horizontal Freq: 31469 - 64000 Hz
  Maximum Clock: 108.000 MHz


