edid-decode (hex):

00 ff ff ff ff ff ff 00 2e 83 93 19 05 00 00 00
14 11 01 03 80 29 1a 78 ea f0 65 98 57 51 91 27
21 50 54 a1 08 00 95 00 81 80 81 40 01 01 01 01
01 01 01 01 01 01 9a 29 a0 d0 51 84 22 30 50 98
36 00 9a 00 11 00 00 1c 00 00 00 fd 00 38 3f 1f
41 0b 00 0a 20 20 20 20 20 20 00 00 00 fc 00 67
2d 57 39 30 30 36 53 2d 44 0a 20 20 00 00 00 fe
00 0a 20 20 20 20 20 20 20 20 20 20 20 20 00 06

00 ff ff ff ff ff ff 00 2e 83 93 19 05 00 00 00
14 11 01 03 80 29 1a 78 ea f0 65 98 57 51 91 27
21 50 54 a1 08 00 95 00 81 80 81 40 01 01 01 01
01 01 01 01 01 01 9a 29 a0 d0 51 84 22 30 50 98
36 00 9a 00 11 00 00 1c 00 00 00 fd 00 38 3f 1f
41 0b 00 0a 20 20 20 20 20 20 00 00 00 fc 00 67
2d 57 39 30 30 36 53 2d 44 0a 20 20 00 00 00 fe
00 0a 20 20 20 20 20 20 20 20 20 20 20 20 00 06

----------------

Block 0, Base EDID:
  EDID Structure Version & Revision: 1.3
  Vendor & Product Identification:
    Manufacturer: KTC
    Model: 6547
    Serial Number: ...
    Made in: week 20 of 2007
  Basic Display Parameters & Features:
    Digital display
    Maximum image size: 41 cm x 26 cm
    Gamma: 2.20
    DPMS levels: Standby Suspend Off
    RGB color display
    First detailed timing is the preferred timing
  Color Characteristics:
    Red  : 0.5966, 0.3427
    Green: 0.3164, 0.5664
    Blue : 0.1533, 0.1308
    White: 0.3134, 0.3291
  Established Timings I & II:
    IBM     :   720x400    70.081663 Hz   9:5     31.467 kHz     28.320000 MHz
    DMT 0x04:   640x480    59.940476 Hz   4:3     31.469 kHz     25.175000 MHz
    DMT 0x09:   800x600    60.316541 Hz   4:3     37.879 kHz     40.000000 MHz
    DMT 0x10:  1024x768    60.003840 Hz   4:3     48.363 kHz     65.000000 MHz
  Standard Timings:
    DMT 0x2f:  1440x900    59.887445 Hz  16:10    55.935 kHz    106.500000 MHz
    DMT 0x23:  1280x1024   60.019740 Hz   5:4     63.981 kHz    108.000000 MHz
    DMT 0x20:  1280x960    60.000000 Hz   4:3     60.000 kHz    108.000000 MHz
  Detailed Timing Descriptors:
    DTD 1:  1440x900    59.887445 Hz  16:10    55.935 kHz    106.500000 MHz (410 mm x 256 mm)
                 Hfront   80 Hsync 152 Hback  232 Hpol N
                 Vfront    3 Vsync   6 Vback   25 Vpol P
    Display Range Limits:
      Monitor ranges (GTF): 56-63 Hz V, 31-65 kHz H, max dotclock 110 MHz
    Display Product Name: 'g-W9006S-D'
    Alphanumeric Data String: ''
Checksum: 0x06

----------------

Block 1, Unknown EDID Extension Block 0x00:
  00 ff ff ff ff ff ff 00 2e 83 93 19 05 00 00 00 '................'
  14 11 01 03 80 29 1a 78 ea f0 65 98 57 51 91 27 '.....).x..e.WQ.''
  21 50 54 a1 08 00 95 00 81 80 81 40 01 01 01 01 '!PT........@....'
  01 01 01 01 01 01 9a 29 a0 d0 51 84 22 30 50 98 '.......)..Q."0P.'
  36 00 9a 00 11 00 00 1c 00 00 00 fd 00 38 3f 1f '6............8?.'
  41 0b 00 0a 20 20 20 20 20 20 00 00 00 fc 00 67 'A...      .....g'
  2d 57 39 30 30 36 53 2d 44 0a 20 20 00 00 00 fe '-W9006S-D.  ....'
  00 0a 20 20 20 20 20 20 20 20 20 20 20 20 00 06 '..            ..'
Checksum: 0x06

----------------

Failures:

Block 0, Base EDID:
  Alphanumeric Data String: Empty string.
Block 1, Base EDID:
  Unknown Extension Block.
EDID:
  Base EDID: Some timings are out of range of the Monitor Ranges:
    Vertical Freq: 59.887 - 70.082 Hz (Monitor: 56.000 - 63.000 Hz)
  Base EDID: EDID specified 0 extension block(s), but found 1 extension block(s).

EDID conformity: FAIL
