
EDID (hex):
00ffffffffffff0009e5880a00000000
011f0104a5221378030f95ae5243b026
0f505400000001010101010101010101
010101010101476700a0a0a0b4503020
360058c21000001a000000fd0c3cf086
866a010a202020202020000000fe0034
48364a54804e45313551484d00000000
0002413fa8000300000f410a20200145
70137900000301141a9d0184ff099f00
2f001f009f05b3000200050000000000
00000000000000000000000000000000
00000000000000000000000000000000
00000000000000000000000000000000
00000000000000000000000000000000
00000000000000000000000000000000
0000000000000000000000000000cd90

Extracted contents:
header:          00 ff ff ff ff ff ff 00
serial number:   09 e5 88 0a 00 00 00 00 01 1f
version:         01 04
basic params:    a5 22 13 78 03
chroma info:     0f 95 ae 52 43 b0 26 0f 50 54
established:     00 00 00
standard:        01 01 01 01 01 01 01 01 01 01 01 01 01 01 01 01
descriptor 1:    47 67 00 a0 a0 a0 b4 50 30 20 36 00 58 c2 10 00 00 1a
descriptor 2:    00 00 00 fd 0c 3c f0 86 86 6a 01 0a 20 20 20 20 20 20
descriptor 3:    00 00 00 fe 00 34 48 36 4a 54 80 4e 45 31 35 51 48 4d
descriptor 4:    00 00 00 00 00 02 41 3f a8 00 03 00 00 0f 41 0a 20 20
extensions:      01
checksum:        45

EDID version: 1.4
Manufacturer: BOE Model a88 Serial Number --
Made in week 1 of 2021
Digital display
8 bits per primary color channel
DisplayPort interface
Maximum image size: 34 cm x 19 cm
Gamma: 2.20
Supported color formats: RGB 4:4:4
First detailed timing includes the native pixel format and preferred refresh rate
Display is continuous frequency
Display x,y Chromaticity:
  Red:   0.6796, 0.3203
  Green: 0.2646, 0.6904
  Blue:  0.1503, 0.0595
  White: 0.3134, 0.3291
Established timings supported:
Standard timings supported:
Detailed mode: Clock 264.390 MHz, 344 mm x 194 mm
               2560 2608 2640 2720 hborder 0
               1440 1443 1449 1620 vborder 0
               +hsync -vsync 
               VertFreq: 60 Hz, HorFreq: 97202 Hz
Monitor ranges (bare limits): 60-240Hz V, 134-389kHz H, max dotclock 1060MHz
ASCII string: 4H6JT
Manufacturer-specified data, tag 0
Has 1 extension blocks
Checksum: 0x45 (valid)

DisplayID extension block
Extension version: 19
Length 121, version 19, extension count 0
Checksum: 0xcd (valid)
Type 1 detailed timing: aspect: 16:9, Preferred  
Detailed mode: Clock 1057.540 MHz, 0 mm x 0 mm
               2559 2606 2637 2718
               1439 1441 1446 1618
               -hsync -vsync

EDID block does NOT conform to EDID 1.4!
	Missing name descriptor
	Detailed block string not properly terminated
Warning: One or more of the timings is out of range of the Monitor Ranges:
  Vertical Freq: 60 - 60 Hz
  Horizontal Freq: 97202 - 97202 Hz
  Maximum Clock: 264.390 MHz
EDID block does not conform at all!
	Has -1157627904 nonconformant extension block(s)
