
EDID (hex):
00ffffffffffff000dae711400000000
17160103801f11780a2b359757548f29
23505400000001010101010101010101
0101010101019e1b568850001030442d
240035ae10000018000000fe004e3134
304247452d4c33322020000000fe0043
4d4e0a202020202020202020000000fe
004e3134304247452d4c3332202000cb

Extracted contents:
header:          00 ff ff ff ff ff ff 00
serial number:   0d ae 71 14 00 00 00 00 17 16
version:         01 03
basic params:    80 1f 11 78 0a
chroma info:     2b 35 97 57 54 8f 29 23 50 54
established:     00 00 00
standard:        01 01 01 01 01 01 01 01 01 01 01 01 01 01 01 01
descriptor 1:    9e 1b 56 88 50 00 10 30 44 2d 24 00 35 ae 10 00 00 18
descriptor 2:    00 00 00 fe 00 4e 31 34 30 42 47 45 2d 4c 33 32 20 20
descriptor 3:    00 00 00 fe 00 43 4d 4e 0a 20 20 20 20 20 20 20 20 20
descriptor 4:    00 00 00 fe 00 4e 31 34 30 42 47 45 2d 4c 33 32 20 20
extensions:      00
checksum:        cb

EDID version: 1.3
Manufacturer: CMN Model 1471 Serial Number --
Made in week 23 of 2012
Digital display
Maximum image size: 31 cm x 17 cm
Gamma: 2.20
RGB color display
First detailed timing is preferred timing
Display x,y Chromaticity:
  Red:   0.5898, 0.3417
  Green: 0.3300, 0.5615
  Blue:  0.1601, 0.1396
  White: 0.3134, 0.3291
Established timings supported:
Standard timings supported:
Detailed mode: Clock 70.700 MHz, 309 mm x 174 mm
               1366 1434 1479 1502 hborder 0
                768  770  774  784 vborder 0
               -hsync -vsync 
               VertFreq: 60 Hz, HorFreq: 47070 Hz
ASCII string: N140BGE-L32  
ASCII string: CMN
ASCII string: N140BGE-L32  
Checksum: 0xcb (valid)
EDID block does NOT conform to EDID 1.3!
	Missing name descriptor
	Missing monitor ranges
