
EDID (hex):
00ffffffffffff0030e4b70300000000
00160104901f11780a4bb59458569128
1f505400000001010101010101010101
010101010101fb1d56fe500016303020
350035ae10000019fc1356fe50001630
3020350035ae10000019000000fe004d
56363550803134305748320a00000000
00000131940110000001010a20200081

Extracted contents:
header:          00 ff ff ff ff ff ff 00
serial number:   30 e4 b7 03 00 00 00 00 00 16
version:         01 04
basic params:    90 1f 11 78 0a
chroma info:     4b b5 94 58 56 91 28 1f 50 54
established:     00 00 00
standard:        01 01 01 01 01 01 01 01 01 01 01 01 01 01 01 01
descriptor 1:    fb 1d 56 fe 50 00 16 30 30 20 35 00 35 ae 10 00 00 19
descriptor 2:    fc 13 56 fe 50 00 16 30 30 20 35 00 35 ae 10 00 00 19
descriptor 3:    00 00 00 fe 00 4d 56 36 35 50 80 31 34 30 57 48 32 0a
descriptor 4:    00 00 00 00 00 00 01 31 94 01 10 00 00 01 01 0a 20 20
extensions:      00
checksum:        81

EDID version: 1.4
Manufacturer: LGD Model 3b7 Serial Number --
Made in year 2012
Digital display
6 bits per primary color channel
Digital interface is not defined
Maximum image size: 31 cm x 17 cm
Gamma: 2.20
Supported color formats: RGB 4:4:4, YCrCb 4:4:4
First detailed timing includes the native pixel format and preferred refresh rate
Display x,y Chromaticity:
  Red:   0.5791, 0.3437
  Green: 0.3378, 0.5693
  Blue:  0.1582, 0.1240
  White: 0.3134, 0.3291
Established timings supported:
Standard timings supported:
Detailed mode: Clock 76.750 MHz, 309 mm x 174 mm
               1366 1414 1446 1620 hborder 0
                768  771  776  790 vborder 0
               -hsync -vsync 
               VertFreq: 59 Hz, HorFreq: 47376 Hz
Detailed mode: Clock 51.160 MHz, 309 mm x 174 mm
               1366 1414 1446 1620 hborder 0
                768  771  776  790 vborder 0
               -hsync -vsync 
               VertFreq: 39 Hz, HorFreq: 31580 Hz
ASCII string: MV65P
Manufacturer-specified data, tag 0
Checksum: 0x81 (valid)
EDID block does NOT conform to EDID 1.4!
	Missing name descriptor
	Missing monitor ranges
	Detailed block string not properly terminated
