edid-decode (hex):

00 ff ff ff ff ff ff 00 10 ac 0b 73 35 50 55 41
1f 08 01 01 08 1e 17 b9 e8 00 b2 a0 57 49 9b 26
10 48 4f a5 4a 00 61 59 45 59 81 80 31 59 01 01
01 01 01 01 01 01 10 0b d0 b4 20 5e 63 10 12 6c
62 08 fa b8 00 00 00 1a 00 00 00 ff 00 38 34 37
37 39 43 41 55 50 35 38 38 0a 00 00 00 fc 00 44
45 4c 4c 20 44 31 30 32 38 4c 0a 20 00 00 00 fd
00 30 78 1e 45 ff 00 0a 20 20 20 20 20 20 00 b5

----------------

Block 0, Base EDID:
  EDID Structure Version & Revision: 1.1
  Vendor & Product Identification:
    Manufacturer: DEL
    Model: 29451
    Serial Number: ...
    Made in: week 31 of 1998
  Basic Display Parameters & Features:
    Analog display
    Input voltage level: 0.7/0.3 V
    Sync: Separate
    Maximum image size: 30 cm x 23 cm
    Gamma: 2.85
    DPMS levels: Standby Suspend Off
    RGB color display
  Color Characteristics:
    Red  : 0.6250, 0.3398
    Green: 0.2851, 0.6054
    Blue : 0.1503, 0.0654
    White: 0.2812, 0.3105
  Established Timings I & II:
    IBM     :   720x400    70.082 Hz   9:5    31.467 kHz  28.320 MHz
    DMT 0x04:   640x480    59.940 Hz   4:3    31.469 kHz  25.175 MHz
    DMT 0x06:   640x480    75.000 Hz   4:3    37.500 kHz  31.500 MHz
    DMT 0x09:   800x600    60.317 Hz   4:3    37.879 kHz  40.000 MHz
    DMT 0x0b:   800x600    75.000 Hz   4:3    46.875 kHz  49.500 MHz
    DMT 0x10:  1024x768    60.004 Hz   4:3    48.363 kHz  65.000 MHz
    DMT 0x12:  1024x768    75.029 Hz   4:3    60.023 kHz  78.750 MHz
  Standard Timings:
    DMT 0x13:  1024x768    84.997 Hz   4:3    68.677 kHz  94.500 MHz
    DMT 0x0c:   800x600    85.061 Hz   4:3    53.674 kHz  56.250 MHz
    DMT 0x23:  1280x1024   60.020 Hz   5:4    63.981 kHz 108.000 MHz
    DMT 0x07:   640x480    85.008 Hz   4:3    43.269 kHz  36.000 MHz
  Detailed Timing Descriptors:
    DTD 1:   720x350    70.082 Hz  72:35   31.467 kHz  28.320 MHz (250 mm x 184 mm)
                 Hfront   18 Hsync 108 Hback  54 Hpol P
                 Vfront   38 Vsync   2 Vback  59 Vpol N
    Display Product Serial Number: ...
    Display Product Name: 'DELL D1028L'
  Display Range Limits:
    Monitor ranges (GTF): 48-120 Hz V, 30-69 kHz H, max dotclock 2550 MHz
Checksum: 0xb5

----------------

Warnings:

Block 0, Base EDID:
  EDID Structure Version & Revision: EDID 1.1 is deprecated, do not use.

Failures:

Block 0, Base EDID:
  Detailed Timing Descriptor #1: Mismatch of image size 250x184 mm vs display size 300x230 mm.

EDID conformity: FAIL
