edid-decode (hex):

00 ff ff ff ff ff ff 00 0d ae 61 14 00 00 00 00
0d 21 01 04 a5 1e 13 78 03 ee 95 a3 54 4c 99 26
0f 50 54 00 00 00 01 01 01 01 01 01 01 01 01 01
01 01 01 01 01 01 00 51 c0 a0 80 78 28 50 30 20
a6 00 2d bc 10 00 00 18 00 00 00 fd 00 28 3c 56
56 15 01 0a 20 20 20 20 20 20 00 00 00 fe 00 43
4d 4e 0a 20 20 20 20 20 20 20 20 20 00 00 00 fe
00 4e 31 34 30 41 43 41 2d 47 54 31 0a 20 00 26

00 ff ff ff ff ff ff 00 0d ae 61 14 00 00 00 00
0d 21 01 04 a5 1e 13 78 03 ee 95 a3 54 4c 99 26
0f 50 54 00 00 00 01 01 01 01 01 01 01 01 01 01
01 01 01 01 01 01 00 51 c0 a0 80 78 28 50 30 20
a6 00 2d bc 10 00 00 18 00 00 00 fd 00 28 3c 56
56 15 01 0a 20 20 20 20 20 20 00 00 00 fe 00 43
4d 4e 0a 20 20 20 20 20 20 20 20 20 00 00 00 fe
00 4e 31 34 30 41 43 41 2d 47 54 31 0a 20 00 26

----------------

Block 0, Base EDID:
  EDID Structure Version & Revision: 1.4
  Vendor & Product Identification:
    Manufacturer: CMN
    Model: 5217
    Made in: week 13 of 2023
  Basic Display Parameters & Features:
    Digital display
    Bits per primary color channel: 8
    DisplayPort interface
    Maximum image size: 30 cm x 19 cm
    Gamma: 2.20
    Supported color formats: RGB 4:4:4
    First detailed timing includes the native pixel format and preferred refresh rate
    Display is continuous frequency
  Color Characteristics:
    Red  : 0.6396, 0.3300
    Green: 0.2998, 0.5996
    Blue : 0.1503, 0.0595
    White: 0.3134, 0.3291
  Established Timings I & II: none
  Standard Timings: none
  Detailed Timing Descriptors:
    DTD 1:  2240x1400   60.000000 Hz  16:10    86.400 kHz    207.360000 MHz (301 mm x 188 mm)
                 Hfront   48 Hsync  32 Hback   80 Hpol N
                 Vfront   10 Vsync   6 Vback   24 Vpol N
    Display Range Limits:
      Monitor ranges (Bare Limits): 40-60 Hz V, 86-86 kHz H, max dotclock 210 MHz
    Alphanumeric Data String: 'CMN'
    Alphanumeric Data String: 'N140ACA-GT1'
Checksum: 0x26

----------------

Block 1, Unknown EDID Extension Block 0x00:
  00 ff ff ff ff ff ff 00 0d ae 61 14 00 00 00 00 '..........a.....'
  0d 21 01 04 a5 1e 13 78 03 ee 95 a3 54 4c 99 26 '.!.....x....TL.&'
  0f 50 54 00 00 00 01 01 01 01 01 01 01 01 01 01 '.PT.............'
  01 01 01 01 01 01 00 51 c0 a0 80 78 28 50 30 20 '.......Q...x(P0 '
  a6 00 2d bc 10 00 00 18 00 00 00 fd 00 28 3c 56 '..-..........(<V'
  56 15 01 0a 20 20 20 20 20 20 00 00 00 fe 00 43 'V...      .....C'
  4d 4e 0a 20 20 20 20 20 20 20 20 20 00 00 00 fe 'MN.         ....'
  00 4e 31 34 30 41 43 41 2d 47 54 31 0a 20 00 26 '.N140ACA-GT1. .&'
Checksum: 0x26

----------------

Warnings:

Block 0, Base EDID:
  Missing Display Product Name.

Failures:

Block 1, Base EDID:
  Unknown Extension Block.
EDID:
  Base EDID: EDID specified 0 extension block(s), but found 1 extension block(s).

EDID conformity: FAIL
