
EDID (hex):
00ffffffffffff001c54002801010101
10200103803f2478cab4e5ab4f47a927
105054254a00d1c00101010101018180
9500b30001017cdd0068f1705a806c48
8a00b9882100001e000000fd0030901e
f63c000a202020202020000000fc004d
3238550a2020202020202020000000ff
003232313630423030323938320a0143
020330714803042f103f615d20230907
0783010000e305c001e6060d0166661f
67030c001000007867d85dc40178c800
6fc200a0a0a055503020f80cb9882100
001e388280a07038214030203804b988
2100001ec65d00a0a0a01f5030201804
b9882100001e00000000000000000000
000000000000000000000000000000ed

edid-decode (hex):

00 ff ff ff ff ff ff 00 1c 54 00 28 01 01 01 01
10 20 01 03 80 3f 24 78 ca b4 e5 ab 4f 47 a9 27
10 50 54 25 4a 00 d1 c0 01 01 01 01 01 01 81 80
95 00 b3 00 01 01 7c dd 00 68 f1 70 5a 80 6c 48
8a 00 b9 88 21 00 00 1e 00 00 00 fd 00 30 90 1e
f6 3c 00 0a 20 20 20 20 20 20 00 00 00 fc 00 4d
32 38 55 0a 20 20 20 20 20 20 20 20 00 00 00 ff
00 32 32 31 36 30 42 30 30 32 39 38 32 0a 01 43

02 03 30 71 48 03 04 2f 10 3f 61 5d 20 23 09 07
07 83 01 00 00 e3 05 c0 01 e6 06 0d 01 66 66 1f
67 03 0c 00 10 00 00 78 67 d8 5d c4 01 78 c8 00
6f c2 00 a0 a0 a0 55 50 30 20 f8 0c b9 88 21 00
00 1e 38 82 80 a0 70 38 21 40 30 20 38 04 b9 88
21 00 00 1e c6 5d 00 a0 a0 a0 1f 50 30 20 18 04
b9 88 21 00 00 1e 00 00 00 00 00 00 00 00 00 00
00 00 00 00 00 00 00 00 00 00 00 00 00 00 00 ed

----------------

Block 0, Base EDID:
  EDID Structure Version & Revision: 1.3
  Vendor & Product Identification:
    Manufacturer: GBT
    Model: 10240
    Serial Number: 16843009
    Made in: week 16 of 2022
  Basic Display Parameters & Features:
    Digital display
    Maximum image size: 63 cm x 36 cm
    Gamma: 2.20
    DPMS levels: Standby Suspend
    RGB color display
    First detailed timing is the preferred timing
  Color Characteristics:
    Red  : 0.6699, 0.3115
    Green: 0.2783, 0.6601
    Blue : 0.1552, 0.0644
    White: 0.3134, 0.3291
  Established Timings I & II:
    DMT 0x04:   640x480    59.940476 Hz   4:3     31.469 kHz     25.175000 MHz
    DMT 0x06:   640x480    75.000000 Hz   4:3     37.500 kHz     31.500000 MHz
    DMT 0x09:   800x600    60.316541 Hz   4:3     37.879 kHz     40.000000 MHz
    DMT 0x0b:   800x600    75.000000 Hz   4:3     46.875 kHz     49.500000 MHz
    DMT 0x10:  1024x768    60.003840 Hz   4:3     48.363 kHz     65.000000 MHz
    DMT 0x12:  1024x768    75.028582 Hz   4:3     60.023 kHz     78.750000 MHz
  Standard Timings:
    DMT 0x52:  1920x1080   60.000000 Hz  16:9     67.500 kHz    148.500000 MHz
    DMT 0x23:  1280x1024   60.019740 Hz   5:4     63.981 kHz    108.000000 MHz
    DMT 0x2f:  1440x900    59.887445 Hz  16:10    55.935 kHz    106.500000 MHz
    DMT 0x3a:  1680x1050   59.954250 Hz  16:10    65.290 kHz    146.250000 MHz
  Detailed Timing Descriptors:
    DTD 1:  3840x2160   60.000000 Hz  16:9    135.000 kHz    567.000000 MHz (697 mm x 392 mm)
                 Hfront  108 Hsync  72 Hback  180 Hpol P
                 Vfront    8 Vsync  10 Vback   72 Vpol P
    Display Range Limits:
      Monitor ranges (GTF): 48-144 Hz V, 30-246 kHz H, max dotclock 600 MHz
    Display Product Name: 'M28U'
    Display Product Serial Number: '22160B002982'
  Extension blocks: 1
Checksum: 0x43

----------------

Block 1, CTA-861 Extension Block:
  Revision: 3
  Basic audio support
  Supports YCbCr 4:4:4
  Supports YCbCr 4:2:2
  Native detailed modes: 1
  Video Data Block:
    VIC   3:   720x480    59.940060 Hz  16:9     31.469 kHz     27.000000 MHz
    VIC   4:  1280x720    60.000000 Hz  16:9     45.000 kHz     74.250000 MHz
    VIC  47:  1280x720   120.000000 Hz  16:9     90.000 kHz    148.500000 MHz
    VIC  16:  1920x1080   60.000000 Hz  16:9     67.500 kHz    148.500000 MHz
    VIC  63:  1920x1080  120.000000 Hz  16:9    135.000 kHz    297.000000 MHz
    VIC  97:  3840x2160   60.000000 Hz  16:9    135.000 kHz    594.000000 MHz
    VIC  93:  3840x2160   24.000000 Hz  16:9     54.000 kHz    297.000000 MHz
    VIC  32:  1920x1080   24.000000 Hz  16:9     27.000 kHz     74.250000 MHz
  Audio Data Block:
    Linear PCM:
      Max channels: 2
      Supported sample rates (kHz): 48 44.1 32
      Supported sample sizes (bits): 24 20 16
  Speaker Allocation Data Block:
    FL/FR - Front Left/Right
  Colorimetry Data Block:
    BT2020YCC
    BT2020RGB
    Gamut Boundary Description Metadata Profile P0
  HDR Static Metadata Data Block:
    Electro optical transfer functions:
      Traditional gamma - SDR luminance range
      SMPTE ST2084
      Hybrid Log-Gamma
    Supported static metadata descriptors:
      Static metadata type 1
    Desired content max luminance: 102 (455.515 cd/m^2)
    Desired content max frame-average luminance: 102 (455.515 cd/m^2)
    Desired content min luminance: 31 (0.067 cd/m^2)
  Vendor-Specific Data Block (HDMI), OUI 00-0C-03:
    Source physical address: 1.0.0.0
    Maximum TMDS clock: 600 MHz
  Vendor-Specific Data Block (HDMI Forum), OUI C4-5D-D8:
    Version: 1
    Maximum TMDS Character Rate: 600 MHz
    SCDC Present
    SCDC Read Request Capable
    Supports scrambling for <= 340 Mcsc
  Detailed Timing Descriptors:
    DTD 2:  2560x1440  119.997589 Hz  16:9    182.996 kHz    497.750000 MHz (697 mm x 392 mm)
                 Hfront   48 Hsync  32 Hback   80 Hpol P
                 Vfront   63 Vsync   8 Vback   14 Vpol P
    DTD 3:  1920x1080  143.997512 Hz  16:9    160.269 kHz    333.360000 MHz (697 mm x 392 mm)
                 Hfront   48 Hsync  32 Hback   80 Hpol P
                 Vfront   19 Vsync   8 Vback    6 Vpol P
    DTD 4:  2560x1440   59.998201 Hz  16:9     88.257 kHz    240.060000 MHz (697 mm x 392 mm)
                 Hfront   48 Hsync  32 Hback   80 Hpol P
                 Vfront   17 Vsync   8 Vback    6 Vpol P
Checksum: 0xed  Unused space in Extension Block: 25 bytes
