
EDID (hex):
00ffffffffffff001c54002801010101
1e1f0104b5462778fbb4e5ab4f47a927
105054254a00d1c00101010101018180
9500b30001017cdd0068f1705a806c48
8a00b9882100001e000000fd003090f6
f686010a202020202020000000fc004d
3238550a2020202020202020000000ff
003231333030423030363830300a02ad
02033d714703042f103f617623091707
8301000067030c001000384167d85dc4
017880036d1a0000020b3090000f661f
661fe305c001e6060d0166661ff65b00
6ea0a01f5017201804b9882100001ef5
bd0064a0a055501220f80cb988210000
1e967f8078703821401c203804b98821
00001e00000000000000000000000086
70123f000003013c5fe80004ff097700
1b001f009f056600080007003bfe0104
ff0e4f0007001f006f0899008b000700
ceac0104ff0e9f002f001f006f087e00
020004007c0000000000000000000000
00000000000000000000000000000000
00000000000000000000000000000000
00000000000000000000000000007c14

Extracted contents:
header:          00 ff ff ff ff ff ff 00
serial number:   1c 54 00 28 01 01 01 01 1e 1f
version:         01 04
basic params:    b5 46 27 78 fb
chroma info:     b4 e5 ab 4f 47 a9 27 10 50 54
established:     25 4a 00
standard:        d1 c0 01 01 01 01 01 01 81 80 95 00 b3 00 01 01
descriptor 1:    7c dd 00 68 f1 70 5a 80 6c 48 8a 00 b9 88 21 00 00 1e
descriptor 2:    00 00 00 fd 00 30 90 f6 f6 86 01 0a 20 20 20 20 20 20
descriptor 3:    00 00 00 fc 00 4d 32 38 55 0a 20 20 20 20 20 20 20 20
descriptor 4:    00 00 00 ff 00 32 31 33 30 30 42 30 30 36 38 30 30 0a
extensions:      02
checksum:        ad

EDID version: 1.4
Manufacturer: GBT Model 2800 Serial Number --
Made in week 30 of 2021
Digital display
10 bits per primary color channel
DisplayPort interface
Maximum image size: 70 cm x 39 cm
Gamma: 2.20
DPMS levels: Standby Suspend Off
Supported color formats: RGB 4:4:4, YCrCb 4:4:4, YCrCb 4:2:2
First detailed timing includes the native pixel format and preferred refresh rate
Display is continuous frequency
Display x,y Chromaticity:
  Red:   0.6699, 0.3115
  Green: 0.2783, 0.6601
  Blue:  0.1552, 0.0644
  White: 0.3134, 0.3291
Established timings supported:
  640x480@60Hz 4:3 HorFreq: 31469 Hz Clock: 25.175 MHz
  640x480@75Hz 4:3 HorFreq: 37500 Hz Clock: 31.500 MHz
  800x600@60Hz 4:3 HorFreq: 37900 Hz Clock: 40.000 MHz
  800x600@75Hz 4:3 HorFreq: 46900 Hz Clock: 49.500 MHz
  1024x768@60Hz 4:3 HorFreq: 48400 Hz Clock: 65.000 MHz
  1024x768@75Hz 4:3 HorFreq: 60000 Hz Clock: 78.750 MHz
Standard timings supported:
  1920x1080@60Hz 16:9
  1280x1024@60Hz 5:4 HorFreq: 64000 Hz Clock: 108.000 MHz
  1440x900@60Hz 16:10 HorFreq: 55500 Hz Clock: 88.750 MHz
  1680x1050@60Hz 16:10 HorFreq: 64700 Hz Clock: 119.000 MHz
Detailed mode: Clock 567.000 MHz, 697 mm x 392 mm
               3840 3948 4020 4200 hborder 0
               2160 2168 2178 2250 vborder 0
               +hsync +vsync 
               VertFreq: 60 Hz, HorFreq: 135000 Hz
Monitor ranges (bare limits): 48-144Hz V, 246-246kHz H, max dotclock 1340MHz
Monitor name: M28U
Serial number: --
Has 2 extension blocks
Checksum: 0xad (valid)

CTA extension block
Extension version: 3
57 bytes of CTA data
  Video data block
    VIC   3 720x480@60Hz 16:9  HorFreq: 31469 Hz Clock: 27.000 MHz
    VIC   4 1280x720@60Hz 16:9  HorFreq: 45000 Hz Clock: 74.250 MHz
    VIC  47 1280x720@120Hz 16:9  HorFreq: 90000 Hz Clock: 148.500 MHz
    VIC  16 1920x1080@60Hz 16:9  HorFreq: 67500 Hz Clock: 148.500 MHz
    VIC  63 1920x1080@120Hz 16:9  HorFreq: 135000 Hz Clock: 297.000 MHz
    VIC  97 3840x2160@60Hz 16:9  HorFreq: 135000 Hz Clock: 594.000 MHz
    VIC 118 3840x2160@120Hz 16:9  HorFreq: 270000 Hz Clock: 1188.000 MHz
  Audio data block
    Linear PCM, max channels 2
      Supported sample rates (kHz): 96 48 44.1 32
      Supported sample sizes (bits): 24 20 16
  Speaker allocation data block
    Speaker map:
      FL/FR - Front Left/Right
  Vendor-specific data block, OUI 000c03 (HDMI)
    Source physical address 1.0.0.0
    DC_36bit
    DC_30bit
    DC_Y444
    Maximum TMDS clock: 325MHz
  Vendor-specific data block, OUI c45dd8 (HDMI Forum)
    Version: 1
    Maximum TMDS Character Rate: 600MHz
    SCDC Present
    Supports 12-bits/component Deep Color 4:2:0 Pixel Encoding
    Supports 10-bits/component Deep Color 4:2:0 Pixel Encoding
  Vendor-specific data block, OUI 00001a
  Extended tag: Colorimetry data block
    BT2020YCC
    BT2020RGB
  Extended tag: HDR static metadata data block
    Electro optical transfer functions:
      Traditional gamma - SDR luminance range
      SMPTE ST2084
      Hybrid Log-Gamma
    Supported static metadata descriptors:
      Static metadata type 1
    Desired content max luminance: 102 (455.515 cd/m^2)
    Desired content max frame-average luminance: 102 (455.515 cd/m^2)
    Desired content min luminance: 31 (0.067 cd/m^2)
Basic audio support
Supports YCbCr 4:4:4
Supports YCbCr 4:2:2
1 native detailed modes
Detailed mode: Clock 235.420 MHz, 697 mm x 392 mm
               2560 2583 2615 2670 hborder 0
               1440 1457 1465 1471 vborder 0
               +hsync +vsync 
               VertFreq: 59 Hz, HorFreq: 88172 Hz
Detailed mode: Clock 486.290 MHz, 697 mm x 392 mm
               2560 2578 2610 2660 hborder 0
               1440 1503 1511 1525 vborder 0
               +hsync +vsync 
               VertFreq: 119 Hz, HorFreq: 182815 Hz
Detailed mode: Clock 326.620 MHz, 697 mm x 392 mm
               1920 1948 1980 2040 hborder 0
               1080 1099 1107 1113 vborder 0
               +hsync +vsync 
               VertFreq: 143 Hz, HorFreq: 160107 Hz
Checksum: 0x86 (valid)


DisplayID extension block
Extension version: 18
Length 63, version 18, extension count 0
Checksum: 0x7c (valid)
Type 1 detailed timing: aspect: 16:9,  
Detailed mode: Clock 594.870 MHz, 0 mm x 0 mm
               2559 2586 2617 2678
               1439 1447 1454 1541
               -hsync -vsync
Type 1 detailed timing: aspect: 16:9,  
Detailed mode: Clock 1306.190 MHz, 0 mm x 0 mm
               3839 3846 3877 3918
               2159 2298 2305 2312
               -hsync -vsync
Type 1 detailed timing: aspect: 16:9,  
Detailed mode: Clock 1097.740 MHz, 0 mm x 0 mm
               3839 3886 3917 3998
               2159 2161 2165 2285
               -hsync -vsync

Warning: One or more of the timings is out of range of the Monitor Ranges:
  Vertical Freq: 59 - 143 Hz
  Horizontal Freq: 31469 - 270000 Hz
  Maximum Clock: 1188.000 MHz
EDID block does not conform at all!
	Both the serial number and the serial string are set


