
EDID (hex):
00ffffffffffff000d04802300000000
0f20010380341f782aee91a3544c9926
0f5054254b0071408180a9c0d1c09500
b30081408bc0023a801871382d40582c
250008362100001e000000fc00444d2d
4d4f4e42323430310a20000000ff000a
202020202020202020202020000000fd
00304b1e5414000a20202020202001cd
020326f2489001020304131f0523097f
078301000067030c0010001848681a00
000101304be6023a801871382d40582c
3500dd0c1100001a2a4480a070382740
30204500510c1100001a000000000000
00000000000000000000000000000000
00000000000000000000000000000000
00000000000000000000000000000058

Extracted contents:
header:          00 ff ff ff ff ff ff 00
serial number:   0d 04 80 23 00 00 00 00 0f 20
version:         01 03
basic params:    80 34 1f 78 2a
chroma info:     ee 91 a3 54 4c 99 26 0f 50 54
established:     25 4b 00
standard:        71 40 81 80 a9 c0 d1 c0 95 00 b3 00 81 40 8b c0
descriptor 1:    02 3a 80 18 71 38 2d 40 58 2c 25 00 08 36 21 00 00 1e
descriptor 2:    00 00 00 fc 00 44 4d 2d 4d 4f 4e 42 32 34 30 31 0a 20
descriptor 3:    00 00 00 ff 00 0a 20 20 20 20 20 20 20 20 20 20 20 20
descriptor 4:    00 00 00 fd 00 30 4b 1e 54 14 00 0a 20 20 20 20 20 20
extensions:      01
checksum:        cd

EDID version: 1.3
Manufacturer: CHD Model 2380 Serial Number --
Made in week 15 of 2022
Digital display
Maximum image size: 52 cm x 31 cm
Gamma: 2.20
DPMS levels: Off
RGB color display
First detailed timing is preferred timing
Display x,y Chromaticity:
  Red:   0.6396, 0.3300
  Green: 0.2998, 0.5996
  Blue:  0.1503, 0.0595
  White: 0.3125, 0.3291
Established timings supported:
  640x480@60Hz 4:3 HorFreq: 31469 Hz Clock: 25.175 MHz
  640x480@75Hz 4:3 HorFreq: 37500 Hz Clock: 31.500 MHz
  800x600@60Hz 4:3 HorFreq: 37900 Hz Clock: 40.000 MHz
  800x600@75Hz 4:3 HorFreq: 46900 Hz Clock: 49.500 MHz
  1024x768@60Hz 4:3 HorFreq: 48400 Hz Clock: 65.000 MHz
  1024x768@75Hz 4:3 HorFreq: 60000 Hz Clock: 78.750 MHz
  1280x1024@75Hz 5:4 HorFreq: 80000 Hz Clock: 135.000 MHz
Standard timings supported:
  1152x864@60Hz 4:3
  1280x1024@60Hz 5:4 HorFreq: 64000 Hz Clock: 108.000 MHz
  1600x900@60Hz 16:9
  1920x1080@60Hz 16:9
  1440x900@60Hz 16:10 HorFreq: 55500 Hz Clock: 88.750 MHz
  1680x1050@60Hz 16:10 HorFreq: 64700 Hz Clock: 119.000 MHz
  1280x960@60Hz 4:3 HorFreq: 60000 Hz Clock: 108.000 MHz
  1360x765@60Hz 16:9
Detailed mode: Clock 148.500 MHz, 520 mm x 310 mm
               1920 2008 2052 2200 hborder 0
               1080 1082 1087 1125 vborder 0
               +hsync +vsync 
               VertFreq: 60 Hz, HorFreq: 67500 Hz
Monitor name: DM-MONB2401
Serial number: 
-- ranges (GTF): 48-75Hz V, 30-84kHz H, max dotclock 200MHz
Has 1 extension blocks
Checksum: 0xcd (valid)

CTA extension block
Extension version: 3
34 bytes of CTA data
  Video data block
    VIC  16 1920x1080@60Hz 16:9 (native) HorFreq: 67500 Hz Clock: 148.500 MHz
    VIC   1 640x480@60Hz 4:3  HorFreq: 31469 Hz Clock: 25.175 MHz
    VIC   2 720x480@60Hz 4:3  HorFreq: 31469 Hz Clock: 27.000 MHz
    VIC   3 720x480@60Hz 16:9  HorFreq: 31469 Hz Clock: 27.000 MHz
    VIC   4 1280x720@60Hz 16:9  HorFreq: 45000 Hz Clock: 74.250 MHz
    VIC  19 1280x720@50Hz 16:9  HorFreq: 37500 Hz Clock: 74.250 MHz
    VIC  31 1920x1080@50Hz 16:9  HorFreq: 56250 Hz Clock: 148.500 MHz
    VIC   5 1920x1080i@60Hz 16:9  HorFreq: 33750 Hz Clock: 74.250 MHz
  Audio data block
    Linear PCM, max channels 2
      Supported sample rates (kHz): 192 176.4 96 88.2 48 44.1 32
      Supported sample sizes (bits): 24 20 16
  Speaker allocation data block
    Speaker map:
      FL/FR - Front Left/Right
  Vendor-specific data block, OUI 000c03 (HDMI)
    Source physical address 1.0.0.0
    DC_30bit
    DC_Y444
    Maximum TMDS clock: 360MHz
  Vendor-specific data block, OUI 00001a
Underscans PC formats by default
Basic audio support
Supports YCbCr 4:4:4
Supports YCbCr 4:2:2
2 native detailed modes
Detailed mode: Clock 148.500 MHz, 477 mm x 268 mm
               1920 2008 2052 2200 hborder 0
               1080 1083 1088 1125 vborder 0
               +hsync -vsync 
               VertFreq: 60 Hz, HorFreq: 67500 Hz
Detailed mode: Clock 174.500 MHz, 337 mm x 268 mm
               1920 1968 2000 2080 hborder 0
               1080 1084 1089 1119 vborder 0
               +hsync -vsync 
               VertFreq: 74 Hz, HorFreq: 83894 Hz
Checksum: 0x58 (valid)

EDID block does NOT conform to EDID 1.3!
	HDMI VSDB Max TMDS rate is > 340
