
EDID (hex):
00ffffffffffff00216c000000000000
0c1b01036d241b78ea5ec0a4594a9825
20505400000090400101010101010101
010101010101a82f78e0511a20405898
2c006c111100001e000000ff004c696e
75782023300a20202020000000fd003b
3d3f410d000a202020202020000000fc
003134303078313035300a2020200079

Extracted contents:
header:          00 ff ff ff ff ff ff 00
serial number:   21 6c 00 00 00 00 00 00 0c 1b
version:         01 03
basic params:    6d 24 1b 78 ea
chroma info:     5e c0 a4 59 4a 98 25 20 50 54
established:     00 00 00
standard:        90 40 01 01 01 01 01 01 01 01 01 01 01 01 01 01
descriptor 1:    a8 2f 78 e0 51 1a 20 40 58 98 2c 00 6c 11 11 00 00 1e
descriptor 2:    00 00 00 ff 00 4c 69 6e 75 78 20 23 30 0a 20 20 20 20
descriptor 3:    00 00 00 fd 00 3b 3d 3f 41 0d 00 0a 20 20 20 20 20 20
descriptor 4:    00 00 00 fc 00 31 34 30 30 78 31 30 35 30 0a 20 20 20
extensions:      00
checksum:        79

EDID version: 1.3
Manufacturer: HKL Model 0 Serial Number --
Made in week 12 of 2017
Analog display, Input voltage level: 0.7/0.7 V
Sync: Separate Composite Serration 
Maximum image size: 36 cm x 27 cm
Gamma: 2.20
DPMS levels: Standby Suspend Off
RGB color display
First detailed timing is preferred timing
Display x,y Chromaticity:
  Red:   0.6416, 0.3486
  Green: 0.2919, 0.5957
  Blue:  0.1474, 0.1250
  White: 0.3125, 0.3281
Established timings supported:
Standard timings supported:
  1400x1050@60Hz 4:3 HorFreq: 64700 Hz Clock: 101.000 MHz
Detailed mode: Clock 122.000 MHz, 364 mm x 273 mm
               1400 1488 1640 1880 hborder 0
               1050 1052 1064 1082 vborder 0
               +hsync +vsync 
               VertFreq: 59 Hz, HorFreq: 64893 Hz
Serial number: -- #0
Monitor ranges (GTF): 59-61Hz V, 63-65kHz H, max dotclock 130MHz
Monitor name: 1400x1050
Checksum: 0x79 (valid)
