edid-decode (hex):

00 ff ff ff ff ff ff 00 21 6c 00 00 00 00 00 00
0c 1b 01 03 6d 24 1b 78 ea 5e c0 a4 59 4a 98 25
20 50 54 00 00 00 90 40 01 01 01 01 01 01 01 01
01 01 01 01 01 01 a8 2f 78 e0 51 1a 20 40 58 98
2c 00 6c 11 11 00 00 1e 00 00 00 ff 00 4c 69 6e
75 78 20 23 30 0a 20 20 20 20 00 00 00 fd 00 3b
3d 3f 41 0d 00 0a 20 20 20 20 20 20 00 00 00 fc
00 31 34 30 30 78 31 30 35 30 0a 20 20 20 00 79

----------------

Block 0, Base EDID:
  EDID Structure Version & Revision: 1.3
  Vendor & Product Identification:
    Manufacturer: HKL
    Model: 0
    Made in: week 12 of 2017
  Basic Display Parameters & Features:
    Analog display
    Input voltage level: 0.7/0.7 V
    Blank level equals black level
    Sync: Separate Composite Serration
    Maximum image size: 36 cm x 27 cm
    Gamma: 2.20
    DPMS levels: Standby Suspend Off
    RGB color display
    First detailed timing is the preferred timing
  Color Characteristics:
    Red  : 0.6416, 0.3486
    Green: 0.2919, 0.5957
    Blue : 0.1474, 0.1250
    White: 0.3125, 0.3281
  Established Timings I & II: none
  Standard Timings:
    DMT 0x2a:  1400x1050   59.978 Hz   4:3    65.317 kHz 121.750 MHz
  Detailed Timing Descriptors:
    DTD 1:  1400x1050   59.976 Hz   4:3    64.894 kHz 122.000 MHz (364 mm x 273 mm)
                 Hfront   88 Hsync 152 Hback 240 Hpol P
                 Vfront    2 Vsync  12 Vback  18 Vpol P
    Display Product Serial Number: ...
  Display Range Limits:
    Monitor ranges (GTF): 59-61 Hz V, 63-65 kHz H, max dotclock 130 MHz
    Display Product Name: '1400x1050'
Checksum: 0x79

----------------

EDID conformity: PASS
