
EDID (hex):
00ffffffffffff000ed4000017000000
0614010300241d78ee000c0a05040902
002080adcf7001010101010101010101
010101010101023a801871382d402c94
4500a05a0000001e662150b051001b30
40703600f8c22100001e000000fe0050
69783139323058313038300a21399030
621a2740b0183610a064000000000044

Extracted contents:
header:          00 ff ff ff ff ff ff 00
serial number:   0e d4 00 00 17 00 00 00 06 14
version:         01 03
basic params:    00 24 1d 78 ee
chroma info:     00 0c 0a 05 04 09 02 00 20 80
established:     ad cf 70
standard:        01 01 01 01 01 01 01 01 01 01 01 01 01 01 01 01
descriptor 1:    02 3a 80 18 71 38 2d 40 2c 94 45 00 a0 5a 00 00 00 1e
descriptor 2:    66 21 50 b0 51 00 1b 30 40 70 36 00 f8 c2 21 00 00 1e
descriptor 3:    00 00 00 fe 00 50 69 78 31 39 32 30 58 31 30 38 30 0a
descriptor 4:    21 39 90 30 62 1a 27 40 b0 18 36 10 a0 64 00 00 00 00
extensions:      00
checksum:        44

EDID version: 1.3
Manufacturer: CVT Model 0 Serial Number --
Made in week 6 of 2010
Analog display, Input voltage level: 0.7/0.3 V
Sync: 
Maximum image size: 36 cm x 29 cm
Gamma: 2.20
DPMS levels: Standby Suspend Off
RGB color display
Default (sRGB) color space is primary color space
First detailed timing is preferred timing
Display x,y Chromaticity:
  Red:   0.0390, 0.0195
  Green: 0.0156, 0.0351
  Blue:  0.0078, 0.0000
  White: 0.1279, 0.5000
Established timings supported:
  720x400@70Hz 9:5 HorFreq: 31469 Hz Clock: 28.320 MHz
  640x480@60Hz 4:3 HorFreq: 31469 Hz Clock: 25.175 MHz
  640x480@72Hz 4:3 HorFreq: 37900 Hz Clock: 31.500 MHz
  640x480@75Hz 4:3 HorFreq: 37500 Hz Clock: 31.500 MHz
  800x600@60Hz 4:3 HorFreq: 37900 Hz Clock: 40.000 MHz
  800x600@72Hz 4:3 HorFreq: 48100 Hz Clock: 50.000 MHz
  800x600@75Hz 4:3 HorFreq: 46900 Hz Clock: 49.500 MHz
  1024x768@60Hz 4:3 HorFreq: 48400 Hz Clock: 65.000 MHz
  1024x768@70Hz 4:3 HorFreq: 56500 Hz Clock: 75.000 MHz
  1024x768@75Hz 4:3 HorFreq: 60000 Hz Clock: 78.750 MHz
  1280x1024@75Hz 5:4 HorFreq: 80000 Hz Clock: 135.000 MHz
Standard timings supported:
Detailed mode: Clock 148.500 MHz, 160 mm x 90 mm
               1920 1964 2112 2200 hborder 0
               1080 1084 1089 1125 vborder 0
               +hsync +vsync 
               VertFreq: 60 Hz, HorFreq: 67500 Hz
Detailed mode: Clock 85.500 MHz, 760 mm x 450 mm
               1360 1424 1536 1792 hborder 0
                768  771  777  795 vborder 0
               +hsync +vsync 
               VertFreq: 60 Hz, HorFreq: 47712 Hz
ASCII string: Pix1920X1080
Detailed mode: Clock 146.250 MHz, 160 mm x 100 mm
               1680 1856 2136 2240 hborder 0
               1050 1053 1059 1089 vborder 0
               -hsync -vsync analog composite 
               VertFreq: 59 Hz, HorFreq: 65290 Hz
Checksum: 0x44 (valid)
EDID block does NOT conform to EDID 1.3!
	sRGB is signaled, but the chromaticities do not match
	Missing name descriptor
	Missing monitor ranges
EDID block does not conform at all!
	Invalid detailed timing descriptor ordering
