edid-decode (hex):

00 ff ff ff ff ff ff 00 30 e4 5d 07 00 00 00 00
00 21 01 04 a5 1e 13 78 02 c3 e5 a5 54 4d 9b 26
0d 50 54 00 00 00 01 01 01 01 01 01 01 01 01 01
01 01 01 01 01 01 35 3c 80 a0 70 b0 23 40 30 20
36 00 2e bc 10 00 00 1a 2a 30 80 a0 70 b0 23 40
30 20 36 00 2e bc 10 00 00 1a 00 00 00 fe 00 36
35 38 56 32 80 31 34 30 57 55 41 0a 00 00 00 00
00 01 41 31 9e 00 10 00 00 0a 01 0a 20 20 00 b8

00 ff ff ff ff ff ff 00 30 e4 5d 07 00 00 00 00
00 21 01 04 a5 1e 13 78 02 c3 e5 a5 54 4d 9b 26
0d 50 54 00 00 00 01 01 01 01 01 01 01 01 01 01
01 01 01 01 01 01 35 3c 80 a0 70 b0 23 40 30 20
36 00 2e bc 10 00 00 1a 2a 30 80 a0 70 b0 23 40
30 20 36 00 2e bc 10 00 00 1a 00 00 00 fe 00 36
35 38 56 32 80 31 34 30 57 55 41 0a 00 00 00 00
00 01 41 31 9e 00 10 00 00 0a 01 0a 20 20 00 b8

----------------

Block 0, Base EDID:
  EDID Structure Version & Revision: 1.4
  Vendor & Product Identification:
    Manufacturer: LGD
    Model: 1885
    Made in: 2023
  Basic Display Parameters & Features:
    Digital display
    Bits per primary color channel: 8
    DisplayPort interface
    Maximum image size: 30 cm x 19 cm
    Gamma: 2.20
    Supported color formats: RGB 4:4:4
    First detailed timing includes the native pixel format and preferred refresh rate
  Color Characteristics:
    Red  : 0.6474, 0.3281
    Green: 0.3007, 0.6083
    Blue : 0.1513, 0.0527
    White: 0.3134, 0.3291
  Established Timings I & II: none
  Standard Timings: none
  Detailed Timing Descriptors:
    DTD 1:  1920x1200   60.000779 Hz  16:10    74.101 kHz    154.130000 MHz (302 mm x 188 mm)
                 Hfront   48 Hsync  32 Hback   80 Hpol P
                 Vfront    3 Vsync   6 Vback   26 Vpol N
    DTD 2:  1920x1200   47.999066 Hz  16:10    59.279 kHz    123.300000 MHz (302 mm x 188 mm)
                 Hfront   48 Hsync  32 Hback   80 Hpol P
                 Vfront    3 Vsync   6 Vback   26 Vpol N
    Alphanumeric Data String: '658V2'
    Manufacturer-Specified Display Descriptor (0x00): 00 00 00 01 41 31 9e 00 10 00 00 0a 01 0a 20 20 '....A1........  '
Checksum: 0xb8

----------------

Block 1, Unknown EDID Extension Block 0x00:
  00 ff ff ff ff ff ff 00 30 e4 5d 07 00 00 00 00 '........0.].....'
  00 21 01 04 a5 1e 13 78 02 c3 e5 a5 54 4d 9b 26 '.!.....x....TM.&'
  0d 50 54 00 00 00 01 01 01 01 01 01 01 01 01 01 '.PT.............'
  01 01 01 01 01 01 35 3c 80 a0 70 b0 23 40 30 20 '......5<..p.#@0 '
  36 00 2e bc 10 00 00 1a 2a 30 80 a0 70 b0 23 40 '6.......*0..p.#@'
  30 20 36 00 2e bc 10 00 00 1a 00 00 00 fe 00 36 '0 6............6'
  35 38 56 32 80 31 34 30 57 55 41 0a 00 00 00 00 '58V2.140WUA.....'
  00 01 41 31 9e 00 10 00 00 0a 01 0a 20 20 00 b8 '..A1........  ..'
Checksum: 0xb8

----------------

Warnings:

Block 0, Base EDID:
  Missing Display Product Name.

Failures:

Block 0, Base EDID:
  Alphanumeric Data String: Non-printable character.
Block 1, Base EDID:
  Unknown Extension Block.
EDID:
  Base EDID: EDID specified 0 extension block(s), but found 1 extension block(s).

EDID conformity: FAIL
