
EDID (hex):
00ffffffffffff0006af3e2200000000
00160104901f1178022a259756539728
20505400000001010101010101010101
010101010101a03240d662841c30402a
330035ae1000001ac02140d662841c30
402a330035ae1000001a000000fe004d
34525454804231343052544e00000000
000041219e0010000002010a202000c2

Extracted contents:
header:          00 ff ff ff ff ff ff 00
serial number:   06 af 3e 22 00 00 00 00 00 16
version:         01 04
basic params:    90 1f 11 78 02
chroma info:     2a 25 97 56 53 97 28 20 50 54
established:     00 00 00
standard:        01 01 01 01 01 01 01 01 01 01 01 01 01 01 01 01
descriptor 1:    a0 32 40 d6 62 84 1c 30 40 2a 33 00 35 ae 10 00 00 1a
descriptor 2:    c0 21 40 d6 62 84 1c 30 40 2a 33 00 35 ae 10 00 00 1a
descriptor 3:    00 00 00 fe 00 4d 34 52 54 54 80 42 31 34 30 52 54 4e
descriptor 4:    00 00 00 00 00 00 41 21 9e 00 10 00 00 02 01 0a 20 20
extensions:      00
checksum:        c2

EDID version: 1.4
Manufacturer: AUO Model 223e Serial Number --
Made in year 2012
Digital display
6 bits per primary color channel
Digital interface is not defined
Maximum image size: 31 cm x 17 cm
Gamma: 2.20
Supported color formats: RGB 4:4:4
First detailed timing includes the native pixel format and preferred refresh rate
Display x,y Chromaticity:
  Red:   0.5898, 0.3378
  Green: 0.3261, 0.5917
  Blue:  0.1562, 0.1269
  White: 0.3134, 0.3291
Established timings supported:
Standard timings supported:
Detailed mode: Clock 129.600 MHz, 309 mm x 174 mm
               1600 1664 1706 2326 hborder 0
                900  903  906  928 vborder 0
               +hsync -vsync 
               VertFreq: 60 Hz, HorFreq: 55717 Hz
Detailed mode: Clock 86.400 MHz, 309 mm x 174 mm
               1600 1664 1706 2326 hborder 0
                900  903  906  928 vborder 0
               +hsync -vsync 
               VertFreq: 40 Hz, HorFreq: 37145 Hz
ASCII string: M4RTT
Manufacturer-specified data, tag 0
Checksum: 0xc2 (valid)
EDID block does NOT conform to EDID 1.4!
	Missing name descriptor
	Missing monitor ranges
	Detailed block string not properly terminated
