
EDID (hex):
00ffffffffffff0006af3e2200000000
22140103801f11780a61959c59528f26
21505400000001010101010101010101
0101010101011c2a407261840c30402a
330035ae10000018131c407261840c30
402a330035ae10000018000000000000
00000000000000000000000000000002
000b48f50a3c64140e1a68202020005b

Extracted contents:
header:          00 ff ff ff ff ff ff 00
serial number:   06 af 3e 22 00 00 00 00 22 14
version:         01 03
basic params:    80 1f 11 78 0a
chroma info:     61 95 9c 59 52 8f 26 21 50 54
established:     00 00 00
standard:        01 01 01 01 01 01 01 01 01 01 01 01 01 01 01 01
descriptor 1:    1c 2a 40 72 61 84 0c 30 40 2a 33 00 35 ae 10 00 00 18
descriptor 2:    13 1c 40 72 61 84 0c 30 40 2a 33 00 35 ae 10 00 00 18
descriptor 3:    00 00 00 00 00 00 00 00 00 00 00 00 00 00 00 00 00 00
descriptor 4:    00 00 00 02 00 0b 48 f5 0a 3c 64 14 0e 1a 68 20 20 20
extensions:      00
checksum:        5b

EDID version: 1.3
Manufacturer: AUO Model 223e Serial Number --
Made in week 34 of 2010
Digital display
Maximum image size: 31 cm x 17 cm
Gamma: 2.20
RGB color display
First detailed timing is preferred timing
Display x,y Chromaticity:
  Red:   0.6103, 0.3496
  Green: 0.3203, 0.5595
  Blue:  0.1503, 0.1298
  White: 0.3134, 0.3291
Established timings supported:
Standard timings supported:
Detailed mode: Clock 107.800 MHz, 309 mm x 174 mm
               1600 1664 1706 1970 hborder 0
                900  903  906  912 vborder 0
               -hsync -vsync 
               VertFreq: 60 Hz, HorFreq: 54720 Hz
Detailed mode: Clock 71.870 MHz, 309 mm x 174 mm
               1600 1664 1706 1970 hborder 0
                900  903  906  912 vborder 0
               -hsync -vsync 
               VertFreq: 40 Hz, HorFreq: 36482 Hz
Manufacturer-specified data, tag 0
Manufacturer-specified data, tag 2
Checksum: 0x5b (valid)
EDID block does NOT conform to EDID 1.3!
	Missing name descriptor
	Missing monitor ranges
