
EDID (hex):
00ffffffffffff0041f302141af8fe02
191301037a1e13782e8585a6574a9c26
125054bfef80714f81408180950081c0
8bc0010101019a29a0d0518422305098
36002fbe1000001c0e1f008051001e30
4080370072dc1000001c000000fc004c
494e453431310a0a0a0a0a0a00000010
000a0a0a0a0a0a0a0a0a0a0a0a0a00b5

Extracted contents:
header:          00 ff ff ff ff ff ff 00
serial number:   41 f3 02 14 1a f8 fe 02 19 13
version:         01 03
basic params:    7a 1e 13 78 2e
chroma info:     85 85 a6 57 4a 9c 26 12 50 54
established:     bf ef 80
standard:        71 4f 81 40 81 80 95 00 81 c0 8b c0 01 01 01 01
descriptor 1:    9a 29 a0 d0 51 84 22 30 50 98 36 00 2f be 10 00 00 1c
descriptor 2:    0e 1f 00 80 51 00 1e 30 40 80 37 00 72 dc 10 00 00 1c
descriptor 3:    00 00 00 fc 00 4c 49 4e 45 34 31 31 0a 0a 0a 0a 0a 0a
descriptor 4:    00 00 00 10 00 0a 0a 0a 0a 0a 0a 0a 0a 0a 0a 0a 0a 0a
extensions:      00
checksum:        b5

EDID version: 1.3
Manufacturer: POS Model 1402 Serial Number --
Made in week 25 of 2009
Analog display, Input voltage level: 0.7/0.7 V
Configurable signal levels
Sync: Separate SyncOnGreen 
Maximum image size: 30 cm x 19 cm
Gamma: 2.20
DPMS levels: Off
RGB color display
Default (sRGB) color space is primary color space
First detailed timing is preferred timing
Display x,y Chromaticity:
  Red:   0.6503, 0.3398
  Green: 0.2900, 0.6103
  Blue:  0.1503, 0.0703
  White: 0.3134, 0.3291
Established timings supported:
  720x400@70Hz 9:5 HorFreq: 31469 Hz Clock: 28.320 MHz
  640x480@60Hz 4:3 HorFreq: 31469 Hz Clock: 25.175 MHz
  640x480@67Hz 4:3 HorFreq: 35000 Hz Clock: 30.240 MHz
  640x480@72Hz 4:3 HorFreq: 37900 Hz Clock: 31.500 MHz
  640x480@75Hz 4:3 HorFreq: 37500 Hz Clock: 31.500 MHz
  800x600@56Hz 4:3 HorFreq: 35200 Hz Clock: 36.000 MHz
  800x600@60Hz 4:3 HorFreq: 37900 Hz Clock: 40.000 MHz
  800x600@72Hz 4:3 HorFreq: 48100 Hz Clock: 50.000 MHz
  800x600@75Hz 4:3 HorFreq: 46900 Hz Clock: 49.500 MHz
  832x624@75Hz 4:3 HorFreq: 49726 Hz Clock: 57.284 MHz
  1024x768@60Hz 4:3 HorFreq: 48400 Hz Clock: 65.000 MHz
  1024x768@70Hz 4:3 HorFreq: 56500 Hz Clock: 75.000 MHz
  1024x768@75Hz 4:3 HorFreq: 60000 Hz Clock: 78.750 MHz
  1280x1024@75Hz 5:4 HorFreq: 80000 Hz Clock: 135.000 MHz
  1152x870@75Hz 192:145 HorFreq: 67500 Hz Clock: 108.000 MHz
Standard timings supported:
  1152x864@75Hz 4:3 HorFreq: 67500 Hz Clock: 108.000 MHz
  1280x960@60Hz 4:3 HorFreq: 60000 Hz Clock: 108.000 MHz
  1280x1024@60Hz 5:4 HorFreq: 64000 Hz Clock: 108.000 MHz
  1440x900@60Hz 16:10 HorFreq: 55500 Hz Clock: 88.750 MHz
  1280x720@60Hz 16:9
  1360x765@60Hz 16:9
Detailed mode: Clock 106.500 MHz, 303 mm x 190 mm
               1440 1520 1672 1904 hborder 0
                900  903  909  934 vborder 0
               -hsync +vsync 
               VertFreq: 59 Hz, HorFreq: 55934 Hz
Detailed mode: Clock 79.500 MHz, 370 mm x 220 mm
               1280 1344 1472 1664 hborder 0
                768  771  778  798 vborder 0
               -hsync +vsync 
               VertFreq: 59 Hz, HorFreq: 47776 Hz
Monitor name: LINE411
Dummy block
Checksum: 0xb5 (valid)
EDID block does NOT conform to EDID 1.3!
	sRGB is signaled, but the chromaticities do not match
	Missing monitor ranges
	Detailed block string not properly terminated
EDID block does not conform at all!
	Dummy block filled with garbage
