edid-decode (hex):

00 ff ff ff ff ff ff 00 4d 10 8c 14 00 00 00 00
23 1b 01 04 a5 1a 11 78 06 07 30 a4 54 4c 9a 26
0e 50 54 00 00 00 01 01 01 01 01 01 01 01 01 01
01 01 01 01 01 01 d0 41 80 a0 70 00 46 50 30 20
3a 00 03 ad 10 00 00 18 d0 41 80 a0 70 00 97 51
30 20 3a 00 03 ad 10 00 00 18 00 00 00 10 00 00
00 00 00 00 00 00 00 00 00 00 00 00 00 00 00 02
00 0a 26 ff 0f 3c c8 13 0a 24 c8 00 00 00 00 9a

00 ff ff ff ff ff ff 00 4d 10 8c 14 00 00 00 00
23 1b 01 04 a5 1a 11 78 06 07 30 a4 54 4c 9a 26
0e 50 54 00 00 00 01 01 01 01 01 01 01 01 01 01
01 01 01 01 01 01 d0 41 80 a0 70 00 46 50 30 20
3a 00 03 ad 10 00 00 18 d0 41 80 a0 70 00 97 51
30 20 3a 00 03 ad 10 00 00 18 00 00 00 10 00 00
00 00 00 00 00 00 00 00 00 00 00 00 00 00 00 02
00 0a 26 ff 0f 3c c8 13 0a 24 c8 00 00 00 00 9a

----------------

Block 0, Base EDID:
  EDID Structure Version & Revision: 1.4
  Vendor & Product Identification:
    Manufacturer: SHP
    Model: 5260
    Made in: week 35 of 2017
  Basic Display Parameters & Features:
    Digital display
    Bits per primary color channel: 8
    DisplayPort interface
    Maximum image size: 26 cm x 17 cm
    Gamma: 2.20
    Supported color formats: RGB 4:4:4
    Default (sRGB) color space is primary color space
    First detailed timing includes the native pixel format and preferred refresh rate
  Color Characteristics:
    Red  : 0.6406, 0.3281
    Green: 0.2978, 0.6044
    Blue : 0.1484, 0.0576
    White: 0.3125, 0.3281
  Established Timings I & II: none
  Standard Timings: none
  Detailed Timing Descriptors:
    DTD 1:  1920x1280   60.000000 Hz   3:2     81.000 kHz    168.480000 MHz (259 mm x 173 mm)
                 Hfront   48 Hsync  32 Hback   80 Hpol N
                 Vfront    3 Vsync  10 Vback   57 Vpol N
    DTD 2:  1920x1280   48.014226 Hz   3:2     81.000 kHz    168.480000 MHz (259 mm x 173 mm)
                 Hfront   48 Hsync  32 Hback   80 Hpol N
                 Vfront    3 Vsync  10 Vback  394 Vpol N
    Dummy Descriptor:
    Manufacturer-Specified Display Descriptor (0x02): 00 02 00 0a 26 ff 0f 3c c8 13 0a 24 c8 00 00 00 '....&..<...$....'
Checksum: 0x9a

----------------

Block 1, Unknown EDID Extension Block 0x00:
  00 ff ff ff ff ff ff 00 4d 10 8c 14 00 00 00 00 '........M.......'
  23 1b 01 04 a5 1a 11 78 06 07 30 a4 54 4c 9a 26 '#......x..0.TL.&'
  0e 50 54 00 00 00 01 01 01 01 01 01 01 01 01 01 '.PT.............'
  01 01 01 01 01 01 d0 41 80 a0 70 00 46 50 30 20 '.......A..p.FP0 '
  3a 00 03 ad 10 00 00 18 d0 41 80 a0 70 00 97 51 ':........A..p..Q'
  30 20 3a 00 03 ad 10 00 00 18 00 00 00 10 00 00 '0 :.............'
  00 00 00 00 00 00 00 00 00 00 00 00 00 00 00 02 '................'
  00 0a 26 ff 0f 3c c8 13 0a 24 c8 00 00 00 00 9a '..&..<...$......'
Checksum: 0x9a

----------------

Warnings:

Block 0, Base EDID:
  Missing Display Product Name.

Failures:

Block 0, Base EDID:
  Basic Display Parameters & Features: sRGB is signaled, but the chromaticities do not match.
Block 1, Base EDID:
  Unknown Extension Block.
EDID:
  Base EDID: EDID specified 0 extension block(s), but found 1 extension block(s).

EDID conformity: FAIL
