edid-decode (hex):

00 ff ff ff ff ff ff 00 30 23 20 0b ac 00 00 00
04 0e 01 03 6e 29 1f 78 ea 60 e5 a3 57 4b 9c 25
11 50 54 a5 6b 80 31 59 45 59 61 59 81 80 81 8f
a9 40 01 01 01 01 48 3f 40 30 62 b0 32 40 40 c0
13 00 98 32 11 00 00 1a 00 00 00 fd 00 38 55 1c
5c 11 00 0a 20 20 20 20 20 20 00 00 00 fc 00 70
68 6f 74 6f 6e 32 30 76 69 73 69 6f 00 00 00 fc
00 6e 32 0a 20 20 20 20 20 20 20 20 20 20 00 d8

00 ff ff ff ff ff ff 00 30 23 20 0b ac 00 00 00
04 0e 01 03 6e 29 1f 78 ea 60 e5 a3 57 4b 9c 25
11 50 54 a5 6b 80 31 59 45 59 61 59 81 80 81 8f
a9 40 01 01 01 01 48 3f 40 30 62 b0 32 40 40 c0
13 00 98 32 11 00 00 1a 00 00 00 fd 00 38 55 1c
5c 11 00 0a 20 20 20 20 20 20 00 00 00 fc 00 70
68 6f 74 6f 6e 32 30 76 69 73 69 6f 00 00 00 fc
00 6e 32 0a 20 20 20 20 20 20 20 20 20 20 00 d8

----------------

Block 0, Base EDID:
  EDID Structure Version & Revision: 1.3
  Vendor & Product Identification:
    Manufacturer: LAC
    Model: 2848
    Serial Number: ...
    Made in: week 4 of 2004
  Basic Display Parameters & Features:
    Analog display
    Signal Level Standard: 0.700 : 0.000 : 0.700 V p-p
    Blank level equals black level
    Sync: Separate Composite SyncOnGreen
    Maximum image size: 41 cm x 31 cm
    Gamma: 2.20
    DPMS levels: Standby Suspend Off
    RGB color display
    First detailed timing is the preferred timing
  Color Characteristics:
    Red  : 0.6376, 0.3417
    Green: 0.2929, 0.6093
    Blue : 0.1474, 0.0683
    White: 0.3134, 0.3291
  Established Timings I & II:
    IBM     :   720x400    70.081663 Hz   9:5     31.467 kHz     28.320000 MHz
    DMT 0x04:   640x480    59.940476 Hz   4:3     31.469 kHz     25.175000 MHz
    DMT 0x06:   640x480    75.000000 Hz   4:3     37.500 kHz     31.500000 MHz
    DMT 0x09:   800x600    60.316541 Hz   4:3     37.879 kHz     40.000000 MHz
    DMT 0x0b:   800x600    75.000000 Hz   4:3     46.875 kHz     49.500000 MHz
    Apple   :   832x624    74.551266 Hz   4:3     49.726 kHz     57.284000 MHz
    DMT 0x10:  1024x768    60.003840 Hz   4:3     48.363 kHz     65.000000 MHz
    DMT 0x12:  1024x768    75.028582 Hz   4:3     60.023 kHz     78.750000 MHz
    DMT 0x24:  1280x1024   75.024675 Hz   5:4     79.976 kHz    135.000000 MHz
    Apple   :  1152x870    75.061550 Hz 192:145   68.681 kHz    100.000000 MHz
  Standard Timings:
    DMT 0x07:   640x480    85.008312 Hz   4:3     43.269 kHz     36.000000 MHz
    DMT 0x0c:   800x600    85.061274 Hz   4:3     53.674 kHz     56.250000 MHz
    DMT 0x13:  1024x768    84.996690 Hz   4:3     68.677 kHz     94.500000 MHz
    DMT 0x23:  1280x1024   60.019740 Hz   5:4     63.981 kHz    108.000000 MHz
    DMT 0x24:  1280x1024   75.024675 Hz   5:4     79.976 kHz    135.000000 MHz
    DMT 0x33:  1600x1200   60.000000 Hz   4:3     75.000 kHz    162.000000 MHz
  Detailed Timing Descriptors:
    DTD 1:  1600x1200   60.000000 Hz   4:3     75.000 kHz    162.000000 MHz (408 mm x 306 mm)
                 Hfront   64 Hsync 192 Hback  304 Hpol P
                 Vfront    1 Vsync   3 Vback   46 Vpol N
    Display Range Limits:
      Monitor ranges (GTF): 56-85 Hz V, 28-92 kHz H, max dotclock 170 MHz
    Display Product Name: 'photon20visio'
    Display Product Name: 'n2'
Checksum: 0xd8

----------------

Block 1, Unknown EDID Extension Block 0x00:
  00 ff ff ff ff ff ff 00 30 23 20 0b ac 00 00 00 '........0# .....'
  04 0e 01 03 6e 29 1f 78 ea 60 e5 a3 57 4b 9c 25 '....n).x.`..WK.%'
  11 50 54 a5 6b 80 31 59 45 59 61 59 81 80 81 8f '.PT.k.1YEYaY....'
  a9 40 01 01 01 01 48 3f 40 30 62 b0 32 40 40 c0 '.@....H?@0b.2@@.'
  13 00 98 32 11 00 00 1a 00 00 00 fd 00 38 55 1c '...2.........8U.'
  5c 11 00 0a 20 20 20 20 20 20 00 00 00 fc 00 70 '\...      .....p'
  68 6f 74 6f 6e 32 30 76 69 73 69 6f 00 00 00 fc 'hoton20visio....'
  00 6e 32 0a 20 20 20 20 20 20 20 20 20 20 00 d8 '.n2.          ..'
Checksum: 0xd8

----------------

Warnings:

Block 0, Base EDID:
  Detailed Timing Descriptor #1: DTD is similar but not identical to DMT 0x33.

Failures:

Block 1, Base EDID:
  Unknown Extension Block.
EDID:
  Base EDID: EDID specified 0 extension block(s), but found 1 extension block(s).

EDID conformity: FAIL
