
EDID (hex):
00ffffffffffff0051b8011600000000
1e1f0104b5231678078a21a4534c9925
10505400000001010101010101010101
0101010101010d6f00a0a0408e603020
360059d71000001a000000fd0c3cf08b
8b72010a202020202020000000100c30
f0505043000a202020202020000000fc
00544c31363041444d5031312d300276
02031f00e3058000e60607016a6a2372
1a0000030b30f000046a236a23f00000
00000000000000000000000000000000
00000000000000000000000000000000
00000000000000000000000000000000
00000000000000000000000000000000
00000000000000000000000000000000
000000000000000000000000000018a9
701379000003011434bc0184ff099f00
2f001f003f068d000200050000000000
00000000000000000000000000000000
00000000000000000000000000000000
00000000000000000000000000000000
00000000000000000000000000000000
00000000000000000000000000000000
00000000000000000000000000001990

edid-decode (hex):

00 ff ff ff ff ff ff 00 51 b8 01 16 00 00 00 00
1e 1f 01 04 b5 23 16 78 07 8a 21 a4 53 4c 99 25
10 50 54 00 00 00 01 01 01 01 01 01 01 01 01 01
01 01 01 01 01 01 0d 6f 00 a0 a0 40 8e 60 30 20
36 00 59 d7 10 00 00 1a 00 00 00 fd 0c 3c f0 8b
8b 72 01 0a 20 20 20 20 20 20 00 00 00 10 0c 30
f0 50 50 43 00 0a 20 20 20 20 20 20 00 00 00 fc
00 54 4c 31 36 30 41 44 4d 50 31 31 2d 30 02 76

02 03 1f 00 e3 05 80 00 e6 06 07 01 6a 6a 23 72
1a 00 00 03 0b 30 f0 00 04 6a 23 6a 23 f0 00 00
00 00 00 00 00 00 00 00 00 00 00 00 00 00 00 00
00 00 00 00 00 00 00 00 00 00 00 00 00 00 00 00
00 00 00 00 00 00 00 00 00 00 00 00 00 00 00 00
00 00 00 00 00 00 00 00 00 00 00 00 00 00 00 00
00 00 00 00 00 00 00 00 00 00 00 00 00 00 00 00
00 00 00 00 00 00 00 00 00 00 00 00 00 00 18 a9

70 13 79 00 00 03 01 14 34 bc 01 84 ff 09 9f 00
2f 00 1f 00 3f 06 8d 00 02 00 05 00 00 00 00 00
00 00 00 00 00 00 00 00 00 00 00 00 00 00 00 00
00 00 00 00 00 00 00 00 00 00 00 00 00 00 00 00
00 00 00 00 00 00 00 00 00 00 00 00 00 00 00 00
00 00 00 00 00 00 00 00 00 00 00 00 00 00 00 00
00 00 00 00 00 00 00 00 00 00 00 00 00 00 00 00
00 00 00 00 00 00 00 00 00 00 00 00 00 00 19 90

----------------

Block 0, Base EDID:
  EDID Structure Version & Revision: 1.4
  Vendor & Product Identification:
    Manufacturer: TMX
    Model: 5633
    Made in: week 30 of 2021
  Basic Display Parameters & Features:
    Digital display
    Bits per primary color channel: 10
    DisplayPort interface
    Maximum image size: 35 cm x 22 cm
    Gamma: 2.20
    Supported color formats: RGB 4:4:4
    Default (sRGB) color space is primary color space
    First detailed timing includes the native pixel format and preferred refresh rate
    Display is continuous frequency
  Color Characteristics:
    Red  : 0.6425, 0.3242
    Green: 0.2988, 0.5996
    Blue : 0.1445, 0.0644
    White: 0.3125, 0.3291
  Established Timings I & II: none
  Standard Timings: none
  Detailed Timing Descriptors:
    DTD 1:  2560x1600   59.999071 Hz  16:10   104.518 kHz    284.290000 MHz (345 mm x 215 mm)
                 Hfront   48 Hsync  32 Hback   80 Hpol P
                 Vfront    3 Vsync   6 Vback  133 Vpol N
    Display Range Limits:
      Monitor ranges (Bare Limits): 60-240 Hz V, 394-394 kHz H, max dotclock 1140 MHz
    Dummy Descriptor:
    Display Product Name: 'TL160ADMP11-0'
  Extension blocks: 2
Checksum: 0x76

----------------

Block 1, CTA-861 Extension Block:
  Revision: 3
  Native detailed modes: 0
  Colorimetry Data Block:
    BT2020RGB
  HDR Static Metadata Data Block:
    Electro optical transfer functions:
      Traditional gamma - SDR luminance range
      Traditional gamma - HDR luminance range
      SMPTE ST2084
    Supported static metadata descriptors:
      Static metadata type 1
    Desired content max luminance: 106 (496.743 cd/m^2)
    Desired content max frame-average luminance: 106 (496.743 cd/m^2)
    Desired content min luminance: 35 (0.094 cd/m^2)
  Vendor-Specific Data Block (AMD), OUI 00-00-1A:
    Version: 3.11
    Minimum Refresh Rate: 48 Hz
    Maximum Refresh Rate: 240 Hz
    Flags 1.x: 0x00
    Flags 2.x: 0x04
    Maximum luminance: 106 (496.743 cd/m^2)
    Minimum luminance: 35 (0.094 cd/m^2)
    Maximum luminance (without local dimming): 106 (496.743 cd/m^2)
    Minimum luminance (without local dimming): 35 (0.094 cd/m^2)
Checksum: 0xa9  Unused space in Extension Block: 96 bytes

----------------

Block 2, DisplayID Extension Block:
  Version: 1.3
  Extension Count: 0
  Display Product Type: Extension Section
  Video Timing Modes Type 1 - Detailed Timings Data Block:
    DTD:  2560x1600  239.998396 Hz  16:9    418.077 kHz   1137.170000 MHz (aspect 16:9, no 3D stereo, preferred)
               Hfront   48 Hsync  32 Hback   80 Hpol N
               Vfront    3 Vsync   6 Vback  133 Vpol N
  Checksum: 0x19
Checksum: 0x90
