edid-decode (hex):

00 ff ff ff ff ff ff 00 0d ae 45 16 00 00 00 00
0d 22 01 04 a5 22 16 78 02 ac 65 94 59 52 8e 27
1e 50 54 00 00 00 01 01 01 01 01 01 01 01 01 01
01 01 01 01 01 01 42 3c 80 a0 70 b0 24 40 30 20
a6 00 58 d7 10 00 00 1a 42 3c 80 a0 70 b0 59 41
30 20 a6 00 58 d7 10 00 00 00 00 00 00 fe 00 54
36 34 57 48 80 31 36 30 4a 43 41 0a 00 00 00 00
00 02 41 01 9e 00 00 00 00 0a 01 0a 20 20 00 0f

00 ff ff ff ff ff ff 00 0d ae 45 16 00 00 00 00
0d 22 01 04 a5 22 16 78 02 ac 65 94 59 52 8e 27
1e 50 54 00 00 00 01 01 01 01 01 01 01 01 01 01
01 01 01 01 01 01 42 3c 80 a0 70 b0 24 40 30 20
a6 00 58 d7 10 00 00 1a 42 3c 80 a0 70 b0 59 41
30 20 a6 00 58 d7 10 00 00 00 00 00 00 fe 00 54
36 34 57 48 80 31 36 30 4a 43 41 0a 00 00 00 00
00 02 41 01 9e 00 00 00 00 0a 01 0a 20 20 00 0f

----------------

Block 0, Base EDID:
  EDID Structure Version & Revision: 1.4
  Vendor & Product Identification:
    Manufacturer: CMN
    Model: 5701
    Made in: week 13 of 2024
  Basic Display Parameters & Features:
    Digital display
    Bits per primary color channel: 8
    DisplayPort interface
    Maximum image size: 34 cm x 22 cm
    Gamma: 2.20
    Supported color formats: RGB 4:4:4
    First detailed timing includes the native pixel format and preferred refresh rate
  Color Characteristics:
    Red  : 0.5800, 0.3496
    Green: 0.3232, 0.5546
    Blue : 0.1533, 0.1191
    White: 0.3134, 0.3291
  Established Timings I & II: none
  Standard Timings: none
  Detailed Timing Descriptors:
    DTD 1:  1920x1200   60.002801 Hz  16:10    74.163 kHz    154.260000 MHz (344 mm x 215 mm)
                 Hfront   48 Hsync  32 Hback   80 Hpol P
                 Vfront   10 Vsync   6 Vback   20 Vpol N
    DTD 2:  1920x1200   48.002240 Hz  16:10    74.163 kHz    154.260000 MHz (analog composite, sync-on-green, 344 mm x 215 mm)
                 Hfront   48 Hsync  32 Hback   80 Hpol N
                 Vfront   10 Vsync   6 Vback  329 Vpol N
    Alphanumeric Data String: 'T64WH'
    Manufacturer-Specified Display Descriptor (0x00): 00 00 00 02 41 01 9e 00 00 00 00 0a 01 0a 20 20 '....A.........  '
Checksum: 0x0f

----------------

Block 1, Unknown EDID Extension Block 0x00:
  00 ff ff ff ff ff ff 00 0d ae 45 16 00 00 00 00 '..........E.....'
  0d 22 01 04 a5 22 16 78 02 ac 65 94 59 52 8e 27 '."...".x..e.YR.''
  1e 50 54 00 00 00 01 01 01 01 01 01 01 01 01 01 '.PT.............'
  01 01 01 01 01 01 42 3c 80 a0 70 b0 24 40 30 20 '......B<..p.$@0 '
  a6 00 58 d7 10 00 00 1a 42 3c 80 a0 70 b0 59 41 '..X.....B<..p.YA'
  30 20 a6 00 58 d7 10 00 00 00 00 00 00 fe 00 54 '0 ..X..........T'
  36 34 57 48 80 31 36 30 4a 43 41 0a 00 00 00 00 '64WH.160JCA.....'
  00 02 41 01 9e 00 00 00 00 0a 01 0a 20 20 00 0f '..A.........  ..'
Checksum: 0x0f

----------------

Warnings:

Block 0, Base EDID:
  Missing Display Product Name.

Failures:

Block 0, Base EDID:
  Alphanumeric Data String: Non-printable character.
Block 1, Base EDID:
  Unknown Extension Block.
EDID:
  Base EDID: EDID specified 0 extension block(s), but found 1 extension block(s).

EDID conformity: FAIL
