
EDID (hex):
00ffffffffffff0006af8b5100000000
001d0104951d11780393059258599029
1d505400000001010101010101010101
0101010101017e4080187138aa401010
3e0025a510000018ff2a80187138aa40
10103e0025a510000018000000000000
00000000000000000000000000000002
001048ff0f3c7d140e1d7d2020200096

Extracted contents:
header:          00 ff ff ff ff ff ff 00
serial number:   06 af 8b 51 00 00 00 00 00 1d
version:         01 04
basic params:    95 1d 11 78 03
chroma info:     93 05 92 58 59 90 29 1d 50 54
established:     00 00 00
standard:        01 01 01 01 01 01 01 01 01 01 01 01 01 01 01 01
descriptor 1:    7e 40 80 18 71 38 aa 40 10 10 3e 00 25 a5 10 00 00 18
descriptor 2:    ff 2a 80 18 71 38 aa 40 10 10 3e 00 25 a5 10 00 00 18
descriptor 3:    00 00 00 00 00 00 00 00 00 00 00 00 00 00 00 00 00 00
descriptor 4:    00 00 00 02 00 10 48 ff 0f 3c 7d 14 0e 1d 7d 20 20 20
extensions:      00
checksum:        96

EDID version: 1.4
Manufacturer: AUO Model 518b Serial Number --
Made in year 2019
Digital display
6 bits per primary color channel
DisplayPort interface
Maximum image size: 29 cm x 17 cm
Gamma: 2.20
Supported color formats: RGB 4:4:4
First detailed timing includes the native pixel format and preferred refresh rate
Display is continuous frequency
Display x,y Chromaticity:
  Red:   0.5722, 0.3447
  Green: 0.3476, 0.5654
  Blue:  0.1601, 0.1132
  White: 0.3134, 0.3291
Established timings supported:
Standard timings supported:
Detailed mode: Clock 165.100 MHz, 293 mm x 165 mm
               1920 1936 1952 2200 hborder 0
               1080 1083 1097 1250 vborder 0
               -hsync -vsync 
               VertFreq: 60 Hz, HorFreq: 75045 Hz
Detailed mode: Clock 110.070 MHz, 293 mm x 165 mm
               1920 1936 1952 2200 hborder 0
               1080 1083 1097 1250 vborder 0
               -hsync -vsync 
               VertFreq: 40 Hz, HorFreq: 50031 Hz
Manufacturer-specified data, tag 0
Manufacturer-specified data, tag 2
Checksum: 0x96 (valid)
EDID block does NOT conform to EDID 1.4!
	Missing name descriptor
	Missing monitor ranges


