edid-decode (hex):

00 ff ff ff ff ff ff 00 22 f0 3d 0f ac 04 00 00
2e 0b 01 03 68 1e 17 78 ea ac c9 9e 54 4c 9c 23
1c 50 58 a5 4e 00 61 40 01 01 01 01 01 01 01 01
01 01 01 01 01 01 64 19 00 40 41 00 26 30 18 88
36 00 30 e4 10 00 00 18 00 00 00 fc 00 48 50 20
66 78 35 30 0a 20 20 20 20 20 00 00 00 ff 00 54
57 4b 44 54 30 31 31 39 36 20 20 20 00 00 00 fd
00 38 4b 1f 3c 08 0a 20 20 20 20 20 20 20 00 22

----------------

Block 0, Base EDID:
  EDID Structure Version & Revision: 1.3
  Vendor & Product Identification:
    Manufacturer: HWP
    Model: 3901
    Serial Number: ...
    Made in: week 46 of 2001
  Basic Display Parameters & Features:
    Analog display
    Input voltage level: 0.7/0.7 V
    Blank level equals black level
    Sync: Separate
    Maximum image size: 30 cm x 23 cm
    Gamma: 2.20
    DPMS levels: Standby Suspend Off
    RGB color display
    First detailed timing is the preferred timing
  Color Characteristics:
    Red  : 0.6191, 0.3300
    Green: 0.2998, 0.6093
    Blue : 0.1396, 0.1093
    White: 0.3144, 0.3447
  Established Timings I & II:
    IBM     :   720x400    70.082 Hz   9:5    31.467 kHz  28.320 MHz
    DMT 0x04:   640x480    59.940 Hz   4:3    31.469 kHz  25.175 MHz
    DMT 0x06:   640x480    75.000 Hz   4:3    37.500 kHz  31.500 MHz
    DMT 0x09:   800x600    60.317 Hz   4:3    37.879 kHz  40.000 MHz
    DMT 0x0b:   800x600    75.000 Hz   4:3    46.875 kHz  49.500 MHz
    DMT 0x10:  1024x768    60.004 Hz   4:3    48.363 kHz  65.000 MHz
    DMT 0x11:  1024x768    70.069 Hz   4:3    56.476 kHz  75.000 MHz
    DMT 0x12:  1024x768    75.029 Hz   4:3    60.023 kHz  78.750 MHz
  Standard Timings:
    DMT 0x10:  1024x768    60.004 Hz   4:3    48.363 kHz  65.000 MHz
  Detailed Timing Descriptors:
    DTD 1:  1024x768    60.004 Hz   4:3    48.363 kHz  65.000 MHz (304 mm x 228 mm)
                 Hfront   24 Hsync 136 Hback 160 Hpol N
                 Vfront    3 Vsync   6 Vback  29 Vpol N
    Display Product Name: 'HP fx50'
    Display Product Serial Number: ...
  Display Range Limits:
    Monitor ranges (Unknown (0x0a)): 56-75 Hz V, 31-60 kHz H, max dotclock 80 MHz
Checksum: 0x22

----------------

Failures:

Block 0, Base EDID:
  Display Product Serial Number: One or more trailing spaces.
  Display Range Limits: Unknown range class (0x0a).
  Display Range Limits: Byte 11 is 0x20 instead of 0x0a.

EDID conformity: FAIL
