edid-decode (hex):

00 ff ff ff ff ff ff 00 38 a3 ac 2b 01 01 01 01
1b 1a 01 03 80 40 28 78 ea 1d f5 ae 4f 35 b3 25
0d 50 54 bf ef 80 81 00 81 80 90 40 81 c0 95 00
a9 40 b3 00 d1 c0 a9 33 00 a0 a0 40 17 60 30 20
36 00 81 91 21 00 00 1a 00 00 00 fd 00 38 4c 1f
63 1b 00 0a 20 20 20 20 20 20 00 00 00 fc 00 45
41 33 30 35 57 4d 69 0a 20 20 20 20 00 00 00 ff
00 36 37 31 30 30 31 36 32 4e 42 0a 20 20 01 cd

02 03 1d f1 47 90 04 03 1f 13 01 12 23 09 07 07
83 01 00 00 68 03 0c 00 10 00 38 3c 01 28 3c 80
a0 70 b0 23 40 30 20 36 00 81 91 21 00 00 1a ad
43 00 d0 51 40 3a 60 60 88 3a 00 81 91 21 00 00
1c 02 3a 80 d0 72 38 2d 40 10 2c 45 80 81 91 21
00 00 1e 21 39 00 00 a3 a0 1c 50 78 08 35 10 81
91 21 00 00 1c 10 40 00 20 a3 40 1e 60 88 08 36
10 81 91 21 00 00 1c 00 00 00 00 00 00 00 00 d2

00 ff ff ff ff ff ff 00 38 a3 ac 2b 01 01 01 01
1b 1a 01 03 80 40 28 78 ea 1d f5 ae 4f 35 b3 25
0d 50 54 bf ef 80 81 00 81 80 90 40 81 c0 95 00
a9 40 b3 00 d1 c0 a9 33 00 a0 a0 40 17 60 30 20
36 00 81 91 21 00 00 1a 00 00 00 fd 00 38 4c 1f
63 1b 00 0a 20 20 20 20 20 20 00 00 00 fc 00 45
41 33 30 35 57 4d 69 0a 20 20 20 20 00 00 00 ff
00 36 37 31 30 30 31 36 32 4e 42 0a 20 20 01 cd

02 03 1d f1 47 90 04 03 1f 13 01 12 23 09 07 07
83 01 00 00 68 03 0c 00 10 00 38 3c 01 28 3c 80
a0 70 b0 23 40 30 20 36 00 81 91 21 00 00 1a ad
43 00 d0 51 40 3a 60 60 88 3a 00 81 91 21 00 00
1c 02 3a 80 d0 72 38 2d 40 10 2c 45 80 81 91 21
00 00 1e 21 39 00 00 a3 a0 1c 50 78 08 35 10 81
91 21 00 00 1c 10 40 00 20 a3 40 1e 60 88 08 36
10 81 91 21 00 00 1c 00 00 00 00 00 00 00 00 d2

----------------

Block 0, Base EDID:
  EDID Structure Version & Revision: 1.3
  Vendor & Product Identification:
    Manufacturer: NEC
    Model: 11180
    Serial Number: ...
    Made in: week 27 of 2016
  Basic Display Parameters & Features:
    Digital display
    Maximum image size: 64 cm x 40 cm
    Gamma: 2.20
    DPMS levels: Standby Suspend Off
    RGB color display
    First detailed timing is the preferred timing
  Color Characteristics:
    Red  : 0.6796, 0.3095
    Green: 0.2099, 0.7001
    Blue : 0.1474, 0.0537
    White: 0.3134, 0.3291
  Established Timings I & II:
    IBM     :   720x400    70.081663 Hz   9:5     31.467 kHz     28.320000 MHz
    DMT 0x04:   640x480    59.940476 Hz   4:3     31.469 kHz     25.175000 MHz
    Apple   :   640x480    66.666667 Hz   4:3     35.000 kHz     30.240000 MHz
    DMT 0x05:   640x480    72.808802 Hz   4:3     37.861 kHz     31.500000 MHz
    DMT 0x06:   640x480    75.000000 Hz   4:3     37.500 kHz     31.500000 MHz
    DMT 0x08:   800x600    56.250000 Hz   4:3     35.156 kHz     36.000000 MHz
    DMT 0x09:   800x600    60.316541 Hz   4:3     37.879 kHz     40.000000 MHz
    DMT 0x0a:   800x600    72.187572 Hz   4:3     48.077 kHz     50.000000 MHz
    DMT 0x0b:   800x600    75.000000 Hz   4:3     46.875 kHz     49.500000 MHz
    Apple   :   832x624    74.551266 Hz   4:3     49.726 kHz     57.284000 MHz
    DMT 0x10:  1024x768    60.003840 Hz   4:3     48.363 kHz     65.000000 MHz
    DMT 0x11:  1024x768    70.069359 Hz   4:3     56.476 kHz     75.000000 MHz
    DMT 0x12:  1024x768    75.028582 Hz   4:3     60.023 kHz     78.750000 MHz
    DMT 0x24:  1280x1024   75.024675 Hz   5:4     79.976 kHz    135.000000 MHz
    Apple   :  1152x870    75.061550 Hz 192:145   68.681 kHz    100.000000 MHz
  Standard Timings:
    DMT 0x1c:  1280x800    59.810326 Hz  16:10    49.702 kHz     83.500000 MHz
    DMT 0x23:  1280x1024   60.019740 Hz   5:4     63.981 kHz    108.000000 MHz
    DMT 0x2a:  1400x1050   59.978442 Hz   4:3     65.317 kHz    121.750000 MHz
    DMT 0x55:  1280x720    60.000000 Hz  16:9     45.000 kHz     74.250000 MHz
    DMT 0x2f:  1440x900    59.887445 Hz  16:10    55.935 kHz    106.500000 MHz
    DMT 0x33:  1600x1200   60.000000 Hz   4:3     75.000 kHz    162.000000 MHz
    DMT 0x3a:  1680x1050   59.954250 Hz  16:10    65.290 kHz    146.250000 MHz
    DMT 0x52:  1920x1080   60.000000 Hz  16:9     67.500 kHz    148.500000 MHz
  Detailed Timing Descriptors:
    DTD  1:  2560x1600   29.957685 Hz  16:10    48.621 kHz    132.250000 MHz (641 mm x 401 mm)
                  Hfront   48 Hsync  32 Hback   80 Hpol P
                  Vfront    3 Vsync   6 Vback   14 Vpol N
    Display Range Limits:
      Monitor ranges (GTF): 56-76 Hz V, 31-99 kHz H, max dotclock 270 MHz
    Display Product Name: 'EA305WMi'
    Display Product Serial Number: ...
  Extension blocks: 1
Checksum: 0xcd

----------------

Block 1, CTA-861 Extension Block:
  Revision: 3
  Underscans IT Video Formats by default
  Basic audio support
  Supports YCbCr 4:4:4
  Supports YCbCr 4:2:2
  Native detailed modes: 1
  Video Data Block:
    VIC  16:  1920x1080   60.000000 Hz  16:9     67.500 kHz    148.500000 MHz (native)
    VIC   4:  1280x720    60.000000 Hz  16:9     45.000 kHz     74.250000 MHz
    VIC   3:   720x480    59.940060 Hz  16:9     31.469 kHz     27.000000 MHz
    VIC  31:  1920x1080   50.000000 Hz  16:9     56.250 kHz    148.500000 MHz
    VIC  19:  1280x720    50.000000 Hz  16:9     37.500 kHz     74.250000 MHz
    VIC   1:   640x480    59.940476 Hz   4:3     31.469 kHz     25.175000 MHz
    VIC  18:   720x576    50.000000 Hz  16:9     31.250 kHz     27.000000 MHz
  Audio Data Block:
    Linear PCM:
      Max channels: 2
      Supported sample rates (kHz): 48 44.1 32
      Supported sample sizes (bits): 24 20 16
  Speaker Allocation Data Block:
    FL/FR - Front Left/Right
  Vendor-Specific Data Block (HDMI), OUI 00-0C-03:
    Source physical address: 1.0.0.0
    DC_36bit
    DC_30bit
    DC_Y444
    Maximum TMDS clock: 300 MHz
    Supported Content Types:
      Graphics
  Detailed Timing Descriptors:
    DTD  2:  1920x1200   59.950171 Hz  16:10    74.038 kHz    154.000000 MHz (641 mm x 401 mm)
                  Hfront   48 Hsync  32 Hback   80 Hpol P
                  Vfront    3 Vsync   6 Vback   26 Vpol N
    DTD  3:  1280x1600   59.915921 Hz   4:5     99.341 kHz    173.250000 MHz (641 mm x 401 mm)
                  Hfront   96 Hsync 136 Hback  232 Hpol N
                  Vfront    3 Vsync  10 Vback   45 Vpol P
    DTD  4:  1920x1080   50.000000 Hz  16:9     56.250 kHz    148.500000 MHz (641 mm x 401 mm)
                  Hfront  528 Hsync  44 Hback  148 Hpol P
                  Vfront    4 Vsync   5 Vback   36 Vpol P
    DTD  5:  2560x1440   29.935499 Hz  16:9     43.945 kHz    146.250000 MHz (641 mm x 401 mm)
                  Hfront  120 Hsync 264 Hback  384 Hpol N
                  Vfront    3 Vsync   5 Vback   20 Vpol P
    DTD  6:  2560x1600   29.944493 Hz  16:10    48.810 kHz    164.000000 MHz (641 mm x 401 mm)
                  Hfront  136 Hsync 264 Hback  400 Hpol N
                  Vfront    3 Vsync   6 Vback   21 Vpol P
Checksum: 0xd2  Unused space in Extension Block: 8 bytes

----------------

Block 2, Unknown EDID Extension Block 0x00:
  00 ff ff ff ff ff ff 00 38 a3 ac 2b 01 01 01 01 '........8..+....'
  1b 1a 01 03 80 40 28 78 ea 1d f5 ae 4f 35 b3 25 '.....@(x....O5.%'
  0d 50 54 bf ef 80 81 00 81 80 90 40 81 c0 95 00 '.PT........@....'
  a9 40 b3 00 d1 c0 a9 33 00 a0 a0 40 17 60 30 20 '.@.....3...@.`0 '
  36 00 81 91 21 00 00 1a 00 00 00 fd 00 38 4c 1f '6...!........8L.'
  63 1b 00 0a 20 20 20 20 20 20 00 00 00 fc 00 45 'c...      .....E'
  41 33 30 35 57 4d 69 0a 20 20 20 20 00 00 00 ff 'A305WMi.    ....'
  00 36 37 31 30 30 31 36 32 4e 42 0a 20 20 01 cd '.67100162NB.  ..'
Checksum: 0xcd

----------------

Block 3, CTA-861 Extension Block:
  Revision: 3
  Underscans IT Video Formats by default
  Basic audio support
  Supports YCbCr 4:4:4
  Supports YCbCr 4:2:2
  Native detailed modes: 1
  Video Data Block:
    VIC  16:  1920x1080   60.000000 Hz  16:9     67.500 kHz    148.500000 MHz (native)
    VIC   4:  1280x720    60.000000 Hz  16:9     45.000 kHz     74.250000 MHz
    VIC   3:   720x480    59.940060 Hz  16:9     31.469 kHz     27.000000 MHz
    VIC  31:  1920x1080   50.000000 Hz  16:9     56.250 kHz    148.500000 MHz
    VIC  19:  1280x720    50.000000 Hz  16:9     37.500 kHz     74.250000 MHz
    VIC   1:   640x480    59.940476 Hz   4:3     31.469 kHz     25.175000 MHz
    VIC  18:   720x576    50.000000 Hz  16:9     31.250 kHz     27.000000 MHz
  Audio Data Block:
    Linear PCM:
      Max channels: 2
      Supported sample rates (kHz): 48 44.1 32
      Supported sample sizes (bits): 24 20 16
  Speaker Allocation Data Block:
    FL/FR - Front Left/Right
  Vendor-Specific Data Block (HDMI), OUI 00-0C-03:
    Source physical address: 1.0.0.0
    DC_36bit
    DC_30bit
    DC_Y444
    Maximum TMDS clock: 300 MHz
    Supported Content Types:
      Graphics
  Detailed Timing Descriptors:
    DTD  7:  1920x1200   59.950171 Hz  16:10    74.038 kHz    154.000000 MHz (641 mm x 401 mm)
                  Hfront   48 Hsync  32 Hback   80 Hpol P
                  Vfront    3 Vsync   6 Vback   26 Vpol N
    DTD  8:  1280x1600   59.915921 Hz   4:5     99.341 kHz    173.250000 MHz (641 mm x 401 mm)
                  Hfront   96 Hsync 136 Hback  232 Hpol N
                  Vfront    3 Vsync  10 Vback   45 Vpol P
    DTD  9:  1920x1080   50.000000 Hz  16:9     56.250 kHz    148.500000 MHz (641 mm x 401 mm)
                  Hfront  528 Hsync  44 Hback  148 Hpol P
                  Vfront    4 Vsync   5 Vback   36 Vpol P
    DTD 10:  2560x1440   29.935499 Hz  16:9     43.945 kHz    146.250000 MHz (641 mm x 401 mm)
                  Hfront  120 Hsync 264 Hback  384 Hpol N
                  Vfront    3 Vsync   5 Vback   20 Vpol P
    DTD 11:  2560x1600   29.944493 Hz  16:10    48.810 kHz    164.000000 MHz (641 mm x 401 mm)
                  Hfront  136 Hsync 264 Hback  400 Hpol N
                  Vfront    3 Vsync   6 Vback   21 Vpol P
Checksum: 0xd2  Unused space in Extension Block: 8 bytes

----------------

Warnings:

Block 1, CTA-861 Extension Block:
  Display Product Serial Number is set, so the Serial Number in the Base EDID should be 0.
  Add a Colorimetry Data Block with the sRGB colorimetry bit set to avoid interop issues.
Block 3, CTA-861 Extension Block:
  Display Product Serial Number is set, so the Serial Number in the Base EDID should be 0.
  Add a Colorimetry Data Block with the sRGB colorimetry bit set to avoid interop issues.

Failures:

Block 1, CTA-861 Extension Block:
  Missing VCDB, needed for Set Selectable RGB Quantization to avoid interop issues.
Block 2, Base EDID:
  Unknown Extension Block.
Block 3, CTA-861 Extension Block:
  Video Data Block: Duplicate VIC 16.
  Video Data Block: Duplicate VIC 4.
  Video Data Block: Duplicate VIC 3.
  Video Data Block: Duplicate VIC 31.
  Video Data Block: Duplicate VIC 19.
  Video Data Block: Duplicate VIC 1.
  Video Data Block: Duplicate VIC 18.
  Speaker Allocation Data Block: Only one instance of this Data Block is allowed.
  Missing VCDB, needed for Set Selectable RGB Quantization to avoid interop issues.
EDID:
  Base EDID: Some timings are out of range of the Monitor Ranges:
    Vertical Freq: 29.935 - 75.062 Hz (Monitor: 56.000 - 76.000 Hz)
  Base EDID: EDID specified 1 extension block(s), but found 3 extension block(s).
  Base EDID: EDID 1.3 requires a Block Map Extension in Block 1 if there are more than 2 blocks in the EDID.
  CTA-861: Native progressive timings are a mix of several resolutions.

EDID conformity: FAIL
