edid-decode (hex):

00 ff ff ff ff ff ff 00 0d ae 72 14 00 00 00 00
24 15 01 04 90 1f 11 78 02 d1 45 9b 59 57 8e 2b
23 50 54 00 00 00 01 01 01 01 01 01 01 01 01 01
01 01 01 01 01 01 8b 1b 56 83 50 00 11 30 30 20
14 00 35 ae 10 00 00 1a 5d 12 56 83 50 00 11 30
30 20 14 00 35 ae 10 00 00 1a 00 00 00 fe 00 58
39 50 32 48 82 31 34 31 42 47 45 0a 00 00 00 00
00 00 41 31 94 01 10 00 00 01 01 0a 20 20 00 e5

----------------

Block 0, Base EDID:
  EDID Structure Version & Revision: 1.4
  Vendor & Product Identification:
    Manufacturer: CMN
    Model: 5234
    Made in: week 36 of 2011
  Basic Display Parameters & Features:
    Digital display
    Bits per primary color channel: 6
    Digital interface is not defined
    Maximum image size: 31 cm x 17 cm
    Gamma: 2.20
    Supported color formats: RGB 4:4:4
    First detailed timing includes the native pixel format and preferred refresh rate
  Color Characteristics:
    Red  : 0.6083, 0.3486
    Green: 0.3398, 0.5556
    Blue : 0.1689, 0.1367
    White: 0.3134, 0.3291
  Established Timings I & II: none
  Standard Timings: none
  Detailed Timing Descriptors:
    DTD 1:  1366x768    60.001 Hz 683:384  47.101 kHz  70.510 MHz (309 mm x 174 mm)
                 Hfront   48 Hsync  32 Hback  51 Hpol P
                 Vfront    1 Vsync   4 Vback  12 Vpol N
    DTD 2:  1366x768    40.004 Hz 683:384  31.403 kHz  47.010 MHz (309 mm x 174 mm)
                 Hfront   48 Hsync  32 Hback  51 Hpol P
                 Vfront    1 Vsync   4 Vback  12 Vpol N
    Alphanumeric Data String: 'X9P2H'
    Manufacturer-Specified Display Descriptor (0x00): 00 00 00 00 41 31 94 01 10 00 00 01 01 0a 20 20 '....A1........  '
Checksum: 0xe5

----------------

Failures:

Block 0, Base EDID:
  Alphanumeric Data String: Non-printable character.
  Missing Display Product Name.

EDID conformity: FAIL
