
EDID (hex):
00ffffffffffff0041d0000006000000
12190103803228000a07f59a574e8726
1e505400000001010101010101010101
010101010101ce18003041001e303068
34002cc81000001a000000fc004c5644
53203130323478373638000000100000
00000000000000000000000000000010
0000000000000000000000000000003a

edid-decode (hex):

00 ff ff ff ff ff ff 00 41 d0 00 00 06 00 00 00
12 19 01 03 80 32 28 00 0a 07 f5 9a 57 4e 87 26
1e 50 54 00 00 00 01 01 01 01 01 01 01 01 01 01
01 01 01 01 01 01 ce 18 00 30 41 00 1e 30 30 68
34 00 2c c8 10 00 00 1a 00 00 00 fc 00 4c 56 44
53 20 31 30 32 34 78 37 36 38 00 00 00 10 00 00
00 00 00 00 00 00 00 00 00 00 00 00 00 00 00 10
00 00 00 00 00 00 00 00 00 00 00 00 00 00 00 3a

----------------

Block 0, Base EDID:
  EDID Structure Version & Revision: 1.3
  Vendor & Product Identification:
    Manufacturer: PNP
    Model: 0
    Serial Number: 6
    Made in: week 18 of 2015
  Basic Display Parameters & Features:
    Digital display
    Maximum image size: 50 cm x 40 cm
    Gamma: 1.00
    RGB color display
    First detailed timing is the preferred timing
  Color Characteristics:
    Red  : 0.6015, 0.3398
    Green: 0.3056, 0.5302
    Blue : 0.1513, 0.1201
    White: 0.3134, 0.3291
  Established Timings I & II: none
  Standard Timings: none
  Detailed Timing Descriptors:
    DTD 1:  1024x768    59.920132 Hz   4:3     47.816 kHz     63.500000 MHz (300 mm x 200 mm)
                 Hfront   48 Hsync 104 Hback  152 Hpol P
                 Vfront    3 Vsync   4 Vback   23 Vpol N
    Display Product Name: 'LVDS 1024x768'
    Dummy Descriptor:
    Dummy Descriptor:
Checksum: 0x3a
