edid-decode (hex):

00 ff ff ff ff ff ff 00 09 e5 c3 0b 00 00 00 00
28 20 01 04 b5 1e 14 78 03 ee 95 a3 54 4c 99 26
0f 50 54 00 00 00 01 01 01 01 01 01 01 01 01 01
01 01 01 01 01 01 1a dd d8 a0 90 90 50 60 30 20
36 00 2c c8 10 00 00 1a 1a dd d8 a0 90 90 30 67
30 20 36 00 2c c8 10 00 00 1a 00 00 00 fd 00 1e
78 d3 d3 39 01 0a 20 20 20 20 20 20 00 00 00 fe
00 4e 45 31 34 32 44 4b 4d 2d 4e 32 31 0a 01 7c

70 13 79 00 00 03 01 14 19 dd 00 04 d7 09 9f 00
2f 00 1f 00 8f 06 2f 07 02 00 05 00 00 00 00 00
00 00 00 00 00 00 00 00 00 00 00 00 00 00 00 00
00 00 00 00 00 00 00 00 00 00 00 00 00 00 00 00
00 00 00 00 00 00 00 00 00 00 00 00 00 00 00 00
00 00 00 00 00 00 00 00 00 00 00 00 00 00 00 00
00 00 00 00 00 00 00 00 00 00 00 00 00 00 00 00
00 00 00 00 00 00 00 00 00 00 00 00 00 00 c3 90

00 ff ff ff ff ff ff 00 09 e5 c3 0b 00 00 00 00
28 20 01 04 b5 1e 14 78 03 ee 95 a3 54 4c 99 26
0f 50 54 00 00 00 01 01 01 01 01 01 01 01 01 01
01 01 01 01 01 01 1a dd d8 a0 90 90 50 60 30 20
36 00 2c c8 10 00 00 1a 1a dd d8 a0 90 90 30 67
30 20 36 00 2c c8 10 00 00 1a 00 00 00 fd 00 1e
78 d3 d3 39 01 0a 20 20 20 20 20 20 00 00 00 fe
00 4e 45 31 34 32 44 4b 4d 2d 4e 32 31 0a 01 7c

70 13 79 00 00 03 01 14 19 dd 00 04 d7 09 9f 00
2f 00 1f 00 8f 06 2f 07 02 00 05 00 00 00 00 00
00 00 00 00 00 00 00 00 00 00 00 00 00 00 00 00
00 00 00 00 00 00 00 00 00 00 00 00 00 00 00 00
00 00 00 00 00 00 00 00 00 00 00 00 00 00 00 00
00 00 00 00 00 00 00 00 00 00 00 00 00 00 00 00
00 00 00 00 00 00 00 00 00 00 00 00 00 00 00 00
00 00 00 00 00 00 00 00 00 00 00 00 00 00 c3 90

----------------

Block 0, Base EDID:
  EDID Structure Version & Revision: 1.4
  Vendor & Product Identification:
    Manufacturer: BOE
    Model: 3011
    Made in: week 40 of 2022
  Basic Display Parameters & Features:
    Digital display
    Bits per primary color channel: 10
    DisplayPort interface
    Maximum image size: 30 cm x 20 cm
    Gamma: 2.20
    Supported color formats: RGB 4:4:4
    First detailed timing includes the native pixel format and preferred refresh rate
    Display is continuous frequency
  Color Characteristics:
    Red  : 0.6396, 0.3300
    Green: 0.2998, 0.5996
    Blue : 0.1503, 0.0595
    White: 0.3134, 0.3291
  Established Timings I & II: none
  Standard Timings: none
  Detailed Timing Descriptors:
    DTD 1:  2520x1680  120.000848 Hz   3:2    211.201 kHz    566.020000 MHz (300 mm x 200 mm)
                 Hfront   48 Hsync  32 Hback   80 Hpol P
                 Vfront    3 Vsync   6 Vback   71 Vpol N
    DTD 2:  2520x1680   60.000424 Hz   3:2    211.201 kHz    566.020000 MHz (300 mm x 200 mm)
                 Hfront   48 Hsync  32 Hback   80 Hpol P
                 Vfront    3 Vsync   6 Vback 1831 Vpol N
    Display Range Limits:
      Monitor ranges (Bare Limits): 30-120 Hz V, 211-211 kHz H, max dotclock 570 MHz
    Alphanumeric Data String: 'NE142DKM-N21'
  Extension blocks: 1
Checksum: 0x7c

----------------

Block 1, DisplayID Extension Block:
  Version: 1.3
  Extension Count: 0
  Display Product Type: Extension Section
  Video Timing Modes Type 1 - Detailed Timings Data Block:
    DTD:  2520x1680   60.000424 Hz  16:9    211.201 kHz    566.020000 MHz (aspect 16:9, no 3D stereo)
               Hfront   48 Hsync  32 Hback   80 Hpol N
               Vfront    3 Vsync   6 Vback 1831 Vpol N
  Checksum: 0xc3
Checksum: 0x90

----------------

Block 2, Unknown EDID Extension Block 0x00:
  00 ff ff ff ff ff ff 00 09 e5 c3 0b 00 00 00 00 '................'
  28 20 01 04 b5 1e 14 78 03 ee 95 a3 54 4c 99 26 '( .....x....TL.&'
  0f 50 54 00 00 00 01 01 01 01 01 01 01 01 01 01 '.PT.............'
  01 01 01 01 01 01 1a dd d8 a0 90 90 50 60 30 20 '............P`0 '
  36 00 2c c8 10 00 00 1a 1a dd d8 a0 90 90 30 67 '6.,...........0g'
  30 20 36 00 2c c8 10 00 00 1a 00 00 00 fd 00 1e '0 6.,...........'
  78 d3 d3 39 01 0a 20 20 20 20 20 20 00 00 00 fe 'x..9..      ....'
  00 4e 45 31 34 32 44 4b 4d 2d 4e 32 31 0a 01 7c '.NE142DKM-N21..|'
Checksum: 0x7c

----------------

Block 3, DisplayID Extension Block:
  Version: 1.3
  Extension Count: 0
  Video Timing Modes Type 1 - Detailed Timings Data Block:
    DTD:  2520x1680   60.000424 Hz  16:9    211.201 kHz    566.020000 MHz (aspect 16:9, no 3D stereo)
               Hfront   48 Hsync  32 Hback   80 Hpol N
               Vfront    3 Vsync   6 Vback 1831 Vpol N
  Checksum: 0xc3
Checksum: 0x90

----------------

Warnings:

Block 0, Base EDID:
  Missing Display Product Name.

Failures:

Block 1, DisplayID Extension Block:
  DisplayID Base Block has no product type.
  Expected 0 DisplayID Extension Block, but got 1.
Block 2, Base EDID:
  Unknown Extension Block.
EDID:
  Base EDID: EDID specified 1 extension block(s), but found 3 extension block(s).
  DisplayID: Missing DisplayID Product Identification Data Block.
  DisplayID: DisplayID expects at least one preferred timing.

EDID conformity: FAIL
