
EDID (hex):
00ffffffffffff0030e42b0500000000
001a0104b53c2278022195a756529c26
10505400000001010101010101010101
0101010101014dd000a0f0703e803020
360055502100001a0000000000000000
00000000000000000000000000fe0044
55434154143237305752340a00000000
00038133a3010200000b010a20200094

Extracted contents:
header:          00 ff ff ff ff ff ff 00
serial number:   30 e4 2b 05 00 00 00 00 00 1a
version:         01 04
basic params:    b5 3c 22 78 02
chroma info:     21 95 a7 56 52 9c 26 10 50 54
established:     00 00 00
standard:        01 01 01 01 01 01 01 01 01 01 01 01 01 01 01 01
descriptor 1:    4d d0 00 a0 f0 70 3e 80 30 20 36 00 55 50 21 00 00 1a
descriptor 2:    00 00 00 00 00 00 00 00 00 00 00 00 00 00 00 00 00 00
descriptor 3:    00 00 00 fe 00 44 55 43 41 54 14 32 37 30 57 52 34 0a
descriptor 4:    00 00 00 00 00 03 81 33 a3 01 02 00 00 0b 01 0a 20 20
extensions:      00
checksum:        94

EDID version: 1.4
Manufacturer: LGD Model 52b Serial Number --
Made in year 2016
Digital display
10 bits per primary color channel
DisplayPort interface
Maximum image size: 60 cm x 34 cm
Gamma: 2.20
Supported color formats: RGB 4:4:4
First detailed timing includes the native pixel format and preferred refresh rate
Display x,y Chromaticity:
  Red:   0.6523, 0.3378
  Green: 0.3203, 0.6103
  Blue:  0.1503, 0.0634
  White: 0.3134, 0.3291
Established timings supported:
Standard timings supported:
Detailed mode: Clock 533.250 MHz, 597 mm x 336 mm
               3840 3888 3920 4000 hborder 0
               2160 2163 2169 2222 vborder 0
               +hsync -vsync 
               VertFreq: 59 Hz, HorFreq: 133312 Hz
Manufacturer-specified data, tag 0
ASCII string: DUCAT
Manufacturer-specified data, tag 0
Checksum: 0x94 (valid)
EDID block does NOT conform to EDID 1.4!
	Missing name descriptor
	Missing monitor ranges
	Detailed block string not properly terminated


