edid-decode (hex):

00 ff ff ff ff ff ff 00 43 0f 00 27 00 00 00 00
1d 1f 01 04 b5 3c 21 78 0b a7 95 ad 4f 44 a9 25
0e 50 54 a5 4b 00 81 c0 81 40 95 00 a9 c0 b3 00
d1 c0 d1 cf 81 80 5a 5e 00 a0 a0 a0 28 50 30 20
35 00 58 4a 21 00 00 1a 04 76 00 a0 a0 a0 29 50
30 20 35 00 58 4a 21 00 00 1a 00 00 00 fc 00 49
54 4d 46 32 37 49 31 30 34 51 48 44 00 00 00 fd
00 30 64 c8 c8 28 01 0a 20 20 20 20 20 20 01 da

02 03 2d f1 49 10 1f 04 13 12 11 03 02 01 23 09
7f 07 83 01 00 00 e2 00 df e3 05 c0 00 e6 06 05
01 61 61 54 68 1a 00 00 01 00 30 64 e6 02 3a 80
18 71 38 2d 40 58 2c 45 00 58 4a 21 00 00 1e ad
4e 00 a0 a0 a0 29 50 30 20 35 00 58 4a 21 00 00
1a e4 99 00 78 a0 a0 1e 50 22 1c 35 00 58 4a 21
00 00 1a 68 5b 80 a0 70 38 2d 40 30 20 45 00 58
4a 21 00 00 1e 00 00 00 00 00 00 00 00 00 00 d6

00 ff ff ff ff ff ff 00 43 0f 00 27 00 00 00 00
1d 1f 01 04 b5 3c 21 78 0b a7 95 ad 4f 44 a9 25
0e 50 54 a5 4b 00 81 c0 81 40 95 00 a9 c0 b3 00
d1 c0 d1 cf 81 80 5a 5e 00 a0 a0 a0 28 50 30 20
35 00 58 4a 21 00 00 1a 04 76 00 a0 a0 a0 29 50
30 20 35 00 58 4a 21 00 00 1a 00 00 00 fc 00 49
54 4d 46 32 37 49 31 30 34 51 48 44 00 00 00 fd
00 30 64 c8 c8 28 01 0a 20 20 20 20 20 20 01 da

02 03 2d f1 49 10 1f 04 13 12 11 03 02 01 23 09
7f 07 83 01 00 00 e2 00 df e3 05 c0 00 e6 06 05
01 61 61 54 68 1a 00 00 01 00 30 64 e6 02 3a 80
18 71 38 2d 40 58 2c 45 00 58 4a 21 00 00 1e ad
4e 00 a0 a0 a0 29 50 30 20 35 00 58 4a 21 00 00
1a e4 99 00 78 a0 a0 1e 50 22 1c 35 00 58 4a 21
00 00 1a 68 5b 80 a0 70 38 2d 40 30 20 45 00 58
4a 21 00 00 1e 00 00 00 00 00 00 00 00 00 00 d6

----------------

Block 0, Base EDID:
  EDID Structure Version & Revision: 1.4
  Vendor & Product Identification:
    Manufacturer: PXO
    Model: 9984
    Made in: week 29 of 2021
  Basic Display Parameters & Features:
    Digital display
    Bits per primary color channel: 10
    DisplayPort interface
    Maximum image size: 60 cm x 33 cm
    Gamma: 2.20
    Supported color formats: RGB 4:4:4, YCrCb 4:4:4
    First detailed timing includes the native pixel format and preferred refresh rate
    Display is continuous frequency
  Color Characteristics:
    Red  : 0.6777, 0.3105
    Green: 0.2666, 0.6630
    Blue : 0.1464, 0.0556
    White: 0.3134, 0.3291
  Established Timings I & II:
    IBM     :   720x400    70.081663 Hz   9:5     31.467 kHz     28.320000 MHz
    DMT 0x04:   640x480    59.940476 Hz   4:3     31.469 kHz     25.175000 MHz
    DMT 0x06:   640x480    75.000000 Hz   4:3     37.500 kHz     31.500000 MHz
    DMT 0x09:   800x600    60.316541 Hz   4:3     37.879 kHz     40.000000 MHz
    DMT 0x0b:   800x600    75.000000 Hz   4:3     46.875 kHz     49.500000 MHz
    DMT 0x10:  1024x768    60.003840 Hz   4:3     48.363 kHz     65.000000 MHz
    DMT 0x12:  1024x768    75.028582 Hz   4:3     60.023 kHz     78.750000 MHz
    DMT 0x24:  1280x1024   75.024675 Hz   5:4     79.976 kHz    135.000000 MHz
  Standard Timings:
    DMT 0x55:  1280x720    60.000000 Hz  16:9     45.000 kHz     74.250000 MHz
    DMT 0x20:  1280x960    60.000000 Hz   4:3     60.000 kHz    108.000000 MHz
    DMT 0x2f:  1440x900    59.887445 Hz  16:10    55.935 kHz    106.500000 MHz
    DMT 0x53:  1600x900    60.000000 Hz  16:9     60.000 kHz    108.000000 MHz (RB)
    DMT 0x3a:  1680x1050   59.954250 Hz  16:10    65.290 kHz    146.250000 MHz
    DMT 0x52:  1920x1080   60.000000 Hz  16:9     67.500 kHz    148.500000 MHz
    GTF     :  1920x1080   75.000068 Hz  16:9     84.600 kHz    220.637000 MHz
    DMT 0x23:  1280x1024   60.019740 Hz   5:4     63.981 kHz    108.000000 MHz
  Detailed Timing Descriptors:
    DTD  1:  2560x1440   60.000994 Hz  16:9     88.801 kHz    241.540000 MHz (600 mm x 330 mm)
                  Hfront   48 Hsync  32 Hback   80 Hpol P
                  Vfront    3 Vsync   5 Vback   32 Vpol N
    DTD  2:  2560x1440   74.999007 Hz  16:9    111.074 kHz    302.120000 MHz (600 mm x 330 mm)
                  Hfront   48 Hsync  32 Hback   80 Hpol P
                  Vfront    3 Vsync   5 Vback   33 Vpol N
    Display Product Name: 'ITMF27I104QHD'
    Display Range Limits:
      Monitor ranges (Bare Limits): 48-100 Hz V, 200-200 kHz H, max dotclock 400 MHz
  Extension blocks: 1
Checksum: 0xda

----------------

Block 1, CTA-861 Extension Block:
  Revision: 3
  Underscans IT Video Formats by default
  Basic audio support
  Supports YCbCr 4:4:4
  Supports YCbCr 4:2:2
  Native detailed modes: 1
  Video Data Block:
    VIC  16:  1920x1080   60.000000 Hz  16:9     67.500 kHz    148.500000 MHz
    VIC  31:  1920x1080   50.000000 Hz  16:9     56.250 kHz    148.500000 MHz
    VIC   4:  1280x720    60.000000 Hz  16:9     45.000 kHz     74.250000 MHz
    VIC  19:  1280x720    50.000000 Hz  16:9     37.500 kHz     74.250000 MHz
    VIC  18:   720x576    50.000000 Hz  16:9     31.250 kHz     27.000000 MHz
    VIC  17:   720x576    50.000000 Hz   4:3     31.250 kHz     27.000000 MHz
    VIC   3:   720x480    59.940060 Hz  16:9     31.469 kHz     27.000000 MHz
    VIC   2:   720x480    59.940060 Hz   4:3     31.469 kHz     27.000000 MHz
    VIC   1:   640x480    59.940476 Hz   4:3     31.469 kHz     25.175000 MHz
  Audio Data Block:
    Linear PCM:
      Max channels: 2
      Supported sample rates (kHz): 192 176.4 96 88.2 48 44.1 32
      Supported sample sizes (bits): 24 20 16
  Speaker Allocation Data Block:
    FL/FR - Front Left/Right
  Video Capability Data Block:
    YCbCr quantization: Selectable (via AVI YQ)
    RGB quantization: Selectable (via AVI Q)
    PT scan behavior: Always Overscanned
    IT scan behavior: Supports both over- and underscan
    CE scan behavior: Supports both over- and underscan
  Colorimetry Data Block:
    BT2020YCC
    BT2020RGB
  HDR Static Metadata Data Block:
    Electro optical transfer functions:
      Traditional gamma - SDR luminance range
      SMPTE ST2084
    Supported static metadata descriptors:
      Static metadata type 1
    Desired content max luminance: 97 (408.759 cd/m^2)
    Desired content max frame-average luminance: 97 (408.759 cd/m^2)
    Desired content min luminance: 84 (0.444 cd/m^2)
  Vendor-Specific Data Block (AMD), OUI 00-00-1A:
    Version: 1.0
    Minimum Refresh Rate: 48 Hz
    Maximum Refresh Rate: 100 Hz
    Flags 1.x: 0xe6 (MCCS)
  Detailed Timing Descriptors:
    DTD  3:  1920x1080   60.000000 Hz  16:9     67.500 kHz    148.500000 MHz (600 mm x 330 mm)
                  Hfront   88 Hsync  44 Hback  148 Hpol P
                  Vfront    4 Vsync   5 Vback   36 Vpol P
    DTD  4:  2560x1440   49.998511 Hz  16:9     74.048 kHz    201.410000 MHz (600 mm x 330 mm)
                  Hfront   48 Hsync  32 Hback   80 Hpol P
                  Vfront    3 Vsync   5 Vback   33 Vpol N
    DTD  5:  2560x1440  100.000000 Hz  16:9    147.000 kHz    393.960000 MHz (600 mm x 330 mm)
                  Hfront   34 Hsync  28 Hback   58 Hpol P
                  Vfront    3 Vsync   5 Vback   22 Vpol N
    DTD  6:  1920x1080  100.000000 Hz  16:9    112.500 kHz    234.000000 MHz (600 mm x 330 mm)
                  Hfront   48 Hsync  32 Hback   80 Hpol P
                  Vfront    4 Vsync   5 Vback   36 Vpol P
Checksum: 0xd6  Unused space in Extension Block: 10 bytes

----------------

Block 2, Unknown EDID Extension Block 0x00:
  00 ff ff ff ff ff ff 00 43 0f 00 27 00 00 00 00 '........C..'....'
  1d 1f 01 04 b5 3c 21 78 0b a7 95 ad 4f 44 a9 25 '.....<!x....OD.%'
  0e 50 54 a5 4b 00 81 c0 81 40 95 00 a9 c0 b3 00 '.PT.K....@......'
  d1 c0 d1 cf 81 80 5a 5e 00 a0 a0 a0 28 50 30 20 '......Z^....(P0 '
  35 00 58 4a 21 00 00 1a 04 76 00 a0 a0 a0 29 50 '5.XJ!....v....)P'
  30 20 35 00 58 4a 21 00 00 1a 00 00 00 fc 00 49 '0 5.XJ!........I'
  54 4d 46 32 37 49 31 30 34 51 48 44 00 00 00 fd 'TMF27I104QHD....'
  00 30 64 c8 c8 28 01 0a 20 20 20 20 20 20 01 da '.0d..(..      ..'
Checksum: 0xda

----------------

Block 3, CTA-861 Extension Block:
  Revision: 3
  Underscans IT Video Formats by default
  Basic audio support
  Supports YCbCr 4:4:4
  Supports YCbCr 4:2:2
  Native detailed modes: 1
  Video Data Block:
    VIC  16:  1920x1080   60.000000 Hz  16:9     67.500 kHz    148.500000 MHz
    VIC  31:  1920x1080   50.000000 Hz  16:9     56.250 kHz    148.500000 MHz
    VIC   4:  1280x720    60.000000 Hz  16:9     45.000 kHz     74.250000 MHz
    VIC  19:  1280x720    50.000000 Hz  16:9     37.500 kHz     74.250000 MHz
    VIC  18:   720x576    50.000000 Hz  16:9     31.250 kHz     27.000000 MHz
    VIC  17:   720x576    50.000000 Hz   4:3     31.250 kHz     27.000000 MHz
    VIC   3:   720x480    59.940060 Hz  16:9     31.469 kHz     27.000000 MHz
    VIC   2:   720x480    59.940060 Hz   4:3     31.469 kHz     27.000000 MHz
    VIC   1:   640x480    59.940476 Hz   4:3     31.469 kHz     25.175000 MHz
  Audio Data Block:
    Linear PCM:
      Max channels: 2
      Supported sample rates (kHz): 192 176.4 96 88.2 48 44.1 32
      Supported sample sizes (bits): 24 20 16
  Speaker Allocation Data Block:
    FL/FR - Front Left/Right
  Video Capability Data Block:
    YCbCr quantization: Selectable (via AVI YQ)
    RGB quantization: Selectable (via AVI Q)
    PT scan behavior: Always Overscanned
    IT scan behavior: Supports both over- and underscan
    CE scan behavior: Supports both over- and underscan
  Colorimetry Data Block:
    BT2020YCC
    BT2020RGB
  HDR Static Metadata Data Block:
    Electro optical transfer functions:
      Traditional gamma - SDR luminance range
      SMPTE ST2084
    Supported static metadata descriptors:
      Static metadata type 1
    Desired content max luminance: 97 (408.759 cd/m^2)
    Desired content max frame-average luminance: 97 (408.759 cd/m^2)
    Desired content min luminance: 84 (0.444 cd/m^2)
  Vendor-Specific Data Block (AMD), OUI 00-00-1A:
    Version: 1.0
    Minimum Refresh Rate: 48 Hz
    Maximum Refresh Rate: 100 Hz
    Flags 1.x: 0xe6 (MCCS)
  Detailed Timing Descriptors:
    DTD  7:  1920x1080   60.000000 Hz  16:9     67.500 kHz    148.500000 MHz (600 mm x 330 mm)
                  Hfront   88 Hsync  44 Hback  148 Hpol P
                  Vfront    4 Vsync   5 Vback   36 Vpol P
    DTD  8:  2560x1440   49.998511 Hz  16:9     74.048 kHz    201.410000 MHz (600 mm x 330 mm)
                  Hfront   48 Hsync  32 Hback   80 Hpol P
                  Vfront    3 Vsync   5 Vback   33 Vpol N
    DTD  9:  2560x1440  100.000000 Hz  16:9    147.000 kHz    393.960000 MHz (600 mm x 330 mm)
                  Hfront   34 Hsync  28 Hback   58 Hpol P
                  Vfront    3 Vsync   5 Vback   22 Vpol N
    DTD 10:  1920x1080  100.000000 Hz  16:9    112.500 kHz    234.000000 MHz (600 mm x 330 mm)
                  Hfront   48 Hsync  32 Hback   80 Hpol P
                  Vfront    4 Vsync   5 Vback   36 Vpol P
Checksum: 0xd6  Unused space in Extension Block: 10 bytes

----------------

Warnings:

Block 1, CTA-861 Extension Block:
  Colorimetry Data Block: Set the sRGB colorimetry bit to avoid interop issues.
Block 3, CTA-861 Extension Block:
  Colorimetry Data Block: Set the sRGB colorimetry bit to avoid interop issues.
EDID:
  Base EDID: Some timings are out of range of the Monitor Ranges:
    Horizontal Freq: 31.250 - 147.000 kHz (Monitor: 200.000 - 200.000 kHz)

Failures:

Block 2, Base EDID:
  Unknown Extension Block.
Block 3, CTA-861 Extension Block:
  Video Data Block: Duplicate VIC 16.
  Video Data Block: Duplicate VIC 31.
  Video Data Block: Duplicate VIC 4.
  Video Data Block: Duplicate VIC 19.
  Video Data Block: Duplicate VIC 18.
  Video Data Block: Duplicate VIC 17.
  Video Data Block: Duplicate VIC 3.
  Video Data Block: Duplicate VIC 2.
  Video Data Block: Duplicate VIC 1.
  Speaker Allocation Data Block: Only one instance of this Data Block is allowed.
  Video Capability Data Block: Only one instance of this Data Block is allowed.
  Colorimetry Data Block: Only one instance of this Data Block is allowed.
  HDR Static Metadata Data Block: Only one instance of this Data Block is allowed.
EDID:
  Base EDID: EDID specified 1 extension block(s), but found 3 extension block(s).

EDID conformity: FAIL
