edid-decode (hex):

00 ff ff ff ff ff ff 00 30 ae 21 90 00 00 00 00
00 1d 01 04 a5 1f 11 78 03 2a f5 92 56 58 92 29
20 50 54 00 00 00 01 01 01 01 01 01 01 01 01 01
01 01 01 01 01 01 14 37 80 b8 70 38 24 40 6c 30
aa 00 35 ae 10 00 00 18 00 00 00 0f 00 30 3c 00
00 00 00 00 00 00 00 00 00 20 00 00 00 fe 00 41
55 4f 0a 20 20 20 20 20 20 20 20 20 00 00 00 fe
00 42 31 34 30 48 54 4e 30 32 2e 31 20 0a 00 e5

00 ff ff ff ff ff ff 00 30 ae 21 90 00 00 00 00
00 1d 01 04 a5 1f 11 78 03 2a f5 92 56 58 92 29
20 50 54 00 00 00 01 01 01 01 01 01 01 01 01 01
01 01 01 01 01 01 14 37 80 b8 70 38 24 40 6c 30
aa 00 35 ae 10 00 00 18 00 00 00 0f 00 30 3c 00
00 00 00 00 00 00 00 00 00 20 00 00 00 fe 00 41
55 4f 0a 20 20 20 20 20 20 20 20 20 00 00 00 fe
00 42 31 34 30 48 54 4e 30 32 2e 31 20 0a 00 e5

----------------

Block 0, Base EDID:
  EDID Structure Version & Revision: 1.4
  Vendor & Product Identification:
    Manufacturer: LEN
    Model: 36897
    Made in: 2019
  Basic Display Parameters & Features:
    Digital display
    Bits per primary color channel: 8
    DisplayPort interface
    Maximum image size: 31 cm x 17 cm
    Gamma: 2.20
    Supported color formats: RGB 4:4:4
    First detailed timing includes the native pixel format and preferred refresh rate
    Display is continuous frequency
  Color Characteristics:
    Red  : 0.5703, 0.3378
    Green: 0.3457, 0.5722
    Blue : 0.1630, 0.1279
    White: 0.3134, 0.3291
  Established Timings I & II: none
  Standard Timings: none
  Detailed Timing Descriptors:
    DTD 1:  1920x1080   60.049471 Hz  16:9     67.015 kHz    141.000000 MHz (309 mm x 174 mm)
                 Hfront  108 Hsync  48 Hback   28 Hpol N
                 Vfront   10 Vsync  10 Vback   16 Vpol N
    Manufacturer-Specified Display Descriptor (0x0f): 00 0f 00 30 3c 00 00 00 00 00 00 00 00 00 00 20 '...0<.......... '
    Alphanumeric Data String: 'AUO'
    Alphanumeric Data String: 'B140HTN02.1 '
Checksum: 0xe5

----------------

Block 1, Unknown EDID Extension Block 0x00:
  00 ff ff ff ff ff ff 00 30 ae 21 90 00 00 00 00 '........0.!.....'
  00 1d 01 04 a5 1f 11 78 03 2a f5 92 56 58 92 29 '.......x.*..VX.)'
  20 50 54 00 00 00 01 01 01 01 01 01 01 01 01 01 ' PT.............'
  01 01 01 01 01 01 14 37 80 b8 70 38 24 40 6c 30 '.......7..p8$@l0'
  aa 00 35 ae 10 00 00 18 00 00 00 0f 00 30 3c 00 '..5..........0<.'
  00 00 00 00 00 00 00 00 00 20 00 00 00 fe 00 41 '......... .....A'
  55 4f 0a 20 20 20 20 20 20 20 20 20 00 00 00 fe 'UO.         ....'
  00 42 31 34 30 48 54 4e 30 32 2e 31 20 0a 00 e5 '.B140HTN02.1 ...'
Checksum: 0xe5

----------------

Warnings:

Block 0, Base EDID:
  Missing Display Product Name.

Failures:

Block 0, Base EDID:
  Alphanumeric Data String: One or more trailing spaces.
  Missing Display Range Limits Descriptor.
Block 1, Base EDID:
  Unknown Extension Block.
EDID:
  Base EDID: EDID specified 0 extension block(s), but found 1 extension block(s).

EDID conformity: FAIL
