edid-decode (hex):

00 ff ff ff ff ff ff 00 4c a3 57 44 00 00 00 00
00 12 01 03 80 1e 13 78 0a 87 f5 94 57 4f 8c 27
27 50 54 00 00 00 01 01 01 01 01 01 01 01 01 01
01 01 01 01 01 01 b1 25 a0 18 51 84 23 30 2e 46
99 00 2f be 10 00 00 19 00 00 00 0f 00 00 00 00
00 00 00 00 00 00 00 00 00 00 00 00 00 fe 00 58
31 36 32 47 00 31 34 31 57 44 0a 20 00 00 00 fe
00 20 2d 38 43 5c 7d a5 e1 02 01 0a 20 20 00 04

----------------

Block 0, Base EDID:
  EDID Structure Version & Revision: 1.3
  Vendor & Product Identification:
    Manufacturer: SEC
    Model: 17495
    Made in: 2008
  Basic Display Parameters & Features:
    Digital display
    Maximum image size: 30 cm x 19 cm
    Gamma: 2.20
    RGB color display
    First detailed timing is the preferred timing
  Color Characteristics:
    Red  : 0.5800, 0.3398
    Green: 0.3095, 0.5498
    Blue : 0.1552, 0.1552
    White: 0.3134, 0.3291
  Established Timings I & II: none
  Standard Timings: none
  Detailed Timing Descriptors:
    DTD 1:  1440x900    59.998756 Hz  16:10    56.099 kHz     96.490000 MHz (303 mm x 190 mm)
                 Hfront   46 Hsync  70 Hback  164 Hpol N
                 Vfront    9 Vsync   9 Vback   17 Vpol N
    Manufacturer-Specified Display Descriptor (0x0f): 00 0f 00 00 00 00 00 00 00 00 00 00 00 00 00 00 '................'
    Alphanumeric Data String: 'X162G'
    Alphanumeric Data String: ' -8C\}'
Checksum: 0x04

----------------

Failures:

Block 0, Base EDID:
  Alphanumeric Data String: Non-printable character.
  Alphanumeric Data String: Non-printable character.
  Missing Display Product Name.
  Missing Display Range Limits Descriptor.

EDID conformity: FAIL
