
EDID (hex):
00ffffffffffff004ca3574400000000
00110103801e13780a87f594574f8c27
27505400000001010101010101010101
0101010101010a29a0e051840c303080
63002fbe100000190000000f00000000
00000000000000000000000000fe0050
593730370431343157440a20000000fe
00202d38435c7da5e102010a202000de

Extracted contents:
header:          00 ff ff ff ff ff ff 00
serial number:   4c a3 57 44 00 00 00 00 00 11
version:         01 03
basic params:    80 1e 13 78 0a
chroma info:     87 f5 94 57 4f 8c 27 27 50 54
established:     00 00 00
standard:        01 01 01 01 01 01 01 01 01 01 01 01 01 01 01 01
descriptor 1:    0a 29 a0 e0 51 84 0c 30 30 80 63 00 2f be 10 00 00 19
descriptor 2:    00 00 00 0f 00 00 00 00 00 00 00 00 00 00 00 00 00 00
descriptor 3:    00 00 00 fe 00 50 59 37 30 37 04 31 34 31 57 44 0a 20
descriptor 4:    00 00 00 fe 00 20 2d 38 43 5c 7d a5 e1 02 01 0a 20 20
extensions:      00
checksum:        de

EDID version: 1.3
Manufacturer: SEC Model 4457 Serial Number --
Made in year 2007
Digital display
Maximum image size: 30 cm x 19 cm
Gamma: 2.20
RGB color display
First detailed timing is preferred timing
Display x,y Chromaticity:
  Red:   0.5800, 0.3398
  Green: 0.3095, 0.5498
  Blue:  0.1552, 0.1552
  White: 0.3134, 0.3291
Established timings supported:
Standard timings supported:
Detailed mode: Clock 105.060 MHz, 303 mm x 190 mm
               1440 1488 1616 1920 hborder 0
                900  906  909  912 vborder 0
               -hsync -vsync 
               VertFreq: 59 Hz, HorFreq: 54718 Hz
Manufacturer-specified data, tag 15
ASCII string: PY707
ASCII string:  -8C\}
Checksum: 0xde (valid)
EDID block does NOT conform to EDID 1.3!
	Missing name descriptor
	Missing monitor ranges
	Detailed block string not properly terminated
