
EDID (hex):
00ffffffffffff004ca3574400000000
00100103801e13780a87f594574f8c27
27505400000001010101010101010101
0101010101014825a03051840c304020
33002fbe100000190000000f00000000
000000000078e6022300000000fe0043
473030320131343157440a20000000fe
001736424a6e8eb4ff02010a2020001f

edid-decode (hex):

00 ff ff ff ff ff ff 00 4c a3 57 44 00 00 00 00
00 10 01 03 80 1e 13 78 0a 87 f5 94 57 4f 8c 27
27 50 54 00 00 00 01 01 01 01 01 01 01 01 01 01
01 01 01 01 01 01 48 25 a0 30 51 84 0c 30 40 20
33 00 2f be 10 00 00 19 00 00 00 0f 00 00 00 00
00 00 00 00 00 78 e6 02 23 00 00 00 00 fe 00 43
47 30 30 32 01 31 34 31 57 44 0a 20 00 00 00 fe
00 17 36 42 4a 6e 8e b4 ff 02 01 0a 20 20 00 1f

----------------

Block 0, Base EDID:
  EDID Structure Version & Revision: 1.3
  Vendor & Product Identification:
    Manufacturer: SEC
    Model: 17495
    Made in: 2006
  Basic Display Parameters & Features:
    Digital display
    Maximum image size: 30 cm x 19 cm
    Gamma: 2.20
    RGB color display
    First detailed timing is the preferred timing
  Color Characteristics:
    Red  : 0.5800, 0.3398
    Green: 0.3095, 0.5498
    Blue : 0.1552, 0.1552
    White: 0.3134, 0.3291
  Established Timings I & II: none
  Standard Timings: none
  Detailed Timing Descriptors:
    DTD 1:  1440x900    60.005231 Hz  16:10    54.725 kHz     95.440000 MHz (303 mm x 190 mm)
                 Hfront   64 Hsync  32 Hback  208 Hpol N
                 Vfront    3 Vsync   3 Vback    6 Vpol N
    Manufacturer-Specified Display Descriptor (0x0f): 00 0f 00 00 00 00 00 00 00 00 00 78 e6 02 23 00 '...........x..#.'
    Alphanumeric Data String: 'CG002'
    Alphanumeric Data String: ''
Checksum: 0x1f
