
EDID (hex):
00ffffffffffff0006af471300000000
01100103801e13780a87f594574f8c27
27505400000001010101010101010101
0101010101019e25a04051840c304020
33002fbd100000190000000000000000
00000000000000000000000000fe0047
523538340042313431505731000000fe
002838434c6c8aabff02010a2020004d

Extracted contents:
header:          00 ff ff ff ff ff ff 00
serial number:   06 af 47 13 00 00 00 00 01 10
version:         01 03
basic params:    80 1e 13 78 0a
chroma info:     87 f5 94 57 4f 8c 27 27 50 54
established:     00 00 00
standard:        01 01 01 01 01 01 01 01 01 01 01 01 01 01 01 01
descriptor 1:    9e 25 a0 40 51 84 0c 30 40 20 33 00 2f bd 10 00 00 19
descriptor 2:    00 00 00 00 00 00 00 00 00 00 00 00 00 00 00 00 00 00
descriptor 3:    00 00 00 fe 00 47 52 35 38 34 00 42 31 34 31 50 57 31
descriptor 4:    00 00 00 fe 00 28 38 43 4c 6c 8a ab ff 02 01 0a 20 20
extensions:      00
checksum:        4d

EDID version: 1.3
Manufacturer: AUO Model 1347 Serial Number --
Made in week 1 of 2006
Digital display
Maximum image size: 30 cm x 19 cm
Gamma: 2.20
RGB color display
First detailed timing is preferred timing
Display x,y Chromaticity:
  Red:   0.5800, 0.3398
  Green: 0.3095, 0.5498
  Blue:  0.1552, 0.1552
  White: 0.3134, 0.3291
Established timings supported:
Standard timings supported:
Detailed mode: Clock 96.300 MHz, 303 mm x 189 mm
               1440 1504 1536 1760 hborder 0
                900  903  906  912 vborder 0
               -hsync -vsync 
               VertFreq: 59 Hz, HorFreq: 54715 Hz
Manufacturer-specified data, tag 0
ASCII string: GR584
ASCII string: (8CLl
Checksum: 0x4d (valid)
EDID block does NOT conform to EDID 1.3!
	Missing name descriptor
	Missing monitor ranges
	Detailed block string not properly terminated
