
EDID (hex):
00ffffffffffff004d104f1500000000
2e1f0104a51d127807de50a3544c9926
0f505400000001010101010101010101
010101010101ed7b80a070b047403020
360020b410000018ed7b80a070b03e45
3020360020b410000018000000fd0030
78999920010a202020202020000000fc
004c513133344e314a5735340a2000a9

Extracted contents:
header:          00 ff ff ff ff ff ff 00
serial number:   4d 10 4f 15 00 00 00 00 2e 1f
version:         01 04
basic params:    a5 1d 12 78 07
chroma info:     de 50 a3 54 4c 99 26 0f 50 54
established:     00 00 00
standard:        01 01 01 01 01 01 01 01 01 01 01 01 01 01 01 01
descriptor 1:    ed 7b 80 a0 70 b0 47 40 30 20 36 00 20 b4 10 00 00 18
descriptor 2:    ed 7b 80 a0 70 b0 3e 45 30 20 36 00 20 b4 10 00 00 18
descriptor 3:    00 00 00 fd 00 30 78 99 99 20 01 0a 20 20 20 20 20 20
descriptor 4:    00 00 00 fc 00 4c 51 31 33 34 4e 31 4a 57 35 34 0a 20
extensions:      00
checksum:        a9

EDID version: 1.4
Manufacturer: SHP Model 154f Serial Number --
Made in week 46 of 2021
Digital display
8 bits per primary color channel
DisplayPort interface
Maximum image size: 29 cm x 18 cm
Gamma: 2.20
Supported color formats: RGB 4:4:4
Default (sRGB) color space is primary color space
First detailed timing includes the native pixel format and preferred refresh rate
Display is continuous frequency
Display x,y Chromaticity:
  Red:   0.6396, 0.3291
  Green: 0.2998, 0.5996
  Blue:  0.1494, 0.0595
  White: 0.3125, 0.3281
Established timings supported:
Standard timings supported:
Detailed mode: Clock 317.250 MHz, 288 mm x 180 mm
               1920 1968 2000 2080 hborder 0
               1200 1203 1209 1271 vborder 0
               -hsync -vsync 
               VertFreq: 120 Hz, HorFreq: 152524 Hz
Detailed mode: Clock 317.250 MHz, 288 mm x 180 mm
               1920 1968 2000 2080 hborder 0
               1200 1203 1209 2542 vborder 0
               -hsync -vsync 
               VertFreq: 60 Hz, HorFreq: 152524 Hz
Monitor ranges (bare limits): 48-120Hz V, 153-153kHz H, max dotclock 320MHz
Monitor name: LQ134N1JW54
Checksum: 0xa9 (valid)
EDID block does NOT conform to EDID 1.4!
	sRGB is signaled, but the chromaticities do not match
Warning: One or more of the timings is out of range of the Monitor Ranges:
  Vertical Freq: 60 - 120 Hz
  Horizontal Freq: 152524 - 152524 Hz
  Maximum Clock: 317.250 MHz
