
EDID (hex):
00ffffffffffff0038a3747a01010101
03180103800000782ac0bda05c5b9524
0e5058a12980904081808bc0a9c0d1c0
81009500b30064190040410026301888
3600000000000018000000fd0030791f
6611000a202020202020000000fc004e
502d56333131580a20202020000000ff
004734313030303337370a2020200169
020326f1500203111284051314101f01
0607151620230907076c030c00100038
2dc012011a010e1f008051001e304080
370000000000001c662156aa51001e30
468f330000000000001e513600804100
37305070130000000000001c1c3f00d0
51d034206088130000000000001c0000
0000000000000000000000000000001c

edid-decode (hex):

00 ff ff ff ff ff ff 00 38 a3 74 7a 01 01 01 01
03 18 01 03 80 00 00 78 2a c0 bd a0 5c 5b 95 24
0e 50 58 a1 29 80 90 40 81 80 8b c0 a9 c0 d1 c0
81 00 95 00 b3 00 64 19 00 40 41 00 26 30 18 88
36 00 00 00 00 00 00 18 00 00 00 fd 00 30 79 1f
66 11 00 0a 20 20 20 20 20 20 00 00 00 fc 00 4e
50 2d 56 33 31 31 58 0a 20 20 20 20 00 00 00 ff
00 47 34 31 30 30 30 33 37 37 0a 20 20 20 01 69

02 03 26 f1 50 02 03 11 12 84 05 13 14 10 1f 01
06 07 15 16 20 23 09 07 07 6c 03 0c 00 10 00 38
2d c0 12 01 1a 01 0e 1f 00 80 51 00 1e 30 40 80
37 00 00 00 00 00 00 1c 66 21 56 aa 51 00 1e 30
46 8f 33 00 00 00 00 00 00 1e 51 36 00 80 41 00
37 30 50 70 13 00 00 00 00 00 00 1c 1c 3f 00 d0
51 d0 34 20 60 88 13 00 00 00 00 00 00 1c 00 00
00 00 00 00 00 00 00 00 00 00 00 00 00 00 00 1c

----------------

Block 0, Base EDID:
  EDID Structure Version & Revision: 1.3
  Vendor & Product Identification:
    Manufacturer: NEC
    Model: 31348
    Serial Number: 16843009
    Made in: week 3 of 2014
  Basic Display Parameters & Features:
    Digital display
    Image size is variable
    Gamma: 2.20
    DPMS levels: Off
    RGB color display
    First detailed timing is the preferred timing
  Color Characteristics:
    Red  : 0.6279, 0.3593
    Green: 0.3554, 0.5820
    Blue : 0.1425, 0.0576
    White: 0.3154, 0.3447
  Established Timings I & II:
    IBM     :   720x400    70.081663 Hz   9:5     31.467 kHz     28.320000 MHz
    DMT 0x04:   640x480    59.940476 Hz   4:3     31.469 kHz     25.175000 MHz
    DMT 0x09:   800x600    60.316541 Hz   4:3     37.879 kHz     40.000000 MHz
    Apple   :   832x624    74.551266 Hz   4:3     49.726 kHz     57.284000 MHz
    DMT 0x10:  1024x768    60.003840 Hz   4:3     48.363 kHz     65.000000 MHz
    DMT 0x24:  1280x1024   75.024675 Hz   5:4     79.976 kHz    135.000000 MHz
    Apple   :  1152x870    75.061550 Hz 192:145   68.681 kHz    100.000000 MHz
  Standard Timings:
    DMT 0x2a:  1400x1050   59.978442 Hz   4:3     65.317 kHz    121.750000 MHz
    DMT 0x23:  1280x1024   60.019740 Hz   5:4     63.981 kHz    108.000000 MHz
    GTF     :  1360x765    60.000341 Hz  16:9     47.520 kHz     84.396000 MHz
    DMT 0x53:  1600x900    60.000000 Hz  16:9     60.000 kHz    108.000000 MHz (RB)
    DMT 0x52:  1920x1080   60.000000 Hz  16:9     67.500 kHz    148.500000 MHz
    DMT 0x1c:  1280x800    59.810326 Hz  16:10    49.702 kHz     83.500000 MHz
    DMT 0x2f:  1440x900    59.887445 Hz  16:10    55.935 kHz    106.500000 MHz
    DMT 0x3a:  1680x1050   59.954250 Hz  16:10    65.290 kHz    146.250000 MHz
  Detailed Timing Descriptors:
    DTD 1:  1024x768    60.003840 Hz   4:3     48.363 kHz     65.000000 MHz
                 Hfront   24 Hsync 136 Hback  160 Hpol N
                 Vfront    3 Vsync   6 Vback   29 Vpol N
    Display Range Limits:
      Monitor ranges (GTF): 48-121 Hz V, 31-102 kHz H, max dotclock 170 MHz
    Display Product Name: 'NP-V311X'
    Display Product Serial Number: 'G41000377'
  Extension blocks: 1
Checksum: 0x69

----------------

Block 1, CTA-861 Extension Block:
  Revision: 3
  Underscans IT Video Formats by default
  Basic audio support
  Supports YCbCr 4:4:4
  Supports YCbCr 4:2:2
  Native detailed modes: 1
  Video Data Block:
    VIC   2:   720x480    59.940060 Hz   4:3     31.469 kHz     27.000000 MHz
    VIC   3:   720x480    59.940060 Hz  16:9     31.469 kHz     27.000000 MHz
    VIC  17:   720x576    50.000000 Hz   4:3     31.250 kHz     27.000000 MHz
    VIC  18:   720x576    50.000000 Hz  16:9     31.250 kHz     27.000000 MHz
    VIC   4:  1280x720    60.000000 Hz  16:9     45.000 kHz     74.250000 MHz (native)
    VIC   5:  1920x1080i  60.000000 Hz  16:9     33.750 kHz     74.250000 MHz
    VIC  19:  1280x720    50.000000 Hz  16:9     37.500 kHz     74.250000 MHz
    VIC  20:  1920x1080i  50.000000 Hz  16:9     28.125 kHz     74.250000 MHz
    VIC  16:  1920x1080   60.000000 Hz  16:9     67.500 kHz    148.500000 MHz
    VIC  31:  1920x1080   50.000000 Hz  16:9     56.250 kHz    148.500000 MHz
    VIC   1:   640x480    59.940476 Hz   4:3     31.469 kHz     25.175000 MHz
    VIC   6:  1440x480i   59.940060 Hz   4:3     15.734 kHz     27.000000 MHz
    VIC   7:  1440x480i   59.940060 Hz  16:9     15.734 kHz     27.000000 MHz
    VIC  21:  1440x576i   50.000000 Hz   4:3     15.625 kHz     27.000000 MHz
    VIC  22:  1440x576i   50.000000 Hz  16:9     15.625 kHz     27.000000 MHz
    VIC  32:  1920x1080   24.000000 Hz  16:9     27.000 kHz     74.250000 MHz
  Audio Data Block:
    Linear PCM:
      Max channels: 2
      Supported sample rates (kHz): 48 44.1 32
      Supported sample sizes (bits): 24 20 16
  Vendor-Specific Data Block (HDMI), OUI 00-0C-03:
    Source physical address: 1.0.0.0
    DC_36bit
    DC_30bit
    DC_Y444
    Maximum TMDS clock: 225 MHz
    Video latency: 34 ms
    Audio latency: 0 ms
    Interlaced video latency: 50 ms
    Interlaced audio latency: 0 ms
  Detailed Timing Descriptors:
    DTD 2:  1280x768    59.870228 Hz   5:3     47.776 kHz     79.500000 MHz
                 Hfront   64 Hsync 128 Hback  192 Hpol N
                 Vfront    3 Vsync   7 Vback   20 Vpol P
    DTD 3:  1366x768    59.789541 Hz 683:384   47.712 kHz     85.500000 MHz
                 Hfront   70 Hsync 143 Hback  213 Hpol P
                 Vfront    3 Vsync   3 Vback   24 Vpol P
    DTD 4:  1024x768   119.996479 Hz   4:3     98.757 kHz    139.050000 MHz
                 Hfront   80 Hsync 112 Hback  192 Hpol N
                 Vfront    1 Vsync   3 Vback   51 Vpol P
    DTD 5:  1280x720   119.996910 Hz  16:9     92.638 kHz    161.560000 MHz
                 Hfront   96 Hsync 136 Hback  232 Hpol N
                 Vfront    1 Vsync   3 Vback   48 Vpol P
Checksum: 0x1c  Unused space in Extension Block: 17 bytes
