edid-decode (hex):

00 ff ff ff ff ff ff 00 51 a1 43 20 00 00 00 00
05 22 01 04 a5 10 08 78 07 6e a1 a4 52 4c 9a 25
0f 50 54 00 00 00 01 01 01 01 01 01 01 01 01 01
01 01 01 01 01 01 8b 6f 80 a0 70 38 40 40 30 20
62 0c 9b 57 00 00 00 18 c6 37 80 a0 70 38 40 40
30 20 62 0c 9b 57 00 00 00 1a 00 00 00 fd 00 30
78 8c 8c 1d 01 0a 20 20 20 20 20 20 00 00 00 fc
00 54 4c 30 37 30 46 44 58 53 30 31 0a 20 00 c5

00 ff ff ff ff ff ff 00 51 a1 43 20 00 00 00 00
05 22 01 04 a5 10 08 78 07 6e a1 a4 52 4c 9a 25
0f 50 54 00 00 00 01 01 01 01 01 01 01 01 01 01
01 01 01 01 01 01 8b 6f 80 a0 70 38 40 40 30 20
62 0c 9b 57 00 00 00 18 c6 37 80 a0 70 38 40 40
30 20 62 0c 9b 57 00 00 00 1a 00 00 00 fd 00 30
78 8c 8c 1d 01 0a 20 20 20 20 20 20 00 00 00 fc
00 54 4c 30 37 30 46 44 58 53 30 31 0a 20 00 c5

----------------

Block 0, Base EDID:
  EDID Structure Version & Revision: 1.4
  Vendor & Product Identification:
    Manufacturer: TMA
    Model: 8259
    Made in: week 5 of 2024
  Basic Display Parameters & Features:
    Digital display
    Bits per primary color channel: 8
    DisplayPort interface
    Maximum image size: 16 cm x 8 cm
    Gamma: 2.20
    Supported color formats: RGB 4:4:4
    Default (sRGB) color space is primary color space
    First detailed timing includes the native pixel format and preferred refresh rate
    Display is continuous frequency
  Color Characteristics:
    Red  : 0.6416, 0.3222
    Green: 0.2998, 0.6035
    Blue : 0.1464, 0.0605
    White: 0.3125, 0.3291
  Established Timings I & II: none
  Standard Timings: none
  Detailed Timing Descriptors:
    DTD 1:  1920x1080  120.003194 Hz  16:9    137.284 kHz    285.550000 MHz (155 mm x 87 mm)
                 Hfront   48 Hsync  32 Hback   80 Hpol N
                 Vfront   54 Vsync   2 Vback    8 Vpol N
    DTD 2:  1920x1080   60.003698 Hz  16:9     68.644 kHz    142.780000 MHz (155 mm x 87 mm)
                 Hfront   48 Hsync  32 Hback   80 Hpol P
                 Vfront   54 Vsync   2 Vback    8 Vpol N
    Display Range Limits:
      Monitor ranges (Bare Limits): 48-120 Hz V, 140-140 kHz H, max dotclock 290 MHz
    Display Product Name: 'TL070FDXS01'
Checksum: 0xc5

----------------

Block 1, Unknown EDID Extension Block 0x00:
  00 ff ff ff ff ff ff 00 51 a1 43 20 00 00 00 00 '........Q.C ....'
  05 22 01 04 a5 10 08 78 07 6e a1 a4 52 4c 9a 25 '.".....x.n..RL.%'
  0f 50 54 00 00 00 01 01 01 01 01 01 01 01 01 01 '.PT.............'
  01 01 01 01 01 01 8b 6f 80 a0 70 38 40 40 30 20 '.......o..p8@@0 '
  62 0c 9b 57 00 00 00 18 c6 37 80 a0 70 38 40 40 'b..W.....7..p8@@'
  30 20 62 0c 9b 57 00 00 00 1a 00 00 00 fd 00 30 '0 b..W.........0'
  78 8c 8c 1d 01 0a 20 20 20 20 20 20 00 00 00 fc 'x.....      ....'
  00 54 4c 30 37 30 46 44 58 53 30 31 0a 20 00 c5 '.TL070FDXS01. ..'
Checksum: 0xc5

----------------

Warnings:

Block 0, Base EDID:
  Basic Display Parameters & Features: Dubious maximum image size (16x8 is smaller than 10x10 cm).
EDID:
  Base EDID: Some timings are out of range of the Monitor Ranges:
    Horizontal Freq: 68.644 - 137.283 kHz (Monitor: 140.000 - 140.000 kHz)

Failures:

Block 0, Base EDID:
  Basic Display Parameters & Features: sRGB is signaled, but the chromaticities do not match.
Block 1, Base EDID:
  Unknown Extension Block.
EDID:
  Base EDID: EDID specified 0 extension block(s), but found 1 extension block(s).

EDID conformity: FAIL
