edid-decode (hex):

00 ff ff ff ff ff ff 00 1e 94 d7 00 01 00 00 00
30 16 01 03 08 30 1b 78 ea d6 a5 a2 59 4a 95 24
14 50 54 af cf 00 b3 00 81 40 81 c0 81 8c 81 8a
3b 80 01 01 01 01 7b 43 80 90 72 38 28 40 80 c8
35 00 70 cf 10 00 00 1c 83 21 56 b2 51 00 1b 30
40 70 36 00 00 00 00 00 00 18 7c 2e 40 10 62 84
1c 30 60 a8 13 00 9a 00 11 00 00 1e 00 00 00 fc
00 47 54 31 39 32 30 0a 20 20 20 20 20 20 00 f7

00 ff ff ff ff ff ff 00 1e 94 d7 00 01 00 00 00
30 16 01 03 08 30 1b 78 ea d6 a5 a2 59 4a 95 24
14 50 54 af cf 00 b3 00 81 40 81 c0 81 8c 81 8a
3b 80 01 01 01 01 7b 43 80 90 72 38 28 40 80 c8
35 00 70 cf 10 00 00 1c 83 21 56 b2 51 00 1b 30
40 70 36 00 00 00 00 00 00 18 7c 2e 40 10 62 84
1c 30 60 a8 13 00 9a 00 11 00 00 1e 00 00 00 fc
00 47 54 31 39 32 30 0a 20 20 20 20 20 20 00 f7

----------------

Block 0, Base EDID:
  EDID Structure Version & Revision: 1.3
  Vendor & Product Identification:
    Manufacturer: GTT
    Model: 215
    Serial Number: ...
    Made in: week 48 of 2012
  Basic Display Parameters & Features:
    Analog display
    Signal Level Standard: 0.700 : 0.300 : 1.000 V p-p
    Blank level equals black level
    Sync: Separate
    Maximum image size: 48 cm x 27 cm
    Gamma: 2.20
    DPMS levels: Standby Suspend Off
    RGB color display
    First detailed timing is the preferred timing
  Color Characteristics:
    Red  : 0.6357, 0.3486
    Green: 0.2900, 0.5839
    Blue : 0.1425, 0.0800
    White: 0.3134, 0.3291
  Established Timings I & II:
    IBM     :   720x400    70.081663 Hz   9:5     31.467 kHz     28.320000 MHz
    DMT 0x04:   640x480    59.940476 Hz   4:3     31.469 kHz     25.175000 MHz
    DMT 0x05:   640x480    72.808802 Hz   4:3     37.861 kHz     31.500000 MHz
    DMT 0x06:   640x480    75.000000 Hz   4:3     37.500 kHz     31.500000 MHz
    DMT 0x08:   800x600    56.250000 Hz   4:3     35.156 kHz     36.000000 MHz
    DMT 0x09:   800x600    60.316541 Hz   4:3     37.879 kHz     40.000000 MHz
    DMT 0x0a:   800x600    72.187572 Hz   4:3     48.077 kHz     50.000000 MHz
    DMT 0x0b:   800x600    75.000000 Hz   4:3     46.875 kHz     49.500000 MHz
    DMT 0x10:  1024x768    60.003840 Hz   4:3     48.363 kHz     65.000000 MHz
    DMT 0x11:  1024x768    70.069359 Hz   4:3     56.476 kHz     75.000000 MHz
    DMT 0x12:  1024x768    75.028582 Hz   4:3     60.023 kHz     78.750000 MHz
    DMT 0x24:  1280x1024   75.024675 Hz   5:4     79.976 kHz    135.000000 MHz
  Standard Timings:
    DMT 0x3a:  1680x1050   59.954250 Hz  16:10    65.290 kHz    146.250000 MHz
    DMT 0x20:  1280x960    60.000000 Hz   4:3     60.000 kHz    108.000000 MHz
    DMT 0x55:  1280x720    60.000000 Hz  16:9     45.000 kHz     74.250000 MHz
    GTF     :  1280x1024   72.000069 Hz   5:4     76.824 kHz    132.752000 MHz
    GTF     :  1280x1024   69.999805 Hz   5:4     74.620 kHz    128.943000 MHz
    GTF     :   720x576    60.000294 Hz   5:4     35.820 kHz     32.668000 MHz
  Detailed Timing Descriptors:
    DTD 1:  1920x1080   59.876192 Hz  16:9     67.061 kHz    172.750000 MHz (368 mm x 207 mm)
                 Hfront  128 Hsync 200 Hback  328 Hpol N
                 Vfront    3 Vsync   5 Vback   32 Vpol P
    DTD 2:  1366x768    59.951083 Hz 683:384   47.661 kHz     85.790000 MHz
                 Hfront   64 Hsync 112 Hback  258 Hpol N
                 Vfront    3 Vsync   6 Vback   18 Vpol N
    DTD 3:  1600x900    60.259755 Hz  16:9     55.921 kHz    119.000000 MHz (410 mm x 256 mm)
                 Hfront   96 Hsync 168 Hback  264 Hpol P
                 Vfront    1 Vsync   3 Vback   24 Vpol P
    Display Product Name: 'GT1920'
Checksum: 0xf7

----------------

Block 1, Unknown EDID Extension Block 0x00:
  00 ff ff ff ff ff ff 00 1e 94 d7 00 01 00 00 00 '................'
  30 16 01 03 08 30 1b 78 ea d6 a5 a2 59 4a 95 24 '0....0.x....YJ.$'
  14 50 54 af cf 00 b3 00 81 40 81 c0 81 8c 81 8a '.PT......@......'
  3b 80 01 01 01 01 7b 43 80 90 72 38 28 40 80 c8 ';.....{C..r8(@..'
  35 00 70 cf 10 00 00 1c 83 21 56 b2 51 00 1b 30 '5.p......!V.Q..0'
  40 70 36 00 00 00 00 00 00 18 7c 2e 40 10 62 84 '@p6.......|.@.b.'
  1c 30 60 a8 13 00 9a 00 11 00 00 1e 00 00 00 fc '.0`.............'
  00 47 54 31 39 32 30 0a 20 20 20 20 20 20 00 f7 '.GT1920.      ..'
Checksum: 0xf7

----------------

Failures:

Block 0, Base EDID:
  Detailed Timing Descriptor #1: Mismatch of image size 368x207 mm vs display size 480x270 mm.
  Detailed Timing Descriptor #2: Mismatch of image size vs display size: image size is not set, but display size is.
  Detailed Timing Descriptor #3: Mismatch of image size 410x256 mm vs display size 480x270 mm.
  Missing Display Range Limits Descriptor.
Block 1, Base EDID:
  Unknown Extension Block.
EDID:
  Base EDID: EDID specified 0 extension block(s), but found 1 extension block(s).

EDID conformity: FAIL
