
EDID (hex):
00ffffffffffff004c2d4d0c46584d30
2c190104b53d23783b5fb1a2574fa228
0f5054230800810081c08180a9c0b300
95000101010114e60026f17042800820
480c5f592100001a000000fd0036408e
8e3c010a202020202020000000fc0055
3238453539300a2020202020000000ff
00485450474130313838370a20200139
02030ff0421061230907078301000002
3a801871382d40582c45005f59210000
1e565e00a0a0a02950302035005f5921
00001a4dd000a0f0703e80302035005f
592100001a0000000000000000000000
00000000000000000000000000000000
00000000000000000000000000000000
00000000000000000000000000000009

Extracted contents:
header:          00 ff ff ff ff ff ff 00
serial number:   4c 2d 4d 0c 46 58 4d 30 2c 19
version:         01 04
basic params:    b5 3d 23 78 3b
chroma info:     5f b1 a2 57 4f a2 28 0f 50 54
established:     23 08 00
standard:        81 00 81 c0 81 80 a9 c0 b3 00 95 00 01 01 01 01
descriptor 1:    14 e6 00 26 f1 70 42 80 08 20 48 0c 5f 59 21 00 00 1a
descriptor 2:    00 00 00 fd 00 36 40 8e 8e 3c 01 0a 20 20 20 20 20 20
descriptor 3:    00 00 00 fc 00 55 32 38 45 35 39 30 0a 20 20 20 20 20
descriptor 4:    00 00 00 ff 00 48 54 50 47 41 30 31 38 38 37 0a 20 20
extensions:      01
checksum:        39

EDID version: 1.4
Manufacturer: SAM Model c4d Serial Number --
Made in week 44 of 2015
Digital display
10 bits per primary color channel
DisplayPort interface
Maximum image size: 61 cm x 35 cm
Gamma: 2.20
DPMS levels: Off
Supported color formats: RGB 4:4:4, YCrCb 4:4:4, YCrCb 4:2:2
First detailed timing includes the native pixel format and preferred refresh rate
Display is continuous frequency
Display x,y Chromaticity:
  Red:   0.6337, 0.3408
  Green: 0.3115, 0.6357
  Blue:  0.1582, 0.0615
  White: 0.3125, 0.3291
Established timings supported:
  640x480@60Hz 4:3 HorFreq: 31469 Hz Clock: 25.175 MHz
  800x600@56Hz 4:3 HorFreq: 35200 Hz Clock: 36.000 MHz
  800x600@60Hz 4:3 HorFreq: 37900 Hz Clock: 40.000 MHz
  1024x768@60Hz 4:3 HorFreq: 48400 Hz Clock: 65.000 MHz
Standard timings supported:
  1280x800@60Hz 16:10
  1280x720@60Hz 16:9
  1280x1024@60Hz 5:4 HorFreq: 64000 Hz Clock: 108.000 MHz
  1600x900@60Hz 16:9
  1680x1050@60Hz 16:10 HorFreq: 64700 Hz Clock: 119.000 MHz
  1440x900@60Hz 16:10 HorFreq: 55500 Hz Clock: 88.750 MHz
Detailed mode: Clock 589.000 MHz, 607 mm x 345 mm
               3840 3848 3880 4134 hborder 0
               2160 2212 2220 2226 vborder 0
               +hsync -vsync 
               VertFreq: 64 Hz, HorFreq: 142477 Hz
Monitor ranges (bare limits): 54-64Hz V, 142-142kHz H, max dotclock 600MHz
Monitor name: U28E590
Serial number: --
Has 1 extension blocks
Checksum: 0x39 (valid)

CTA extension block
Extension version: 3
11 bytes of CTA data
  Video data block
    VIC  16 1920x1080@60Hz 16:9  HorFreq: 67500 Hz Clock: 148.500 MHz
    VIC  97 3840x2160@60Hz 16:9  HorFreq: 135000 Hz Clock: 594.000 MHz
  Audio data block
    Linear PCM, max channels 2
      Supported sample rates (kHz): 48 44.1 32
      Supported sample sizes (bits): 24 20 16
  Speaker allocation data block
    Speaker map:
      FL/FR - Front Left/Right
Underscans PC formats by default
Basic audio support
Supports YCbCr 4:4:4
Supports YCbCr 4:2:2
0 native detailed modes
Detailed mode: Clock 148.500 MHz, 607 mm x 345 mm
               1920 2008 2052 2200 hborder 0
               1080 1084 1089 1125 vborder 0
               +hsync +vsync 
               VertFreq: 60 Hz, HorFreq: 67500 Hz
Detailed mode: Clock 241.500 MHz, 607 mm x 345 mm
               2560 2608 2640 2720 hborder 0
               1440 1443 1448 1481 vborder 0
               +hsync -vsync 
               VertFreq: 59 Hz, HorFreq: 88786 Hz
Detailed mode: Clock 533.250 MHz, 607 mm x 345 mm
               3840 3888 3920 4000 hborder 0
               2160 2163 2168 2222 vborder 0
               +hsync -vsync 
               VertFreq: 59 Hz, HorFreq: 133312 Hz
Checksum: 0x9 (valid)

Warning: One or more of the timings is out of range of the Monitor Ranges:
  Vertical Freq: 56 - 64 Hz
  Horizontal Freq: 31469 - 142477 Hz
  Maximum Clock: 594.000 MHz
EDID block does not conform at all!
	Both the serial number and the serial string are set
