edid-decode (hex):

00 ff ff ff ff ff ff 00 0e 14 85 1c 00 00 00 00
06 14 01 03 80 16 0c 78 0a 82 7d 99 57 4f 99 26
1c 50 54 00 00 00 01 01 01 01 01 01 01 01 01 01
01 01 01 01 01 01 14 1e 56 e2 50 00 26 30 3b 27
59 00 df 7d 00 00 00 1a 78 1d 56 c2 50 00 26 30
3b 27 59 00 df 7d 00 00 00 1a 00 00 00 fe 00 31
4b 4e 54 44 80 31 30 31 57 41 31 20 00 00 00 00
00 00 00 00 00 00 00 00 00 01 01 0a 20 20 00 c8

----------------

Block 0, Base EDID:
  EDID Structure Version & Revision: 1.3
  Vendor & Product Identification:
    Manufacturer: CPT
    Model: 7301
    Made in: week 6 of 2010
  Basic Display Parameters & Features:
    Digital display
    Maximum image size: 22 cm x 12 cm
    Gamma: 2.20
    RGB color display
    First detailed timing is the preferred timing
  Color Characteristics:
    Red  : 0.5996, 0.3398
    Green: 0.3085, 0.5996
    Blue : 0.1494, 0.1123
    White: 0.3154, 0.3291
  Established Timings I & II: none
  Standard Timings: none
  Detailed Timing Descriptors:
    DTD 1:  1366x768    60.008 Hz 683:384  48.367 kHz  77.000 MHz (223 mm x 125 mm)
                 Hfront   59 Hsync  39 Hback 128 Hpol P
                 Vfront    5 Vsync   9 Vback  24 Vpol N
    DTD 2:  1366x768    59.999 Hz 683:384  48.359 kHz  75.440 MHz (223 mm x 125 mm)
                 Hfront   59 Hsync  39 Hback  96 Hpol P
                 Vfront    5 Vsync   9 Vback  24 Vpol N
    Alphanumeric Data String: '1KNTD'
    Manufacturer-Specified Display Descriptor (0x00): 00 00 00 00 00 00 00 00 00 00 00 01 01 0a 20 20 '..............  '
Checksum: 0xc8

----------------

Failures:

Block 0, Base EDID:
  Alphanumeric Data String: Non-printable character.
  Missing Display Product Name.
  Missing Display Range Limits Descriptor.

EDID conformity: FAIL
