
EDID (hex):
00ffffffffffff000e14851c00000000
2515010380160c780a827d99574f9926
1c505400000001010101010101010101
010101010101781d56c2500026303b27
5900de7d000000190000000f00202020
2020202020a0ff023200000000fe0043
50540a202020202020202020000000fe
00434c414131303157413031412000a6

Extracted contents:
header:          00 ff ff ff ff ff ff 00
serial number:   0e 14 85 1c 00 00 00 00 25 15
version:         01 03
basic params:    80 16 0c 78 0a
chroma info:     82 7d 99 57 4f 99 26 1c 50 54
established:     00 00 00
standard:        01 01 01 01 01 01 01 01 01 01 01 01 01 01 01 01
descriptor 1:    78 1d 56 c2 50 00 26 30 3b 27 59 00 de 7d 00 00 00 19
descriptor 2:    00 00 00 0f 00 20 20 20 20 20 20 20 20 a0 ff 02 32 00
descriptor 3:    00 00 00 fe 00 43 50 54 0a 20 20 20 20 20 20 20 20 20
descriptor 4:    00 00 00 fe 00 43 4c 41 41 31 30 31 57 41 30 31 41 20
extensions:      00
checksum:        a6

EDID version: 1.3
Manufacturer: CPT Model 1c85 Serial Number --
Made in week 37 of 2011
Digital display
Maximum image size: 22 cm x 12 cm
Gamma: 2.20
RGB color display
First detailed timing is preferred timing
Display x,y Chromaticity:
  Red:   0.5996, 0.3398
  Green: 0.3085, 0.5996
  Blue:  0.1494, 0.1123
  White: 0.3154, 0.3291
Established timings supported:
Standard timings supported:
Detailed mode: Clock 75.440 MHz, 222 mm x 125 mm
               1366 1425 1464 1560 hborder 0
                768  773  782  806 vborder 0
               -hsync -vsync 
               VertFreq: 59 Hz, HorFreq: 48358 Hz
Manufacturer-specified data, tag 15
ASCII string: CPT
ASCII string: CLAA101WA01A 
Checksum: 0xa6 (valid)
EDID block does NOT conform to EDID 1.3!
	Missing name descriptor
	Missing monitor ranges
