
EDID (hex):
00ffffffffffff0004726c05b4a29082
1d1c0104a5351e7822a135a35b4fa327
115054b30c00d1c0b300950081808100
81c0714f0101023a801871382d40582c
45000f282100001e000000fd00324b40
5311000a202020202020000000ff0054
39414545303035343230350a000000fc
0041636572204554323431590a20000c

Extracted contents:
header:          00 ff ff ff ff ff ff 00
serial number:   04 72 6c 05 b4 a2 90 82 1d 1c
version:         01 04
basic params:    a5 35 1e 78 22
chroma info:     a1 35 a3 5b 4f a3 27 11 50 54
established:     b3 0c 00
standard:        d1 c0 b3 00 95 00 81 80 81 00 81 c0 71 4f 01 01
descriptor 1:    02 3a 80 18 71 38 2d 40 58 2c 45 00 0f 28 21 00 00 1e
descriptor 2:    00 00 00 fd 00 32 4b 40 53 11 00 0a 20 20 20 20 20 20
descriptor 3:    00 00 00 ff 00 54 39 41 45 45 30 30 35 34 32 30 35 0a
descriptor 4:    00 00 00 fc 00 41 63 65 72 20 45 54 32 34 31 59 0a 20
extensions:      00
checksum:        0c

EDID version: 1.4
Manufacturer: ACR Model 56c Serial Number --
Made in week 29 of 2018
Digital display
8 bits per primary color channel
DisplayPort interface
Maximum image size: 53 cm x 30 cm
Gamma: 2.20
DPMS levels: Off
Supported color formats: RGB 4:4:4
First detailed timing includes the native pixel format and preferred refresh rate
Display x,y Chromaticity:
  Red:   0.6386, 0.3574
  Green: 0.3085, 0.6376
  Blue:  0.1523, 0.0693
  White: 0.3134, 0.3291
Established timings supported:
  720x400@70Hz 9:5 HorFreq: 31469 Hz Clock: 28.320 MHz
  640x480@60Hz 4:3 HorFreq: 31469 Hz Clock: 25.175 MHz
  640x480@67Hz 4:3 HorFreq: 35000 Hz Clock: 30.240 MHz
  800x600@56Hz 4:3 HorFreq: 35200 Hz Clock: 36.000 MHz
  800x600@60Hz 4:3 HorFreq: 37900 Hz Clock: 40.000 MHz
  1024x768@60Hz 4:3 HorFreq: 48400 Hz Clock: 65.000 MHz
  1024x768@70Hz 4:3 HorFreq: 56500 Hz Clock: 75.000 MHz
Standard timings supported:
  1920x1080@60Hz 16:9
  1680x1050@60Hz 16:10 HorFreq: 64700 Hz Clock: 119.000 MHz
  1440x900@60Hz 16:10 HorFreq: 55500 Hz Clock: 88.750 MHz
  1280x1024@60Hz 5:4 HorFreq: 64000 Hz Clock: 108.000 MHz
  1280x800@60Hz 16:10
  1280x720@60Hz 16:9
  1152x864@75Hz 4:3 HorFreq: 67500 Hz Clock: 108.000 MHz
Detailed mode: Clock 148.500 MHz, 527 mm x 296 mm
               1920 2008 2052 2200 hborder 0
               1080 1084 1089 1125 vborder 0
               +hsync +vsync 
               VertFreq: 60 Hz, HorFreq: 67500 Hz
Monitor ranges (GTF): 50-75Hz V, 64-83kHz H, max dotclock 170MHz
Serial number: --
Monitor name: Acer ET241Y
Checksum: 0xc (valid)
Warning: One or more of the timings is out of range of the Monitor Ranges:
  Vertical Freq: 56 - 75 Hz
  Horizontal Freq: 31469 - 67500 Hz
  Maximum Clock: 148.500 MHz
