
EDID (hex):
00ffffffffffff001e6d2a56e0e60100
05110103805c34960af330a75442aa26
0f484c00000001010101010101010101
0101010101018c0ad08a20e02d10103e
9600c48e21000018000000fc0032364c
4333522d5a4a0a202020000000fd002d
41193208000a20202020202000000000
000000000000000000000000000001af
02031c72230907024907168103051413
12048301000065030c001000011d8018
711c1620582c2500c48e2100009e011d
80d0721c1620102c2580c48e2100009e
011d00bc52d01e20b8285540c48e2100
001e8c0ad090204031200c405500c48e
21000018011d007251d01e206e285500
c48e2100001e0000000000000000002f

Extracted contents:
header:          00 ff ff ff ff ff ff 00
serial number:   1e 6d 2a 56 e0 e6 01 00 05 11
version:         01 03
basic params:    80 5c 34 96 0a
chroma info:     f3 30 a7 54 42 aa 26 0f 48 4c
established:     00 00 00
standard:        01 01 01 01 01 01 01 01 01 01 01 01 01 01 01 01
descriptor 1:    8c 0a d0 8a 20 e0 2d 10 10 3e 96 00 c4 8e 21 00 00 18
descriptor 2:    00 00 00 fc 00 32 36 4c 43 33 52 2d 5a 4a 0a 20 20 20
descriptor 3:    00 00 00 fd 00 2d 41 19 32 08 00 0a 20 20 20 20 20 20
descriptor 4:    00 00 00 00 00 00 00 00 00 00 00 00 00 00 00 00 00 00
extensions:      01
checksum:        af

EDID version: 1.3
Manufacturer: GSM Model 562a Serial Number --
Made in week 5 of 2007
Digital display
Maximum image size: 92 cm x 52 cm
Gamma: 2.50
RGB color display
First detailed timing is preferred timing
Display x,y Chromaticity:
  Red:   0.6552, 0.3310
  Green: 0.2578, 0.6669
  Blue:  0.1484, 0.0615
  White: 0.2812, 0.2968
Established timings supported:
Standard timings supported:
Detailed mode: Clock 27.000 MHz, 708 mm x 398 mm
                720  736  798  858 hborder 0
                480  489  495  525 vborder 0
               -hsync -vsync 
               VertFreq: 59 Hz, HorFreq: 31468 Hz
Monitor name: 26LC3R-ZJ
Monitor ranges (GTF): 45-65Hz V, 25-50kHz H, max dotclock 80MHz
Manufacturer-specified data, tag 0
Has 1 extension blocks
Checksum: 0xaf (valid)

CTA extension block
Extension version: 3
24 bytes of CTA data
  Audio data block
    Linear PCM, max channels 2
      Supported sample rates (kHz): 48 44.1 32
      Supported sample sizes (bits): 20
  Video data block
    VIC   7 1440x480i@60Hz 16:9  HorFreq: 15734 Hz Clock: 27.000 MHz
    VIC  22 1440x576i@50Hz 16:9  HorFreq: 15625 Hz Clock: 27.000 MHz
    VIC   1 640x480@60Hz 4:3 (native) HorFreq: 31469 Hz Clock: 25.175 MHz
    VIC   3 720x480@60Hz 16:9  HorFreq: 31469 Hz Clock: 27.000 MHz
    VIC   5 1920x1080i@60Hz 16:9  HorFreq: 33750 Hz Clock: 74.250 MHz
    VIC  20 1920x1080i@50Hz 16:9  HorFreq: 28125 Hz Clock: 74.250 MHz
    VIC  19 1280x720@50Hz 16:9  HorFreq: 37500 Hz Clock: 74.250 MHz
    VIC  18 720x576@50Hz 16:9  HorFreq: 31250 Hz Clock: 27.000 MHz
    VIC   4 1280x720@60Hz 16:9  HorFreq: 45000 Hz Clock: 74.250 MHz
  Speaker allocation data block
    Speaker map:
      FL/FR - Front Left/Right
  Vendor-specific data block, OUI 000c03 (HDMI)
    Source physical address 1.0.0.0
Basic audio support
Supports YCbCr 4:4:4
Supports YCbCr 4:2:2
2 native detailed modes
Detailed mode: Clock 74.250 MHz, 708 mm x 398 mm
               1920 2008 2052 2200 hborder 0
                540  542  547  562 vborder 0
               +hsync +vsync interlaced 
               VertFreq: 60 Hz, HorFreq: 33750 Hz
Detailed mode: Clock 74.250 MHz, 708 mm x 398 mm
               1920 2448 2492 2640 hborder 0
                540  542  547  562 vborder 0
               +hsync +vsync interlaced 
               VertFreq: 50 Hz, HorFreq: 28125 Hz
Detailed mode: Clock 74.250 MHz, 708 mm x 398 mm
               1280 1720 1760 1980 hborder 0
                720  725  730  750 vborder 0
               +hsync +vsync 
               VertFreq: 50 Hz, HorFreq: 37500 Hz
Detailed mode: Clock 27.000 MHz, 708 mm x 398 mm
                720  732  796  864 hborder 0
                576  581  586  625 vborder 0
               -hsync -vsync 
               VertFreq: 50 Hz, HorFreq: 31250 Hz
Detailed mode: Clock 74.250 MHz, 708 mm x 398 mm
               1280 1390 1430 1650 hborder 0
                720  725  730  750 vborder 0
               +hsync +vsync 
               VertFreq: 60 Hz, HorFreq: 45000 Hz
Checksum: 0x2f (valid)

One or more of the timings is out of range of the Monitor Ranges:
  Vertical Freq: 50 - 60 Hz
  Horizontal Freq: 15625 - 45000 Hz
  Maximum Clock: 74.250 MHz


