
EDID (hex):
00ffffffffffff0051b8601500000000
1e1f0104a522157807ee96a3544c9926
0f4e5100000001010101010101010101
010101010101ccf680afc0d050703020
750450d21000001e88a480afc0d05070
3020750450d21000001e000000fd0030
5abcbc3f010a202020202020000000fc
00544c3135364d444d5031312d30005b

Extracted contents:
header:          00 ff ff ff ff ff ff 00
serial number:   51 b8 60 15 00 00 00 00 1e 1f
version:         01 04
basic params:    a5 22 15 78 07
chroma info:     ee 96 a3 54 4c 99 26 0f 4e 51
established:     00 00 00
standard:        01 01 01 01 01 01 01 01 01 01 01 01 01 01 01 01
descriptor 1:    cc f6 80 af c0 d0 50 70 30 20 75 04 50 d2 10 00 00 1e
descriptor 2:    88 a4 80 af c0 d0 50 70 30 20 75 04 50 d2 10 00 00 1e
descriptor 3:    00 00 00 fd 00 30 5a bc bc 3f 01 0a 20 20 20 20 20 20
descriptor 4:    00 00 00 fc 00 54 4c 31 35 36 4d 44 4d 50 31 31 2d 30
extensions:      00
checksum:        5b

EDID version: 1.4
Manufacturer: TMX Model 1560 Serial Number --
Made in week 30 of 2021
Digital display
8 bits per primary color channel
DisplayPort interface
Maximum image size: 34 cm x 21 cm
Gamma: 2.20
Supported color formats: RGB 4:4:4
Default (sRGB) color space is primary color space
First detailed timing includes the native pixel format and preferred refresh rate
Display is continuous frequency
Display x,y Chromaticity:
  Red:   0.6396, 0.3300
  Green: 0.2998, 0.5996
  Blue:  0.1503, 0.0595
  White: 0.3056, 0.3183
Established timings supported:
Standard timings supported:
Detailed mode: Clock 631.800 MHz, 336 mm x 210 mm
               3200 3248 3280 3375 hborder 0
               2000 2023 2028 2080 vborder 0
               +hsync +vsync 
               VertFreq: 90 Hz, HorFreq: 187200 Hz
Detailed mode: Clock 421.200 MHz, 336 mm x 210 mm
               3200 3248 3280 3375 hborder 0
               2000 2023 2028 2080 vborder 0
               +hsync +vsync 
               VertFreq: 60 Hz, HorFreq: 124800 Hz
Monitor ranges (bare limits): 48-90Hz V, 188-188kHz H, max dotclock 630MHz
Checksum: 0x5b (valid)
EDID block does NOT conform to EDID 1.4!
	sRGB is signaled, but the chromaticities do not match
	Name descriptor not terminated with a newline
Warning: One or more of the timings is out of range of the Monitor Ranges:
  Vertical Freq: 60 - 90 Hz
  Horizontal Freq: 124800 - 187200 Hz
  Maximum Clock: 631.800 MHz
