edid-decode (hex):

00 ff ff ff ff ff ff 00 51 b8 60 15 00 00 00 00
0a 1f 01 04 a5 22 13 78 07 ee 91 a3 54 4c 99 26
0f 50 54 00 00 00 01 01 01 01 01 01 01 01 01 01
01 01 01 01 01 01 e5 88 80 b2 70 38 50 40 2c 20
86 04 58 c2 10 00 00 18 0a 39 80 b2 70 38 50 40
2c 20 86 04 58 c2 10 00 00 18 00 00 00 fd 00 30
90 ac ac 24 01 0a 20 20 20 20 20 20 00 00 00 0f
00 0c 30 f2 0f 3c 96 1f 0b 20 9d 00 00 00 00 00

00 ff ff ff ff ff ff 00 51 b8 60 15 00 00 00 00
0a 1f 01 04 a5 22 13 78 07 ee 91 a3 54 4c 99 26
0f 50 54 00 00 00 01 01 01 01 01 01 01 01 01 01
01 01 01 01 01 01 e5 88 80 b2 70 38 50 40 2c 20
86 04 58 c2 10 00 00 18 0a 39 80 b2 70 38 50 40
2c 20 86 04 58 c2 10 00 00 18 00 00 00 fd 00 30
90 ac ac 24 01 0a 20 20 20 20 20 20 00 00 00 0f
00 0c 30 f2 0f 3c 96 1f 0b 20 9d 00 00 00 00 00

----------------

Block 0, Base EDID:
  EDID Structure Version & Revision: 1.4
  Vendor & Product Identification:
    Manufacturer: TMX
    Model: 5472
    Made in: week 10 of 2021
  Basic Display Parameters & Features:
    Digital display
    Bits per primary color channel: 8
    DisplayPort interface
    Maximum image size: 34 cm x 19 cm
    Gamma: 2.20
    Supported color formats: RGB 4:4:4
    Default (sRGB) color space is primary color space
    First detailed timing includes the native pixel format and preferred refresh rate
    Display is continuous frequency
  Color Characteristics:
    Red  : 0.6396, 0.3300
    Green: 0.2998, 0.5996
    Blue : 0.1503, 0.0595
    White: 0.3125, 0.3291
  Established Timings I & II: none
  Standard Timings: none
  Detailed Timing Descriptors:
    DTD 1:  1920x1080  144.000033 Hz  16:9    167.040 kHz    350.450000 MHz (344 mm x 194 mm)
                 Hfront   44 Hsync  32 Hback  102 Hpol N
                 Vfront   24 Vsync   6 Vback   50 Vpol N
    DTD 2:  1920x1080   59.999671 Hz  16:9     69.600 kHz    146.020000 MHz (344 mm x 194 mm)
                 Hfront   44 Hsync  32 Hback  102 Hpol N
                 Vfront   24 Vsync   6 Vback   50 Vpol N
    Display Range Limits:
      Monitor ranges (Bare Limits): 48-144 Hz V, 172-172 kHz H, max dotclock 360 MHz
    Manufacturer-Specified Display Descriptor (0x0f): 00 0f 00 0c 30 f2 0f 3c 96 1f 0b 20 9d 00 00 00 '....0..<... ....'
Checksum: 0x00

----------------

Block 1, Unknown EDID Extension Block 0x00:
  00 ff ff ff ff ff ff 00 51 b8 60 15 00 00 00 00 '........Q.`.....'
  0a 1f 01 04 a5 22 13 78 07 ee 91 a3 54 4c 99 26 '.....".x....TL.&'
  0f 50 54 00 00 00 01 01 01 01 01 01 01 01 01 01 '.PT.............'
  01 01 01 01 01 01 e5 88 80 b2 70 38 50 40 2c 20 '..........p8P@, '
  86 04 58 c2 10 00 00 18 0a 39 80 b2 70 38 50 40 '..X......9..p8P@'
  2c 20 86 04 58 c2 10 00 00 18 00 00 00 fd 00 30 ', ..X..........0'
  90 ac ac 24 01 0a 20 20 20 20 20 20 00 00 00 0f '...$..      ....'
  00 0c 30 f2 0f 3c 96 1f 0b 20 9d 00 00 00 00 00 '..0..<... ......'
Checksum: 0x00

----------------

Warnings:

Block 0, Base EDID:
  Missing Display Product Name.
EDID:
  Base EDID: Some timings are out of range of the Monitor Ranges:
    Horizontal Freq: 69.599 - 167.040 kHz (Monitor: 172.000 - 172.000 kHz)

Failures:

Block 1, Base EDID:
  Unknown Extension Block.
EDID:
  Base EDID: EDID specified 0 extension block(s), but found 1 extension block(s).

EDID conformity: FAIL
