
EDID (hex):
00ffffffffffff0011a7ffff00000000
151f0104b55021783b64f5ad5049a322
135054a54b00714f81c0814081809500
a9c0b300d1c04d7d70a0d0a02d503020
35001d4e3100001a99fa70a0d0a02d50
302035001d4e3100001a000000fd006e
a5a0a03c010a202020202020000000fc
0033344348520a2020202020202002de
020327f44f010203040590111213141f
4021223f2309070783010000e6060701
605d29e305e301023a801871382d4058
2c96001d4e3100001e58bd00a0a0a02d
50302035001d4e3100001ad5d070a0d0
a02d50302035001d4e3100001aa348b8
6861a03250304035001d4e3100001a00
00000000000000000000000000000032
7012790000030050b62c01046f0d9f00
2f001f009f052c0002800400ab5e0004
ff099f002f001f009f052c0002000400
1b8200047f07870017801f0037042c00
02000400905801046f0d9f002f001f00
9f052c000200040007000a0881000804
00040210000000000000000000000000
0000000000000000000000000000eb90

Extracted contents:
header:          00 ff ff ff ff ff ff 00
serial number:   11 a7 ff ff 00 00 00 00 15 1f
version:         01 04
basic params:    b5 50 21 78 3b
chroma info:     64 f5 ad 50 49 a3 22 13 50 54
established:     a5 4b 00
standard:        71 4f 81 c0 81 40 81 80 95 00 a9 c0 b3 00 d1 c0
descriptor 1:    4d 7d 70 a0 d0 a0 2d 50 30 20 35 00 1d 4e 31 00 00 1a
descriptor 2:    99 fa 70 a0 d0 a0 2d 50 30 20 35 00 1d 4e 31 00 00 1a
descriptor 3:    00 00 00 fd 00 6e a5 a0 a0 3c 01 0a 20 20 20 20 20 20
descriptor 4:    00 00 00 fc 00 33 34 43 48 52 0a 20 20 20 20 20 20 20
extensions:      02
checksum:        de

EDID version: 1.4
Manufacturer: DMG Model ffff Serial Number --
Made in week 21 of 2021
Digital display
10 bits per primary color channel
DisplayPort interface
Maximum image size: 80 cm x 33 cm
Gamma: 2.20
DPMS levels: Off
Supported color formats: RGB 4:4:4, YCrCb 4:4:4, YCrCb 4:2:2
First detailed timing includes the native pixel format and preferred refresh rate
Display is continuous frequency
Display x,y Chromaticity:
  Red:   0.6767, 0.3144
  Green: 0.2861, 0.6367
  Blue:  0.1357, 0.0771
  White: 0.3134, 0.3291
Established timings supported:
  720x400@70Hz 9:5 HorFreq: 31469 Hz Clock: 28.320 MHz
  640x480@60Hz 4:3 HorFreq: 31469 Hz Clock: 25.175 MHz
  640x480@75Hz 4:3 HorFreq: 37500 Hz Clock: 31.500 MHz
  800x600@60Hz 4:3 HorFreq: 37900 Hz Clock: 40.000 MHz
  800x600@75Hz 4:3 HorFreq: 46900 Hz Clock: 49.500 MHz
  1024x768@60Hz 4:3 HorFreq: 48400 Hz Clock: 65.000 MHz
  1024x768@75Hz 4:3 HorFreq: 60000 Hz Clock: 78.750 MHz
  1280x1024@75Hz 5:4 HorFreq: 80000 Hz Clock: 135.000 MHz
Standard timings supported:
  1152x864@75Hz 4:3 HorFreq: 67500 Hz Clock: 108.000 MHz
  1280x720@60Hz 16:9
  1280x960@60Hz 4:3 HorFreq: 60000 Hz Clock: 108.000 MHz
  1280x1024@60Hz 5:4 HorFreq: 64000 Hz Clock: 108.000 MHz
  1440x900@60Hz 16:10 HorFreq: 55500 Hz Clock: 88.750 MHz
  1600x900@60Hz 16:9
  1680x1050@60Hz 16:10 HorFreq: 64700 Hz Clock: 119.000 MHz
  1920x1080@60Hz 16:9
Detailed mode: Clock 320.770 MHz, 797 mm x 334 mm
               3440 3488 3520 3600 hborder 0
               1440 1443 1448 1485 vborder 0
               +hsync -vsync 
               VertFreq: 60 Hz, HorFreq: 89102 Hz
Detailed mode: Clock 641.530 MHz, 797 mm x 334 mm
               3440 3488 3520 3600 hborder 0
               1440 1443 1448 1485 vborder 0
               +hsync -vsync 
               VertFreq: 120 Hz, HorFreq: 178202 Hz
Monitor ranges (bare limits): 110-165Hz V, 160-160kHz H, max dotclock 600MHz
Monitor name: 34CHR
Has 2 extension blocks
Checksum: 0xde (valid)

CTA extension block
Extension version: 3
35 bytes of CTA data
  Video data block
    VIC   1 640x480@60Hz 4:3  HorFreq: 31469 Hz Clock: 25.175 MHz
    VIC   2 720x480@60Hz 4:3  HorFreq: 31469 Hz Clock: 27.000 MHz
    VIC   3 720x480@60Hz 16:9  HorFreq: 31469 Hz Clock: 27.000 MHz
    VIC   4 1280x720@60Hz 16:9  HorFreq: 45000 Hz Clock: 74.250 MHz
    VIC   5 1920x1080i@60Hz 16:9  HorFreq: 33750 Hz Clock: 74.250 MHz
    VIC  16 1920x1080@60Hz 16:9 (native) HorFreq: 67500 Hz Clock: 148.500 MHz
    VIC  17 720x576@50Hz 4:3  HorFreq: 31250 Hz Clock: 27.000 MHz
    VIC  18 720x576@50Hz 16:9  HorFreq: 31250 Hz Clock: 27.000 MHz
    VIC  19 1280x720@50Hz 16:9  HorFreq: 37500 Hz Clock: 74.250 MHz
    VIC  20 1920x1080i@50Hz 16:9  HorFreq: 28125 Hz Clock: 74.250 MHz
    VIC  31 1920x1080@50Hz 16:9  HorFreq: 56250 Hz Clock: 148.500 MHz
    VIC  64 1920x1080@100Hz 16:9  HorFreq: 112500 Hz Clock: 297.000 MHz
    VIC  33 1920x1080@25Hz 16:9  HorFreq: 28125 Hz Clock: 74.250 MHz
    VIC  34 1920x1080@30Hz 16:9  HorFreq: 33750 Hz Clock: 74.250 MHz
    VIC  63 1920x1080@120Hz 16:9  HorFreq: 135000 Hz Clock: 297.000 MHz
  Audio data block
    Linear PCM, max channels 2
      Supported sample rates (kHz): 48 44.1 32
      Supported sample sizes (bits): 24 20 16
  Speaker allocation data block
    Speaker map:
      FL/FR - Front Left/Right
  Extended tag: HDR static metadata data block
    Electro optical transfer functions:
      Traditional gamma - SDR luminance range
      Traditional gamma - HDR luminance range
      SMPTE ST2084
    Supported static metadata descriptors:
      Static metadata type 1
    Desired content max luminance: 96 (400.000 cd/m^2)
    Desired content max frame-average luminance: 93 (374.834 cd/m^2)
    Desired content min luminance: 41 (0.103 cd/m^2)
  Extended tag: Colorimetry data block
    xvYCC601
    xvYCC709
    BT2020cYCC
    BT2020YCC
    BT2020RGB
Underscans PC formats by default
Basic audio support
Supports YCbCr 4:4:4
Supports YCbCr 4:2:2
4 native detailed modes
Detailed mode: Clock 148.500 MHz, 797 mm x 334 mm
               1920 2008 2052 2200 hborder 0
               1080 1089 1095 1125 vborder 0
               +hsync +vsync 
               VertFreq: 60 Hz, HorFreq: 67500 Hz
Detailed mode: Clock 484.720 MHz, 797 mm x 334 mm
               2560 2608 2640 2720 hborder 0
               1440 1443 1448 1485 vborder 0
               +hsync -vsync 
               VertFreq: 120 Hz, HorFreq: 178205 Hz
Detailed mode: Clock 534.610 MHz, 797 mm x 334 mm
               3440 3488 3520 3600 hborder 0
               1440 1443 1448 1485 vborder 0
               +hsync -vsync 
               VertFreq: 100 Hz, HorFreq: 148502 Hz
Detailed mode: Clock 185.950 MHz, 797 mm x 334 mm
               1720 1768 1832 2080 hborder 0
               1440 1443 1448 1490 vborder 0
               +hsync -vsync 
               VertFreq: 59 Hz, HorFreq: 89399 Hz
Checksum: 0x32 (valid)


DisplayID extension block
Extension version: 18
Length 121, version 18, extension count 0
Checksum: 0xeb (valid)
Type 1 detailed timing: aspect: 16:9,  
Detailed mode: Clock 769.820 MHz, 0 mm x 0 mm
               3439 3486 3517 3598
               1439 1441 1445 1483
               -hsync +vsync
Type 1 detailed timing: aspect: 16:9,  
Detailed mode: Clock 242.350 MHz, 0 mm x 0 mm
               2559 2606 2637 2718
               1439 1441 1445 1483
               -hsync -vsync
Type 1 detailed timing: aspect: 16:9,  
Detailed mode: Clock 333.070 MHz, 0 mm x 0 mm
               1919 1942 1973 2054
               1079 1081 1085 1123
               +hsync -vsync
Type 1 detailed timing: aspect: 16:9,  
Detailed mode: Clock 882.080 MHz, 0 mm x 0 mm
               3439 3486 3517 3598
               1439 1441 1445 1483
               -hsync -vsync
VESA DMT timing block

Warning: One or more of the timings is out of range of the Monitor Ranges:
  Vertical Freq: 25 - 120 Hz
  Horizontal Freq: 28125 - 178205 Hz
  Maximum Clock: 641.530 MHz


