
EDID (hex):
00ffffffffffff001ab32002e9b30700
320b010308201880ea5e89a353469824
11484ca44300315945596159a94f0101
010101010101863d00c05100304040a0
130032e61000001e000000ff00594550
4c3530343830390a2020000000fd0032
a01e6015000a202020202020000000fc
00433739320a202020202020202000eb

Extracted contents:
header:          00 ff ff ff ff ff ff 00
serial number:   1a b3 20 02 e9 b3 07 00 32 0b
version:         01 03
basic params:    08 20 18 80 ea
chroma info:     5e 89 a3 53 46 98 24 11 48 4c
established:     a4 43 00
standard:        31 59 45 59 61 59 a9 4f 01 01 01 01 01 01 01 01
descriptor 1:    86 3d 00 c0 51 00 30 40 40 a0 13 00 32 e6 10 00 00 1e
descriptor 2:    00 00 00 ff 00 59 45 50 4c 35 30 34 38 30 39 0a 20 20
descriptor 3:    00 00 00 fd 00 32 a0 1e 60 15 00 0a 20 20 20 20 20 20
descriptor 4:    00 00 00 fc 00 43 37 39 32 0a 20 20 20 20 20 20 20 20
extensions:      00
checksum:        eb

EDID version: 1.3
Manufacturer: FUS Model 220 Serial Number --
Analog display, Input voltage level: 0.7/0.3 V
Sync: Separate 
Maximum image size: 32 cm x 24 cm
Gamma: 2.28
DPMS levels: Standby Suspend Off
RGB color display
First detailed timing is preferred timing
Display x,y Chromaticity:
  Red:   0.6376, 0.3251
  Green: 0.2763, 0.5957
  Blue:  0.1425, 0.0664
  White: 0.2832, 0.2978
Established timings supported:
  720x400@70Hz 9:5 HorFreq: 31469 Hz Clock: 28.320 MHz
  640x480@60Hz 4:3 HorFreq: 31469 Hz Clock: 25.175 MHz
  640x480@75Hz 4:3 HorFreq: 37500 Hz Clock: 31.500 MHz
  800x600@75Hz 4:3 HorFreq: 46900 Hz Clock: 49.500 MHz
  1024x768@75Hz 4:3 HorFreq: 60000 Hz Clock: 78.750 MHz
  1280x1024@75Hz 5:4 HorFreq: 80000 Hz Clock: 135.000 MHz
Standard timings supported:
  640x480@85Hz 4:3 HorFreq: 43300 Hz Clock: 36.000 MHz
  800x600@85Hz 4:3 HorFreq: 53700 Hz Clock: 56.250 MHz
  1024x768@85Hz 4:3 HorFreq: 68700 Hz Clock: 94.500 MHz
  1600x1200@75Hz 4:3 HorFreq: 93800 Hz Clock: 202.500 MHz
Detailed mode: Clock 157.500 MHz, 306 mm x 230 mm
               1280 1344 1504 1728 hborder 0
               1024 1025 1028 1072 vborder 0
               +hsync +vsync 
               VertFreq: 85 Hz, HorFreq: 91145 Hz
Serial number: --
Monitor ranges (GTF): 50-160Hz V, 30-96kHz H, max dotclock 210MHz
Monitor name: C792
Checksum: 0xeb (valid)
EDID block does not conform at all!
	Bad year of manufacture
