edid-decode (hex):

00 ff ff ff ff ff ff 00 06 af b2 13 00 00 00 00
00 22 01 04 b5 1e 13 78 03 f1 85 a8 53 4a 9e 24
0f 50 54 00 00 00 01 01 01 01 01 01 01 01 01 01
01 01 01 01 01 01 e3 9f 00 a0 a0 40 48 60 30 20
35 00 2d bc 10 00 00 1a 46 55 00 a0 a0 40 48 60
30 20 35 00 2d bc 10 00 00 1a 00 00 00 fe 00 38
43 35 4d 47 80 42 31 34 30 51 41 4e 00 00 00 00
00 03 41 2a 9e 00 11 00 00 0b 41 0a 20 20 00 fb

00 ff ff ff ff ff ff 00 06 af b2 13 00 00 00 00
00 22 01 04 b5 1e 13 78 03 f1 85 a8 53 4a 9e 24
0f 50 54 00 00 00 01 01 01 01 01 01 01 01 01 01
01 01 01 01 01 01 e3 9f 00 a0 a0 40 48 60 30 20
35 00 2d bc 10 00 00 1a 46 55 00 a0 a0 40 48 60
30 20 35 00 2d bc 10 00 00 1a 00 00 00 fe 00 38
43 35 4d 47 80 42 31 34 30 51 41 4e 00 00 00 00
00 03 41 2a 9e 00 11 00 00 0b 41 0a 20 20 00 fb

----------------

Block 0, Base EDID:
  EDID Structure Version & Revision: 1.4
  Vendor & Product Identification:
    Manufacturer: AUO
    Model: 5042
    Made in: 2024
  Basic Display Parameters & Features:
    Digital display
    Bits per primary color channel: 10
    DisplayPort interface
    Maximum image size: 30 cm x 19 cm
    Gamma: 2.20
    Supported color formats: RGB 4:4:4
    First detailed timing includes the native pixel format and preferred refresh rate
    Display is continuous frequency
  Color Characteristics:
    Red  : 0.6591, 0.3271
    Green: 0.2890, 0.6181
    Blue : 0.1425, 0.0585
    White: 0.3134, 0.3291
  Established Timings I & II: none
  Standard Timings: none
  Detailed Timing Descriptors:
    DTD 1:  2560x1600   90.000967 Hz  16:10   150.482 kHz    409.310000 MHz (301 mm x 188 mm)
                 Hfront   48 Hsync  32 Hback   80 Hpol P
                 Vfront    3 Vsync   5 Vback   64 Vpol N
    DTD 2:  2560x1600   48.000809 Hz  16:10    80.257 kHz    218.300000 MHz (301 mm x 188 mm)
                 Hfront   48 Hsync  32 Hback   80 Hpol P
                 Vfront    3 Vsync   5 Vback   64 Vpol N
    Alphanumeric Data String: '8C5MG'
    Manufacturer-Specified Display Descriptor (0x00): 00 00 00 03 41 2a 9e 00 11 00 00 0b 41 0a 20 20 '....A*......A.  '
Checksum: 0xfb

----------------

Block 1, Unknown EDID Extension Block 0x00:
  00 ff ff ff ff ff ff 00 06 af b2 13 00 00 00 00 '................'
  00 22 01 04 b5 1e 13 78 03 f1 85 a8 53 4a 9e 24 '.".....x....SJ.$'
  0f 50 54 00 00 00 01 01 01 01 01 01 01 01 01 01 '.PT.............'
  01 01 01 01 01 01 e3 9f 00 a0 a0 40 48 60 30 20 '...........@H`0 '
  35 00 2d bc 10 00 00 1a 46 55 00 a0 a0 40 48 60 '5.-.....FU...@H`'
  30 20 35 00 2d bc 10 00 00 1a 00 00 00 fe 00 38 '0 5.-..........8'
  43 35 4d 47 80 42 31 34 30 51 41 4e 00 00 00 00 'C5MG.B140QAN....'
  00 03 41 2a 9e 00 11 00 00 0b 41 0a 20 20 00 fb '..A*......A.  ..'
Checksum: 0xfb

----------------

Warnings:

Block 0, Base EDID:
  Missing Display Product Name.

Failures:

Block 0, Base EDID:
  Alphanumeric Data String: Non-printable character.
  Missing Display Range Limits Descriptor.
Block 1, Base EDID:
  Unknown Extension Block.
EDID:
  Base EDID: EDID specified 0 extension block(s), but found 1 extension block(s).

EDID conformity: FAIL
