
EDID (hex):
00ffffffffffff0005e3102401010101
0014010368341d782aeed5a555489b26
125054afce0081c081809500b3000101
010101010101023a801871382d40582c
450009252100001ea91a00a050001630
3020370009252100001a000000fd0037
4c1e4c0f000a202020202020000000fc
004c453234483036370a2020202000ba

Extracted contents:
header:          00 ff ff ff ff ff ff 00
serial number:   05 e3 10 24 01 01 01 01 00 14
version:         01 03
basic params:    68 34 1d 78 2a
chroma info:     ee d5 a5 55 48 9b 26 12 50 54
established:     af ce 00
standard:        81 c0 81 80 95 00 b3 00 01 01 01 01 01 01 01 01
descriptor 1:    02 3a 80 18 71 38 2d 40 58 2c 45 00 09 25 21 00 00 1e
descriptor 2:    a9 1a 00 a0 50 00 16 30 30 20 37 00 09 25 21 00 00 1a
descriptor 3:    00 00 00 fd 00 37 4c 1e 4c 0f 00 0a 20 20 20 20 20 20
descriptor 4:    00 00 00 fc 00 4c 45 32 34 48 30 36 37 0a 20 20 20 20
extensions:      00
checksum:        ba

EDID version: 1.3
Manufacturer: AOC Model 2410 Serial Number --
Made in year 2010
Analog display, Input voltage level: 0.7/0.7 V
Sync: Separate 
Maximum image size: 52 cm x 29 cm
Gamma: 2.20
DPMS levels: Off
RGB color display
First detailed timing is preferred timing
Display x,y Chromaticity:
  Red:   0.6474, 0.3339
  Green: 0.2841, 0.6074
  Blue:  0.1513, 0.0712
  White: 0.3134, 0.3291
Established timings supported:
  720x400@70Hz 9:5 HorFreq: 31469 Hz Clock: 28.320 MHz
  640x480@60Hz 4:3 HorFreq: 31469 Hz Clock: 25.175 MHz
  640x480@72Hz 4:3 HorFreq: 37900 Hz Clock: 31.500 MHz
  640x480@75Hz 4:3 HorFreq: 37500 Hz Clock: 31.500 MHz
  800x600@56Hz 4:3 HorFreq: 35200 Hz Clock: 36.000 MHz
  800x600@60Hz 4:3 HorFreq: 37900 Hz Clock: 40.000 MHz
  800x600@72Hz 4:3 HorFreq: 48100 Hz Clock: 50.000 MHz
  800x600@75Hz 4:3 HorFreq: 46900 Hz Clock: 49.500 MHz
  1024x768@60Hz 4:3 HorFreq: 48400 Hz Clock: 65.000 MHz
  1024x768@70Hz 4:3 HorFreq: 56500 Hz Clock: 75.000 MHz
  1024x768@75Hz 4:3 HorFreq: 60000 Hz Clock: 78.750 MHz
Standard timings supported:
  1280x720@60Hz 16:9
  1280x1024@60Hz 5:4 HorFreq: 64000 Hz Clock: 108.000 MHz
  1440x900@60Hz 16:10 HorFreq: 55500 Hz Clock: 88.750 MHz
  1680x1050@60Hz 16:10 HorFreq: 64700 Hz Clock: 119.000 MHz
Detailed mode: Clock 148.500 MHz, 521 mm x 293 mm
               1920 2008 2052 2200 hborder 0
               1080 1084 1089 1125 vborder 0
               +hsync +vsync 
               VertFreq: 60 Hz, HorFreq: 67500 Hz
Detailed mode: Clock 68.250 MHz, 521 mm x 293 mm
               1280 1328 1360 1440 hborder 0
                768  771  778  790 vborder 0
               +hsync -vsync 
               VertFreq: 59 Hz, HorFreq: 47395 Hz
Monitor ranges (GTF): 55-76Hz V, 30-76kHz H, max dotclock 150MHz
Monitor name: LE24H067
Checksum: 0xba (valid)
