
EDID (hex):
00ffffffffffff000daed61400000000
2a1a0104951f1178028ed59457539327
21505400000001010101010101010101
010101010101da1d56e250002030442d
470035ad10000018000000fe004e3134
304247412d4541340a20000000fe0043
4d4e0a202020202020202020000000fe
004e3134304247412d4541340a20009a

Extracted contents:
header:          00 ff ff ff ff ff ff 00
serial number:   0d ae d6 14 00 00 00 00 2a 1a
version:         01 04
basic params:    95 1f 11 78 02
chroma info:     8e d5 94 57 53 93 27 21 50 54
established:     00 00 00
standard:        01 01 01 01 01 01 01 01 01 01 01 01 01 01 01 01
descriptor 1:    da 1d 56 e2 50 00 20 30 44 2d 47 00 35 ad 10 00 00 18
descriptor 2:    00 00 00 fe 00 4e 31 34 30 42 47 41 2d 45 41 34 0a 20
descriptor 3:    00 00 00 fe 00 43 4d 4e 0a 20 20 20 20 20 20 20 20 20
descriptor 4:    00 00 00 fe 00 4e 31 34 30 42 47 41 2d 45 41 34 0a 20
extensions:      00
checksum:        9a

EDID version: 1.4
Manufacturer: CMN Model 14d6 Serial Number --
Made in week 42 of 2016
Digital display
6 bits per primary color channel
DisplayPort interface
Maximum image size: 31 cm x 17 cm
Gamma: 2.20
Supported color formats: RGB 4:4:4
First detailed timing includes the native pixel format and preferred refresh rate
Display x,y Chromaticity:
  Red:   0.5800, 0.3398
  Green: 0.3271, 0.5761
  Blue:  0.1552, 0.1298
  White: 0.3134, 0.3291
Established timings supported:
Standard timings supported:
Detailed mode: Clock 76.420 MHz, 309 mm x 173 mm
               1366 1434 1479 1592 hborder 0
                768  772  779  800 vborder 0
               -hsync -vsync 
               VertFreq: 60 Hz, HorFreq: 48002 Hz
ASCII string: N140BGA-EA4
ASCII string: CMN
ASCII string: N140BGA-EA4
Checksum: 0x9a (valid)
EDID block does NOT conform to EDID 1.4!
	Missing name descriptor
	Missing monitor ranges
