edid-decode (hex):

00 ff ff ff ff ff ff 00 4e 14 01 20 24 04 00 00
27 0e 01 03 80 29 1f 78 ea 30 85 a6 56 4a 99 24
14 50 54 21 08 00 a9 40 01 01 01 01 01 01 01 01
01 01 01 01 01 01 30 2a 00 98 51 00 2c 40 30 70
13 00 98 32 11 00 00 1e 00 00 00 fd 00 38 41 1f
50 11 00 0a 20 20 20 20 20 20 00 00 00 fc 00 53
63 65 70 74 72 65 20 58 32 30 47 2d 00 00 00 fc
00 4e 41 47 41 20 49 49 0a 20 20 20 20 20 00 be

----------------

Block 0, Base EDID:
  EDID Structure Version & Revision: 1.3
  Vendor & Product Identification:
    Manufacturer: SPT
    Model: 8193
    Serial Number: ...
    Made in: week 39 of 2004
  Basic Display Parameters & Features:
    Digital display
    Maximum image size: 41 cm x 31 cm
    Gamma: 2.20
    DPMS levels: Standby Suspend Off
    RGB color display
    First detailed timing is the preferred timing
  Color Characteristics:
    Red  : 0.6484, 0.3388
    Green: 0.2890, 0.5976
    Blue : 0.1425, 0.0781
    White: 0.3134, 0.3291
  Established Timings I & II:
    DMT 0x04:   640x480    59.940476 Hz   4:3     31.469 kHz     25.175000 MHz
    DMT 0x09:   800x600    60.316541 Hz   4:3     37.879 kHz     40.000000 MHz
    DMT 0x10:  1024x768    60.003840 Hz   4:3     48.363 kHz     65.000000 MHz
  Standard Timings:
    DMT 0x33:  1600x1200   60.000000 Hz   4:3     75.000 kHz    162.000000 MHz
  Detailed Timing Descriptors:
    DTD 1:  1280x1024   59.907343 Hz   5:4     63.981 kHz    108.000000 MHz (408 mm x 306 mm)
                 Hfront   48 Hsync 112 Hback  248 Hpol P
                 Vfront    1 Vsync   3 Vback   40 Vpol P
    Display Range Limits:
      Monitor ranges (GTF): 56-65 Hz V, 31-80 kHz H, max dotclock 170 MHz
    Display Product Name: 'Sceptre X20G-'
    Display Product Name: 'NAGA II'
Checksum: 0xbe

----------------

EDID conformity: PASS
