
EDID (hex):
00ffffffffffff0009d1957845540000
191501030e2213782eb0249f59569326
0d505421080081c00101010101010101
010101010101662156aa51001e30468f
330058c11000001e000000ff00503642
3033353739534c300a0a000000fd003b
3d1e3f0b000a202020202020000000fc
0042656e5120473631354844504c000c

Extracted contents:
header:          00 ff ff ff ff ff ff 00
serial number:   09 d1 95 78 45 54 00 00 19 15
version:         01 03
basic params:    0e 22 13 78 2e
chroma info:     b0 24 9f 59 56 93 26 0d 50 54
established:     21 08 00
standard:        81 c0 01 01 01 01 01 01 01 01 01 01 01 01 01 01
descriptor 1:    66 21 56 aa 51 00 1e 30 46 8f 33 00 58 c1 10 00 00 1e
descriptor 2:    00 00 00 ff 00 50 36 42 30 33 35 37 39 53 4c 30 0a 0a
descriptor 3:    00 00 00 fd 00 3b 3d 1e 3f 0b 00 0a 20 20 20 20 20 20
descriptor 4:    00 00 00 fc 00 42 65 6e 51 20 47 36 31 35 48 44 50 4c
extensions:      00
checksum:        0c

EDID version: 1.3
Manufacturer: BNQ Model 7895 Serial Number --
Made in week 25 of 2011
Analog display, Input voltage level: 0.7/0.3 V
Sync: Separate Composite SyncOnGreen 
Maximum image size: 34 cm x 19 cm
Gamma: 2.20
DPMS levels: Off
RGB color display
Default (sRGB) color space is primary color space
First detailed timing is preferred timing
Display x,y Chromaticity:
  Red:   0.6230, 0.3505
  Green: 0.3359, 0.5742
  Blue:  0.1484, 0.0527
  White: 0.3134, 0.3281
Established timings supported:
  640x480@60Hz 4:3 HorFreq: 31469 Hz Clock: 25.175 MHz
  800x600@60Hz 4:3 HorFreq: 37900 Hz Clock: 40.000 MHz
  1024x768@60Hz 4:3 HorFreq: 48400 Hz Clock: 65.000 MHz
Standard timings supported:
  1280x720@60Hz 16:9
Detailed mode: Clock 85.500 MHz, 344 mm x 193 mm
               1366 1436 1579 1792 hborder 0
                768  771  774  798 vborder 0
               +hsync +vsync 
               VertFreq: 59 Hz, HorFreq: 47712 Hz
Serial number: --
Monitor ranges (GTF): 59-61Hz V, 30-63kHz H, max dotclock 110MHz
Checksum: 0xc (valid)
EDID block does NOT conform to EDID 1.3!
	sRGB is signaled, but the chromaticities do not match
	Name descriptor not terminated with a newline
	Detailed block string not properly terminated
