
EDID (hex):
00ffffffffffff000daeba1500000000
1d160104902213780246359e57579427
14505400000001010101010101010101
010101010101963b803271383e405a3c
690058c21000001ab927803271383e40
5a3c690058c21000001a000000fe0039
464e3459803135364847450a00000000
000041319e0010000002010a20200013

Extracted contents:
header:          00 ff ff ff ff ff ff 00
serial number:   0d ae ba 15 00 00 00 00 1d 16
version:         01 04
basic params:    90 22 13 78 02
chroma info:     46 35 9e 57 57 94 27 14 50 54
established:     00 00 00
standard:        01 01 01 01 01 01 01 01 01 01 01 01 01 01 01 01
descriptor 1:    96 3b 80 32 71 38 3e 40 5a 3c 69 00 58 c2 10 00 00 1a
descriptor 2:    b9 27 80 32 71 38 3e 40 5a 3c 69 00 58 c2 10 00 00 1a
descriptor 3:    00 00 00 fe 00 39 46 4e 34 59 80 31 35 36 48 47 45 0a
descriptor 4:    00 00 00 00 00 00 41 31 9e 00 10 00 00 02 01 0a 20 20
extensions:      00
checksum:        13

EDID version: 1.4
Manufacturer: CMN Model 15ba Serial Number --
Made in week 29 of 2012
Digital display
6 bits per primary color channel
Digital interface is not defined
Maximum image size: 34 cm x 19 cm
Gamma: 2.20
Supported color formats: RGB 4:4:4
First detailed timing includes the native pixel format and preferred refresh rate
Display x,y Chromaticity:
  Red:   0.6181, 0.3398
  Green: 0.3408, 0.5800
  Blue:  0.1523, 0.0810
  White: 0.3134, 0.3291
Established timings supported:
Standard timings supported:
Detailed mode: Clock 152.540 MHz, 344 mm x 194 mm
               1920 2010 2070 2226 hborder 0
               1080 1086 1095 1142 vborder 0
               +hsync -vsync 
               VertFreq: 60 Hz, HorFreq: 68526 Hz
Detailed mode: Clock 101.690 MHz, 344 mm x 194 mm
               1920 2010 2070 2226 hborder 0
               1080 1086 1095 1142 vborder 0
               +hsync -vsync 
               VertFreq: 40 Hz, HorFreq: 45682 Hz
ASCII string: 9FN4Y
Manufacturer-specified data, tag 0
Checksum: 0x13 (valid)
EDID block does NOT conform to EDID 1.4!
	Missing name descriptor
	Missing monitor ranges
	Detailed block string not properly terminated
