
EDID (hex):
00ffffffffffff00220e744201000000
0119010381301b78ea64b5ab5238ab25
13505400000001010101010101010101
010101010101023a801871382d406040
8400dc0c1100001c0000001000000000
00000000000000000000000000fc0048
5020414c4c2d696e2d4f6e65000000ff
004d5632313546484d2d4e36300a00db

Extracted contents:
header:          00 ff ff ff ff ff ff 00
serial number:   22 0e 74 42 01 00 00 00 01 19
version:         01 03
basic params:    81 30 1b 78 ea
chroma info:     64 b5 ab 52 38 ab 25 13 50 54
established:     00 00 00
standard:        01 01 01 01 01 01 01 01 01 01 01 01 01 01 01 01
descriptor 1:    02 3a 80 18 71 38 2d 40 60 40 84 00 dc 0c 11 00 00 1c
descriptor 2:    00 00 00 10 00 00 00 00 00 00 00 00 00 00 00 00 00 00
descriptor 3:    00 00 00 fc 00 48 50 20 41 4c 4c 2d 69 6e 2d 4f 6e 65
descriptor 4:    00 00 00 ff 00 4d 56 32 31 35 46 48 4d 2d 4e 36 30 0a
extensions:      00
checksum:        db

EDID version: 1.3
Manufacturer: HPN Model 4274 Serial Number --
Made in week 1 of 2015
Digital display
DFP 1.x compatible TMDS
Maximum image size: 48 cm x 27 cm
Gamma: 2.20
DPMS levels: Standby Suspend Off
RGB color display
First detailed timing is preferred timing
Display x,y Chromaticity:
  Red:   0.6689, 0.3222
  Green: 0.2197, 0.6679
  Blue:  0.1464, 0.0771
  White: 0.3134, 0.3291
Established timings supported:
Standard timings supported:
Detailed mode: Clock 148.500 MHz, 476 mm x 268 mm
               1920 2016 2080 2200 hborder 0
               1080 1088 1092 1125 vborder 0
               -hsync +vsync 
               VertFreq: 60 Hz, HorFreq: 67500 Hz
Dummy block
Serial number: --
Checksum: 0xdb (valid)
EDID block does NOT conform to EDID 1.3!
	Name descriptor not terminated with a newline
	Missing monitor ranges
