
EDID (hex):
00ffffffffffff000daf211300000000
35130103801d10780ad6f59559569127
20505400000001010101010101010101
010101010101121b566c500010302016
240025a410000018000000fe004e3133
3342362d4c30320a2020000000fe0043
4d4f0a202020202020202020000000fe
004e31333342362d4c30320a2020002f

Extracted contents:
header:          00 ff ff ff ff ff ff 00
serial number:   0d af 21 13 00 00 00 00 35 13
version:         01 03
basic params:    80 1d 10 78 0a
chroma info:     d6 f5 95 59 56 91 27 20 50 54
established:     00 00 00
standard:        01 01 01 01 01 01 01 01 01 01 01 01 01 01 01 01
descriptor 1:    12 1b 56 6c 50 00 10 30 20 16 24 00 25 a4 10 00 00 18
descriptor 2:    00 00 00 fe 00 4e 31 33 33 42 36 2d 4c 30 32 0a 20 20
descriptor 3:    00 00 00 fe 00 43 4d 4f 0a 20 20 20 20 20 20 20 20 20
descriptor 4:    00 00 00 fe 00 4e 31 33 33 42 36 2d 4c 30 32 0a 20 20
extensions:      00
checksum:        2f

EDID version: 1.3
Manufacturer: CMO Model 1321 Serial Number --
Made in week 53 of 2009
Digital display
Maximum image size: 29 cm x 16 cm
Gamma: 2.20
RGB color display
First detailed timing is preferred timing
Display x,y Chromaticity:
  Red:   0.5849, 0.3486
  Green: 0.3369, 0.5683
  Blue:  0.1552, 0.1279
  White: 0.3134, 0.3291
Established timings supported:
Standard timings supported:
Detailed mode: Clock 69.300 MHz, 293 mm x 164 mm
               1366 1398 1420 1474 hborder 0
                768  770  774  784 vborder 0
               -hsync -vsync 
               VertFreq: 59 Hz, HorFreq: 47014 Hz
ASCII string: N133B6-L02
ASCII string: CMO
ASCII string: N133B6-L02
Checksum: 0x2f (valid)
EDID block does NOT conform to EDID 1.3!
	Missing name descriptor
	Missing monitor ranges
