
EDID (hex):
00ffffffffffff004c2d970200000000
2d1001036859328c2ae2bda15b4a9824
15474aadce0001010101010101010101
010101010101662150b051001b304070
360075f23100001e6419004041002630
1888360075f231000018000000fd003c
4b1e3d09000a202020202020000000fc
0053414d53554e470a20202020200029

Extracted contents:
header:          00 ff ff ff ff ff ff 00
serial number:   4c 2d 97 02 00 00 00 00 2d 10
version:         01 03
basic params:    68 59 32 8c 2a
chroma info:     e2 bd a1 5b 4a 98 24 15 47 4a
established:     ad ce 00
standard:        01 01 01 01 01 01 01 01 01 01 01 01 01 01 01 01
descriptor 1:    66 21 50 b0 51 00 1b 30 40 70 36 00 75 f2 31 00 00 1e
descriptor 2:    64 19 00 40 41 00 26 30 18 88 36 00 75 f2 31 00 00 18
descriptor 3:    00 00 00 fd 00 3c 4b 1e 3d 09 00 0a 20 20 20 20 20 20
descriptor 4:    00 00 00 fc 00 53 41 4d 53 55 4e 47 0a 20 20 20 20 20
extensions:      00
checksum:        29

EDID version: 1.3
Manufacturer: SAM Model 297 Serial Number --
Made in week 45 of 2006
Analog display, Input voltage level: 0.7/0.7 V
Sync: Separate 
Maximum image size: 89 cm x 50 cm
Gamma: 2.40
DPMS levels: Off
RGB color display
First detailed timing is preferred timing
Display x,y Chromaticity:
  Red:   0.6318, 0.3574
  Green: 0.2890, 0.5957
  Blue:  0.1425, 0.0849
  White: 0.2802, 0.2900
Established timings supported:
  720x400@70Hz 9:5 HorFreq: 31469 Hz Clock: 28.320 MHz
  640x480@60Hz 4:3 HorFreq: 31469 Hz Clock: 25.175 MHz
  640x480@72Hz 4:3 HorFreq: 37900 Hz Clock: 31.500 MHz
  640x480@75Hz 4:3 HorFreq: 37500 Hz Clock: 31.500 MHz
  800x600@60Hz 4:3 HorFreq: 37900 Hz Clock: 40.000 MHz
  800x600@72Hz 4:3 HorFreq: 48100 Hz Clock: 50.000 MHz
  800x600@75Hz 4:3 HorFreq: 46900 Hz Clock: 49.500 MHz
  1024x768@60Hz 4:3 HorFreq: 48400 Hz Clock: 65.000 MHz
  1024x768@70Hz 4:3 HorFreq: 56500 Hz Clock: 75.000 MHz
  1024x768@75Hz 4:3 HorFreq: 60000 Hz Clock: 78.750 MHz
Standard timings supported:
Detailed mode: Clock 85.500 MHz, 885 mm x 498 mm
               1360 1424 1536 1792 hborder 0
                768  771  777  795 vborder 0
               +hsync +vsync 
               VertFreq: 60 Hz, HorFreq: 47712 Hz
Detailed mode: Clock 65.000 MHz, 885 mm x 498 mm
               1024 1048 1184 1344 hborder 0
                768  771  777  806 vborder 0
               -hsync -vsync 
               VertFreq: 60 Hz, HorFreq: 48363 Hz
Monitor ranges (GTF): 60-75Hz V, 30-61kHz H, max dotclock 90MHz
Monitor name: SAMSUNG
Checksum: 0x29 (valid)
