edid-decode (hex):

00 ff ff ff ff ff ff 00 06 af 44 12 00 00 00 00
01 0f 01 03 80 20 15 78 0a 87 c5 94 57 4f 8c 27
25 50 54 00 00 00 01 01 01 01 01 01 01 01 01 01
01 01 01 01 01 01 c7 1b 00 a0 50 20 17 30 30 20
36 00 40 ce 10 00 00 19 26 17 00 a0 50 20 17 30
30 20 36 00 40 ce 10 00 00 00 00 00 00 fe 00 46
44 38 30 31 00 42 31 34 31 45 57 31 00 00 00 fe
00 f4 de d0 c4 a0 76 58 3c 01 01 0a 20 20 00 50

----------------

Block 0, Base EDID:
  EDID Structure Version & Revision: 1.3
  Vendor & Product Identification:
    Manufacturer: AUO
    Model: 4676
    Made in: week 1 of 2005
  Basic Display Parameters & Features:
    Digital display
    Maximum image size: 32 cm x 21 cm
    Gamma: 2.20
    RGB color display
    First detailed timing is the preferred timing
  Color Characteristics:
    Red  : 0.5800, 0.3398
    Green: 0.3095, 0.5498
    Blue : 0.1552, 0.1445
    White: 0.3134, 0.3291
  Established Timings I & II: none
  Standard Timings: none
  Detailed Timing Descriptors:
    DTD 1:  1280x800    60.002363 Hz   8:5     49.382 kHz     71.110000 MHz (DE timing only, 320 mm x 206 mm)
                 Hfront   48 Hsync  32 Hback   80 Hpol N
                 Vfront    3 Vsync   6 Vback   14 Vpol N
    DTD 2:  1280x800    50.003375 Hz   8:5     41.153 kHz     59.260000 MHz (DE timing only, 320 mm x 206 mm)
                 Hfront   48 Hsync  32 Hback   80 Hpol N
                 Vfront    3 Vsync   6 Vback   14 Vpol N
    SPWG Module Revision: 0
    SPWG Descriptor #3:
      SPWG PC Maker P/N: 'FD801'
      SPWG LCD Supplier EEDID Revision: 0
      SPWG Manufacturer P/N: 'B141EW1'
    SPWG Descriptor #4:
      SMBUS Values: 0xf4 0xde 0xd0 0xc4 0xa0 0x76 0x58 0x3c
      LVDS Channels: 1
      Panel Self Test Present
Checksum: 0x50

----------------

Failures:

Block 0, Base EDID:
  Missing Display Product Name.
  Missing Display Range Limits Descriptor.

EDID conformity: FAIL
