edid-decode (hex):

00 ff ff ff ff ff ff 00 0d af 08 15 00 00 00 00
35 0e 01 03 80 1e 17 78 0a 05 60 97 57 51 89 4c
1e 50 54 00 08 00 01 01 01 01 01 01 01 01 01 01
01 01 01 01 01 01 30 2a 78 20 51 1a 10 40 30 70
34 00 30 e4 10 00 00 18 00 00 00 fe 00 4e 31 35
30 50 35 0a 20 20 20 20 20 20 00 00 00 fe 00 43
4d 4f 0a 20 20 20 20 20 20 20 20 20 00 00 00 fc
00 4e 31 35 30 50 35 2d 4c 30 31 0a 20 20 00 de

----------------

Block 0, Base EDID:
  EDID Structure Version & Revision: 1.3
  Vendor & Product Identification:
    Manufacturer: CMO
    Model: 5384
    Made in: week 53 of 2004
  Basic Display Parameters & Features:
    Digital display
    Maximum image size: 30 cm x 23 cm
    Gamma: 2.20
    RGB color display
    First detailed timing is preferred timing
  Color Characteristics:
    Red  : 0.5898, 0.3398
    Green: 0.3173, 0.5361
    Blue : 0.2978, 0.1191
    White: 0.3125, 0.3281
  Established Timings I & II:
    DMT 0x10:  1024x768    60.004 Hz   4:3    48.363 kHz  65.000 MHz
  Standard Timings: none
  Detailed Timing Descriptors:
    DTD 1:  1400x1050   60.020 Hz   4:3    63.981 kHz 108.000 MHz (304 mm x 228 mm)
                 Hfront   48 Hsync 112 Hback 128 Hpol N
                 Vfront    3 Vsync   4 Vback   9 Vpol N
    Alphanumeric Data String: 'N150P5'
    Alphanumeric Data String: 'CMO'
    Display Product Name: 'N150P5-L01'
Checksum: 0xde

----------------

Failures:

Block 0, Base EDID:
  Missing Display Range Limits Descriptor.

EDID conformity: FAIL
