
EDID (hex):
00ffffffffffff000685068530383238
130b010308241d96e8fd1c99594d9226
22505ca56f80314045406140818f0101
010101010101bc34009851002a401090
1300671f11000018000000fd003a4b1f
500e000a202020202020000000fc0031
3720414e414c4f47204d4f4e000000fc
0049544f520a20202020202020200022

Extracted contents:
header:          00 ff ff ff ff ff ff 00
serial number:   06 85 06 85 30 38 32 38 13 0b
version:         01 03
basic params:    08 24 1d 96 e8
chroma info:     fd 1c 99 59 4d 92 26 22 50 5c
established:     a5 6f 80
standard:        31 40 45 40 61 40 81 8f 01 01 01 01 01 01 01 01
descriptor 1:    bc 34 00 98 51 00 2a 40 10 90 13 00 67 1f 11 00 00 18
descriptor 2:    00 00 00 fd 00 3a 4b 1f 50 0e 00 0a 20 20 20 20 20 20
descriptor 3:    00 00 00 fc 00 31 37 20 41 4e 41 4c 4f 47 20 4d 4f 4e
descriptor 4:    00 00 00 fc 00 49 54 4f 52 0a 20 20 20 20 20 20 20 20
extensions:      00
checksum:        22

EDID version: 1.3
Manufacturer: ATE Model 8506 Serial Number --
Analog display, Input voltage level: 0.7/0.3 V
Sync: Separate 
Maximum image size: 36 cm x 29 cm
Gamma: 2.50
DPMS levels: Standby Suspend Off
RGB color display
Display x,y Chromaticity:
  Red:   0.6005, 0.3505
  Green: 0.3037, 0.5712
  Blue:  0.1484, 0.1337
  White: 0.3154, 0.3593
Established timings supported:
  720x400@70Hz 9:5 HorFreq: 31469 Hz Clock: 28.320 MHz
  640x480@60Hz 4:3 HorFreq: 31469 Hz Clock: 25.175 MHz
  640x480@75Hz 4:3 HorFreq: 37500 Hz Clock: 31.500 MHz
  800x600@60Hz 4:3 HorFreq: 37900 Hz Clock: 40.000 MHz
  800x600@75Hz 4:3 HorFreq: 46900 Hz Clock: 49.500 MHz
  832x624@75Hz 4:3 HorFreq: 49726 Hz Clock: 57.284 MHz
  1024x768@60Hz 4:3 HorFreq: 48400 Hz Clock: 65.000 MHz
  1024x768@70Hz 4:3 HorFreq: 56500 Hz Clock: 75.000 MHz
  1024x768@75Hz 4:3 HorFreq: 60000 Hz Clock: 78.750 MHz
  1280x1024@75Hz 5:4 HorFreq: 80000 Hz Clock: 135.000 MHz
  1152x870@75Hz 192:145 HorFreq: 67500 Hz Clock: 108.000 MHz
Standard timings supported:
  640x480@60Hz 4:3 HorFreq: 31469 Hz Clock: 25.175 MHz
  800x600@60Hz 4:3 HorFreq: 37900 Hz Clock: 40.000 MHz
  1024x768@60Hz 4:3 HorFreq: 48400 Hz Clock: 65.000 MHz
  1280x1024@75Hz 5:4 HorFreq: 80000 Hz Clock: 135.000 MHz
Detailed mode: Clock 135.000 MHz, 359 mm x 287 mm
               1280 1296 1440 1688 hborder 0
               1024 1025 1028 1066 vborder 0
               -hsync -vsync 
               VertFreq: 75 Hz, HorFreq: 79976 Hz
Monitor ranges (GTF): 58-75Hz V, 31-80kHz H, max dotclock 140MHz
Monitor name: 17 ANALOG MONITOR
Checksum: 0x22 (valid)
EDID block does NOT conform to EDID 1.3!
	Missing preferred timing
EDID block does not conform at all!
	Bad year of manufacture
