
EDID (hex):
00ffffffffffff004c2d566000000000
0f0801010f1e1761e8b5a59e574c9825
1a4b53b76e00314f454f614f01010101
0101010101014e0c80c820e014101040
130030e4100000185613200031581920
1050130030e41000001ec31e00204100
20301060130030e41000001e000000fd
00324b1e3d08000a20202020202000cb

Extracted contents:
header:          00 ff ff ff ff ff ff 00
serial number:   4c 2d 56 60 00 00 00 00 0f 08
version:         01 01
basic params:    0f 1e 17 61 e8
chroma info:     b5 a5 9e 57 4c 98 25 1a 4b 53
established:     b7 6e 00
standard:        31 4f 45 4f 61 4f 01 01 01 01 01 01 01 01 01 01
descriptor 1:    4e 0c 80 c8 20 e0 14 10 10 40 13 00 30 e4 10 00 00 18
descriptor 2:    56 13 20 00 31 58 19 20 10 50 13 00 30 e4 10 00 00 1e
descriptor 3:    c3 1e 00 20 41 00 20 30 10 60 13 00 30 e4 10 00 00 1e
descriptor 4:    00 00 00 fd 00 32 4b 1e 3d 08 00 0a 20 20 20 20 20 20
extensions:      00
checksum:        cb

EDID version: 1.1
Manufacturer: SAM Model 6056 Serial Number --
Analog display, Input voltage level: 0.7/0.3 V
Sync: Separate Composite SyncOnGreen Serration 
Maximum image size: 30 cm x 23 cm
Gamma: 1.97
DPMS levels: Standby Suspend Off
RGB color display
Display x,y Chromaticity:
  Red:   0.6191, 0.3427
  Green: 0.2978, 0.5947
  Blue:  0.1464, 0.1035
  White: 0.2939, 0.3251
Established timings supported:
  720x400@70Hz 9:5 HorFreq: 31469 Hz Clock: 28.320 MHz
  640x480@60Hz 4:3 HorFreq: 31469 Hz Clock: 25.175 MHz
  640x480@67Hz 4:3 HorFreq: 35000 Hz Clock: 30.240 MHz
  640x480@75Hz 4:3 HorFreq: 37500 Hz Clock: 31.500 MHz
  800x600@56Hz 4:3 HorFreq: 35200 Hz Clock: 36.000 MHz
  800x600@60Hz 4:3 HorFreq: 37900 Hz Clock: 40.000 MHz
  800x600@75Hz 4:3 HorFreq: 46900 Hz Clock: 49.500 MHz
  832x624@75Hz 4:3 HorFreq: 49726 Hz Clock: 57.284 MHz
  1024x768@60Hz 4:3 HorFreq: 48400 Hz Clock: 65.000 MHz
  1024x768@70Hz 4:3 HorFreq: 56500 Hz Clock: 75.000 MHz
  1024x768@75Hz 4:3 HorFreq: 60000 Hz Clock: 78.750 MHz
Standard timings supported:
  640x480@75Hz 4:3 HorFreq: 37500 Hz Clock: 31.500 MHz
  800x600@75Hz 4:3 HorFreq: 46900 Hz Clock: 49.500 MHz
  1024x768@75Hz 4:3 HorFreq: 60000 Hz Clock: 78.750 MHz
Detailed mode: Clock 31.500 MHz, 304 mm x 228 mm
                640  656  720  840 hborder 0
                480  481  484  500 vborder 0
               -hsync -vsync 
               VertFreq: 75 Hz, HorFreq: 37500 Hz
Detailed mode: Clock 49.500 MHz, 304 mm x 228 mm
                800  816  896 1056 hborder 0
                600  601  604  625 vborder 0
               +hsync +vsync 
               VertFreq: 75 Hz, HorFreq: 46875 Hz
Detailed mode: Clock 78.750 MHz, 304 mm x 228 mm
               1024 1040 1136 1312 hborder 0
                768  769  772  800 vborder 0
               +hsync +vsync 
               VertFreq: 75 Hz, HorFreq: 60022 Hz
Monitor ranges (GTF): 50-75Hz V, 30-61kHz H, max dotclock 80MHz
Checksum: 0xcb (valid)
EDID block does NOT conform to EDID 1.0!
	Has descriptor blocks other than detailed timings
EDID block does not conform at all!
	Bad year of manufacture
