edid-decode (hex):

00 ff ff ff ff ff ff 00 4e ae 38 00 8a 1b 00 00
0e 13 01 03 0e 22 13 87 8a d7 a5 a2 59 4a 96 24
14 50 54 a3 0c 00 01 01 01 01 81 00 01 01 01 01
01 01 01 01 01 01 34 21 50 b0 51 00 1b 30 40 70
36 00 86 be 10 00 00 1c 00 00 00 fd 00 37 4c 1f
43 09 00 0a 20 20 20 20 20 20 00 00 00 fc 00 53
55 4e 50 4c 55 53 0a 20 20 20 20 20 00 00 00 ff
00 4b 4d 35 36 41 4b 0a 20 20 20 20 20 20 00 0f

00 ff ff ff ff ff ff 00 4e ae 38 00 8a 1b 00 00
0e 13 01 03 0e 22 13 87 8a d7 a5 a2 59 4a 96 24
14 50 54 a3 0c 00 01 01 01 01 81 00 01 01 01 01
01 01 01 01 01 01 34 21 50 b0 51 00 1b 30 40 70
36 00 86 be 10 00 00 1c 00 00 00 fd 00 37 4c 1f
43 09 00 0a 20 20 20 20 20 20 00 00 00 fc 00 53
55 4e 50 4c 55 53 0a 20 20 20 20 20 00 00 00 ff
00 4b 4d 35 36 41 4b 0a 20 20 20 20 20 20 00 0f

----------------

Block 0, Base EDID:
  EDID Structure Version & Revision: 1.3
  Vendor & Product Identification:
    Manufacturer: SUN
    Model: 56
    Serial Number: ...
    Made in: week 14 of 2009
  Basic Display Parameters & Features:
    Analog display
    Signal Level Standard: 0.700 : 0.300 : 1.000 V p-p
    Blank level equals black level
    Sync: Separate Composite SyncOnGreen
    Maximum image size: 34 cm x 19 cm
    Gamma: 2.35
    DPMS levels: Standby
    RGB color display
    First detailed timing is the preferred timing
  Color Characteristics:
    Red  : 0.6357, 0.3486
    Green: 0.2900, 0.5888
    Blue : 0.1425, 0.0800
    White: 0.3134, 0.3291
  Established Timings I & II:
    IBM     :   720x400    70.081663 Hz   9:5     31.467 kHz     28.320000 MHz
    DMT 0x04:   640x480    59.940476 Hz   4:3     31.469 kHz     25.175000 MHz
    DMT 0x08:   800x600    56.250000 Hz   4:3     35.156 kHz     36.000000 MHz
    DMT 0x09:   800x600    60.316541 Hz   4:3     37.879 kHz     40.000000 MHz
    DMT 0x10:  1024x768    60.003840 Hz   4:3     48.363 kHz     65.000000 MHz
    DMT 0x11:  1024x768    70.069359 Hz   4:3     56.476 kHz     75.000000 MHz
  Standard Timings:
    DMT 0x1c:  1280x800    59.810326 Hz  16:10    49.702 kHz     83.500000 MHz
  Detailed Timing Descriptors:
    DTD 1:  1360x768    59.664196 Hz  85:48    47.433 kHz     85.000000 MHz (390 mm x 190 mm)
                 Hfront   64 Hsync 112 Hback  256 Hpol N
                 Vfront    3 Vsync   6 Vback   18 Vpol P
    Display Range Limits:
      Monitor ranges (GTF): 55-76 Hz V, 31-67 kHz H, max dotclock 90 MHz
    Display Product Name: 'SUNPLUS'
    Display Product Serial Number: ...
Checksum: 0x0f

----------------

Block 1, Unknown EDID Extension Block 0x00:
  00 ff ff ff ff ff ff 00 4e ae 38 00 8a 1b 00 00 '........N.8.....'
  0e 13 01 03 0e 22 13 87 8a d7 a5 a2 59 4a 96 24 '....."......YJ.$'
  14 50 54 a3 0c 00 01 01 01 01 81 00 01 01 01 01 '.PT.............'
  01 01 01 01 01 01 34 21 50 b0 51 00 1b 30 40 70 '......4!P.Q..0@p'
  36 00 86 be 10 00 00 1c 00 00 00 fd 00 37 4c 1f '6............7L.'
  43 09 00 0a 20 20 20 20 20 20 00 00 00 fc 00 53 'C...      .....S'
  55 4e 50 4c 55 53 0a 20 20 20 20 20 00 00 00 ff 'UNPLUS.     ....'
  00 4b 4d 35 36 41 4b 0a 20 20 20 20 20 20 00 0f '.KM56AK.      ..'
Checksum: 0x0f

----------------

Failures:

Block 0, Base EDID:
  Detailed Timing Descriptor #1: Mismatch of image size 390x190 mm vs display size 340x190 mm.
Block 1, Base EDID:
  Unknown Extension Block.
EDID:
  Base EDID: The DTD max image size is 390x190mm, which is larger than the display size 340.0x190.0mm.
  Base EDID: EDID specified 0 extension block(s), but found 1 extension block(s).

EDID conformity: FAIL
