
EDID (hex):
00ffffffffffff004c2d3d0800000000
07150104a5342078229fc1a6564b9a25
135054bfef80714f8100814081800101
010101010101f03c00d051a035506088
3a0006442100001c000000fd00384b1e
5a20000a202020202020000000fc0053
4d533237413835300a202020000000ff
004831414b3530303030300a2020012d
02030cc1230907078301000000000000
00000000000000000000000000000000
00000000000000000000000000000000
00000000000000000000000000000000
00000000000000000000000000000000
00000000000000000000000000000000
00000000000000000000000000000000
00000000000000000000000000000070

Extracted contents:
header:          00 ff ff ff ff ff ff 00
serial number:   4c 2d 3d 08 00 00 00 00 07 15
version:         01 04
basic params:    a5 34 20 78 22
chroma info:     9f c1 a6 56 4b 9a 25 13 50 54
established:     bf ef 80
standard:        71 4f 81 00 81 40 81 80 01 01 01 01 01 01 01 01
descriptor 1:    f0 3c 00 d0 51 a0 35 50 60 88 3a 00 06 44 21 00 00 1c
descriptor 2:    00 00 00 fd 00 38 4b 1e 5a 20 00 0a 20 20 20 20 20 20
descriptor 3:    00 00 00 fc 00 53 4d 53 32 37 41 38 35 30 0a 20 20 20
descriptor 4:    00 00 00 ff 00 48 31 41 4b 35 30 30 30 30 30 0a 20 20
extensions:      01
checksum:        2d

EDID version: 1.4
Manufacturer: SAM Model 83d Serial Number --
Made in week 7 of 2011
Digital display
8 bits per primary color channel
DisplayPort interface
Maximum image size: 52 cm x 32 cm
Gamma: 2.20
DPMS levels: Off
Supported color formats: RGB 4:4:4
First detailed timing includes the native pixel format and preferred refresh rate
Display x,y Chromaticity:
  Red:   0.6503, 0.3369
  Green: 0.2958, 0.6044
  Blue:  0.1474, 0.0742
  White: 0.3125, 0.3291
Established timings supported:
  720x400@70Hz 9:5 HorFreq: 31469 Hz Clock: 28.320 MHz
  640x480@60Hz 4:3 HorFreq: 31469 Hz Clock: 25.175 MHz
  640x480@67Hz 4:3 HorFreq: 35000 Hz Clock: 30.240 MHz
  640x480@72Hz 4:3 HorFreq: 37900 Hz Clock: 31.500 MHz
  640x480@75Hz 4:3 HorFreq: 37500 Hz Clock: 31.500 MHz
  800x600@56Hz 4:3 HorFreq: 35200 Hz Clock: 36.000 MHz
  800x600@60Hz 4:3 HorFreq: 37900 Hz Clock: 40.000 MHz
  800x600@72Hz 4:3 HorFreq: 48100 Hz Clock: 50.000 MHz
  800x600@75Hz 4:3 HorFreq: 46900 Hz Clock: 49.500 MHz
  832x624@75Hz 4:3 HorFreq: 49726 Hz Clock: 57.284 MHz
  1024x768@60Hz 4:3 HorFreq: 48400 Hz Clock: 65.000 MHz
  1024x768@70Hz 4:3 HorFreq: 56500 Hz Clock: 75.000 MHz
  1024x768@75Hz 4:3 HorFreq: 60000 Hz Clock: 78.750 MHz
  1280x1024@75Hz 5:4 HorFreq: 80000 Hz Clock: 135.000 MHz
  1152x870@75Hz 192:145 HorFreq: 67500 Hz Clock: 108.000 MHz
Standard timings supported:
  1152x864@75Hz 4:3 HorFreq: 67500 Hz Clock: 108.000 MHz
  1280x800@60Hz 16:10
  1280x960@60Hz 4:3 HorFreq: 60000 Hz Clock: 108.000 MHz
  1280x1024@60Hz 5:4 HorFreq: 64000 Hz Clock: 108.000 MHz
Detailed mode: Clock 156.000 MHz, 518 mm x 324 mm
               1280 1376 1512 1744 hborder 0
               1440 1443 1453 1493 vborder 0
               -hsync +vsync 
               VertFreq: 59 Hz, HorFreq: 89449 Hz
Monitor ranges (GTF): 56-75Hz V, 30-90kHz H, max dotclock 320MHz
Monitor name: SMS27A850
Serial number: --
Has 1 extension blocks
Checksum: 0x2d (valid)

CTA extension block
Extension version: 3
8 bytes of CTA data
  Audio data block
    Linear PCM, max channels 2
      Supported sample rates (kHz): 48 44.1 32
      Supported sample sizes (bits): 24 20 16
  Speaker allocation data block
    Speaker map:
      FL/FR - Front Left/Right
Underscans PC formats by default
Basic audio support
1 native detailed modes
Checksum: 0x70 (valid)
