
EDID (hex):
00ffffffffffff0009e5c90a00000000
281f0104a51e137807a7e5a3544a9e25
0e505400000001010101010101010101
0101010101010753c0dc807828503020
36002ebd1000001a000000fd00283c56
5615010a202020202020000000fe0042
4f452043510a202020202020000000fe
004e5631343044524d2d4e36320a000b

Extracted contents:
header:          00 ff ff ff ff ff ff 00
serial number:   09 e5 c9 0a 00 00 00 00 28 1f
version:         01 04
basic params:    a5 1e 13 78 07
chroma info:     a7 e5 a3 54 4a 9e 25 0e 50 54
established:     00 00 00
standard:        01 01 01 01 01 01 01 01 01 01 01 01 01 01 01 01
descriptor 1:    07 53 c0 dc 80 78 28 50 30 20 36 00 2e bd 10 00 00 1a
descriptor 2:    00 00 00 fd 00 28 3c 56 56 15 01 0a 20 20 20 20 20 20
descriptor 3:    00 00 00 fe 00 42 4f 45 20 43 51 0a 20 20 20 20 20 20
descriptor 4:    00 00 00 fe 00 4e 56 31 34 30 44 52 4d 2d 4e 36 32 0a
extensions:      00
checksum:        0b

EDID version: 1.4
Manufacturer: BOE Model ac9 Serial Number --
Made in week 40 of 2021
Digital display
8 bits per primary color channel
DisplayPort interface
Maximum image size: 30 cm x 19 cm
Gamma: 2.20
Supported color formats: RGB 4:4:4
Default (sRGB) color space is primary color space
First detailed timing includes the native pixel format and preferred refresh rate
Display is continuous frequency
Display x,y Chromaticity:
  Red:   0.6386, 0.3300
  Green: 0.2900, 0.6201
  Blue:  0.1474, 0.0566
  White: 0.3134, 0.3291
Established timings supported:
Standard timings supported:
Detailed mode: Clock 212.550 MHz, 302 mm x 189 mm
               2240 2288 2320 2460 hborder 0
               1400 1403 1409 1440 vborder 0
               +hsync -vsync 
               VertFreq: 60 Hz, HorFreq: 86402 Hz
Monitor ranges (bare limits): 40-60Hz V, 86-86kHz H, max dotclock 210MHz
ASCII string: BOE CQ
ASCII string: NV140DRM-N62
Checksum: 0xb (valid)
EDID block does NOT conform to EDID 1.4!
	sRGB is signaled, but the chromaticities do not match
	Missing name descriptor
Warning: One or more of the timings is out of range of the Monitor Ranges:
  Vertical Freq: 60 - 60 Hz
  Horizontal Freq: 86402 - 86402 Hz
  Maximum Clock: 212.550 MHz
