
EDID (hex):
00ffffffffffff0004725a2801010000
1e130103802c19780ab904a6554b9b25
13505400000001010101010101010101
010101010101102740c860841a30b428
a400baf910000018000000fe00514b33
0a200a20202020202020000000fe0041
4345520a2020202020202020000000fe
004c544d3230304b5430330a20200071

Extracted contents:
header:          00 ff ff ff ff ff ff 00
serial number:   04 72 5a 28 01 01 00 00 1e 13
version:         01 03
basic params:    80 2c 19 78 0a
chroma info:     b9 04 a6 55 4b 9b 25 13 50 54
established:     00 00 00
standard:        01 01 01 01 01 01 01 01 01 01 01 01 01 01 01 01
descriptor 1:    10 27 40 c8 60 84 1a 30 b4 28 a4 00 ba f9 10 00 00 18
descriptor 2:    00 00 00 fe 00 51 4b 33 0a 20 0a 20 20 20 20 20 20 20
descriptor 3:    00 00 00 fe 00 41 43 45 52 0a 20 20 20 20 20 20 20 20
descriptor 4:    00 00 00 fe 00 4c 54 4d 32 30 30 4b 54 30 33 0a 20 20
extensions:      00
checksum:        71

EDID version: 1.3
Manufacturer: ACR Model 285a Serial Number --
Made in week 30 of 2009
Digital display
Maximum image size: 44 cm x 25 cm
Gamma: 2.20
RGB color display
First detailed timing is preferred timing
Display x,y Chromaticity:
  Red:   0.6503, 0.3349
  Green: 0.2949, 0.6064
  Blue:  0.1445, 0.0742
  White: 0.3134, 0.3281
Established timings supported:
Standard timings supported:
Detailed mode: Clock 100.000 MHz, 442 mm x 249 mm
               1600 1780 1820 1800 hborder 0
                900  910  914  926 vborder 0
               -hsync -vsync 
               VertFreq: 59 Hz, HorFreq: 55555 Hz
ASCII string: QK3
ASCII string: ACER
ASCII string: LTM200KT03
Checksum: 0x71 (valid)
EDID block does NOT conform to EDID 1.3!
	Missing name descriptor
	Missing monitor ranges
	Detailed block string not properly terminated
