
EDID (hex):
00ffffffffffff00410ce708be040000
14190103804728782a9145a7554ea025
0c5054bd4b00d1c081808140950f9500
b30081c00101565e00a0a0a029503020
3500c48e2100001e000000ff00415531
31353230303031323134000000fc0050
484c2042444d333237300a20000000fd
00324c1e6321000a202020202020009e

Extracted contents:
header:          00 ff ff ff ff ff ff 00
serial number:   41 0c e7 08 be 04 00 00 14 19
version:         01 03
basic params:    80 47 28 78 2a
chroma info:     91 45 a7 55 4e a0 25 0c 50 54
established:     bd 4b 00
standard:        d1 c0 81 80 81 40 95 0f 95 00 b3 00 81 c0 01 01
descriptor 1:    56 5e 00 a0 a0 a0 29 50 30 20 35 00 c4 8e 21 00 00 1e
descriptor 2:    00 00 00 ff 00 41 55 31 31 35 32 30 30 30 31 32 31 34
descriptor 3:    00 00 00 fc 00 50 48 4c 20 42 44 4d 33 32 37 30 0a 20
descriptor 4:    00 00 00 fd 00 32 4c 1e 63 21 00 0a 20 20 20 20 20 20
extensions:      00
checksum:        9e

EDID version: 1.3
Manufacturer: PHL Model 8e7 Serial Number --
Made in week 20 of 2015
Digital display
Maximum image size: 71 cm x 40 cm
Gamma: 2.20
DPMS levels: Off
RGB color display
First detailed timing is preferred timing
Display x,y Chromaticity:
  Red:   0.6542, 0.3330
  Green: 0.3046, 0.6259
  Blue:  0.1455, 0.0468
  White: 0.3134, 0.3291
Established timings supported:
  720x400@70Hz 9:5 HorFreq: 31469 Hz Clock: 28.320 MHz
  640x480@60Hz 4:3 HorFreq: 31469 Hz Clock: 25.175 MHz
  640x480@67Hz 4:3 HorFreq: 35000 Hz Clock: 30.240 MHz
  640x480@72Hz 4:3 HorFreq: 37900 Hz Clock: 31.500 MHz
  640x480@75Hz 4:3 HorFreq: 37500 Hz Clock: 31.500 MHz
  800x600@60Hz 4:3 HorFreq: 37900 Hz Clock: 40.000 MHz
  800x600@75Hz 4:3 HorFreq: 46900 Hz Clock: 49.500 MHz
  1024x768@60Hz 4:3 HorFreq: 48400 Hz Clock: 65.000 MHz
  1024x768@75Hz 4:3 HorFreq: 60000 Hz Clock: 78.750 MHz
  1280x1024@75Hz 5:4 HorFreq: 80000 Hz Clock: 135.000 MHz
Standard timings supported:
  1920x1080@60Hz 16:9
  1280x1024@60Hz 5:4 HorFreq: 64000 Hz Clock: 108.000 MHz
  1280x960@60Hz 4:3 HorFreq: 60000 Hz Clock: 108.000 MHz
  1440x900@75Hz 16:10 HorFreq: 82300 Hz Clock: 156.000 MHz
  1440x900@60Hz 16:10 HorFreq: 55500 Hz Clock: 88.750 MHz
  1680x1050@60Hz 16:10 HorFreq: 64700 Hz Clock: 119.000 MHz
  1280x720@60Hz 16:9
Detailed mode: Clock 241.500 MHz, 708 mm x 398 mm
               2560 2608 2640 2720 hborder 0
               1440 1443 1448 1481 vborder 0
               +hsync +vsync 
               VertFreq: 59 Hz, HorFreq: 88786 Hz
Serial number: --
Monitor name: PHL BDM3270
Monitor ranges (GTF): 50-76Hz V, 30-99kHz H, max dotclock 330MHz
Checksum: 0x9e (valid)
