
EDID (hex):
00ffffffffffff001ef9b60900000000
0c110103803421782a0d65a559499a24
135054afcf008180a940714f90409500
b30001010101283c80a070b023403020
360007442100001a000000fc00465044
32343835570a20202020000000fd0038
4c1e5310000a202020202020000000ff
004d5848373344304e3034393437009d

Extracted contents:
header:          00 ff ff ff ff ff ff 00
serial number:   1e f9 b6 09 00 00 00 00 0c 11
version:         01 03
basic params:    80 34 21 78 2a
chroma info:     0d 65 a5 59 49 9a 24 13 50 54
established:     af cf 00
standard:        81 80 a9 40 71 4f 90 40 95 00 b3 00 01 01 01 01
descriptor 1:    28 3c 80 a0 70 b0 23 40 30 20 36 00 07 44 21 00 00 1a
descriptor 2:    00 00 00 fc 00 46 50 44 32 34 38 35 57 0a 20 20 20 20
descriptor 3:    00 00 00 fd 00 38 4c 1e 53 10 00 0a 20 20 20 20 20 20
descriptor 4:    00 00 00 ff 00 4d 58 48 37 33 44 30 4e 30 34 39 34 37
extensions:      00
checksum:        9d

EDID version: 1.3
Manufacturer: GWY Model 9b6 Serial Number --
Made in week 12 of 2007
Digital display
Maximum image size: 52 cm x 33 cm
Gamma: 2.20
DPMS levels: Off
RGB color display
First detailed timing is preferred timing
Display x,y Chromaticity:
  Red:   0.6445, 0.3476
  Green: 0.2880, 0.6025
  Blue:  0.1416, 0.0761
  White: 0.3134, 0.3291
Established timings supported:
  720x400@70Hz 9:5 HorFreq: 31469 Hz Clock: 28.320 MHz
  640x480@60Hz 4:3 HorFreq: 31469 Hz Clock: 25.175 MHz
  640x480@72Hz 4:3 HorFreq: 37900 Hz Clock: 31.500 MHz
  640x480@75Hz 4:3 HorFreq: 37500 Hz Clock: 31.500 MHz
  800x600@56Hz 4:3 HorFreq: 35200 Hz Clock: 36.000 MHz
  800x600@60Hz 4:3 HorFreq: 37900 Hz Clock: 40.000 MHz
  800x600@72Hz 4:3 HorFreq: 48100 Hz Clock: 50.000 MHz
  800x600@75Hz 4:3 HorFreq: 46900 Hz Clock: 49.500 MHz
  1024x768@60Hz 4:3 HorFreq: 48400 Hz Clock: 65.000 MHz
  1024x768@70Hz 4:3 HorFreq: 56500 Hz Clock: 75.000 MHz
  1024x768@75Hz 4:3 HorFreq: 60000 Hz Clock: 78.750 MHz
  1280x1024@75Hz 5:4 HorFreq: 80000 Hz Clock: 135.000 MHz
Standard timings supported:
  1280x1024@60Hz 5:4 HorFreq: 64000 Hz Clock: 108.000 MHz
  1600x1200@60Hz 4:3 HorFreq: 75000 Hz Clock: 162.000 MHz
  1152x864@75Hz 4:3 HorFreq: 67500 Hz Clock: 108.000 MHz
  1400x1050@60Hz 4:3 HorFreq: 64700 Hz Clock: 101.000 MHz
  1440x900@60Hz 16:10 HorFreq: 55500 Hz Clock: 88.750 MHz
  1680x1050@60Hz 16:10 HorFreq: 64700 Hz Clock: 119.000 MHz
Detailed mode: Clock 154.000 MHz, 519 mm x 324 mm
               1920 1968 2000 2080 hborder 0
               1200 1203 1209 1235 vborder 0
               +hsync -vsync 
               VertFreq: 59 Hz, HorFreq: 74038 Hz
Monitor name: FPD2485W
Monitor ranges (GTF): 56-76Hz V, 30-83kHz H, max dotclock 160MHz
Serial number: --
Checksum: 0x9d (valid)
One or more of the timings is out of range of the Monitor Ranges:
  Vertical Freq: 56 - 75 Hz
  Horizontal Freq: 31469 - 80000 Hz
  Maximum Clock: 162.000 MHz
