
EDID (hex):
00ffffffffffff0036698224e1d6f403
08140103012f1a78eafbb4a1554b9724
10484c214e0081c095c0a9c0b3000101
0101010101011a3680a070381f403020
3500dd0c1100001e000000ff00303030
3030310a0a0a0a0a0a0a000000fd0032
4b1e5514000a202020202020000000fc
004d53492041494f2050430a202000af

Extracted contents:
header:          00 ff ff ff ff ff ff 00
serial number:   36 69 82 24 e1 d6 f4 03 08 14
version:         01 03
basic params:    01 2f 1a 78 ea
chroma info:     fb b4 a1 55 4b 97 24 10 48 4c
established:     21 4e 00
standard:        81 c0 95 c0 a9 c0 b3 00 01 01 01 01 01 01 01 01
descriptor 1:    1a 36 80 a0 70 38 1f 40 30 20 35 00 dd 0c 11 00 00 1e
descriptor 2:    00 00 00 ff 00 30 30 30 30 30 31 0a 0a 0a 0a 0a 0a 0a
descriptor 3:    00 00 00 fd 00 32 4b 1e 55 14 00 0a 20 20 20 20 20 20
descriptor 4:    00 00 00 fc 00 4d 53 49 20 41 49 4f 20 50 43 0a 20 20
extensions:      00
checksum:        af

EDID version: 1.3
Manufacturer: MSI Model 2482 Serial Number --
Made in week 8 of 2010
Analog display, Input voltage level: 0.7/0.3 V
Sync: Serration 
Maximum image size: 47 cm x 26 cm
Gamma: 2.20
DPMS levels: Standby Suspend Off
RGB color display
First detailed timing is preferred timing
Display x,y Chromaticity:
  Red:   0.6318, 0.3349
  Green: 0.2949, 0.5927
  Blue:  0.1425, 0.0654
  White: 0.2822, 0.2968
Established timings supported:
  640x480@60Hz 4:3 HorFreq: 31469 Hz Clock: 25.175 MHz
  800x600@60Hz 4:3 HorFreq: 37900 Hz Clock: 40.000 MHz
  800x600@75Hz 4:3 HorFreq: 46900 Hz Clock: 49.500 MHz
  1024x768@60Hz 4:3 HorFreq: 48400 Hz Clock: 65.000 MHz
  1024x768@70Hz 4:3 HorFreq: 56500 Hz Clock: 75.000 MHz
  1024x768@75Hz 4:3 HorFreq: 60000 Hz Clock: 78.750 MHz
Standard timings supported:
  1280x720@60Hz 16:9
  1440x810@60Hz 16:9
  1600x900@60Hz 16:9
  1680x1050@60Hz 16:10 HorFreq: 64700 Hz Clock: 119.000 MHz
Detailed mode: Clock 138.500 MHz, 477 mm x 268 mm
               1920 1968 2000 2080 hborder 0
               1080 1083 1088 1111 vborder 0
               +hsync +vsync 
               VertFreq: 59 Hz, HorFreq: 66586 Hz
Serial number: --
Monitor ranges (GTF): 50-75Hz V, 30-85kHz H, max dotclock 200MHz
Monitor name: MSI AIO PC
Checksum: 0xaf (valid)
EDID block does NOT conform to EDID 1.3!
	Detailed block string not properly terminated
