
EDID (hex):
00ffffffffffff00402e639c01010101
001c0104a53c22780abc95a85133aa26
0f505400000001c101c101c101c101c1
01c101c101c16842801871382d40582c
45000000000000180000001000061030
11010000000000000a20000000100038
2d40582c4500000000000018000000fc
0050414e313932307831303830200076

Extracted contents:
header:          00 ff ff ff ff ff ff 00
serial number:   40 2e 63 9c 01 01 01 01 00 1c
version:         01 04
basic params:    a5 3c 22 78 0a
chroma info:     bc 95 a8 51 33 aa 26 0f 50 54
established:     00 00 00
standard:        01 c1 01 c1 01 c1 01 c1 01 c1 01 c1 01 c1 01 c1
descriptor 1:    68 42 80 18 71 38 2d 40 58 2c 45 00 00 00 00 00 00 18
descriptor 2:    00 00 00 10 00 06 10 30 11 01 00 00 00 00 00 00 0a 20
descriptor 3:    00 00 00 10 00 38 2d 40 58 2c 45 00 00 00 00 00 00 18
descriptor 4:    00 00 00 fc 00 50 41 4e 31 39 32 30 78 31 30 38 30 20
extensions:      00
checksum:        76

EDID version: 1.4
Manufacturer: PAN Model 9c63 Serial Number --
Made in year 2018
Digital display
8 bits per primary color channel
DisplayPort interface
Maximum image size: 60 cm x 34 cm
Gamma: 2.20
Supported color formats: RGB 4:4:4, YCrCb 4:4:4
First detailed timing includes the native pixel format and preferred refresh rate
Display x,y Chromaticity:
  Red:   0.6582, 0.3193
  Green: 0.2021, 0.6640
  Blue:  0.1503, 0.0595
  White: 0.3134, 0.3291
Established timings supported:
Standard timings supported:
  256x144@61Hz 16:9
  256x144@61Hz 16:9
  256x144@61Hz 16:9
  256x144@61Hz 16:9
  256x144@61Hz 16:9
  256x144@61Hz 16:9
  256x144@61Hz 16:9
  256x144@61Hz 16:9
Detailed mode: Clock 170.000 MHz, 0 mm x 0 mm
               1920 2008 2052 2200 hborder 0
               1080 1084 1089 1125 vborder 0
               -hsync -vsync 
               VertFreq: 68 Hz, HorFreq: 77272 Hz
Dummy block
Dummy block
Checksum: 0x76 (valid)
EDID block does NOT conform to EDID 1.4!
	Name descriptor not terminated with a newline
	Missing monitor ranges
EDID block does not conform at all!
	Dummy block filled with garbage
