
EDID (hex):
00ffffffffffff004eae000001010101
01170103682b1b78eeb505a5564a9a25
125054210800714f81c0d1c0b3c095c0
0101010101014d21569a510020304070
3600301b0000001e000000fc0053554e
4e590a20202020202020000000fc000a
202020202020202020202020000000fc
000a20202020202020202020202000fc

Extracted contents:
header:          00 ff ff ff ff ff ff 00
serial number:   4e ae 00 00 01 01 01 01 01 17
version:         01 03
basic params:    68 2b 1b 78 ee
chroma info:     b5 05 a5 56 4a 9a 25 12 50 54
established:     21 08 00
standard:        71 4f 81 c0 d1 c0 b3 c0 95 c0 01 01 01 01 01 01
descriptor 1:    4d 21 56 9a 51 00 20 30 40 70 36 00 30 1b 00 00 00 1e
descriptor 2:    00 00 00 fc 00 53 55 4e 4e 59 0a 20 20 20 20 20 20 20
descriptor 3:    00 00 00 fc 00 0a 20 20 20 20 20 20 20 20 20 20 20 20
descriptor 4:    00 00 00 fc 00 0a 20 20 20 20 20 20 20 20 20 20 20 20
extensions:      00
checksum:        fc

EDID version: 1.3
Manufacturer: SUN Model 0 Serial Number --
Made in week 1 of 2013
Analog display, Input voltage level: 0.7/0.7 V
Sync: Separate 
Maximum image size: 43 cm x 27 cm
Gamma: 2.20
DPMS levels: Standby Suspend Off
RGB color display
Default (sRGB) color space is primary color space
First detailed timing is preferred timing
Display x,y Chromaticity:
  Red:   0.6464, 0.3388
  Green: 0.2900, 0.6025
  Blue:  0.1445, 0.0703
  White: 0.3134, 0.3291
Established timings supported:
  640x480@60Hz 4:3 HorFreq: 31469 Hz Clock: 25.175 MHz
  800x600@60Hz 4:3 HorFreq: 37900 Hz Clock: 40.000 MHz
  1024x768@60Hz 4:3 HorFreq: 48400 Hz Clock: 65.000 MHz
Standard timings supported:
  1152x864@75Hz 4:3 HorFreq: 67500 Hz Clock: 108.000 MHz
  1280x720@60Hz 16:9
  1920x1080@60Hz 16:9
  1680x945@60Hz 16:9
  1440x810@60Hz 16:9
Detailed mode: Clock 85.250 MHz, 48 mm x 27 mm
               1366 1430 1542 1776 hborder 0
                768  771  777  800 vborder 0
               +hsync +vsync 
               VertFreq: 60 Hz, HorFreq: 48001 Hz
Monitor name: SUNNY
Checksum: 0xfc (valid)
EDID block does NOT conform to EDID 1.3!
	sRGB is signaled, but the chromaticities do not match
	Missing monitor ranges
