
EDID (hex):
00ffffffffffff000e6f141300000000
001f0104a51d127803c175a5544d9a24
0d505400000001010101010101010101
010101010101ef6800a0a0402e603020
36001eb310000018000000fd00283c63
631b010a202020202020000000fe0043
534f542054330a2020202020000000fe
004d4e443330374441312d410a2000b6

edid-decode (hex):

00 ff ff ff ff ff ff 00 0e 6f 14 13 00 00 00 00
00 1f 01 04 a5 1d 12 78 03 c1 75 a5 54 4d 9a 24
0d 50 54 00 00 00 01 01 01 01 01 01 01 01 01 01
01 01 01 01 01 01 ef 68 00 a0 a0 40 2e 60 30 20
36 00 1e b3 10 00 00 18 00 00 00 fd 00 28 3c 63
63 1b 01 0a 20 20 20 20 20 20 00 00 00 fe 00 43
53 4f 54 20 54 33 0a 20 20 20 20 20 00 00 00 fe
00 4d 4e 44 33 30 37 44 41 31 2d 41 0a 20 00 b6

----------------

Block 0, Base EDID:
  EDID Structure Version & Revision: 1.4
  Vendor & Product Identification:
    Manufacturer: CSO
    Model: 4884
    Made in: 2021
  Basic Display Parameters & Features:
    Digital display
    Bits per primary color channel: 8
    DisplayPort interface
    Maximum image size: 29 cm x 18 cm
    Gamma: 2.20
    Supported color formats: RGB 4:4:4
    First detailed timing includes the native pixel format and preferred refresh rate
    Display is continuous frequency
  Color Characteristics:
    Red  : 0.6474, 0.3281
    Green: 0.3007, 0.6025
    Blue : 0.1416, 0.0537
    White: 0.3134, 0.3291
  Established Timings I & II: none
  Standard Timings: none
  Detailed Timing Descriptors:
    DTD 1:  2560x1600   60.000625 Hz  16:10    98.761 kHz    268.630000 MHz (286 mm x 179 mm)
                 Hfront   48 Hsync  32 Hback   80 Hpol N
                 Vfront    3 Vsync   6 Vback   37 Vpol N
    Display Range Limits:
      Monitor ranges (Bare Limits): 40-60 Hz V, 99-99 kHz H, max dotclock 270 MHz
    Alphanumeric Data String: 'CSOT T3'
    Alphanumeric Data String: 'MND307DA1-A'
Checksum: 0xb6
