
EDID (hex):
00ffffffffffff0009e5280a00000000
00110103801d12780a6f8c905a548a25
1e4c5200000001010101010101010101
010101010101c71b00a0502017303020
36001eb310000019000000fe000a2020
20202020202020202020000000fe0042
4f452048594449530a202020000000fe
004856313333575831202020200a002f

Extracted contents:
header:          00 ff ff ff ff ff ff 00
serial number:   09 e5 28 0a 00 00 00 00 00 11
version:         01 03
basic params:    80 1d 12 78 0a
chroma info:     6f 8c 90 5a 54 8a 25 1e 4c 52
established:     00 00 00
standard:        01 01 01 01 01 01 01 01 01 01 01 01 01 01 01 01
descriptor 1:    c7 1b 00 a0 50 20 17 30 30 20 36 00 1e b3 10 00 00 19
descriptor 2:    00 00 00 fe 00 0a 20 20 20 20 20 20 20 20 20 20 20 20
descriptor 3:    00 00 00 fe 00 42 4f 45 20 48 59 44 49 53 0a 20 20 20
descriptor 4:    00 00 00 fe 00 48 56 31 33 33 57 58 31 20 20 20 20 0a
extensions:      00
checksum:        2f

EDID version: 1.3
Manufacturer: BOE Model a28 Serial Number --
Made in year 2007
Digital display
Maximum image size: 29 cm x 18 cm
Gamma: 2.20
RGB color display
First detailed timing is preferred timing
Display x,y Chromaticity:
  Red:   0.5634, 0.3535
  Green: 0.3310, 0.5419
  Blue:  0.1464, 0.1171
  White: 0.2998, 0.3203
Established timings supported:
Standard timings supported:
Detailed mode: Clock 71.110 MHz, 286 mm x 179 mm
               1280 1328 1360 1440 hborder 0
                800  803  809  823 vborder 0
               -hsync -vsync 
               VertFreq: 60 Hz, HorFreq: 49381 Hz
ASCII string: 
ASCII string: BOE HYDIS
ASCII string: HV133WX1    
Checksum: 0x2f (valid)
EDID block does NOT conform to EDID 1.3!
	Missing name descriptor
	Missing monitor ranges
