
EDID (hex):
00ffffffffffff0006af004100000000
0117010480160e78ea98259958548e27
1e505400000001010101010101010101
0101010101018e3a809070b00a402c20
3500d888000000180000000000000000
00000000000000000000000000fe0041
554f5e202020202020202020000000fe
004231303155414e30312e43200a0016

Extracted contents:
header:          00 ff ff ff ff ff ff 00
serial number:   06 af 00 41 00 00 00 00 01 17
version:         01 04
basic params:    80 16 0e 78 ea
chroma info:     98 25 99 58 54 8e 27 1e 50 54
established:     00 00 00
standard:        01 01 01 01 01 01 01 01 01 01 01 01 01 01 01 01
descriptor 1:    8e 3a 80 90 70 b0 0a 40 2c 20 35 00 d8 88 00 00 00 18
descriptor 2:    00 00 00 00 00 00 00 00 00 00 00 00 00 00 00 00 00 00
descriptor 3:    00 00 00 fe 00 41 55 4f 5e 20 20 20 20 20 20 20 20 20
descriptor 4:    00 00 00 fe 00 42 31 30 31 55 41 4e 30 31 2e 43 20 0a
extensions:      00
checksum:        16

EDID version: 1.4
Manufacturer: AUO Model 4100 Serial Number --
Made in week 1 of 2013
Digital display
Color depth is undefined
Digital interface is not defined
Maximum image size: 22 cm x 14 cm
Gamma: 2.20
DPMS levels: Standby Suspend Off
Supported color formats: RGB 4:4:4, YCrCb 4:4:4
First detailed timing includes the native pixel format and preferred refresh rate
Display x,y Chromaticity:
  Red:   0.5996, 0.3447
  Green: 0.3300, 0.5546
  Blue:  0.1523, 0.1191
  White: 0.3134, 0.3291
Established timings supported:
Standard timings supported:
Detailed mode: Clock 149.900 MHz, 216 mm x 136 mm
               1920 1964 1996 2064 hborder 0
               1200 1203 1208 1210 vborder 0
               -hsync -vsync 
               VertFreq: 60 Hz, HorFreq: 72625 Hz
Manufacturer-specified data, tag 0
ASCII string: AUO^         
ASCII string: B101UAN01.C 
Checksum: 0x16 (valid)
EDID block does NOT conform to EDID 1.4!
	Missing name descriptor
	Missing monitor ranges
