
EDID (hex):
00ffffffffffff0006afed6000000000
001a01049522137802da85a556529b26
0c505400000001010101010101010101
010101010101143780a670382e406c30
aa0058c1100000180000000f00000000
00000000000000000020000000fe0041
554f0a202020202020202020000000fe
004231353648414e30362e30200a0089

Extracted contents:
header:          00 ff ff ff ff ff ff 00
serial number:   06 af ed 60 00 00 00 00 00 1a
version:         01 04
basic params:    95 22 13 78 02
chroma info:     da 85 a5 56 52 9b 26 0c 50 54
established:     00 00 00
standard:        01 01 01 01 01 01 01 01 01 01 01 01 01 01 01 01
descriptor 1:    14 37 80 a6 70 38 2e 40 6c 30 aa 00 58 c1 10 00 00 18
descriptor 2:    00 00 00 0f 00 00 00 00 00 00 00 00 00 00 00 00 00 20
descriptor 3:    00 00 00 fe 00 41 55 4f 0a 20 20 20 20 20 20 20 20 20
descriptor 4:    00 00 00 fe 00 42 31 35 36 48 41 4e 30 36 2e 30 20 0a
extensions:      00
checksum:        89

EDID version: 1.4
Manufacturer: AUO Model 60ed Serial Number --
Made in year 2016
Digital display
6 bits per primary color channel
DisplayPort interface
Maximum image size: 34 cm x 19 cm
Gamma: 2.20
Supported color formats: RGB 4:4:4
First detailed timing includes the native pixel format and preferred refresh rate
Display x,y Chromaticity:
  Red:   0.6474, 0.3369
  Green: 0.3222, 0.6074
  Blue:  0.1503, 0.0468
  White: 0.3134, 0.3291
Established timings supported:
Standard timings supported:
Detailed mode: Clock 141.000 MHz, 344 mm x 193 mm
               1920 2028 2076 2086 hborder 0
               1080 1090 1100 1126 vborder 0
               -hsync -vsync 
               VertFreq: 60 Hz, HorFreq: 67593 Hz
Manufacturer-specified data, tag 15
ASCII string: AUO
ASCII string: B156HAN06.0 
Checksum: 0x89 (valid)
EDID block does NOT conform to EDID 1.4!
	Missing name descriptor
	Missing monitor ranges
