edid-decode (hex):

00 ff ff ff ff ff ff 00 06 af ed 82 00 00 00 00
0c 1c 01 04 a5 22 13 78 03 6a 75 a4 56 52 9c 27
0b 50 54 00 00 00 01 01 01 01 01 01 01 01 01 01
01 01 01 01 01 01 ce 8f 80 b6 70 38 88 40 30 20
a5 00 e0 0e 11 00 00 18 ce 8f 80 b6 70 38 2b 47
30 20 a5 00 e0 0e 11 00 00 18 00 00 00 fd 00 28
3c 1e b4 25 01 0a 20 20 20 20 20 20 00 00 00 fc
00 41 55 4f 38 32 45 44 0a 20 20 20 20 20 00 4a

00 ff ff ff ff ff ff 00 06 af ed 82 00 00 00 00
0c 1c 01 04 a5 22 13 78 03 6a 75 a4 56 52 9c 27
0b 50 54 00 00 00 01 01 01 01 01 01 01 01 01 01
01 01 01 01 01 01 ce 8f 80 b6 70 38 88 40 30 20
a5 00 e0 0e 11 00 00 18 ce 8f 80 b6 70 38 2b 47
30 20 a5 00 e0 0e 11 00 00 18 00 00 00 fd 00 28
3c 1e b4 25 01 0a 20 20 20 20 20 20 00 00 00 fc
00 41 55 4f 38 32 45 44 0a 20 20 20 20 20 00 4a

----------------

Block 0, Base EDID:
  EDID Structure Version & Revision: 1.4
  Vendor & Product Identification:
    Manufacturer: AUO
    Model: 33517
    Made in: week 12 of 2018
  Basic Display Parameters & Features:
    Digital display
    Bits per primary color channel: 8
    DisplayPort interface
    Maximum image size: 34 cm x 19 cm
    Gamma: 2.20
    Supported color formats: RGB 4:4:4
    First detailed timing includes the native pixel format and preferred refresh rate
    Display is continuous frequency
  Color Characteristics:
    Red  : 0.6416, 0.3378
    Green: 0.3222, 0.6113
    Blue : 0.1533, 0.0458
    White: 0.3134, 0.3291
  Established Timings I & II: none
  Standard Timings: none
  Detailed Timing Descriptors:
    DTD 1:  1920x1080  144.027931 Hz  16:9    175.138 kHz    368.140000 MHz (480 mm x 270 mm)
                 Hfront   48 Hsync  32 Hback  102 Hpol N
                 Vfront   10 Vsync   5 Vback  121 Vpol N
    DTD 2:  1920x1080   60.081634 Hz  16:9    175.138 kHz    368.140000 MHz (480 mm x 270 mm)
                 Hfront   48 Hsync  32 Hback  102 Hpol N
                 Vfront   10 Vsync   5 Vback 1820 Vpol N
    Display Range Limits:
      Monitor ranges (Bare Limits): 40-60 Hz V, 30-180 kHz H, max dotclock 370 MHz
    Display Product Name: 'AUO82ED'
Checksum: 0x4a

----------------

Block 1, Unknown EDID Extension Block 0x00:
  00 ff ff ff ff ff ff 00 06 af ed 82 00 00 00 00 '................'
  0c 1c 01 04 a5 22 13 78 03 6a 75 a4 56 52 9c 27 '.....".x.ju.VR.''
  0b 50 54 00 00 00 01 01 01 01 01 01 01 01 01 01 '.PT.............'
  01 01 01 01 01 01 ce 8f 80 b6 70 38 88 40 30 20 '..........p8.@0 '
  a5 00 e0 0e 11 00 00 18 ce 8f 80 b6 70 38 2b 47 '............p8+G'
  30 20 a5 00 e0 0e 11 00 00 18 00 00 00 fd 00 28 '0 .............('
  3c 1e b4 25 01 0a 20 20 20 20 20 20 00 00 00 fc '<..%..      ....'
  00 41 55 4f 38 32 45 44 0a 20 20 20 20 20 00 4a '.AUO82ED.     .J'
Checksum: 0x4a

----------------

Warnings:

EDID:
  Base EDID: Some timings are out of range of the Monitor Ranges:
    Vertical Freq: 60.082 - 144.028 Hz (Monitor: 40.000 - 60.000 Hz)

Failures:

Block 0, Base EDID:
  Detailed Timing Descriptor #1: Mismatch of image size 480x270 mm vs display size 340x190 mm.
  Detailed Timing Descriptor #2: Mismatch of image size 480x270 mm vs display size 340x190 mm.
Block 1, Base EDID:
  Unknown Extension Block.
EDID:
  Base EDID: The DTD max image size is 480x270mm, which is larger than the display size 340.0x190.0mm.
  Base EDID: EDID specified 0 extension block(s), but found 1 extension block(s).

EDID conformity: FAIL
