edid-decode (hex):

00 ff ff ff ff ff ff 00 1e 6d b1 3b 01 01 01 01
03 13 01 03 6a 21 13 78 ea dd 85 96 56 4f 8d 28
25 50 54 a5 6a 00 81 cf 61 40 45 40 01 01 01 01
01 01 01 01 01 01 1a 1d 00 80 51 d0 1c 20 40 80
35 00 4c bb 10 00 00 1c 00 00 00 fd 00 38 4b 1e
46 0a 00 0a 20 20 20 20 20 20 00 00 00 fc 00 57
31 35 34 32 0a 20 20 20 20 20 20 20 00 00 00 fc
00 0a 20 20 20 20 20 20 20 20 20 20 20 20 00 44

00 ff ff ff ff ff ff 00 1e 6d b1 3b 01 01 01 01
03 13 01 03 6a 21 13 78 ea dd 85 96 56 4f 8d 28
25 50 54 a5 6a 00 81 cf 61 40 45 40 01 01 01 01
01 01 01 01 01 01 1a 1d 00 80 51 d0 1c 20 40 80
35 00 4c bb 10 00 00 1c 00 00 00 fd 00 38 4b 1e
46 0a 00 0a 20 20 20 20 20 20 00 00 00 fc 00 57
31 35 34 32 0a 20 20 20 20 20 20 20 00 00 00 fc
00 0a 20 20 20 20 20 20 20 20 20 20 20 20 00 44

----------------

Block 0, Base EDID:
  EDID Structure Version & Revision: 1.3
  Vendor & Product Identification:
    Manufacturer: GSM
    Model: 15281
    Serial Number: ...
    Made in: week 3 of 2009
  Basic Display Parameters & Features:
    Analog display
    Signal Level Standard: 0.700 : 0.000 : 0.700 V p-p
    Blank level equals black level
    Sync: Separate SyncOnGreen
    Maximum image size: 33 cm x 19 cm
    Gamma: 2.20
    DPMS levels: Standby Suspend Off
    RGB color display
    First detailed timing is the preferred timing
  Color Characteristics:
    Red  : 0.5888, 0.3369
    Green: 0.3115, 0.5517
    Blue : 0.1582, 0.1445
    White: 0.3134, 0.3291
  Established Timings I & II:
    IBM     :   720x400    70.081663 Hz   9:5     31.467 kHz     28.320000 MHz
    DMT 0x04:   640x480    59.940476 Hz   4:3     31.469 kHz     25.175000 MHz
    DMT 0x06:   640x480    75.000000 Hz   4:3     37.500 kHz     31.500000 MHz
    DMT 0x09:   800x600    60.316541 Hz   4:3     37.879 kHz     40.000000 MHz
    DMT 0x0b:   800x600    75.000000 Hz   4:3     46.875 kHz     49.500000 MHz
    Apple   :   832x624    74.551266 Hz   4:3     49.726 kHz     57.284000 MHz
    DMT 0x10:  1024x768    60.003840 Hz   4:3     48.363 kHz     65.000000 MHz
    DMT 0x12:  1024x768    75.028582 Hz   4:3     60.023 kHz     78.750000 MHz
  Standard Timings:
    GTF     :  1280x720    74.999686 Hz  16:9     56.400 kHz     95.654000 MHz
    DMT 0x10:  1024x768    60.003840 Hz   4:3     48.363 kHz     65.000000 MHz
    DMT 0x09:   800x600    60.316541 Hz   4:3     37.879 kHz     40.000000 MHz
  Detailed Timing Descriptors:
    DTD 1:  1280x720    59.855126 Hz  16:9     44.772 kHz     74.500000 MHz (332 mm x 187 mm)
                 Hfront   64 Hsync 128 Hback  192 Hpol N
                 Vfront    3 Vsync   5 Vback   20 Vpol P
    Display Range Limits:
      Monitor ranges (GTF): 56-75 Hz V, 30-70 kHz H, max dotclock 100 MHz
    Display Product Name: 'W1542'
    Display Product Name: ''
Checksum: 0x44

----------------

Block 1, Unknown EDID Extension Block 0x00:
  00 ff ff ff ff ff ff 00 1e 6d b1 3b 01 01 01 01 '.........m.;....'
  03 13 01 03 6a 21 13 78 ea dd 85 96 56 4f 8d 28 '....j!.x....VO.('
  25 50 54 a5 6a 00 81 cf 61 40 45 40 01 01 01 01 '%PT.j...a@E@....'
  01 01 01 01 01 01 1a 1d 00 80 51 d0 1c 20 40 80 '..........Q.. @.'
  35 00 4c bb 10 00 00 1c 00 00 00 fd 00 38 4b 1e '5.L..........8K.'
  46 0a 00 0a 20 20 20 20 20 20 00 00 00 fc 00 57 'F...      .....W'
  31 35 34 32 0a 20 20 20 20 20 20 20 00 00 00 fc '1542.       ....'
  00 0a 20 20 20 20 20 20 20 20 20 20 20 20 00 44 '..            .D'
Checksum: 0x44

----------------

Failures:

Block 0, Base EDID:
  Display Product Name: Empty string.
Block 1, Base EDID:
  Unknown Extension Block.
EDID:
  Base EDID: EDID specified 0 extension block(s), but found 1 extension block(s).

EDID conformity: FAIL
