edid-decode (hex):

00 ff ff ff ff ff ff 00 0e 14 c7 1b 00 00 00 00
26 15 01 03 90 16 0c 78 0a da 0d 97 58 59 95 28
23 50 54 00 00 00 01 01 01 01 01 01 01 01 01 01
01 01 01 01 01 01 1d 16 00 dc 41 58 1d 20 30 20
36 00 df 7d 00 00 00 19 1d 16 00 dc 41 58 1d 20
30 20 36 00 df 7d 00 00 00 19 00 00 00 fe 00 43
50 54 20 20 20 20 20 20 20 20 20 20 00 00 00 fe
00 43 4c 41 41 31 30 31 4e 43 30 35 20 20 00 10

----------------

Block 0, Base EDID:
  EDID Structure Version & Revision: 1.3
  Vendor & Product Identification:
    Manufacturer: CPT
    Model: 7111
    Made in: week 38 of 2011
  Basic Display Parameters & Features:
    Digital display
    Maximum image size: 22 cm x 12 cm
    Gamma: 2.20
    RGB color display
    First detailed timing is preferred timing
  Color Characteristics:
    Red  : 0.5927, 0.3447
    Green: 0.3496, 0.5839
    Blue : 0.1562, 0.1367
    White: 0.3154, 0.3291
  Established Timings I & II: none
  Standard Timings: none
  Detailed Timing Descriptors:
    DTD 1:  1024x600    60.000 Hz 128:75   37.740 kHz  56.610 MHz (223 mm x 125 mm)
                 Hfront   48 Hsync  32 Hback 396 Hpol N
                 Vfront    3 Vsync   6 Vback  20 Vpol N
    DTD 2:  1024x600    60.000 Hz 128:75   37.740 kHz  56.610 MHz (223 mm x 125 mm)
                 Hfront   48 Hsync  32 Hback 396 Hpol N
                 Vfront    3 Vsync   6 Vback  20 Vpol N
    Alphanumeric Data String: 'CPT          '
    Alphanumeric Data String: 'CLAA101NC05  '
Checksum: 0x10
