edid-decode (hex):

00 ff ff ff ff ff ff 00 0e 14 c7 1b 00 00 00 00
15 16 01 03 90 16 0c 78 0a da 0d 97 58 59 95 28
23 50 54 00 00 00 01 01 01 01 01 01 01 01 01 01
01 01 01 01 01 01 82 16 00 5c 41 58 64 20 30 20
36 00 df 7d 00 00 00 19 82 16 00 5c 41 58 64 20
30 20 36 00 df 7d 00 00 00 19 00 00 00 fe 00 43
50 54 20 20 20 20 20 20 20 20 20 20 00 00 00 fe
00 43 4c 41 41 31 30 31 4e 43 30 35 20 20 00 c8

----------------

Block 0, Base EDID:
  EDID Structure Version & Revision: 1.3
  Vendor & Product Identification:
    Manufacturer: CPT
    Model: 7111
    Made in: week 21 of 2012
  Basic Display Parameters & Features:
    Digital display
    Maximum image size: 22 cm x 12 cm
    Gamma: 2.20
    RGB color display
    First detailed timing is the preferred timing
  Color Characteristics:
    Red  : 0.5927, 0.3447
    Green: 0.3496, 0.5839
    Blue : 0.1562, 0.1367
    White: 0.3154, 0.3291
  Established Timings I & II: none
  Standard Timings: none
  Detailed Timing Descriptors:
    DTD 1:  1024x600    59.995835 Hz 128:75    41.997 kHz     57.620000 MHz (223 mm x 125 mm)
                 Hfront   48 Hsync  32 Hback  268 Hpol N
                 Vfront    3 Vsync   6 Vback   91 Vpol N
    DTD 2:  1024x600    59.995835 Hz 128:75    41.997 kHz     57.620000 MHz (223 mm x 125 mm)
                 Hfront   48 Hsync  32 Hback  268 Hpol N
                 Vfront    3 Vsync   6 Vback   91 Vpol N
    Alphanumeric Data String: 'CPT          '
    Alphanumeric Data String: 'CLAA101NC05  '
Checksum: 0xc8

----------------

Failures:

Block 0, Base EDID:
  Basic Display Parameters & Features: Digital Video Interface Standard set to reserved value 0x10.
  Alphanumeric Data String: One or more trailing spaces.
  Alphanumeric Data String: One or more trailing spaces.
  Missing Display Product Name.
  Missing Display Range Limits Descriptor.

EDID conformity: FAIL
