
EDID (hex):
00ffffffffffff00593a300001010101
2a110103805d34780a856ba258499d25
0f474a20000001010101010101010101
0101010101c1011d007251d01e206e28
5500a20b3200001e000000fd0032551f
460b000a202020202020000000ff0053
50414d424834323431333633000000fc
00565834324c204844545631304101dd
02031b71488401031305121514230907
038301000065030c002000011d00bc52
d01e20b8285540bc862100001e011d80
d0721c1620102c2580bc862100009e8c
0ad08a20e02d10103e9600bc86210000
18011d8018711c1620582c2500bc8621
00009e8c0ad090204031200c405500bc
86210000180000000000000000000048

Extracted contents:
header:          00 ff ff ff ff ff ff 00
serial number:   59 3a 30 00 01 01 01 01 2a 11
version:         01 03
basic params:    80 5d 34 78 0a
chroma info:     85 6b a2 58 49 9d 25 0f 47 4a
established:     20 00 00
standard:        01 01 01 01 01 01 01 01 01 01 01 01 01 01 01 c1
descriptor 1:    01 1d 00 72 51 d0 1e 20 6e 28 55 00 a2 0b 32 00 00 1e
descriptor 2:    00 00 00 fd 00 32 55 1f 46 0b 00 0a 20 20 20 20 20 20
descriptor 3:    00 00 00 ff 00 53 50 41 4d 42 48 34 32 34 31 33 36 33
descriptor 4:    00 00 00 fc 00 56 58 34 32 4c 20 48 44 54 56 31 30 41
extensions:      01
checksum:        dd

EDID version: 1.3
Manufacturer: VIZ Model 30 Serial Number --
Made in week 42 of 2007
Digital display
Maximum image size: 93 cm x 52 cm
Gamma: 2.20
RGB color display
First detailed timing is preferred timing
Display x,y Chromaticity:
  Red:   0.6347, 0.3437
  Green: 0.2861, 0.6142
  Blue:  0.1455, 0.0605
  White: 0.2792, 0.2919
Established timings supported:
  640x480@60Hz 4:3 HorFreq: 31469 Hz Clock: 25.175 MHz
Standard timings supported:
  256x144@61Hz 16:9
Detailed mode: Clock 74.250 MHz, 930 mm x 523 mm
               1280 1390 1430 1650 hborder 0
                720  725  730  750 vborder 0
               +hsync +vsync 
               VertFreq: 60 Hz, HorFreq: 45000 Hz
Monitor ranges (GTF): 50-85Hz V, 31-70kHz H, max dotclock 110MHz
Serial number: --
Has 1 extension blocks
Checksum: 0xdd (valid)

CTA extension block
Extension version: 3
23 bytes of CTA data
  Video data block
    VIC   4 1280x720@60Hz 16:9 (native) HorFreq: 45000 Hz Clock: 74.250 MHz
    VIC   1 640x480@60Hz 4:3  HorFreq: 31469 Hz Clock: 25.175 MHz
    VIC   3 720x480@60Hz 16:9  HorFreq: 31469 Hz Clock: 27.000 MHz
    VIC  19 1280x720@50Hz 16:9  HorFreq: 37500 Hz Clock: 74.250 MHz
    VIC   5 1920x1080i@60Hz 16:9  HorFreq: 33750 Hz Clock: 74.250 MHz
    VIC  18 720x576@50Hz 16:9  HorFreq: 31250 Hz Clock: 27.000 MHz
    VIC  21 1440x576i@50Hz 4:3  HorFreq: 15625 Hz Clock: 27.000 MHz
    VIC  20 1920x1080i@50Hz 16:9  HorFreq: 28125 Hz Clock: 74.250 MHz
  Audio data block
    Linear PCM, max channels 2
      Supported sample rates (kHz): 48 44.1 32
      Supported sample sizes (bits): 20 16
  Speaker allocation data block
    Speaker map:
      FL/FR - Front Left/Right
  Vendor-specific data block, OUI 000c03 (HDMI)
    Source physical address 2.0.0.0
Basic audio support
Supports YCbCr 4:4:4
Supports YCbCr 4:2:2
1 native detailed modes
Detailed mode: Clock 74.250 MHz, 700 mm x 390 mm
               1280 1720 1760 1980 hborder 0
                720  725  730  750 vborder 0
               +hsync +vsync 
               VertFreq: 50 Hz, HorFreq: 37500 Hz
Detailed mode: Clock 74.250 MHz, 700 mm x 390 mm
               1920 2448 2492 2640 hborder 0
                540  542  547  562 vborder 0
               +hsync +vsync interlaced 
               VertFreq: 50 Hz, HorFreq: 28125 Hz
Detailed mode: Clock 27.000 MHz, 700 mm x 390 mm
                720  736  798  858 hborder 0
                480  489  495  525 vborder 0
               -hsync -vsync 
               VertFreq: 59 Hz, HorFreq: 31468 Hz
Detailed mode: Clock 74.250 MHz, 700 mm x 390 mm
               1920 2008 2052 2200 hborder 0
                540  542  547  562 vborder 0
               +hsync +vsync interlaced 
               VertFreq: 60 Hz, HorFreq: 33750 Hz
Detailed mode: Clock 27.000 MHz, 700 mm x 390 mm
                720  732  796  864 hborder 0
                576  581  586  625 vborder 0
               -hsync -vsync 
               VertFreq: 50 Hz, HorFreq: 31250 Hz
Checksum: 0x48 (valid)

EDID block does NOT conform to EDID 1.3!
	Name descriptor not terminated with a newline
One or more of the timings is out of range of the Monitor Ranges:
  Vertical Freq: 50 - 61 Hz
  Horizontal Freq: 15625 - 45000 Hz
  Maximum Clock: 74.250 MHz
EDID block does not conform at all!
	Both the serial number and the serial string are set
