edid-decode (hex):

00 ff ff ff ff ff ff 00 28 89 00 00 00 00 00 00
00 1a 01 04 a5 1b 12 78 03 be 55 a4 52 4b 99 26
0f 50 54 00 00 00 01 01 01 01 01 01 01 01 01 01
01 01 01 01 01 01 58 98 b8 a0 b0 d0 39 70 78 10
4a 04 12 b7 10 00 00 1a e0 79 b8 a0 b0 d0 39 70
78 10 4a 04 12 b7 10 00 00 1a 00 00 00 fe 00 4a
44 49 20 20 20 20 20 20 20 20 20 20 00 00 00 fe
00 4c 50 4d 31 33 30 4d 33 36 34 20 20 20 00 5c

00 ff ff ff ff ff ff 00 28 89 00 00 00 00 00 00
00 1a 01 04 a5 1b 12 78 03 be 55 a4 52 4b 99 26
0f 50 54 00 00 00 01 01 01 01 01 01 01 01 01 01
01 01 01 01 01 01 58 98 b8 a0 b0 d0 39 70 78 10
4a 04 12 b7 10 00 00 1a e0 79 b8 a0 b0 d0 39 70
78 10 4a 04 12 b7 10 00 00 1a 00 00 00 fe 00 4a
44 49 20 20 20 20 20 20 20 20 20 20 00 00 00 fe
00 4c 50 4d 31 33 30 4d 33 36 34 20 20 20 00 5c

----------------

Block 0, Base EDID:
  EDID Structure Version & Revision: 1.4
  Vendor & Product Identification:
    Manufacturer: JDI
    Model: 0
    Made in: 2016
  Basic Display Parameters & Features:
    Digital display
    Bits per primary color channel: 8
    DisplayPort interface
    Maximum image size: 27 cm x 18 cm
    Gamma: 2.20
    Supported color formats: RGB 4:4:4
    First detailed timing includes the native pixel format and preferred refresh rate
    Display is continuous frequency
  Color Characteristics:
    Red  : 0.6425, 0.3232
    Green: 0.2958, 0.5996
    Blue : 0.1494, 0.0595
    White: 0.3134, 0.3291
  Established Timings I & II: none
  Standard Timings: none
  Detailed Timing Descriptors:
    DTD 1:  3000x2000   59.998892 Hz   3:2    123.418 kHz    390.000000 MHz (274 mm x 183 mm)
                 Hfront  120 Hsync  16 Hback   24 Hpol P
                 Vfront   20 Vsync  10 Vback   27 Vpol N
    DTD 2:  3000x2000   47.999114 Hz   3:2     98.734 kHz    312.000000 MHz (274 mm x 183 mm)
                 Hfront  120 Hsync  16 Hback   24 Hpol P
                 Vfront   20 Vsync  10 Vback   27 Vpol N
    Alphanumeric Data String: 'JDI          '
    Alphanumeric Data String: 'LPM130M364   '
Checksum: 0x5c

----------------

Block 1, Unknown EDID Extension Block 0x00:
  00 ff ff ff ff ff ff 00 28 89 00 00 00 00 00 00 '........(.......'
  00 1a 01 04 a5 1b 12 78 03 be 55 a4 52 4b 99 26 '.......x..U.RK.&'
  0f 50 54 00 00 00 01 01 01 01 01 01 01 01 01 01 '.PT.............'
  01 01 01 01 01 01 58 98 b8 a0 b0 d0 39 70 78 10 '......X.....9px.'
  4a 04 12 b7 10 00 00 1a e0 79 b8 a0 b0 d0 39 70 'J........y....9p'
  78 10 4a 04 12 b7 10 00 00 1a 00 00 00 fe 00 4a 'x.J............J'
  44 49 20 20 20 20 20 20 20 20 20 20 00 00 00 fe 'DI          ....'
  00 4c 50 4d 31 33 30 4d 33 36 34 20 20 20 00 5c '.LPM130M364   .\'
Checksum: 0x5c

----------------

Warnings:

Block 0, Base EDID:
  Missing Display Product Name.

Failures:

Block 0, Base EDID:
  Alphanumeric Data String: One or more trailing spaces.
  Alphanumeric Data String: One or more trailing spaces.
  Missing Display Range Limits Descriptor.
Block 1, Base EDID:
  Unknown Extension Block.
EDID:
  Base EDID: EDID specified 0 extension block(s), but found 1 extension block(s).

EDID conformity: FAIL
