
EDID (hex):
00ffffffffffff0030e4610400000000
00180104a51a0e780a07b5995a569127
1e505400000001010101010101010101
010101010101f435808470382a403020
360000901000001b0000000000000000
00000000000000000000000000fe004c
4720446973706c61790a2020000000fe
004c443131365746312d53504e3200fd

Extracted contents:
header:          00 ff ff ff ff ff ff 00
serial number:   30 e4 61 04 00 00 00 00 00 18
version:         01 04
basic params:    a5 1a 0e 78 0a
chroma info:     07 b5 99 5a 56 91 27 1e 50 54
established:     00 00 00
standard:        01 01 01 01 01 01 01 01 01 01 01 01 01 01 01 01
descriptor 1:    f4 35 80 84 70 38 2a 40 30 20 36 00 00 90 10 00 00 1b
descriptor 2:    00 00 00 00 00 00 00 00 00 00 00 00 00 00 00 00 00 00
descriptor 3:    00 00 00 fe 00 4c 47 20 44 69 73 70 6c 61 79 0a 20 20
descriptor 4:    00 00 00 fe 00 4c 44 31 31 36 57 46 31 2d 53 50 4e 32
extensions:      00
checksum:        fd

EDID version: 1.4
Manufacturer: LGD Model 461 Serial Number --
Made in year 2014
Digital display
8 bits per primary color channel
DisplayPort interface
Maximum image size: 26 cm x 14 cm
Gamma: 2.20
Supported color formats: RGB 4:4:4, YCrCb 4:4:4
First detailed timing includes the native pixel format and preferred refresh rate
Display x,y Chromaticity:
  Red:   0.5976, 0.3515
  Green: 0.3369, 0.5693
  Blue:  0.1542, 0.1201
  White: 0.3134, 0.3291
Established timings supported:
Standard timings supported:
Detailed mode: Clock 138.120 MHz, 256 mm x 144 mm
               1920 1968 2000 2052 hborder 0
               1080 1083 1089 1122 vborder 0
               +hsync -vsync 
               VertFreq: 59 Hz, HorFreq: 67309 Hz
Manufacturer-specified data, tag 0
ASCII string: LG Display
ASCII string: LD116WF1-SPN2
Checksum: 0xfd (valid)
EDID block does NOT conform to EDID 1.4!
	Missing name descriptor
	Missing monitor ranges
