edid-decode (hex):

00 ff ff ff ff ff ff 00 30 e4 61 04 00 00 00 00
00 18 01 04 a5 1a 0e 78 0a 07 b5 99 5a 56 91 27
1e 50 54 00 00 00 01 01 01 01 01 01 01 01 01 01
01 01 01 01 01 01 f4 35 80 84 70 38 2a 40 30 20
36 00 00 90 10 00 00 1b 00 00 00 00 00 00 00 00
00 00 00 00 00 00 00 00 00 00 00 00 00 fe 00 4c
47 20 44 69 73 70 6c 61 79 0a 20 20 00 00 00 fe
00 4c 44 31 31 36 57 46 31 2d 53 50 4e 32 00 fd

----------------

Block 0, Base EDID:
  EDID Structure Version & Revision: 1.4
  Vendor & Product Identification:
    Manufacturer: LGD
    Model: 1121
    Made in: 2014
  Basic Display Parameters & Features:
    Digital display
    Bits per primary color channel: 8
    DisplayPort interface
    Maximum image size: 26 cm x 14 cm
    Gamma: 2.20
    Supported color formats: RGB 4:4:4, YCrCb 4:4:4
    First detailed timing includes the native pixel format and preferred refresh rate
  Color Characteristics:
    Red  : 0.5976, 0.3515
    Green: 0.3369, 0.5693
    Blue : 0.1542, 0.1201
    White: 0.3134, 0.3291
  Established Timings I & II: none
  Standard Timings: none
  Detailed Timing Descriptors:
    DTD 1:  1920x1080   59.991 Hz  16:9    67.310 kHz 138.120 MHz (256 mm x 144 mm)
                 Hfront   48 Hsync  32 Hback  52 Hpol P
                 Vfront    3 Vsync   6 Vback  33 Vpol N
    Empty Descriptor
    Alphanumeric Data String: 'LG Display'
    Alphanumeric Data String: 'LD116WF1-SPN2'
Checksum: 0xfd

----------------

Failures:

Block 0, Base EDID:
  Empty Descriptor: Use Dummy Descriptor instead of all zeroes.
  Missing Display Product Name.

EDID conformity: FAIL
