
EDID (hex):
00ffffffffffff004d79000001000000
0f160103682b1b782a249da554479924
11474aa1080001010101010101010101
0101010101017f2150aa51001d30468f
3300ba8921000000000000ff0054560a
20202020202020202020000000fc0054
56204d6f6e69746f720a202000000010
003030303030003030303030303000ce

Extracted contents:
header:          00 ff ff ff ff ff ff 00
serial number:   4d 79 00 00 01 00 00 00 0f 16
version:         01 03
basic params:    68 2b 1b 78 2a
chroma info:     24 9d a5 54 47 99 24 11 47 4a
established:     a1 08 00
standard:        01 01 01 01 01 01 01 01 01 01 01 01 01 01 01 01
descriptor 1:    7f 21 50 aa 51 00 1d 30 46 8f 33 00 ba 89 21 00 00 00
descriptor 2:    00 00 00 ff 00 54 56 0a 20 20 20 20 20 20 20 20 20 20
descriptor 3:    00 00 00 fc 00 54 56 20 4d 6f 6e 69 74 6f 72 0a 20 20
descriptor 4:    00 00 00 10 00 30 30 30 30 30 00 30 30 30 30 30 30 30
extensions:      00
checksum:        ce

EDID version: 1.3
Manufacturer: SKY Model 0 Serial Number --
Made in week 15 of 2012
Analog display, Input voltage level: 0.7/0.7 V
Sync: Separate 
Maximum image size: 43 cm x 27 cm
Gamma: 2.20
DPMS levels: Off
RGB color display
First detailed timing is preferred timing
Display x,y Chromaticity:
  Red:   0.6445, 0.3300
  Green: 0.2783, 0.5976
  Blue:  0.1425, 0.0673
  White: 0.2802, 0.2900
Established timings supported:
  720x400@70Hz 9:5 HorFreq: 31469 Hz Clock: 28.320 MHz
  640x480@60Hz 4:3 HorFreq: 31469 Hz Clock: 25.175 MHz
  800x600@60Hz 4:3 HorFreq: 37900 Hz Clock: 40.000 MHz
  1024x768@60Hz 4:3 HorFreq: 48400 Hz Clock: 65.000 MHz
Standard timings supported:
Detailed mode: Clock 85.750 MHz, 698 mm x 393 mm
               1360 1430 1573 1786 hborder 0
                768  771  774  797 vborder 0
               -hsync -vsync analog composite 
               VertFreq: 60 Hz, HorFreq: 48012 Hz
Serial number: --
Monitor name: TV Monitor
Dummy block
Checksum: 0xce (valid)
EDID block does NOT conform to EDID 1.3!
	Missing monitor ranges
EDID block does not conform at all!
	Dummy block filled with garbage
