
EDID (hex):
00ffffffffffff002c82270801000000
0d1e0104951f11780a3d85a6564a9a24
12505400000001010101010101010101
010101010101121b565a500019301e0e
660035ae1000001e0000000000000000
00000000000000000000000000000000
000000000000000000000000000000fe
004b443134303333304e4841380a003b

Extracted contents:
header:          00 ff ff ff ff ff ff 00
serial number:   2c 82 27 08 01 00 00 00 0d 1e
version:         01 04
basic params:    95 1f 11 78 0a
chroma info:     3d 85 a6 56 4a 9a 24 12 50 54
established:     00 00 00
standard:        01 01 01 01 01 01 01 01 01 01 01 01 01 01 01 01
descriptor 1:    12 1b 56 5a 50 00 19 30 1e 0e 66 00 35 ae 10 00 00 1e
descriptor 2:    00 00 00 00 00 00 00 00 00 00 00 00 00 00 00 00 00 00
descriptor 3:    00 00 00 00 00 00 00 00 00 00 00 00 00 00 00 00 00 00
descriptor 4:    00 00 00 fe 00 4b 44 31 34 30 33 33 30 4e 48 41 38 0a
extensions:      00
checksum:        3b

EDID version: 1.4
Manufacturer: KDB Model 827 Serial Number --
Made in week 13 of 2020
Digital display
6 bits per primary color channel
DisplayPort interface
Maximum image size: 31 cm x 17 cm
Gamma: 2.20
Supported color formats: RGB 4:4:4, YCrCb 4:4:4
First detailed timing includes the native pixel format and preferred refresh rate
Display x,y Chromaticity:
  Red:   0.6484, 0.3388
  Green: 0.2919, 0.6025
  Blue:  0.1425, 0.0703
  White: 0.3134, 0.3291
Established timings supported:
Standard timings supported:
Detailed mode: Clock 69.300 MHz, 309 mm x 174 mm
               1366 1396 1410 1456 hborder 0
                768  774  780  793 vborder 0
               +hsync +vsync 
               VertFreq: 60 Hz, HorFreq: 47596 Hz
Manufacturer-specified data, tag 0
Manufacturer-specified data, tag 0
ASCII string: KD140330NHA8
Checksum: 0x3b (valid)
EDID block does NOT conform to EDID 1.4!
	Missing name descriptor
	Missing monitor ranges
