
EDID (hex):
00ffffffffffff0030e4da0100000000
00130103801d11780ad5d59659568c27
1f505400000001010101010101010101
010101010101121b5660500016302030
360026a6100000190c12566050001630
2030360026a610000019000000fe004c
4720446973706c61790a2020000000fe
004c503133335748312d544c42310070

Extracted contents:
header:          00 ff ff ff ff ff ff 00
serial number:   30 e4 da 01 00 00 00 00 00 13
version:         01 03
basic params:    80 1d 11 78 0a
chroma info:     d5 d5 96 59 56 8c 27 1f 50 54
established:     00 00 00
standard:        01 01 01 01 01 01 01 01 01 01 01 01 01 01 01 01
descriptor 1:    12 1b 56 60 50 00 16 30 20 30 36 00 26 a6 10 00 00 19
descriptor 2:    0c 12 56 60 50 00 16 30 20 30 36 00 26 a6 10 00 00 19
descriptor 3:    00 00 00 fe 00 4c 47 20 44 69 73 70 6c 61 79 0a 20 20
descriptor 4:    00 00 00 fe 00 4c 50 31 33 33 57 48 31 2d 54 4c 42 31
extensions:      00
checksum:        70

EDID version: 1.3
Manufacturer: LGD Model 1da Serial Number --
Made in year 2009
Digital display
Maximum image size: 29 cm x 17 cm
Gamma: 2.20
RGB color display
First detailed timing is preferred timing
Display x,y Chromaticity:
  Red:   0.5888, 0.3486
  Green: 0.3369, 0.5478
  Blue:  0.1552, 0.1220
  White: 0.3134, 0.3291
Established timings supported:
Standard timings supported:
Detailed mode: Clock 69.300 MHz, 294 mm x 166 mm
               1366 1398 1446 1462 hborder 0
                768  771  777  790 vborder 0
               -hsync -vsync 
               VertFreq: 60 Hz, HorFreq: 47400 Hz
Detailed mode: Clock 46.200 MHz, 294 mm x 166 mm
               1366 1398 1446 1462 hborder 0
                768  771  777  790 vborder 0
               -hsync -vsync 
               VertFreq: 40 Hz, HorFreq: 31600 Hz
ASCII string: LG Display
ASCII string: LP133WH1-TLB1
Checksum: 0x70 (valid)
EDID block does NOT conform to EDID 1.3!
	Missing name descriptor
	Missing monitor ranges


