
EDID (hex):
00ffffffffffff004c2d020035314e43
1b0b0102091e1761eae4de9e544a9723
1c4c54b76e00314f454f614f01010101
01010101010164190040410026301888
360030e410000018000000fd00324b1e
3d08000a202020202020000000fc0035
373056205446540a20202020000000ff
00483143523730323738320a20200057

Extracted contents:
header:          00 ff ff ff ff ff ff 00
serial number:   4c 2d 02 00 35 31 4e 43 1b 0b
version:         01 02
basic params:    09 1e 17 61 ea
chroma info:     e4 de 9e 54 4a 97 23 1c 4c 54
established:     b7 6e 00
standard:        31 4f 45 4f 61 4f 01 01 01 01 01 01 01 01 01 01
descriptor 1:    64 19 00 40 41 00 26 30 18 88 36 00 30 e4 10 00 00 18
descriptor 2:    00 00 00 fd 00 32 4b 1e 3d 08 00 0a 20 20 20 20 20 20
descriptor 3:    00 00 00 fc 00 35 37 30 56 20 54 46 54 0a 20 20 20 20
descriptor 4:    00 00 00 ff 00 48 31 43 52 37 30 32 37 38 32 0a 20 20
extensions:      00
checksum:        57

EDID version: 1.2
Manufacturer: SAM Model 2 Serial Number --
Analog display, Input voltage level: 0.7/0.3 V
Sync: Separate Serration 
Maximum image size: 30 cm x 23 cm
Gamma: 1.97
DPMS levels: Standby Suspend Off
RGB color display
First detailed timing is preferred timing
Display x,y Chromaticity:
  Red:   0.6201, 0.3300
  Green: 0.2900, 0.5898
  Blue:  0.1396, 0.1103
  White: 0.2998, 0.3300
Established timings supported:
  720x400@70Hz 9:5 HorFreq: 31469 Hz Clock: 28.320 MHz
  640x480@60Hz 4:3 HorFreq: 31469 Hz Clock: 25.175 MHz
  640x480@67Hz 4:3 HorFreq: 35000 Hz Clock: 30.240 MHz
  640x480@75Hz 4:3 HorFreq: 37500 Hz Clock: 31.500 MHz
  800x600@56Hz 4:3 HorFreq: 35200 Hz Clock: 36.000 MHz
  800x600@60Hz 4:3 HorFreq: 37900 Hz Clock: 40.000 MHz
  800x600@75Hz 4:3 HorFreq: 46900 Hz Clock: 49.500 MHz
  832x624@75Hz 4:3 HorFreq: 49726 Hz Clock: 57.284 MHz
  1024x768@60Hz 4:3 HorFreq: 48400 Hz Clock: 65.000 MHz
  1024x768@70Hz 4:3 HorFreq: 56500 Hz Clock: 75.000 MHz
  1024x768@75Hz 4:3 HorFreq: 60000 Hz Clock: 78.750 MHz
Standard timings supported:
  640x480@75Hz 4:3 HorFreq: 37500 Hz Clock: 31.500 MHz
  800x600@75Hz 4:3 HorFreq: 46900 Hz Clock: 49.500 MHz
  1024x768@75Hz 4:3 HorFreq: 60000 Hz Clock: 78.750 MHz
Detailed mode: Clock 65.000 MHz, 304 mm x 228 mm
               1024 1048 1184 1344 hborder 0
                768  771  777  806 vborder 0
               -hsync -vsync 
               VertFreq: 60 Hz, HorFreq: 48363 Hz
Monitor ranges (GTF): 50-75Hz V, 30-61kHz H, max dotclock 80MHz
Monitor name: 570V TFT
Serial number: --
Checksum: 0x57 (valid)
EDID block does not conform at all!
	Bad year of manufacture
