edid-decode (hex):

00 ff ff ff ff ff ff 00 0c 65 14 13 50 2d 31 01
2a 11 01 03 68 21 1b 78 ea ee a6 9e 54 4c 99 26
19 4f 54 af ce 00 01 01 01 01 01 01 01 01 01 01
01 01 01 01 01 01 c2 20 00 98 51 20 1c 30 48 80
37 00 51 0e 11 00 00 1e 00 00 00 fc 00 4c 4d 31
37 30 31 0a 20 20 20 20 20 20 00 00 00 fd 00 37
4b 1e 3d 0a 00 0a 20 20 20 20 20 20 00 00 00 ff
00 32 30 30 30 30 30 38 30 0a 20 20 20 20 00 f3

----------------

Block 0, Base EDID:
  EDID Structure Version & Revision: 1.3
  Vendor & Product Identification:
    Manufacturer: CCE
    Model: 4884
    Serial Number: ...
    Made in: week 42 of 2007
  Basic Display Parameters & Features:
    Analog display
    Input voltage level: 0.7/0.7 V
    Blank level equals black level
    Sync: Separate
    Maximum image size: 33 cm x 27 cm
    Gamma: 2.20
    DPMS levels: Standby Suspend Off
    RGB color display
    First detailed timing is the preferred timing
  Color Characteristics:
    Red  : 0.6201, 0.3300
    Green: 0.2998, 0.5996
    Blue : 0.1503, 0.0996
    White: 0.3095, 0.3300
  Established Timings I & II:
    IBM     :   720x400    70.082 Hz   9:5    31.467 kHz  28.320 MHz
    DMT 0x04:   640x480    59.940 Hz   4:3    31.469 kHz  25.175 MHz
    DMT 0x05:   640x480    72.809 Hz   4:3    37.861 kHz  31.500 MHz
    DMT 0x06:   640x480    75.000 Hz   4:3    37.500 kHz  31.500 MHz
    DMT 0x08:   800x600    56.250 Hz   4:3    35.156 kHz  36.000 MHz
    DMT 0x09:   800x600    60.317 Hz   4:3    37.879 kHz  40.000 MHz
    DMT 0x0a:   800x600    72.188 Hz   4:3    48.077 kHz  50.000 MHz
    DMT 0x0b:   800x600    75.000 Hz   4:3    46.875 kHz  49.500 MHz
    DMT 0x10:  1024x768    60.004 Hz   4:3    48.363 kHz  65.000 MHz
    DMT 0x11:  1024x768    70.069 Hz   4:3    56.476 kHz  75.000 MHz
    DMT 0x12:  1024x768    75.029 Hz   4:3    60.023 kHz  78.750 MHz
  Standard Timings: none
  Detailed Timing Descriptors:
    DTD 1:  1280x800    60.000 Hz   8:5    49.680 kHz  83.860 MHz (337 mm x 270 mm)
                 Hfront   72 Hsync 128 Hback 208 Hpol P
                 Vfront    3 Vsync   7 Vback  18 Vpol P
    Display Product Name: 'LM1701'
  Display Range Limits:
    Monitor ranges (GTF): 55-75 Hz V, 30-61 kHz H, max dotclock 100 MHz
    Display Product Serial Number: ...
Checksum: 0xf3

----------------

EDID conformity: PASS
