
EDID (hex):
00ffffffffffff0006af474100000000
01130104951e13780289e59457549327
22505400000001010101010101010101
0101010101019425a03e51840c304020
33002fbd1000001a0d19a03e51840c30
402033002fbd1000001a000000fe0044
56354a31804231343150573400000000
000041211e0000000009010a202000d5

Extracted contents:
header:          00 ff ff ff ff ff ff 00
serial number:   06 af 47 41 00 00 00 00 01 13
version:         01 04
basic params:    95 1e 13 78 02
chroma info:     89 e5 94 57 54 93 27 22 50 54
established:     00 00 00
standard:        01 01 01 01 01 01 01 01 01 01 01 01 01 01 01 01
descriptor 1:    94 25 a0 3e 51 84 0c 30 40 20 33 00 2f bd 10 00 00 1a
descriptor 2:    0d 19 a0 3e 51 84 0c 30 40 20 33 00 2f bd 10 00 00 1a
descriptor 3:    00 00 00 fe 00 44 56 35 4a 31 80 42 31 34 31 50 57 34
descriptor 4:    00 00 00 00 00 00 41 21 1e 00 00 00 00 09 01 0a 20 20
extensions:      00
checksum:        d5

EDID version: 1.4
Manufacturer: AUO Model 4147 Serial Number --
Made in week 1 of 2009
Digital display
6 bits per primary color channel
DisplayPort interface
Maximum image size: 30 cm x 19 cm
Gamma: 2.20
Supported color formats: RGB 4:4:4
First detailed timing includes the native pixel format and preferred refresh rate
Display x,y Chromaticity:
  Red:   0.5800, 0.3398
  Green: 0.3300, 0.5751
  Blue:  0.1552, 0.1347
  White: 0.3134, 0.3291
Established timings supported:
Standard timings supported:
Detailed mode: Clock 96.200 MHz, 303 mm x 189 mm
               1440 1504 1536 1758 hborder 0
                900  903  906  912 vborder 0
               +hsync -vsync 
               VertFreq: 60 Hz, HorFreq: 54721 Hz
Detailed mode: Clock 64.130 MHz, 303 mm x 189 mm
               1440 1504 1536 1758 hborder 0
                900  903  906  912 vborder 0
               +hsync -vsync 
               VertFreq: 39 Hz, HorFreq: 36478 Hz
ASCII string: DV5J1
Manufacturer-specified data, tag 0
Checksum: 0xd5 (valid)
EDID block does NOT conform to EDID 1.4!
	Missing name descriptor
	Missing monitor ranges
	Detailed block string not properly terminated
