edid-decode (hex):

00 ff ff ff ff ff ff 00 06 af 47 41 00 00 00 00
01 13 01 04 95 1e 13 78 02 89 e5 94 57 54 93 27
22 50 54 00 00 00 01 01 01 01 01 01 01 01 01 01
01 01 01 01 01 01 94 25 a0 3e 51 84 0c 30 40 20
33 00 2f bd 10 00 00 1a 0d 19 a0 3e 51 84 0c 30
40 20 33 00 2f bd 10 00 00 1a 00 00 00 fe 00 43
43 58 4d 57 80 42 31 34 31 50 57 34 00 00 00 00
00 00 41 21 1e 00 00 00 00 09 01 0a 20 20 00 9d

----------------

Block 0, Base EDID:
  EDID Structure Version & Revision: 1.4
  Vendor & Product Identification:
    Manufacturer: AUO
    Model: 16711
    Made in: week 1 of 2009
  Basic Display Parameters & Features:
    Digital display
    Bits per primary color channel: 6
    DisplayPort interface
    Maximum image size: 30 cm x 19 cm
    Gamma: 2.20
    Supported color formats: RGB 4:4:4
    First detailed timing includes the native pixel format and preferred refresh rate
  Color Characteristics:
    Red  : 0.5800, 0.3398
    Green: 0.3300, 0.5751
    Blue : 0.1552, 0.1347
    White: 0.3134, 0.3291
  Established Timings I & II: none
  Standard Timings: none
  Detailed Timing Descriptors:
    DTD 1:  1440x900    60.001397 Hz  16:10    54.721 kHz     96.200000 MHz (303 mm x 189 mm)
                 Hfront   64 Hsync  32 Hback  222 Hpol P
                 Vfront    3 Vsync   3 Vback    6 Vpol N
    DTD 2:  1440x900    39.998852 Hz  16:10    36.479 kHz     64.130000 MHz (303 mm x 189 mm)
                 Hfront   64 Hsync  32 Hback  222 Hpol P
                 Vfront    3 Vsync   3 Vback    6 Vpol N
    Alphanumeric Data String: 'CCXMW'
    Manufacturer-Specified Display Descriptor (0x00): 00 00 00 00 41 21 1e 00 00 00 00 09 01 0a 20 20 '....A!........  '
Checksum: 0x9d

----------------

Warnings:

Block 0, Base EDID:
  Missing Display Product Name.

Failures:

Block 0, Base EDID:
  Alphanumeric Data String: Non-printable character.

EDID conformity: FAIL
