
EDID (hex):
00ffffffffffff0022f0202801010101
0313010368291778eeb7b5a655489d25
155054adee0081c00101010101010101
010101010101662156a851001e30458f
3a009ae61000001c000000fd00324c1e
4009000a202020202020000000fc0048
502076313835770a20202020000000ff
00434e54393033524352420a20200026

Extracted contents:
header:          00 ff ff ff ff ff ff 00
serial number:   22 f0 20 28 01 01 01 01 03 13
version:         01 03
basic params:    68 29 17 78 ee
chroma info:     b7 b5 a6 55 48 9d 25 15 50 54
established:     ad ee 00
standard:        81 c0 01 01 01 01 01 01 01 01 01 01 01 01 01 01
descriptor 1:    66 21 56 a8 51 00 1e 30 45 8f 3a 00 9a e6 10 00 00 1c
descriptor 2:    00 00 00 fd 00 32 4c 1e 40 09 00 0a 20 20 20 20 20 20
descriptor 3:    00 00 00 fc 00 48 50 20 76 31 38 35 77 0a 20 20 20 20
descriptor 4:    00 00 00 ff 00 43 4e 54 39 30 33 52 43 52 42 0a 20 20
extensions:      00
checksum:        26

EDID version: 1.3
Manufacturer: HWP Model 2820 Serial Number --
Made in week 3 of 2009
Analog display, Input voltage level: 0.7/0.7 V
Sync: Separate 
Maximum image size: 41 cm x 23 cm
Gamma: 2.20
DPMS levels: Standby Suspend Off
RGB color display
Default (sRGB) color space is primary color space
First detailed timing is preferred timing
Display x,y Chromaticity:
  Red:   0.6503, 0.3349
  Green: 0.2822, 0.6162
  Blue:  0.1464, 0.0849
  White: 0.3134, 0.3291
Established timings supported:
  720x400@70Hz 9:5 HorFreq: 31469 Hz Clock: 28.320 MHz
  640x480@60Hz 4:3 HorFreq: 31469 Hz Clock: 25.175 MHz
  640x480@72Hz 4:3 HorFreq: 37900 Hz Clock: 31.500 MHz
  640x480@75Hz 4:3 HorFreq: 37500 Hz Clock: 31.500 MHz
  800x600@60Hz 4:3 HorFreq: 37900 Hz Clock: 40.000 MHz
  800x600@72Hz 4:3 HorFreq: 48100 Hz Clock: 50.000 MHz
  800x600@75Hz 4:3 HorFreq: 46900 Hz Clock: 49.500 MHz
  832x624@75Hz 4:3 HorFreq: 49726 Hz Clock: 57.284 MHz
  1024x768@60Hz 4:3 HorFreq: 48400 Hz Clock: 65.000 MHz
  1024x768@70Hz 4:3 HorFreq: 56500 Hz Clock: 75.000 MHz
  1024x768@75Hz 4:3 HorFreq: 60000 Hz Clock: 78.750 MHz
Standard timings supported:
  1280x720@60Hz 16:9
Detailed mode: Clock 85.500 MHz, 410 mm x 230 mm
               1366 1435 1578 1790 hborder 0
                768  771  781  798 vborder 0
               -hsync +vsync 
               VertFreq: 59 Hz, HorFreq: 47765 Hz
Monitor ranges (GTF): 50-76Hz V, 30-64kHz H, max dotclock 90MHz
Monitor name: HP v185w
Serial number: --
Checksum: 0x26 (valid)
EDID block does NOT conform to EDID 1.3!
	sRGB is signaled, but the chromaticities do not match
