
EDID (hex):
00ffffffffffff0015643b0701000000
02130103682213782ab370a255489827
155054bfee0001010101010101010101
01010101013f662156a851001e30458f
3a0058c21000003f000000fc00454b44
2d4157313835310a2020000000fd0037
4c1e5611000a202020202020000000ff
00313233343536373839300a202000af

Extracted contents:
header:          00 ff ff ff ff ff ff 00
serial number:   15 64 3b 07 01 00 00 00 02 13
version:         01 03
basic params:    68 22 13 78 2a
chroma info:     b3 70 a2 55 48 98 27 15 50 54
established:     bf ee 00
standard:        01 01 01 01 01 01 01 01 01 01 01 01 01 01 01 3f
descriptor 1:    66 21 56 a8 51 00 1e 30 45 8f 3a 00 58 c2 10 00 00 3f
descriptor 2:    00 00 00 fc 00 45 4b 44 2d 41 57 31 38 35 31 0a 20 20
descriptor 3:    00 00 00 fd 00 37 4c 1e 56 11 00 0a 20 20 20 20 20 20
descriptor 4:    00 00 00 ff 00 31 32 33 34 35 36 37 38 39 30 0a 20 20
extensions:      00
checksum:        af

EDID version: 1.3
Manufacturer: EKD Model 73b Serial Number --
Made in week 2 of 2009
Analog display, Input voltage level: 0.7/0.7 V
Sync: Separate 
Maximum image size: 34 cm x 19 cm
Gamma: 2.20
DPMS levels: Off
RGB color display
First detailed timing is preferred timing
Display x,y Chromaticity:
  Red:   0.6347, 0.3349
  Green: 0.2812, 0.5966
  Blue:  0.1533, 0.0849
  White: 0.3125, 0.3281
Established timings supported:
  720x400@70Hz 9:5 HorFreq: 31469 Hz Clock: 28.320 MHz
  640x480@60Hz 4:3 HorFreq: 31469 Hz Clock: 25.175 MHz
  640x480@67Hz 4:3 HorFreq: 35000 Hz Clock: 30.240 MHz
  640x480@72Hz 4:3 HorFreq: 37900 Hz Clock: 31.500 MHz
  640x480@75Hz 4:3 HorFreq: 37500 Hz Clock: 31.500 MHz
  800x600@56Hz 4:3 HorFreq: 35200 Hz Clock: 36.000 MHz
  800x600@60Hz 4:3 HorFreq: 37900 Hz Clock: 40.000 MHz
  800x600@72Hz 4:3 HorFreq: 48100 Hz Clock: 50.000 MHz
  800x600@75Hz 4:3 HorFreq: 46900 Hz Clock: 49.500 MHz
  832x624@75Hz 4:3 HorFreq: 49726 Hz Clock: 57.284 MHz
  1024x768@60Hz 4:3 HorFreq: 48400 Hz Clock: 65.000 MHz
  1024x768@70Hz 4:3 HorFreq: 56500 Hz Clock: 75.000 MHz
  1024x768@75Hz 4:3 HorFreq: 60000 Hz Clock: 78.750 MHz
Standard timings supported:
  256x160@123Hz 16:10
Detailed mode: Clock 85.500 MHz, 344 mm x 194 mm
               1366 1435 1578 1790 hborder 0
                768  771  781  798 vborder 0
               +hsync +vsync interleaved right even
               VertFreq: 59 Hz, HorFreq: 47765 Hz
Monitor name: EKD-AW1851
Monitor ranges (GTF): 55-76Hz V, 30-86kHz H, max dotclock 170MHz
Serial number: --
Checksum: 0xaf (valid)
One or more of the timings is out of range of the Monitor Ranges:
  Vertical Freq: 56 - 123 Hz
  Horizontal Freq: 31469 - 60000 Hz
  Maximum Clock: 85.500 MHz
