
EDID (hex):
00ffffffffffff0022f0054201000000
1e14010380331d780ab815a6554b9b25
13505400000001010101010101010101
0101010101012035808c703814403c3c
a800fe1f11000018000000fe000a2020
20202020202020202020000000fc0048
5020546f756368536d617274000000fe
004c544d323330485030360a202000b9

Extracted contents:
header:          00 ff ff ff ff ff ff 00
serial number:   22 f0 05 42 01 00 00 00 1e 14
version:         01 03
basic params:    80 33 1d 78 0a
chroma info:     b8 15 a6 55 4b 9b 25 13 50 54
established:     00 00 00
standard:        01 01 01 01 01 01 01 01 01 01 01 01 01 01 01 01
descriptor 1:    20 35 80 8c 70 38 14 40 3c 3c a8 00 fe 1f 11 00 00 18
descriptor 2:    00 00 00 fe 00 0a 20 20 20 20 20 20 20 20 20 20 20 20
descriptor 3:    00 00 00 fc 00 48 50 20 54 6f 75 63 68 53 6d 61 72 74
descriptor 4:    00 00 00 fe 00 4c 54 4d 32 33 30 48 50 30 36 0a 20 20
extensions:      00
checksum:        b9

EDID version: 1.3
Manufacturer: HWP Model 4205 Serial Number --
Made in week 30 of 2010
Digital display
Maximum image size: 51 cm x 29 cm
Gamma: 2.20
RGB color display
First detailed timing is preferred timing
Display x,y Chromaticity:
  Red:   0.6503, 0.3349
  Green: 0.2949, 0.6054
  Blue:  0.1445, 0.0751
  White: 0.3134, 0.3291
Established timings supported:
Standard timings supported:
Detailed mode: Clock 136.000 MHz, 510 mm x 287 mm
               1920 1980 2040 2060 hborder 0
               1080 1090 1098 1100 vborder 0
               -hsync -vsync 
               VertFreq: 60 Hz, HorFreq: 66019 Hz
ASCII string: 
ASCII string: LTM230HP06
Checksum: 0xb9 (valid)
EDID block does NOT conform to EDID 1.3!
	Name descriptor not terminated with a newline
	Missing monitor ranges
