edid-decode (hex):

00 ff ff ff ff ff ff 00 22 f0 05 42 00 00 00 00
00 14 01 03 b4 33 1d 78 0a b8 d5 a6 55 54 a0 27
0a 50 54 01 08 00 b3 00 a9 40 a9 c0 95 00 8b c0
81 80 81 c0 d1 c0 02 3a 80 18 71 38 2d 40 58 2c
45 00 fe 1f 11 00 00 1e 00 00 00 fe 00 4c 54 4d
32 33 30 48 50 30 36 0a 0a 0a 00 00 00 10 00 00
00 00 00 00 00 00 00 00 00 00 00 00 00 00 00 fc
00 48 50 20 54 6f 75 63 68 53 6d 61 72 74 00 94

00 ff ff ff ff ff ff 00 22 f0 05 42 00 00 00 00
00 14 01 03 b4 33 1d 78 0a b8 d5 a6 55 54 a0 27
0a 50 54 01 08 00 b3 00 a9 40 a9 c0 95 00 8b c0
81 80 81 c0 d1 c0 02 3a 80 18 71 38 2d 40 58 2c
45 00 fe 1f 11 00 00 1e 00 00 00 fe 00 4c 54 4d
32 33 30 48 50 30 36 0a 0a 0a 00 00 00 10 00 00
00 00 00 00 00 00 00 00 00 00 00 00 00 00 00 fc
00 48 50 20 54 6f 75 63 68 53 6d 61 72 74 00 94

----------------

Block 0, Base EDID:
  EDID Structure Version & Revision: 1.3
  Vendor & Product Identification:
    Manufacturer: HWP
    Model: 16901
    Made in: 2010
  Basic Display Parameters & Features:
    Digital display
    Maximum image size: 51 cm x 29 cm
    Gamma: 2.20
    RGB color display
    First detailed timing is the preferred timing
  Color Characteristics:
    Red  : 0.6503, 0.3349
    Green: 0.3300, 0.6250
    Blue : 0.1552, 0.0400
    White: 0.3134, 0.3291
  Established Timings I & II:
    DMT 0x09:   800x600    60.316541 Hz   4:3     37.879 kHz     40.000000 MHz
    DMT 0x10:  1024x768    60.003840 Hz   4:3     48.363 kHz     65.000000 MHz
  Standard Timings:
    DMT 0x3a:  1680x1050   59.954250 Hz  16:10    65.290 kHz    146.250000 MHz
    DMT 0x33:  1600x1200   60.000000 Hz   4:3     75.000 kHz    162.000000 MHz
    DMT 0x53:  1600x900    60.000000 Hz  16:9     60.000 kHz    108.000000 MHz (RB)
    DMT 0x2f:  1440x900    59.887445 Hz  16:10    55.935 kHz    106.500000 MHz
    GTF     :  1360x765    60.000341 Hz  16:9     47.520 kHz     84.396000 MHz
    DMT 0x23:  1280x1024   60.019740 Hz   5:4     63.981 kHz    108.000000 MHz
    DMT 0x55:  1280x720    60.000000 Hz  16:9     45.000 kHz     74.250000 MHz
    DMT 0x52:  1920x1080   60.000000 Hz  16:9     67.500 kHz    148.500000 MHz
  Detailed Timing Descriptors:
    DTD 1:  1920x1080   60.000000 Hz  16:9     67.500 kHz    148.500000 MHz (510 mm x 287 mm)
                 Hfront   88 Hsync  44 Hback  148 Hpol P
                 Vfront    4 Vsync   5 Vback   36 Vpol P
    Alphanumeric Data String: 'LTM230HP06'
    Dummy Descriptor:
    Display Product Name: 'HP TouchSmart'
Checksum: 0x94

----------------

Block 1, Unknown EDID Extension Block 0x00:
  00 ff ff ff ff ff ff 00 22 f0 05 42 00 00 00 00 '........"..B....'
  00 14 01 03 b4 33 1d 78 0a b8 d5 a6 55 54 a0 27 '.....3.x....UT.''
  0a 50 54 01 08 00 b3 00 a9 40 a9 c0 95 00 8b c0 '.PT......@......'
  81 80 81 c0 d1 c0 02 3a 80 18 71 38 2d 40 58 2c '.......:..q8-@X,'
  45 00 fe 1f 11 00 00 1e 00 00 00 fe 00 4c 54 4d 'E............LTM'
  32 33 30 48 50 30 36 0a 0a 0a 00 00 00 10 00 00 '230HP06.........'
  00 00 00 00 00 00 00 00 00 00 00 00 00 00 00 fc '................'
  00 48 50 20 54 6f 75 63 68 53 6d 61 72 74 00 94 '.HP TouchSmart..'
Checksum: 0x94

----------------

Warnings:

Block 0, Base EDID:
  Standard Timings: Standard Timing 1360x765 has a dubious odd vertical resolution.

Failures:

Block 0, Base EDID:
  Basic Display Parameters & Features: Digital Video Interface Standard set to reserved value 0x34.
  Alphanumeric Data String: Non-space after newline.
  Missing Display Range Limits Descriptor.
Block 1, Base EDID:
  Unknown Extension Block.
EDID:
  Base EDID: EDID specified 0 extension block(s), but found 1 extension block(s).

EDID conformity: FAIL
