
EDID (hex):
00ffffffffffff0022f04e4200000000
0519010280301b78ee0654a55551a128
0f505400000001010101010101010101
010101010101023a801871382d40582c
4500dd0c1100001e000000fc00485020
416c6c2d696e2d4f6e65000000fc000a
202020202020202020202020000000fc
000a20202020202020202020202000ea

Extracted contents:
header:          00 ff ff ff ff ff ff 00
serial number:   22 f0 4e 42 00 00 00 00 05 19
version:         01 02
basic params:    80 30 1b 78 ee
chroma info:     06 54 a5 55 51 a1 28 0f 50 54
established:     00 00 00
standard:        01 01 01 01 01 01 01 01 01 01 01 01 01 01 01 01
descriptor 1:    02 3a 80 18 71 38 2d 40 58 2c 45 00 dd 0c 11 00 00 1e
descriptor 2:    00 00 00 fc 00 48 50 20 41 6c 6c 2d 69 6e 2d 4f 6e 65
descriptor 3:    00 00 00 fc 00 0a 20 20 20 20 20 20 20 20 20 20 20 20
descriptor 4:    00 00 00 fc 00 0a 20 20 20 20 20 20 20 20 20 20 20 20
extensions:      00
checksum:        ea

EDID version: 1.2
Manufacturer: HWP Model 424e Serial Number --
Made in week 5 of 2015
Digital display
Maximum image size: 48 cm x 27 cm
Gamma: 2.20
DPMS levels: Standby Suspend Off
RGB color display
Default (sRGB) color space is primary color space
First detailed timing is preferred timing
Display x,y Chromaticity:
  Red:   0.6445, 0.3320
  Green: 0.3173, 0.6308
  Blue:  0.1572, 0.0595
  White: 0.3134, 0.3281
Established timings supported:
Standard timings supported:
Detailed mode: Clock 148.500 MHz, 477 mm x 268 mm
               1920 2008 2052 2200 hborder 0
               1080 1084 1089 1125 vborder 0
               +hsync +vsync 
               VertFreq: 60 Hz, HorFreq: 67500 Hz
Monitor name: HP All-in-One
Checksum: 0xea (valid)
