
EDID (hex):
00ffffffffffff00410c96c0f01b0000
05160103803c22782a2cc5a55554a127
0c5054b10800d1c0b3009500818081c0
010101010101023a801871382d40582c
450055502100001e000000ff00415531
31323035303037313532000000fc0032
3733505150590a2020202020000000fd
0038471e5311000a202020202020017f

Extracted contents:
header:          00 ff ff ff ff ff ff 00
serial number:   41 0c 96 c0 f0 1b 00 00 05 16
version:         01 03
basic params:    80 3c 22 78 2a
chroma info:     2c c5 a5 55 54 a1 27 0c 50 54
established:     b1 08 00
standard:        d1 c0 b3 00 95 00 81 80 81 c0 01 01 01 01 01 01
descriptor 1:    02 3a 80 18 71 38 2d 40 58 2c 45 00 55 50 21 00 00 1e
descriptor 2:    00 00 00 ff 00 41 55 31 31 32 30 35 30 30 37 31 35 32
descriptor 3:    00 00 00 fc 00 32 37 33 50 51 50 59 0a 20 20 20 20 20
descriptor 4:    00 00 00 fd 00 38 47 1e 53 11 00 0a 20 20 20 20 20 20
extensions:      01
checksum:        7f

EDID version: 1.3
Manufacturer: PHL Model c096 Serial Number --
Made in week 5 of 2012
Digital display
Maximum image size: 60 cm x 34 cm
Gamma: 2.20
DPMS levels: Off
RGB color display
First detailed timing is preferred timing
Display x,y Chromaticity:
  Red:   0.6445, 0.3339
  Green: 0.3310, 0.6289
  Blue:  0.1552, 0.0468
  White: 0.3134, 0.3291
Established timings supported:
  720x400@70Hz 9:5 HorFreq: 31469 Hz Clock: 28.320 MHz
  640x480@60Hz 4:3 HorFreq: 31469 Hz Clock: 25.175 MHz
  640x480@67Hz 4:3 HorFreq: 35000 Hz Clock: 30.240 MHz
  800x600@60Hz 4:3 HorFreq: 37900 Hz Clock: 40.000 MHz
  1024x768@60Hz 4:3 HorFreq: 48400 Hz Clock: 65.000 MHz
Standard timings supported:
  1920x1080@60Hz 16:9
  1680x1050@60Hz 16:10 HorFreq: 64700 Hz Clock: 119.000 MHz
  1440x900@60Hz 16:10 HorFreq: 55500 Hz Clock: 88.750 MHz
  1280x1024@60Hz 5:4 HorFreq: 64000 Hz Clock: 108.000 MHz
  1280x720@60Hz 16:9
Detailed mode: Clock 148.500 MHz, 597 mm x 336 mm
               1920 2008 2052 2200 hborder 0
               1080 1084 1089 1125 vborder 0
               +hsync +vsync 
               VertFreq: 60 Hz, HorFreq: 67500 Hz
Serial number: --
Monitor name: 273PQPY
Monitor ranges (GTF): 56-71Hz V, 30-83kHz H, max dotclock 170MHz
Has 1 extension blocks
Checksum: 0x7f (valid)
