
EDID (hex):
00ffffffffffff0006afec2100000000
001501049022137802c8959e57549226
0f505400000001010101010101010101
0101010101019e1b567c500016301010
3e0058c1100000180000000f00000000
00000000000000000020000000fe0041
554f0a202020202020202020000000fe
004231353658544e30322e31200a000d

Extracted contents:
header:          00 ff ff ff ff ff ff 00
serial number:   06 af ec 21 00 00 00 00 00 15
version:         01 04
basic params:    90 22 13 78 02
chroma info:     c8 95 9e 57 54 92 26 0f 50 54
established:     00 00 00
standard:        01 01 01 01 01 01 01 01 01 01 01 01 01 01 01 01
descriptor 1:    9e 1b 56 7c 50 00 16 30 10 10 3e 00 58 c1 10 00 00 18
descriptor 2:    00 00 00 0f 00 00 00 00 00 00 00 00 00 00 00 00 00 20
descriptor 3:    00 00 00 fe 00 41 55 4f 0a 20 20 20 20 20 20 20 20 20
descriptor 4:    00 00 00 fe 00 42 31 35 36 58 54 4e 30 32 2e 31 20 0a
extensions:      00
checksum:        0d

EDID version: 1.4
Manufacturer: AUO Model 21ec Serial Number --
Made in year 2011
Digital display
6 bits per primary color channel
Digital interface is not defined
Maximum image size: 34 cm x 19 cm
Gamma: 2.20
Supported color formats: RGB 4:4:4
First detailed timing includes the native pixel format and preferred refresh rate
Display x,y Chromaticity:
  Red:   0.6201, 0.3398
  Green: 0.3300, 0.5703
  Blue:  0.1503, 0.0595
  White: 0.3134, 0.3291
Established timings supported:
Standard timings supported:
Detailed mode: Clock 70.700 MHz, 344 mm x 193 mm
               1366 1382 1398 1490 hborder 0
                768  771  785  790 vborder 0
               -hsync -vsync 
               VertFreq: 60 Hz, HorFreq: 47449 Hz
Manufacturer-specified data, tag 15
ASCII string: AUO
ASCII string: B156XTN02.1 
Checksum: 0xd (valid)
EDID block does NOT conform to EDID 1.4!
	Missing name descriptor
	Missing monitor ranges
