
EDID (hex):
00ffffffffffff0030e4013a00000000
00120103802517780ab3159758568928
21505400000001010101010101010101
010101010101283c80a070b023403020
36006fe6100000190000000000000000
00000000000000000000000000fe004c
4720446973706c61790a2020000000fe
004c503137315755332d544c423100a2

Extracted contents:
header:          00 ff ff ff ff ff ff 00
serial number:   30 e4 01 3a 00 00 00 00 00 12
version:         01 03
basic params:    80 25 17 78 0a
chroma info:     b3 15 97 58 56 89 28 21 50 54
established:     00 00 00
standard:        01 01 01 01 01 01 01 01 01 01 01 01 01 01 01 01
descriptor 1:    28 3c 80 a0 70 b0 23 40 30 20 36 00 6f e6 10 00 00 19
descriptor 2:    00 00 00 00 00 00 00 00 00 00 00 00 00 00 00 00 00 00
descriptor 3:    00 00 00 fe 00 4c 47 20 44 69 73 70 6c 61 79 0a 20 20
descriptor 4:    00 00 00 fe 00 4c 50 31 37 31 57 55 33 2d 54 4c 42 31
extensions:      00
checksum:        a2

EDID version: 1.3
Manufacturer: LGD Model 3a01 Serial Number --
Made in year 2008
Digital display
Maximum image size: 37 cm x 23 cm
Gamma: 2.20
RGB color display
First detailed timing is preferred timing
Display x,y Chromaticity:
  Red:   0.5917, 0.3466
  Green: 0.3359, 0.5380
  Blue:  0.1562, 0.1298
  White: 0.3134, 0.3291
Established timings supported:
Standard timings supported:
Detailed mode: Clock 154.000 MHz, 367 mm x 230 mm
               1920 1968 2000 2080 hborder 0
               1200 1203 1209 1235 vborder 0
               -hsync -vsync 
               VertFreq: 59 Hz, HorFreq: 74038 Hz
Manufacturer-specified data, tag 0
ASCII string: LG Display
ASCII string: LP171WU3-TLB1
Checksum: 0xa2 (valid)
EDID block does NOT conform to EDID 1.3!
	Missing name descriptor
	Missing monitor ranges
