
EDID (hex):
00ffffffffffff004493240000000000
000f0103801d15780ad0e09154508e27
26505400080001010101010101010101
01010101010164190040410026301888
36001ed610000018000000000004c02e
c00211121276c0126301000000fe0051
55414e5441444953504c4159000000fe
0051443134584c3230350a20202000f2

Extracted contents:
header:          00 ff ff ff ff ff ff 00
serial number:   44 93 24 00 00 00 00 00 00 0f
version:         01 03
basic params:    80 1d 15 78 0a
chroma info:     d0 e0 91 54 50 8e 27 26 50 54
established:     00 08 00
standard:        01 01 01 01 01 01 01 01 01 01 01 01 01 01 01 01
descriptor 1:    64 19 00 40 41 00 26 30 18 88 36 00 1e d6 10 00 00 18
descriptor 2:    00 00 00 00 00 04 c0 2e c0 02 11 12 12 76 c0 12 63 01
descriptor 3:    00 00 00 fe 00 51 55 41 4e 54 41 44 49 53 50 4c 41 59
descriptor 4:    00 00 00 fe 00 51 44 31 34 58 4c 32 30 35 0a 20 20 20
extensions:      00
checksum:        f2

EDID version: 1.3
Manufacturer: QDS Model 24 Serial Number --
Digital display
Maximum image size: 29 cm x 21 cm
Gamma: 2.20
RGB color display
First detailed timing is preferred timing
Display x,y Chromaticity:
  Red:   0.5693, 0.3291
  Green: 0.3125, 0.5546
  Blue:  0.1552, 0.1503
  White: 0.3125, 0.3281
Established timings supported:
  1024x768@60Hz 4:3 HorFreq: 48400 Hz Clock: 65.000 MHz
Standard timings supported:
Detailed mode: Clock 65.000 MHz, 286 mm x 214 mm
               1024 1048 1184 1344 hborder 0
                768  771  777  806 vborder 0
               -hsync -vsync 
               VertFreq: 60 Hz, HorFreq: 48363 Hz
Manufacturer-specified data, tag 0
ASCII string: QUANTADISPLAY
ASCII string: QD14XL205
Checksum: 0xf2 (valid)
EDID block does NOT conform to EDID 1.3!
	Missing name descriptor
	Missing monitor ranges
EDID block does not conform at all!
	Bad year of manufacture
