
EDID (hex):
00ffffffffffff0022d201aa00000000
ff1a0103800000780260bcaa5540b623
0c4c5200000001010101010101010101
0101010101010474706a80b008412814
c2047a44000000180474706a80b00841
2814c2047a4400000018000000fc0048
54432d564956450a20202020000000fd
00147801ff1d010a20202020202001de
02031540420102230907018301000065
030c0010000474706a80b008412814c2
04c078000000180474706a80b0084128
14c204c078000000180474706a80b008
412814c204c078000000180474706a80
b008412814c204c07800000018000000
00000000000000000000000000000000
000000000000000000000000000000b1

Extracted contents:
header:          00 ff ff ff ff ff ff 00
serial number:   22 d2 01 aa 00 00 00 00 ff 1a
version:         01 03
basic params:    80 00 00 78 02
chroma info:     60 bc aa 55 40 b6 23 0c 4c 52
established:     00 00 00
standard:        01 01 01 01 01 01 01 01 01 01 01 01 01 01 01 01
descriptor 1:    04 74 70 6a 80 b0 08 41 28 14 c2 04 7a 44 00 00 00 18
descriptor 2:    04 74 70 6a 80 b0 08 41 28 14 c2 04 7a 44 00 00 00 18
descriptor 3:    00 00 00 fc 00 48 54 43 2d 56 49 56 45 0a 20 20 20 20
descriptor 4:    00 00 00 fd 00 14 78 01 ff 1d 01 0a 20 20 20 20 20 20
extensions:      01
checksum:        de

EDID version: 1.3
Manufacturer: HVR Model aa01 Serial Number --
Digital display
Image size is variable
Gamma: 2.20
Monochrome or grayscale display
First detailed timing is preferred timing
Display x,y Chromaticity:
  Red:   0.6650, 0.3339
  Green: 0.2500, 0.7109
  Blue:  0.1386, 0.0498
  White: 0.2998, 0.3203
Established timings supported:
Standard timings supported:
Detailed mode: Clock 297.000 MHz, 122 mm x 68 mm
               2160 2200 2220 2266 hborder 0
               1200 1228 1230 1464 vborder 0
               -hsync -vsync 
               VertFreq: 89 Hz, HorFreq: 131067 Hz
Detailed mode: Clock 297.000 MHz, 122 mm x 68 mm
               2160 2200 2220 2266 hborder 0
               1200 1228 1230 1464 vborder 0
               -hsync -vsync 
               VertFreq: 89 Hz, HorFreq: 131067 Hz
Monitor name: HTC-VIVE
Monitor ranges (bare limits): 20-120Hz V, 1-255kHz H, max dotclock 290MHz
Has 1 extension blocks
Checksum: 0xde (valid)

CTA extension block
Extension version: 3
17 bytes of CTA data
  Video data block
    VIC   1 640x480@60Hz 4:3  HorFreq: 31469 Hz Clock: 25.175 MHz
    VIC   2 720x480@60Hz 4:3  HorFreq: 31469 Hz Clock: 27.000 MHz
  Audio data block
    Linear PCM, max channels 2
      Supported sample rates (kHz): 48 44.1 32
      Supported sample sizes (bits): 16
  Speaker allocation data block
    Speaker map:
      FL/FR - Front Left/Right
  Vendor-specific data block, OUI 000c03 (HDMI)
    Source physical address 1.0.0.0
Basic audio support
0 native detailed modes
Detailed mode: Clock 297.000 MHz, 192 mm x 120 mm
               2160 2200 2220 2266 hborder 0
               1200 1228 1230 1464 vborder 0
               -hsync -vsync 
               VertFreq: 89 Hz, HorFreq: 131067 Hz
Detailed mode: Clock 297.000 MHz, 192 mm x 120 mm
               2160 2200 2220 2266 hborder 0
               1200 1228 1230 1464 vborder 0
               -hsync -vsync 
               VertFreq: 89 Hz, HorFreq: 131067 Hz
Detailed mode: Clock 297.000 MHz, 192 mm x 120 mm
               2160 2200 2220 2266 hborder 0
               1200 1228 1230 1464 vborder 0
               -hsync -vsync 
               VertFreq: 89 Hz, HorFreq: 131067 Hz
Detailed mode: Clock 297.000 MHz, 192 mm x 120 mm
               2160 2200 2220 2266 hborder 0
               1200 1228 1230 1464 vborder 0
               -hsync -vsync 
               VertFreq: 89 Hz, HorFreq: 131067 Hz
Checksum: 0xb1 (valid)

EDID block does not conform at all!
	Bad year of manufacture
	Bad week of manufacture
	Detailed blocks filled with garbage
	Range descriptor contains garbage
