
EDID (hex):
00ffffffffffff0006af3c7200000000
121c0104951f117802c0d58f56589329
20505400000001010101010101010101
010101010101ce1d56e250001e302616
360035ae1000001ad81756e250001e30
2616360035ae1000001a000000fe0030
35375038804231343058544e00000000
00018102a80011000009010a20200047

Extracted contents:
header:          00 ff ff ff ff ff ff 00
serial number:   06 af 3c 72 00 00 00 00 12 1c
version:         01 04
basic params:    95 1f 11 78 02
chroma info:     c0 d5 8f 56 58 93 29 20 50 54
established:     00 00 00
standard:        01 01 01 01 01 01 01 01 01 01 01 01 01 01 01 01
descriptor 1:    ce 1d 56 e2 50 00 1e 30 26 16 36 00 35 ae 10 00 00 1a
descriptor 2:    d8 17 56 e2 50 00 1e 30 26 16 36 00 35 ae 10 00 00 1a
descriptor 3:    00 00 00 fe 00 30 35 37 50 38 80 42 31 34 30 58 54 4e
descriptor 4:    00 00 00 00 00 01 81 02 a8 00 11 00 00 09 01 0a 20 20
extensions:      00
checksum:        47

EDID version: 1.4
Manufacturer: AUO Model 723c Serial Number --
Made in week 18 of 2018
Digital display
6 bits per primary color channel
DisplayPort interface
Maximum image size: 31 cm x 17 cm
Gamma: 2.20
Supported color formats: RGB 4:4:4
First detailed timing includes the native pixel format and preferred refresh rate
Display x,y Chromaticity:
  Red:   0.5615, 0.3359
  Green: 0.3437, 0.5742
  Blue:  0.1630, 0.1259
  White: 0.3134, 0.3291
Established timings supported:
Standard timings supported:
Detailed mode: Clock 76.300 MHz, 309 mm x 174 mm
               1366 1404 1426 1592 hborder 0
                768  771  777  798 vborder 0
               +hsync -vsync 
               VertFreq: 60 Hz, HorFreq: 47927 Hz
Detailed mode: Clock 61.040 MHz, 309 mm x 174 mm
               1366 1404 1426 1592 hborder 0
                768  771  777  798 vborder 0
               +hsync -vsync 
               VertFreq: 48 Hz, HorFreq: 38341 Hz
ASCII string: 057P8
Manufacturer-specified data, tag 0
Checksum: 0x47 (valid)
EDID block does NOT conform to EDID 1.4!
	Missing name descriptor
	Missing monitor ranges
	Detailed block string not properly terminated
