
EDID (hex):
00ffffffffffff002e83002401000000
341a010380341d780af0659857519127
215054a1080001010101010101010101
010101010101011d007251d01e206e28
5500c48e2100001e662150b051001b30
407036000d292100001e000000fc0032
342754560a20202020202020000000fd
00313d0f3109000a202020202020013b

Extracted contents:
header:          00 ff ff ff ff ff ff 00
serial number:   2e 83 00 24 01 00 00 00 34 1a
version:         01 03
basic params:    80 34 1d 78 0a
chroma info:     f0 65 98 57 51 91 27 21 50 54
established:     a1 08 00
standard:        01 01 01 01 01 01 01 01 01 01 01 01 01 01 01 01
descriptor 1:    01 1d 00 72 51 d0 1e 20 6e 28 55 00 c4 8e 21 00 00 1e
descriptor 2:    66 21 50 b0 51 00 1b 30 40 70 36 00 0d 29 21 00 00 1e
descriptor 3:    00 00 00 fc 00 32 34 27 54 56 0a 20 20 20 20 20 20 20
descriptor 4:    00 00 00 fd 00 31 3d 0f 31 09 00 0a 20 20 20 20 20 20
extensions:      01
checksum:        3b

EDID version: 1.3
Manufacturer: KTC Model 2400 Serial Number --
Made in week 52 of 2016
Digital display
Maximum image size: 52 cm x 29 cm
Gamma: 2.20
RGB color display
First detailed timing is preferred timing
Display x,y Chromaticity:
  Red:   0.5966, 0.3427
  Green: 0.3164, 0.5664
  Blue:  0.1533, 0.1308
  White: 0.3134, 0.3291
Established timings supported:
  720x400@70Hz 9:5 HorFreq: 31469 Hz Clock: 28.320 MHz
  640x480@60Hz 4:3 HorFreq: 31469 Hz Clock: 25.175 MHz
  800x600@60Hz 4:3 HorFreq: 37900 Hz Clock: 40.000 MHz
  1024x768@60Hz 4:3 HorFreq: 48400 Hz Clock: 65.000 MHz
Standard timings supported:
Detailed mode: Clock 74.250 MHz, 708 mm x 398 mm
               1280 1390 1430 1650 hborder 0
                720  725  730  750 vborder 0
               +hsync +vsync 
               VertFreq: 60 Hz, HorFreq: 45000 Hz
Detailed mode: Clock 85.500 MHz, 525 mm x 297 mm
               1360 1424 1536 1792 hborder 0
                768  771  777  795 vborder 0
               +hsync +vsync 
               VertFreq: 60 Hz, HorFreq: 47712 Hz
Monitor name: 24'TV
Monitor ranges (GTF): 49-61Hz V, 15-49kHz H, max dotclock 90MHz
Has 1 extension blocks
Checksum: 0x3b (valid)
One or more of the timings is out of range of the Monitor Ranges:
  Vertical Freq: 60 - 70 Hz
  Horizontal Freq: 31469 - 48400 Hz
  Maximum Clock: 85.500 MHz
