
EDID (hex):
00ffffffffffff003e04002700000000
2c1b0104803c2278efe691a7554ea025
0c5054bfaf80714f810081c08180a9c0
b3009500010199e200a0a0a029503020
360081912100001e565e00b0a0a02950
30203500fd1e1100001e000000fd0028
9070703c010a202020202020000000fc
00475332375148522044500a20200196
020326f34b010384050710129314161f
29090707010000000000830100006703
0c0010000044023a801871382d40582c
4500c48e21000098d1bc00a0a0a02950
3020350055502100001e011d00bc52d0
1e20b8285540c48e2100001e5a8700a0
a0a03b503020350081912100001e0000
00000000000000000000000000000007

Extracted contents:
header:          00 ff ff ff ff ff ff 00
serial number:   3e 04 00 27 00 00 00 00 2c 1b
version:         01 04
basic params:    80 3c 22 78 ef
chroma info:     e6 91 a7 55 4e a0 25 0c 50 54
established:     bf af 80
standard:        71 4f 81 00 81 c0 81 80 a9 c0 b3 00 95 00 01 01
descriptor 1:    99 e2 00 a0 a0 a0 29 50 30 20 36 00 81 91 21 00 00 1e
descriptor 2:    56 5e 00 b0 a0 a0 29 50 30 20 35 00 fd 1e 11 00 00 1e
descriptor 3:    00 00 00 fd 00 28 90 70 70 3c 01 0a 20 20 20 20 20 20
descriptor 4:    00 00 00 fc 00 47 53 32 37 51 48 52 20 44 50 0a 20 20
extensions:      01
checksum:        96

EDID version: 1.4
Manufacturer: OPD Model 2700 Serial Number --
Made in week 44 of 2017
Digital display
Color depth is undefined
Digital interface is not defined
Maximum image size: 60 cm x 34 cm
Gamma: 2.20
DPMS levels: Standby Suspend Off
Supported color formats: RGB 4:4:4, YCrCb 4:4:4
Default (sRGB) color space is primary color space
First detailed timing includes the native pixel format and preferred refresh rate
Display is continuous frequency
Display x,y Chromaticity:
  Red:   0.6552, 0.3339
  Green: 0.3056, 0.6269
  Blue:  0.1464, 0.0478
  White: 0.3125, 0.3291
Established timings supported:
  720x400@70Hz 9:5 HorFreq: 31469 Hz Clock: 28.320 MHz
  640x480@60Hz 4:3 HorFreq: 31469 Hz Clock: 25.175 MHz
  640x480@67Hz 4:3 HorFreq: 35000 Hz Clock: 30.240 MHz
  640x480@72Hz 4:3 HorFreq: 37900 Hz Clock: 31.500 MHz
  640x480@75Hz 4:3 HorFreq: 37500 Hz Clock: 31.500 MHz
  800x600@56Hz 4:3 HorFreq: 35200 Hz Clock: 36.000 MHz
  800x600@60Hz 4:3 HorFreq: 37900 Hz Clock: 40.000 MHz
  800x600@72Hz 4:3 HorFreq: 48100 Hz Clock: 50.000 MHz
  832x624@75Hz 4:3 HorFreq: 49726 Hz Clock: 57.284 MHz
  1024x768@60Hz 4:3 HorFreq: 48400 Hz Clock: 65.000 MHz
  1024x768@70Hz 4:3 HorFreq: 56500 Hz Clock: 75.000 MHz
  1024x768@75Hz 4:3 HorFreq: 60000 Hz Clock: 78.750 MHz
  1280x1024@75Hz 5:4 HorFreq: 80000 Hz Clock: 135.000 MHz
  1152x870@75Hz 192:145 HorFreq: 67500 Hz Clock: 108.000 MHz
Standard timings supported:
  1152x864@75Hz 4:3 HorFreq: 67500 Hz Clock: 108.000 MHz
  1280x800@60Hz 16:10
  1280x720@60Hz 16:9
  1280x1024@60Hz 5:4 HorFreq: 64000 Hz Clock: 108.000 MHz
  1600x900@60Hz 16:9
  1680x1050@60Hz 16:10 HorFreq: 64700 Hz Clock: 119.000 MHz
  1440x900@60Hz 16:10 HorFreq: 55500 Hz Clock: 88.750 MHz
Detailed mode: Clock 580.090 MHz, 641 mm x 401 mm
               2560 2608 2640 2720 hborder 0
               1440 1443 1449 1481 vborder 0
               +hsync +vsync 
               VertFreq: 144 Hz, HorFreq: 213268 Hz
Detailed mode: Clock 241.500 MHz, 509 mm x 286 mm
               2560 2608 2640 2736 hborder 0
               1440 1443 1448 1481 vborder 0
               +hsync +vsync 
               VertFreq: 59 Hz, HorFreq: 88267 Hz
Monitor ranges (bare limits): 40-144Hz V, 112-112kHz H, max dotclock 600MHz
Monitor name: GS27QHR DP
Has 1 extension blocks
Checksum: 0x96 (valid)

CTA extension block
Extension version: 3
34 bytes of CTA data
  Video data block
    VIC   1 640x480@60Hz 4:3  HorFreq: 31469 Hz Clock: 25.175 MHz
    VIC   3 720x480@60Hz 16:9  HorFreq: 31469 Hz Clock: 27.000 MHz
    VIC   4 1280x720@60Hz 16:9 (native) HorFreq: 45000 Hz Clock: 74.250 MHz
    VIC   5 1920x1080i@60Hz 16:9  HorFreq: 33750 Hz Clock: 74.250 MHz
    VIC   7 1440x480i@60Hz 16:9  HorFreq: 15734 Hz Clock: 27.000 MHz
    VIC  16 1920x1080@60Hz 16:9  HorFreq: 67500 Hz Clock: 148.500 MHz
    VIC  18 720x576@50Hz 16:9  HorFreq: 31250 Hz Clock: 27.000 MHz
    VIC  19 1280x720@50Hz 16:9 (native) HorFreq: 37500 Hz Clock: 74.250 MHz
    VIC  20 1920x1080i@50Hz 16:9  HorFreq: 28125 Hz Clock: 74.250 MHz
    VIC  22 1440x576i@50Hz 16:9  HorFreq: 15625 Hz Clock: 27.000 MHz
    VIC  31 1920x1080@50Hz 16:9  HorFreq: 56250 Hz Clock: 148.500 MHz
  Audio data block
    Linear PCM, max channels 2
      Supported sample rates (kHz): 48 44.1 32
      Supported sample sizes (bits): 24 20 16
    RESERVED, max channels 2
      Supported sample rates (kHz):
      Maximum bit rate: 0 kHz
    RESERVED, max channels 1
      Supported sample rates (kHz):
      Maximum bit rate: 0 kHz
  Speaker allocation data block
    Speaker map:
      FL/FR - Front Left/Right
  Vendor-specific data block, OUI 000c03 (HDMI)
    Source physical address 1.0.0.0
    Maximum TMDS clock: 340MHz
Underscans PC formats by default
Basic audio support
Supports YCbCr 4:4:4
Supports YCbCr 4:2:2
3 native detailed modes
Detailed mode: Clock 148.500 MHz, 708 mm x 398 mm
               1920 2008 2052 2200 hborder 0
               1080 1084 1089 1125 vborder 0
               -hsync -vsync interlaced 
               VertFreq: 60 Hz, HorFreq: 67500 Hz
Detailed mode: Clock 483.370 MHz, 597 mm x 336 mm
               2560 2608 2640 2720 hborder 0
               1440 1443 1448 1481 vborder 0
               +hsync +vsync 
               VertFreq: 119 Hz, HorFreq: 177709 Hz
Detailed mode: Clock 74.250 MHz, 708 mm x 398 mm
               1280 1720 1760 1980 hborder 0
                720  725  730  750 vborder 0
               +hsync +vsync 
               VertFreq: 50 Hz, HorFreq: 37500 Hz
Detailed mode: Clock 346.500 MHz, 641 mm x 401 mm
               2560 2608 2640 2720 hborder 0
               1440 1443 1448 1499 vborder 0
               +hsync +vsync 
               VertFreq: 84 Hz, HorFreq: 127389 Hz
Checksum: 0x7 (valid)

EDID block does NOT conform to EDID 1.4!
	sRGB is signaled, but the chromaticities do not match
Warning: One or more of the timings is out of range of the Monitor Ranges:
  Vertical Freq: 50 - 144 Hz
  Horizontal Freq: 15625 - 213268 Hz
  Maximum Clock: 580.090 MHz
