
EDID (hex):
00ffffffffffff000c92001700000000
0215010360301b78aeb1a5a1584f9526
165054a1080031404540614081800101
010101010101662150b051001b304070
3600c4fe1000001e000000fc00564741
5f4c454431382e35220a000000fd0038
3e1e5109000a202020202020000000fc
004c4344204d4f4e49544f520a200014

Extracted contents:
header:          00 ff ff ff ff ff ff 00
serial number:   0c 92 00 17 00 00 00 00 02 15
version:         01 03
basic params:    60 30 1b 78 ae
chroma info:     b1 a5 a1 58 4f 95 26 16 50 54
established:     a1 08 00
standard:        31 40 45 40 61 40 81 80 01 01 01 01 01 01 01 01
descriptor 1:    66 21 50 b0 51 00 1b 30 40 70 36 00 c4 fe 10 00 00 1e
descriptor 2:    00 00 00 fc 00 56 47 41 5f 4c 45 44 31 38 2e 35 22 0a
descriptor 3:    00 00 00 fd 00 38 3e 1e 51 09 00 0a 20 20 20 20 20 20
descriptor 4:    00 00 00 fc 00 4c 43 44 20 4d 4f 4e 49 54 4f 52 0a 20
extensions:      00
checksum:        14

EDID version: 1.3
Manufacturer: CDR Model 1700 Serial Number --
Made in week 2 of 2011
Analog display, Input voltage level: 0.7/0.7 V
Sync: 
Maximum image size: 48 cm x 27 cm
Gamma: 2.20
DPMS levels: Standby Off
RGB color display
Default (sRGB) color space is primary color space
First detailed timing is preferred timing
Display x,y Chromaticity:
  Red:   0.6308, 0.3466
  Green: 0.3085, 0.5830
  Blue:  0.1503, 0.0878
  White: 0.3134, 0.3291
Established timings supported:
  720x400@70Hz 9:5 HorFreq: 31469 Hz Clock: 28.320 MHz
  640x480@60Hz 4:3 HorFreq: 31469 Hz Clock: 25.175 MHz
  800x600@60Hz 4:3 HorFreq: 37900 Hz Clock: 40.000 MHz
  1024x768@60Hz 4:3 HorFreq: 48400 Hz Clock: 65.000 MHz
Standard timings supported:
  640x480@60Hz 4:3 HorFreq: 31469 Hz Clock: 25.175 MHz
  800x600@60Hz 4:3 HorFreq: 37900 Hz Clock: 40.000 MHz
  1024x768@60Hz 4:3 HorFreq: 48400 Hz Clock: 65.000 MHz
  1280x1024@60Hz 5:4 HorFreq: 64000 Hz Clock: 108.000 MHz
Detailed mode: Clock 85.500 MHz, 452 mm x 254 mm
               1360 1424 1536 1792 hborder 0
                768  771  777  795 vborder 0
               +hsync +vsync 
               VertFreq: 60 Hz, HorFreq: 47712 Hz
Monitor name: VGA_LED18.5"
Monitor ranges (GTF): 56-62Hz V, 30-81kHz H, max dotclock 90MHz
Checksum: 0x14 (valid)
EDID block does NOT conform to EDID 1.3!
	sRGB is signaled, but the chromaticities do not match
One or more of the timings is out of range of the Monitor Ranges:
  Vertical Freq: 60 - 70 Hz
  Horizontal Freq: 31469 - 64000 Hz
  Maximum Clock: 108.000 MHz
