
EDID (hex):
00ffffffffffff000610b59c00000000
1c130104a53c2278226fb1a7554c9e25
0c505400000001010101010101010101
010101010101565e00a0a0a029503020
350055502100001a1a1d008051d01c20
4080350055502100001c000000020106
10010a010000000000000000000000fc
00436f6c6f72204c43440a2020200108

Extracted contents:
header:          00 ff ff ff ff ff ff 00
serial number:   06 10 b5 9c 00 00 00 00 1c 13
version:         01 04
basic params:    a5 3c 22 78 22
chroma info:     6f b1 a7 55 4c 9e 25 0c 50 54
established:     00 00 00
standard:        01 01 01 01 01 01 01 01 01 01 01 01 01 01 01 01
descriptor 1:    56 5e 00 a0 a0 a0 29 50 30 20 35 00 55 50 21 00 00 1a
descriptor 2:    1a 1d 00 80 51 d0 1c 20 40 80 35 00 55 50 21 00 00 1c
descriptor 3:    00 00 00 02 01 06 10 01 0a 01 00 00 00 00 00 00 00 00
descriptor 4:    00 00 00 fc 00 43 6f 6c 6f 72 20 4c 43 44 0a 20 20 20
extensions:      01
checksum:        08

EDID version: 1.4
Manufacturer: APP Model 9cb5 Serial Number --
Made in week 28 of 2009
Digital display
8 bits per primary color channel
DisplayPort interface
Maximum image size: 60 cm x 34 cm
Gamma: 2.20
DPMS levels: Off
Supported color formats: RGB 4:4:4
First detailed timing includes the native pixel format and preferred refresh rate
Display x,y Chromaticity:
  Red:   0.6533, 0.3339
  Green: 0.2998, 0.6201
  Blue:  0.1464, 0.0498
  White: 0.3125, 0.3291
Established timings supported:
Standard timings supported:
Detailed mode: Clock 241.500 MHz, 597 mm x 336 mm
               2560 2608 2640 2720 hborder 0
               1440 1443 1448 1481 vborder 0
               +hsync -vsync 
               VertFreq: 59 Hz, HorFreq: 88786 Hz
Detailed mode: Clock 74.500 MHz, 597 mm x 336 mm
               1280 1344 1472 1664 hborder 0
                720  723  728  748 vborder 0
               -hsync +vsync 
               VertFreq: 59 Hz, HorFreq: 44771 Hz
Monitor descriptor block has byte 4 nonzero (0x01)
Manufacturer-specified data, tag 2
Monitor name: Color LCD
Has 1 extension blocks
Checksum: 0x8 (valid)
EDID block does NOT conform to EDID 1.4!
	Missing monitor ranges
	Invalid descriptor block padding
