
EDID (hex):
00ffffffffffff004c83433100000000
00190104a51f11780a0ed59558558f28
21505400000001010101010101010101
010101010101dc3780a2703840403020
250035ae10000019372580a270384040
3020250035ae10000019000000000000
00000000000000000000000000000002
000c3fff0c3c7d1e18327d00000000a2

Extracted contents:
header:          00 ff ff ff ff ff ff 00
serial number:   4c 83 43 31 00 00 00 00 00 19
version:         01 04
basic params:    a5 1f 11 78 0a
chroma info:     0e d5 95 58 55 8f 28 21 50 54
established:     00 00 00
standard:        01 01 01 01 01 01 01 01 01 01 01 01 01 01 01 01
descriptor 1:    dc 37 80 a2 70 38 40 40 30 20 25 00 35 ae 10 00 00 19
descriptor 2:    37 25 80 a2 70 38 40 40 30 20 25 00 35 ae 10 00 00 19
descriptor 3:    00 00 00 00 00 00 00 00 00 00 00 00 00 00 00 00 00 00
descriptor 4:    00 00 00 02 00 0c 3f ff 0c 3c 7d 1e 18 32 7d 00 00 00
extensions:      00
checksum:        a2

EDID version: 1.4
Manufacturer: SDC Model 3143 Serial Number --
Made in year 2015
Digital display
8 bits per primary color channel
DisplayPort interface
Maximum image size: 31 cm x 17 cm
Gamma: 2.20
Supported color formats: RGB 4:4:4, YCrCb 4:4:4
First detailed timing includes the native pixel format and preferred refresh rate
Display x,y Chromaticity:
  Red:   0.5820, 0.3437
  Green: 0.3349, 0.5605
  Blue:  0.1591, 0.1298
  White: 0.3134, 0.3291
Established timings supported:
Standard timings supported:
Detailed mode: Clock 143.000 MHz, 309 mm x 174 mm
               1920 1968 2000 2082 hborder 0
               1080 1082 1087 1144 vborder 0
               -hsync -vsync 
               VertFreq: 60 Hz, HorFreq: 68683 Hz
Detailed mode: Clock 95.270 MHz, 309 mm x 174 mm
               1920 1968 2000 2082 hborder 0
               1080 1082 1087 1144 vborder 0
               -hsync -vsync 
               VertFreq: 39 Hz, HorFreq: 45758 Hz
Manufacturer-specified data, tag 0
Manufacturer-specified data, tag 2
Checksum: 0xa2 (valid)
EDID block does NOT conform to EDID 1.4!
	Missing name descriptor
	Missing monitor ranges
