
EDID (hex):
00ffffffffffff0009d1577845540000
09140103802917782e3d85a6564a9a24
125054a56b90710081c081cf810f8140
0101010101019a29a0d0518422305098
630098ff1000001e000000ff00353341
30343737373032360a20000000fd0032
4b183f10000a202020202020000000fc
0042656e512047393230574c0a20000f

Extracted contents:
header:          00 ff ff ff ff ff ff 00
serial number:   09 d1 57 78 45 54 00 00 09 14
version:         01 03
basic params:    80 29 17 78 2e
chroma info:     3d 85 a6 56 4a 9a 24 12 50 54
established:     a5 6b 90
standard:        71 00 81 c0 81 cf 81 0f 81 40 01 01 01 01 01 01
descriptor 1:    9a 29 a0 d0 51 84 22 30 50 98 63 00 98 ff 10 00 00 1e
descriptor 2:    00 00 00 ff 00 35 33 41 30 34 37 37 37 30 32 36 0a 20
descriptor 3:    00 00 00 fd 00 32 4b 18 3f 10 00 0a 20 20 20 20 20 20
descriptor 4:    00 00 00 fc 00 42 65 6e 51 20 47 39 32 30 57 4c 0a 20
extensions:      00
checksum:        0f

EDID version: 1.3
Manufacturer: BNQ Model 7857 Serial Number --
Made in week 9 of 2010
Digital display
Maximum image size: 41 cm x 23 cm
Gamma: 2.20
DPMS levels: Off
RGB color display
Default (sRGB) color space is primary color space
First detailed timing is preferred timing
Display x,y Chromaticity:
  Red:   0.6484, 0.3388
  Green: 0.2919, 0.6025
  Blue:  0.1425, 0.0703
  White: 0.3134, 0.3291
Established timings supported:
  720x400@70Hz 9:5 HorFreq: 31469 Hz Clock: 28.320 MHz
  640x480@60Hz 4:3 HorFreq: 31469 Hz Clock: 25.175 MHz
  640x480@75Hz 4:3 HorFreq: 37500 Hz Clock: 31.500 MHz
  800x600@60Hz 4:3 HorFreq: 37900 Hz Clock: 40.000 MHz
  800x600@75Hz 4:3 HorFreq: 46900 Hz Clock: 49.500 MHz
  832x624@75Hz 4:3 HorFreq: 49726 Hz Clock: 57.284 MHz
  1024x768@60Hz 4:3 HorFreq: 48400 Hz Clock: 65.000 MHz
  1024x768@75Hz 4:3 HorFreq: 60000 Hz Clock: 78.750 MHz
  1280x1024@75Hz 5:4 HorFreq: 80000 Hz Clock: 135.000 MHz
  1152x870@75Hz 192:145 HorFreq: 67500 Hz Clock: 108.000 MHz
Standard timings supported:
  1152x720@60Hz 16:10
  1280x720@60Hz 16:9
  1280x720@75Hz 16:9
  1280x800@75Hz 16:10
  1280x960@60Hz 4:3 HorFreq: 60000 Hz Clock: 108.000 MHz
Detailed mode: Clock 106.500 MHz, 408 mm x 255 mm
               1440 1520 1672 1904 hborder 0
                900  906  909  934 vborder 0
               +hsync +vsync 
               VertFreq: 59 Hz, HorFreq: 55934 Hz
Serial number: --
Monitor ranges (GTF): 50-75Hz V, 24-63kHz H, max dotclock 160MHz
Monitor name: BenQ G920WL
Checksum: 0xf (valid)
EDID block does NOT conform to EDID 1.3!
	sRGB is signaled, but the chromaticities do not match
One or more of the timings is out of range of the Monitor Ranges:
  Vertical Freq: 59 - 75 Hz
  Horizontal Freq: 31469 - 80000 Hz
  Maximum Clock: 135.000 MHz


