
EDID (hex):
00ffffffffffff000472a30054d35191
0f13010368351d78ea6085a6564a9c25
125054afcf008180714f9500950fa940
b30001010101944380907238284080c8
3500132a2100001c000000fc00563234
33480a20202020202020000000fd0038
4c1f5314000a202020202020000000ff
004c46563043303032343034300a004c

Extracted contents:
header:          00 ff ff ff ff ff ff 00
serial number:   04 72 a3 00 54 d3 51 91 0f 13
version:         01 03
basic params:    68 35 1d 78 ea
chroma info:     60 85 a6 56 4a 9c 25 12 50 54
established:     af cf 00
standard:        81 80 71 4f 95 00 95 0f a9 40 b3 00 01 01 01 01
descriptor 1:    94 43 80 90 72 38 28 40 80 c8 35 00 13 2a 21 00 00 1c
descriptor 2:    00 00 00 fc 00 56 32 34 33 48 0a 20 20 20 20 20 20 20
descriptor 3:    00 00 00 fd 00 38 4c 1f 53 14 00 0a 20 20 20 20 20 20
descriptor 4:    00 00 00 ff 00 4c 46 56 30 43 30 30 32 34 30 34 30 0a
extensions:      00
checksum:        4c

EDID version: 1.3
Manufacturer: ACR Model a3 Serial Number --
Made in week 15 of 2009
Analog display, Input voltage level: 0.7/0.7 V
Sync: Separate 
Maximum image size: 53 cm x 29 cm
Gamma: 2.20
DPMS levels: Standby Suspend Off
RGB color display
First detailed timing is preferred timing
Display x,y Chromaticity:
  Red:   0.6494, 0.3378
  Green: 0.2890, 0.6093
  Blue:  0.1464, 0.0703
  White: 0.3134, 0.3291
Established timings supported:
  720x400@70Hz 9:5 HorFreq: 31469 Hz Clock: 28.320 MHz
  640x480@60Hz 4:3 HorFreq: 31469 Hz Clock: 25.175 MHz
  640x480@72Hz 4:3 HorFreq: 37900 Hz Clock: 31.500 MHz
  640x480@75Hz 4:3 HorFreq: 37500 Hz Clock: 31.500 MHz
  800x600@56Hz 4:3 HorFreq: 35200 Hz Clock: 36.000 MHz
  800x600@60Hz 4:3 HorFreq: 37900 Hz Clock: 40.000 MHz
  800x600@72Hz 4:3 HorFreq: 48100 Hz Clock: 50.000 MHz
  800x600@75Hz 4:3 HorFreq: 46900 Hz Clock: 49.500 MHz
  1024x768@60Hz 4:3 HorFreq: 48400 Hz Clock: 65.000 MHz
  1024x768@70Hz 4:3 HorFreq: 56500 Hz Clock: 75.000 MHz
  1024x768@75Hz 4:3 HorFreq: 60000 Hz Clock: 78.750 MHz
  1280x1024@75Hz 5:4 HorFreq: 80000 Hz Clock: 135.000 MHz
Standard timings supported:
  1280x1024@60Hz 5:4 HorFreq: 64000 Hz Clock: 108.000 MHz
  1152x864@75Hz 4:3 HorFreq: 67500 Hz Clock: 108.000 MHz
  1440x900@60Hz 16:10 HorFreq: 55500 Hz Clock: 88.750 MHz
  1440x900@75Hz 16:10 HorFreq: 82300 Hz Clock: 156.000 MHz
  1600x1200@60Hz 4:3 HorFreq: 75000 Hz Clock: 162.000 MHz
  1680x1050@60Hz 16:10 HorFreq: 64700 Hz Clock: 119.000 MHz
Detailed mode: Clock 173.000 MHz, 531 mm x 298 mm
               1920 2048 2248 2576 hborder 0
               1080 1083 1088 1120 vborder 0
               -hsync +vsync 
               VertFreq: 59 Hz, HorFreq: 67158 Hz
Monitor name: V243H
Monitor ranges (GTF): 56-76Hz V, 31-83kHz H, max dotclock 200MHz
Serial number: --
Checksum: 0x4c (valid)
