
EDID (hex):
00ffffffffffff000e96010be9030000
0a190103684627780a1990a755469824
10494ba1090081800101010101010101
010101010101023a801871382d40582c
45004bba1000001e662156aa51001e30
468f3300ba892100001e000000fc0054
454c4546554e4b454e0a2020000000fd
0038460e5b0d000a2020202020200060

Extracted contents:
header:          00 ff ff ff ff ff ff 00
serial number:   0e 96 01 0b e9 03 00 00 0a 19
version:         01 03
basic params:    68 46 27 78 0a
chroma info:     19 90 a7 55 46 98 24 10 49 4b
established:     a1 09 00
standard:        81 80 01 01 01 01 01 01 01 01 01 01 01 01 01 01
descriptor 1:    02 3a 80 18 71 38 2d 40 58 2c 45 00 4b ba 10 00 00 1e
descriptor 2:    66 21 56 aa 51 00 1e 30 46 8f 33 00 ba 89 21 00 00 1e
descriptor 3:    00 00 00 fc 00 54 45 4c 45 46 55 4e 4b 45 4e 0a 20 20
descriptor 4:    00 00 00 fd 00 38 46 0e 5b 0d 00 0a 20 20 20 20 20 20
extensions:      00
checksum:        60

EDID version: 1.3
Manufacturer: CTV Model b01 Serial Number --
Made in week 10 of 2015
Analog display, Input voltage level: 0.7/0.7 V
Sync: Separate 
Maximum image size: 70 cm x 39 cm
Gamma: 2.20
RGB color display
First detailed timing is preferred timing
Display x,y Chromaticity:
  Red:   0.6523, 0.3330
  Green: 0.2753, 0.5947
  Blue:  0.1425, 0.0634
  White: 0.2851, 0.2929
Established timings supported:
  720x400@70Hz 9:5 HorFreq: 31469 Hz Clock: 28.320 MHz
  640x480@60Hz 4:3 HorFreq: 31469 Hz Clock: 25.175 MHz
  800x600@60Hz 4:3 HorFreq: 37900 Hz Clock: 40.000 MHz
  1024x768@60Hz 4:3 HorFreq: 48400 Hz Clock: 65.000 MHz
  1280x1024@75Hz 5:4 HorFreq: 80000 Hz Clock: 135.000 MHz
Standard timings supported:
  1280x1024@60Hz 5:4 HorFreq: 64000 Hz Clock: 108.000 MHz
Detailed mode: Clock 148.500 MHz, 331 mm x 186 mm
               1920 2008 2052 2200 hborder 0
               1080 1084 1089 1125 vborder 0
               +hsync +vsync 
               VertFreq: 60 Hz, HorFreq: 67500 Hz
Detailed mode: Clock 85.500 MHz, 698 mm x 393 mm
               1366 1436 1579 1792 hborder 0
                768  771  774  798 vborder 0
               +hsync +vsync 
               VertFreq: 59 Hz, HorFreq: 47712 Hz
Monitor name: TELEFUNKEN
Monitor ranges (GTF): 56-70Hz V, 14-91kHz H, max dotclock 130MHz
Checksum: 0x60 (valid)
One or more of the timings is out of range of the Monitor Ranges:
  Vertical Freq: 59 - 75 Hz
  Horizontal Freq: 31469 - 80000 Hz
  Maximum Clock: 148.500 MHz
