
EDID (hex):
00ffffffffffff0009e5141400000000
18190104a5351e7806d780a6564a9e24
0f505400000001010101010101010101
0101010101014dd000a0f0703e803020
35000f28210000180000001000000000
00000000000000000000000000100047
44524733144d56323338514d00000000
004c5131353644314a5831310a20000d

Extracted contents:
header:          00 ff ff ff ff ff ff 00
serial number:   09 e5 14 14 00 00 00 00 18 19
version:         01 04
basic params:    a5 35 1e 78 06
chroma info:     d7 80 a6 56 4a 9e 24 0f 50 54
established:     00 00 00
standard:        01 01 01 01 01 01 01 01 01 01 01 01 01 01 01 01
descriptor 1:    4d d0 00 a0 f0 70 3e 80 30 20 35 00 0f 28 21 00 00 18
descriptor 2:    00 00 00 10 00 00 00 00 00 00 00 00 00 00 00 00 00 00
descriptor 3:    00 00 00 10 00 47 44 52 47 33 14 4d 56 32 33 38 51 4d
descriptor 4:    00 00 00 00 00 4c 51 31 35 36 44 31 4a 58 31 31 0a 20
extensions:      00
checksum:        0d

EDID version: 1.4
Manufacturer: BOE Model 1414 Serial Number --
Made in week 24 of 2015
Digital display
8 bits per primary color channel
DisplayPort interface
Maximum image size: 53 cm x 30 cm
Gamma: 2.20
Supported color formats: RGB 4:4:4
Default (sRGB) color space is primary color space
First detailed timing includes the native pixel format and preferred refresh rate
Display x,y Chromaticity:
  Red:   0.6513, 0.3369
  Green: 0.2900, 0.6201
  Blue:  0.1425, 0.0585
  White: 0.3125, 0.3281
Established timings supported:
Standard timings supported:
Detailed mode: Clock 533.250 MHz, 527 mm x 296 mm
               3840 3888 3920 4000 hborder 0
               2160 2163 2168 2222 vborder 0
               -hsync -vsync 
               VertFreq: 59 Hz, HorFreq: 133312 Hz
Dummy block
Dummy block
Manufacturer-specified data, tag 0
Checksum: 0xd (valid)
EDID block does NOT conform to EDID 1.4!
	sRGB is signaled, but the chromaticities do not match
	Missing name descriptor
	Missing monitor ranges
EDID block does not conform at all!
	Dummy block filled with garbage
