
EDID (hex):
00ffffffffffff005c944e1b6c1d0000
22160103082b19780a2915a754479726
1b5054a10800810181c1010101010101
0101010101017f2156aa51001e30468f
330000000000001e000000fc00555733
32533350570a20202020000000fd003b
471e440f000a202020202020000000ff
003639393059323334303735333200f8

edid-decode (hex):

00 ff ff ff ff ff ff 00 5c 94 4e 1b 6c 1d 00 00
22 16 01 03 08 2b 19 78 0a 29 15 a7 54 47 97 26
1b 50 54 a1 08 00 81 01 81 c1 01 01 01 01 01 01
01 01 01 01 01 01 7f 21 56 aa 51 00 1e 30 46 8f
33 00 00 00 00 00 00 1e 00 00 00 fc 00 55 57 33
32 53 33 50 57 0a 20 20 20 20 00 00 00 fd 00 3b
47 1e 44 0f 00 0a 20 20 20 20 20 20 00 00 00 ff
00 36 39 39 30 59 32 33 34 30 37 35 33 32 00 f8

----------------

Block 0, Base EDID:
  EDID Structure Version & Revision: 1.3
  Vendor & Product Identification:
    Manufacturer: WDT
    Model: 6990
    Serial Number: 7532
    Made in: week 34 of 2012
  Basic Display Parameters & Features:
    Analog display
    Signal Level Standard: 0.700 : 0.300 : 1.000 V p-p
    Blank level equals black level
    Sync: Separate
    Maximum image size: 43 cm x 25 cm
    Gamma: 2.20
    RGB color display
    First detailed timing is the preferred timing
  Color Characteristics:
    Red  : 0.6523, 0.3300
    Green: 0.2792, 0.5908
    Blue : 0.1484, 0.1064
    White: 0.3134, 0.3291
  Established Timings I & II:
    IBM     :   720x400    70.081663 Hz   9:5     31.467 kHz     28.320000 MHz
    DMT 0x04:   640x480    59.940476 Hz   4:3     31.469 kHz     25.175000 MHz
    DMT 0x09:   800x600    60.316541 Hz   4:3     37.879 kHz     40.000000 MHz
    DMT 0x10:  1024x768    60.003840 Hz   4:3     48.363 kHz     65.000000 MHz
  Standard Timings:
    GTF     :  1280x800    61.000057 Hz  16:10    50.569 kHz     84.956000 MHz
    GTF     :  1280x720    61.000013 Hz  16:9     45.506 kHz     75.722000 MHz
  Detailed Timing Descriptors:
    DTD 1:  1366x768    59.964364 Hz 683:384   47.852 kHz     85.750000 MHz
                 Hfront   70 Hsync 143 Hback  213 Hpol P
                 Vfront    3 Vsync   3 Vback   24 Vpol P
    Display Product Name: 'UW32S3PW'
    Display Range Limits:
      Monitor ranges (GTF): 59-71 Hz V, 30-68 kHz H, max dotclock 150 MHz
    Display Product Serial Number: '6990Y23407532'
Checksum: 0xf8
