
EDID (hex):
00ffffffffffff000dae221500000000
161e0104a52213780328659759548e27
1e505400000001010101010101010101
0101010101015c6f80a070383e403020
a50058c11000001a000000fd00307889
891d010a202020202020000000fe0037
58474e4a803135364852410a00000000
0001410f99001000000b010a20200188
70137900000301145c6f00047f079f00
2f001f003704b4040900040000000000
00000000000000000000000000000000
00000000000000000000000000000000
00000000000000000000000000000000
00000000000000000000000000000000
00005434313746374833425131390000
00000000000000000000000000003590

Extracted contents:
header:          00 ff ff ff ff ff ff 00
serial number:   0d ae 22 15 00 00 00 00 16 1e
version:         01 04
basic params:    a5 22 13 78 03
chroma info:     28 65 97 59 54 8e 27 1e 50 54
established:     00 00 00
standard:        01 01 01 01 01 01 01 01 01 01 01 01 01 01 01 01
descriptor 1:    5c 6f 80 a0 70 38 3e 40 30 20 a5 00 58 c1 10 00 00 1a
descriptor 2:    00 00 00 fd 00 30 78 89 89 1d 01 0a 20 20 20 20 20 20
descriptor 3:    00 00 00 fe 00 37 58 47 4e 4a 80 31 35 36 48 52 41 0a
descriptor 4:    00 00 00 00 00 01 41 0f 99 00 10 00 00 0b 01 0a 20 20
extensions:      01
checksum:        88

EDID version: 1.4
Manufacturer: CMN Model 1522 Serial Number --
Made in week 22 of 2020
Digital display
8 bits per primary color channel
DisplayPort interface
Maximum image size: 34 cm x 19 cm
Gamma: 2.20
Supported color formats: RGB 4:4:4
First detailed timing includes the native pixel format and preferred refresh rate
Display is continuous frequency
Display x,y Chromaticity:
  Red:   0.5898, 0.3496
  Green: 0.3300, 0.5546
  Blue:  0.1533, 0.1191
  White: 0.3134, 0.3291
Established timings supported:
Standard timings supported:
Detailed mode: Clock 285.080 MHz, 344 mm x 193 mm
               1920 1968 2000 2080 hborder 0
               1080 1090 1095 1142 vborder 0
               +hsync -vsync 
               VertFreq: 120 Hz, HorFreq: 137057 Hz
Monitor ranges (bare limits): 48-120Hz V, 137-137kHz H, max dotclock 290MHz
ASCII string: 7XGNJ
Manufacturer-specified data, tag 0
Has 1 extension blocks
Checksum: 0x88 (valid)

DisplayID extension block
Extension version: 19
Length 121, version 19, extension count 0
Checksum: 0x35 (valid)
Type 1 detailed timing: aspect: 16:9,  
Detailed mode: Clock 285.080 MHz, 0 mm x 0 mm
               1919 1966 1997 2078
               1079 1088 1092 2283
               -hsync -vsync

EDID block does NOT conform to EDID 1.4!
	Missing name descriptor
	Detailed block string not properly terminated
Warning: One or more of the timings is out of range of the Monitor Ranges:
  Vertical Freq: 120 - 120 Hz
  Horizontal Freq: 137057 - 137057 Hz
  Maximum Clock: 285.080 MHz
EDID block does not conform at all!
	Has 2013265920 nonconformant extension block(s)
