
EDID (hex):
00ffffffffffff000859434601010101
01130103806639780ae69da3544a9926
0f474aa20800818081c09500b300a940
010101010101023a801871382d40582c
4500fa3d3200001a0e1f008051001e30
40803700fa3d3200001c000000fd003a
3e0f440f000a202020202020000000fc
004242592054560a202020202020010c
02031c71478405030210060723090707
8301000067030c0010008012011d0072
51d01e206e285500fa3d3200001e011d
8018711c1620582c2500fa3d3200009e
8c0ad08a20e02d10103e9600fa3d3200
00188c0ad08a20e02d10103e9600fb3d
22000018023a801871382d40582c4500
fa3d3200001a000000000000000000d1

Extracted contents:
header:          00 ff ff ff ff ff ff 00
serial number:   08 59 43 46 01 01 01 01 01 13
version:         01 03
basic params:    80 66 39 78 0a
chroma info:     e6 9d a3 54 4a 99 26 0f 47 4a
established:     a2 08 00
standard:        81 80 81 c0 95 00 b3 00 a9 40 01 01 01 01 01 01
descriptor 1:    02 3a 80 18 71 38 2d 40 58 2c 45 00 fa 3d 32 00 00 1a
descriptor 2:    0e 1f 00 80 51 00 1e 30 40 80 37 00 fa 3d 32 00 00 1c
descriptor 3:    00 00 00 fd 00 3a 3e 0f 44 0f 00 0a 20 20 20 20 20 20
descriptor 4:    00 00 00 fc 00 42 42 59 20 54 56 0a 20 20 20 20 20 20
extensions:      01
checksum:        0c

EDID version: 1.3
Manufacturer: BBY Model 4643 Serial Number --
Made in week 1 of 2009
Digital display
Maximum image size: 102 cm x 57 cm
Gamma: 2.20
RGB color display
First detailed timing is preferred timing
Display x,y Chromaticity:
  Red:   0.6396, 0.3300
  Green: 0.2900, 0.5996
  Blue:  0.1503, 0.0595
  White: 0.2802, 0.2900
Established timings supported:
  720x400@70Hz 9:5 HorFreq: 31469 Hz Clock: 28.320 MHz
  640x480@60Hz 4:3 HorFreq: 31469 Hz Clock: 25.175 MHz
  800x600@56Hz 4:3 HorFreq: 35200 Hz Clock: 36.000 MHz
  1024x768@60Hz 4:3 HorFreq: 48400 Hz Clock: 65.000 MHz
Standard timings supported:
  1280x1024@60Hz 5:4 HorFreq: 64000 Hz Clock: 108.000 MHz
  1280x720@60Hz 16:9
  1440x900@60Hz 16:10 HorFreq: 55500 Hz Clock: 88.750 MHz
  1680x1050@60Hz 16:10 HorFreq: 64700 Hz Clock: 119.000 MHz
  1600x1200@60Hz 4:3 HorFreq: 75000 Hz Clock: 162.000 MHz
Detailed mode: Clock 148.500 MHz, 1018 mm x 573 mm
               1920 2008 2052 2200 hborder 0
               1080 1084 1089 1125 vborder 0
               +hsync -vsync 
               VertFreq: 60 Hz, HorFreq: 67500 Hz
Detailed mode: Clock 79.500 MHz, 1018 mm x 573 mm
               1280 1344 1472 1664 hborder 0
                768  771  778  798 vborder 0
               -hsync +vsync 
               VertFreq: 59 Hz, HorFreq: 47776 Hz
Monitor ranges (GTF): 58-62Hz V, 15-68kHz H, max dotclock 150MHz
Monitor name: BBY TV
Has 1 extension blocks
Checksum: 0xc (valid)

CTA extension block
Extension version: 3
24 bytes of CTA data
  Video data block
    VIC   4 1280x720@60Hz 16:9 (native) HorFreq: 45000 Hz Clock: 74.250 MHz
    VIC   5 1920x1080i@60Hz 16:9  HorFreq: 33750 Hz Clock: 74.250 MHz
    VIC   3 720x480@60Hz 16:9  HorFreq: 31469 Hz Clock: 27.000 MHz
    VIC   2 720x480@60Hz 4:3  HorFreq: 31469 Hz Clock: 27.000 MHz
    VIC  16 1920x1080@60Hz 16:9  HorFreq: 67500 Hz Clock: 148.500 MHz
    VIC   6 1440x480i@60Hz 4:3  HorFreq: 15734 Hz Clock: 27.000 MHz
    VIC   7 1440x480i@60Hz 16:9  HorFreq: 15734 Hz Clock: 27.000 MHz
  Audio data block
    Linear PCM, max channels 2
      Supported sample rates (kHz): 48 44.1 32
      Supported sample sizes (bits): 24 20 16
  Speaker allocation data block
    Speaker map:
      FL/FR - Front Left/Right
  Vendor-specific data block, OUI 000c03 (HDMI)
    Source physical address 1.0.0.0
    Supports_AI
    Maximum TMDS clock: 90MHz
Basic audio support
Supports YCbCr 4:4:4
Supports YCbCr 4:2:2
1 native detailed modes
Detailed mode: Clock 74.250 MHz, 1018 mm x 573 mm
               1280 1390 1430 1650 hborder 0
                720  725  730  750 vborder 0
               +hsync +vsync 
               VertFreq: 60 Hz, HorFreq: 45000 Hz
Detailed mode: Clock 74.250 MHz, 1018 mm x 573 mm
               1920 2008 2052 2200 hborder 0
                540  542  547  562 vborder 0
               +hsync +vsync interlaced 
               VertFreq: 60 Hz, HorFreq: 33750 Hz
Detailed mode: Clock 27.000 MHz, 1018 mm x 573 mm
                720  736  798  858 hborder 0
                480  489  495  525 vborder 0
               -hsync -vsync 
               VertFreq: 59 Hz, HorFreq: 31468 Hz
Detailed mode: Clock 27.000 MHz, 763 mm x 573 mm
                720  736  798  858 hborder 0
                480  489  495  525 vborder 0
               -hsync -vsync 
               VertFreq: 59 Hz, HorFreq: 31468 Hz
Detailed mode: Clock 148.500 MHz, 1018 mm x 573 mm
               1920 2008 2052 2200 hborder 0
               1080 1084 1089 1125 vborder 0
               +hsync -vsync 
               VertFreq: 60 Hz, HorFreq: 67500 Hz
Checksum: 0xd1 (valid)

One or more of the timings is out of range of the Monitor Ranges:
  Vertical Freq: 56 - 70 Hz
  Horizontal Freq: 15734 - 75000 Hz
  Maximum Clock: 162.000 MHz
