
EDID (hex):
00ffffffffffff000daea71400000000
2a190104951f117802fda59255529428
24505400000001010101010101010101
010101010101b43b804a71383440503c
680034ad1000001ac32f804a71383440
503c680034ad1000001a000000fe004e
574b3854803134304847450a00000000
0000413196000000000a010a20200023

Extracted contents:
header:          00 ff ff ff ff ff ff 00
serial number:   0d ae a7 14 00 00 00 00 2a 19
version:         01 04
basic params:    95 1f 11 78 02
chroma info:     fd a5 92 55 52 94 28 24 50 54
established:     00 00 00
standard:        01 01 01 01 01 01 01 01 01 01 01 01 01 01 01 01
descriptor 1:    b4 3b 80 4a 71 38 34 40 50 3c 68 00 34 ad 10 00 00 1a
descriptor 2:    c3 2f 80 4a 71 38 34 40 50 3c 68 00 34 ad 10 00 00 1a
descriptor 3:    00 00 00 fe 00 4e 57 4b 38 54 80 31 34 30 48 47 45 0a
descriptor 4:    00 00 00 00 00 00 41 31 96 00 00 00 00 0a 01 0a 20 20
extensions:      00
checksum:        23

EDID version: 1.4
Manufacturer: CMN Model 14a7 Serial Number --
Made in week 42 of 2015
Digital display
6 bits per primary color channel
DisplayPort interface
Maximum image size: 31 cm x 17 cm
Gamma: 2.20
Supported color formats: RGB 4:4:4
First detailed timing includes the native pixel format and preferred refresh rate
Display x,y Chromaticity:
  Red:   0.5732, 0.3349
  Green: 0.3232, 0.5791
  Blue:  0.1582, 0.1425
  White: 0.3134, 0.3291
Established timings supported:
Standard timings supported:
Detailed mode: Clock 152.840 MHz, 308 mm x 173 mm
               1920 2000 2060 2250 hborder 0
               1080 1086 1094 1132 vborder 0
               +hsync -vsync 
               VertFreq: 60 Hz, HorFreq: 67928 Hz
Detailed mode: Clock 122.270 MHz, 308 mm x 173 mm
               1920 2000 2060 2250 hborder 0
               1080 1086 1094 1132 vborder 0
               +hsync -vsync 
               VertFreq: 48 Hz, HorFreq: 54342 Hz
ASCII string: NWK8T
Manufacturer-specified data, tag 0
Checksum: 0x23 (valid)
EDID block does NOT conform to EDID 1.4!
	Missing name descriptor
	Missing monitor ranges
	Detailed block string not properly terminated
