edid-decode (hex):

00 ff ff ff ff ff ff 00 0d ae a7 14 00 00 00 00
2a 19 01 04 95 1f 11 78 02 fd a5 92 55 52 94 28
24 50 54 00 00 00 01 01 01 01 01 01 01 01 01 01
01 01 01 01 01 01 b4 3b 80 4a 71 38 34 40 50 3c
68 00 34 ad 10 00 00 1a c3 2f 80 4a 71 38 34 40
50 3c 68 00 34 ad 10 00 00 1a 00 00 00 fe 00 4e
57 4b 38 54 80 31 34 30 48 47 45 0a 00 00 00 00
00 00 41 31 96 00 00 00 00 0a 01 0a 20 20 00 23

----------------

Block 0, Base EDID:
  EDID Structure Version & Revision: 1.4
  Vendor & Product Identification:
    Manufacturer: CMN
    Model: 5287
    Made in: week 42 of 2015
  Basic Display Parameters & Features:
    Digital display
    Bits per primary color channel: 6
    DisplayPort interface
    Maximum image size: 31 cm x 17 cm
    Gamma: 2.20
    Supported color formats: RGB 4:4:4
    First detailed timing includes the native pixel format and preferred refresh rate
  Color Characteristics:
    Red  : 0.5732, 0.3349
    Green: 0.3232, 0.5791
    Blue : 0.1582, 0.1425
    White: 0.3134, 0.3291
  Established Timings I & II: none
  Standard Timings: none
  Detailed Timing Descriptors:
    DTD 1:  1920x1080   60.008 Hz  16:9    67.929 kHz 152.840 MHz (308 mm x 173 mm)
                 Hfront   80 Hsync  60 Hback 190 Hpol P
                 Vfront    6 Vsync   8 Vback  38 Vpol N
    DTD 2:  1920x1080   48.005 Hz  16:9    54.342 kHz 122.270 MHz (308 mm x 173 mm)
                 Hfront   80 Hsync  60 Hback 190 Hpol P
                 Vfront    6 Vsync   8 Vback  38 Vpol N
    Alphanumeric Data String: 'NWK8T'
    Manufacturer-Specified Display Descriptor (0x00): 00 00 00 00 41 31 96 00 00 00 00 0a 01 0a 20 20 '....A1........  '
Checksum: 0x23

----------------

Failures:

Block 0, Base EDID:
  Alphanumeric Data String: Non-printable character.
  Missing Display Product Name.

EDID conformity: FAIL
