
EDID (hex):
00ffffffffffff003870040000000000
001a0104a51d1178067b50a256519c27
0c4e5300000001010101010101010101
010101010101333680a070381f403020
350026a5100000180000001000000000
00000000000000000000000000100000
000000000000000000000000000000fe
004c4d3133334c46344c30310a200063

Extracted contents:
header:          00 ff ff ff ff ff ff 00
serial number:   38 70 04 00 00 00 00 00 00 1a
version:         01 04
basic params:    a5 1d 11 78 06
chroma info:     7b 50 a2 56 51 9c 27 0c 4e 53
established:     00 00 00
standard:        01 01 01 01 01 01 01 01 01 01 01 01 01 01 01 01
descriptor 1:    33 36 80 a0 70 38 1f 40 30 20 35 00 26 a5 10 00 00 18
descriptor 2:    00 00 00 10 00 00 00 00 00 00 00 00 00 00 00 00 00 00
descriptor 3:    00 00 00 10 00 00 00 00 00 00 00 00 00 00 00 00 00 00
descriptor 4:    00 00 00 fe 00 4c 4d 31 33 33 4c 46 34 4c 30 31 0a 20
extensions:      00
checksum:        63

EDID version: 1.4
Manufacturer: NCP Model 4 Serial Number --
Made in year 2016
Digital display
8 bits per primary color channel
DisplayPort interface
Maximum image size: 29 cm x 17 cm
Gamma: 2.20
Supported color formats: RGB 4:4:4
Default (sRGB) color space is primary color space
First detailed timing includes the native pixel format and preferred refresh rate
Display x,y Chromaticity:
  Red:   0.6337, 0.3388
  Green: 0.3183, 0.6123
  Blue:  0.1533, 0.0478
  White: 0.3046, 0.3242
Established timings supported:
Standard timings supported:
Detailed mode: Clock 138.750 MHz, 294 mm x 165 mm
               1920 1968 2000 2080 hborder 0
               1080 1083 1088 1111 vborder 0
               -hsync -vsync 
               VertFreq: 60 Hz, HorFreq: 66706 Hz
Dummy block
Dummy block
ASCII string: LM133LF4L01
Checksum: 0x63 (valid)
EDID block does NOT conform to EDID 1.4!
	sRGB is signaled, but the chromaticities do not match
	Missing name descriptor
	Missing monitor ranges
