
EDID (hex):
00ffffffffffff0009d137765b000000
230d01036c241d78ea0920a2574b9a24
185054bdef80714f8180818c81900101
010101010101bc34009851002a401090
1300520e1100001e000000fc0042656e
71204650373831202020000000ff0000
00000000000000000a202020000000fd
00384c1f530e0a2020202020202000d6

Extracted contents:
header:          00 ff ff ff ff ff ff 00
serial number:   09 d1 37 76 5b 00 00 00 23 0d
version:         01 03
basic params:    6c 24 1d 78 ea
chroma info:     09 20 a2 57 4b 9a 24 18 50 54
established:     bd ef 80
standard:        71 4f 81 80 81 8c 81 90 01 01 01 01 01 01 01 01
descriptor 1:    bc 34 00 98 51 00 2a 40 10 90 13 00 52 0e 11 00 00 1e
descriptor 2:    00 00 00 fc 00 42 65 6e 71 20 46 50 37 38 31 20 20 20
descriptor 3:    00 00 00 ff 00 00 00 00 00 00 00 00 00 00 0a 20 20 20
descriptor 4:    00 00 00 fd 00 38 4c 1f 53 0e 0a 20 20 20 20 20 20 20
extensions:      00
checksum:        d6

EDID version: 1.3
Manufacturer: BNQ Model 7637 Serial Number --
Analog display, Input voltage level: 0.7/0.7 V
Sync: Separate Composite 
Maximum image size: 36 cm x 29 cm
Gamma: 2.20
DPMS levels: Standby Suspend Off
RGB color display
First detailed timing is preferred timing
Display x,y Chromaticity:
  Red:   0.6328, 0.3398
  Green: 0.2949, 0.6025
  Blue:  0.1406, 0.0957
  White: 0.3125, 0.3281
Established timings supported:
  720x400@70Hz 9:5 HorFreq: 31469 Hz Clock: 28.320 MHz
  640x480@60Hz 4:3 HorFreq: 31469 Hz Clock: 25.175 MHz
  640x480@67Hz 4:3 HorFreq: 35000 Hz Clock: 30.240 MHz
  640x480@72Hz 4:3 HorFreq: 37900 Hz Clock: 31.500 MHz
  640x480@75Hz 4:3 HorFreq: 37500 Hz Clock: 31.500 MHz
  800x600@60Hz 4:3 HorFreq: 37900 Hz Clock: 40.000 MHz
  800x600@72Hz 4:3 HorFreq: 48100 Hz Clock: 50.000 MHz
  800x600@75Hz 4:3 HorFreq: 46900 Hz Clock: 49.500 MHz
  832x624@75Hz 4:3 HorFreq: 49726 Hz Clock: 57.284 MHz
  1024x768@60Hz 4:3 HorFreq: 48400 Hz Clock: 65.000 MHz
  1024x768@70Hz 4:3 HorFreq: 56500 Hz Clock: 75.000 MHz
  1024x768@75Hz 4:3 HorFreq: 60000 Hz Clock: 78.750 MHz
  1280x1024@75Hz 5:4 HorFreq: 80000 Hz Clock: 135.000 MHz
  1152x870@75Hz 192:145 HorFreq: 67500 Hz Clock: 108.000 MHz
Standard timings supported:
  1152x864@75Hz 4:3 HorFreq: 67500 Hz Clock: 108.000 MHz
  1280x1024@60Hz 5:4 HorFreq: 64000 Hz Clock: 108.000 MHz
  1280x1024@72Hz 5:4
  1280x1024@76Hz 5:4
Detailed mode: Clock 135.000 MHz, 338 mm x 270 mm
               1280 1296 1440 1688 hborder 0
               1024 1025 1028 1066 vborder 0
               +hsync +vsync 
               VertFreq: 75 Hz, HorFreq: 79976 Hz
Serial number: 
-- ranges (invalid): 56-76Hz V, 31-83kHz H, max dotclock 140MHz
Checksum: 0xd6 (valid)
EDID block does NOT conform to EDID 1.3!
	Name descriptor not terminated with a newline
	Detailed block string not properly terminated
EDID block does not conform at all!
	Bad year of manufacture
	Detailed blocks filled with garbage
	Range descriptor contains garbage
