edid-decode (hex):

00 ff ff ff ff ff ff 00 06 af 2c 31 00 00 00 00
00 1c 01 04 95 1d 11 78 02 92 45 91 57 58 90 29
20 50 54 00 00 00 01 01 01 01 01 01 01 01 01 01
01 01 01 01 01 01 ce 1d 56 e2 50 00 1e 30 26 16
36 00 25 a5 10 00 00 1a d8 17 56 e2 50 00 1e 30
26 16 36 00 25 a5 10 00 00 1a 00 00 00 fe 00 47
35 30 58 36 80 42 31 33 33 58 54 4e 00 00 00 00
00 01 41 22 96 00 10 00 00 09 01 0a 20 20 00 b7

----------------

Block 0, Base EDID:
  EDID Structure Version & Revision: 1.4
  Vendor & Product Identification:
    Manufacturer: AUO
    Model: 12588
    Made in: 2018
  Basic Display Parameters & Features:
    Digital display
    Bits per primary color channel: 6
    DisplayPort interface
    Maximum image size: 29 cm x 17 cm
    Gamma: 2.20
    Supported color formats: RGB 4:4:4
    First detailed timing includes the native pixel format and preferred refresh rate
  Color Characteristics:
    Red  : 0.5683, 0.3408
    Green: 0.3437, 0.5644
    Blue : 0.1611, 0.1250
    White: 0.3134, 0.3291
  Established Timings I & II: none
  Standard Timings: none
  Detailed Timing Descriptors:
    DTD 1:  1366x768    60.059067 Hz 683:384   47.927 kHz     76.300000 MHz (293 mm x 165 mm)
                 Hfront   38 Hsync  22 Hback  166 Hpol P
                 Vfront    3 Vsync   6 Vback   21 Vpol N
    DTD 2:  1366x768    48.047254 Hz 683:384   38.342 kHz     61.040000 MHz (293 mm x 165 mm)
                 Hfront   38 Hsync  22 Hback  166 Hpol P
                 Vfront    3 Vsync   6 Vback   21 Vpol N
    Alphanumeric Data String: 'G50X6'
    Manufacturer-Specified Display Descriptor (0x00): 00 00 00 01 41 22 96 00 10 00 00 09 01 0a 20 20 '....A"........  '
Checksum: 0xb7

----------------

Failures:

Block 0, Base EDID:
  Alphanumeric Data String: Non-printable character.
  Missing Display Product Name.

EDID conformity: FAIL
