
EDID (hex):
00ffffffffffff0006af2c3100000000
00140104901d10780215859758538a26
25505400000001010101010101010101
0101010101014a1d56c4500020303020
360025a41000001a871356c450002030
3020360025a41000001a000000fe004b
4b373336804231333358573300000000
00004121960111000001010a20200013

Extracted contents:
header:          00 ff ff ff ff ff ff 00
serial number:   06 af 2c 31 00 00 00 00 00 14
version:         01 04
basic params:    90 1d 10 78 02
chroma info:     15 85 97 58 53 8a 26 25 50 54
established:     00 00 00
standard:        01 01 01 01 01 01 01 01 01 01 01 01 01 01 01 01
descriptor 1:    4a 1d 56 c4 50 00 20 30 30 20 36 00 25 a4 10 00 00 1a
descriptor 2:    87 13 56 c4 50 00 20 30 30 20 36 00 25 a4 10 00 00 1a
descriptor 3:    00 00 00 fe 00 4b 4b 37 33 36 80 42 31 33 33 58 57 33
descriptor 4:    00 00 00 00 00 00 41 21 96 01 11 00 00 01 01 0a 20 20
extensions:      00
checksum:        13

EDID version: 1.4
Manufacturer: AUO Model 312c Serial Number --
Made in year 2010
Digital display
6 bits per primary color channel
Digital interface is not defined
Maximum image size: 29 cm x 16 cm
Gamma: 2.20
Supported color formats: RGB 4:4:4
First detailed timing includes the native pixel format and preferred refresh rate
Display x,y Chromaticity:
  Red:   0.5898, 0.3447
  Green: 0.3251, 0.5400
  Blue:  0.1503, 0.1445
  White: 0.3134, 0.3291
Established timings supported:
Standard timings supported:
Detailed mode: Clock 74.980 MHz, 293 mm x 164 mm
               1366 1414 1446 1562 hborder 0
                768  771  777  800 vborder 0
               +hsync -vsync 
               VertFreq: 60 Hz, HorFreq: 48002 Hz
Detailed mode: Clock 49.990 MHz, 293 mm x 164 mm
               1366 1414 1446 1562 hborder 0
                768  771  777  800 vborder 0
               +hsync -vsync 
               VertFreq: 40 Hz, HorFreq: 32003 Hz
ASCII string: KK736
Manufacturer-specified data, tag 0
Checksum: 0x13 (valid)
EDID block does NOT conform to EDID 1.4!
	Missing name descriptor
	Missing monitor ranges
	Detailed block string not properly terminated
