edid-decode (hex):

00 ff ff ff ff ff ff 00 30 ae 99 e1 01 00 00 00
2a 20 01 04 a0 3c 22 78 e6 cf 65 ab 53 4b a0 24
0d 50 54 00 00 00 01 01 01 01 01 01 01 01 01 01
01 01 01 01 01 01 60 5e 00 a0 a0 a0 29 50 30 20
35 00 55 50 21 00 00 1e 00 00 00 fc 00 4c 45 4e
2d 4d 39 30 61 34 50 2d 41 43 00 00 00 fd 00 31
4c 45 60 21 00 0a 20 20 20 20 20 20 00 00 00 fe
00 4d 56 32 37 30 51 48 4d 2d 4e 34 30 0a 00 19

00 ff ff ff ff ff ff 00 30 ae 99 e1 01 00 00 00
2a 20 01 04 a0 3c 22 78 e6 cf 65 ab 53 4b a0 24
0d 50 54 00 00 00 01 01 01 01 01 01 01 01 01 01
01 01 01 01 01 01 60 5e 00 a0 a0 a0 29 50 30 20
35 00 55 50 21 00 00 1e 00 00 00 fc 00 4c 45 4e
2d 4d 39 30 61 34 50 2d 41 43 00 00 00 fd 00 31
4c 45 60 21 00 0a 20 20 20 20 20 20 00 00 00 fe
00 4d 56 32 37 30 51 48 4d 2d 4e 34 30 0a 00 19

----------------

Block 0, Base EDID:
  EDID Structure Version & Revision: 1.4
  Vendor & Product Identification:
    Manufacturer: LEN
    Model: 57753
    Serial Number: ...
    Made in: week 42 of 2022
  Basic Display Parameters & Features:
    Digital display
    Bits per primary color channel: 8
    Digital interface is not defined
    Maximum image size: 60 cm x 34 cm
    Gamma: 2.20
    DPMS levels: Standby Suspend Off
    Supported color formats: RGB 4:4:4
    Default (sRGB) color space is primary color space
    First detailed timing includes the native pixel format and preferred refresh rate
  Color Characteristics:
    Red  : 0.6708, 0.3242
    Green: 0.2958, 0.6279
    Blue : 0.1416, 0.0527
    White: 0.3134, 0.3291
  Established Timings I & II: none
  Standard Timings: none
  Detailed Timing Descriptors:
    DTD 1:  2560x1440   59.975374 Hz  16:9     88.824 kHz    241.600000 MHz (597 mm x 336 mm)
                 Hfront   48 Hsync  32 Hback   80 Hpol P
                 Vfront    3 Vsync   5 Vback   33 Vpol P
    Display Product Name: 'LEN-M90a4P-AC'
    Display Range Limits:
      Monitor ranges (GTF): 49-76 Hz V, 69-96 kHz H, max dotclock 330 MHz
    Alphanumeric Data String: 'MV270QHM-N40'
Checksum: 0x19

----------------

Block 1, Unknown EDID Extension Block 0x00:
  00 ff ff ff ff ff ff 00 30 ae 99 e1 01 00 00 00 '........0.......'
  2a 20 01 04 a0 3c 22 78 e6 cf 65 ab 53 4b a0 24 '* ...<"x..e.SK.$'
  0d 50 54 00 00 00 01 01 01 01 01 01 01 01 01 01 '.PT.............'
  01 01 01 01 01 01 60 5e 00 a0 a0 a0 29 50 30 20 '......`^....)P0 '
  35 00 55 50 21 00 00 1e 00 00 00 fc 00 4c 45 4e '5.UP!........LEN'
  2d 4d 39 30 61 34 50 2d 41 43 00 00 00 fd 00 31 '-M90a4P-AC.....1'
  4c 45 60 21 00 0a 20 20 20 20 20 20 00 00 00 fe 'LE`!..      ....'
  00 4d 56 32 37 30 51 48 4d 2d 4e 34 30 0a 00 19 '.MV270QHM-N40...'
Checksum: 0x19

----------------

Warnings:

Block 0, Base EDID:
  Display Range Limits: GTF support is deprecated in EDID 1.4.

Failures:

Block 0, Base EDID:
  Basic Display Parameters & Features: sRGB is signaled, but the chromaticities do not match.
  Display Range Limits: GTF can't be combined with non-continuous frequencies.
Block 1, Base EDID:
  Unknown Extension Block.
EDID:
  Base EDID: EDID specified 0 extension block(s), but found 1 extension block(s).

EDID conformity: FAIL
