
EDID (hex):
00ffffffffffff00320c500000000000
00100103802b1b780ad690a2584d9c25
12505400000001010101010101010101
0101010101017c2e90a0601a1c403020
3600b10f110000190000000000000000
00000000000000000000000000fe004c
475068696c6970734c43440a0000004c
503230315745312d544c41310a20001c

Extracted contents:
header:          00 ff ff ff ff ff ff 00
serial number:   32 0c 50 00 00 00 00 00 00 10
version:         01 03
basic params:    80 2b 1b 78 0a
chroma info:     d6 90 a2 58 4d 9c 25 12 50 54
established:     00 00 00
standard:        01 01 01 01 01 01 01 01 01 01 01 01 01 01 01 01
descriptor 1:    7c 2e 90 a0 60 1a 1c 40 30 20 36 00 b1 0f 11 00 00 19
descriptor 2:    00 00 00 00 00 00 00 00 00 00 00 00 00 00 00 00 00 00
descriptor 3:    00 00 00 fe 00 4c 47 50 68 69 6c 69 70 73 4c 43 44 0a
descriptor 4:    00 00 00 4c 50 32 30 31 57 45 31 2d 54 4c 41 31 0a 20
extensions:      00
checksum:        1c

EDID version: 1.3
Manufacturer: LPL Model 50 Serial Number --
Made in year 2006
Digital display
Maximum image size: 43 cm x 27 cm
Gamma: 2.20
RGB color display
First detailed timing is preferred timing
Display x,y Chromaticity:
  Red:   0.6357, 0.3447
  Green: 0.3017, 0.6113
  Blue:  0.1464, 0.0712
  White: 0.3125, 0.3281
Established timings supported:
Standard timings supported:
Detailed mode: Clock 119.000 MHz, 433 mm x 271 mm
               1680 1728 1760 1840 hborder 0
               1050 1053 1059 1078 vborder 0
               -hsync -vsync 
               VertFreq: 59 Hz, HorFreq: 64673 Hz
Manufacturer-specified data, tag 0
ASCII string: LGPhilipsLCD
Monitor descriptor block has byte 4 nonzero (0x50)
Unknown monitor description type 76
Checksum: 0x1c (valid)
EDID block does NOT conform to EDID 1.3!
	Missing name descriptor
	Missing monitor ranges
	Invalid descriptor block padding
EDID block does not conform at all!
	Detailed blocks filled with garbage
