
EDID (hex):
00ffffffffffff0030e48b0100000000
00120103801f11780a4a059e5b549525
18505400000001010101010101010101
0101010101013e1c56a0500016303020
350036ae100000193e1c56a050001630
3020350036ae10000019000000fe0058
39373648803134305748310a00000000
00ffffffffffffffff01010a20200095

Extracted contents:
header:          00 ff ff ff ff ff ff 00
serial number:   30 e4 8b 01 00 00 00 00 00 12
version:         01 03
basic params:    80 1f 11 78 0a
chroma info:     4a 05 9e 5b 54 95 25 18 50 54
established:     00 00 00
standard:        01 01 01 01 01 01 01 01 01 01 01 01 01 01 01 01
descriptor 1:    3e 1c 56 a0 50 00 16 30 30 20 35 00 36 ae 10 00 00 19
descriptor 2:    3e 1c 56 a0 50 00 16 30 30 20 35 00 36 ae 10 00 00 19
descriptor 3:    00 00 00 fe 00 58 39 37 36 48 80 31 34 30 57 48 31 0a
descriptor 4:    00 00 00 00 00 ff ff ff ff ff ff ff ff 01 01 0a 20 20
extensions:      00
checksum:        95

EDID version: 1.3
Manufacturer: LGD Model 18b Serial Number --
Made in year 2008
Digital display
Maximum image size: 31 cm x 17 cm
Gamma: 2.20
RGB color display
First detailed timing is preferred timing
Display x,y Chromaticity:
  Red:   0.6181, 0.3554
  Green: 0.3300, 0.5839
  Blue:  0.1445, 0.0937
  White: 0.3134, 0.3291
Established timings supported:
Standard timings supported:
Detailed mode: Clock 72.300 MHz, 310 mm x 174 mm
               1366 1414 1446 1526 hborder 0
                768  771  776  790 vborder 0
               -hsync -vsync 
               VertFreq: 59 Hz, HorFreq: 47378 Hz
Detailed mode: Clock 72.300 MHz, 310 mm x 174 mm
               1366 1414 1446 1526 hborder 0
                768  771  776  790 vborder 0
               -hsync -vsync 
               VertFreq: 59 Hz, HorFreq: 47378 Hz
ASCII string: X976H
Manufacturer-specified data, tag 0
Checksum: 0x95 (valid)
EDID block does NOT conform to EDID 1.3!
	Missing name descriptor
	Missing monitor ranges
	Detailed block string not properly terminated
