
EDID (hex):
00ffffffffffff0010ac63f049304b43
261901030e2c1878ea5ab5a35750a126
0d5054a54b00714f8180a9c0d1c00101
010101010101023a801871382d40582c
4500b3ef1000001e000000ff00375656
4631353948434b30490a000000fc0044
454c4c204432303135480a20000000fd
00384c1e5311000a202020202020004a

Extracted contents:
header:          00 ff ff ff ff ff ff 00
serial number:   10 ac 63 f0 49 30 4b 43 26 19
version:         01 03
basic params:    0e 2c 18 78 ea
chroma info:     5a b5 a3 57 50 a1 26 0d 50 54
established:     a5 4b 00
standard:        71 4f 81 80 a9 c0 d1 c0 01 01 01 01 01 01 01 01
descriptor 1:    02 3a 80 18 71 38 2d 40 58 2c 45 00 b3 ef 10 00 00 1e
descriptor 2:    00 00 00 ff 00 37 56 56 46 31 35 39 48 43 4b 30 49 0a
descriptor 3:    00 00 00 fc 00 44 45 4c 4c 20 44 32 30 31 35 48 0a 20
descriptor 4:    00 00 00 fd 00 38 4c 1e 53 11 00 0a 20 20 20 20 20 20
extensions:      00
checksum:        4a

EDID version: 1.3
Manufacturer: DEL Model f063 Serial Number --
Made in week 38 of 2015
Analog display, Input voltage level: 0.7/0.3 V
Sync: Separate Composite SyncOnGreen 
Maximum image size: 44 cm x 24 cm
Gamma: 2.20
DPMS levels: Standby Suspend Off
RGB color display
First detailed timing is preferred timing
Display x,y Chromaticity:
  Red:   0.6376, 0.3408
  Green: 0.3144, 0.6308
  Blue:  0.1503, 0.0537
  White: 0.3134, 0.3291
Established timings supported:
  720x400@70Hz 9:5 HorFreq: 31469 Hz Clock: 28.320 MHz
  640x480@60Hz 4:3 HorFreq: 31469 Hz Clock: 25.175 MHz
  640x480@75Hz 4:3 HorFreq: 37500 Hz Clock: 31.500 MHz
  800x600@60Hz 4:3 HorFreq: 37900 Hz Clock: 40.000 MHz
  800x600@75Hz 4:3 HorFreq: 46900 Hz Clock: 49.500 MHz
  1024x768@60Hz 4:3 HorFreq: 48400 Hz Clock: 65.000 MHz
  1024x768@75Hz 4:3 HorFreq: 60000 Hz Clock: 78.750 MHz
  1280x1024@75Hz 5:4 HorFreq: 80000 Hz Clock: 135.000 MHz
Standard timings supported:
  1152x864@75Hz 4:3 HorFreq: 67500 Hz Clock: 108.000 MHz
  1280x1024@60Hz 5:4 HorFreq: 64000 Hz Clock: 108.000 MHz
  1600x900@60Hz 16:9
  1920x1080@60Hz 16:9
Detailed mode: Clock 148.500 MHz, 435 mm x 239 mm
               1920 2008 2052 2200 hborder 0
               1080 1084 1089 1125 vborder 0
               +hsync +vsync 
               VertFreq: 60 Hz, HorFreq: 67500 Hz
Serial number: --
Monitor name: DELL D2015H
Monitor ranges (GTF): 56-76Hz V, 30-83kHz H, max dotclock 170MHz
Checksum: 0x4a (valid)
