
EDID (hex):
00ffffffffffff001e6d8d5b90200000
021f0103803d2478fa4395aa544e9e26
0f5054254b00317c457c617c818081bc
d1fc01010101f6db80a0703830403020
3a00582f2100001a023a801871382d40
582c4500132a2100001e000000fd0030
f01eff3c000a202020202020000000fc
003237474e370a202020202020200126
020344f1230907074d100403011f1312
3f5d5e5f60616d030c002000b8782000
6001020367d85dc401788003e30f000c
e305c000e6060501605928681a000001
0130f000df8880a070385a4030203500
55502100001eb49100a050c078303020
3400555021000018000000ff00313032
4e54414230383333360a000000000008

Extracted contents:
header:          00 ff ff ff ff ff ff 00
serial number:   1e 6d 8d 5b 90 20 00 00 02 1f
version:         01 03
basic params:    80 3d 24 78 fa
chroma info:     43 95 aa 54 4e 9e 26 0f 50 54
established:     25 4b 00
standard:        31 7c 45 7c 61 7c 81 80 81 bc d1 fc 01 01 01 01
descriptor 1:    f6 db 80 a0 70 38 30 40 30 20 3a 00 58 2f 21 00 00 1a
descriptor 2:    02 3a 80 18 71 38 2d 40 58 2c 45 00 13 2a 21 00 00 1e
descriptor 3:    00 00 00 fd 00 30 f0 1e ff 3c 00 0a 20 20 20 20 20 20
descriptor 4:    00 00 00 fc 00 32 37 47 4e 37 0a 20 20 20 20 20 20 20
extensions:      01
checksum:        26

EDID version: 1.3
Manufacturer: GSM Model 5b8d Serial Number --
Made in week 2 of 2021
Digital display
Maximum image size: 61 cm x 36 cm
Gamma: 2.20
DPMS levels: Standby Suspend Off
Undefined display color type
First detailed timing is preferred timing
Display x,y Chromaticity:
  Red:   0.6650, 0.3281
  Green: 0.3046, 0.6201
  Blue:  0.1503, 0.0595
  White: 0.3134, 0.3291
Established timings supported:
  640x480@60Hz 4:3 HorFreq: 31469 Hz Clock: 25.175 MHz
  640x480@75Hz 4:3 HorFreq: 37500 Hz Clock: 31.500 MHz
  800x600@60Hz 4:3 HorFreq: 37900 Hz Clock: 40.000 MHz
  800x600@75Hz 4:3 HorFreq: 46900 Hz Clock: 49.500 MHz
  1024x768@60Hz 4:3 HorFreq: 48400 Hz Clock: 65.000 MHz
  1024x768@75Hz 4:3 HorFreq: 60000 Hz Clock: 78.750 MHz
  1280x1024@75Hz 5:4 HorFreq: 80000 Hz Clock: 135.000 MHz
Standard timings supported:
  640x480@120Hz 4:3
  800x600@120Hz 4:3
  1024x768@120Hz 4:3
  1280x1024@60Hz 5:4 HorFreq: 64000 Hz Clock: 108.000 MHz
  1280x1024@120Hz 5:4
  1920x1080@120Hz 16:9
Detailed mode: Clock 563.100 MHz, 600 mm x 303 mm
               1920 1968 2000 2080 hborder 0
               1080 1083 1093 1128 vborder 0
               +hsync -vsync 
               VertFreq: 240 Hz, HorFreq: 270721 Hz
Detailed mode: Clock 148.500 MHz, 531 mm x 298 mm
               1920 2008 2052 2200 hborder 0
               1080 1084 1089 1125 vborder 0
               +hsync +vsync 
               VertFreq: 60 Hz, HorFreq: 67500 Hz
Monitor ranges (GTF): 48-240Hz V, 30-255kHz H, max dotclock 600MHz
Monitor name: 27GN7
Has 1 extension blocks
Checksum: 0x26 (valid)

CTA extension block
Extension version: 3
64 bytes of CTA data
  Audio data block
    Linear PCM, max channels 2
      Supported sample rates (kHz): 48 44.1 32
      Supported sample sizes (bits): 24 20 16
  Video data block
    VIC  16 1920x1080@60Hz 16:9  HorFreq: 67500 Hz Clock: 148.500 MHz
    VIC   4 1280x720@60Hz 16:9  HorFreq: 45000 Hz Clock: 74.250 MHz
    VIC   3 720x480@60Hz 16:9  HorFreq: 31469 Hz Clock: 27.000 MHz
    VIC   1 640x480@60Hz 4:3  HorFreq: 31469 Hz Clock: 25.175 MHz
    VIC  31 1920x1080@50Hz 16:9  HorFreq: 56250 Hz Clock: 148.500 MHz
    VIC  19 1280x720@50Hz 16:9  HorFreq: 37500 Hz Clock: 74.250 MHz
    VIC  18 720x576@50Hz 16:9  HorFreq: 31250 Hz Clock: 27.000 MHz
    VIC  63 1920x1080@120Hz 16:9  HorFreq: 135000 Hz Clock: 297.000 MHz
    VIC  93 3840x2160@24Hz 16:9  HorFreq: 54000 Hz Clock: 297.000 MHz
    VIC  94 3840x2160@25Hz 16:9  HorFreq: 56250 Hz Clock: 297.000 MHz
    VIC  95 3840x2160@30Hz 16:9  HorFreq: 67500 Hz Clock: 297.000 MHz
    VIC  96 3840x2160@50Hz 16:9  HorFreq: 112500 Hz Clock: 594.000 MHz
    VIC  97 3840x2160@60Hz 16:9  HorFreq: 135000 Hz Clock: 594.000 MHz
  Vendor-specific data block, OUI 000c03 (HDMI)
    Source physical address 2.0.0.0
    Supports_AI
    DC_36bit
    DC_30bit
    DC_Y444
    Maximum TMDS clock: 600MHz
    Extended HDMI video details:
      HDMI VIC 1 3840x2160@30Hz 16:9 HorFreq: 67500 Hz Clock: 297.000 MHz
      HDMI VIC 2 3840x2160@25Hz 16:9 HorFreq: 56250 Hz Clock: 297.000 MHz
      HDMI VIC 3 3840x2160@24Hz 16:9 HorFreq: 54000 Hz Clock: 297.000 MHz
  Vendor-specific data block, OUI c45dd8 (HDMI Forum)
    Version: 1
    Maximum TMDS Character Rate: 600MHz
    SCDC Present
    Supports 12-bits/component Deep Color 4:2:0 Pixel Encoding
    Supports 10-bits/component Deep Color 4:2:0 Pixel Encoding
  Extended tag: YCbCr 4:2:0 capability map data block
    VSD Index 10
    VSD Index 11
  Extended tag: Colorimetry data block
    BT2020YCC
    BT2020RGB
  Extended tag: HDR static metadata data block
    Electro optical transfer functions:
      Traditional gamma - SDR luminance range
      SMPTE ST2084
    Supported static metadata descriptors:
      Static metadata type 1
    Desired content max luminance: 96 (400.000 cd/m^2)
    Desired content max frame-average luminance: 89 (343.724 cd/m^2)
    Desired content min luminance: 40 (0.098 cd/m^2)
  Vendor-specific data block, OUI 00001a
Underscans PC formats by default
Basic audio support
Supports YCbCr 4:4:4
Supports YCbCr 4:2:2
1 native detailed modes
Detailed mode: Clock 350.390 MHz, 597 mm x 336 mm
               1920 1968 2000 2080 hborder 0
               1080 1083 1088 1170 vborder 0
               +hsync +vsync 
               VertFreq: 143 Hz, HorFreq: 168456 Hz
Detailed mode: Clock 373.000 MHz, 597 mm x 336 mm
               1280 1328 1360 1440 hborder 0
                960  963  967 1080 vborder 0
               -hsync -vsync 
               VertFreq: 239 Hz, HorFreq: 259027 Hz
Checksum: 0x8 (valid)

EDID block does NOT conform to EDID 1.3!
	HDMI VSDB Max TMDS rate is > 340
One or more of the timings is out of range of the Monitor Ranges:
  Vertical Freq: 24 - 240 Hz
  Horizontal Freq: 31250 - 270721 Hz
  Maximum Clock: 594.000 MHz
