
EDID (hex):
00ffffffffffff0009e5e40600000000
011a0104951a0e780a7d709e5b579e27
19505400000001010101010101010101
0101010101013e1c56a0500016303020
360000901000001a9a1656a050001630
3020360000901000001a000000fe0031
52484e39804e56313136343300000000
00004101940110000009010a202000b0

Extracted contents:
header:          00 ff ff ff ff ff ff 00
serial number:   09 e5 e4 06 00 00 00 00 01 1a
version:         01 04
basic params:    95 1a 0e 78 0a
chroma info:     7d 70 9e 5b 57 9e 27 19 50 54
established:     00 00 00
standard:        01 01 01 01 01 01 01 01 01 01 01 01 01 01 01 01
descriptor 1:    3e 1c 56 a0 50 00 16 30 30 20 36 00 00 90 10 00 00 1a
descriptor 2:    9a 16 56 a0 50 00 16 30 30 20 36 00 00 90 10 00 00 1a
descriptor 3:    00 00 00 fe 00 31 52 48 4e 39 80 4e 56 31 31 36 34 33
descriptor 4:    00 00 00 00 00 00 41 01 94 01 10 00 00 09 01 0a 20 20
extensions:      00
checksum:        b0

EDID version: 1.4
Manufacturer: BOE Model 6e4 Serial Number --
Made in week 1 of 2016
Digital display
6 bits per primary color channel
DisplayPort interface
Maximum image size: 26 cm x 14 cm
Gamma: 2.20
Supported color formats: RGB 4:4:4, YCrCb 4:4:4
First detailed timing includes the native pixel format and preferred refresh rate
Display x,y Chromaticity:
  Red:   0.6181, 0.3583
  Green: 0.3427, 0.6181
  Blue:  0.1533, 0.1005
  White: 0.3125, 0.3281
Established timings supported:
Standard timings supported:
Detailed mode: Clock 72.300 MHz, 256 mm x 144 mm
               1366 1414 1446 1526 hborder 0
                768  771  777  790 vborder 0
               +hsync -vsync 
               VertFreq: 59 Hz, HorFreq: 47378 Hz
Detailed mode: Clock 57.860 MHz, 256 mm x 144 mm
               1366 1414 1446 1526 hborder 0
                768  771  777  790 vborder 0
               +hsync -vsync 
               VertFreq: 47 Hz, HorFreq: 37916 Hz
ASCII string: 1RHN9
Manufacturer-specified data, tag 0
Checksum: 0xb0 (valid)
EDID block does NOT conform to EDID 1.4!
	Missing name descriptor
	Missing monitor ranges
	Detailed block string not properly terminated
