
EDID (hex):
00ffffffffffff001e55484401000000
0115010378522e78efd46ca357499c25
19484b27cf808100810f81408180818f
8b009040a940944380907238284048c8
05481060a400001c000000fd00393f41
4411000a202020202020000000ff0057
555847413835415f30303031000000fc
004752554e4449470a20202020200096

Extracted contents:
header:          00 ff ff ff ff ff ff 00
serial number:   1e 55 48 44 01 00 00 00 01 15
version:         01 03
basic params:    78 52 2e 78 ef
chroma info:     d4 6c a3 57 49 9c 25 19 48 4b
established:     27 cf 80
standard:        81 00 81 0f 81 40 81 80 81 8f 8b 00 90 40 a9 40
descriptor 1:    94 43 80 90 72 38 28 40 48 c8 05 48 10 60 a4 00 00 1c
descriptor 2:    00 00 00 fd 00 39 3f 41 44 11 00 0a 20 20 20 20 20 20
descriptor 3:    00 00 00 ff 00 57 55 58 47 41 38 35 41 5f 30 30 30 31
descriptor 4:    00 00 00 fc 00 47 52 55 4e 44 49 47 0a 20 20 20 20 20
extensions:      00
checksum:        96

EDID version: 1.3
Manufacturer: GRU Model 4448 Serial Number --
Made in week 1 of 2011
Analog display, Input voltage level: 0.7/0.7 V
Configurable signal levels
Sync: Separate 
Maximum image size: 82 cm x 46 cm
Gamma: 2.20
DPMS levels: Standby Suspend Off
RGB color display
Default (sRGB) color space is primary color space
First detailed timing is preferred timing
Supports GTF timings within operating range
Display x,y Chromaticity:
  Red:   0.6396, 0.3408
  Green: 0.2861, 0.6093
  Blue:  0.1455, 0.0996
  White: 0.2841, 0.2929
Established timings supported:
  640x480@60Hz 4:3 HorFreq: 31469 Hz Clock: 25.175 MHz
  640x480@75Hz 4:3 HorFreq: 37500 Hz Clock: 31.500 MHz
  800x600@56Hz 4:3 HorFreq: 35200 Hz Clock: 36.000 MHz
  800x600@60Hz 4:3 HorFreq: 37900 Hz Clock: 40.000 MHz
  800x600@72Hz 4:3 HorFreq: 48100 Hz Clock: 50.000 MHz
  800x600@75Hz 4:3 HorFreq: 46900 Hz Clock: 49.500 MHz
  1024x768@60Hz 4:3 HorFreq: 48400 Hz Clock: 65.000 MHz
  1024x768@70Hz 4:3 HorFreq: 56500 Hz Clock: 75.000 MHz
  1024x768@75Hz 4:3 HorFreq: 60000 Hz Clock: 78.750 MHz
  1280x1024@75Hz 5:4 HorFreq: 80000 Hz Clock: 135.000 MHz
  1152x870@75Hz 192:145 HorFreq: 67500 Hz Clock: 108.000 MHz
Standard timings supported:
  1280x800@60Hz 16:10
  1280x800@75Hz 16:10
  1280x960@60Hz 4:3 HorFreq: 60000 Hz Clock: 108.000 MHz
  1280x1024@60Hz 5:4 HorFreq: 64000 Hz Clock: 108.000 MHz
  1280x1024@75Hz 5:4 HorFreq: 80000 Hz Clock: 135.000 MHz
  1360x850@60Hz 16:10
  1400x1050@60Hz 4:3 HorFreq: 64700 Hz Clock: 101.000 MHz
  1600x1200@60Hz 4:3 HorFreq: 75000 Hz Clock: 162.000 MHz
Detailed mode: Clock 173.000 MHz, 2576 mm x 1120 mm
               1920 2248 2448 2576 hborder 0
               1080 1112 1117 1120 vborder 0
               -hsync +vsync 
               VertFreq: 59 Hz, HorFreq: 67158 Hz
Monitor ranges (GTF): 57-63Hz V, 65-68kHz H, max dotclock 170MHz
Serial number: --
Monitor name: GRUNDIG
Checksum: 0x96 (valid)
EDID block does NOT conform to EDID 1.3!
	sRGB is signaled, but the chromaticities do not match
One or more of the timings is out of range of the Monitor Ranges:
  Vertical Freq: 56 - 75 Hz
  Horizontal Freq: 31469 - 80000 Hz
  Maximum Clock: 173.000 MHz
