
EDID (hex):
00ffffffffffff001e55484401000000
0115010378522e78efd46ca357499c25
19484b27cf80950081408180818f9040
a940010101018b2156aa51001e30468f
3300a05a0000001e0e1f008051001e30
c0804704a05a0000001c000000fd0039
4c414411000a202020202020000000fc
004752554e44494720575847410a005c

Extracted contents:
header:          00 ff ff ff ff ff ff 00
serial number:   1e 55 48 44 01 00 00 00 01 15
version:         01 03
basic params:    78 52 2e 78 ef
chroma info:     d4 6c a3 57 49 9c 25 19 48 4b
established:     27 cf 80
standard:        95 00 81 40 81 80 81 8f 90 40 a9 40 01 01 01 01
descriptor 1:    8b 21 56 aa 51 00 1e 30 46 8f 33 00 a0 5a 00 00 00 1e
descriptor 2:    0e 1f 00 80 51 00 1e 30 c0 80 47 04 a0 5a 00 00 00 1c
descriptor 3:    00 00 00 fd 00 39 4c 41 44 11 00 0a 20 20 20 20 20 20
descriptor 4:    00 00 00 fc 00 47 52 55 4e 44 49 47 20 57 58 47 41 0a
extensions:      00
checksum:        5c

EDID version: 1.3
Manufacturer: GRU Model 4448 Serial Number --
Made in week 1 of 2011
Analog display, Input voltage level: 0.7/0.7 V
Configurable signal levels
Sync: Separate 
Maximum image size: 82 cm x 46 cm
Gamma: 2.20
DPMS levels: Standby Suspend Off
RGB color display
Default (sRGB) color space is primary color space
First detailed timing is preferred timing
Supports GTF timings within operating range
Display x,y Chromaticity:
  Red:   0.6396, 0.3408
  Green: 0.2861, 0.6093
  Blue:  0.1455, 0.0996
  White: 0.2841, 0.2929
Established timings supported:
  640x480@60Hz 4:3 HorFreq: 31469 Hz Clock: 25.175 MHz
  640x480@75Hz 4:3 HorFreq: 37500 Hz Clock: 31.500 MHz
  800x600@56Hz 4:3 HorFreq: 35200 Hz Clock: 36.000 MHz
  800x600@60Hz 4:3 HorFreq: 37900 Hz Clock: 40.000 MHz
  800x600@72Hz 4:3 HorFreq: 48100 Hz Clock: 50.000 MHz
  800x600@75Hz 4:3 HorFreq: 46900 Hz Clock: 49.500 MHz
  1024x768@60Hz 4:3 HorFreq: 48400 Hz Clock: 65.000 MHz
  1024x768@70Hz 4:3 HorFreq: 56500 Hz Clock: 75.000 MHz
  1024x768@75Hz 4:3 HorFreq: 60000 Hz Clock: 78.750 MHz
  1280x1024@75Hz 5:4 HorFreq: 80000 Hz Clock: 135.000 MHz
  1152x870@75Hz 192:145 HorFreq: 67500 Hz Clock: 108.000 MHz
Standard timings supported:
  1440x900@60Hz 16:10 HorFreq: 55500 Hz Clock: 88.750 MHz
  1280x960@60Hz 4:3 HorFreq: 60000 Hz Clock: 108.000 MHz
  1280x1024@60Hz 5:4 HorFreq: 64000 Hz Clock: 108.000 MHz
  1280x1024@75Hz 5:4 HorFreq: 80000 Hz Clock: 135.000 MHz
  1400x1050@60Hz 4:3 HorFreq: 64700 Hz Clock: 101.000 MHz
  1600x1200@60Hz 4:3 HorFreq: 75000 Hz Clock: 162.000 MHz
Detailed mode: Clock 85.870 MHz, 160 mm x 90 mm
               1366 1436 1579 1792 hborder 0
                768  771  774  798 vborder 0
               +hsync +vsync 
               VertFreq: 60 Hz, HorFreq: 47918 Hz
Detailed mode: Clock 79.500 MHz, 160 mm x 90 mm
               1280 1472 1600 1664 hborder 0
                768  788  795  798 vborder 0
               -hsync +vsync 
               VertFreq: 59 Hz, HorFreq: 47776 Hz
Monitor ranges (GTF): 57-76Hz V, 65-68kHz H, max dotclock 170MHz
Monitor name: GRUNDIG WXGA
Checksum: 0x5c (valid)
EDID block does NOT conform to EDID 1.3!
	sRGB is signaled, but the chromaticities do not match
One or more of the timings is out of range of the Monitor Ranges:
  Vertical Freq: 56 - 75 Hz
  Horizontal Freq: 31469 - 80000 Hz
  Maximum Clock: 162.000 MHz
