
EDID (hex):
00ffffffffffff001ab38108def50100
1d1a010380301b782a4d45a556519f27
0e5054a54b0081c081809500b300d1c0
010101010101023a801871382d40582c
4500dc0c1100001e000000fd00384c1e
5211000a202020202020000000fc0042
3232542d372050726f0a2020000000ff
00595639563132383437380a2020007d

Extracted contents:
header:          00 ff ff ff ff ff ff 00
serial number:   1a b3 81 08 de f5 01 00 1d 1a
version:         01 03
basic params:    80 30 1b 78 2a
chroma info:     4d 45 a5 56 51 9f 27 0e 50 54
established:     a5 4b 00
standard:        81 c0 81 80 95 00 b3 00 d1 c0 01 01 01 01 01 01
descriptor 1:    02 3a 80 18 71 38 2d 40 58 2c 45 00 dc 0c 11 00 00 1e
descriptor 2:    00 00 00 fd 00 38 4c 1e 52 11 00 0a 20 20 20 20 20 20
descriptor 3:    00 00 00 fc 00 42 32 32 54 2d 37 20 50 72 6f 0a 20 20
descriptor 4:    00 00 00 ff 00 59 56 39 56 31 32 38 34 37 38 0a 20 20
extensions:      00
checksum:        7d

EDID version: 1.3
Manufacturer: FUS Model 881 Serial Number --
Made in week 29 of 2016
Digital display
Maximum image size: 48 cm x 27 cm
Gamma: 2.20
DPMS levels: Off
RGB color display
First detailed timing is preferred timing
Display x,y Chromaticity:
  Red:   0.6455, 0.3359
  Green: 0.3193, 0.6220
  Blue:  0.1533, 0.0546
  White: 0.3134, 0.3291
Established timings supported:
  720x400@70Hz 9:5 HorFreq: 31469 Hz Clock: 28.320 MHz
  640x480@60Hz 4:3 HorFreq: 31469 Hz Clock: 25.175 MHz
  640x480@75Hz 4:3 HorFreq: 37500 Hz Clock: 31.500 MHz
  800x600@60Hz 4:3 HorFreq: 37900 Hz Clock: 40.000 MHz
  800x600@75Hz 4:3 HorFreq: 46900 Hz Clock: 49.500 MHz
  1024x768@60Hz 4:3 HorFreq: 48400 Hz Clock: 65.000 MHz
  1024x768@75Hz 4:3 HorFreq: 60000 Hz Clock: 78.750 MHz
  1280x1024@75Hz 5:4 HorFreq: 80000 Hz Clock: 135.000 MHz
Standard timings supported:
  1280x720@60Hz 16:9
  1280x1024@60Hz 5:4 HorFreq: 64000 Hz Clock: 108.000 MHz
  1440x900@60Hz 16:10 HorFreq: 55500 Hz Clock: 88.750 MHz
  1680x1050@60Hz 16:10 HorFreq: 64700 Hz Clock: 119.000 MHz
  1920x1080@60Hz 16:9
Detailed mode: Clock 148.500 MHz, 476 mm x 268 mm
               1920 2008 2052 2200 hborder 0
               1080 1084 1089 1125 vborder 0
               +hsync +vsync 
               VertFreq: 60 Hz, HorFreq: 67500 Hz
Monitor ranges (GTF): 56-76Hz V, 30-82kHz H, max dotclock 170MHz
Monitor name: B22T-7 Pro
Serial number: --
Checksum: 0x7d (valid)
