edid-decode (hex):

00 ff ff ff ff ff ff 00 51 f3 8b 50 00 00 00 00
00 00 01 03 80 24 16 00 ca 00 00 00 00 00 00 00
00 00 00 00 00 00 01 01 01 01 01 01 01 01 01 01
01 01 01 01 01 01 9f 25 a0 40 51 84 0c 30 40 20
33 00 6f e5 10 00 00 18 00 00 00 fc 00 54 4f 53
48 49 42 41 20 49 6e 74 65 0a 00 00 00 fc 00 72
6e 61 6c 20 50 61 6e 65 6c 20 20 0a 00 00 00 fc
00 0a 00 00 00 00 00 00 00 00 00 00 00 00 00 c2

----------------

Block 0, Base EDID:
  EDID Structure Version & Revision: 1.3
  Vendor & Product Identification:
    Manufacturer: TOS
    Model: 20619
    Made in: 1990
  Basic Display Parameters & Features:
    Digital display
    Maximum image size: 36 cm x 22 cm
    Gamma: 1.00
    DPMS levels: Standby Suspend
    RGB color display
    First detailed timing is the preferred timing
  Color Characteristics:
    Red  : 0.0000, 0.0000
    Green: 0.0000, 0.0000
    Blue : 0.0000, 0.0000
    White: 0.0000, 0.0000
  Established Timings I & II: none
  Standard Timings: none
  Detailed Timing Descriptors:
    DTD 1:  1440x900    60.001744 Hz  16:10    54.722 kHz     96.310000 MHz (367 mm x 229 mm)
                 Hfront   64 Hsync  32 Hback  224 Hpol N
                 Vfront    3 Vsync   3 Vback    6 Vpol N
    Display Product Name: 'TOSHIBA Inte'
    Display Product Name: 'rnal Panel  '
    Display Product Name: ''
Checksum: 0xc2

----------------

Failures:

Block 0, Base EDID:
  Display Product Name: One or more trailing spaces.
  Display Product Name: Empty string.
  Display Product Name: Non-space after newline.
  Missing Display Range Limits Descriptor.

EDID conformity: FAIL
