
EDID (hex):
00ffffffffffff003438700701010101
030e01031f261e782e5e05a4594a9826
205054bfef00614c8180814001010101
010101010101bc34009851002a401090
1300782d1100001e000000fd00324c14
530e000a202020202020000000fe0030
33414630313130303035360a000000fc
003130313931302020202020200a00b9

Extracted contents:
header:          00 ff ff ff ff ff ff 00
serial number:   34 38 70 07 01 01 01 01 03 0e
version:         01 03
basic params:    1f 26 1e 78 2e
chroma info:     5e 05 a4 59 4a 98 26 20 50 54
established:     bf ef 00
standard:        61 4c 81 80 81 40 01 01 01 01 01 01 01 01 01 01
descriptor 1:    bc 34 00 98 51 00 2a 40 10 90 13 00 78 2d 11 00 00 1e
descriptor 2:    00 00 00 fd 00 32 4c 14 53 0e 00 0a 20 20 20 20 20 20
descriptor 3:    00 00 00 fe 00 30 33 41 46 30 31 31 30 30 30 35 36 0a
descriptor 4:    00 00 00 fc 00 31 30 31 39 31 30 20 20 20 20 20 20 0a
extensions:      00
checksum:        b9

EDID version: 1.3
Manufacturer: MAX Model 770 Serial Number --
Analog display, Input voltage level: 0.7/0.3 V
Configurable signal levels
Sync: Separate Composite SyncOnGreen Serration 
Maximum image size: 38 cm x 30 cm
Gamma: 2.20
DPMS levels: Off
RGB color display
Default (sRGB) color space is primary color space
First detailed timing is preferred timing
Display x,y Chromaticity:
  Red:   0.6416, 0.3486
  Green: 0.2919, 0.5957
  Blue:  0.1484, 0.1250
  White: 0.3134, 0.3291
Established timings supported:
  720x400@70Hz 9:5 HorFreq: 31469 Hz Clock: 28.320 MHz
  640x480@60Hz 4:3 HorFreq: 31469 Hz Clock: 25.175 MHz
  640x480@67Hz 4:3 HorFreq: 35000 Hz Clock: 30.240 MHz
  640x480@72Hz 4:3 HorFreq: 37900 Hz Clock: 31.500 MHz
  640x480@75Hz 4:3 HorFreq: 37500 Hz Clock: 31.500 MHz
  800x600@56Hz 4:3 HorFreq: 35200 Hz Clock: 36.000 MHz
  800x600@60Hz 4:3 HorFreq: 37900 Hz Clock: 40.000 MHz
  800x600@72Hz 4:3 HorFreq: 48100 Hz Clock: 50.000 MHz
  800x600@75Hz 4:3 HorFreq: 46900 Hz Clock: 49.500 MHz
  832x624@75Hz 4:3 HorFreq: 49726 Hz Clock: 57.284 MHz
  1024x768@60Hz 4:3 HorFreq: 48400 Hz Clock: 65.000 MHz
  1024x768@70Hz 4:3 HorFreq: 56500 Hz Clock: 75.000 MHz
  1024x768@75Hz 4:3 HorFreq: 60000 Hz Clock: 78.750 MHz
  1280x1024@75Hz 5:4 HorFreq: 80000 Hz Clock: 135.000 MHz
Standard timings supported:
  1024x768@72Hz 4:3
  1280x1024@60Hz 5:4 HorFreq: 64000 Hz Clock: 108.000 MHz
  1280x960@60Hz 4:3 HorFreq: 60000 Hz Clock: 108.000 MHz
Detailed mode: Clock 135.000 MHz, 376 mm x 301 mm
               1280 1296 1440 1688 hborder 0
               1024 1025 1028 1066 vborder 0
               +hsync +vsync 
               VertFreq: 75 Hz, HorFreq: 79976 Hz
Monitor ranges (GTF): 50-76Hz V, 20-83kHz H, max dotclock 140MHz
ASCII string: 03AF01100056
Monitor name: 101910      
Checksum: 0xb9 (valid)
EDID block does NOT conform to EDID 1.3!
	sRGB is signaled, but the chromaticities do not match
EDID block does not conform at all!
	Bad year of manufacture
