edid-decode (hex):

00 ff ff ff ff ff ff 00 4e 84 24 20 00 00 00 00
10 22 01 03 08 21 15 78 0a d7 a5 a2 59 4a 96 24
14 50 54 ad ca 00 81 c0 01 01 01 01 01 01 01 01
01 01 01 01 01 01 b8 20 00 90 51 20 1f 30 48 80
36 00 10 0a 00 00 00 1c 0e 1f 00 80 51 00 1e 30
40 80 37 00 10 09 00 00 00 1c 00 00 00 fd 00 32
4c 1e 50 10 00 0a 20 20 20 20 20 20 00 00 00 fc
00 56 47 41 0a 20 20 20 20 20 20 20 20 20 00 66

00 ff ff ff ff ff ff 00 4e 84 24 20 00 00 00 00
10 22 01 03 08 21 15 78 0a d7 a5 a2 59 4a 96 24
14 50 54 ad ca 00 81 c0 01 01 01 01 01 01 01 01
01 01 01 01 01 01 b8 20 00 90 51 20 1f 30 48 80
36 00 10 0a 00 00 00 1c 0e 1f 00 80 51 00 1e 30
40 80 37 00 10 09 00 00 00 1c 00 00 00 fd 00 32
4c 1e 50 10 00 0a 20 20 20 20 20 20 00 00 00 fc
00 56 47 41 0a 20 20 20 20 20 20 20 20 20 00 66

----------------

Block 0, Base EDID:
  EDID Structure Version & Revision: 1.3
  Vendor & Product Identification:
    Manufacturer: STD
    Model: 8228
    Made in: week 16 of 2024
  Basic Display Parameters & Features:
    Analog display
    Signal Level Standard: 0.700 : 0.300 : 1.000 V p-p
    Blank level equals black level
    Sync: Separate
    Maximum image size: 33 cm x 21 cm
    Gamma: 2.20
    RGB color display
    First detailed timing is the preferred timing
  Color Characteristics:
    Red  : 0.6357, 0.3486
    Green: 0.2900, 0.5888
    Blue : 0.1425, 0.0800
    White: 0.3134, 0.3291
  Established Timings I & II:
    IBM     :   720x400    70.081663 Hz   9:5     31.467 kHz     28.320000 MHz
    DMT 0x04:   640x480    59.940476 Hz   4:3     31.469 kHz     25.175000 MHz
    DMT 0x05:   640x480    72.808802 Hz   4:3     37.861 kHz     31.500000 MHz
    DMT 0x06:   640x480    75.000000 Hz   4:3     37.500 kHz     31.500000 MHz
    DMT 0x09:   800x600    60.316541 Hz   4:3     37.879 kHz     40.000000 MHz
    DMT 0x0a:   800x600    72.187572 Hz   4:3     48.077 kHz     50.000000 MHz
    DMT 0x0b:   800x600    75.000000 Hz   4:3     46.875 kHz     49.500000 MHz
    DMT 0x10:  1024x768    60.003840 Hz   4:3     48.363 kHz     65.000000 MHz
    DMT 0x12:  1024x768    75.028582 Hz   4:3     60.023 kHz     78.750000 MHz
  Standard Timings:
    DMT 0x55:  1280x720    60.000000 Hz  16:9     45.000 kHz     74.250000 MHz
  Detailed Timing Descriptors:
    DTD 1:  1280x800    59.996562 Hz  16:10    49.857 kHz     83.760000 MHz (16 mm x 10 mm)
                 Hfront   72 Hsync 128 Hback  200 Hpol N
                 Vfront    3 Vsync   6 Vback   22 Vpol P
    DTD 2:  1280x768    59.870228 Hz   5:3     47.776 kHz     79.500000 MHz (16 mm x 9 mm)
                 Hfront   64 Hsync 128 Hback  192 Hpol N
                 Vfront    3 Vsync   7 Vback   20 Vpol P
    Display Range Limits:
      Monitor ranges (GTF): 50-76 Hz V, 30-80 kHz H, max dotclock 160 MHz
    Display Product Name: 'VGA'
Checksum: 0x66

----------------

Block 1, Unknown EDID Extension Block 0x00:
  00 ff ff ff ff ff ff 00 4e 84 24 20 00 00 00 00 '........N.$ ....'
  10 22 01 03 08 21 15 78 0a d7 a5 a2 59 4a 96 24 '."...!.x....YJ.$'
  14 50 54 ad ca 00 81 c0 01 01 01 01 01 01 01 01 '.PT.............'
  01 01 01 01 01 01 b8 20 00 90 51 20 1f 30 48 80 '....... ..Q .0H.'
  36 00 10 0a 00 00 00 1c 0e 1f 00 80 51 00 1e 30 '6...........Q..0'
  40 80 37 00 10 09 00 00 00 1c 00 00 00 fd 00 32 '@.7............2'
  4c 1e 50 10 00 0a 20 20 20 20 20 20 00 00 00 fc 'L.P...      ....'
  00 56 47 41 0a 20 20 20 20 20 20 20 20 20 00 66 '.VGA.         .f'
Checksum: 0x66

----------------

Failures:

Block 0, Base EDID:
  Detailed Timing Descriptor #1: Mismatch of image size 16x10 mm vs display size 330x210 mm.
  Detailed Timing Descriptor #2: Mismatch of image size 16x9 mm vs display size 330x210 mm.
Block 1, Base EDID:
  Unknown Extension Block.
EDID:
  Base EDID: EDID specified 0 extension block(s), but found 1 extension block(s).

EDID conformity: FAIL
