
EDID (hex):
00ffffffffffff0025e4851601010101
1914010380301b782e3142a6564a9a24
125054bfef0081408180b30095000101
010101010101023a801871382d40582c
4500dc0c1100001e000000fd00374b18
530f000a202020202020000000ff0047
31543730313434373535340a000000fc
004c43442d4d46323231580a202000d2

Extracted contents:
header:          00 ff ff ff ff ff ff 00
serial number:   25 e4 85 16 01 01 01 01 19 14
version:         01 03
basic params:    80 30 1b 78 2e
chroma info:     31 42 a6 56 4a 9a 24 12 50 54
established:     bf ef 00
standard:        81 40 81 80 b3 00 95 00 01 01 01 01 01 01 01 01
descriptor 1:    02 3a 80 18 71 38 2d 40 58 2c 45 00 dc 0c 11 00 00 1e
descriptor 2:    00 00 00 fd 00 37 4b 18 53 0f 00 0a 20 20 20 20 20 20
descriptor 3:    00 00 00 ff 00 47 31 54 37 30 31 34 34 37 35 35 34 0a
descriptor 4:    00 00 00 fc 00 4c 43 44 2d 4d 46 32 32 31 58 0a 20 20
extensions:      00
checksum:        d2

EDID version: 1.3
Manufacturer: IOD Model 1685 Serial Number --
Made in week 25 of 2010
Digital display
Maximum image size: 48 cm x 27 cm
Gamma: 2.20
DPMS levels: Off
RGB color display
Default (sRGB) color space is primary color space
First detailed timing is preferred timing
Display x,y Chromaticity:
  Red:   0.6484, 0.3388
  Green: 0.2890, 0.6025
  Blue:  0.1416, 0.0703
  White: 0.3125, 0.3300
Established timings supported:
  720x400@70Hz 9:5 HorFreq: 31469 Hz Clock: 28.320 MHz
  640x480@60Hz 4:3 HorFreq: 31469 Hz Clock: 25.175 MHz
  640x480@67Hz 4:3 HorFreq: 35000 Hz Clock: 30.240 MHz
  640x480@72Hz 4:3 HorFreq: 37900 Hz Clock: 31.500 MHz
  640x480@75Hz 4:3 HorFreq: 37500 Hz Clock: 31.500 MHz
  800x600@56Hz 4:3 HorFreq: 35200 Hz Clock: 36.000 MHz
  800x600@60Hz 4:3 HorFreq: 37900 Hz Clock: 40.000 MHz
  800x600@72Hz 4:3 HorFreq: 48100 Hz Clock: 50.000 MHz
  800x600@75Hz 4:3 HorFreq: 46900 Hz Clock: 49.500 MHz
  832x624@75Hz 4:3 HorFreq: 49726 Hz Clock: 57.284 MHz
  1024x768@60Hz 4:3 HorFreq: 48400 Hz Clock: 65.000 MHz
  1024x768@70Hz 4:3 HorFreq: 56500 Hz Clock: 75.000 MHz
  1024x768@75Hz 4:3 HorFreq: 60000 Hz Clock: 78.750 MHz
  1280x1024@75Hz 5:4 HorFreq: 80000 Hz Clock: 135.000 MHz
Standard timings supported:
  1280x960@60Hz 4:3 HorFreq: 60000 Hz Clock: 108.000 MHz
  1280x1024@60Hz 5:4 HorFreq: 64000 Hz Clock: 108.000 MHz
  1680x1050@60Hz 16:10 HorFreq: 64700 Hz Clock: 119.000 MHz
  1440x900@60Hz 16:10 HorFreq: 55500 Hz Clock: 88.750 MHz
Detailed mode: Clock 148.500 MHz, 476 mm x 268 mm
               1920 2008 2052 2200 hborder 0
               1080 1084 1089 1125 vborder 0
               +hsync +vsync 
               VertFreq: 60 Hz, HorFreq: 67500 Hz
Monitor ranges (GTF): 55-75Hz V, 24-83kHz H, max dotclock 150MHz
Serial number: --
Monitor name: LCD-MF221X
Checksum: 0xd2 (valid)
EDID block does NOT conform to EDID 1.3!
	sRGB is signaled, but the chromaticities do not match
