
EDID (hex):
00ffffffffffff000dae821400000000
1f160104951f117802c6759758538f27
24505400000001010101010101010101
0101010101011c2a405461841a303020
350035ae10000018000000fe004e3134
304647452d4541320a20000000fe0043
4d4e0a202020202020202020000000fe
004e3134304647452d4541320a20000e

Extracted contents:
header:          00 ff ff ff ff ff ff 00
serial number:   0d ae 82 14 00 00 00 00 1f 16
version:         01 04
basic params:    95 1f 11 78 02
chroma info:     c6 75 97 58 53 8f 27 24 50 54
established:     00 00 00
standard:        01 01 01 01 01 01 01 01 01 01 01 01 01 01 01 01
descriptor 1:    1c 2a 40 54 61 84 1a 30 30 20 35 00 35 ae 10 00 00 18
descriptor 2:    00 00 00 fe 00 4e 31 34 30 46 47 45 2d 45 41 32 0a 20
descriptor 3:    00 00 00 fe 00 43 4d 4e 0a 20 20 20 20 20 20 20 20 20
descriptor 4:    00 00 00 fe 00 4e 31 34 30 46 47 45 2d 45 41 32 0a 20
extensions:      00
checksum:        0e

EDID version: 1.4
Manufacturer: CMN Model 1482 Serial Number --
Made in week 31 of 2012
Digital display
6 bits per primary color channel
DisplayPort interface
Maximum image size: 31 cm x 17 cm
Gamma: 2.20
Supported color formats: RGB 4:4:4
First detailed timing includes the native pixel format and preferred refresh rate
Display x,y Chromaticity:
  Red:   0.5927, 0.3437
  Green: 0.3251, 0.5605
  Blue:  0.1533, 0.1435
  White: 0.3134, 0.3291
Established timings supported:
Standard timings supported:
Detailed mode: Clock 107.800 MHz, 309 mm x 174 mm
               1600 1648 1680 1940 hborder 0
                900  903  908  926 vborder 0
               -hsync -vsync 
               VertFreq: 60 Hz, HorFreq: 55567 Hz
ASCII string: N140FGE-EA2
ASCII string: CMN
ASCII string: N140FGE-EA2
Checksum: 0xe (valid)
EDID block does NOT conform to EDID 1.4!
	Missing name descriptor
	Missing monitor ranges
