
EDID (hex):
00ffffffffffff0005e31624920a0000
0813010380342078e8de50a3544c9926
0f5054bfef8081c0814081809500a940
b30001010101283c80a070b023403020
3600084a2100001a000000ff00463336
39325241303032373036000000fd0038
4b1e5015000a202020202020000000fc
00323431360a20202020202020200116
020104008c0ad08a20e02d10103e9600
064421000018011d8018711c1620582c
250006442100009e011d007251d01e20
6e28550006442100001e023a80187138
2d40582c450006442100001ed60980a0
20e02d101060a2000644210000180000
00000000000000000000000000000000
000000000000000000000000000000ca

Extracted contents:
header:          00 ff ff ff ff ff ff 00
serial number:   05 e3 16 24 92 0a 00 00 08 13
version:         01 03
basic params:    80 34 20 78 e8
chroma info:     de 50 a3 54 4c 99 26 0f 50 54
established:     bf ef 80
standard:        81 c0 81 40 81 80 95 00 a9 40 b3 00 01 01 01 01
descriptor 1:    28 3c 80 a0 70 b0 23 40 30 20 36 00 08 4a 21 00 00 1a
descriptor 2:    00 00 00 ff 00 46 33 36 39 32 52 41 30 30 32 37 30 36
descriptor 3:    00 00 00 fd 00 38 4b 1e 50 15 00 0a 20 20 20 20 20 20
descriptor 4:    00 00 00 fc 00 32 34 31 36 0a 20 20 20 20 20 20 20 20
extensions:      01
checksum:        16

EDID version: 1.3
Manufacturer: AOC Model 2416 Serial Number --
Made in week 8 of 2009
Digital display
Maximum image size: 52 cm x 32 cm
Gamma: 2.20
DPMS levels: Standby Suspend Off
RGB color display
Display x,y Chromaticity:
  Red:   0.6396, 0.3291
  Green: 0.2998, 0.5996
  Blue:  0.1494, 0.0595
  White: 0.3125, 0.3281
Established timings supported:
  720x400@70Hz 9:5 HorFreq: 31469 Hz Clock: 28.320 MHz
  640x480@60Hz 4:3 HorFreq: 31469 Hz Clock: 25.175 MHz
  640x480@67Hz 4:3 HorFreq: 35000 Hz Clock: 30.240 MHz
  640x480@72Hz 4:3 HorFreq: 37900 Hz Clock: 31.500 MHz
  640x480@75Hz 4:3 HorFreq: 37500 Hz Clock: 31.500 MHz
  800x600@56Hz 4:3 HorFreq: 35200 Hz Clock: 36.000 MHz
  800x600@60Hz 4:3 HorFreq: 37900 Hz Clock: 40.000 MHz
  800x600@72Hz 4:3 HorFreq: 48100 Hz Clock: 50.000 MHz
  800x600@75Hz 4:3 HorFreq: 46900 Hz Clock: 49.500 MHz
  832x624@75Hz 4:3 HorFreq: 49726 Hz Clock: 57.284 MHz
  1024x768@60Hz 4:3 HorFreq: 48400 Hz Clock: 65.000 MHz
  1024x768@70Hz 4:3 HorFreq: 56500 Hz Clock: 75.000 MHz
  1024x768@75Hz 4:3 HorFreq: 60000 Hz Clock: 78.750 MHz
  1280x1024@75Hz 5:4 HorFreq: 80000 Hz Clock: 135.000 MHz
  1152x870@75Hz 192:145 HorFreq: 67500 Hz Clock: 108.000 MHz
Standard timings supported:
  1280x720@60Hz 16:9
  1280x960@60Hz 4:3 HorFreq: 60000 Hz Clock: 108.000 MHz
  1280x1024@60Hz 5:4 HorFreq: 64000 Hz Clock: 108.000 MHz
  1440x900@60Hz 16:10 HorFreq: 55500 Hz Clock: 88.750 MHz
  1600x1200@60Hz 4:3 HorFreq: 75000 Hz Clock: 162.000 MHz
  1680x1050@60Hz 16:10 HorFreq: 64700 Hz Clock: 119.000 MHz
Detailed mode: Clock 154.000 MHz, 520 mm x 330 mm
               1920 1968 2000 2080 hborder 0
               1200 1203 1209 1235 vborder 0
               +hsync -vsync 
               VertFreq: 59 Hz, HorFreq: 74038 Hz
Serial number: --
Monitor ranges (GTF): 56-75Hz V, 30-80kHz H, max dotclock 210MHz
Monitor name: 2416
Has 1 extension blocks
Checksum: 0x16 (valid)

CTA extension block
Extension version: 1
0 8-byte timing descriptors
Detailed mode: Clock 27.000 MHz, 518 mm x 324 mm
                720  736  798  858 hborder 0
                480  489  495  525 vborder 0
               -hsync -vsync 
               VertFreq: 59 Hz, HorFreq: 31468 Hz
Detailed mode: Clock 74.250 MHz, 518 mm x 324 mm
               1920 2008 2052 2200 hborder 0
                540  542  547  562 vborder 0
               +hsync +vsync interlaced 
               VertFreq: 60 Hz, HorFreq: 33750 Hz
Detailed mode: Clock 74.250 MHz, 518 mm x 324 mm
               1280 1390 1430 1650 hborder 0
                720  725  730  750 vborder 0
               +hsync +vsync 
               VertFreq: 60 Hz, HorFreq: 45000 Hz
Detailed mode: Clock 148.500 MHz, 518 mm x 324 mm
               1920 2008 2052 2200 hborder 0
               1080 1084 1089 1125 vborder 0
               +hsync +vsync 
               VertFreq: 60 Hz, HorFreq: 67500 Hz
Detailed mode: Clock 25.180 MHz, 518 mm x 324 mm
                640  656  752  800 hborder 0
                480  490  492  525 vborder 0
               -hsync -vsync 
               VertFreq: 59 Hz, HorFreq: 31475 Hz
Checksum: 0xca (valid)

EDID block does NOT conform to EDID 1.3!
	Missing preferred timing
EDID block does not conform at all!
	Both the serial number and the serial string are set


