
EDID (hex):
00ffffffffffff0006af9bb600000000
241f0104b522137803ee95a3544c9926
0f505400000001010101010101010101
010101010101349e80a0703864401010
3e0058c1100000180000000f00000000
00000000000000000020000000fd003c
a5c3c329010a202020202020000000fe
004231353648414e31322e48200a00f1

Extracted contents:
header:          00 ff ff ff ff ff ff 00
serial number:   06 af 9b b6 00 00 00 00 24 1f
version:         01 04
basic params:    b5 22 13 78 03
chroma info:     ee 95 a3 54 4c 99 26 0f 50 54
established:     00 00 00
standard:        01 01 01 01 01 01 01 01 01 01 01 01 01 01 01 01
descriptor 1:    34 9e 80 a0 70 38 64 40 10 10 3e 00 58 c1 10 00 00 18
descriptor 2:    00 00 00 0f 00 00 00 00 00 00 00 00 00 00 00 00 00 20
descriptor 3:    00 00 00 fd 00 3c a5 c3 c3 29 01 0a 20 20 20 20 20 20
descriptor 4:    00 00 00 fe 00 42 31 35 36 48 41 4e 31 32 2e 48 20 0a
extensions:      00
checksum:        f1

EDID version: 1.4
Manufacturer: AUO Model b69b Serial Number --
Made in week 36 of 2021
Digital display
10 bits per primary color channel
DisplayPort interface
Maximum image size: 34 cm x 19 cm
Gamma: 2.20
Supported color formats: RGB 4:4:4
First detailed timing includes the native pixel format and preferred refresh rate
Display is continuous frequency
Display x,y Chromaticity:
  Red:   0.6396, 0.3300
  Green: 0.2998, 0.5996
  Blue:  0.1503, 0.0595
  White: 0.3134, 0.3291
Established timings supported:
Standard timings supported:
Detailed mode: Clock 405.000 MHz, 344 mm x 193 mm
               1920 1936 1952 2080 hborder 0
               1080 1083 1097 1180 vborder 0
               -hsync -vsync 
               VertFreq: 165 Hz, HorFreq: 194711 Hz
Manufacturer-specified data, tag 15
Monitor ranges (bare limits): 60-165Hz V, 195-195kHz H, max dotclock 410MHz
ASCII string: B156HAN12.H 
Checksum: 0xf1 (valid)
EDID block does NOT conform to EDID 1.4!
	Missing name descriptor
Warning: One or more of the timings is out of range of the Monitor Ranges:
  Vertical Freq: 165 - 165 Hz
  Horizontal Freq: 194711 - 194711 Hz
  Maximum Clock: 405.000 MHz
