
EDID (hex):
00ffffffffffff001e6d6d590b2a0d00
051901036c331d78eac665a059589d27
0e5054a10800b3008180d1c001010101
010101010101023a801871382d40582c
4500fe221100001a000000fd00393f1e
450f000a202020202020000000fc0032
33434156202020200a202020000000ff
003530354d58435252433733310a0068

Extracted contents:
header:          00 ff ff ff ff ff ff 00
serial number:   1e 6d 6d 59 0b 2a 0d 00 05 19
version:         01 03
basic params:    6c 33 1d 78 ea
chroma info:     c6 65 a0 59 58 9d 27 0e 50 54
established:     a1 08 00
standard:        b3 00 81 80 d1 c0 01 01 01 01 01 01 01 01 01 01
descriptor 1:    02 3a 80 18 71 38 2d 40 58 2c 45 00 fe 22 11 00 00 1a
descriptor 2:    00 00 00 fd 00 39 3f 1e 45 0f 00 0a 20 20 20 20 20 20
descriptor 3:    00 00 00 fc 00 32 33 43 41 56 20 20 20 20 0a 20 20 20
descriptor 4:    00 00 00 ff 00 35 30 35 4d 58 43 52 52 43 37 33 31 0a
extensions:      00
checksum:        68

EDID version: 1.3
Manufacturer: GSM Model 596d Serial Number --
Made in week 5 of 2015
Analog display, Input voltage level: 0.7/0.7 V
Sync: Separate Composite 
Maximum image size: 51 cm x 29 cm
Gamma: 2.20
DPMS levels: Standby Suspend Off
RGB color display
First detailed timing is preferred timing
Display x,y Chromaticity:
  Red:   0.6279, 0.3476
  Green: 0.3447, 0.6152
  Blue:  0.1533, 0.0566
  White: 0.3134, 0.3291
Established timings supported:
  720x400@70Hz 9:5 HorFreq: 31469 Hz Clock: 28.320 MHz
  640x480@60Hz 4:3 HorFreq: 31469 Hz Clock: 25.175 MHz
  800x600@60Hz 4:3 HorFreq: 37900 Hz Clock: 40.000 MHz
  1024x768@60Hz 4:3 HorFreq: 48400 Hz Clock: 65.000 MHz
Standard timings supported:
  1680x1050@60Hz 16:10 HorFreq: 64700 Hz Clock: 119.000 MHz
  1280x1024@60Hz 5:4 HorFreq: 64000 Hz Clock: 108.000 MHz
  1920x1080@60Hz 16:9
Detailed mode: Clock 148.500 MHz, 510 mm x 290 mm
               1920 2008 2052 2200 hborder 0
               1080 1084 1089 1125 vborder 0
               +hsync -vsync 
               VertFreq: 60 Hz, HorFreq: 67500 Hz
Monitor ranges (GTF): 57-63Hz V, 30-69kHz H, max dotclock 150MHz
Monitor name: 23CAV    
Serial number: --
Checksum: 0x68 (valid)
One or more of the timings is out of range of the Monitor Ranges:
  Vertical Freq: 60 - 70 Hz
  Horizontal Freq: 31469 - 67500 Hz
  Maximum Clock: 148.500 MHz
