
EDID (hex):
00ffffffffffff0009e5c50700000000
0c1c0104a522137802f9a0955d599429
24505400000001010101010101010101
0101010101011a3b802471383c403020
360058c21000001a482f802471383c40
3020360058c21000001a000000fe0042
4f452043510a202020202020000000fe
004e5631353646484d2d4e34320a000a

Extracted contents:
header:          00 ff ff ff ff ff ff 00
serial number:   09 e5 c5 07 00 00 00 00 0c 1c
version:         01 04
basic params:    a5 22 13 78 02
chroma info:     f9 a0 95 5d 59 94 29 24 50 54
established:     00 00 00
standard:        01 01 01 01 01 01 01 01 01 01 01 01 01 01 01 01
descriptor 1:    1a 3b 80 24 71 38 3c 40 30 20 36 00 58 c2 10 00 00 1a
descriptor 2:    48 2f 80 24 71 38 3c 40 30 20 36 00 58 c2 10 00 00 1a
descriptor 3:    00 00 00 fe 00 42 4f 45 20 43 51 0a 20 20 20 20 20 20
descriptor 4:    00 00 00 fe 00 4e 56 31 35 36 46 48 4d 2d 4e 34 32 0a
extensions:      00
checksum:        0a

EDID version: 1.4
Manufacturer: BOE Model 7c5 Serial Number --
Made in week 12 of 2018
Digital display
8 bits per primary color channel
DisplayPort interface
Maximum image size: 34 cm x 19 cm
Gamma: 2.20
Supported color formats: RGB 4:4:4
First detailed timing includes the native pixel format and preferred refresh rate
Display x,y Chromaticity:
  Red:   0.5849, 0.3662
  Green: 0.3496, 0.5791
  Blue:  0.1621, 0.1425
  White: 0.3125, 0.3281
Established timings supported:
Standard timings supported:
Detailed mode: Clock 151.300 MHz, 344 mm x 194 mm
               1920 1968 2000 2212 hborder 0
               1080 1083 1089 1140 vborder 0
               +hsync -vsync 
               VertFreq: 59 Hz, HorFreq: 68399 Hz
Detailed mode: Clock 121.040 MHz, 344 mm x 194 mm
               1920 1968 2000 2212 hborder 0
               1080 1083 1089 1140 vborder 0
               +hsync -vsync 
               VertFreq: 47 Hz, HorFreq: 54719 Hz
ASCII string: BOE CQ
ASCII string: NV156FHM-N42
Checksum: 0xa (valid)
EDID block does NOT conform to EDID 1.4!
	Missing name descriptor
	Missing monitor ranges
