
EDID (hex):
00ffffffffffff004c83ae4100000000
00210104b5221678030cf1ae523cb923
0c505400000001010101010101010101
010101010101000000fe002020202020
2020202020202020000000fd0c30f0ab
ab710100000000000000000000fe0053
44430a202020202020202020000000fc
0041544e413630444c30342d3020015c
70207902002600090400000000005000
002200289a2b1185ff094f0007001f00
3f06af009d0007009a2b1105ff094f00
07001f003f067f156d15070081001f73
1a0000030b30f000a074026002f00000
00008de3058000e60605017460022b00
0c27003cef00002700303b00002e0006
0045405e405e00000000000000001e90

edid-decode (hex):

00 ff ff ff ff ff ff 00 4c 83 ae 41 00 00 00 00
00 21 01 04 b5 22 16 78 03 0c f1 ae 52 3c b9 23
0c 50 54 00 00 00 01 01 01 01 01 01 01 01 01 01
01 01 01 01 01 01 00 00 00 fe 00 20 20 20 20 20
20 20 20 20 20 20 20 20 00 00 00 fd 0c 30 f0 ab
ab 71 01 00 00 00 00 00 00 00 00 00 00 fe 00 53
44 43 0a 20 20 20 20 20 20 20 20 20 00 00 00 fc
00 41 54 4e 41 36 30 44 4c 30 34 2d 30 20 01 5c

70 20 79 02 00 26 00 09 04 00 00 00 00 00 50 00
00 22 00 28 9a 2b 11 85 ff 09 4f 00 07 00 1f 00
3f 06 af 00 9d 00 07 00 9a 2b 11 05 ff 09 4f 00
07 00 1f 00 3f 06 7f 15 6d 15 07 00 81 00 1f 73
1a 00 00 03 0b 30 f0 00 a0 74 02 60 02 f0 00 00
00 00 8d e3 05 80 00 e6 06 05 01 74 60 02 2b 00
0c 27 00 3c ef 00 00 27 00 30 3b 00 00 2e 00 06
00 45 40 5e 40 5e 00 00 00 00 00 00 00 00 1e 90

----------------

Block 0, Base EDID:
  EDID Structure Version & Revision: 1.4
  Vendor & Product Identification:
    Manufacturer: SDC
    Model: 16814
    Made in: 2023
  Basic Display Parameters & Features:
    Digital display
    Bits per primary color channel: 10
    DisplayPort interface
    Maximum image size: 34 cm x 22 cm
    Gamma: 2.20
    Supported color formats: RGB 4:4:4
    First detailed timing includes the native pixel format and preferred refresh rate
    Display is continuous frequency
  Color Characteristics:
    Red  : 0.6796, 0.3203
    Green: 0.2373, 0.7226
    Blue : 0.1396, 0.0498
    White: 0.3125, 0.3291
  Established Timings I & II: none
  Standard Timings: none
  Detailed Timing Descriptors:
    Alphanumeric Data String: '             '
    Display Range Limits:
      Monitor ranges (Bare Limits): 48-240 Hz V, 426-426 kHz H, max dotclock 1130 MHz
    Alphanumeric Data String: 'SDC'
    Display Product Name: 'ATNA60DL04-0 '
  Extension blocks: 1
Checksum: 0x5c

----------------

Block 1, DisplayID Extension Block:
  Version: 2.0
  Extension Count: 0
  Display Product Primary Use Case: None of the listed primary use cases; generic display
  Display Interface Features Data Block:
    Supported bpc for RGB encoding: 10
    Supported color space and EOTF standard combination 1: DCI-P3, BT.2020/SMPTE ST 2084
  Video Timing Modes Type 7 - Detailed Timings Data Block:
    DTD:  2560x1600  240.000299 Hz  16:10   426.241 kHz   1125.275000 MHz (aspect 16:10, no 3D stereo, preferred)
               Hfront    8 Hsync  32 Hback   40 Hpol N
               Vfront  158 Vsync   8 Vback   10 Vpol N
    DTD:  2560x1600   60.000075 Hz  16:10   426.241 kHz   1125.275000 MHz (aspect 16:10, no 3D stereo)
               Hfront    8 Hsync  32 Hback   40 Hpol N
               Vfront 5486 Vsync   8 Vback   10 Vpol N
  CTA-861 DisplayID Data Block:
  Vendor-Specific Data Block (AMD), OUI 00-00-1A:
    Version: 3.11
    Minimum Refresh Rate: 48 Hz
    Maximum Refresh Rate: 240 Hz
    Flags 1.x: 0x00
    Flags 2.x: 0xa0
    Maximum luminance: 116 (616.884 cd/m^2)
    Minimum luminance: 2 (0.000 cd/m^2)
    Unknown: 0x60 0x02
  Colorimetry Data Block:
    BT2020RGB
  HDR Static Metadata Data Block:
    Electro optical transfer functions:
      Traditional gamma - SDR luminance range
      SMPTE ST2084
    Supported static metadata descriptors:
      Static metadata type 1
    Desired content max luminance: 116 (616.884 cd/m^2)
    Desired content max frame-average luminance: 96 (400.000 cd/m^2)
    Desired content min luminance: 2 (0.000 cd/m^2)
  Adaptive Sync Data Block:
    Descriptor #1:
      Native Panel Range
      Fixed Average V-Total and Adaptive V-Total
      'Max Single Frame Duration Increase' field value without jitter impact
      'Max Single Frame Duration Decrease' field value without jitter impact
      Max Duration Increase: 0.00 ms
      Max Duration Decrease: 0.00 ms
      Min Refresh Rate: 60 Hz
      Max Refresh Rate: 240 Hz
    Descriptor #2:
      Native Panel Range
      Fixed Average V-Total and Adaptive V-Total
      'Max Single Frame Duration Increase' field value without jitter impact
      'Max Single Frame Duration Decrease' field value without jitter impact
      Max Duration Increase: 0.00 ms
      Max Duration Decrease: 0.00 ms
      Min Refresh Rate: 48 Hz
      Max Refresh Rate: 60 Hz
  Unknown DisplayID Data Block (0x2e, length 6):
    00 45 40 5e 40 5e                               '.E@^@^'
  Checksum: 0x1e
Checksum: 0x90
