
EDID (hex):
00ffffffffffff0006af144200000000
01110103801a10780a89e59457549327
22505400000001010101010101010101
010101010101e91b00a8502016303020
360005a310000019761b009050201630
3020360005a310000000000000fe004b
583737340242313231455734000000fe
00090f151a346084ff01010a2020001b

Extracted contents:
header:          00 ff ff ff ff ff ff 00
serial number:   06 af 14 42 00 00 00 00 01 11
version:         01 03
basic params:    80 1a 10 78 0a
chroma info:     89 e5 94 57 54 93 27 22 50 54
established:     00 00 00
standard:        01 01 01 01 01 01 01 01 01 01 01 01 01 01 01 01
descriptor 1:    e9 1b 00 a8 50 20 16 30 30 20 36 00 05 a3 10 00 00 19
descriptor 2:    76 1b 00 90 50 20 16 30 30 20 36 00 05 a3 10 00 00 00
descriptor 3:    00 00 00 fe 00 4b 58 37 37 34 02 42 31 32 31 45 57 34
descriptor 4:    00 00 00 fe 00 09 0f 15 1a 34 60 84 ff 01 01 0a 20 20
extensions:      00
checksum:        1b

EDID version: 1.3
Manufacturer: AUO Model 4214 Serial Number --
Made in week 1 of 2007
Digital display
Maximum image size: 26 cm x 16 cm
Gamma: 2.20
RGB color display
First detailed timing is preferred timing
Display x,y Chromaticity:
  Red:   0.5800, 0.3398
  Green: 0.3300, 0.5751
  Blue:  0.1552, 0.1347
  White: 0.3134, 0.3291
Established timings supported:
Standard timings supported:
Detailed mode: Clock 71.450 MHz, 261 mm x 163 mm
               1280 1328 1360 1448 hborder 0
                800  803  809  822 vborder 0
               -hsync -vsync 
               VertFreq: 60 Hz, HorFreq: 49343 Hz
Detailed mode: Clock 70.300 MHz, 261 mm x 163 mm
               1280 1328 1360 1424 hborder 0
                800  803  809  822 vborder 0
               -hsync -vsync analog composite 
               VertFreq: 60 Hz, HorFreq: 49367 Hz
ASCII string: KX774
ASCII string: 
Checksum: 0x1b (valid)
EDID block does NOT conform to EDID 1.3!
	Missing name descriptor
	Missing monitor ranges
	Detailed block string not properly terminated
