
EDID (hex):
00ffffffffffff0009e5b50900000000
2c1e0104a5221678035305a4544b9c25
0f505400000001010101010101010101
010101010101c09900d0c08050703020
360059d71000001a806600d0c0805070
3020360059d71000001a000000000000
00000000000000000000000000000002
000d28ff0a3cc81a0f2fc80000000091

Extracted contents:
header:          00 ff ff ff ff ff ff 00
serial number:   09 e5 b5 09 00 00 00 00 2c 1e
version:         01 04
basic params:    a5 22 16 78 03
chroma info:     53 05 a4 54 4b 9c 25 0f 50 54
established:     00 00 00
standard:        01 01 01 01 01 01 01 01 01 01 01 01 01 01 01 01
descriptor 1:    c0 99 00 d0 c0 80 50 70 30 20 36 00 59 d7 10 00 00 1a
descriptor 2:    80 66 00 d0 c0 80 50 70 30 20 36 00 59 d7 10 00 00 1a
descriptor 3:    00 00 00 00 00 00 00 00 00 00 00 00 00 00 00 00 00 00
descriptor 4:    00 00 00 02 00 0d 28 ff 0a 3c c8 1a 0f 2f c8 00 00 00
extensions:      00
checksum:        91

EDID version: 1.4
Manufacturer: BOE Model 9b5 Serial Number --
Made in week 44 of 2020
Digital display
8 bits per primary color channel
DisplayPort interface
Maximum image size: 34 cm x 22 cm
Gamma: 2.20
Supported color formats: RGB 4:4:4
First detailed timing includes the native pixel format and preferred refresh rate
Display is continuous frequency
Display x,y Chromaticity:
  Red:   0.6416, 0.3291
  Green: 0.2929, 0.6123
  Blue:  0.1445, 0.0585
  White: 0.3134, 0.3291
Established timings supported:
Standard timings supported:
Detailed mode: Clock 393.600 MHz, 345 mm x 215 mm
               3072 3120 3152 3280 hborder 0
               1920 1923 1929 2000 vborder 0
               +hsync -vsync 
               VertFreq: 60 Hz, HorFreq: 120000 Hz
Detailed mode: Clock 262.400 MHz, 345 mm x 215 mm
               3072 3120 3152 3280 hborder 0
               1920 1923 1929 2000 vborder 0
               +hsync -vsync 
               VertFreq: 40 Hz, HorFreq: 80000 Hz
Manufacturer-specified data, tag 0
Manufacturer-specified data, tag 2
Checksum: 0x91 (valid)
EDID block does NOT conform to EDID 1.4!
	Missing name descriptor
	Missing monitor ranges
