
EDID (hex):
00ffffffffffff0006b3a02801010101
041f0104b53e22783b6995ad5246a127
0f5054bfcf00814081809500714f81c0
b300d1c001014dd000a0f0703e803020
35006d552100001a000000ff00313332
32313331323331323333000000fd0c30
9055558a010a202020202020000000fc
005647323855514c31410a2020200225
02033cf15004131f100e0f1d1e3f475d
5e5f606176230907078301000065030c
0010006d1a0000020330900005601260
12e305c000e60605016060126fc200a0
a0a05550302035006d552100001a14ec
00a0a0a06750203035006d552100001a
366c80a070703e803020080c6d552100
001a0000000000000000000000000014
701279000003013c7ff30184ff0e9f00
6f801f006f083b0031000400a4810106
ff0e9f006f801f003f06710064000400
e7610104ff0e9f006f801f006f086800
60000400000000000000000000000000
00000000000000000000000000000000
00000000000000000000000000000000
00000000000000000000000000004f90

Extracted contents:
header:          00 ff ff ff ff ff ff 00
serial number:   06 b3 a0 28 01 01 01 01 04 1f
version:         01 04
basic params:    b5 3e 22 78 3b
chroma info:     69 95 ad 52 46 a1 27 0f 50 54
established:     bf cf 00
standard:        81 40 81 80 95 00 71 4f 81 c0 b3 00 d1 c0 01 01
descriptor 1:    4d d0 00 a0 f0 70 3e 80 30 20 35 00 6d 55 21 00 00 1a
descriptor 2:    00 00 00 ff 00 31 33 32 32 31 33 31 32 33 31 32 33 33
descriptor 3:    00 00 00 fd 0c 30 90 55 55 8a 01 0a 20 20 20 20 20 20
descriptor 4:    00 00 00 fc 00 56 47 32 38 55 51 4c 31 41 0a 20 20 20
extensions:      02
checksum:        25

EDID version: 1.4
Manufacturer: AUS Model 28a0 Serial Number --
Made in week 4 of 2021
Digital display
10 bits per primary color channel
DisplayPort interface
Maximum image size: 62 cm x 34 cm
Gamma: 2.20
DPMS levels: Off
Supported color formats: RGB 4:4:4, YCrCb 4:4:4, YCrCb 4:2:2
First detailed timing includes the native pixel format and preferred refresh rate
Display is continuous frequency
Display x,y Chromaticity:
  Red:   0.6767, 0.3222
  Green: 0.2753, 0.6298
  Blue:  0.1542, 0.0595
  White: 0.3134, 0.3291
Established timings supported:
  720x400@70Hz 9:5 HorFreq: 31469 Hz Clock: 28.320 MHz
  640x480@60Hz 4:3 HorFreq: 31469 Hz Clock: 25.175 MHz
  640x480@67Hz 4:3 HorFreq: 35000 Hz Clock: 30.240 MHz
  640x480@72Hz 4:3 HorFreq: 37900 Hz Clock: 31.500 MHz
  640x480@75Hz 4:3 HorFreq: 37500 Hz Clock: 31.500 MHz
  800x600@56Hz 4:3 HorFreq: 35200 Hz Clock: 36.000 MHz
  800x600@60Hz 4:3 HorFreq: 37900 Hz Clock: 40.000 MHz
  800x600@72Hz 4:3 HorFreq: 48100 Hz Clock: 50.000 MHz
  800x600@75Hz 4:3 HorFreq: 46900 Hz Clock: 49.500 MHz
  1024x768@60Hz 4:3 HorFreq: 48400 Hz Clock: 65.000 MHz
  1024x768@70Hz 4:3 HorFreq: 56500 Hz Clock: 75.000 MHz
  1024x768@75Hz 4:3 HorFreq: 60000 Hz Clock: 78.750 MHz
  1280x1024@75Hz 5:4 HorFreq: 80000 Hz Clock: 135.000 MHz
Standard timings supported:
  1280x960@60Hz 4:3 HorFreq: 60000 Hz Clock: 108.000 MHz
  1280x1024@60Hz 5:4 HorFreq: 64000 Hz Clock: 108.000 MHz
  1440x900@60Hz 16:10 HorFreq: 55500 Hz Clock: 88.750 MHz
  1152x864@75Hz 4:3 HorFreq: 67500 Hz Clock: 108.000 MHz
  1280x720@60Hz 16:9
  1680x1050@60Hz 16:10 HorFreq: 64700 Hz Clock: 119.000 MHz
  1920x1080@60Hz 16:9
Detailed mode: Clock 533.250 MHz, 621 mm x 341 mm
               3840 3888 3920 4000 hborder 0
               2160 2163 2168 2222 vborder 0
               +hsync -vsync 
               VertFreq: 59 Hz, HorFreq: 133312 Hz
Serial number: --
Monitor ranges (bare limits): 48-144Hz V, 85-340kHz H, max dotclock 1380MHz
Monitor name: VG28UQL1A
Has 2 extension blocks
Checksum: 0x25 (valid)

CTA extension block
Extension version: 3
56 bytes of CTA data
  Video data block
    VIC   4 1280x720@60Hz 16:9  HorFreq: 45000 Hz Clock: 74.250 MHz
    VIC  19 1280x720@50Hz 16:9  HorFreq: 37500 Hz Clock: 74.250 MHz
    VIC  31 1920x1080@50Hz 16:9  HorFreq: 56250 Hz Clock: 148.500 MHz
    VIC  16 1920x1080@60Hz 16:9  HorFreq: 67500 Hz Clock: 148.500 MHz
    VIC  14 1440x480@60Hz 4:3  HorFreq: 31469 Hz Clock: 54.000 MHz
    VIC  15 1440x480@60Hz 16:9  HorFreq: 31469 Hz Clock: 54.000 MHz
    VIC  29 1440x576@50Hz 4:3  HorFreq: 31250 Hz Clock: 54.000 MHz
    VIC  30 1440x576@50Hz 16:9  HorFreq: 31250 Hz Clock: 54.000 MHz
    VIC  63 1920x1080@120Hz 16:9  HorFreq: 135000 Hz Clock: 297.000 MHz
    VIC  71 1280x720@120Hz 64:27  HorFreq: 91000 Hz Clock: 148.500 MHz
    VIC  93 3840x2160@24Hz 16:9  HorFreq: 54000 Hz Clock: 297.000 MHz
    VIC  94 3840x2160@25Hz 16:9  HorFreq: 56250 Hz Clock: 297.000 MHz
    VIC  95 3840x2160@30Hz 16:9  HorFreq: 67500 Hz Clock: 297.000 MHz
    VIC  96 3840x2160@50Hz 16:9  HorFreq: 112500 Hz Clock: 594.000 MHz
    VIC  97 3840x2160@60Hz 16:9  HorFreq: 135000 Hz Clock: 594.000 MHz
    VIC 118 3840x2160@120Hz 16:9  HorFreq: 270000 Hz Clock: 1188.000 MHz
  Audio data block
    Linear PCM, max channels 2
      Supported sample rates (kHz): 48 44.1 32
      Supported sample sizes (bits): 24 20 16
  Speaker allocation data block
    Speaker map:
      FL/FR - Front Left/Right
  Vendor-specific data block, OUI 000c03 (HDMI)
    Source physical address 1.0.0.0
  Vendor-specific data block, OUI 00001a
  Extended tag: Colorimetry data block
    BT2020YCC
    BT2020RGB
  Extended tag: HDR static metadata data block
    Electro optical transfer functions:
      Traditional gamma - SDR luminance range
      SMPTE ST2084
    Supported static metadata descriptors:
      Static metadata type 1
    Desired content max luminance: 96 (400.000 cd/m^2)
    Desired content max frame-average luminance: 96 (400.000 cd/m^2)
    Desired content min luminance: 18 (0.020 cd/m^2)
Underscans PC formats by default
Basic audio support
Supports YCbCr 4:4:4
Supports YCbCr 4:2:2
1 native detailed modes
Detailed mode: Clock 497.750 MHz, 621 mm x 341 mm
               2560 2608 2640 2720 hborder 0
               1440 1443 1448 1525 vborder 0
               +hsync -vsync 
               VertFreq: 119 Hz, HorFreq: 182996 Hz
Detailed mode: Clock 604.360 MHz, 621 mm x 341 mm
               2560 2592 2640 2720 hborder 0
               1440 1443 1448 1543 vborder 0
               +hsync -vsync 
               VertFreq: 143 Hz, HorFreq: 222191 Hz
Detailed mode: Clock 277.020 MHz, 621 mm x 341 mm
               1920 1968 2000 2080 hborder 0
               2160 2208 2216 2222 vborder 0
               +hsync -vsync 
               VertFreq: 59 Hz, HorFreq: 133182 Hz
Checksum: 0x14 (valid)


DisplayID extension block
Extension version: 18
Length 121, version 18, extension count 0
Checksum: 0x4f (valid)
Type 1 detailed timing: aspect: 16:9, Preferred  
Detailed mode: Clock 1278.710 MHz, 0 mm x 0 mm
               3839 3950 3981 3998
               2159 2208 2212 2218
               +hsync -vsync
Type 1 detailed timing: aspect: 64:27,  
Detailed mode: Clock 987.240 MHz, 0 mm x 0 mm
               3839 3950 3981 3998
               1599 1699 1703 1712
               +hsync -vsync
Type 1 detailed timing: aspect: 16:9,  
Detailed mode: Clock 905.990 MHz, 0 mm x 0 mm
               3839 3950 3981 3998
               2159 2255 2259 2263
               +hsync -vsync

Warning: One or more of the timings is out of range of the Monitor Ranges:
  Vertical Freq: 24 - 143 Hz
  Horizontal Freq: 31250 - 270000 Hz
  Maximum Clock: 1188.000 MHz
EDID block does not conform at all!
	Both the serial number and the serial string are set
