
EDID (hex):
00ffffffffffff0004723100ab2e1082
151201046c251e782aa2a5a3574c9d25
115054bfef0061467140714f81008140
814a814f8180302a009851002a403070
1300772d1100001e000000fd00314b1e
500e000a202020202020000000fc0041
63657220563139330a202020000000ff
004c43433032303031343130300a0056

Extracted contents:
header:          00 ff ff ff ff ff ff 00
serial number:   04 72 31 00 ab 2e 10 82 15 12
version:         01 04
basic params:    6c 25 1e 78 2a
chroma info:     a2 a5 a3 57 4c 9d 25 11 50 54
established:     bf ef 00
standard:        61 46 71 40 71 4f 81 00 81 40 81 4a 81 4f 81 80
descriptor 1:    30 2a 00 98 51 00 2a 40 30 70 13 00 77 2d 11 00 00 1e
descriptor 2:    00 00 00 fd 00 31 4b 1e 50 0e 00 0a 20 20 20 20 20 20
descriptor 3:    00 00 00 fc 00 41 63 65 72 20 56 31 39 33 0a 20 20 20
descriptor 4:    00 00 00 ff 00 4c 43 43 30 32 30 30 31 34 31 30 30 0a
extensions:      00
checksum:        56

EDID version: 1.4
Manufacturer: ACR Model 31 Serial Number --
Made in week 21 of 2008
Analog display, Input voltage level: 0.7/0.7 V
Blank level equals black level
Sync: Separate Composite 
Maximum image size: 37 cm x 30 cm
Gamma: 2.20
DPMS levels: Off
RGB color display
First detailed timing includes the native pixel format and preferred refresh rate
Display x,y Chromaticity:
  Red:   0.6386, 0.3417
  Green: 0.2968, 0.6152
  Blue:  0.1464, 0.0683
  White: 0.3134, 0.3291
Established timings supported:
  720x400@70Hz 9:5 HorFreq: 31469 Hz Clock: 28.320 MHz
  640x480@60Hz 4:3 HorFreq: 31469 Hz Clock: 25.175 MHz
  640x480@67Hz 4:3 HorFreq: 35000 Hz Clock: 30.240 MHz
  640x480@72Hz 4:3 HorFreq: 37900 Hz Clock: 31.500 MHz
  640x480@75Hz 4:3 HorFreq: 37500 Hz Clock: 31.500 MHz
  800x600@56Hz 4:3 HorFreq: 35200 Hz Clock: 36.000 MHz
  800x600@60Hz 4:3 HorFreq: 37900 Hz Clock: 40.000 MHz
  800x600@72Hz 4:3 HorFreq: 48100 Hz Clock: 50.000 MHz
  800x600@75Hz 4:3 HorFreq: 46900 Hz Clock: 49.500 MHz
  832x624@75Hz 4:3 HorFreq: 49726 Hz Clock: 57.284 MHz
  1024x768@60Hz 4:3 HorFreq: 48400 Hz Clock: 65.000 MHz
  1024x768@70Hz 4:3 HorFreq: 56500 Hz Clock: 75.000 MHz
  1024x768@75Hz 4:3 HorFreq: 60000 Hz Clock: 78.750 MHz
  1280x1024@75Hz 5:4 HorFreq: 80000 Hz Clock: 135.000 MHz
Standard timings supported:
  1024x768@66Hz 4:3
  1152x864@60Hz 4:3
  1152x864@75Hz 4:3 HorFreq: 67500 Hz Clock: 108.000 MHz
  1280x800@60Hz 16:10
  1280x960@60Hz 4:3 HorFreq: 60000 Hz Clock: 108.000 MHz
  1280x960@70Hz 4:3
  1280x960@75Hz 4:3
  1280x1024@60Hz 5:4 HorFreq: 64000 Hz Clock: 108.000 MHz
Detailed mode: Clock 108.000 MHz, 375 mm x 301 mm
               1280 1328 1440 1688 hborder 0
               1024 1025 1028 1066 vborder 0
               +hsync +vsync 
               VertFreq: 60 Hz, HorFreq: 63981 Hz
Monitor ranges (GTF): 49-75Hz V, 30-80kHz H, max dotclock 140MHz
Monitor name: Acer V193
Serial number: --
Checksum: 0x56 (valid)
