
EDID (hex):
00ffffffffffff003669010001000000
011b0104a52c18780a014ca755469924
12484b2108008180810081c0a9c09500
010101010101c82d400062841a30fa0c
c200b0ef1000001e00000010000a2020
20202020202020202020000000fd0039
3e1e5a14350055502100001a000000fc
0041494f2050430a20202020202000fd

Extracted contents:
header:          00 ff ff ff ff ff ff 00
serial number:   36 69 01 00 01 00 00 00 01 1b
version:         01 04
basic params:    a5 2c 18 78 0a
chroma info:     01 4c a7 55 46 99 24 12 48 4b
established:     21 08 00
standard:        81 80 81 00 81 c0 a9 c0 95 00 01 01 01 01 01 01
descriptor 1:    c8 2d 40 00 62 84 1a 30 fa 0c c2 00 b0 ef 10 00 00 1e
descriptor 2:    00 00 00 10 00 0a 20 20 20 20 20 20 20 20 20 20 20 20
descriptor 3:    00 00 00 fd 00 39 3e 1e 5a 14 35 00 55 50 21 00 00 1a
descriptor 4:    00 00 00 fc 00 41 49 4f 20 50 43 0a 20 20 20 20 20 20
extensions:      00
checksum:        fd

EDID version: 1.4
Manufacturer: MSI Model 1 Serial Number --
Made in week 1 of 2017
Digital display
8 bits per primary color channel
DisplayPort interface
Maximum image size: 44 cm x 24 cm
Gamma: 2.20
Supported color formats: RGB 4:4:4, YCrCb 4:4:4
First detailed timing includes the native pixel format and preferred refresh rate
Display x,y Chromaticity:
  Red:   0.6523, 0.3320
  Green: 0.2734, 0.5986
  Blue:  0.1416, 0.0703
  White: 0.2841, 0.2929
Established timings supported:
  640x480@60Hz 4:3 HorFreq: 31469 Hz Clock: 25.175 MHz
  800x600@60Hz 4:3 HorFreq: 37900 Hz Clock: 40.000 MHz
  1024x768@60Hz 4:3 HorFreq: 48400 Hz Clock: 65.000 MHz
Standard timings supported:
  1280x1024@60Hz 5:4 HorFreq: 64000 Hz Clock: 108.000 MHz
  1280x800@60Hz 16:10
  1280x720@60Hz 16:9
  1600x900@60Hz 16:9
  1440x900@60Hz 16:10 HorFreq: 55500 Hz Clock: 88.750 MHz
Detailed mode: Clock 117.200 MHz, 432 mm x 239 mm
               1600 1850 1862 2112 hborder 0
                900  912  914  926 vborder 0
               +hsync +vsync 
               VertFreq: 59 Hz, HorFreq: 55492 Hz
Dummy block
Monitor ranges (invalid): 57-62Hz V, 30-90kHz H, max dotclock 200MHz
Monitor name: AIO PC
Checksum: 0xfd (valid)
EDID block does not conform at all!
	Detailed blocks filled with garbage
	Dummy block filled with garbage
	Range descriptor contains garbage


