
EDID (hex):
00ffffffffffff00410c8fc07a070000
2c150103803c22782ab205a3564f9e28
0f5054b10800d1c0b3009500818081c0
010101010101023a801871382d40582c
450056502100005e000000ff00415535
31313434303031393134000000fc0032
37334744480a202020202020000000fd
00183f1a5317000a202020202020015f
020335f14a011004201f130302121123
090707830100007a030c002000382d20
c0100001002c18202820482058201626
4656e2000f023a80d072382d40102c45
8056502100005e011d00bc52d01e20b8
28554056502100005e92220090510021
404880370056502100005a302a009851
002a403070130056502100005e0000b2

Extracted contents:
header:          00 ff ff ff ff ff ff 00
serial number:   41 0c 8f c0 7a 07 00 00 2c 15
version:         01 03
basic params:    80 3c 22 78 2a
chroma info:     b2 05 a3 56 4f 9e 28 0f 50 54
established:     b1 08 00
standard:        d1 c0 b3 00 95 00 81 80 81 c0 01 01 01 01 01 01
descriptor 1:    02 3a 80 18 71 38 2d 40 58 2c 45 00 56 50 21 00 00 5e
descriptor 2:    00 00 00 ff 00 41 55 35 31 31 34 34 30 30 31 39 31 34
descriptor 3:    00 00 00 fc 00 32 37 33 47 44 48 0a 20 20 20 20 20 20
descriptor 4:    00 00 00 fd 00 18 3f 1a 53 17 00 0a 20 20 20 20 20 20
extensions:      01
checksum:        5f

EDID version: 1.3
Manufacturer: PHL Model c08f Serial Number --
Made in week 44 of 2011
Digital display
Maximum image size: 60 cm x 34 cm
Gamma: 2.20
DPMS levels: Off
RGB color display
First detailed timing is preferred timing
Display x,y Chromaticity:
  Red:   0.6386, 0.3388
  Green: 0.3085, 0.6191
  Blue:  0.1562, 0.0585
  White: 0.3134, 0.3291
Established timings supported:
  720x400@70Hz 9:5 HorFreq: 31469 Hz Clock: 28.320 MHz
  640x480@60Hz 4:3 HorFreq: 31469 Hz Clock: 25.175 MHz
  640x480@67Hz 4:3 HorFreq: 35000 Hz Clock: 30.240 MHz
  800x600@60Hz 4:3 HorFreq: 37900 Hz Clock: 40.000 MHz
  1024x768@60Hz 4:3 HorFreq: 48400 Hz Clock: 65.000 MHz
Standard timings supported:
  1920x1080@60Hz 16:9
  1680x1050@60Hz 16:10 HorFreq: 64700 Hz Clock: 119.000 MHz
  1440x900@60Hz 16:10 HorFreq: 55500 Hz Clock: 88.750 MHz
  1280x1024@60Hz 5:4 HorFreq: 64000 Hz Clock: 108.000 MHz
  1280x720@60Hz 16:9
Detailed mode: Clock 148.500 MHz, 598 mm x 336 mm
               1920 2008 2052 2200 hborder 0
               1080 1084 1089 1125 vborder 0
               +hsync +vsync field sequential R/L
               VertFreq: 60 Hz, HorFreq: 67500 Hz
Serial number: --
Monitor name: 273GDH
Monitor ranges (GTF): 24-63Hz V, 26-83kHz H, max dotclock 230MHz
Has 1 extension blocks
Checksum: 0x5f (valid)

CTA extension block
Extension version: 3
49 bytes of CTA data
  Video data block
    VIC   1 640x480@60Hz 4:3  HorFreq: 31469 Hz Clock: 25.175 MHz
    VIC  16 1920x1080@60Hz 16:9  HorFreq: 67500 Hz Clock: 148.500 MHz
    VIC   4 1280x720@60Hz 16:9  HorFreq: 45000 Hz Clock: 74.250 MHz
    VIC  32 1920x1080@24Hz 16:9  HorFreq: 27000 Hz Clock: 74.250 MHz
    VIC  31 1920x1080@50Hz 16:9  HorFreq: 56250 Hz Clock: 148.500 MHz
    VIC  19 1280x720@50Hz 16:9  HorFreq: 37500 Hz Clock: 74.250 MHz
    VIC   3 720x480@60Hz 16:9  HorFreq: 31469 Hz Clock: 27.000 MHz
    VIC   2 720x480@60Hz 4:3  HorFreq: 31469 Hz Clock: 27.000 MHz
    VIC  18 720x576@50Hz 16:9  HorFreq: 31250 Hz Clock: 27.000 MHz
    VIC  17 720x576@50Hz 4:3  HorFreq: 31250 Hz Clock: 27.000 MHz
  Audio data block
    Linear PCM, max channels 2
      Supported sample rates (kHz): 48 44.1 32
      Supported sample sizes (bits): 24 20 16
  Speaker allocation data block
    Speaker map:
      FL/FR - Front Left/Right
  Vendor-specific data block, OUI 000c03 (HDMI)
    Source physical address 2.0.0.0
    DC_36bit
    DC_30bit
    DC_Y444
    Maximum TMDS clock: 225MHz
    Extended HDMI video details:
      3D present
      3D-capable-VIC mask present
      3D: Frame-packing
      3D VIC indices: 2 3 5
      VIC index 1 supports unknown
      VIC index 2 supports unknown
      VIC index 4 supports unknown
      VIC index 5 supports unknown
      VIC index 1 supports top-and-bottom
      VIC index 2 supports top-and-bottom
      VIC index 4 supports top-and-bottom
      VIC index 5 supports top-and-bottom
  Extended tag: Video capability data block
    YCbCr quantization: No Data (0)
    RGB quantization: No Data (0)
    PT scan behaviour: No Data (0)
    IT scan behaviour: Support both over- and underscan (3)
    CE scan behaviour: Support both over- and underscan (3)
Underscans PC formats by default
Basic audio support
Supports YCbCr 4:4:4
Supports YCbCr 4:2:2
1 native detailed modes
Detailed mode: Clock 148.500 MHz, 598 mm x 336 mm
               1920 2448 2492 2640 hborder 0
               1080 1084 1089 1125 vborder 0
               +hsync +vsync field sequential R/L
               VertFreq: 50 Hz, HorFreq: 56250 Hz
Detailed mode: Clock 74.250 MHz, 598 mm x 336 mm
               1280 1720 1760 1980 hborder 0
                720  725  730  750 vborder 0
               +hsync +vsync field sequential R/L
               VertFreq: 50 Hz, HorFreq: 37500 Hz
Detailed mode: Clock 88.500 MHz, 598 mm x 336 mm
               1280 1352 1480 1680 hborder 0
               1024 1027 1034 1057 vborder 0
               +hsync -vsync field sequential R/L
               VertFreq: 49 Hz, HorFreq: 52678 Hz
Detailed mode: Clock 108.000 MHz, 598 mm x 336 mm
               1280 1328 1440 1688 hborder 0
               1024 1025 1028 1066 vborder 0
               +hsync +vsync field sequential R/L
               VertFreq: 60 Hz, HorFreq: 63981 Hz
Checksum: 0xb2 (valid)

One or more of the timings is out of range of the Monitor Ranges:
  Vertical Freq: 24 - 70 Hz
  Horizontal Freq: 27000 - 67500 Hz
  Maximum Clock: 148.500 MHz
EDID block does not conform at all!
	Both the serial number and the serial string are set
