
EDID (hex):
00ffffffffffff001585661300000000
1a180103084628780a01c1a057479827
124c4cadce00810081c0010101010101
010101010101662150b051001b304070
360040846300001e662156aa51001e30
468f330040846300001e000000fd0039
4e1e500f000a202020202020000000fc
00454c4546573332380a2020202000f1

Extracted contents:
header:          00 ff ff ff ff ff ff 00
serial number:   15 85 66 13 00 00 00 00 1a 18
version:         01 03
basic params:    08 46 28 78 0a
chroma info:     01 c1 a0 57 47 98 27 12 4c 4c
established:     ad ce 00
standard:        81 00 81 c0 01 01 01 01 01 01 01 01 01 01 01 01
descriptor 1:    66 21 50 b0 51 00 1b 30 40 70 36 00 40 84 63 00 00 1e
descriptor 2:    66 21 56 aa 51 00 1e 30 46 8f 33 00 40 84 63 00 00 1e
descriptor 3:    00 00 00 fd 00 39 4e 1e 50 0f 00 0a 20 20 20 20 20 20
descriptor 4:    00 00 00 fc 00 45 4c 45 46 57 33 32 38 0a 20 20 20 20
extensions:      00
checksum:        f1

EDID version: 1.3
Manufacturer: ELE Model 1366 Serial Number --
Made in week 26 of 2014
Analog display, Input voltage level: 0.7/0.3 V
Sync: Separate 
Maximum image size: 70 cm x 40 cm
Gamma: 2.20
RGB color display
First detailed timing is preferred timing
Display x,y Chromaticity:
  Red:   0.6250, 0.3398
  Green: 0.2773, 0.5947
  Blue:  0.1552, 0.0703
  White: 0.2968, 0.2978
Established timings supported:
  720x400@70Hz 9:5 HorFreq: 31469 Hz Clock: 28.320 MHz
  640x480@60Hz 4:3 HorFreq: 31469 Hz Clock: 25.175 MHz
  640x480@72Hz 4:3 HorFreq: 37900 Hz Clock: 31.500 MHz
  640x480@75Hz 4:3 HorFreq: 37500 Hz Clock: 31.500 MHz
  800x600@60Hz 4:3 HorFreq: 37900 Hz Clock: 40.000 MHz
  800x600@72Hz 4:3 HorFreq: 48100 Hz Clock: 50.000 MHz
  800x600@75Hz 4:3 HorFreq: 46900 Hz Clock: 49.500 MHz
  1024x768@60Hz 4:3 HorFreq: 48400 Hz Clock: 65.000 MHz
  1024x768@70Hz 4:3 HorFreq: 56500 Hz Clock: 75.000 MHz
  1024x768@75Hz 4:3 HorFreq: 60000 Hz Clock: 78.750 MHz
Standard timings supported:
  1280x800@60Hz 16:10
  1280x720@60Hz 16:9
Detailed mode: Clock 85.500 MHz, 1600 mm x 900 mm
               1360 1424 1536 1792 hborder 0
                768  771  777  795 vborder 0
               +hsync +vsync 
               VertFreq: 60 Hz, HorFreq: 47712 Hz
Detailed mode: Clock 85.500 MHz, 1600 mm x 900 mm
               1366 1436 1579 1792 hborder 0
                768  771  774  798 vborder 0
               +hsync +vsync 
               VertFreq: 59 Hz, HorFreq: 47712 Hz
Monitor ranges (GTF): 57-78Hz V, 30-80kHz H, max dotclock 150MHz
Monitor name: ELEFW328
Checksum: 0xf1 (valid)
