
EDID (hex):
00ffffffffffff00108c000061120000
0810010380251e78eb9ae5a658499923
115054bfef008180714f8140318f31ca
3bca01010101302a009851002a403070
1300742d1100001e000000ff00303034
3730350a202020202020000000fd0037
4b1e500e000a202020202020000000fc
004d313931530a20202020202020007b

Extracted contents:
header:          00 ff ff ff ff ff ff 00
serial number:   10 8c 00 00 61 12 00 00 08 10
version:         01 03
basic params:    80 25 1e 78 eb
chroma info:     9a e5 a6 58 49 99 23 11 50 54
established:     bf ef 00
standard:        81 80 71 4f 81 40 31 8f 31 ca 3b ca 01 01 01 01
descriptor 1:    30 2a 00 98 51 00 2a 40 30 70 13 00 74 2d 11 00 00 1e
descriptor 2:    00 00 00 ff 00 30 30 34 37 30 35 0a 20 20 20 20 20 20
descriptor 3:    00 00 00 fd 00 37 4b 1e 50 0e 00 0a 20 20 20 20 20 20
descriptor 4:    00 00 00 fc 00 4d 31 39 31 53 0a 20 20 20 20 20 20 20
extensions:      00
checksum:        7b

EDID version: 1.3
Manufacturer: DDL Model 0 Serial Number --
Made in week 8 of 2006
Digital display
Maximum image size: 37 cm x 30 cm
Gamma: 2.20
DPMS levels: Standby Suspend Off
RGB color display
First detailed timing is preferred timing
Supports GTF timings within operating range
Display x,y Chromaticity:
  Red:   0.6503, 0.3447
  Green: 0.2871, 0.5996
  Blue:  0.1396, 0.0683
  White: 0.3134, 0.3291
Established timings supported:
  720x400@70Hz 9:5 HorFreq: 31469 Hz Clock: 28.320 MHz
  640x480@60Hz 4:3 HorFreq: 31469 Hz Clock: 25.175 MHz
  640x480@67Hz 4:3 HorFreq: 35000 Hz Clock: 30.240 MHz
  640x480@72Hz 4:3 HorFreq: 37900 Hz Clock: 31.500 MHz
  640x480@75Hz 4:3 HorFreq: 37500 Hz Clock: 31.500 MHz
  800x600@56Hz 4:3 HorFreq: 35200 Hz Clock: 36.000 MHz
  800x600@60Hz 4:3 HorFreq: 37900 Hz Clock: 40.000 MHz
  800x600@72Hz 4:3 HorFreq: 48100 Hz Clock: 50.000 MHz
  800x600@75Hz 4:3 HorFreq: 46900 Hz Clock: 49.500 MHz
  832x624@75Hz 4:3 HorFreq: 49726 Hz Clock: 57.284 MHz
  1024x768@60Hz 4:3 HorFreq: 48400 Hz Clock: 65.000 MHz
  1024x768@70Hz 4:3 HorFreq: 56500 Hz Clock: 75.000 MHz
  1024x768@75Hz 4:3 HorFreq: 60000 Hz Clock: 78.750 MHz
  1280x1024@75Hz 5:4 HorFreq: 80000 Hz Clock: 135.000 MHz
Standard timings supported:
  1280x1024@60Hz 5:4 HorFreq: 64000 Hz Clock: 108.000 MHz
  1152x864@75Hz 4:3 HorFreq: 67500 Hz Clock: 108.000 MHz
  1280x960@60Hz 4:3 HorFreq: 60000 Hz Clock: 108.000 MHz
  640x512@75Hz 5:4
  640x360@70Hz 16:9
  720x405@70Hz 16:9
Detailed mode: Clock 108.000 MHz, 372 mm x 301 mm
               1280 1328 1440 1688 hborder 0
               1024 1025 1028 1066 vborder 0
               +hsync +vsync 
               VertFreq: 60 Hz, HorFreq: 63981 Hz
Serial number: --
Monitor ranges (GTF): 55-75Hz V, 30-80kHz H, max dotclock 140MHz
Monitor name: M191S
Checksum: 0x7b (valid)
